ARM GAS  /tmp/claude-502/ccvGLphW.s 			page 1


   1              		.cpu cortex-m7
   2              		.arch armv7e-m
   3              		.fpu fpv5-d16
   4              		.eabi_attribute 28, 1
   5              		.eabi_attribute 20, 1
   6              		.eabi_attribute 21, 1
   7              		.eabi_attribute 23, 3
   8              		.eabi_attribute 24, 1
   9              		.eabi_attribute 25, 1
  10              		.eabi_attribute 26, 1
  11              		.eabi_attribute 30, 2
  12              		.eabi_attribute 34, 1
  13              		.eabi_attribute 18, 4
  14              		.file	"cdc_device.c"
  15              		.text
  16              	.Ltext0:
  17              		.cfi_sections	.debug_frame
  18              		.section	.text._prep_out_transaction.isra.0,"ax",%progbits
  19              		.align	1
  20              		.p2align 2,,3
  21              		.syntax unified
  22              		.thumb
  23              		.thumb_func
  25              	_prep_out_transaction.isra.0:
  26              	.LVL0:
  27              	.LFB432:
  28              		.file 1 "lib/tinyusb/src/class/cdc/cdc_device.c"
   1:lib/tinyusb/src/class/cdc/cdc_device.c **** /*
   2:lib/tinyusb/src/class/cdc/cdc_device.c ****  * The MIT License (MIT)
   3:lib/tinyusb/src/class/cdc/cdc_device.c ****  *
   4:lib/tinyusb/src/class/cdc/cdc_device.c ****  * Copyright (c) 2019 Ha Thach (tinyusb.org)
   5:lib/tinyusb/src/class/cdc/cdc_device.c ****  *
   6:lib/tinyusb/src/class/cdc/cdc_device.c ****  * Permission is hereby granted, free of charge, to any person obtaining a copy
   7:lib/tinyusb/src/class/cdc/cdc_device.c ****  * of this software and associated documentation files (the "Software"), to deal
   8:lib/tinyusb/src/class/cdc/cdc_device.c ****  * in the Software without restriction, including without limitation the rights
   9:lib/tinyusb/src/class/cdc/cdc_device.c ****  * to use, copy, modify, merge, publish, distribute, sublicense, and/or sell
  10:lib/tinyusb/src/class/cdc/cdc_device.c ****  * copies of the Software, and to permit persons to whom the Software is
  11:lib/tinyusb/src/class/cdc/cdc_device.c ****  * furnished to do so, subject to the following conditions:
  12:lib/tinyusb/src/class/cdc/cdc_device.c ****  *
  13:lib/tinyusb/src/class/cdc/cdc_device.c ****  * The above copyright notice and this permission notice shall be included in
  14:lib/tinyusb/src/class/cdc/cdc_device.c ****  * all copies or substantial portions of the Software.
  15:lib/tinyusb/src/class/cdc/cdc_device.c ****  *
  16:lib/tinyusb/src/class/cdc/cdc_device.c ****  * THE SOFTWARE IS PROVIDED "AS IS", WITHOUT WARRANTY OF ANY KIND, EXPRESS OR
  17:lib/tinyusb/src/class/cdc/cdc_device.c ****  * IMPLIED, INCLUDING BUT NOT LIMITED TO THE WARRANTIES OF MERCHANTABILITY,
  18:lib/tinyusb/src/class/cdc/cdc_device.c ****  * FITNESS FOR A PARTICULAR PURPOSE AND NONINFRINGEMENT. IN NO EVENT SHALL THE
  19:lib/tinyusb/src/class/cdc/cdc_device.c ****  * AUTHORS OR COPYRIGHT HOLDERS BE LIABLE FOR ANY CLAIM, DAMAGES OR OTHER
  20:lib/tinyusb/src/class/cdc/cdc_device.c ****  * LIABILITY, WHETHER IN AN ACTION OF CONTRACT, TORT OR OTHERWISE, ARISING FROM,
  21:lib/tinyusb/src/class/cdc/cdc_device.c ****  * OUT OF OR IN CONNECTION WITH THE SOFTWARE OR THE USE OR OTHER DEALINGS IN
  22:lib/tinyusb/src/class/cdc/cdc_device.c ****  * THE SOFTWARE.
  23:lib/tinyusb/src/class/cdc/cdc_device.c ****  *
  24:lib/tinyusb/src/class/cdc/cdc_device.c ****  * This file is part of the TinyUSB stack.
  25:lib/tinyusb/src/class/cdc/cdc_device.c ****  */
  26:lib/tinyusb/src/class/cdc/cdc_device.c **** 
  27:lib/tinyusb/src/class/cdc/cdc_device.c **** #include "tusb_option.h"
  28:lib/tinyusb/src/class/cdc/cdc_device.c **** 
  29:lib/tinyusb/src/class/cdc/cdc_device.c **** #if (CFG_TUD_ENABLED && CFG_TUD_CDC)
  30:lib/tinyusb/src/class/cdc/cdc_device.c **** 
ARM GAS  /tmp/claude-502/ccvGLphW.s 			page 2


  31:lib/tinyusb/src/class/cdc/cdc_device.c **** #include "device/usbd.h"
  32:lib/tinyusb/src/class/cdc/cdc_device.c **** #include "device/usbd_pvt.h"
  33:lib/tinyusb/src/class/cdc/cdc_device.c **** 
  34:lib/tinyusb/src/class/cdc/cdc_device.c **** #include "cdc_device.h"
  35:lib/tinyusb/src/class/cdc/cdc_device.c **** 
  36:lib/tinyusb/src/class/cdc/cdc_device.c **** // Level where CFG_TUSB_DEBUG must be at least for this driver is logged
  37:lib/tinyusb/src/class/cdc/cdc_device.c **** #ifndef CFG_TUD_CDC_LOG_LEVEL
  38:lib/tinyusb/src/class/cdc/cdc_device.c ****   #define CFG_TUD_CDC_LOG_LEVEL   CFG_TUD_LOG_LEVEL
  39:lib/tinyusb/src/class/cdc/cdc_device.c **** #endif
  40:lib/tinyusb/src/class/cdc/cdc_device.c **** 
  41:lib/tinyusb/src/class/cdc/cdc_device.c **** #define TU_LOG_DRV(...)   TU_LOG(CFG_TUD_CDC_LOG_LEVEL, __VA_ARGS__)
  42:lib/tinyusb/src/class/cdc/cdc_device.c **** 
  43:lib/tinyusb/src/class/cdc/cdc_device.c **** //--------------------------------------------------------------------+
  44:lib/tinyusb/src/class/cdc/cdc_device.c **** // MACRO CONSTANT TYPEDEF
  45:lib/tinyusb/src/class/cdc/cdc_device.c **** //--------------------------------------------------------------------+
  46:lib/tinyusb/src/class/cdc/cdc_device.c **** #define BULK_PACKET_SIZE (TUD_OPT_HIGH_SPEED ? 512 : 64)
  47:lib/tinyusb/src/class/cdc/cdc_device.c **** 
  48:lib/tinyusb/src/class/cdc/cdc_device.c **** typedef struct {
  49:lib/tinyusb/src/class/cdc/cdc_device.c ****   uint8_t itf_num;
  50:lib/tinyusb/src/class/cdc/cdc_device.c ****   uint8_t ep_notif;
  51:lib/tinyusb/src/class/cdc/cdc_device.c ****   uint8_t ep_in;
  52:lib/tinyusb/src/class/cdc/cdc_device.c ****   uint8_t ep_out;
  53:lib/tinyusb/src/class/cdc/cdc_device.c **** 
  54:lib/tinyusb/src/class/cdc/cdc_device.c ****   // Bit 0:  DTR (Data Terminal Ready), Bit 1: RTS (Request to Send)
  55:lib/tinyusb/src/class/cdc/cdc_device.c ****   uint8_t line_state;
  56:lib/tinyusb/src/class/cdc/cdc_device.c **** 
  57:lib/tinyusb/src/class/cdc/cdc_device.c ****   /*------------- From this point, data is not cleared by bus reset -------------*/
  58:lib/tinyusb/src/class/cdc/cdc_device.c ****   char wanted_char;
  59:lib/tinyusb/src/class/cdc/cdc_device.c ****   TU_ATTR_ALIGNED(4) cdc_line_coding_t line_coding;
  60:lib/tinyusb/src/class/cdc/cdc_device.c **** 
  61:lib/tinyusb/src/class/cdc/cdc_device.c ****   // FIFO
  62:lib/tinyusb/src/class/cdc/cdc_device.c ****   tu_fifo_t rx_ff;
  63:lib/tinyusb/src/class/cdc/cdc_device.c ****   tu_fifo_t tx_ff;
  64:lib/tinyusb/src/class/cdc/cdc_device.c **** 
  65:lib/tinyusb/src/class/cdc/cdc_device.c ****   uint8_t rx_ff_buf[CFG_TUD_CDC_RX_BUFSIZE];
  66:lib/tinyusb/src/class/cdc/cdc_device.c ****   uint8_t tx_ff_buf[CFG_TUD_CDC_TX_BUFSIZE];
  67:lib/tinyusb/src/class/cdc/cdc_device.c **** 
  68:lib/tinyusb/src/class/cdc/cdc_device.c ****   OSAL_MUTEX_DEF(rx_ff_mutex);
  69:lib/tinyusb/src/class/cdc/cdc_device.c ****   OSAL_MUTEX_DEF(tx_ff_mutex);
  70:lib/tinyusb/src/class/cdc/cdc_device.c **** 
  71:lib/tinyusb/src/class/cdc/cdc_device.c ****   // Endpoint Transfer buffer
  72:lib/tinyusb/src/class/cdc/cdc_device.c ****   CFG_TUSB_MEM_ALIGN uint8_t epout_buf[CFG_TUD_CDC_EP_BUFSIZE];
  73:lib/tinyusb/src/class/cdc/cdc_device.c ****   CFG_TUSB_MEM_ALIGN uint8_t epin_buf[CFG_TUD_CDC_EP_BUFSIZE];
  74:lib/tinyusb/src/class/cdc/cdc_device.c **** } cdcd_interface_t;
  75:lib/tinyusb/src/class/cdc/cdc_device.c **** 
  76:lib/tinyusb/src/class/cdc/cdc_device.c **** #define ITF_MEM_RESET_SIZE   offsetof(cdcd_interface_t, wanted_char)
  77:lib/tinyusb/src/class/cdc/cdc_device.c **** 
  78:lib/tinyusb/src/class/cdc/cdc_device.c **** //--------------------------------------------------------------------+
  79:lib/tinyusb/src/class/cdc/cdc_device.c **** // INTERNAL OBJECT & FUNCTION DECLARATION
  80:lib/tinyusb/src/class/cdc/cdc_device.c **** //--------------------------------------------------------------------+
  81:lib/tinyusb/src/class/cdc/cdc_device.c **** CFG_TUD_MEM_SECTION static cdcd_interface_t _cdcd_itf[CFG_TUD_CDC];
  82:lib/tinyusb/src/class/cdc/cdc_device.c **** static tud_cdc_configure_fifo_t _cdcd_fifo_cfg;
  83:lib/tinyusb/src/class/cdc/cdc_device.c **** 
  84:lib/tinyusb/src/class/cdc/cdc_device.c **** static bool _prep_out_transaction (cdcd_interface_t* p_cdc) {
  29              		.loc 1 84 13 view -0
  30              		.cfi_startproc
  31              		@ args = 0, pretend = 0, frame = 0
ARM GAS  /tmp/claude-502/ccvGLphW.s 			page 3


  32              		@ frame_needed = 0, uses_anonymous_args = 0
  85:lib/tinyusb/src/class/cdc/cdc_device.c ****   uint8_t const rhport = 0;
  33              		.loc 1 85 3 view .LVU1
  86:lib/tinyusb/src/class/cdc/cdc_device.c **** 
  87:lib/tinyusb/src/class/cdc/cdc_device.c ****   // Skip if usb is not ready yet
  88:lib/tinyusb/src/class/cdc/cdc_device.c ****   TU_VERIFY(tud_ready() && p_cdc->ep_out);
  34              		.loc 1 88 3 view .LVU2
  35              		.loc 1 88 3 view .LVU3
  36              	.LBB55:
  37              	.LBI55:
  38              		.file 2 "lib/tinyusb/src/device/usbd.h"
   1:lib/tinyusb/src/device/usbd.h **** /*
   2:lib/tinyusb/src/device/usbd.h ****  * The MIT License (MIT)
   3:lib/tinyusb/src/device/usbd.h ****  *
   4:lib/tinyusb/src/device/usbd.h ****  * Copyright (c) 2019 Ha Thach (tinyusb.org)
   5:lib/tinyusb/src/device/usbd.h ****  *
   6:lib/tinyusb/src/device/usbd.h ****  * Permission is hereby granted, free of charge, to any person obtaining a copy
   7:lib/tinyusb/src/device/usbd.h ****  * of this software and associated documentation files (the "Software"), to deal
   8:lib/tinyusb/src/device/usbd.h ****  * in the Software without restriction, including without limitation the rights
   9:lib/tinyusb/src/device/usbd.h ****  * to use, copy, modify, merge, publish, distribute, sublicense, and/or sell
  10:lib/tinyusb/src/device/usbd.h ****  * copies of the Software, and to permit persons to whom the Software is
  11:lib/tinyusb/src/device/usbd.h ****  * furnished to do so, subject to the following conditions:
  12:lib/tinyusb/src/device/usbd.h ****  *
  13:lib/tinyusb/src/device/usbd.h ****  * The above copyright notice and this permission notice shall be included in
  14:lib/tinyusb/src/device/usbd.h ****  * all copies or substantial portions of the Software.
  15:lib/tinyusb/src/device/usbd.h ****  *
  16:lib/tinyusb/src/device/usbd.h ****  * THE SOFTWARE IS PROVIDED "AS IS", WITHOUT WARRANTY OF ANY KIND, EXPRESS OR
  17:lib/tinyusb/src/device/usbd.h ****  * IMPLIED, INCLUDING BUT NOT LIMITED TO THE WARRANTIES OF MERCHANTABILITY,
  18:lib/tinyusb/src/device/usbd.h ****  * FITNESS FOR A PARTICULAR PURPOSE AND NONINFRINGEMENT. IN NO EVENT SHALL THE
  19:lib/tinyusb/src/device/usbd.h ****  * AUTHORS OR COPYRIGHT HOLDERS BE LIABLE FOR ANY CLAIM, DAMAGES OR OTHER
  20:lib/tinyusb/src/device/usbd.h ****  * LIABILITY, WHETHER IN AN ACTION OF CONTRACT, TORT OR OTHERWISE, ARISING FROM,
  21:lib/tinyusb/src/device/usbd.h ****  * OUT OF OR IN CONNECTION WITH THE SOFTWARE OR THE USE OR OTHER DEALINGS IN
  22:lib/tinyusb/src/device/usbd.h ****  * THE SOFTWARE.
  23:lib/tinyusb/src/device/usbd.h ****  *
  24:lib/tinyusb/src/device/usbd.h ****  * This file is part of the TinyUSB stack.
  25:lib/tinyusb/src/device/usbd.h ****  */
  26:lib/tinyusb/src/device/usbd.h **** 
  27:lib/tinyusb/src/device/usbd.h **** #ifndef _TUSB_USBD_H_
  28:lib/tinyusb/src/device/usbd.h **** #define _TUSB_USBD_H_
  29:lib/tinyusb/src/device/usbd.h **** 
  30:lib/tinyusb/src/device/usbd.h **** #include "common/tusb_common.h"
  31:lib/tinyusb/src/device/usbd.h **** 
  32:lib/tinyusb/src/device/usbd.h **** #ifdef __cplusplus
  33:lib/tinyusb/src/device/usbd.h **** extern "C" {
  34:lib/tinyusb/src/device/usbd.h **** #endif
  35:lib/tinyusb/src/device/usbd.h **** 
  36:lib/tinyusb/src/device/usbd.h **** //--------------------------------------------------------------------+
  37:lib/tinyusb/src/device/usbd.h **** // Application API
  38:lib/tinyusb/src/device/usbd.h **** //--------------------------------------------------------------------+
  39:lib/tinyusb/src/device/usbd.h **** 
  40:lib/tinyusb/src/device/usbd.h **** // Init device stack on roothub port
  41:lib/tinyusb/src/device/usbd.h **** bool tud_init (uint8_t rhport);
  42:lib/tinyusb/src/device/usbd.h **** 
  43:lib/tinyusb/src/device/usbd.h **** // Deinit device stack on roothub port
  44:lib/tinyusb/src/device/usbd.h **** bool tud_deinit(uint8_t rhport);
  45:lib/tinyusb/src/device/usbd.h **** 
  46:lib/tinyusb/src/device/usbd.h **** // Check if device stack is already initialized
ARM GAS  /tmp/claude-502/ccvGLphW.s 			page 4


  47:lib/tinyusb/src/device/usbd.h **** bool tud_inited(void);
  48:lib/tinyusb/src/device/usbd.h **** 
  49:lib/tinyusb/src/device/usbd.h **** // Task function should be called in main/rtos loop, extended version of tud_task()
  50:lib/tinyusb/src/device/usbd.h **** // - timeout_ms: millisecond to wait, zero = no wait, 0xFFFFFFFF = wait forever
  51:lib/tinyusb/src/device/usbd.h **** // - in_isr: if function is called in ISR
  52:lib/tinyusb/src/device/usbd.h **** void tud_task_ext(uint32_t timeout_ms, bool in_isr);
  53:lib/tinyusb/src/device/usbd.h **** 
  54:lib/tinyusb/src/device/usbd.h **** // Task function should be called in main/rtos loop
  55:lib/tinyusb/src/device/usbd.h **** TU_ATTR_ALWAYS_INLINE static inline
  56:lib/tinyusb/src/device/usbd.h **** void tud_task (void) {
  57:lib/tinyusb/src/device/usbd.h ****   tud_task_ext(UINT32_MAX, false);
  58:lib/tinyusb/src/device/usbd.h **** }
  59:lib/tinyusb/src/device/usbd.h **** 
  60:lib/tinyusb/src/device/usbd.h **** // Check if there is pending events need processing by tud_task()
  61:lib/tinyusb/src/device/usbd.h **** bool tud_task_event_ready(void);
  62:lib/tinyusb/src/device/usbd.h **** 
  63:lib/tinyusb/src/device/usbd.h **** #ifndef TUSB_DCD_H_
  64:lib/tinyusb/src/device/usbd.h **** extern void dcd_int_handler(uint8_t rhport);
  65:lib/tinyusb/src/device/usbd.h **** #endif
  66:lib/tinyusb/src/device/usbd.h **** 
  67:lib/tinyusb/src/device/usbd.h **** // Interrupt handler, name alias to DCD
  68:lib/tinyusb/src/device/usbd.h **** #define tud_int_handler   dcd_int_handler
  69:lib/tinyusb/src/device/usbd.h **** 
  70:lib/tinyusb/src/device/usbd.h **** // Get current bus speed
  71:lib/tinyusb/src/device/usbd.h **** tusb_speed_t tud_speed_get(void);
  72:lib/tinyusb/src/device/usbd.h **** 
  73:lib/tinyusb/src/device/usbd.h **** // Check if device is connected (may not mounted/configured yet)
  74:lib/tinyusb/src/device/usbd.h **** // True if just got out of Bus Reset and received the very first data from host
  75:lib/tinyusb/src/device/usbd.h **** bool tud_connected(void);
  76:lib/tinyusb/src/device/usbd.h **** 
  77:lib/tinyusb/src/device/usbd.h **** // Check if device is connected and configured
  78:lib/tinyusb/src/device/usbd.h **** bool tud_mounted(void);
  79:lib/tinyusb/src/device/usbd.h **** 
  80:lib/tinyusb/src/device/usbd.h **** // Check if device is suspended
  81:lib/tinyusb/src/device/usbd.h **** bool tud_suspended(void);
  82:lib/tinyusb/src/device/usbd.h **** 
  83:lib/tinyusb/src/device/usbd.h **** // Check if device is ready to transfer
  84:lib/tinyusb/src/device/usbd.h **** TU_ATTR_ALWAYS_INLINE static inline
  85:lib/tinyusb/src/device/usbd.h **** bool tud_ready(void) {
  39              		.loc 2 85 6 view .LVU4
  40              	.LBB56:
  86:lib/tinyusb/src/device/usbd.h ****   return tud_mounted() && !tud_suspended();
  41              		.loc 2 86 3 view .LVU5
  42              	.LBE56:
  43              	.LBE55:
  84:lib/tinyusb/src/class/cdc/cdc_device.c ****   uint8_t const rhport = 0;
  44              		.loc 1 84 13 is_stmt 0 view .LVU6
  45 0000 70B5     		push	{r4, r5, r6, lr}
  46              		.cfi_def_cfa_offset 16
  47              		.cfi_offset 4, -16
  48              		.cfi_offset 5, -12
  49              		.cfi_offset 6, -8
  50              		.cfi_offset 14, -4
  84:lib/tinyusb/src/class/cdc/cdc_device.c ****   uint8_t const rhport = 0;
  51              		.loc 1 84 13 view .LVU7
  52 0002 0446     		mov	r4, r0
  53              	.LBB59:
ARM GAS  /tmp/claude-502/ccvGLphW.s 			page 5


  54              	.LBB57:
  55              		.loc 2 86 10 view .LVU8
  56 0004 FFF7FEFF 		bl	tud_mounted
  57              	.LVL1:
  58              		.loc 2 86 24 view .LVU9
  59 0008 00B9     		cbnz	r0, .L18
  60              	.L1:
  61              	.LBE57:
  62              	.LBE59:
  89:lib/tinyusb/src/class/cdc/cdc_device.c **** 
  90:lib/tinyusb/src/class/cdc/cdc_device.c ****   uint16_t available = tu_fifo_remaining(&p_cdc->rx_ff);
  91:lib/tinyusb/src/class/cdc/cdc_device.c **** 
  92:lib/tinyusb/src/class/cdc/cdc_device.c ****   // Prepare for incoming data but only allow what we can store in the ring buffer.
  93:lib/tinyusb/src/class/cdc/cdc_device.c ****   // TODO Actually we can still carry out the transfer, keeping count of received bytes
  94:lib/tinyusb/src/class/cdc/cdc_device.c ****   // and slowly move it to the FIFO when read().
  95:lib/tinyusb/src/class/cdc/cdc_device.c ****   // This pre-check reduces endpoint claiming
  96:lib/tinyusb/src/class/cdc/cdc_device.c ****   TU_VERIFY(available >= sizeof(p_cdc->epout_buf));
  97:lib/tinyusb/src/class/cdc/cdc_device.c **** 
  98:lib/tinyusb/src/class/cdc/cdc_device.c ****   // claim endpoint
  99:lib/tinyusb/src/class/cdc/cdc_device.c ****   TU_VERIFY(usbd_edpt_claim(rhport, p_cdc->ep_out));
 100:lib/tinyusb/src/class/cdc/cdc_device.c **** 
 101:lib/tinyusb/src/class/cdc/cdc_device.c ****   // fifo can be changed before endpoint is claimed
 102:lib/tinyusb/src/class/cdc/cdc_device.c ****   available = tu_fifo_remaining(&p_cdc->rx_ff);
 103:lib/tinyusb/src/class/cdc/cdc_device.c **** 
 104:lib/tinyusb/src/class/cdc/cdc_device.c ****   if ( available >= sizeof(p_cdc->epout_buf) ) {
 105:lib/tinyusb/src/class/cdc/cdc_device.c ****     return usbd_edpt_xfer(rhport, p_cdc->ep_out, p_cdc->epout_buf, sizeof(p_cdc->epout_buf));
 106:lib/tinyusb/src/class/cdc/cdc_device.c ****   }else {
 107:lib/tinyusb/src/class/cdc/cdc_device.c ****     // Release endpoint since we don't make any transfer
 108:lib/tinyusb/src/class/cdc/cdc_device.c ****     usbd_edpt_release(rhport, p_cdc->ep_out);
 109:lib/tinyusb/src/class/cdc/cdc_device.c ****     return false;
 110:lib/tinyusb/src/class/cdc/cdc_device.c ****   }
 111:lib/tinyusb/src/class/cdc/cdc_device.c **** }
  63              		.loc 1 111 1 view .LVU10
  64 000a 70BD     		pop	{r4, r5, r6, pc}
  65              	.LVL2:
  66              	.L18:
  67              	.LBB60:
  68              	.LBB58:
  69              		.loc 2 86 28 view .LVU11
  70 000c FFF7FEFF 		bl	tud_suspended
  71              	.LVL3:
  72              		.loc 2 86 24 view .LVU12
  73 0010 0546     		mov	r5, r0
  74 0012 0028     		cmp	r0, #0
  75 0014 F9D1     		bne	.L1
  76              	.LBE58:
  77              	.LBE60:
  88:lib/tinyusb/src/class/cdc/cdc_device.c **** 
  78              		.loc 1 88 3 view .LVU13
  79 0016 E378     		ldrb	r3, [r4, #3]	@ zero_extendqisi2
  80 0018 002B     		cmp	r3, #0
  81 001a F6D0     		beq	.L1
  82              	.LVL4:
  83              	.LBB61:
  84              	.LBI61:
  84:lib/tinyusb/src/class/cdc/cdc_device.c ****   uint8_t const rhport = 0;
  85              		.loc 1 84 13 is_stmt 1 view .LVU14
ARM GAS  /tmp/claude-502/ccvGLphW.s 			page 6


  86              	.LBB62:
  88:lib/tinyusb/src/class/cdc/cdc_device.c **** 
  87              		.loc 1 88 3 view .LVU15
  90:lib/tinyusb/src/class/cdc/cdc_device.c **** 
  88              		.loc 1 90 3 view .LVU16
  90:lib/tinyusb/src/class/cdc/cdc_device.c **** 
  89              		.loc 1 90 24 is_stmt 0 view .LVU17
  90 001c 04F11006 		add	r6, r4, #16
  91 0020 3046     		mov	r0, r6
  92 0022 FFF7FEFF 		bl	tu_fifo_remaining
  93              	.LVL5:
  96:lib/tinyusb/src/class/cdc/cdc_device.c **** 
  94              		.loc 1 96 3 is_stmt 1 view .LVU18
  96:lib/tinyusb/src/class/cdc/cdc_device.c **** 
  95              		.loc 1 96 3 view .LVU19
  96 0026 3F28     		cmp	r0, #63
  97 0028 EFD9     		bls	.L1
  96:lib/tinyusb/src/class/cdc/cdc_device.c **** 
  98              		.loc 1 96 3 view .LVU20
  99:lib/tinyusb/src/class/cdc/cdc_device.c **** 
  99              		.loc 1 99 3 view .LVU21
  99:lib/tinyusb/src/class/cdc/cdc_device.c **** 
 100              		.loc 1 99 3 view .LVU22
 101 002a E178     		ldrb	r1, [r4, #3]	@ zero_extendqisi2
 102 002c 2846     		mov	r0, r5
 103              	.LVL6:
  99:lib/tinyusb/src/class/cdc/cdc_device.c **** 
 104              		.loc 1 99 3 is_stmt 0 view .LVU23
 105 002e FFF7FEFF 		bl	usbd_edpt_claim
 106              	.LVL7:
 107 0032 0028     		cmp	r0, #0
 108 0034 E9D0     		beq	.L1
  99:lib/tinyusb/src/class/cdc/cdc_device.c **** 
 109              		.loc 1 99 3 is_stmt 1 view .LVU24
 102:lib/tinyusb/src/class/cdc/cdc_device.c **** 
 110              		.loc 1 102 3 view .LVU25
 102:lib/tinyusb/src/class/cdc/cdc_device.c **** 
 111              		.loc 1 102 15 is_stmt 0 view .LVU26
 112 0036 3046     		mov	r0, r6
 113 0038 FFF7FEFF 		bl	tu_fifo_remaining
 114              	.LVL8:
 104:lib/tinyusb/src/class/cdc/cdc_device.c ****     return usbd_edpt_xfer(rhport, p_cdc->ep_out, p_cdc->epout_buf, sizeof(p_cdc->epout_buf));
 115              		.loc 1 104 3 is_stmt 1 view .LVU27
 104:lib/tinyusb/src/class/cdc/cdc_device.c ****     return usbd_edpt_xfer(rhport, p_cdc->ep_out, p_cdc->epout_buf, sizeof(p_cdc->epout_buf));
 116              		.loc 1 104 6 is_stmt 0 view .LVU28
 117 003c 3F28     		cmp	r0, #63
 118 003e 08D9     		bls	.L6
 105:lib/tinyusb/src/class/cdc/cdc_device.c ****   }else {
 119              		.loc 1 105 5 is_stmt 1 view .LVU29
 105:lib/tinyusb/src/class/cdc/cdc_device.c ****   }else {
 120              		.loc 1 105 12 is_stmt 0 view .LVU30
 121 0040 04F50A72 		add	r2, r4, #552
 122 0044 E178     		ldrb	r1, [r4, #3]	@ zero_extendqisi2
 123 0046 2846     		mov	r0, r5
 124              	.LVL9:
 105:lib/tinyusb/src/class/cdc/cdc_device.c ****   }else {
 125              		.loc 1 105 12 view .LVU31
ARM GAS  /tmp/claude-502/ccvGLphW.s 			page 7


 126 0048 4023     		movs	r3, #64
 127              	.LBE62:
 128              	.LBE61:
 129              		.loc 1 111 1 view .LVU32
 130 004a BDE87040 		pop	{r4, r5, r6, lr}
 131              		.cfi_remember_state
 132              		.cfi_restore 14
 133              		.cfi_restore 6
 134              		.cfi_restore 5
 135              		.cfi_restore 4
 136              		.cfi_def_cfa_offset 0
 137              	.LVL10:
 138              	.LBB65:
 139              	.LBB63:
 105:lib/tinyusb/src/class/cdc/cdc_device.c ****   }else {
 140              		.loc 1 105 12 view .LVU33
 141 004e FFF7FEBF 		b	usbd_edpt_xfer
 142              	.LVL11:
 143              	.L6:
 144              		.cfi_restore_state
 108:lib/tinyusb/src/class/cdc/cdc_device.c ****     return false;
 145              		.loc 1 108 5 is_stmt 1 view .LVU34
 146 0052 E178     		ldrb	r1, [r4, #3]	@ zero_extendqisi2
 147 0054 2846     		mov	r0, r5
 148              	.LVL12:
 108:lib/tinyusb/src/class/cdc/cdc_device.c ****     return false;
 149              		.loc 1 108 5 is_stmt 0 view .LVU35
 150              	.LBE63:
 151              	.LBE65:
 152              		.loc 1 111 1 view .LVU36
 153 0056 BDE87040 		pop	{r4, r5, r6, lr}
 154              		.cfi_restore 14
 155              		.cfi_restore 6
 156              		.cfi_restore 5
 157              		.cfi_restore 4
 158              		.cfi_def_cfa_offset 0
 159              	.LVL13:
 160              	.LBB66:
 161              	.LBB64:
 108:lib/tinyusb/src/class/cdc/cdc_device.c ****     return false;
 162              		.loc 1 108 5 view .LVU37
 163 005a FFF7FEBF 		b	usbd_edpt_release
 164              	.LVL14:
 165              	.LBE64:
 166              	.LBE66:
 167              		.cfi_endproc
 168              	.LFE432:
 170 005e 00BF     		.section	.text.tud_cdc_configure_fifo,"ax",%progbits
 171              		.align	1
 172              		.p2align 2,,3
 173              		.global	tud_cdc_configure_fifo
 174              		.syntax unified
 175              		.thumb
 176              		.thumb_func
 178              	tud_cdc_configure_fifo:
 179              	.LVL15:
 180              	.LFB411:
ARM GAS  /tmp/claude-502/ccvGLphW.s 			page 8


 112:lib/tinyusb/src/class/cdc/cdc_device.c **** 
 113:lib/tinyusb/src/class/cdc/cdc_device.c **** //--------------------------------------------------------------------+
 114:lib/tinyusb/src/class/cdc/cdc_device.c **** // APPLICATION API
 115:lib/tinyusb/src/class/cdc/cdc_device.c **** //--------------------------------------------------------------------+
 116:lib/tinyusb/src/class/cdc/cdc_device.c **** 
 117:lib/tinyusb/src/class/cdc/cdc_device.c **** bool tud_cdc_configure_fifo(tud_cdc_configure_fifo_t const* cfg) {
 181              		.loc 1 117 66 is_stmt 1 view -0
 182              		.cfi_startproc
 183              		@ args = 0, pretend = 0, frame = 0
 184              		@ frame_needed = 0, uses_anonymous_args = 0
 185              		@ link register save eliminated.
 118:lib/tinyusb/src/class/cdc/cdc_device.c ****   TU_VERIFY(cfg);
 186              		.loc 1 118 3 view .LVU39
 187              		.loc 1 118 3 view .LVU40
 188 0000 18B1     		cbz	r0, .L20
 189              		.loc 1 118 3 discriminator 2 view .LVU41
 119:lib/tinyusb/src/class/cdc/cdc_device.c ****   _cdcd_fifo_cfg = (*cfg);
 190              		.loc 1 119 3 discriminator 2 view .LVU42
 191              		.loc 1 119 18 is_stmt 0 discriminator 2 view .LVU43
 192 0002 0278     		ldrb	r2, [r0]	@ zero_extendqisi2
 120:lib/tinyusb/src/class/cdc/cdc_device.c ****   return true;
 193              		.loc 1 120 10 discriminator 2 view .LVU44
 194 0004 0120     		movs	r0, #1
 195              	.LVL16:
 119:lib/tinyusb/src/class/cdc/cdc_device.c ****   _cdcd_fifo_cfg = (*cfg);
 196              		.loc 1 119 18 discriminator 2 view .LVU45
 197 0006 014B     		ldr	r3, .L22
 198 0008 1A70     		strb	r2, [r3]
 199              		.loc 1 120 3 is_stmt 1 discriminator 2 view .LVU46
 200              	.L20:
 121:lib/tinyusb/src/class/cdc/cdc_device.c **** }
 201              		.loc 1 121 1 is_stmt 0 view .LVU47
 202 000a 7047     		bx	lr
 203              	.L23:
 204              		.align	2
 205              	.L22:
 206 000c 00000000 		.word	.LANCHOR0
 207              		.cfi_endproc
 208              	.LFE411:
 210              		.section	.text.tud_cdc_n_ready,"ax",%progbits
 211              		.align	1
 212              		.p2align 2,,3
 213              		.global	tud_cdc_n_ready
 214              		.syntax unified
 215              		.thumb
 216              		.thumb_func
 218              	tud_cdc_n_ready:
 219              	.LVL17:
 220              	.LFB412:
 122:lib/tinyusb/src/class/cdc/cdc_device.c **** 
 123:lib/tinyusb/src/class/cdc/cdc_device.c **** bool tud_cdc_n_ready(uint8_t itf) {
 221              		.loc 1 123 35 is_stmt 1 view -0
 222              		.cfi_startproc
 223              		@ args = 0, pretend = 0, frame = 0
 224              		@ frame_needed = 0, uses_anonymous_args = 0
 124:lib/tinyusb/src/class/cdc/cdc_device.c ****   return tud_ready() && _cdcd_itf[itf].ep_in != 0 && _cdcd_itf[itf].ep_out != 0;
 225              		.loc 1 124 3 view .LVU49
ARM GAS  /tmp/claude-502/ccvGLphW.s 			page 9


 226              	.LBB67:
 227              	.LBI67:
  85:lib/tinyusb/src/device/usbd.h ****   return tud_mounted() && !tud_suspended();
 228              		.loc 2 85 6 view .LVU50
 229              	.LBB68:
 230              		.loc 2 86 3 view .LVU51
 231              	.LBE68:
 232              	.LBE67:
 123:lib/tinyusb/src/class/cdc/cdc_device.c ****   return tud_ready() && _cdcd_itf[itf].ep_in != 0 && _cdcd_itf[itf].ep_out != 0;
 233              		.loc 1 123 35 is_stmt 0 view .LVU52
 234 0000 38B5     		push	{r3, r4, r5, lr}
 235              		.cfi_def_cfa_offset 16
 236              		.cfi_offset 3, -16
 237              		.cfi_offset 4, -12
 238              		.cfi_offset 5, -8
 239              		.cfi_offset 14, -4
 123:lib/tinyusb/src/class/cdc/cdc_device.c ****   return tud_ready() && _cdcd_itf[itf].ep_in != 0 && _cdcd_itf[itf].ep_out != 0;
 240              		.loc 1 123 35 view .LVU53
 241 0002 0546     		mov	r5, r0
 242              	.LBB71:
 243              	.LBB69:
 244              		.loc 2 86 10 view .LVU54
 245 0004 FFF7FEFF 		bl	tud_mounted
 246              	.LVL18:
 247              		.loc 2 86 24 view .LVU55
 248 0008 10B9     		cbnz	r0, .L36
 249              	.L25:
 250              	.LBE69:
 251              	.LBE71:
 123:lib/tinyusb/src/class/cdc/cdc_device.c ****   return tud_ready() && _cdcd_itf[itf].ep_in != 0 && _cdcd_itf[itf].ep_out != 0;
 252              		.loc 1 123 35 view .LVU56
 253 000a 0024     		movs	r4, #0
 125:lib/tinyusb/src/class/cdc/cdc_device.c **** }
 254              		.loc 1 125 1 view .LVU57
 255 000c 2046     		mov	r0, r4
 256 000e 38BD     		pop	{r3, r4, r5, pc}
 257              	.L36:
 258 0010 0446     		mov	r4, r0
 259              	.LBB72:
 260              	.LBB70:
 261              		.loc 2 86 28 view .LVU58
 262 0012 FFF7FEFF 		bl	tud_suspended
 263              	.LVL19:
 264              		.loc 2 86 24 view .LVU59
 265 0016 0028     		cmp	r0, #0
 266 0018 F7D1     		bne	.L25
 267              	.LBE70:
 268              	.LBE72:
 124:lib/tinyusb/src/class/cdc/cdc_device.c **** }
 269              		.loc 1 124 39 view .LVU60
 270 001a 4FF42A73 		mov	r3, #680
 271 001e 0548     		ldr	r0, .L37
 272 0020 03FB0500 		mla	r0, r3, r5, r0
 124:lib/tinyusb/src/class/cdc/cdc_device.c **** }
 273              		.loc 1 124 22 view .LVU61
 274 0024 8378     		ldrb	r3, [r0, #2]	@ zero_extendqisi2
 275 0026 002B     		cmp	r3, #0
ARM GAS  /tmp/claude-502/ccvGLphW.s 			page 10


 276 0028 EFD0     		beq	.L25
 124:lib/tinyusb/src/class/cdc/cdc_device.c **** }
 277              		.loc 1 124 51 discriminator 3 view .LVU62
 278 002a C378     		ldrb	r3, [r0, #3]	@ zero_extendqisi2
 279 002c 002B     		cmp	r3, #0
 280 002e ECD0     		beq	.L25
 281              		.loc 1 125 1 view .LVU63
 282 0030 2046     		mov	r0, r4
 283 0032 38BD     		pop	{r3, r4, r5, pc}
 284              	.L38:
 285              		.align	2
 286              	.L37:
 287 0034 00000000 		.word	.LANCHOR1
 288              		.cfi_endproc
 289              	.LFE412:
 291              		.section	.text.tud_cdc_n_connected,"ax",%progbits
 292              		.align	1
 293              		.p2align 2,,3
 294              		.global	tud_cdc_n_connected
 295              		.syntax unified
 296              		.thumb
 297              		.thumb_func
 299              	tud_cdc_n_connected:
 300              	.LVL20:
 301              	.LFB413:
 126:lib/tinyusb/src/class/cdc/cdc_device.c **** 
 127:lib/tinyusb/src/class/cdc/cdc_device.c **** bool tud_cdc_n_connected(uint8_t itf) {
 302              		.loc 1 127 39 is_stmt 1 view -0
 303              		.cfi_startproc
 304              		@ args = 0, pretend = 0, frame = 0
 305              		@ frame_needed = 0, uses_anonymous_args = 0
 128:lib/tinyusb/src/class/cdc/cdc_device.c ****   // DTR (bit 0) active  is considered as connected
 129:lib/tinyusb/src/class/cdc/cdc_device.c ****   return tud_ready() && tu_bit_test(_cdcd_itf[itf].line_state, 0);
 306              		.loc 1 129 3 view .LVU65
 307              	.LBB73:
 308              	.LBI73:
  85:lib/tinyusb/src/device/usbd.h ****   return tud_mounted() && !tud_suspended();
 309              		.loc 2 85 6 view .LVU66
 310              	.LBB74:
 311              		.loc 2 86 3 view .LVU67
 312              	.LBE74:
 313              	.LBE73:
 127:lib/tinyusb/src/class/cdc/cdc_device.c ****   // DTR (bit 0) active  is considered as connected
 314              		.loc 1 127 39 is_stmt 0 view .LVU68
 315 0000 10B5     		push	{r4, lr}
 316              		.cfi_def_cfa_offset 8
 317              		.cfi_offset 4, -8
 318              		.cfi_offset 14, -4
 127:lib/tinyusb/src/class/cdc/cdc_device.c ****   // DTR (bit 0) active  is considered as connected
 319              		.loc 1 127 39 view .LVU69
 320 0002 0446     		mov	r4, r0
 321              	.LBB77:
 322              	.LBB75:
 323              		.loc 2 86 10 view .LVU70
 324 0004 FFF7FEFF 		bl	tud_mounted
 325              	.LVL21:
 326              		.loc 2 86 24 view .LVU71
ARM GAS  /tmp/claude-502/ccvGLphW.s 			page 11


 327 0008 08B9     		cbnz	r0, .L40
 328              	.L42:
 329              	.LBE75:
 330              	.LBE77:
 127:lib/tinyusb/src/class/cdc/cdc_device.c ****   // DTR (bit 0) active  is considered as connected
 331              		.loc 1 127 39 view .LVU72
 332 000a 0020     		movs	r0, #0
 130:lib/tinyusb/src/class/cdc/cdc_device.c **** }
 333              		.loc 1 130 1 view .LVU73
 334 000c 10BD     		pop	{r4, pc}
 335              	.L40:
 336              	.LBB78:
 337              	.LBB76:
 338              		.loc 2 86 28 view .LVU74
 339 000e FFF7FEFF 		bl	tud_suspended
 340              	.LVL22:
 341              		.loc 2 86 24 view .LVU75
 342 0012 0028     		cmp	r0, #0
 343 0014 F9D1     		bne	.L42
 344              	.LVL23:
 345              		.loc 2 86 24 view .LVU76
 346              	.LBE76:
 347              	.LBE78:
 348              	.LBB79:
 349              	.LBI79:
 350              		.file 3 "lib/tinyusb/src/common/tusb_common.h"
   1:lib/tinyusb/src/common/tusb_common.h **** /*
   2:lib/tinyusb/src/common/tusb_common.h ****  * The MIT License (MIT)
   3:lib/tinyusb/src/common/tusb_common.h ****  *
   4:lib/tinyusb/src/common/tusb_common.h ****  * Copyright (c) 2019 Ha Thach (tinyusb.org)
   5:lib/tinyusb/src/common/tusb_common.h ****  *
   6:lib/tinyusb/src/common/tusb_common.h ****  * Permission is hereby granted, free of charge, to any person obtaining a copy
   7:lib/tinyusb/src/common/tusb_common.h ****  * of this software and associated documentation files (the "Software"), to deal
   8:lib/tinyusb/src/common/tusb_common.h ****  * in the Software without restriction, including without limitation the rights
   9:lib/tinyusb/src/common/tusb_common.h ****  * to use, copy, modify, merge, publish, distribute, sublicense, and/or sell
  10:lib/tinyusb/src/common/tusb_common.h ****  * copies of the Software, and to permit persons to whom the Software is
  11:lib/tinyusb/src/common/tusb_common.h ****  * furnished to do so, subject to the following conditions:
  12:lib/tinyusb/src/common/tusb_common.h ****  *
  13:lib/tinyusb/src/common/tusb_common.h ****  * The above copyright notice and this permission notice shall be included in
  14:lib/tinyusb/src/common/tusb_common.h ****  * all copies or substantial portions of the Software.
  15:lib/tinyusb/src/common/tusb_common.h ****  *
  16:lib/tinyusb/src/common/tusb_common.h ****  * THE SOFTWARE IS PROVIDED "AS IS", WITHOUT WARRANTY OF ANY KIND, EXPRESS OR
  17:lib/tinyusb/src/common/tusb_common.h ****  * IMPLIED, INCLUDING BUT NOT LIMITED TO THE WARRANTIES OF MERCHANTABILITY,
  18:lib/tinyusb/src/common/tusb_common.h ****  * FITNESS FOR A PARTICULAR PURPOSE AND NONINFRINGEMENT. IN NO EVENT SHALL THE
  19:lib/tinyusb/src/common/tusb_common.h ****  * AUTHORS OR COPYRIGHT HOLDERS BE LIABLE FOR ANY CLAIM, DAMAGES OR OTHER
  20:lib/tinyusb/src/common/tusb_common.h ****  * LIABILITY, WHETHER IN AN ACTION OF CONTRACT, TORT OR OTHERWISE, ARISING FROM,
  21:lib/tinyusb/src/common/tusb_common.h ****  * OUT OF OR IN CONNECTION WITH THE SOFTWARE OR THE USE OR OTHER DEALINGS IN
  22:lib/tinyusb/src/common/tusb_common.h ****  * THE SOFTWARE.
  23:lib/tinyusb/src/common/tusb_common.h ****  *
  24:lib/tinyusb/src/common/tusb_common.h ****  * This file is part of the TinyUSB stack.
  25:lib/tinyusb/src/common/tusb_common.h ****  */
  26:lib/tinyusb/src/common/tusb_common.h **** 
  27:lib/tinyusb/src/common/tusb_common.h **** #ifndef _TUSB_COMMON_H_
  28:lib/tinyusb/src/common/tusb_common.h **** #define _TUSB_COMMON_H_
  29:lib/tinyusb/src/common/tusb_common.h **** 
  30:lib/tinyusb/src/common/tusb_common.h **** #ifdef __cplusplus
  31:lib/tinyusb/src/common/tusb_common.h ****  extern "C" {
ARM GAS  /tmp/claude-502/ccvGLphW.s 			page 12


  32:lib/tinyusb/src/common/tusb_common.h **** #endif
  33:lib/tinyusb/src/common/tusb_common.h **** 
  34:lib/tinyusb/src/common/tusb_common.h **** //--------------------------------------------------------------------+
  35:lib/tinyusb/src/common/tusb_common.h **** // Macros Helper
  36:lib/tinyusb/src/common/tusb_common.h **** //--------------------------------------------------------------------+
  37:lib/tinyusb/src/common/tusb_common.h **** #define TU_ARRAY_SIZE(_arr)   ( sizeof(_arr) / sizeof(_arr[0]) )
  38:lib/tinyusb/src/common/tusb_common.h **** #define TU_MIN(_x, _y)        ( ( (_x) < (_y) ) ? (_x) : (_y) )
  39:lib/tinyusb/src/common/tusb_common.h **** #define TU_MAX(_x, _y)        ( ( (_x) > (_y) ) ? (_x) : (_y) )
  40:lib/tinyusb/src/common/tusb_common.h **** #define TU_DIV_CEIL(n, d)     (((n) + (d) - 1) / (d))
  41:lib/tinyusb/src/common/tusb_common.h **** 
  42:lib/tinyusb/src/common/tusb_common.h **** #define TU_U16(_high, _low)   ((uint16_t) (((_high) << 8) | (_low)))
  43:lib/tinyusb/src/common/tusb_common.h **** #define TU_U16_HIGH(_u16)     ((uint8_t) (((_u16) >> 8) & 0x00ff))
  44:lib/tinyusb/src/common/tusb_common.h **** #define TU_U16_LOW(_u16)      ((uint8_t) ((_u16)       & 0x00ff))
  45:lib/tinyusb/src/common/tusb_common.h **** #define U16_TO_U8S_BE(_u16)   TU_U16_HIGH(_u16), TU_U16_LOW(_u16)
  46:lib/tinyusb/src/common/tusb_common.h **** #define U16_TO_U8S_LE(_u16)   TU_U16_LOW(_u16), TU_U16_HIGH(_u16)
  47:lib/tinyusb/src/common/tusb_common.h **** 
  48:lib/tinyusb/src/common/tusb_common.h **** #define TU_U32_BYTE3(_u32)    ((uint8_t) ((((uint32_t) _u32) >> 24) & 0x000000ff)) // MSB
  49:lib/tinyusb/src/common/tusb_common.h **** #define TU_U32_BYTE2(_u32)    ((uint8_t) ((((uint32_t) _u32) >> 16) & 0x000000ff))
  50:lib/tinyusb/src/common/tusb_common.h **** #define TU_U32_BYTE1(_u32)    ((uint8_t) ((((uint32_t) _u32) >>  8) & 0x000000ff))
  51:lib/tinyusb/src/common/tusb_common.h **** #define TU_U32_BYTE0(_u32)    ((uint8_t) (((uint32_t)  _u32)        & 0x000000ff)) // LSB
  52:lib/tinyusb/src/common/tusb_common.h **** 
  53:lib/tinyusb/src/common/tusb_common.h **** #define U32_TO_U8S_BE(_u32)   TU_U32_BYTE3(_u32), TU_U32_BYTE2(_u32), TU_U32_BYTE1(_u32), TU_U32_BY
  54:lib/tinyusb/src/common/tusb_common.h **** #define U32_TO_U8S_LE(_u32)   TU_U32_BYTE0(_u32), TU_U32_BYTE1(_u32), TU_U32_BYTE2(_u32), TU_U32_BY
  55:lib/tinyusb/src/common/tusb_common.h **** 
  56:lib/tinyusb/src/common/tusb_common.h **** #define TU_BIT(n)             (1UL << (n))
  57:lib/tinyusb/src/common/tusb_common.h **** 
  58:lib/tinyusb/src/common/tusb_common.h **** // Generate a mask with bit from high (31) to low (0) set, e.g TU_GENMASK(3, 0) = 0b1111
  59:lib/tinyusb/src/common/tusb_common.h **** #define TU_GENMASK(h, l)      ( (UINT32_MAX << (l)) & (UINT32_MAX >> (31 - (h))) )
  60:lib/tinyusb/src/common/tusb_common.h **** 
  61:lib/tinyusb/src/common/tusb_common.h **** //--------------------------------------------------------------------+
  62:lib/tinyusb/src/common/tusb_common.h **** // Includes
  63:lib/tinyusb/src/common/tusb_common.h **** //--------------------------------------------------------------------+
  64:lib/tinyusb/src/common/tusb_common.h **** 
  65:lib/tinyusb/src/common/tusb_common.h **** // Standard Headers
  66:lib/tinyusb/src/common/tusb_common.h **** #include <stdbool.h>
  67:lib/tinyusb/src/common/tusb_common.h **** #include <stdint.h>
  68:lib/tinyusb/src/common/tusb_common.h **** #include <inttypes.h>
  69:lib/tinyusb/src/common/tusb_common.h **** #include <stddef.h>
  70:lib/tinyusb/src/common/tusb_common.h **** #include <string.h>
  71:lib/tinyusb/src/common/tusb_common.h **** #include <stdio.h>
  72:lib/tinyusb/src/common/tusb_common.h **** 
  73:lib/tinyusb/src/common/tusb_common.h **** // Tinyusb Common Headers
  74:lib/tinyusb/src/common/tusb_common.h **** #include "tusb_option.h"
  75:lib/tinyusb/src/common/tusb_common.h **** #include "tusb_compiler.h"
  76:lib/tinyusb/src/common/tusb_common.h **** #include "tusb_verify.h"
  77:lib/tinyusb/src/common/tusb_common.h **** #include "tusb_types.h"
  78:lib/tinyusb/src/common/tusb_common.h **** #include "tusb_debug.h"
  79:lib/tinyusb/src/common/tusb_common.h **** 
  80:lib/tinyusb/src/common/tusb_common.h **** //--------------------------------------------------------------------+
  81:lib/tinyusb/src/common/tusb_common.h **** // Optional API implemented by application if needed
  82:lib/tinyusb/src/common/tusb_common.h **** // TODO move to a more ovious place/file
  83:lib/tinyusb/src/common/tusb_common.h **** //--------------------------------------------------------------------+
  84:lib/tinyusb/src/common/tusb_common.h **** 
  85:lib/tinyusb/src/common/tusb_common.h **** // flush data cache
  86:lib/tinyusb/src/common/tusb_common.h **** TU_ATTR_WEAK extern void tusb_app_dcache_flush(uintptr_t addr, uint32_t data_size);
  87:lib/tinyusb/src/common/tusb_common.h **** 
  88:lib/tinyusb/src/common/tusb_common.h **** // invalidate data cache
ARM GAS  /tmp/claude-502/ccvGLphW.s 			page 13


  89:lib/tinyusb/src/common/tusb_common.h **** TU_ATTR_WEAK extern void tusb_app_dcache_invalidate(uintptr_t addr, uint32_t data_size);
  90:lib/tinyusb/src/common/tusb_common.h **** 
  91:lib/tinyusb/src/common/tusb_common.h **** // Optional physical <-> virtual address translation
  92:lib/tinyusb/src/common/tusb_common.h **** TU_ATTR_WEAK extern void* tusb_app_virt_to_phys(void *virt_addr);
  93:lib/tinyusb/src/common/tusb_common.h **** TU_ATTR_WEAK extern void* tusb_app_phys_to_virt(void *phys_addr);
  94:lib/tinyusb/src/common/tusb_common.h **** 
  95:lib/tinyusb/src/common/tusb_common.h **** //--------------------------------------------------------------------+
  96:lib/tinyusb/src/common/tusb_common.h **** // Internal Inline Functions
  97:lib/tinyusb/src/common/tusb_common.h **** //--------------------------------------------------------------------+
  98:lib/tinyusb/src/common/tusb_common.h **** 
  99:lib/tinyusb/src/common/tusb_common.h **** //------------- Mem -------------//
 100:lib/tinyusb/src/common/tusb_common.h **** #define tu_memclr(buffer, size)  memset((buffer), 0, (size))
 101:lib/tinyusb/src/common/tusb_common.h **** #define tu_varclr(_var)          tu_memclr(_var, sizeof(*(_var)))
 102:lib/tinyusb/src/common/tusb_common.h **** 
 103:lib/tinyusb/src/common/tusb_common.h **** // This is a backport of memset_s from c11
 104:lib/tinyusb/src/common/tusb_common.h **** TU_ATTR_ALWAYS_INLINE static inline int tu_memset_s(void *dest, size_t destsz, int ch, size_t count
 105:lib/tinyusb/src/common/tusb_common.h ****   // TODO may check if desst and src is not NULL
 106:lib/tinyusb/src/common/tusb_common.h ****   if ( count > destsz ) {
 107:lib/tinyusb/src/common/tusb_common.h ****     return -1;
 108:lib/tinyusb/src/common/tusb_common.h ****   }
 109:lib/tinyusb/src/common/tusb_common.h ****   memset(dest, ch, count);
 110:lib/tinyusb/src/common/tusb_common.h ****   return 0;
 111:lib/tinyusb/src/common/tusb_common.h **** }
 112:lib/tinyusb/src/common/tusb_common.h **** 
 113:lib/tinyusb/src/common/tusb_common.h **** // This is a backport of memcpy_s from c11
 114:lib/tinyusb/src/common/tusb_common.h **** TU_ATTR_ALWAYS_INLINE static inline int tu_memcpy_s(void *dest, size_t destsz, const void *src, siz
 115:lib/tinyusb/src/common/tusb_common.h ****   // TODO may check if desst and src is not NULL
 116:lib/tinyusb/src/common/tusb_common.h ****   if ( count > destsz ) {
 117:lib/tinyusb/src/common/tusb_common.h ****     return -1;
 118:lib/tinyusb/src/common/tusb_common.h ****   }
 119:lib/tinyusb/src/common/tusb_common.h ****   memcpy(dest, src, count);
 120:lib/tinyusb/src/common/tusb_common.h ****   return 0;
 121:lib/tinyusb/src/common/tusb_common.h **** }
 122:lib/tinyusb/src/common/tusb_common.h **** 
 123:lib/tinyusb/src/common/tusb_common.h **** 
 124:lib/tinyusb/src/common/tusb_common.h **** //------------- Bytes -------------//
 125:lib/tinyusb/src/common/tusb_common.h **** TU_ATTR_ALWAYS_INLINE static inline uint32_t tu_u32(uint8_t b3, uint8_t b2, uint8_t b1, uint8_t b0)
 126:lib/tinyusb/src/common/tusb_common.h ****   return ( ((uint32_t) b3) << 24) | ( ((uint32_t) b2) << 16) | ( ((uint32_t) b1) << 8) | b0;
 127:lib/tinyusb/src/common/tusb_common.h **** }
 128:lib/tinyusb/src/common/tusb_common.h **** 
 129:lib/tinyusb/src/common/tusb_common.h **** TU_ATTR_ALWAYS_INLINE static inline uint16_t tu_u16(uint8_t high, uint8_t low) {
 130:lib/tinyusb/src/common/tusb_common.h ****   return (uint16_t) ((((uint16_t) high) << 8) | low);
 131:lib/tinyusb/src/common/tusb_common.h **** }
 132:lib/tinyusb/src/common/tusb_common.h **** 
 133:lib/tinyusb/src/common/tusb_common.h **** TU_ATTR_ALWAYS_INLINE static inline uint8_t tu_u32_byte3(uint32_t ui32) { return TU_U32_BYTE3(ui32)
 134:lib/tinyusb/src/common/tusb_common.h **** TU_ATTR_ALWAYS_INLINE static inline uint8_t tu_u32_byte2(uint32_t ui32) { return TU_U32_BYTE2(ui32)
 135:lib/tinyusb/src/common/tusb_common.h **** TU_ATTR_ALWAYS_INLINE static inline uint8_t tu_u32_byte1(uint32_t ui32) { return TU_U32_BYTE1(ui32)
 136:lib/tinyusb/src/common/tusb_common.h **** TU_ATTR_ALWAYS_INLINE static inline uint8_t tu_u32_byte0(uint32_t ui32) { return TU_U32_BYTE0(ui32)
 137:lib/tinyusb/src/common/tusb_common.h **** 
 138:lib/tinyusb/src/common/tusb_common.h **** TU_ATTR_ALWAYS_INLINE static inline uint16_t tu_u32_high16(uint32_t ui32) { return (uint16_t) (ui32
 139:lib/tinyusb/src/common/tusb_common.h **** TU_ATTR_ALWAYS_INLINE static inline uint16_t tu_u32_low16 (uint32_t ui32) { return (uint16_t) (ui32
 140:lib/tinyusb/src/common/tusb_common.h **** 
 141:lib/tinyusb/src/common/tusb_common.h **** TU_ATTR_ALWAYS_INLINE static inline uint8_t tu_u16_high(uint16_t ui16) { return TU_U16_HIGH(ui16); 
 142:lib/tinyusb/src/common/tusb_common.h **** TU_ATTR_ALWAYS_INLINE static inline uint8_t tu_u16_low (uint16_t ui16) { return TU_U16_LOW(ui16); }
 143:lib/tinyusb/src/common/tusb_common.h **** 
 144:lib/tinyusb/src/common/tusb_common.h **** //------------- Bits -------------//
 145:lib/tinyusb/src/common/tusb_common.h **** TU_ATTR_ALWAYS_INLINE static inline uint32_t tu_bit_set  (uint32_t value, uint8_t pos) { return val
ARM GAS  /tmp/claude-502/ccvGLphW.s 			page 14


 146:lib/tinyusb/src/common/tusb_common.h **** TU_ATTR_ALWAYS_INLINE static inline uint32_t tu_bit_clear(uint32_t value, uint8_t pos) { return val
 147:lib/tinyusb/src/common/tusb_common.h **** TU_ATTR_ALWAYS_INLINE static inline bool     tu_bit_test (uint32_t value, uint8_t pos) { return (va
 351              		.loc 3 147 46 is_stmt 1 view .LVU77
 352              	.LBB80:
 353              		.loc 3 147 90 view .LVU78
 354              	.LBE80:
 355              	.LBE79:
 129:lib/tinyusb/src/class/cdc/cdc_device.c **** }
 356              		.loc 1 129 51 is_stmt 0 view .LVU79
 357 0016 4FF42A73 		mov	r3, #680
 358 001a 0348     		ldr	r0, .L46
 359 001c 03FB0400 		mla	r0, r3, r4, r0
 360              	.LBB82:
 361              	.LBB81:
 362              		.loc 3 147 126 view .LVU80
 363 0020 0079     		ldrb	r0, [r0, #4]	@ zero_extendqisi2
 364 0022 00F00100 		and	r0, r0, #1
 365              	.LVL24:
 366              		.loc 3 147 126 view .LVU81
 367              	.LBE81:
 368              	.LBE82:
 369              		.loc 1 130 1 view .LVU82
 370 0026 10BD     		pop	{r4, pc}
 371              	.L47:
 372              		.align	2
 373              	.L46:
 374 0028 00000000 		.word	.LANCHOR1
 375              		.cfi_endproc
 376              	.LFE413:
 378              		.section	.text.tud_cdc_n_get_line_state,"ax",%progbits
 379              		.align	1
 380              		.p2align 2,,3
 381              		.global	tud_cdc_n_get_line_state
 382              		.syntax unified
 383              		.thumb
 384              		.thumb_func
 386              	tud_cdc_n_get_line_state:
 387              	.LVL25:
 388              	.LFB414:
 131:lib/tinyusb/src/class/cdc/cdc_device.c **** 
 132:lib/tinyusb/src/class/cdc/cdc_device.c **** uint8_t tud_cdc_n_get_line_state(uint8_t itf) {
 389              		.loc 1 132 47 is_stmt 1 view -0
 390              		.cfi_startproc
 391              		@ args = 0, pretend = 0, frame = 0
 392              		@ frame_needed = 0, uses_anonymous_args = 0
 393              		@ link register save eliminated.
 133:lib/tinyusb/src/class/cdc/cdc_device.c ****   return _cdcd_itf[itf].line_state;
 394              		.loc 1 133 3 view .LVU84
 395              		.loc 1 133 24 is_stmt 0 view .LVU85
 396 0000 034B     		ldr	r3, .L49
 397 0002 4FF42A72 		mov	r2, #680
 398 0006 02FB0030 		mla	r0, r2, r0, r3
 399              	.LVL26:
 134:lib/tinyusb/src/class/cdc/cdc_device.c **** }
 400              		.loc 1 134 1 view .LVU86
 401 000a 0079     		ldrb	r0, [r0, #4]	@ zero_extendqisi2
 402 000c 7047     		bx	lr
ARM GAS  /tmp/claude-502/ccvGLphW.s 			page 15


 403              	.L50:
 404 000e 00BF     		.align	2
 405              	.L49:
 406 0010 00000000 		.word	.LANCHOR1
 407              		.cfi_endproc
 408              	.LFE414:
 410              		.section	.text.tud_cdc_n_get_line_coding,"ax",%progbits
 411              		.align	1
 412              		.p2align 2,,3
 413              		.global	tud_cdc_n_get_line_coding
 414              		.syntax unified
 415              		.thumb
 416              		.thumb_func
 418              	tud_cdc_n_get_line_coding:
 419              	.LVL27:
 420              	.LFB415:
 135:lib/tinyusb/src/class/cdc/cdc_device.c **** 
 136:lib/tinyusb/src/class/cdc/cdc_device.c **** void tud_cdc_n_get_line_coding(uint8_t itf, cdc_line_coding_t* coding) {
 421              		.loc 1 136 72 is_stmt 1 view -0
 422              		.cfi_startproc
 423              		@ args = 0, pretend = 0, frame = 0
 424              		@ frame_needed = 0, uses_anonymous_args = 0
 425              		@ link register save eliminated.
 137:lib/tinyusb/src/class/cdc/cdc_device.c ****   (*coding) = _cdcd_itf[itf].line_coding;
 426              		.loc 1 137 3 view .LVU88
 427              		.loc 1 137 13 is_stmt 0 view .LVU89
 428 0000 054A     		ldr	r2, .L52
 429 0002 4FF42A73 		mov	r3, #680
 430 0006 03FB0023 		mla	r3, r3, r0, r2
 431 000a 9868     		ldr	r0, [r3, #8]
 432              	.LVL28:
 433              		.loc 1 137 13 view .LVU90
 434 000c 0860     		str	r0, [r1]	@ unaligned
 435 000e 9A89     		ldrh	r2, [r3, #12]	@ unaligned
 436 0010 9B7B     		ldrb	r3, [r3, #14]	@ zero_extendqisi2
 437 0012 8A80     		strh	r2, [r1, #4]	@ unaligned
 438 0014 8B71     		strb	r3, [r1, #6]
 138:lib/tinyusb/src/class/cdc/cdc_device.c **** }
 439              		.loc 1 138 1 view .LVU91
 440 0016 7047     		bx	lr
 441              	.L53:
 442              		.align	2
 443              	.L52:
 444 0018 00000000 		.word	.LANCHOR1
 445              		.cfi_endproc
 446              	.LFE415:
 448              		.section	.text.tud_cdc_n_set_wanted_char,"ax",%progbits
 449              		.align	1
 450              		.p2align 2,,3
 451              		.global	tud_cdc_n_set_wanted_char
 452              		.syntax unified
 453              		.thumb
 454              		.thumb_func
 456              	tud_cdc_n_set_wanted_char:
 457              	.LVL29:
 458              	.LFB416:
 139:lib/tinyusb/src/class/cdc/cdc_device.c **** 
ARM GAS  /tmp/claude-502/ccvGLphW.s 			page 16


 140:lib/tinyusb/src/class/cdc/cdc_device.c **** void tud_cdc_n_set_wanted_char(uint8_t itf, char wanted) {
 459              		.loc 1 140 58 is_stmt 1 view -0
 460              		.cfi_startproc
 461              		@ args = 0, pretend = 0, frame = 0
 462              		@ frame_needed = 0, uses_anonymous_args = 0
 463              		@ link register save eliminated.
 141:lib/tinyusb/src/class/cdc/cdc_device.c ****   _cdcd_itf[itf].wanted_char = wanted;
 464              		.loc 1 141 3 view .LVU93
 465              		.loc 1 141 30 is_stmt 0 view .LVU94
 466 0000 034B     		ldr	r3, .L55
 467 0002 4FF42A72 		mov	r2, #680
 468 0006 02FB0030 		mla	r0, r2, r0, r3
 469              	.LVL30:
 470              		.loc 1 141 30 view .LVU95
 471 000a 4171     		strb	r1, [r0, #5]
 142:lib/tinyusb/src/class/cdc/cdc_device.c **** }
 472              		.loc 1 142 1 view .LVU96
 473 000c 7047     		bx	lr
 474              	.L56:
 475 000e 00BF     		.align	2
 476              	.L55:
 477 0010 00000000 		.word	.LANCHOR1
 478              		.cfi_endproc
 479              	.LFE416:
 481              		.section	.text.tud_cdc_n_available,"ax",%progbits
 482              		.align	1
 483              		.p2align 2,,3
 484              		.global	tud_cdc_n_available
 485              		.syntax unified
 486              		.thumb
 487              		.thumb_func
 489              	tud_cdc_n_available:
 490              	.LVL31:
 491              	.LFB417:
 143:lib/tinyusb/src/class/cdc/cdc_device.c **** 
 144:lib/tinyusb/src/class/cdc/cdc_device.c **** //--------------------------------------------------------------------+
 145:lib/tinyusb/src/class/cdc/cdc_device.c **** // READ API
 146:lib/tinyusb/src/class/cdc/cdc_device.c **** //--------------------------------------------------------------------+
 147:lib/tinyusb/src/class/cdc/cdc_device.c **** uint32_t tud_cdc_n_available(uint8_t itf) {
 492              		.loc 1 147 43 is_stmt 1 view -0
 493              		.cfi_startproc
 494              		@ args = 0, pretend = 0, frame = 0
 495              		@ frame_needed = 0, uses_anonymous_args = 0
 148:lib/tinyusb/src/class/cdc/cdc_device.c ****   return tu_fifo_count(&_cdcd_itf[itf].rx_ff);
 496              		.loc 1 148 3 view .LVU98
 497              		.loc 1 148 10 is_stmt 0 view .LVU99
 498 0000 4FF42A72 		mov	r2, #680
 147:lib/tinyusb/src/class/cdc/cdc_device.c ****   return tu_fifo_count(&_cdcd_itf[itf].rx_ff);
 499              		.loc 1 147 43 view .LVU100
 500 0004 08B5     		push	{r3, lr}
 501              		.cfi_def_cfa_offset 8
 502              		.cfi_offset 3, -8
 503              		.cfi_offset 14, -4
 504              		.loc 1 148 10 view .LVU101
 505 0006 034B     		ldr	r3, .L59
 506 0008 02FB0030 		mla	r0, r2, r0, r3
 507              	.LVL32:
ARM GAS  /tmp/claude-502/ccvGLphW.s 			page 17


 508              		.loc 1 148 10 view .LVU102
 509 000c 1030     		adds	r0, r0, #16
 510 000e FFF7FEFF 		bl	tu_fifo_count
 511              	.LVL33:
 149:lib/tinyusb/src/class/cdc/cdc_device.c **** }
 512              		.loc 1 149 1 view .LVU103
 513 0012 08BD     		pop	{r3, pc}
 514              	.L60:
 515              		.align	2
 516              	.L59:
 517 0014 00000000 		.word	.LANCHOR1
 518              		.cfi_endproc
 519              	.LFE417:
 521              		.section	.text.tud_cdc_n_read,"ax",%progbits
 522              		.align	1
 523              		.p2align 2,,3
 524              		.global	tud_cdc_n_read
 525              		.syntax unified
 526              		.thumb
 527              		.thumb_func
 529              	tud_cdc_n_read:
 530              	.LVL34:
 531              	.LFB418:
 150:lib/tinyusb/src/class/cdc/cdc_device.c **** 
 151:lib/tinyusb/src/class/cdc/cdc_device.c **** uint32_t tud_cdc_n_read(uint8_t itf, void* buffer, uint32_t bufsize) {
 532              		.loc 1 151 70 is_stmt 1 view -0
 533              		.cfi_startproc
 534              		@ args = 0, pretend = 0, frame = 0
 535              		@ frame_needed = 0, uses_anonymous_args = 0
 152:lib/tinyusb/src/class/cdc/cdc_device.c ****   cdcd_interface_t* p_cdc = &_cdcd_itf[itf];
 536              		.loc 1 152 3 view .LVU105
 151:lib/tinyusb/src/class/cdc/cdc_device.c ****   cdcd_interface_t* p_cdc = &_cdcd_itf[itf];
 537              		.loc 1 151 70 is_stmt 0 view .LVU106
 538 0000 38B5     		push	{r3, r4, r5, lr}
 539              		.cfi_def_cfa_offset 16
 540              		.cfi_offset 3, -16
 541              		.cfi_offset 4, -12
 542              		.cfi_offset 5, -8
 543              		.cfi_offset 14, -4
 544 0002 4FF42A73 		mov	r3, #680
 153:lib/tinyusb/src/class/cdc/cdc_device.c ****   uint32_t num_read = tu_fifo_read_n(&p_cdc->rx_ff, buffer, (uint16_t) TU_MIN(bufsize, UINT16_MAX))
 545              		.loc 1 153 23 view .LVU107
 546 0006 4FF6FE74 		movw	r4, #65534
 152:lib/tinyusb/src/class/cdc/cdc_device.c ****   cdcd_interface_t* p_cdc = &_cdcd_itf[itf];
 547              		.loc 1 152 21 view .LVU108
 548 000a 0B4D     		ldr	r5, .L64
 549 000c 03FB00F0 		mul	r0, r3, r0
 550              	.LVL35:
 551              		.loc 1 153 23 view .LVU109
 552 0010 4FF6FF73 		movw	r3, #65535
 553 0014 A242     		cmp	r2, r4
 554 0016 98BF     		it	ls
 555 0018 1346     		movls	r3, r2
 152:lib/tinyusb/src/class/cdc/cdc_device.c ****   cdcd_interface_t* p_cdc = &_cdcd_itf[itf];
 556              		.loc 1 152 21 view .LVU110
 557 001a 2C18     		adds	r4, r5, r0
 558              	.LVL36:
ARM GAS  /tmp/claude-502/ccvGLphW.s 			page 18


 559              		.loc 1 153 3 is_stmt 1 view .LVU111
 560              		.loc 1 153 23 is_stmt 0 view .LVU112
 561 001c 9AB2     		uxth	r2, r3
 562              	.LVL37:
 563              		.loc 1 153 23 view .LVU113
 564 001e 00F11003 		add	r3, r0, #16
 565 0022 E818     		adds	r0, r5, r3
 566 0024 FFF7FEFF 		bl	tu_fifo_read_n
 567              	.LVL38:
 568              		.loc 1 153 23 view .LVU114
 569 0028 0346     		mov	r3, r0
 154:lib/tinyusb/src/class/cdc/cdc_device.c ****   _prep_out_transaction(p_cdc);
 570              		.loc 1 154 3 view .LVU115
 571 002a 2046     		mov	r0, r4
 153:lib/tinyusb/src/class/cdc/cdc_device.c ****   uint32_t num_read = tu_fifo_read_n(&p_cdc->rx_ff, buffer, (uint16_t) TU_MIN(bufsize, UINT16_MAX))
 572              		.loc 1 153 23 view .LVU116
 573 002c 1C46     		mov	r4, r3
 574              	.LVL39:
 575              		.loc 1 154 3 is_stmt 1 view .LVU117
 576 002e FFF7FEFF 		bl	_prep_out_transaction.isra.0
 577              	.LVL40:
 155:lib/tinyusb/src/class/cdc/cdc_device.c ****   return num_read;
 578              		.loc 1 155 3 view .LVU118
 156:lib/tinyusb/src/class/cdc/cdc_device.c **** }
 579              		.loc 1 156 1 is_stmt 0 view .LVU119
 580 0032 2046     		mov	r0, r4
 581 0034 38BD     		pop	{r3, r4, r5, pc}
 582              	.LVL41:
 583              	.L65:
 584              		.loc 1 156 1 view .LVU120
 585 0036 00BF     		.align	2
 586              	.L64:
 587 0038 00000000 		.word	.LANCHOR1
 588              		.cfi_endproc
 589              	.LFE418:
 591              		.section	.text.tud_cdc_n_peek,"ax",%progbits
 592              		.align	1
 593              		.p2align 2,,3
 594              		.global	tud_cdc_n_peek
 595              		.syntax unified
 596              		.thumb
 597              		.thumb_func
 599              	tud_cdc_n_peek:
 600              	.LVL42:
 601              	.LFB419:
 157:lib/tinyusb/src/class/cdc/cdc_device.c **** 
 158:lib/tinyusb/src/class/cdc/cdc_device.c **** bool tud_cdc_n_peek(uint8_t itf, uint8_t* chr) {
 602              		.loc 1 158 48 is_stmt 1 view -0
 603              		.cfi_startproc
 604              		@ args = 0, pretend = 0, frame = 0
 605              		@ frame_needed = 0, uses_anonymous_args = 0
 606              		@ link register save eliminated.
 159:lib/tinyusb/src/class/cdc/cdc_device.c ****   return tu_fifo_peek(&_cdcd_itf[itf].rx_ff, chr);
 607              		.loc 1 159 3 view .LVU122
 608              		.loc 1 159 10 is_stmt 0 view .LVU123
 609 0000 034B     		ldr	r3, .L67
 610 0002 4FF42A72 		mov	r2, #680
ARM GAS  /tmp/claude-502/ccvGLphW.s 			page 19


 611 0006 02FB0030 		mla	r0, r2, r0, r3
 612              	.LVL43:
 613              		.loc 1 159 10 view .LVU124
 614 000a 1030     		adds	r0, r0, #16
 615 000c FFF7FEBF 		b	tu_fifo_peek
 616              	.LVL44:
 617              	.L68:
 618              		.loc 1 159 10 view .LVU125
 619              		.align	2
 620              	.L67:
 621 0010 00000000 		.word	.LANCHOR1
 622              		.cfi_endproc
 623              	.LFE419:
 625              		.section	.text.tud_cdc_n_read_flush,"ax",%progbits
 626              		.align	1
 627              		.p2align 2,,3
 628              		.global	tud_cdc_n_read_flush
 629              		.syntax unified
 630              		.thumb
 631              		.thumb_func
 633              	tud_cdc_n_read_flush:
 634              	.LVL45:
 635              	.LFB420:
 160:lib/tinyusb/src/class/cdc/cdc_device.c **** }
 161:lib/tinyusb/src/class/cdc/cdc_device.c **** 
 162:lib/tinyusb/src/class/cdc/cdc_device.c **** void tud_cdc_n_read_flush(uint8_t itf) {
 636              		.loc 1 162 40 is_stmt 1 view -0
 637              		.cfi_startproc
 638              		@ args = 0, pretend = 0, frame = 0
 639              		@ frame_needed = 0, uses_anonymous_args = 0
 163:lib/tinyusb/src/class/cdc/cdc_device.c ****   cdcd_interface_t* p_cdc = &_cdcd_itf[itf];
 640              		.loc 1 163 3 view .LVU127
 162:lib/tinyusb/src/class/cdc/cdc_device.c ****   cdcd_interface_t* p_cdc = &_cdcd_itf[itf];
 641              		.loc 1 162 40 is_stmt 0 view .LVU128
 642 0000 38B5     		push	{r3, r4, r5, lr}
 643              		.cfi_def_cfa_offset 16
 644              		.cfi_offset 3, -16
 645              		.cfi_offset 4, -12
 646              		.cfi_offset 5, -8
 647              		.cfi_offset 14, -4
 648 0002 4FF42A74 		mov	r4, #680
 164:lib/tinyusb/src/class/cdc/cdc_device.c ****   tu_fifo_clear(&p_cdc->rx_ff);
 649              		.loc 1 164 3 view .LVU129
 650 0006 064D     		ldr	r5, .L71
 651 0008 00FB04F4 		mul	r4, r0, r4
 652              	.LVL46:
 653              		.loc 1 164 3 is_stmt 1 view .LVU130
 654 000c 04F11000 		add	r0, r4, #16
 655              	.LVL47:
 656              		.loc 1 164 3 is_stmt 0 view .LVU131
 657 0010 2844     		add	r0, r0, r5
 658 0012 FFF7FEFF 		bl	tu_fifo_clear
 659              	.LVL48:
 165:lib/tinyusb/src/class/cdc/cdc_device.c ****   _prep_out_transaction(p_cdc);
 660              		.loc 1 165 3 is_stmt 1 view .LVU132
 661 0016 2819     		adds	r0, r5, r4
 166:lib/tinyusb/src/class/cdc/cdc_device.c **** }
ARM GAS  /tmp/claude-502/ccvGLphW.s 			page 20


 662              		.loc 1 166 1 is_stmt 0 view .LVU133
 663 0018 BDE83840 		pop	{r3, r4, r5, lr}
 664              		.cfi_restore 14
 665              		.cfi_restore 5
 666              		.cfi_restore 4
 667              		.cfi_restore 3
 668              		.cfi_def_cfa_offset 0
 669              	.LVL49:
 165:lib/tinyusb/src/class/cdc/cdc_device.c ****   _prep_out_transaction(p_cdc);
 670              		.loc 1 165 3 view .LVU134
 671 001c FFF7FEBF 		b	_prep_out_transaction.isra.0
 672              	.LVL50:
 673              	.L72:
 674              		.align	2
 675              	.L71:
 676 0020 00000000 		.word	.LANCHOR1
 677              		.cfi_endproc
 678              	.LFE420:
 680              		.section	.text.tud_cdc_n_write_flush,"ax",%progbits
 681              		.align	1
 682              		.p2align 2,,3
 683              		.global	tud_cdc_n_write_flush
 684              		.syntax unified
 685              		.thumb
 686              		.thumb_func
 688              	tud_cdc_n_write_flush:
 689              	.LVL51:
 690              	.LFB422:
 167:lib/tinyusb/src/class/cdc/cdc_device.c **** 
 168:lib/tinyusb/src/class/cdc/cdc_device.c **** //--------------------------------------------------------------------+
 169:lib/tinyusb/src/class/cdc/cdc_device.c **** // WRITE API
 170:lib/tinyusb/src/class/cdc/cdc_device.c **** //--------------------------------------------------------------------+
 171:lib/tinyusb/src/class/cdc/cdc_device.c **** uint32_t tud_cdc_n_write(uint8_t itf, void const* buffer, uint32_t bufsize) {
 172:lib/tinyusb/src/class/cdc/cdc_device.c ****   cdcd_interface_t* p_cdc = &_cdcd_itf[itf];
 173:lib/tinyusb/src/class/cdc/cdc_device.c ****   uint16_t ret = tu_fifo_write_n(&p_cdc->tx_ff, buffer, (uint16_t) TU_MIN(bufsize, UINT16_MAX));
 174:lib/tinyusb/src/class/cdc/cdc_device.c **** 
 175:lib/tinyusb/src/class/cdc/cdc_device.c ****   // flush if queue more than packet size
 176:lib/tinyusb/src/class/cdc/cdc_device.c ****   if (tu_fifo_count(&p_cdc->tx_ff) >= BULK_PACKET_SIZE
 177:lib/tinyusb/src/class/cdc/cdc_device.c ****       #if CFG_TUD_CDC_TX_BUFSIZE < BULK_PACKET_SIZE
 178:lib/tinyusb/src/class/cdc/cdc_device.c ****       || tu_fifo_full(&p_cdc->tx_ff) // check full if fifo size is less than packet size
 179:lib/tinyusb/src/class/cdc/cdc_device.c ****       #endif
 180:lib/tinyusb/src/class/cdc/cdc_device.c ****       ) {
 181:lib/tinyusb/src/class/cdc/cdc_device.c ****     tud_cdc_n_write_flush(itf);
 182:lib/tinyusb/src/class/cdc/cdc_device.c ****   }
 183:lib/tinyusb/src/class/cdc/cdc_device.c **** 
 184:lib/tinyusb/src/class/cdc/cdc_device.c ****   return ret;
 185:lib/tinyusb/src/class/cdc/cdc_device.c **** }
 186:lib/tinyusb/src/class/cdc/cdc_device.c **** 
 187:lib/tinyusb/src/class/cdc/cdc_device.c **** uint32_t tud_cdc_n_write_flush(uint8_t itf) {
 691              		.loc 1 187 45 is_stmt 1 view -0
 692              		.cfi_startproc
 693              		@ args = 0, pretend = 0, frame = 0
 694              		@ frame_needed = 0, uses_anonymous_args = 0
 188:lib/tinyusb/src/class/cdc/cdc_device.c ****   cdcd_interface_t* p_cdc = &_cdcd_itf[itf];
 695              		.loc 1 188 3 view .LVU136
 187:lib/tinyusb/src/class/cdc/cdc_device.c ****   cdcd_interface_t* p_cdc = &_cdcd_itf[itf];
 696              		.loc 1 187 45 is_stmt 0 view .LVU137
ARM GAS  /tmp/claude-502/ccvGLphW.s 			page 21


 697 0000 2DE9F041 		push	{r4, r5, r6, r7, r8, lr}
 698              		.cfi_def_cfa_offset 24
 699              		.cfi_offset 4, -24
 700              		.cfi_offset 5, -20
 701              		.cfi_offset 6, -16
 702              		.cfi_offset 7, -12
 703              		.cfi_offset 8, -8
 704              		.cfi_offset 14, -4
 187:lib/tinyusb/src/class/cdc/cdc_device.c ****   cdcd_interface_t* p_cdc = &_cdcd_itf[itf];
 705              		.loc 1 187 45 view .LVU138
 706 0004 0446     		mov	r4, r0
 707              	.LVL52:
 189:lib/tinyusb/src/class/cdc/cdc_device.c **** 
 190:lib/tinyusb/src/class/cdc/cdc_device.c ****   // Skip if usb is not ready yet
 191:lib/tinyusb/src/class/cdc/cdc_device.c ****   TU_VERIFY(tud_ready(), 0);
 708              		.loc 1 191 3 is_stmt 1 view .LVU139
 709              		.loc 1 191 3 view .LVU140
 710              	.LBB83:
 711              	.LBI83:
  85:lib/tinyusb/src/device/usbd.h ****   return tud_mounted() && !tud_suspended();
 712              		.loc 2 85 6 view .LVU141
 713              	.LBB84:
 714              		.loc 2 86 3 view .LVU142
 715              		.loc 2 86 10 is_stmt 0 view .LVU143
 716 0006 FFF7FEFF 		bl	tud_mounted
 717              	.LVL53:
 718              		.loc 2 86 24 view .LVU144
 719 000a 10B9     		cbnz	r0, .L74
 720              	.LVL54:
 721              	.L76:
 722              		.loc 2 86 24 view .LVU145
 723              	.LBE84:
 724              	.LBE83:
 725              		.loc 1 191 3 view .LVU146
 726 000c 0020     		movs	r0, #0
 727              	.L73:
 192:lib/tinyusb/src/class/cdc/cdc_device.c **** 
 193:lib/tinyusb/src/class/cdc/cdc_device.c ****   // No data to send
 194:lib/tinyusb/src/class/cdc/cdc_device.c ****   if (!tu_fifo_count(&p_cdc->tx_ff)) return 0;
 195:lib/tinyusb/src/class/cdc/cdc_device.c **** 
 196:lib/tinyusb/src/class/cdc/cdc_device.c ****   uint8_t const rhport = 0;
 197:lib/tinyusb/src/class/cdc/cdc_device.c **** 
 198:lib/tinyusb/src/class/cdc/cdc_device.c ****   // Claim the endpoint
 199:lib/tinyusb/src/class/cdc/cdc_device.c ****   TU_VERIFY(usbd_edpt_claim(rhport, p_cdc->ep_in), 0);
 200:lib/tinyusb/src/class/cdc/cdc_device.c **** 
 201:lib/tinyusb/src/class/cdc/cdc_device.c ****   // Pull data from FIFO
 202:lib/tinyusb/src/class/cdc/cdc_device.c ****   uint16_t const count = tu_fifo_read_n(&p_cdc->tx_ff, p_cdc->epin_buf, sizeof(p_cdc->epin_buf));
 203:lib/tinyusb/src/class/cdc/cdc_device.c **** 
 204:lib/tinyusb/src/class/cdc/cdc_device.c ****   if (count) {
 205:lib/tinyusb/src/class/cdc/cdc_device.c ****     TU_ASSERT(usbd_edpt_xfer(rhport, p_cdc->ep_in, p_cdc->epin_buf, count), 0);
 206:lib/tinyusb/src/class/cdc/cdc_device.c ****     return count;
 207:lib/tinyusb/src/class/cdc/cdc_device.c ****   } else {
 208:lib/tinyusb/src/class/cdc/cdc_device.c ****     // Release endpoint since we don't make any transfer
 209:lib/tinyusb/src/class/cdc/cdc_device.c ****     // Note: data is dropped if terminal is not connected
 210:lib/tinyusb/src/class/cdc/cdc_device.c ****     usbd_edpt_release(rhport, p_cdc->ep_in);
 211:lib/tinyusb/src/class/cdc/cdc_device.c ****     return 0;
 212:lib/tinyusb/src/class/cdc/cdc_device.c ****   }
ARM GAS  /tmp/claude-502/ccvGLphW.s 			page 22


 213:lib/tinyusb/src/class/cdc/cdc_device.c **** }
 728              		.loc 1 213 1 view .LVU147
 729 000e BDE8F081 		pop	{r4, r5, r6, r7, r8, pc}
 730              	.LVL55:
 731              	.L74:
 732              	.LBB86:
 733              	.LBB85:
 734              		.loc 2 86 28 view .LVU148
 735 0012 FFF7FEFF 		bl	tud_suspended
 736              	.LVL56:
 737              		.loc 2 86 24 view .LVU149
 738 0016 0646     		mov	r6, r0
 739 0018 0028     		cmp	r0, #0
 740 001a F7D1     		bne	.L76
 741              	.LBE85:
 742              	.LBE86:
 191:lib/tinyusb/src/class/cdc/cdc_device.c **** 
 743              		.loc 1 191 3 is_stmt 1 view .LVU150
 194:lib/tinyusb/src/class/cdc/cdc_device.c **** 
 744              		.loc 1 194 3 view .LVU151
 745 001c 4FF42A70 		mov	r0, #680
 194:lib/tinyusb/src/class/cdc/cdc_device.c **** 
 746              		.loc 1 194 8 is_stmt 0 view .LVU152
 747 0020 DFF86080 		ldr	r8, .L94
 748 0024 00FB04F4 		mul	r4, r0, r4
 749              	.LVL57:
 194:lib/tinyusb/src/class/cdc/cdc_device.c **** 
 750              		.loc 1 194 8 view .LVU153
 751 0028 04F11C05 		add	r5, r4, #28
 752 002c 4544     		add	r5, r5, r8
 753 002e 2846     		mov	r0, r5
 754 0030 FFF7FEFF 		bl	tu_fifo_count
 755              	.LVL58:
 194:lib/tinyusb/src/class/cdc/cdc_device.c **** 
 756              		.loc 1 194 6 view .LVU154
 757 0034 0028     		cmp	r0, #0
 758 0036 E9D0     		beq	.L76
 196:lib/tinyusb/src/class/cdc/cdc_device.c **** 
 759              		.loc 1 196 3 is_stmt 1 view .LVU155
 760              	.LVL59:
 199:lib/tinyusb/src/class/cdc/cdc_device.c **** 
 761              		.loc 1 199 3 view .LVU156
 199:lib/tinyusb/src/class/cdc/cdc_device.c **** 
 762              		.loc 1 199 3 view .LVU157
 763 0038 08EB0407 		add	r7, r8, r4
 764 003c 3046     		mov	r0, r6
 765 003e B978     		ldrb	r1, [r7, #2]	@ zero_extendqisi2
 766 0040 FFF7FEFF 		bl	usbd_edpt_claim
 767              	.LVL60:
 768 0044 0028     		cmp	r0, #0
 769 0046 E1D0     		beq	.L76
 199:lib/tinyusb/src/class/cdc/cdc_device.c **** 
 770              		.loc 1 199 3 discriminator 2 view .LVU158
 202:lib/tinyusb/src/class/cdc/cdc_device.c **** 
 771              		.loc 1 202 3 discriminator 2 view .LVU159
 202:lib/tinyusb/src/class/cdc/cdc_device.c **** 
 772              		.loc 1 202 61 is_stmt 0 discriminator 2 view .LVU160
ARM GAS  /tmp/claude-502/ccvGLphW.s 			page 23


 773 0048 04F51A74 		add	r4, r4, #616
 202:lib/tinyusb/src/class/cdc/cdc_device.c **** 
 774              		.loc 1 202 26 discriminator 2 view .LVU161
 775 004c 2846     		mov	r0, r5
 776 004e 4022     		movs	r2, #64
 202:lib/tinyusb/src/class/cdc/cdc_device.c **** 
 777              		.loc 1 202 61 discriminator 2 view .LVU162
 778 0050 4444     		add	r4, r4, r8
 202:lib/tinyusb/src/class/cdc/cdc_device.c **** 
 779              		.loc 1 202 26 discriminator 2 view .LVU163
 780 0052 2146     		mov	r1, r4
 781 0054 FFF7FEFF 		bl	tu_fifo_read_n
 782              	.LVL61:
 204:lib/tinyusb/src/class/cdc/cdc_device.c ****     TU_ASSERT(usbd_edpt_xfer(rhport, p_cdc->ep_in, p_cdc->epin_buf, count), 0);
 783              		.loc 1 204 3 is_stmt 1 discriminator 2 view .LVU164
 204:lib/tinyusb/src/class/cdc/cdc_device.c ****     TU_ASSERT(usbd_edpt_xfer(rhport, p_cdc->ep_in, p_cdc->epin_buf, count), 0);
 784              		.loc 1 204 6 is_stmt 0 discriminator 2 view .LVU165
 785 0058 0546     		mov	r5, r0
 786 005a 70B1     		cbz	r0, .L78
 205:lib/tinyusb/src/class/cdc/cdc_device.c ****     return count;
 787              		.loc 1 205 5 is_stmt 1 view .LVU166
 205:lib/tinyusb/src/class/cdc/cdc_device.c ****     return count;
 788              		.loc 1 205 5 view .LVU167
 789 005c 0346     		mov	r3, r0
 790 005e 2246     		mov	r2, r4
 791 0060 B978     		ldrb	r1, [r7, #2]	@ zero_extendqisi2
 792 0062 3046     		mov	r0, r6
 793              	.LVL62:
 205:lib/tinyusb/src/class/cdc/cdc_device.c ****     return count;
 794              		.loc 1 205 5 is_stmt 0 view .LVU168
 795 0064 FFF7FEFF 		bl	usbd_edpt_xfer
 796              	.LVL63:
 797 0068 50B9     		cbnz	r0, .L93
 205:lib/tinyusb/src/class/cdc/cdc_device.c ****     return count;
 798              		.loc 1 205 5 is_stmt 1 discriminator 1 view .LVU169
 205:lib/tinyusb/src/class/cdc/cdc_device.c ****     return count;
 799              		.loc 1 205 5 discriminator 1 view .LVU170
 205:lib/tinyusb/src/class/cdc/cdc_device.c ****     return count;
 800              		.loc 1 205 5 discriminator 1 view .LVU171
 205:lib/tinyusb/src/class/cdc/cdc_device.c ****     return count;
 801              		.loc 1 205 5 discriminator 1 view .LVU172
 802              	.LBB87:
 205:lib/tinyusb/src/class/cdc/cdc_device.c ****     return count;
 803              		.loc 1 205 5 discriminator 1 view .LVU173
 804              	.LVL64:
 205:lib/tinyusb/src/class/cdc/cdc_device.c ****     return count;
 805              		.loc 1 205 5 discriminator 1 view .LVU174
 806 006a 4FF0E023 		mov	r3, #-536813568
 807 006e D3F8F03D 		ldr	r3, [r3, #3568]
 808 0072 DB07     		lsls	r3, r3, #31
 809 0074 CAD5     		bpl	.L76
 205:lib/tinyusb/src/class/cdc/cdc_device.c ****     return count;
 810              		.loc 1 205 5 discriminator 3 view .LVU175
 811              		.syntax unified
 812              	@ 205 "lib/tinyusb/src/class/cdc/cdc_device.c" 1
 813 0076 00BE     		BKPT #0
 814              	
ARM GAS  /tmp/claude-502/ccvGLphW.s 			page 24


 815              	@ 0 "" 2
 816              		.thumb
 817              		.syntax unified
 818 0078 C9E7     		b	.L73
 819              	.LVL65:
 820              	.L78:
 205:lib/tinyusb/src/class/cdc/cdc_device.c ****     return count;
 821              		.loc 1 205 5 is_stmt 0 discriminator 3 view .LVU176
 822              	.LBE87:
 210:lib/tinyusb/src/class/cdc/cdc_device.c ****     return 0;
 823              		.loc 1 210 5 is_stmt 1 view .LVU177
 824 007a B978     		ldrb	r1, [r7, #2]	@ zero_extendqisi2
 825 007c FFF7FEFF 		bl	usbd_edpt_release
 826              	.LVL66:
 827              	.L93:
 211:lib/tinyusb/src/class/cdc/cdc_device.c ****   }
 828              		.loc 1 211 5 view .LVU178
 211:lib/tinyusb/src/class/cdc/cdc_device.c ****   }
 829              		.loc 1 211 12 is_stmt 0 view .LVU179
 830 0080 2846     		mov	r0, r5
 831 0082 C4E7     		b	.L73
 832              	.L95:
 833              		.align	2
 834              	.L94:
 835 0084 00000000 		.word	.LANCHOR1
 836              		.cfi_endproc
 837              	.LFE422:
 839              		.section	.text.tud_cdc_n_write,"ax",%progbits
 840              		.align	1
 841              		.p2align 2,,3
 842              		.global	tud_cdc_n_write
 843              		.syntax unified
 844              		.thumb
 845              		.thumb_func
 847              	tud_cdc_n_write:
 848              	.LVL67:
 849              	.LFB421:
 171:lib/tinyusb/src/class/cdc/cdc_device.c ****   cdcd_interface_t* p_cdc = &_cdcd_itf[itf];
 850              		.loc 1 171 77 is_stmt 1 view -0
 851              		.cfi_startproc
 852              		@ args = 0, pretend = 0, frame = 0
 853              		@ frame_needed = 0, uses_anonymous_args = 0
 172:lib/tinyusb/src/class/cdc/cdc_device.c ****   uint16_t ret = tu_fifo_write_n(&p_cdc->tx_ff, buffer, (uint16_t) TU_MIN(bufsize, UINT16_MAX));
 854              		.loc 1 172 3 view .LVU181
 171:lib/tinyusb/src/class/cdc/cdc_device.c ****   cdcd_interface_t* p_cdc = &_cdcd_itf[itf];
 855              		.loc 1 171 77 is_stmt 0 view .LVU182
 856 0000 38B5     		push	{r3, r4, r5, lr}
 857              		.cfi_def_cfa_offset 16
 858              		.cfi_offset 3, -16
 859              		.cfi_offset 4, -12
 860              		.cfi_offset 5, -8
 861              		.cfi_offset 14, -4
 173:lib/tinyusb/src/class/cdc/cdc_device.c **** 
 862              		.loc 1 173 18 view .LVU183
 863 0002 4FF42A73 		mov	r3, #680
 864 0006 0F4C     		ldr	r4, .L101
 171:lib/tinyusb/src/class/cdc/cdc_device.c ****   cdcd_interface_t* p_cdc = &_cdcd_itf[itf];
ARM GAS  /tmp/claude-502/ccvGLphW.s 			page 25


 865              		.loc 1 171 77 view .LVU184
 866 0008 0546     		mov	r5, r0
 867              	.LVL68:
 173:lib/tinyusb/src/class/cdc/cdc_device.c **** 
 868              		.loc 1 173 3 is_stmt 1 view .LVU185
 173:lib/tinyusb/src/class/cdc/cdc_device.c **** 
 869              		.loc 1 173 18 is_stmt 0 view .LVU186
 870 000a 03FB0044 		mla	r4, r3, r0, r4
 871 000e 4FF6FE70 		movw	r0, #65534
 872              	.LVL69:
 173:lib/tinyusb/src/class/cdc/cdc_device.c **** 
 873              		.loc 1 173 18 view .LVU187
 874 0012 4FF6FF73 		movw	r3, #65535
 875 0016 1C34     		adds	r4, r4, #28
 876 0018 8242     		cmp	r2, r0
 877 001a 98BF     		it	ls
 878 001c 1346     		movls	r3, r2
 879 001e 2046     		mov	r0, r4
 880 0020 9AB2     		uxth	r2, r3
 881              	.LVL70:
 173:lib/tinyusb/src/class/cdc/cdc_device.c **** 
 882              		.loc 1 173 18 view .LVU188
 883 0022 FFF7FEFF 		bl	tu_fifo_write_n
 884              	.LVL71:
 173:lib/tinyusb/src/class/cdc/cdc_device.c **** 
 885              		.loc 1 173 18 view .LVU189
 886 0026 0346     		mov	r3, r0
 176:lib/tinyusb/src/class/cdc/cdc_device.c ****       #if CFG_TUD_CDC_TX_BUFSIZE < BULK_PACKET_SIZE
 887              		.loc 1 176 7 view .LVU190
 888 0028 2046     		mov	r0, r4
 173:lib/tinyusb/src/class/cdc/cdc_device.c **** 
 889              		.loc 1 173 18 view .LVU191
 890 002a 1C46     		mov	r4, r3
 891              	.LVL72:
 176:lib/tinyusb/src/class/cdc/cdc_device.c ****       #if CFG_TUD_CDC_TX_BUFSIZE < BULK_PACKET_SIZE
 892              		.loc 1 176 3 is_stmt 1 view .LVU192
 176:lib/tinyusb/src/class/cdc/cdc_device.c ****       #if CFG_TUD_CDC_TX_BUFSIZE < BULK_PACKET_SIZE
 893              		.loc 1 176 7 is_stmt 0 view .LVU193
 894 002c FFF7FEFF 		bl	tu_fifo_count
 895              	.LVL73:
 176:lib/tinyusb/src/class/cdc/cdc_device.c ****       #if CFG_TUD_CDC_TX_BUFSIZE < BULK_PACKET_SIZE
 896              		.loc 1 176 6 view .LVU194
 897 0030 3F28     		cmp	r0, #63
 898 0032 01D8     		bhi	.L100
 184:lib/tinyusb/src/class/cdc/cdc_device.c **** }
 899              		.loc 1 184 3 is_stmt 1 view .LVU195
 185:lib/tinyusb/src/class/cdc/cdc_device.c **** 
 900              		.loc 1 185 1 is_stmt 0 view .LVU196
 901 0034 2046     		mov	r0, r4
 902 0036 38BD     		pop	{r3, r4, r5, pc}
 903              	.LVL74:
 904              	.L100:
 181:lib/tinyusb/src/class/cdc/cdc_device.c ****   }
 905              		.loc 1 181 5 is_stmt 1 view .LVU197
 906 0038 2846     		mov	r0, r5
 907 003a FFF7FEFF 		bl	tud_cdc_n_write_flush
 908              	.LVL75:
ARM GAS  /tmp/claude-502/ccvGLphW.s 			page 26


 184:lib/tinyusb/src/class/cdc/cdc_device.c **** }
 909              		.loc 1 184 3 view .LVU198
 185:lib/tinyusb/src/class/cdc/cdc_device.c **** 
 910              		.loc 1 185 1 is_stmt 0 view .LVU199
 911 003e 2046     		mov	r0, r4
 912 0040 38BD     		pop	{r3, r4, r5, pc}
 913              	.LVL76:
 914              	.L102:
 185:lib/tinyusb/src/class/cdc/cdc_device.c **** 
 915              		.loc 1 185 1 view .LVU200
 916 0042 00BF     		.align	2
 917              	.L101:
 918 0044 00000000 		.word	.LANCHOR1
 919              		.cfi_endproc
 920              	.LFE421:
 922              		.section	.text.tud_cdc_n_write_available,"ax",%progbits
 923              		.align	1
 924              		.p2align 2,,3
 925              		.global	tud_cdc_n_write_available
 926              		.syntax unified
 927              		.thumb
 928              		.thumb_func
 930              	tud_cdc_n_write_available:
 931              	.LVL77:
 932              	.LFB423:
 214:lib/tinyusb/src/class/cdc/cdc_device.c **** 
 215:lib/tinyusb/src/class/cdc/cdc_device.c **** uint32_t tud_cdc_n_write_available(uint8_t itf) {
 933              		.loc 1 215 49 is_stmt 1 view -0
 934              		.cfi_startproc
 935              		@ args = 0, pretend = 0, frame = 0
 936              		@ frame_needed = 0, uses_anonymous_args = 0
 216:lib/tinyusb/src/class/cdc/cdc_device.c ****   return tu_fifo_remaining(&_cdcd_itf[itf].tx_ff);
 937              		.loc 1 216 3 view .LVU202
 938              		.loc 1 216 10 is_stmt 0 view .LVU203
 939 0000 4FF42A72 		mov	r2, #680
 215:lib/tinyusb/src/class/cdc/cdc_device.c ****   return tu_fifo_remaining(&_cdcd_itf[itf].tx_ff);
 940              		.loc 1 215 49 view .LVU204
 941 0004 08B5     		push	{r3, lr}
 942              		.cfi_def_cfa_offset 8
 943              		.cfi_offset 3, -8
 944              		.cfi_offset 14, -4
 945              		.loc 1 216 10 view .LVU205
 946 0006 034B     		ldr	r3, .L105
 947 0008 02FB0030 		mla	r0, r2, r0, r3
 948              	.LVL78:
 949              		.loc 1 216 10 view .LVU206
 950 000c 1C30     		adds	r0, r0, #28
 951 000e FFF7FEFF 		bl	tu_fifo_remaining
 952              	.LVL79:
 217:lib/tinyusb/src/class/cdc/cdc_device.c **** }
 953              		.loc 1 217 1 view .LVU207
 954 0012 08BD     		pop	{r3, pc}
 955              	.L106:
 956              		.align	2
 957              	.L105:
 958 0014 00000000 		.word	.LANCHOR1
 959              		.cfi_endproc
ARM GAS  /tmp/claude-502/ccvGLphW.s 			page 27


 960              	.LFE423:
 962              		.section	.text.tud_cdc_n_write_clear,"ax",%progbits
 963              		.align	1
 964              		.p2align 2,,3
 965              		.global	tud_cdc_n_write_clear
 966              		.syntax unified
 967              		.thumb
 968              		.thumb_func
 970              	tud_cdc_n_write_clear:
 971              	.LVL80:
 972              	.LFB424:
 218:lib/tinyusb/src/class/cdc/cdc_device.c **** 
 219:lib/tinyusb/src/class/cdc/cdc_device.c **** bool tud_cdc_n_write_clear(uint8_t itf) {
 973              		.loc 1 219 41 is_stmt 1 view -0
 974              		.cfi_startproc
 975              		@ args = 0, pretend = 0, frame = 0
 976              		@ frame_needed = 0, uses_anonymous_args = 0
 977              		@ link register save eliminated.
 220:lib/tinyusb/src/class/cdc/cdc_device.c ****   return tu_fifo_clear(&_cdcd_itf[itf].tx_ff);
 978              		.loc 1 220 3 view .LVU209
 979              		.loc 1 220 10 is_stmt 0 view .LVU210
 980 0000 034B     		ldr	r3, .L108
 981 0002 4FF42A72 		mov	r2, #680
 982 0006 02FB0030 		mla	r0, r2, r0, r3
 983              	.LVL81:
 984              		.loc 1 220 10 view .LVU211
 985 000a 1C30     		adds	r0, r0, #28
 986 000c FFF7FEBF 		b	tu_fifo_clear
 987              	.LVL82:
 988              	.L109:
 989              		.align	2
 990              	.L108:
 991 0010 00000000 		.word	.LANCHOR1
 992              		.cfi_endproc
 993              	.LFE424:
 995              		.section	.text.cdcd_init,"ax",%progbits
 996              		.align	1
 997              		.p2align 2,,3
 998              		.global	cdcd_init
 999              		.syntax unified
 1000              		.thumb
 1001              		.thumb_func
 1003              	cdcd_init:
 1004              	.LFB425:
 221:lib/tinyusb/src/class/cdc/cdc_device.c **** }
 222:lib/tinyusb/src/class/cdc/cdc_device.c **** 
 223:lib/tinyusb/src/class/cdc/cdc_device.c **** //--------------------------------------------------------------------+
 224:lib/tinyusb/src/class/cdc/cdc_device.c **** // USBD Driver API
 225:lib/tinyusb/src/class/cdc/cdc_device.c **** //--------------------------------------------------------------------+
 226:lib/tinyusb/src/class/cdc/cdc_device.c **** void cdcd_init(void) {
 1005              		.loc 1 226 22 is_stmt 1 view -0
 1006              		.cfi_startproc
 1007              		@ args = 0, pretend = 0, frame = 0
 1008              		@ frame_needed = 0, uses_anonymous_args = 0
 227:lib/tinyusb/src/class/cdc/cdc_device.c ****   tu_memclr(_cdcd_itf, sizeof(_cdcd_itf));
 1009              		.loc 1 227 3 view .LVU213
 226:lib/tinyusb/src/class/cdc/cdc_device.c ****   tu_memclr(_cdcd_itf, sizeof(_cdcd_itf));
ARM GAS  /tmp/claude-502/ccvGLphW.s 			page 28


 1010              		.loc 1 226 22 is_stmt 0 view .LVU214
 1011 0000 10B5     		push	{r4, lr}
 1012              		.cfi_def_cfa_offset 8
 1013              		.cfi_offset 4, -8
 1014              		.cfi_offset 14, -4
 1015              		.loc 1 227 3 view .LVU215
 1016 0002 144C     		ldr	r4, .L112
 226:lib/tinyusb/src/class/cdc/cdc_device.c ****   tu_memclr(_cdcd_itf, sizeof(_cdcd_itf));
 1017              		.loc 1 226 22 view .LVU216
 1018 0004 82B0     		sub	sp, sp, #8
 1019              		.cfi_def_cfa_offset 16
 1020              		.loc 1 227 3 view .LVU217
 1021 0006 4FF42A72 		mov	r2, #680
 1022 000a 0021     		movs	r1, #0
 1023 000c 2046     		mov	r0, r4
 1024 000e FFF7FEFF 		bl	memset
 1025              	.LVL83:
 228:lib/tinyusb/src/class/cdc/cdc_device.c ****   tu_memclr(&_cdcd_fifo_cfg, sizeof(_cdcd_fifo_cfg));
 1026              		.loc 1 228 3 is_stmt 1 view .LVU218
 1027 0012 0023     		movs	r3, #0
 1028 0014 1049     		ldr	r1, .L112+4
 1029              	.LBB88:
 1030              	.LBB89:
 229:lib/tinyusb/src/class/cdc/cdc_device.c **** 
 230:lib/tinyusb/src/class/cdc/cdc_device.c ****   for (uint8_t i = 0; i < CFG_TUD_CDC; i++) {
 231:lib/tinyusb/src/class/cdc/cdc_device.c ****     cdcd_interface_t* p_cdc = &_cdcd_itf[i];
 232:lib/tinyusb/src/class/cdc/cdc_device.c **** 
 233:lib/tinyusb/src/class/cdc/cdc_device.c ****     p_cdc->wanted_char = (char) -1;
 1031              		.loc 1 233 24 is_stmt 0 view .LVU219
 1032 0016 FF22     		movs	r2, #255
 234:lib/tinyusb/src/class/cdc/cdc_device.c **** 
 235:lib/tinyusb/src/class/cdc/cdc_device.c ****     // default line coding is : stop bit = 1, parity = none, data bits = 8
 236:lib/tinyusb/src/class/cdc/cdc_device.c ****     p_cdc->line_coding.bit_rate = 115200;
 237:lib/tinyusb/src/class/cdc/cdc_device.c ****     p_cdc->line_coding.stop_bits = 0;
 238:lib/tinyusb/src/class/cdc/cdc_device.c ****     p_cdc->line_coding.parity = 0;
 239:lib/tinyusb/src/class/cdc/cdc_device.c ****     p_cdc->line_coding.data_bits = 8;
 240:lib/tinyusb/src/class/cdc/cdc_device.c **** 
 241:lib/tinyusb/src/class/cdc/cdc_device.c ****     // Config RX fifo
 242:lib/tinyusb/src/class/cdc/cdc_device.c ****     tu_fifo_config(&p_cdc->rx_ff, p_cdc->rx_ff_buf, TU_ARRAY_SIZE(p_cdc->rx_ff_buf), 1, false);
 1033              		.loc 1 242 5 view .LVU220
 1034 0018 0093     		str	r3, [sp]
 236:lib/tinyusb/src/class/cdc/cdc_device.c ****     p_cdc->line_coding.stop_bits = 0;
 1035              		.loc 1 236 33 view .LVU221
 1036 001a 4FF4E130 		mov	r0, #115200
 1037              	.LBE89:
 1038              	.LBE88:
 228:lib/tinyusb/src/class/cdc/cdc_device.c **** 
 1039              		.loc 1 228 3 view .LVU222
 1040 001e 0B70     		strb	r3, [r1]
 230:lib/tinyusb/src/class/cdc/cdc_device.c ****     cdcd_interface_t* p_cdc = &_cdcd_itf[i];
 1041              		.loc 1 230 3 is_stmt 1 view .LVU223
 1042              	.LBB91:
 230:lib/tinyusb/src/class/cdc/cdc_device.c ****     cdcd_interface_t* p_cdc = &_cdcd_itf[i];
 1043              		.loc 1 230 8 view .LVU224
 1044              	.LVL84:
 230:lib/tinyusb/src/class/cdc/cdc_device.c ****     cdcd_interface_t* p_cdc = &_cdcd_itf[i];
 1045              		.loc 1 230 23 view .LVU225
ARM GAS  /tmp/claude-502/ccvGLphW.s 			page 29


 1046              	.LBB90:
 231:lib/tinyusb/src/class/cdc/cdc_device.c **** 
 1047              		.loc 1 231 5 view .LVU226
 233:lib/tinyusb/src/class/cdc/cdc_device.c **** 
 1048              		.loc 1 233 5 view .LVU227
 239:lib/tinyusb/src/class/cdc/cdc_device.c **** 
 1049              		.loc 1 239 34 is_stmt 0 view .LVU228
 1050 0020 0821     		movs	r1, #8
 233:lib/tinyusb/src/class/cdc/cdc_device.c **** 
 1051              		.loc 1 233 24 view .LVU229
 1052 0022 6271     		strb	r2, [r4, #5]
 236:lib/tinyusb/src/class/cdc/cdc_device.c ****     p_cdc->line_coding.stop_bits = 0;
 1053              		.loc 1 236 5 is_stmt 1 view .LVU230
 1054              		.loc 1 242 5 is_stmt 0 view .LVU231
 1055 0024 0123     		movs	r3, #1
 236:lib/tinyusb/src/class/cdc/cdc_device.c ****     p_cdc->line_coding.stop_bits = 0;
 1056              		.loc 1 236 33 view .LVU232
 1057 0026 A060     		str	r0, [r4, #8]
 237:lib/tinyusb/src/class/cdc/cdc_device.c ****     p_cdc->line_coding.parity = 0;
 1058              		.loc 1 237 5 is_stmt 1 view .LVU233
 238:lib/tinyusb/src/class/cdc/cdc_device.c ****     p_cdc->line_coding.data_bits = 8;
 1059              		.loc 1 238 5 view .LVU234
 239:lib/tinyusb/src/class/cdc/cdc_device.c **** 
 1060              		.loc 1 239 5 view .LVU235
 1061              		.loc 1 242 5 is_stmt 0 view .LVU236
 1062 0028 4FF48072 		mov	r2, #256
 239:lib/tinyusb/src/class/cdc/cdc_device.c **** 
 1063              		.loc 1 239 34 view .LVU237
 1064 002c A173     		strb	r1, [r4, #14]
 1065              		.loc 1 242 5 is_stmt 1 view .LVU238
 1066 002e 04F11000 		add	r0, r4, #16
 1067 0032 04F12801 		add	r1, r4, #40
 1068 0036 FFF7FEFF 		bl	tu_fifo_config
 1069              	.LVL85:
 243:lib/tinyusb/src/class/cdc/cdc_device.c **** 
 244:lib/tinyusb/src/class/cdc/cdc_device.c ****     // Config TX fifo as overwritable at initialization and will be changed to non-overwritable
 245:lib/tinyusb/src/class/cdc/cdc_device.c ****     // if terminal supports DTR bit. Without DTR we do not know if data is actually polled by termi
 246:lib/tinyusb/src/class/cdc/cdc_device.c ****     // In this way, the most current data is prioritized.
 247:lib/tinyusb/src/class/cdc/cdc_device.c ****     tu_fifo_config(&p_cdc->tx_ff, p_cdc->tx_ff_buf, TU_ARRAY_SIZE(p_cdc->tx_ff_buf), 1, true);
 1070              		.loc 1 247 5 view .LVU239
 1071 003a 0123     		movs	r3, #1
 1072 003c 4FF48072 		mov	r2, #256
 1073 0040 04F59471 		add	r1, r4, #296
 1074 0044 04F11C00 		add	r0, r4, #28
 1075 0048 0093     		str	r3, [sp]
 1076 004a FFF7FEFF 		bl	tu_fifo_config
 1077              	.LVL86:
 1078              	.LBE90:
 230:lib/tinyusb/src/class/cdc/cdc_device.c ****     cdcd_interface_t* p_cdc = &_cdcd_itf[i];
 1079              		.loc 1 230 40 view .LVU240
 230:lib/tinyusb/src/class/cdc/cdc_device.c ****     cdcd_interface_t* p_cdc = &_cdcd_itf[i];
 1080              		.loc 1 230 23 view .LVU241
 1081              	.LBE91:
 248:lib/tinyusb/src/class/cdc/cdc_device.c **** 
 249:lib/tinyusb/src/class/cdc/cdc_device.c ****     #if OSAL_MUTEX_REQUIRED
 250:lib/tinyusb/src/class/cdc/cdc_device.c ****     osal_mutex_t mutex_rd = osal_mutex_create(&p_cdc->rx_ff_mutex);
 251:lib/tinyusb/src/class/cdc/cdc_device.c ****     osal_mutex_t mutex_wr = osal_mutex_create(&p_cdc->tx_ff_mutex);
ARM GAS  /tmp/claude-502/ccvGLphW.s 			page 30


 252:lib/tinyusb/src/class/cdc/cdc_device.c ****     TU_ASSERT(mutex_rd != NULL && mutex_wr != NULL, );
 253:lib/tinyusb/src/class/cdc/cdc_device.c **** 
 254:lib/tinyusb/src/class/cdc/cdc_device.c ****     tu_fifo_config_mutex(&p_cdc->rx_ff, NULL, mutex_rd);
 255:lib/tinyusb/src/class/cdc/cdc_device.c ****     tu_fifo_config_mutex(&p_cdc->tx_ff, mutex_wr, NULL);
 256:lib/tinyusb/src/class/cdc/cdc_device.c ****     #endif
 257:lib/tinyusb/src/class/cdc/cdc_device.c ****   }
 258:lib/tinyusb/src/class/cdc/cdc_device.c **** }
 1082              		.loc 1 258 1 is_stmt 0 view .LVU242
 1083 004e 02B0     		add	sp, sp, #8
 1084              		.cfi_def_cfa_offset 8
 1085              		@ sp needed
 1086 0050 10BD     		pop	{r4, pc}
 1087              	.L113:
 1088 0052 00BF     		.align	2
 1089              	.L112:
 1090 0054 00000000 		.word	.LANCHOR1
 1091 0058 00000000 		.word	.LANCHOR0
 1092              		.cfi_endproc
 1093              	.LFE425:
 1095              		.section	.text.cdcd_deinit,"ax",%progbits
 1096              		.align	1
 1097              		.p2align 2,,3
 1098              		.global	cdcd_deinit
 1099              		.syntax unified
 1100              		.thumb
 1101              		.thumb_func
 1103              	cdcd_deinit:
 1104              	.LFB426:
 259:lib/tinyusb/src/class/cdc/cdc_device.c **** 
 260:lib/tinyusb/src/class/cdc/cdc_device.c **** bool cdcd_deinit(void) {
 1105              		.loc 1 260 24 is_stmt 1 view -0
 1106              		.cfi_startproc
 1107              		@ args = 0, pretend = 0, frame = 0
 1108              		@ frame_needed = 0, uses_anonymous_args = 0
 1109              		@ link register save eliminated.
 261:lib/tinyusb/src/class/cdc/cdc_device.c ****   #if OSAL_MUTEX_REQUIRED
 262:lib/tinyusb/src/class/cdc/cdc_device.c ****   for(uint8_t i=0; i<CFG_TUD_CDC; i++) {
 263:lib/tinyusb/src/class/cdc/cdc_device.c ****     cdcd_interface_t* p_cdc = &_cdcd_itf[i];
 264:lib/tinyusb/src/class/cdc/cdc_device.c ****     osal_mutex_t mutex_rd = p_cdc->rx_ff.mutex_rd;
 265:lib/tinyusb/src/class/cdc/cdc_device.c ****     osal_mutex_t mutex_wr = p_cdc->tx_ff.mutex_wr;
 266:lib/tinyusb/src/class/cdc/cdc_device.c **** 
 267:lib/tinyusb/src/class/cdc/cdc_device.c ****     if (mutex_rd) {
 268:lib/tinyusb/src/class/cdc/cdc_device.c ****       osal_mutex_delete(mutex_rd);
 269:lib/tinyusb/src/class/cdc/cdc_device.c ****       tu_fifo_config_mutex(&p_cdc->rx_ff, NULL, NULL);
 270:lib/tinyusb/src/class/cdc/cdc_device.c ****     }
 271:lib/tinyusb/src/class/cdc/cdc_device.c **** 
 272:lib/tinyusb/src/class/cdc/cdc_device.c ****     if (mutex_wr) {
 273:lib/tinyusb/src/class/cdc/cdc_device.c ****       osal_mutex_delete(mutex_wr);
 274:lib/tinyusb/src/class/cdc/cdc_device.c ****       tu_fifo_config_mutex(&p_cdc->tx_ff, NULL, NULL);
 275:lib/tinyusb/src/class/cdc/cdc_device.c ****     }
 276:lib/tinyusb/src/class/cdc/cdc_device.c ****   }
 277:lib/tinyusb/src/class/cdc/cdc_device.c ****   #endif
 278:lib/tinyusb/src/class/cdc/cdc_device.c **** 
 279:lib/tinyusb/src/class/cdc/cdc_device.c ****   return true;
 1110              		.loc 1 279 3 view .LVU244
 280:lib/tinyusb/src/class/cdc/cdc_device.c **** }
 1111              		.loc 1 280 1 is_stmt 0 view .LVU245
ARM GAS  /tmp/claude-502/ccvGLphW.s 			page 31


 1112 0000 0120     		movs	r0, #1
 1113 0002 7047     		bx	lr
 1114              		.cfi_endproc
 1115              	.LFE426:
 1117              		.section	.text.cdcd_reset,"ax",%progbits
 1118              		.align	1
 1119              		.p2align 2,,3
 1120              		.global	cdcd_reset
 1121              		.syntax unified
 1122              		.thumb
 1123              		.thumb_func
 1125              	cdcd_reset:
 1126              	.LVL87:
 1127              	.LFB427:
 281:lib/tinyusb/src/class/cdc/cdc_device.c **** 
 282:lib/tinyusb/src/class/cdc/cdc_device.c **** void cdcd_reset(uint8_t rhport) {
 1128              		.loc 1 282 33 is_stmt 1 view -0
 1129              		.cfi_startproc
 1130              		@ args = 0, pretend = 0, frame = 0
 1131              		@ frame_needed = 0, uses_anonymous_args = 0
 283:lib/tinyusb/src/class/cdc/cdc_device.c ****   (void) rhport;
 1132              		.loc 1 283 3 view .LVU247
 284:lib/tinyusb/src/class/cdc/cdc_device.c **** 
 285:lib/tinyusb/src/class/cdc/cdc_device.c ****   for (uint8_t i = 0; i < CFG_TUD_CDC; i++) {
 1133              		.loc 1 285 3 view .LVU248
 1134              	.LBB92:
 1135              		.loc 1 285 8 view .LVU249
 1136              		.loc 1 285 23 view .LVU250
 1137              	.LBB93:
 286:lib/tinyusb/src/class/cdc/cdc_device.c ****     cdcd_interface_t* p_cdc = &_cdcd_itf[i];
 1138              		.loc 1 286 5 view .LVU251
 287:lib/tinyusb/src/class/cdc/cdc_device.c **** 
 288:lib/tinyusb/src/class/cdc/cdc_device.c ****     tu_memclr(p_cdc, ITF_MEM_RESET_SIZE);
 1139              		.loc 1 288 5 view .LVU252
 1140              	.LBE93:
 1141              	.LBE92:
 282:lib/tinyusb/src/class/cdc/cdc_device.c ****   (void) rhport;
 1142              		.loc 1 282 33 is_stmt 0 view .LVU253
 1143 0000 10B5     		push	{r4, lr}
 1144              		.cfi_def_cfa_offset 8
 1145              		.cfi_offset 4, -8
 1146              		.cfi_offset 14, -4
 1147              	.LBB97:
 1148              	.LBB94:
 289:lib/tinyusb/src/class/cdc/cdc_device.c ****     if (!_cdcd_fifo_cfg.rx_persistent) tu_fifo_clear(&p_cdc->rx_ff);
 1149              		.loc 1 289 9 view .LVU254
 1150 0002 0F4C     		ldr	r4, .L121
 288:lib/tinyusb/src/class/cdc/cdc_device.c ****     if (!_cdcd_fifo_cfg.rx_persistent) tu_fifo_clear(&p_cdc->rx_ff);
 1151              		.loc 1 288 5 view .LVU255
 1152 0004 0022     		movs	r2, #0
 1153 0006 0F48     		ldr	r0, .L121+4
 1154              	.LVL88:
 1155              		.loc 1 289 9 view .LVU256
 1156 0008 2378     		ldrb	r3, [r4]	@ zero_extendqisi2
 288:lib/tinyusb/src/class/cdc/cdc_device.c ****     if (!_cdcd_fifo_cfg.rx_persistent) tu_fifo_clear(&p_cdc->rx_ff);
 1157              		.loc 1 288 5 view .LVU257
 1158 000a 0260     		str	r2, [r0]
ARM GAS  /tmp/claude-502/ccvGLphW.s 			page 32


 1159 000c 0271     		strb	r2, [r0, #4]
 1160              		.loc 1 289 5 is_stmt 1 view .LVU258
 1161              		.loc 1 289 8 is_stmt 0 view .LVU259
 1162 000e DA07     		lsls	r2, r3, #31
 1163 0010 07D5     		bpl	.L119
 290:lib/tinyusb/src/class/cdc/cdc_device.c ****     if (!_cdcd_fifo_cfg.tx_persistent) tu_fifo_clear(&p_cdc->tx_ff);
 1164              		.loc 1 290 5 is_stmt 1 view .LVU260
 1165              		.loc 1 290 8 is_stmt 0 view .LVU261
 1166 0012 9B07     		lsls	r3, r3, #30
 1167 0014 0BD5     		bpl	.L120
 1168              	.L117:
 291:lib/tinyusb/src/class/cdc/cdc_device.c ****     tu_fifo_set_overwritable(&p_cdc->tx_ff, true);
 1169              		.loc 1 291 5 is_stmt 1 discriminator 2 view .LVU262
 1170 0016 0121     		movs	r1, #1
 1171 0018 0B48     		ldr	r0, .L121+8
 1172              	.LBE94:
 1173              	.LBE97:
 292:lib/tinyusb/src/class/cdc/cdc_device.c ****   }
 293:lib/tinyusb/src/class/cdc/cdc_device.c **** }
 1174              		.loc 1 293 1 is_stmt 0 discriminator 2 view .LVU263
 1175 001a BDE81040 		pop	{r4, lr}
 1176              		.cfi_remember_state
 1177              		.cfi_restore 14
 1178              		.cfi_restore 4
 1179              		.cfi_def_cfa_offset 0
 1180              	.LBB98:
 1181              	.LBB95:
 291:lib/tinyusb/src/class/cdc/cdc_device.c ****     tu_fifo_set_overwritable(&p_cdc->tx_ff, true);
 1182              		.loc 1 291 5 discriminator 2 view .LVU264
 1183 001e FFF7FEBF 		b	tu_fifo_set_overwritable
 1184              	.LVL89:
 1185              	.L119:
 1186              		.cfi_restore_state
 289:lib/tinyusb/src/class/cdc/cdc_device.c ****     if (!_cdcd_fifo_cfg.tx_persistent) tu_fifo_clear(&p_cdc->tx_ff);
 1187              		.loc 1 289 40 is_stmt 1 discriminator 1 view .LVU265
 1188 0022 1030     		adds	r0, r0, #16
 1189 0024 FFF7FEFF 		bl	tu_fifo_clear
 1190              	.LVL90:
 290:lib/tinyusb/src/class/cdc/cdc_device.c ****     tu_fifo_set_overwritable(&p_cdc->tx_ff, true);
 1191              		.loc 1 290 9 is_stmt 0 discriminator 1 view .LVU266
 1192 0028 2378     		ldrb	r3, [r4]	@ zero_extendqisi2
 290:lib/tinyusb/src/class/cdc/cdc_device.c ****     tu_fifo_set_overwritable(&p_cdc->tx_ff, true);
 1193              		.loc 1 290 5 is_stmt 1 discriminator 1 view .LVU267
 290:lib/tinyusb/src/class/cdc/cdc_device.c ****     tu_fifo_set_overwritable(&p_cdc->tx_ff, true);
 1194              		.loc 1 290 8 is_stmt 0 discriminator 1 view .LVU268
 1195 002a 9B07     		lsls	r3, r3, #30
 1196 002c F3D4     		bmi	.L117
 1197              	.L120:
 290:lib/tinyusb/src/class/cdc/cdc_device.c ****     tu_fifo_set_overwritable(&p_cdc->tx_ff, true);
 1198              		.loc 1 290 40 is_stmt 1 discriminator 1 view .LVU269
 1199 002e 0648     		ldr	r0, .L121+8
 1200 0030 FFF7FEFF 		bl	tu_fifo_clear
 1201              	.LVL91:
 291:lib/tinyusb/src/class/cdc/cdc_device.c ****   }
 1202              		.loc 1 291 5 discriminator 1 view .LVU270
 1203 0034 0121     		movs	r1, #1
 1204 0036 0448     		ldr	r0, .L121+8
ARM GAS  /tmp/claude-502/ccvGLphW.s 			page 33


 1205              	.LBE95:
 1206              	.LBE98:
 1207              		.loc 1 293 1 is_stmt 0 discriminator 1 view .LVU271
 1208 0038 BDE81040 		pop	{r4, lr}
 1209              		.cfi_restore 14
 1210              		.cfi_restore 4
 1211              		.cfi_def_cfa_offset 0
 1212              	.LBB99:
 1213              	.LBB96:
 291:lib/tinyusb/src/class/cdc/cdc_device.c ****   }
 1214              		.loc 1 291 5 discriminator 1 view .LVU272
 1215 003c FFF7FEBF 		b	tu_fifo_set_overwritable
 1216              	.LVL92:
 1217              	.L122:
 1218              		.align	2
 1219              	.L121:
 1220 0040 00000000 		.word	.LANCHOR0
 1221 0044 00000000 		.word	.LANCHOR1
 1222 0048 1C000000 		.word	.LANCHOR1+28
 1223              	.LBE96:
 1224              	.LBE99:
 1225              		.cfi_endproc
 1226              	.LFE427:
 1228              		.section	.text.cdcd_open,"ax",%progbits
 1229              		.align	1
 1230              		.p2align 2,,3
 1231              		.global	cdcd_open
 1232              		.syntax unified
 1233              		.thumb
 1234              		.thumb_func
 1236              	cdcd_open:
 1237              	.LVL93:
 1238              	.LFB428:
 294:lib/tinyusb/src/class/cdc/cdc_device.c **** 
 295:lib/tinyusb/src/class/cdc/cdc_device.c **** uint16_t cdcd_open(uint8_t rhport, tusb_desc_interface_t const * itf_desc, uint16_t max_len) {
 1239              		.loc 1 295 94 is_stmt 1 view -0
 1240              		.cfi_startproc
 1241              		@ args = 0, pretend = 0, frame = 0
 1242              		@ frame_needed = 0, uses_anonymous_args = 0
 296:lib/tinyusb/src/class/cdc/cdc_device.c ****   // Only support ACM subclass
 297:lib/tinyusb/src/class/cdc/cdc_device.c ****   TU_VERIFY( TUSB_CLASS_CDC                           == itf_desc->bInterfaceClass &&
 1243              		.loc 1 297 3 view .LVU274
 1244              		.loc 1 297 3 view .LVU275
 295:lib/tinyusb/src/class/cdc/cdc_device.c ****   // Only support ACM subclass
 1245              		.loc 1 295 94 is_stmt 0 view .LVU276
 1246 0000 F0B5     		push	{r4, r5, r6, r7, lr}
 1247              		.cfi_def_cfa_offset 20
 1248              		.cfi_offset 4, -20
 1249              		.cfi_offset 5, -16
 1250              		.cfi_offset 6, -12
 1251              		.cfi_offset 7, -8
 1252              		.cfi_offset 14, -4
 1253              		.loc 1 297 3 view .LVU277
 1254 0002 4B79     		ldrb	r3, [r1, #5]	@ zero_extendqisi2
 295:lib/tinyusb/src/class/cdc/cdc_device.c ****   // Only support ACM subclass
 1255              		.loc 1 295 94 view .LVU278
 1256 0004 83B0     		sub	sp, sp, #12
ARM GAS  /tmp/claude-502/ccvGLphW.s 			page 34


 1257              		.cfi_def_cfa_offset 32
 1258              		.loc 1 297 3 view .LVU279
 1259 0006 022B     		cmp	r3, #2
 1260 0008 02D1     		bne	.L150
 1261              		.loc 1 297 3 discriminator 2 view .LVU280
 1262 000a 8B79     		ldrb	r3, [r1, #6]	@ zero_extendqisi2
 1263 000c 022B     		cmp	r3, #2
 1264 000e 03D0     		beq	.L153
 1265              	.LVL94:
 1266              	.L150:
 298:lib/tinyusb/src/class/cdc/cdc_device.c ****              CDC_COMM_SUBCLASS_ABSTRACT_CONTROL_MODEL == itf_desc->bInterfaceSubClass, 0);
 299:lib/tinyusb/src/class/cdc/cdc_device.c **** 
 300:lib/tinyusb/src/class/cdc/cdc_device.c ****   // Find available interface
 301:lib/tinyusb/src/class/cdc/cdc_device.c ****   cdcd_interface_t* p_cdc = NULL;
 302:lib/tinyusb/src/class/cdc/cdc_device.c ****   for (uint8_t cdc_id = 0; cdc_id < CFG_TUD_CDC; cdc_id++) {
 303:lib/tinyusb/src/class/cdc/cdc_device.c ****     if (_cdcd_itf[cdc_id].ep_in == 0) {
 304:lib/tinyusb/src/class/cdc/cdc_device.c ****       p_cdc = &_cdcd_itf[cdc_id];
 305:lib/tinyusb/src/class/cdc/cdc_device.c ****       break;
 306:lib/tinyusb/src/class/cdc/cdc_device.c ****     }
 307:lib/tinyusb/src/class/cdc/cdc_device.c ****   }
 308:lib/tinyusb/src/class/cdc/cdc_device.c ****   TU_ASSERT(p_cdc, 0);
 1267              		.loc 1 308 3 discriminator 3 view .LVU281
 1268 0010 0025     		movs	r5, #0
 309:lib/tinyusb/src/class/cdc/cdc_device.c **** 
 310:lib/tinyusb/src/class/cdc/cdc_device.c ****   //------------- Control Interface -------------//
 311:lib/tinyusb/src/class/cdc/cdc_device.c ****   p_cdc->itf_num = itf_desc->bInterfaceNumber;
 312:lib/tinyusb/src/class/cdc/cdc_device.c **** 
 313:lib/tinyusb/src/class/cdc/cdc_device.c ****   uint16_t drv_len = sizeof(tusb_desc_interface_t);
 314:lib/tinyusb/src/class/cdc/cdc_device.c ****   uint8_t const* p_desc = tu_desc_next(itf_desc);
 315:lib/tinyusb/src/class/cdc/cdc_device.c **** 
 316:lib/tinyusb/src/class/cdc/cdc_device.c ****   // Communication Functional Descriptors
 317:lib/tinyusb/src/class/cdc/cdc_device.c ****   while (TUSB_DESC_CS_INTERFACE == tu_desc_type(p_desc) && drv_len <= max_len) {
 318:lib/tinyusb/src/class/cdc/cdc_device.c ****     drv_len += tu_desc_len(p_desc);
 319:lib/tinyusb/src/class/cdc/cdc_device.c ****     p_desc = tu_desc_next(p_desc);
 320:lib/tinyusb/src/class/cdc/cdc_device.c ****   }
 321:lib/tinyusb/src/class/cdc/cdc_device.c **** 
 322:lib/tinyusb/src/class/cdc/cdc_device.c ****   if (TUSB_DESC_ENDPOINT == tu_desc_type(p_desc)) {
 323:lib/tinyusb/src/class/cdc/cdc_device.c ****     // notification endpoint
 324:lib/tinyusb/src/class/cdc/cdc_device.c ****     tusb_desc_endpoint_t const* desc_ep = (tusb_desc_endpoint_t const*) p_desc;
 325:lib/tinyusb/src/class/cdc/cdc_device.c **** 
 326:lib/tinyusb/src/class/cdc/cdc_device.c ****     TU_ASSERT(usbd_edpt_open(rhport, desc_ep), 0);
 327:lib/tinyusb/src/class/cdc/cdc_device.c ****     p_cdc->ep_notif = desc_ep->bEndpointAddress;
 328:lib/tinyusb/src/class/cdc/cdc_device.c **** 
 329:lib/tinyusb/src/class/cdc/cdc_device.c ****     drv_len += tu_desc_len(p_desc);
 330:lib/tinyusb/src/class/cdc/cdc_device.c ****     p_desc = tu_desc_next(p_desc);
 331:lib/tinyusb/src/class/cdc/cdc_device.c ****   }
 332:lib/tinyusb/src/class/cdc/cdc_device.c **** 
 333:lib/tinyusb/src/class/cdc/cdc_device.c ****   //------------- Data Interface (if any) -------------//
 334:lib/tinyusb/src/class/cdc/cdc_device.c ****   if ((TUSB_DESC_INTERFACE == tu_desc_type(p_desc)) &&
 335:lib/tinyusb/src/class/cdc/cdc_device.c ****       (TUSB_CLASS_CDC_DATA == ((tusb_desc_interface_t const*) p_desc)->bInterfaceClass)) {
 336:lib/tinyusb/src/class/cdc/cdc_device.c ****     // next to endpoint descriptor
 337:lib/tinyusb/src/class/cdc/cdc_device.c ****     drv_len += tu_desc_len(p_desc);
 338:lib/tinyusb/src/class/cdc/cdc_device.c ****     p_desc = tu_desc_next(p_desc);
 339:lib/tinyusb/src/class/cdc/cdc_device.c **** 
 340:lib/tinyusb/src/class/cdc/cdc_device.c ****     // Open endpoint pair
 341:lib/tinyusb/src/class/cdc/cdc_device.c ****     TU_ASSERT(usbd_open_edpt_pair(rhport, p_desc, 2, TUSB_XFER_BULK, &p_cdc->ep_out, &p_cdc->ep_in)
 342:lib/tinyusb/src/class/cdc/cdc_device.c **** 
ARM GAS  /tmp/claude-502/ccvGLphW.s 			page 35


 343:lib/tinyusb/src/class/cdc/cdc_device.c ****     drv_len += 2 * sizeof(tusb_desc_endpoint_t);
 344:lib/tinyusb/src/class/cdc/cdc_device.c ****   }
 345:lib/tinyusb/src/class/cdc/cdc_device.c **** 
 346:lib/tinyusb/src/class/cdc/cdc_device.c ****   // Prepare for incoming data
 347:lib/tinyusb/src/class/cdc/cdc_device.c ****   _prep_out_transaction(p_cdc);
 348:lib/tinyusb/src/class/cdc/cdc_device.c **** 
 349:lib/tinyusb/src/class/cdc/cdc_device.c ****   return drv_len;
 350:lib/tinyusb/src/class/cdc/cdc_device.c **** }
 1269              		.loc 1 350 1 discriminator 3 view .LVU282
 1270 0012 2846     		mov	r0, r5
 1271 0014 03B0     		add	sp, sp, #12
 1272              		.cfi_remember_state
 1273              		.cfi_def_cfa_offset 20
 1274              		@ sp needed
 1275 0016 F0BD     		pop	{r4, r5, r6, r7, pc}
 1276              	.LVL95:
 1277              	.L153:
 1278              		.cfi_restore_state
 1279              	.LBB100:
 302:lib/tinyusb/src/class/cdc/cdc_device.c ****     if (_cdcd_itf[cdc_id].ep_in == 0) {
 1280              		.loc 1 302 28 is_stmt 1 view .LVU283
 303:lib/tinyusb/src/class/cdc/cdc_device.c ****       p_cdc = &_cdcd_itf[cdc_id];
 1281              		.loc 1 303 5 view .LVU284
 303:lib/tinyusb/src/class/cdc/cdc_device.c ****       p_cdc = &_cdcd_itf[cdc_id];
 1282              		.loc 1 303 26 is_stmt 0 view .LVU285
 1283 0018 264F     		ldr	r7, .L158
 303:lib/tinyusb/src/class/cdc/cdc_device.c ****       p_cdc = &_cdcd_itf[cdc_id];
 1284              		.loc 1 303 8 view .LVU286
 1285 001a BB78     		ldrb	r3, [r7, #2]	@ zero_extendqisi2
 1286 001c 3BB1     		cbz	r3, .L154
 1287              	.LVL96:
 1288              	.L147:
 302:lib/tinyusb/src/class/cdc/cdc_device.c ****     if (_cdcd_itf[cdc_id].ep_in == 0) {
 1289              		.loc 1 302 28 is_stmt 1 view .LVU287
 302:lib/tinyusb/src/class/cdc/cdc_device.c ****     if (_cdcd_itf[cdc_id].ep_in == 0) {
 1290              		.loc 1 302 28 is_stmt 0 view .LVU288
 1291              	.LBE100:
 308:lib/tinyusb/src/class/cdc/cdc_device.c **** 
 1292              		.loc 1 308 3 is_stmt 1 view .LVU289
 308:lib/tinyusb/src/class/cdc/cdc_device.c **** 
 1293              		.loc 1 308 3 view .LVU290
 308:lib/tinyusb/src/class/cdc/cdc_device.c **** 
 1294              		.loc 1 308 3 view .LVU291
 308:lib/tinyusb/src/class/cdc/cdc_device.c **** 
 1295              		.loc 1 308 3 view .LVU292
 308:lib/tinyusb/src/class/cdc/cdc_device.c **** 
 1296              		.loc 1 308 3 view .LVU293
 308:lib/tinyusb/src/class/cdc/cdc_device.c **** 
 1297              		.loc 1 308 3 view .LVU294
 1298              	.LBB101:
 308:lib/tinyusb/src/class/cdc/cdc_device.c **** 
 1299              		.loc 1 308 3 view .LVU295
 308:lib/tinyusb/src/class/cdc/cdc_device.c **** 
 1300              		.loc 1 308 3 view .LVU296
 1301 001e 4FF0E023 		mov	r3, #-536813568
 1302 0022 D3F8F03D 		ldr	r3, [r3, #3568]
 1303 0026 DB07     		lsls	r3, r3, #31
ARM GAS  /tmp/claude-502/ccvGLphW.s 			page 36


 1304 0028 F2D5     		bpl	.L150
 308:lib/tinyusb/src/class/cdc/cdc_device.c **** 
 1305              		.loc 1 308 3 discriminator 3 view .LVU297
 1306              		.syntax unified
 1307              	@ 308 "lib/tinyusb/src/class/cdc/cdc_device.c" 1
 1308 002a 00BE     		BKPT #0
 1309              	
 1310              	@ 0 "" 2
 1311              		.thumb
 1312              		.syntax unified
 1313 002c F0E7     		b	.L150
 1314              	.LVL97:
 1315              	.L154:
 308:lib/tinyusb/src/class/cdc/cdc_device.c **** 
 1316              		.loc 1 308 3 is_stmt 0 discriminator 3 view .LVU298
 1317              	.LBE101:
 311:lib/tinyusb/src/class/cdc/cdc_device.c **** 
 1318              		.loc 1 311 18 view .LVU299
 1319 002e 8B78     		ldrb	r3, [r1, #2]	@ zero_extendqisi2
 1320 0030 0646     		mov	r6, r0
 1321              	.LVL98:
 308:lib/tinyusb/src/class/cdc/cdc_device.c **** 
 1322              		.loc 1 308 3 is_stmt 1 view .LVU300
 308:lib/tinyusb/src/class/cdc/cdc_device.c **** 
 1323              		.loc 1 308 3 view .LVU301
 308:lib/tinyusb/src/class/cdc/cdc_device.c **** 
 1324              		.loc 1 308 3 view .LVU302
 311:lib/tinyusb/src/class/cdc/cdc_device.c **** 
 1325              		.loc 1 311 3 view .LVU303
 313:lib/tinyusb/src/class/cdc/cdc_device.c ****   uint8_t const* p_desc = tu_desc_next(itf_desc);
 1326              		.loc 1 313 12 is_stmt 0 view .LVU304
 1327 0032 0925     		movs	r5, #9
 311:lib/tinyusb/src/class/cdc/cdc_device.c **** 
 1328              		.loc 1 311 18 view .LVU305
 1329 0034 3B70     		strb	r3, [r7]
 313:lib/tinyusb/src/class/cdc/cdc_device.c ****   uint8_t const* p_desc = tu_desc_next(itf_desc);
 1330              		.loc 1 313 3 is_stmt 1 view .LVU306
 1331              	.LVL99:
 314:lib/tinyusb/src/class/cdc/cdc_device.c **** 
 1332              		.loc 1 314 3 view .LVU307
 1333              	.LBB102:
 1334              	.LBI102:
 1335              		.file 4 "lib/tinyusb/src/common/tusb_types.h"
   1:lib/tinyusb/src/common/tusb_types.h **** /*
   2:lib/tinyusb/src/common/tusb_types.h ****  * The MIT License (MIT)
   3:lib/tinyusb/src/common/tusb_types.h ****  *
   4:lib/tinyusb/src/common/tusb_types.h ****  * Copyright (c) 2019 Ha Thach (tinyusb.org)
   5:lib/tinyusb/src/common/tusb_types.h ****  *
   6:lib/tinyusb/src/common/tusb_types.h ****  * Permission is hereby granted, free of charge, to any person obtaining a copy
   7:lib/tinyusb/src/common/tusb_types.h ****  * of this software and associated documentation files (the "Software"), to deal
   8:lib/tinyusb/src/common/tusb_types.h ****  * in the Software without restriction, including without limitation the rights
   9:lib/tinyusb/src/common/tusb_types.h ****  * to use, copy, modify, merge, publish, distribute, sublicense, and/or sell
  10:lib/tinyusb/src/common/tusb_types.h ****  * copies of the Software, and to permit persons to whom the Software is
  11:lib/tinyusb/src/common/tusb_types.h ****  * furnished to do so, subject to the following conditions:
  12:lib/tinyusb/src/common/tusb_types.h ****  *
  13:lib/tinyusb/src/common/tusb_types.h ****  * The above copyright notice and this permission notice shall be included in
  14:lib/tinyusb/src/common/tusb_types.h ****  * all copies or substantial portions of the Software.
ARM GAS  /tmp/claude-502/ccvGLphW.s 			page 37


  15:lib/tinyusb/src/common/tusb_types.h ****  *
  16:lib/tinyusb/src/common/tusb_types.h ****  * THE SOFTWARE IS PROVIDED "AS IS", WITHOUT WARRANTY OF ANY KIND, EXPRESS OR
  17:lib/tinyusb/src/common/tusb_types.h ****  * IMPLIED, INCLUDING BUT NOT LIMITED TO THE WARRANTIES OF MERCHANTABILITY,
  18:lib/tinyusb/src/common/tusb_types.h ****  * FITNESS FOR A PARTICULAR PURPOSE AND NONINFRINGEMENT. IN NO EVENT SHALL THE
  19:lib/tinyusb/src/common/tusb_types.h ****  * AUTHORS OR COPYRIGHT HOLDERS BE LIABLE FOR ANY CLAIM, DAMAGES OR OTHER
  20:lib/tinyusb/src/common/tusb_types.h ****  * LIABILITY, WHETHER IN AN ACTION OF CONTRACT, TORT OR OTHERWISE, ARISING FROM,
  21:lib/tinyusb/src/common/tusb_types.h ****  * OUT OF OR IN CONNECTION WITH THE SOFTWARE OR THE USE OR OTHER DEALINGS IN
  22:lib/tinyusb/src/common/tusb_types.h ****  * THE SOFTWARE.
  23:lib/tinyusb/src/common/tusb_types.h ****  *
  24:lib/tinyusb/src/common/tusb_types.h ****  * This file is part of the TinyUSB stack.
  25:lib/tinyusb/src/common/tusb_types.h ****  */
  26:lib/tinyusb/src/common/tusb_types.h **** 
  27:lib/tinyusb/src/common/tusb_types.h **** #ifndef TUSB_TYPES_H_
  28:lib/tinyusb/src/common/tusb_types.h **** #define TUSB_TYPES_H_
  29:lib/tinyusb/src/common/tusb_types.h **** 
  30:lib/tinyusb/src/common/tusb_types.h **** #include <stdbool.h>
  31:lib/tinyusb/src/common/tusb_types.h **** #include <stdint.h>
  32:lib/tinyusb/src/common/tusb_types.h **** #include "tusb_compiler.h"
  33:lib/tinyusb/src/common/tusb_types.h **** 
  34:lib/tinyusb/src/common/tusb_types.h **** #ifdef __cplusplus
  35:lib/tinyusb/src/common/tusb_types.h ****  extern "C" {
  36:lib/tinyusb/src/common/tusb_types.h **** #endif
  37:lib/tinyusb/src/common/tusb_types.h **** 
  38:lib/tinyusb/src/common/tusb_types.h **** /*------------------------------------------------------------------*/
  39:lib/tinyusb/src/common/tusb_types.h **** /* CONSTANTS
  40:lib/tinyusb/src/common/tusb_types.h ****  *------------------------------------------------------------------*/
  41:lib/tinyusb/src/common/tusb_types.h **** 
  42:lib/tinyusb/src/common/tusb_types.h **** /// defined base on EHCI specs value for Endpoint Speed
  43:lib/tinyusb/src/common/tusb_types.h **** typedef enum {
  44:lib/tinyusb/src/common/tusb_types.h ****   TUSB_SPEED_FULL = 0,
  45:lib/tinyusb/src/common/tusb_types.h ****   TUSB_SPEED_LOW  = 1,
  46:lib/tinyusb/src/common/tusb_types.h ****   TUSB_SPEED_HIGH = 2,
  47:lib/tinyusb/src/common/tusb_types.h ****   TUSB_SPEED_INVALID = 0xff,
  48:lib/tinyusb/src/common/tusb_types.h **** } tusb_speed_t;
  49:lib/tinyusb/src/common/tusb_types.h **** 
  50:lib/tinyusb/src/common/tusb_types.h **** /// defined base on USB Specs Endpoint's bmAttributes
  51:lib/tinyusb/src/common/tusb_types.h **** typedef enum {
  52:lib/tinyusb/src/common/tusb_types.h ****   TUSB_XFER_CONTROL = 0 ,
  53:lib/tinyusb/src/common/tusb_types.h ****   TUSB_XFER_ISOCHRONOUS ,
  54:lib/tinyusb/src/common/tusb_types.h ****   TUSB_XFER_BULK        ,
  55:lib/tinyusb/src/common/tusb_types.h ****   TUSB_XFER_INTERRUPT
  56:lib/tinyusb/src/common/tusb_types.h **** } tusb_xfer_type_t;
  57:lib/tinyusb/src/common/tusb_types.h **** 
  58:lib/tinyusb/src/common/tusb_types.h **** typedef enum {
  59:lib/tinyusb/src/common/tusb_types.h ****   TUSB_DIR_OUT = 0,
  60:lib/tinyusb/src/common/tusb_types.h ****   TUSB_DIR_IN  = 1,
  61:lib/tinyusb/src/common/tusb_types.h **** 
  62:lib/tinyusb/src/common/tusb_types.h ****   TUSB_DIR_IN_MASK = 0x80
  63:lib/tinyusb/src/common/tusb_types.h **** } tusb_dir_t;
  64:lib/tinyusb/src/common/tusb_types.h **** 
  65:lib/tinyusb/src/common/tusb_types.h **** enum {
  66:lib/tinyusb/src/common/tusb_types.h ****   TUSB_EPSIZE_BULK_FS = 64,
  67:lib/tinyusb/src/common/tusb_types.h ****   TUSB_EPSIZE_BULK_HS = 512,
  68:lib/tinyusb/src/common/tusb_types.h **** 
  69:lib/tinyusb/src/common/tusb_types.h ****   TUSB_EPSIZE_ISO_FS_MAX = 1023,
  70:lib/tinyusb/src/common/tusb_types.h ****   TUSB_EPSIZE_ISO_HS_MAX = 1024,
  71:lib/tinyusb/src/common/tusb_types.h **** };
ARM GAS  /tmp/claude-502/ccvGLphW.s 			page 38


  72:lib/tinyusb/src/common/tusb_types.h **** 
  73:lib/tinyusb/src/common/tusb_types.h **** /// Isochronous Endpoint Attributes
  74:lib/tinyusb/src/common/tusb_types.h **** typedef enum {
  75:lib/tinyusb/src/common/tusb_types.h ****   TUSB_ISO_EP_ATT_NO_SYNC         = 0x00,
  76:lib/tinyusb/src/common/tusb_types.h ****   TUSB_ISO_EP_ATT_ASYNCHRONOUS    = 0x04,
  77:lib/tinyusb/src/common/tusb_types.h ****   TUSB_ISO_EP_ATT_ADAPTIVE        = 0x08,
  78:lib/tinyusb/src/common/tusb_types.h ****   TUSB_ISO_EP_ATT_SYNCHRONOUS     = 0x0C,
  79:lib/tinyusb/src/common/tusb_types.h ****   TUSB_ISO_EP_ATT_DATA            = 0x00, ///< Data End Point
  80:lib/tinyusb/src/common/tusb_types.h ****   TUSB_ISO_EP_ATT_EXPLICIT_FB     = 0x10, ///< Feedback End Point
  81:lib/tinyusb/src/common/tusb_types.h ****   TUSB_ISO_EP_ATT_IMPLICIT_FB     = 0x20, ///< Data endpoint that also serves as an implicit feedba
  82:lib/tinyusb/src/common/tusb_types.h **** } tusb_iso_ep_attribute_t;
  83:lib/tinyusb/src/common/tusb_types.h **** 
  84:lib/tinyusb/src/common/tusb_types.h **** /// USB Descriptor Types
  85:lib/tinyusb/src/common/tusb_types.h **** typedef enum {
  86:lib/tinyusb/src/common/tusb_types.h ****   TUSB_DESC_DEVICE                = 0x01,
  87:lib/tinyusb/src/common/tusb_types.h ****   TUSB_DESC_CONFIGURATION         = 0x02,
  88:lib/tinyusb/src/common/tusb_types.h ****   TUSB_DESC_STRING                = 0x03,
  89:lib/tinyusb/src/common/tusb_types.h ****   TUSB_DESC_INTERFACE             = 0x04,
  90:lib/tinyusb/src/common/tusb_types.h ****   TUSB_DESC_ENDPOINT              = 0x05,
  91:lib/tinyusb/src/common/tusb_types.h ****   TUSB_DESC_DEVICE_QUALIFIER      = 0x06,
  92:lib/tinyusb/src/common/tusb_types.h ****   TUSB_DESC_OTHER_SPEED_CONFIG    = 0x07,
  93:lib/tinyusb/src/common/tusb_types.h ****   TUSB_DESC_INTERFACE_POWER       = 0x08,
  94:lib/tinyusb/src/common/tusb_types.h ****   TUSB_DESC_OTG                   = 0x09,
  95:lib/tinyusb/src/common/tusb_types.h ****   TUSB_DESC_DEBUG                 = 0x0A,
  96:lib/tinyusb/src/common/tusb_types.h ****   TUSB_DESC_INTERFACE_ASSOCIATION = 0x0B,
  97:lib/tinyusb/src/common/tusb_types.h **** 
  98:lib/tinyusb/src/common/tusb_types.h ****   TUSB_DESC_BOS                   = 0x0F,
  99:lib/tinyusb/src/common/tusb_types.h ****   TUSB_DESC_DEVICE_CAPABILITY     = 0x10,
 100:lib/tinyusb/src/common/tusb_types.h **** 
 101:lib/tinyusb/src/common/tusb_types.h ****   TUSB_DESC_FUNCTIONAL            = 0x21,
 102:lib/tinyusb/src/common/tusb_types.h **** 
 103:lib/tinyusb/src/common/tusb_types.h ****   // Class Specific Descriptor
 104:lib/tinyusb/src/common/tusb_types.h ****   TUSB_DESC_CS_DEVICE             = 0x21,
 105:lib/tinyusb/src/common/tusb_types.h ****   TUSB_DESC_CS_CONFIGURATION      = 0x22,
 106:lib/tinyusb/src/common/tusb_types.h ****   TUSB_DESC_CS_STRING             = 0x23,
 107:lib/tinyusb/src/common/tusb_types.h ****   TUSB_DESC_CS_INTERFACE          = 0x24,
 108:lib/tinyusb/src/common/tusb_types.h ****   TUSB_DESC_CS_ENDPOINT           = 0x25,
 109:lib/tinyusb/src/common/tusb_types.h **** 
 110:lib/tinyusb/src/common/tusb_types.h ****   TUSB_DESC_SUPERSPEED_ENDPOINT_COMPANION     = 0x30,
 111:lib/tinyusb/src/common/tusb_types.h ****   TUSB_DESC_SUPERSPEED_ISO_ENDPOINT_COMPANION = 0x31
 112:lib/tinyusb/src/common/tusb_types.h **** } tusb_desc_type_t;
 113:lib/tinyusb/src/common/tusb_types.h **** 
 114:lib/tinyusb/src/common/tusb_types.h **** typedef enum {
 115:lib/tinyusb/src/common/tusb_types.h ****   TUSB_REQ_GET_STATUS        = 0  ,
 116:lib/tinyusb/src/common/tusb_types.h ****   TUSB_REQ_CLEAR_FEATURE     = 1  ,
 117:lib/tinyusb/src/common/tusb_types.h ****   TUSB_REQ_RESERVED          = 2  ,
 118:lib/tinyusb/src/common/tusb_types.h ****   TUSB_REQ_SET_FEATURE       = 3  ,
 119:lib/tinyusb/src/common/tusb_types.h ****   TUSB_REQ_RESERVED2         = 4  ,
 120:lib/tinyusb/src/common/tusb_types.h ****   TUSB_REQ_SET_ADDRESS       = 5  ,
 121:lib/tinyusb/src/common/tusb_types.h ****   TUSB_REQ_GET_DESCRIPTOR    = 6  ,
 122:lib/tinyusb/src/common/tusb_types.h ****   TUSB_REQ_SET_DESCRIPTOR    = 7  ,
 123:lib/tinyusb/src/common/tusb_types.h ****   TUSB_REQ_GET_CONFIGURATION = 8  ,
 124:lib/tinyusb/src/common/tusb_types.h ****   TUSB_REQ_SET_CONFIGURATION = 9  ,
 125:lib/tinyusb/src/common/tusb_types.h ****   TUSB_REQ_GET_INTERFACE     = 10 ,
 126:lib/tinyusb/src/common/tusb_types.h ****   TUSB_REQ_SET_INTERFACE     = 11 ,
 127:lib/tinyusb/src/common/tusb_types.h ****   TUSB_REQ_SYNCH_FRAME       = 12
 128:lib/tinyusb/src/common/tusb_types.h **** } tusb_request_code_t;
ARM GAS  /tmp/claude-502/ccvGLphW.s 			page 39


 129:lib/tinyusb/src/common/tusb_types.h **** 
 130:lib/tinyusb/src/common/tusb_types.h **** typedef enum {
 131:lib/tinyusb/src/common/tusb_types.h ****   TUSB_REQ_FEATURE_EDPT_HALT     = 0,
 132:lib/tinyusb/src/common/tusb_types.h ****   TUSB_REQ_FEATURE_REMOTE_WAKEUP = 1,
 133:lib/tinyusb/src/common/tusb_types.h ****   TUSB_REQ_FEATURE_TEST_MODE     = 2
 134:lib/tinyusb/src/common/tusb_types.h **** } tusb_request_feature_selector_t;
 135:lib/tinyusb/src/common/tusb_types.h **** 
 136:lib/tinyusb/src/common/tusb_types.h **** typedef enum {
 137:lib/tinyusb/src/common/tusb_types.h ****   TUSB_REQ_TYPE_STANDARD = 0,
 138:lib/tinyusb/src/common/tusb_types.h ****   TUSB_REQ_TYPE_CLASS,
 139:lib/tinyusb/src/common/tusb_types.h ****   TUSB_REQ_TYPE_VENDOR,
 140:lib/tinyusb/src/common/tusb_types.h ****   TUSB_REQ_TYPE_INVALID
 141:lib/tinyusb/src/common/tusb_types.h **** } tusb_request_type_t;
 142:lib/tinyusb/src/common/tusb_types.h **** 
 143:lib/tinyusb/src/common/tusb_types.h **** typedef enum {
 144:lib/tinyusb/src/common/tusb_types.h ****   TUSB_REQ_RCPT_DEVICE =0,
 145:lib/tinyusb/src/common/tusb_types.h ****   TUSB_REQ_RCPT_INTERFACE,
 146:lib/tinyusb/src/common/tusb_types.h ****   TUSB_REQ_RCPT_ENDPOINT,
 147:lib/tinyusb/src/common/tusb_types.h ****   TUSB_REQ_RCPT_OTHER
 148:lib/tinyusb/src/common/tusb_types.h **** } tusb_request_recipient_t;
 149:lib/tinyusb/src/common/tusb_types.h **** 
 150:lib/tinyusb/src/common/tusb_types.h **** // https://www.usb.org/defined-class-codes
 151:lib/tinyusb/src/common/tusb_types.h **** typedef enum {
 152:lib/tinyusb/src/common/tusb_types.h ****   TUSB_CLASS_UNSPECIFIED          = 0    ,
 153:lib/tinyusb/src/common/tusb_types.h ****   TUSB_CLASS_AUDIO                = 1    ,
 154:lib/tinyusb/src/common/tusb_types.h ****   TUSB_CLASS_CDC                  = 2    ,
 155:lib/tinyusb/src/common/tusb_types.h ****   TUSB_CLASS_HID                  = 3    ,
 156:lib/tinyusb/src/common/tusb_types.h ****   TUSB_CLASS_RESERVED_4           = 4    ,
 157:lib/tinyusb/src/common/tusb_types.h ****   TUSB_CLASS_PHYSICAL             = 5    ,
 158:lib/tinyusb/src/common/tusb_types.h ****   TUSB_CLASS_IMAGE                = 6    ,
 159:lib/tinyusb/src/common/tusb_types.h ****   TUSB_CLASS_PRINTER              = 7    ,
 160:lib/tinyusb/src/common/tusb_types.h ****   TUSB_CLASS_MSC                  = 8    ,
 161:lib/tinyusb/src/common/tusb_types.h ****   TUSB_CLASS_HUB                  = 9    ,
 162:lib/tinyusb/src/common/tusb_types.h ****   TUSB_CLASS_CDC_DATA             = 10   ,
 163:lib/tinyusb/src/common/tusb_types.h ****   TUSB_CLASS_SMART_CARD           = 11   ,
 164:lib/tinyusb/src/common/tusb_types.h ****   TUSB_CLASS_RESERVED_12          = 12   ,
 165:lib/tinyusb/src/common/tusb_types.h ****   TUSB_CLASS_CONTENT_SECURITY     = 13   ,
 166:lib/tinyusb/src/common/tusb_types.h ****   TUSB_CLASS_VIDEO                = 14   ,
 167:lib/tinyusb/src/common/tusb_types.h ****   TUSB_CLASS_PERSONAL_HEALTHCARE  = 15   ,
 168:lib/tinyusb/src/common/tusb_types.h ****   TUSB_CLASS_AUDIO_VIDEO          = 16   ,
 169:lib/tinyusb/src/common/tusb_types.h **** 
 170:lib/tinyusb/src/common/tusb_types.h ****   TUSB_CLASS_DIAGNOSTIC           = 0xDC ,
 171:lib/tinyusb/src/common/tusb_types.h ****   TUSB_CLASS_WIRELESS_CONTROLLER  = 0xE0 ,
 172:lib/tinyusb/src/common/tusb_types.h ****   TUSB_CLASS_MISC                 = 0xEF ,
 173:lib/tinyusb/src/common/tusb_types.h ****   TUSB_CLASS_APPLICATION_SPECIFIC = 0xFE ,
 174:lib/tinyusb/src/common/tusb_types.h ****   TUSB_CLASS_VENDOR_SPECIFIC      = 0xFF
 175:lib/tinyusb/src/common/tusb_types.h **** } tusb_class_code_t;
 176:lib/tinyusb/src/common/tusb_types.h **** 
 177:lib/tinyusb/src/common/tusb_types.h **** typedef enum
 178:lib/tinyusb/src/common/tusb_types.h **** {
 179:lib/tinyusb/src/common/tusb_types.h ****   MISC_SUBCLASS_COMMON = 2
 180:lib/tinyusb/src/common/tusb_types.h **** }misc_subclass_type_t;
 181:lib/tinyusb/src/common/tusb_types.h **** 
 182:lib/tinyusb/src/common/tusb_types.h **** typedef enum {
 183:lib/tinyusb/src/common/tusb_types.h ****   MISC_PROTOCOL_IAD = 1
 184:lib/tinyusb/src/common/tusb_types.h **** } misc_protocol_type_t;
 185:lib/tinyusb/src/common/tusb_types.h **** 
ARM GAS  /tmp/claude-502/ccvGLphW.s 			page 40


 186:lib/tinyusb/src/common/tusb_types.h **** typedef enum {
 187:lib/tinyusb/src/common/tusb_types.h ****   APP_SUBCLASS_USBTMC = 0x03,
 188:lib/tinyusb/src/common/tusb_types.h ****   APP_SUBCLASS_DFU_RUNTIME = 0x01
 189:lib/tinyusb/src/common/tusb_types.h **** } app_subclass_type_t;
 190:lib/tinyusb/src/common/tusb_types.h **** 
 191:lib/tinyusb/src/common/tusb_types.h **** typedef enum {
 192:lib/tinyusb/src/common/tusb_types.h ****   DEVICE_CAPABILITY_WIRELESS_USB               = 0x01,
 193:lib/tinyusb/src/common/tusb_types.h ****   DEVICE_CAPABILITY_USB20_EXTENSION            = 0x02,
 194:lib/tinyusb/src/common/tusb_types.h ****   DEVICE_CAPABILITY_SUPERSPEED_USB             = 0x03,
 195:lib/tinyusb/src/common/tusb_types.h ****   DEVICE_CAPABILITY_CONTAINER_id               = 0x04,
 196:lib/tinyusb/src/common/tusb_types.h ****   DEVICE_CAPABILITY_PLATFORM                   = 0x05,
 197:lib/tinyusb/src/common/tusb_types.h ****   DEVICE_CAPABILITY_POWER_DELIVERY             = 0x06,
 198:lib/tinyusb/src/common/tusb_types.h ****   DEVICE_CAPABILITY_BATTERY_INFO               = 0x07,
 199:lib/tinyusb/src/common/tusb_types.h ****   DEVICE_CAPABILITY_PD_CONSUMER_PORT           = 0x08,
 200:lib/tinyusb/src/common/tusb_types.h ****   DEVICE_CAPABILITY_PD_PROVIDER_PORT           = 0x09,
 201:lib/tinyusb/src/common/tusb_types.h ****   DEVICE_CAPABILITY_SUPERSPEED_PLUS            = 0x0A,
 202:lib/tinyusb/src/common/tusb_types.h ****   DEVICE_CAPABILITY_PRECESION_TIME_MEASUREMENT = 0x0B,
 203:lib/tinyusb/src/common/tusb_types.h ****   DEVICE_CAPABILITY_WIRELESS_USB_EXT           = 0x0C,
 204:lib/tinyusb/src/common/tusb_types.h ****   DEVICE_CAPABILITY_BILLBOARD                  = 0x0D,
 205:lib/tinyusb/src/common/tusb_types.h ****   DEVICE_CAPABILITY_AUTHENTICATION             = 0x0E,
 206:lib/tinyusb/src/common/tusb_types.h ****   DEVICE_CAPABILITY_BILLBOARD_EX               = 0x0F,
 207:lib/tinyusb/src/common/tusb_types.h ****   DEVICE_CAPABILITY_CONFIGURATION_SUMMARY      = 0x10
 208:lib/tinyusb/src/common/tusb_types.h **** } device_capability_type_t;
 209:lib/tinyusb/src/common/tusb_types.h **** 
 210:lib/tinyusb/src/common/tusb_types.h **** enum {
 211:lib/tinyusb/src/common/tusb_types.h ****   TUSB_DESC_CONFIG_ATT_REMOTE_WAKEUP = 1u << 5,
 212:lib/tinyusb/src/common/tusb_types.h ****   TUSB_DESC_CONFIG_ATT_SELF_POWERED  = 1u << 6,
 213:lib/tinyusb/src/common/tusb_types.h **** };
 214:lib/tinyusb/src/common/tusb_types.h **** 
 215:lib/tinyusb/src/common/tusb_types.h **** #define TUSB_DESC_CONFIG_POWER_MA(x)  ((x)/2)
 216:lib/tinyusb/src/common/tusb_types.h **** 
 217:lib/tinyusb/src/common/tusb_types.h **** // USB 2.0 Spec Table 9-7: Test Mode Selectors
 218:lib/tinyusb/src/common/tusb_types.h **** typedef enum {
 219:lib/tinyusb/src/common/tusb_types.h ****   TUSB_FEATURE_TEST_J = 1,
 220:lib/tinyusb/src/common/tusb_types.h ****   TUSB_FEATURE_TEST_K,
 221:lib/tinyusb/src/common/tusb_types.h ****   TUSB_FEATURE_TEST_SE0_NAK,
 222:lib/tinyusb/src/common/tusb_types.h ****   TUSB_FEATURE_TEST_PACKET,
 223:lib/tinyusb/src/common/tusb_types.h ****   TUSB_FEATURE_TEST_FORCE_ENABLE,
 224:lib/tinyusb/src/common/tusb_types.h **** } tusb_feature_test_mode_t;
 225:lib/tinyusb/src/common/tusb_types.h **** 
 226:lib/tinyusb/src/common/tusb_types.h **** //--------------------------------------------------------------------+
 227:lib/tinyusb/src/common/tusb_types.h **** //
 228:lib/tinyusb/src/common/tusb_types.h **** //--------------------------------------------------------------------+
 229:lib/tinyusb/src/common/tusb_types.h **** typedef enum {
 230:lib/tinyusb/src/common/tusb_types.h ****   XFER_RESULT_SUCCESS = 0,
 231:lib/tinyusb/src/common/tusb_types.h ****   XFER_RESULT_FAILED,
 232:lib/tinyusb/src/common/tusb_types.h ****   XFER_RESULT_STALLED,
 233:lib/tinyusb/src/common/tusb_types.h ****   XFER_RESULT_TIMEOUT,
 234:lib/tinyusb/src/common/tusb_types.h ****   XFER_RESULT_INVALID
 235:lib/tinyusb/src/common/tusb_types.h **** } xfer_result_t;
 236:lib/tinyusb/src/common/tusb_types.h **** 
 237:lib/tinyusb/src/common/tusb_types.h **** // TODO remove
 238:lib/tinyusb/src/common/tusb_types.h **** enum {
 239:lib/tinyusb/src/common/tusb_types.h ****   DESC_OFFSET_LEN  = 0,
 240:lib/tinyusb/src/common/tusb_types.h ****   DESC_OFFSET_TYPE = 1
 241:lib/tinyusb/src/common/tusb_types.h **** };
 242:lib/tinyusb/src/common/tusb_types.h **** 
ARM GAS  /tmp/claude-502/ccvGLphW.s 			page 41


 243:lib/tinyusb/src/common/tusb_types.h **** enum {
 244:lib/tinyusb/src/common/tusb_types.h ****   INTERFACE_INVALID_NUMBER = 0xff
 245:lib/tinyusb/src/common/tusb_types.h **** };
 246:lib/tinyusb/src/common/tusb_types.h **** 
 247:lib/tinyusb/src/common/tusb_types.h **** typedef enum {
 248:lib/tinyusb/src/common/tusb_types.h ****   MS_OS_20_SET_HEADER_DESCRIPTOR       = 0x00,
 249:lib/tinyusb/src/common/tusb_types.h ****   MS_OS_20_SUBSET_HEADER_CONFIGURATION = 0x01,
 250:lib/tinyusb/src/common/tusb_types.h ****   MS_OS_20_SUBSET_HEADER_FUNCTION      = 0x02,
 251:lib/tinyusb/src/common/tusb_types.h ****   MS_OS_20_FEATURE_COMPATBLE_ID        = 0x03,
 252:lib/tinyusb/src/common/tusb_types.h ****   MS_OS_20_FEATURE_REG_PROPERTY        = 0x04,
 253:lib/tinyusb/src/common/tusb_types.h ****   MS_OS_20_FEATURE_MIN_RESUME_TIME     = 0x05,
 254:lib/tinyusb/src/common/tusb_types.h ****   MS_OS_20_FEATURE_MODEL_ID            = 0x06,
 255:lib/tinyusb/src/common/tusb_types.h ****   MS_OS_20_FEATURE_CCGP_DEVICE         = 0x07,
 256:lib/tinyusb/src/common/tusb_types.h ****   MS_OS_20_FEATURE_VENDOR_REVISION     = 0x08
 257:lib/tinyusb/src/common/tusb_types.h **** } microsoft_os_20_type_t;
 258:lib/tinyusb/src/common/tusb_types.h **** 
 259:lib/tinyusb/src/common/tusb_types.h **** enum {
 260:lib/tinyusb/src/common/tusb_types.h ****   CONTROL_STAGE_IDLE,
 261:lib/tinyusb/src/common/tusb_types.h ****   CONTROL_STAGE_SETUP,
 262:lib/tinyusb/src/common/tusb_types.h ****   CONTROL_STAGE_DATA,
 263:lib/tinyusb/src/common/tusb_types.h ****   CONTROL_STAGE_ACK
 264:lib/tinyusb/src/common/tusb_types.h **** };
 265:lib/tinyusb/src/common/tusb_types.h **** 
 266:lib/tinyusb/src/common/tusb_types.h **** enum {
 267:lib/tinyusb/src/common/tusb_types.h ****   TUSB_INDEX_INVALID_8 = 0xFFu
 268:lib/tinyusb/src/common/tusb_types.h **** };
 269:lib/tinyusb/src/common/tusb_types.h **** 
 270:lib/tinyusb/src/common/tusb_types.h **** //--------------------------------------------------------------------+
 271:lib/tinyusb/src/common/tusb_types.h **** // USB Descriptors
 272:lib/tinyusb/src/common/tusb_types.h **** //--------------------------------------------------------------------+
 273:lib/tinyusb/src/common/tusb_types.h **** 
 274:lib/tinyusb/src/common/tusb_types.h **** // Start of all packed definitions for compiler without per-type packed
 275:lib/tinyusb/src/common/tusb_types.h **** TU_ATTR_PACKED_BEGIN
 276:lib/tinyusb/src/common/tusb_types.h **** TU_ATTR_BIT_FIELD_ORDER_BEGIN
 277:lib/tinyusb/src/common/tusb_types.h **** 
 278:lib/tinyusb/src/common/tusb_types.h **** /// USB Device Descriptor
 279:lib/tinyusb/src/common/tusb_types.h **** typedef struct TU_ATTR_PACKED {
 280:lib/tinyusb/src/common/tusb_types.h ****   uint8_t  bLength            ; ///< Size of this descriptor in bytes.
 281:lib/tinyusb/src/common/tusb_types.h ****   uint8_t  bDescriptorType    ; ///< DEVICE Descriptor Type.
 282:lib/tinyusb/src/common/tusb_types.h ****   uint16_t bcdUSB             ; ///< BUSB Specification Release Number in Binary-Coded Decimal (i.e
 283:lib/tinyusb/src/common/tusb_types.h **** 
 284:lib/tinyusb/src/common/tusb_types.h ****   uint8_t  bDeviceClass       ; ///< Class code (assigned by the USB-IF).
 285:lib/tinyusb/src/common/tusb_types.h ****   uint8_t  bDeviceSubClass    ; ///< Subclass code (assigned by the USB-IF).
 286:lib/tinyusb/src/common/tusb_types.h ****   uint8_t  bDeviceProtocol    ; ///< Protocol code (assigned by the USB-IF).
 287:lib/tinyusb/src/common/tusb_types.h ****   uint8_t  bMaxPacketSize0    ; ///< Maximum packet size for endpoint zero (only 8, 16, 32, or 64 a
 288:lib/tinyusb/src/common/tusb_types.h **** 
 289:lib/tinyusb/src/common/tusb_types.h ****   uint16_t idVendor           ; ///< Vendor ID (assigned by the USB-IF).
 290:lib/tinyusb/src/common/tusb_types.h ****   uint16_t idProduct          ; ///< Product ID (assigned by the manufacturer).
 291:lib/tinyusb/src/common/tusb_types.h ****   uint16_t bcdDevice          ; ///< Device release number in binary-coded decimal.
 292:lib/tinyusb/src/common/tusb_types.h ****   uint8_t  iManufacturer      ; ///< Index of string descriptor describing manufacturer.
 293:lib/tinyusb/src/common/tusb_types.h ****   uint8_t  iProduct           ; ///< Index of string descriptor describing product.
 294:lib/tinyusb/src/common/tusb_types.h ****   uint8_t  iSerialNumber      ; ///< Index of string descriptor describing the device's serial numb
 295:lib/tinyusb/src/common/tusb_types.h **** 
 296:lib/tinyusb/src/common/tusb_types.h ****   uint8_t  bNumConfigurations ; ///< Number of possible configurations.
 297:lib/tinyusb/src/common/tusb_types.h **** } tusb_desc_device_t;
 298:lib/tinyusb/src/common/tusb_types.h **** 
 299:lib/tinyusb/src/common/tusb_types.h **** TU_VERIFY_STATIC( sizeof(tusb_desc_device_t) == 18, "size is not correct");
ARM GAS  /tmp/claude-502/ccvGLphW.s 			page 42


 300:lib/tinyusb/src/common/tusb_types.h **** 
 301:lib/tinyusb/src/common/tusb_types.h **** // USB Binary Device Object Store (BOS) Descriptor
 302:lib/tinyusb/src/common/tusb_types.h **** typedef struct TU_ATTR_PACKED {
 303:lib/tinyusb/src/common/tusb_types.h ****   uint8_t  bLength         ; ///< Size of this descriptor in bytes
 304:lib/tinyusb/src/common/tusb_types.h ****   uint8_t  bDescriptorType ; ///< CONFIGURATION Descriptor Type
 305:lib/tinyusb/src/common/tusb_types.h ****   uint16_t wTotalLength    ; ///< Total length of data returned for this descriptor
 306:lib/tinyusb/src/common/tusb_types.h ****   uint8_t  bNumDeviceCaps  ; ///< Number of device capability descriptors in the BOS
 307:lib/tinyusb/src/common/tusb_types.h **** } tusb_desc_bos_t;
 308:lib/tinyusb/src/common/tusb_types.h **** 
 309:lib/tinyusb/src/common/tusb_types.h **** TU_VERIFY_STATIC( sizeof(tusb_desc_bos_t) == 5, "size is not correct");
 310:lib/tinyusb/src/common/tusb_types.h **** 
 311:lib/tinyusb/src/common/tusb_types.h **** /// USB Configuration Descriptor
 312:lib/tinyusb/src/common/tusb_types.h **** typedef struct TU_ATTR_PACKED {
 313:lib/tinyusb/src/common/tusb_types.h ****   uint8_t  bLength             ; ///< Size of this descriptor in bytes
 314:lib/tinyusb/src/common/tusb_types.h ****   uint8_t  bDescriptorType     ; ///< CONFIGURATION Descriptor Type
 315:lib/tinyusb/src/common/tusb_types.h ****   uint16_t wTotalLength        ; ///< Total length of data returned for this configuration. Include
 316:lib/tinyusb/src/common/tusb_types.h **** 
 317:lib/tinyusb/src/common/tusb_types.h ****   uint8_t  bNumInterfaces      ; ///< Number of interfaces supported by this configuration
 318:lib/tinyusb/src/common/tusb_types.h ****   uint8_t  bConfigurationValue ; ///< Value to use as an argument to the SetConfiguration() request
 319:lib/tinyusb/src/common/tusb_types.h ****   uint8_t  iConfiguration      ; ///< Index of string descriptor describing this configuration
 320:lib/tinyusb/src/common/tusb_types.h ****   uint8_t  bmAttributes        ; ///< Configuration characteristics \n D7: Reserved (set to one)\n 
 321:lib/tinyusb/src/common/tusb_types.h ****   uint8_t  bMaxPower           ; ///< Maximum power consumption of the USB device from the bus in t
 322:lib/tinyusb/src/common/tusb_types.h **** } tusb_desc_configuration_t;
 323:lib/tinyusb/src/common/tusb_types.h **** 
 324:lib/tinyusb/src/common/tusb_types.h **** TU_VERIFY_STATIC( sizeof(tusb_desc_configuration_t) == 9, "size is not correct");
 325:lib/tinyusb/src/common/tusb_types.h **** 
 326:lib/tinyusb/src/common/tusb_types.h **** /// USB Interface Descriptor
 327:lib/tinyusb/src/common/tusb_types.h **** typedef struct TU_ATTR_PACKED {
 328:lib/tinyusb/src/common/tusb_types.h ****   uint8_t  bLength            ; ///< Size of this descriptor in bytes
 329:lib/tinyusb/src/common/tusb_types.h ****   uint8_t  bDescriptorType    ; ///< INTERFACE Descriptor Type
 330:lib/tinyusb/src/common/tusb_types.h **** 
 331:lib/tinyusb/src/common/tusb_types.h ****   uint8_t  bInterfaceNumber   ; ///< Number of this interface. Zero-based value identifying the ind
 332:lib/tinyusb/src/common/tusb_types.h ****   uint8_t  bAlternateSetting  ; ///< Value used to select this alternate setting for the interface 
 333:lib/tinyusb/src/common/tusb_types.h ****   uint8_t  bNumEndpoints      ; ///< Number of endpoints used by this interface (excluding endpoint
 334:lib/tinyusb/src/common/tusb_types.h ****   uint8_t  bInterfaceClass    ; ///< Class code (assigned by the USB-IF). \li A value of zero is re
 335:lib/tinyusb/src/common/tusb_types.h ****   uint8_t  bInterfaceSubClass ; ///< Subclass code (assigned by the USB-IF). \n These codes are qua
 336:lib/tinyusb/src/common/tusb_types.h ****   uint8_t  bInterfaceProtocol ; ///< Protocol code (assigned by the USB). \n These codes are qualif
 337:lib/tinyusb/src/common/tusb_types.h ****   uint8_t  iInterface         ; ///< Index of string descriptor describing this interface
 338:lib/tinyusb/src/common/tusb_types.h **** } tusb_desc_interface_t;
 339:lib/tinyusb/src/common/tusb_types.h **** 
 340:lib/tinyusb/src/common/tusb_types.h **** TU_VERIFY_STATIC( sizeof(tusb_desc_interface_t) == 9, "size is not correct");
 341:lib/tinyusb/src/common/tusb_types.h **** 
 342:lib/tinyusb/src/common/tusb_types.h **** /// USB Endpoint Descriptor
 343:lib/tinyusb/src/common/tusb_types.h **** typedef struct TU_ATTR_PACKED {
 344:lib/tinyusb/src/common/tusb_types.h ****   uint8_t  bLength          ; // Size of this descriptor in bytes
 345:lib/tinyusb/src/common/tusb_types.h ****   uint8_t  bDescriptorType  ; // ENDPOINT Descriptor Type
 346:lib/tinyusb/src/common/tusb_types.h **** 
 347:lib/tinyusb/src/common/tusb_types.h ****   uint8_t  bEndpointAddress ; // The address of the endpoint
 348:lib/tinyusb/src/common/tusb_types.h **** 
 349:lib/tinyusb/src/common/tusb_types.h ****   struct TU_ATTR_PACKED {
 350:lib/tinyusb/src/common/tusb_types.h ****     uint8_t xfer  : 2;        // Control, ISO, Bulk, Interrupt
 351:lib/tinyusb/src/common/tusb_types.h ****     uint8_t sync  : 2;        // None, Asynchronous, Adaptive, Synchronous
 352:lib/tinyusb/src/common/tusb_types.h ****     uint8_t usage : 2;        // Data, Feedback, Implicit feedback
 353:lib/tinyusb/src/common/tusb_types.h ****     uint8_t       : 2;
 354:lib/tinyusb/src/common/tusb_types.h ****   } bmAttributes;
 355:lib/tinyusb/src/common/tusb_types.h **** 
 356:lib/tinyusb/src/common/tusb_types.h ****   uint16_t wMaxPacketSize   ; // Bit 10..0 : max packet size, bit 12..11 additional transaction per
ARM GAS  /tmp/claude-502/ccvGLphW.s 			page 43


 357:lib/tinyusb/src/common/tusb_types.h ****   uint8_t  bInterval        ; // Polling interval, in frames or microframes depending on the operat
 358:lib/tinyusb/src/common/tusb_types.h **** } tusb_desc_endpoint_t;
 359:lib/tinyusb/src/common/tusb_types.h **** 
 360:lib/tinyusb/src/common/tusb_types.h **** TU_VERIFY_STATIC( sizeof(tusb_desc_endpoint_t) == 7, "size is not correct");
 361:lib/tinyusb/src/common/tusb_types.h **** 
 362:lib/tinyusb/src/common/tusb_types.h **** /// USB Other Speed Configuration Descriptor
 363:lib/tinyusb/src/common/tusb_types.h **** typedef struct TU_ATTR_PACKED {
 364:lib/tinyusb/src/common/tusb_types.h ****   uint8_t  bLength             ; ///< Size of descriptor
 365:lib/tinyusb/src/common/tusb_types.h ****   uint8_t  bDescriptorType     ; ///< Other_speed_Configuration Type
 366:lib/tinyusb/src/common/tusb_types.h ****   uint16_t wTotalLength        ; ///< Total length of data returned
 367:lib/tinyusb/src/common/tusb_types.h **** 
 368:lib/tinyusb/src/common/tusb_types.h ****   uint8_t  bNumInterfaces      ; ///< Number of interfaces supported by this speed configuration
 369:lib/tinyusb/src/common/tusb_types.h ****   uint8_t  bConfigurationValue ; ///< Value to use to select configuration
 370:lib/tinyusb/src/common/tusb_types.h ****   uint8_t  iConfiguration      ; ///< Index of string descriptor
 371:lib/tinyusb/src/common/tusb_types.h ****   uint8_t  bmAttributes        ; ///< Same as Configuration descriptor
 372:lib/tinyusb/src/common/tusb_types.h ****   uint8_t  bMaxPower           ; ///< Same as Configuration descriptor
 373:lib/tinyusb/src/common/tusb_types.h **** } tusb_desc_other_speed_t;
 374:lib/tinyusb/src/common/tusb_types.h **** 
 375:lib/tinyusb/src/common/tusb_types.h **** /// USB Device Qualifier Descriptor
 376:lib/tinyusb/src/common/tusb_types.h **** typedef struct TU_ATTR_PACKED {
 377:lib/tinyusb/src/common/tusb_types.h ****   uint8_t  bLength            ; ///< Size of descriptor
 378:lib/tinyusb/src/common/tusb_types.h ****   uint8_t  bDescriptorType    ; ///< Device Qualifier Type
 379:lib/tinyusb/src/common/tusb_types.h ****   uint16_t bcdUSB             ; ///< USB specification version number (e.g., 0200H for V2.00)
 380:lib/tinyusb/src/common/tusb_types.h **** 
 381:lib/tinyusb/src/common/tusb_types.h ****   uint8_t  bDeviceClass       ; ///< Class Code
 382:lib/tinyusb/src/common/tusb_types.h ****   uint8_t  bDeviceSubClass    ; ///< SubClass Code
 383:lib/tinyusb/src/common/tusb_types.h ****   uint8_t  bDeviceProtocol    ; ///< Protocol Code
 384:lib/tinyusb/src/common/tusb_types.h **** 
 385:lib/tinyusb/src/common/tusb_types.h ****   uint8_t  bMaxPacketSize0    ; ///< Maximum packet size for other speed
 386:lib/tinyusb/src/common/tusb_types.h ****   uint8_t  bNumConfigurations ; ///< Number of Other-speed Configurations
 387:lib/tinyusb/src/common/tusb_types.h ****   uint8_t  bReserved          ; ///< Reserved for future use, must be zero
 388:lib/tinyusb/src/common/tusb_types.h **** } tusb_desc_device_qualifier_t;
 389:lib/tinyusb/src/common/tusb_types.h **** 
 390:lib/tinyusb/src/common/tusb_types.h **** TU_VERIFY_STATIC( sizeof(tusb_desc_device_qualifier_t) == 10, "size is not correct");
 391:lib/tinyusb/src/common/tusb_types.h **** 
 392:lib/tinyusb/src/common/tusb_types.h **** /// USB Interface Association Descriptor (IAD ECN)
 393:lib/tinyusb/src/common/tusb_types.h **** typedef struct TU_ATTR_PACKED {
 394:lib/tinyusb/src/common/tusb_types.h ****   uint8_t bLength           ; ///< Size of descriptor
 395:lib/tinyusb/src/common/tusb_types.h ****   uint8_t bDescriptorType   ; ///< Other_speed_Configuration Type
 396:lib/tinyusb/src/common/tusb_types.h **** 
 397:lib/tinyusb/src/common/tusb_types.h ****   uint8_t bFirstInterface   ; ///< Index of the first associated interface.
 398:lib/tinyusb/src/common/tusb_types.h ****   uint8_t bInterfaceCount   ; ///< Total number of associated interfaces.
 399:lib/tinyusb/src/common/tusb_types.h **** 
 400:lib/tinyusb/src/common/tusb_types.h ****   uint8_t bFunctionClass    ; ///< Interface class ID.
 401:lib/tinyusb/src/common/tusb_types.h ****   uint8_t bFunctionSubClass ; ///< Interface subclass ID.
 402:lib/tinyusb/src/common/tusb_types.h ****   uint8_t bFunctionProtocol ; ///< Interface protocol ID.
 403:lib/tinyusb/src/common/tusb_types.h **** 
 404:lib/tinyusb/src/common/tusb_types.h ****   uint8_t iFunction         ; ///< Index of the string descriptor describing the interface associat
 405:lib/tinyusb/src/common/tusb_types.h **** } tusb_desc_interface_assoc_t;
 406:lib/tinyusb/src/common/tusb_types.h **** 
 407:lib/tinyusb/src/common/tusb_types.h **** TU_VERIFY_STATIC( sizeof(tusb_desc_interface_assoc_t) == 8, "size is not correct");
 408:lib/tinyusb/src/common/tusb_types.h **** 
 409:lib/tinyusb/src/common/tusb_types.h **** // USB String Descriptor
 410:lib/tinyusb/src/common/tusb_types.h **** typedef struct TU_ATTR_PACKED {
 411:lib/tinyusb/src/common/tusb_types.h ****   uint8_t  bLength         ; ///< Size of this descriptor in bytes
 412:lib/tinyusb/src/common/tusb_types.h ****   uint8_t  bDescriptorType ; ///< Descriptor Type
 413:lib/tinyusb/src/common/tusb_types.h ****   uint16_t unicode_string[];
ARM GAS  /tmp/claude-502/ccvGLphW.s 			page 44


 414:lib/tinyusb/src/common/tusb_types.h **** } tusb_desc_string_t;
 415:lib/tinyusb/src/common/tusb_types.h **** 
 416:lib/tinyusb/src/common/tusb_types.h **** // USB Binary Device Object Store (BOS)
 417:lib/tinyusb/src/common/tusb_types.h **** typedef struct TU_ATTR_PACKED {
 418:lib/tinyusb/src/common/tusb_types.h ****   uint8_t bLength;
 419:lib/tinyusb/src/common/tusb_types.h ****   uint8_t bDescriptorType ;
 420:lib/tinyusb/src/common/tusb_types.h ****   uint8_t bDevCapabilityType;
 421:lib/tinyusb/src/common/tusb_types.h ****   uint8_t bReserved;
 422:lib/tinyusb/src/common/tusb_types.h ****   uint8_t PlatformCapabilityUUID[16];
 423:lib/tinyusb/src/common/tusb_types.h ****   uint8_t CapabilityData[];
 424:lib/tinyusb/src/common/tusb_types.h **** } tusb_desc_bos_platform_t;
 425:lib/tinyusb/src/common/tusb_types.h **** 
 426:lib/tinyusb/src/common/tusb_types.h **** // USB WebUSB URL Descriptor
 427:lib/tinyusb/src/common/tusb_types.h **** typedef struct TU_ATTR_PACKED {
 428:lib/tinyusb/src/common/tusb_types.h ****   uint8_t bLength;
 429:lib/tinyusb/src/common/tusb_types.h ****   uint8_t bDescriptorType;
 430:lib/tinyusb/src/common/tusb_types.h ****   uint8_t bScheme;
 431:lib/tinyusb/src/common/tusb_types.h ****   char    url[];
 432:lib/tinyusb/src/common/tusb_types.h **** } tusb_desc_webusb_url_t;
 433:lib/tinyusb/src/common/tusb_types.h **** 
 434:lib/tinyusb/src/common/tusb_types.h **** // DFU Functional Descriptor
 435:lib/tinyusb/src/common/tusb_types.h **** typedef struct TU_ATTR_PACKED {
 436:lib/tinyusb/src/common/tusb_types.h ****   uint8_t  bLength;
 437:lib/tinyusb/src/common/tusb_types.h ****   uint8_t  bDescriptorType;
 438:lib/tinyusb/src/common/tusb_types.h **** 
 439:lib/tinyusb/src/common/tusb_types.h ****   union {
 440:lib/tinyusb/src/common/tusb_types.h ****     struct TU_ATTR_PACKED {
 441:lib/tinyusb/src/common/tusb_types.h ****       uint8_t bitCanDnload             : 1;
 442:lib/tinyusb/src/common/tusb_types.h ****       uint8_t bitCanUpload             : 1;
 443:lib/tinyusb/src/common/tusb_types.h ****       uint8_t bitManifestationTolerant : 1;
 444:lib/tinyusb/src/common/tusb_types.h ****       uint8_t bitWillDetach            : 1;
 445:lib/tinyusb/src/common/tusb_types.h ****       uint8_t reserved                 : 4;
 446:lib/tinyusb/src/common/tusb_types.h ****     } bmAttributes;
 447:lib/tinyusb/src/common/tusb_types.h **** 
 448:lib/tinyusb/src/common/tusb_types.h ****     uint8_t bAttributes;
 449:lib/tinyusb/src/common/tusb_types.h ****   };
 450:lib/tinyusb/src/common/tusb_types.h **** 
 451:lib/tinyusb/src/common/tusb_types.h ****   uint16_t wDetachTimeOut;
 452:lib/tinyusb/src/common/tusb_types.h ****   uint16_t wTransferSize;
 453:lib/tinyusb/src/common/tusb_types.h ****   uint16_t bcdDFUVersion;
 454:lib/tinyusb/src/common/tusb_types.h **** } tusb_desc_dfu_functional_t;
 455:lib/tinyusb/src/common/tusb_types.h **** 
 456:lib/tinyusb/src/common/tusb_types.h **** //--------------------------------------------------------------------+
 457:lib/tinyusb/src/common/tusb_types.h **** //
 458:lib/tinyusb/src/common/tusb_types.h **** //--------------------------------------------------------------------+
 459:lib/tinyusb/src/common/tusb_types.h **** 
 460:lib/tinyusb/src/common/tusb_types.h **** typedef struct TU_ATTR_PACKED {
 461:lib/tinyusb/src/common/tusb_types.h ****   union {
 462:lib/tinyusb/src/common/tusb_types.h ****     struct TU_ATTR_PACKED {
 463:lib/tinyusb/src/common/tusb_types.h ****       uint8_t recipient :  5; ///< Recipient type tusb_request_recipient_t.
 464:lib/tinyusb/src/common/tusb_types.h ****       uint8_t type      :  2; ///< Request type tusb_request_type_t.
 465:lib/tinyusb/src/common/tusb_types.h ****       uint8_t direction :  1; ///< Direction type. tusb_dir_t
 466:lib/tinyusb/src/common/tusb_types.h ****     } bmRequestType_bit;
 467:lib/tinyusb/src/common/tusb_types.h **** 
 468:lib/tinyusb/src/common/tusb_types.h ****     uint8_t bmRequestType;
 469:lib/tinyusb/src/common/tusb_types.h ****   };
 470:lib/tinyusb/src/common/tusb_types.h **** 
ARM GAS  /tmp/claude-502/ccvGLphW.s 			page 45


 471:lib/tinyusb/src/common/tusb_types.h ****   uint8_t  bRequest;
 472:lib/tinyusb/src/common/tusb_types.h ****   uint16_t wValue;
 473:lib/tinyusb/src/common/tusb_types.h ****   uint16_t wIndex;
 474:lib/tinyusb/src/common/tusb_types.h ****   uint16_t wLength;
 475:lib/tinyusb/src/common/tusb_types.h **** } tusb_control_request_t;
 476:lib/tinyusb/src/common/tusb_types.h **** 
 477:lib/tinyusb/src/common/tusb_types.h **** TU_VERIFY_STATIC( sizeof(tusb_control_request_t) == 8, "size is not correct");
 478:lib/tinyusb/src/common/tusb_types.h **** 
 479:lib/tinyusb/src/common/tusb_types.h **** TU_ATTR_PACKED_END  // End of all packed definitions
 480:lib/tinyusb/src/common/tusb_types.h **** TU_ATTR_BIT_FIELD_ORDER_END
 481:lib/tinyusb/src/common/tusb_types.h **** 
 482:lib/tinyusb/src/common/tusb_types.h **** //--------------------------------------------------------------------+
 483:lib/tinyusb/src/common/tusb_types.h **** // Endpoint helper
 484:lib/tinyusb/src/common/tusb_types.h **** //--------------------------------------------------------------------+
 485:lib/tinyusb/src/common/tusb_types.h **** 
 486:lib/tinyusb/src/common/tusb_types.h **** // Get direction from Endpoint address
 487:lib/tinyusb/src/common/tusb_types.h **** TU_ATTR_ALWAYS_INLINE static inline tusb_dir_t tu_edpt_dir(uint8_t addr) {
 488:lib/tinyusb/src/common/tusb_types.h ****   return (addr & TUSB_DIR_IN_MASK) ? TUSB_DIR_IN : TUSB_DIR_OUT;
 489:lib/tinyusb/src/common/tusb_types.h **** }
 490:lib/tinyusb/src/common/tusb_types.h **** 
 491:lib/tinyusb/src/common/tusb_types.h **** // Get Endpoint number from address
 492:lib/tinyusb/src/common/tusb_types.h **** TU_ATTR_ALWAYS_INLINE static inline uint8_t tu_edpt_number(uint8_t addr) {
 493:lib/tinyusb/src/common/tusb_types.h ****   return (uint8_t)(addr & (~TUSB_DIR_IN_MASK));
 494:lib/tinyusb/src/common/tusb_types.h **** }
 495:lib/tinyusb/src/common/tusb_types.h **** 
 496:lib/tinyusb/src/common/tusb_types.h **** TU_ATTR_ALWAYS_INLINE static inline uint8_t tu_edpt_addr(uint8_t num, uint8_t dir) {
 497:lib/tinyusb/src/common/tusb_types.h ****   return (uint8_t)(num | (dir ? TUSB_DIR_IN_MASK : 0));
 498:lib/tinyusb/src/common/tusb_types.h **** }
 499:lib/tinyusb/src/common/tusb_types.h **** 
 500:lib/tinyusb/src/common/tusb_types.h **** TU_ATTR_ALWAYS_INLINE static inline uint16_t tu_edpt_packet_size(tusb_desc_endpoint_t const* desc_e
 501:lib/tinyusb/src/common/tusb_types.h ****   return tu_le16toh(desc_ep->wMaxPacketSize) & 0x7FF;
 502:lib/tinyusb/src/common/tusb_types.h **** }
 503:lib/tinyusb/src/common/tusb_types.h **** 
 504:lib/tinyusb/src/common/tusb_types.h **** #if CFG_TUSB_DEBUG
 505:lib/tinyusb/src/common/tusb_types.h **** TU_ATTR_ALWAYS_INLINE static inline const char *tu_edpt_type_str(tusb_xfer_type_t t) {
 506:lib/tinyusb/src/common/tusb_types.h ****   tu_static const char *str[] = {"control", "isochronous", "bulk", "interrupt"};
 507:lib/tinyusb/src/common/tusb_types.h ****   return str[t];
 508:lib/tinyusb/src/common/tusb_types.h **** }
 509:lib/tinyusb/src/common/tusb_types.h **** #endif
 510:lib/tinyusb/src/common/tusb_types.h **** 
 511:lib/tinyusb/src/common/tusb_types.h **** //--------------------------------------------------------------------+
 512:lib/tinyusb/src/common/tusb_types.h **** // Descriptor helper
 513:lib/tinyusb/src/common/tusb_types.h **** //--------------------------------------------------------------------+
 514:lib/tinyusb/src/common/tusb_types.h **** 
 515:lib/tinyusb/src/common/tusb_types.h **** // return next descriptor
 516:lib/tinyusb/src/common/tusb_types.h **** TU_ATTR_ALWAYS_INLINE static inline uint8_t const * tu_desc_next(void const* desc) {
 1336              		.loc 4 516 53 view .LVU308
 1337              	.LBB103:
 517:lib/tinyusb/src/common/tusb_types.h ****   uint8_t const* desc8 = (uint8_t const*) desc;
 1338              		.loc 4 517 3 view .LVU309
 518:lib/tinyusb/src/common/tusb_types.h ****   return desc8 + desc8[DESC_OFFSET_LEN];
 1339              		.loc 4 518 3 view .LVU310
 1340              		.loc 4 518 23 is_stmt 0 view .LVU311
 1341 0036 0C78     		ldrb	r4, [r1]	@ zero_extendqisi2
 1342              		.loc 4 518 16 view .LVU312
 1343 0038 0C44     		add	r4, r4, r1
 1344              	.LVL100:
ARM GAS  /tmp/claude-502/ccvGLphW.s 			page 46


 1345              		.loc 4 518 16 view .LVU313
 1346              	.LBE103:
 1347              	.LBE102:
 317:lib/tinyusb/src/class/cdc/cdc_device.c ****     drv_len += tu_desc_len(p_desc);
 1348              		.loc 1 317 3 is_stmt 1 view .LVU314
 317:lib/tinyusb/src/class/cdc/cdc_device.c ****     drv_len += tu_desc_len(p_desc);
 1349              		.loc 1 317 9 view .LVU315
 1350              	.LBB104:
 1351              	.LBI104:
 519:lib/tinyusb/src/common/tusb_types.h **** }
 520:lib/tinyusb/src/common/tusb_types.h **** 
 521:lib/tinyusb/src/common/tusb_types.h **** // get descriptor type
 522:lib/tinyusb/src/common/tusb_types.h **** TU_ATTR_ALWAYS_INLINE static inline uint8_t tu_desc_type(void const* desc) {
 1352              		.loc 4 522 45 view .LVU316
 1353              	.LBB105:
 523:lib/tinyusb/src/common/tusb_types.h ****   return ((uint8_t const*) desc)[DESC_OFFSET_TYPE];
 1354              		.loc 4 523 3 view .LVU317
 1355              		.loc 4 523 33 is_stmt 0 view .LVU318
 1356 003a 6178     		ldrb	r1, [r4, #1]	@ zero_extendqisi2
 1357              	.LVL101:
 1358              		.loc 4 523 33 view .LVU319
 1359              	.LBE105:
 1360              	.LBE104:
 317:lib/tinyusb/src/class/cdc/cdc_device.c ****     drv_len += tu_desc_len(p_desc);
 1361              		.loc 1 317 9 view .LVU320
 1362 003c 2429     		cmp	r1, #36
 1363 003e 0BD1     		bne	.L129
 317:lib/tinyusb/src/class/cdc/cdc_device.c ****     drv_len += tu_desc_len(p_desc);
 1364              		.loc 1 317 57 view .LVU321
 1365 0040 082A     		cmp	r2, #8
 1366 0042 02D8     		bhi	.L130
 1367 0044 10E0     		b	.L134
 1368              	.LVL102:
 1369              	.L155:
 317:lib/tinyusb/src/class/cdc/cdc_device.c ****     drv_len += tu_desc_len(p_desc);
 1370              		.loc 1 317 57 discriminator 1 view .LVU322
 1371 0046 AA42     		cmp	r2, r5
 1372 0048 0ED3     		bcc	.L134
 1373              	.LVL103:
 1374              	.L130:
 318:lib/tinyusb/src/class/cdc/cdc_device.c ****     p_desc = tu_desc_next(p_desc);
 1375              		.loc 1 318 5 is_stmt 1 view .LVU323
 1376              	.LBB108:
 1377              	.LBI108:
 524:lib/tinyusb/src/common/tusb_types.h **** }
 525:lib/tinyusb/src/common/tusb_types.h **** 
 526:lib/tinyusb/src/common/tusb_types.h **** // get descriptor length
 527:lib/tinyusb/src/common/tusb_types.h **** TU_ATTR_ALWAYS_INLINE static inline uint8_t tu_desc_len(void const* desc) {
 1378              		.loc 4 527 45 view .LVU324
 1379              	.LBB109:
 528:lib/tinyusb/src/common/tusb_types.h ****   return ((uint8_t const*) desc)[DESC_OFFSET_LEN];
 1380              		.loc 4 528 3 view .LVU325
 1381              		.loc 4 528 33 is_stmt 0 view .LVU326
 1382 004a 2378     		ldrb	r3, [r4]	@ zero_extendqisi2
 1383              	.LVL104:
 1384              		.loc 4 528 33 view .LVU327
 1385              	.LBE109:
ARM GAS  /tmp/claude-502/ccvGLphW.s 			page 47


 1386              	.LBE108:
 1387              	.LBB110:
 1388              	.LBB111:
 518:lib/tinyusb/src/common/tusb_types.h **** }
 1389              		.loc 4 518 16 view .LVU328
 1390 004c 1C44     		add	r4, r4, r3
 1391              	.LVL105:
 518:lib/tinyusb/src/common/tusb_types.h **** }
 1392              		.loc 4 518 16 view .LVU329
 1393              	.LBE111:
 1394              	.LBE110:
 318:lib/tinyusb/src/class/cdc/cdc_device.c ****     p_desc = tu_desc_next(p_desc);
 1395              		.loc 1 318 13 view .LVU330
 1396 004e 2B44     		add	r3, r3, r5
 1397              	.LBB113:
 1398              	.LBB106:
 523:lib/tinyusb/src/common/tusb_types.h **** }
 1399              		.loc 4 523 33 view .LVU331
 1400 0050 6178     		ldrb	r1, [r4, #1]	@ zero_extendqisi2
 1401              	.LBE106:
 1402              	.LBE113:
 318:lib/tinyusb/src/class/cdc/cdc_device.c ****     p_desc = tu_desc_next(p_desc);
 1403              		.loc 1 318 13 view .LVU332
 1404 0052 9DB2     		uxth	r5, r3
 1405              	.LVL106:
 319:lib/tinyusb/src/class/cdc/cdc_device.c ****   }
 1406              		.loc 1 319 5 is_stmt 1 view .LVU333
 1407              	.LBB114:
 1408              	.LBI110:
 516:lib/tinyusb/src/common/tusb_types.h ****   uint8_t const* desc8 = (uint8_t const*) desc;
 1409              		.loc 4 516 53 view .LVU334
 1410              	.LBB112:
 517:lib/tinyusb/src/common/tusb_types.h ****   return desc8 + desc8[DESC_OFFSET_LEN];
 1411              		.loc 4 517 3 view .LVU335
 518:lib/tinyusb/src/common/tusb_types.h **** }
 1412              		.loc 4 518 3 view .LVU336
 518:lib/tinyusb/src/common/tusb_types.h **** }
 1413              		.loc 4 518 3 is_stmt 0 view .LVU337
 1414              	.LBE112:
 1415              	.LBE114:
 317:lib/tinyusb/src/class/cdc/cdc_device.c ****     drv_len += tu_desc_len(p_desc);
 1416              		.loc 1 317 9 is_stmt 1 view .LVU338
 1417              	.LBB115:
 522:lib/tinyusb/src/common/tusb_types.h ****   return ((uint8_t const*) desc)[DESC_OFFSET_TYPE];
 1418              		.loc 4 522 45 view .LVU339
 1419              	.LBB107:
 523:lib/tinyusb/src/common/tusb_types.h **** }
 1420              		.loc 4 523 3 view .LVU340
 523:lib/tinyusb/src/common/tusb_types.h **** }
 1421              		.loc 4 523 3 is_stmt 0 view .LVU341
 1422              	.LBE107:
 1423              	.LBE115:
 317:lib/tinyusb/src/class/cdc/cdc_device.c ****     drv_len += tu_desc_len(p_desc);
 1424              		.loc 1 317 9 view .LVU342
 1425 0054 2429     		cmp	r1, #36
 1426 0056 F6D0     		beq	.L155
 1427              	.LVL107:
ARM GAS  /tmp/claude-502/ccvGLphW.s 			page 48


 1428              	.L129:
 322:lib/tinyusb/src/class/cdc/cdc_device.c ****     // notification endpoint
 1429              		.loc 1 322 3 is_stmt 1 view .LVU343
 523:lib/tinyusb/src/common/tusb_types.h **** }
 1430              		.loc 4 523 3 view .LVU344
 322:lib/tinyusb/src/class/cdc/cdc_device.c ****     // notification endpoint
 1431              		.loc 1 322 6 is_stmt 0 view .LVU345
 1432 0058 0529     		cmp	r1, #5
 1433 005a 0BD0     		beq	.L156
 1434              	.LVL108:
 1435              	.L132:
 334:lib/tinyusb/src/class/cdc/cdc_device.c ****       (TUSB_CLASS_CDC_DATA == ((tusb_desc_interface_t const*) p_desc)->bInterfaceClass)) {
 1436              		.loc 1 334 3 is_stmt 1 view .LVU346
 1437              	.LBB116:
 1438              	.LBI116:
 522:lib/tinyusb/src/common/tusb_types.h ****   return ((uint8_t const*) desc)[DESC_OFFSET_TYPE];
 1439              		.loc 4 522 45 view .LVU347
 1440              	.LBB117:
 523:lib/tinyusb/src/common/tusb_types.h **** }
 1441              		.loc 4 523 3 view .LVU348
 523:lib/tinyusb/src/common/tusb_types.h **** }
 1442              		.loc 4 523 3 is_stmt 0 view .LVU349
 1443              	.LBE117:
 1444              	.LBE116:
 334:lib/tinyusb/src/class/cdc/cdc_device.c ****       (TUSB_CLASS_CDC_DATA == ((tusb_desc_interface_t const*) p_desc)->bInterfaceClass)) {
 1445              		.loc 1 334 6 view .LVU350
 1446 005c 6378     		ldrb	r3, [r4, #1]	@ zero_extendqisi2
 1447 005e 042B     		cmp	r3, #4
 1448 0060 02D1     		bne	.L134
 334:lib/tinyusb/src/class/cdc/cdc_device.c ****       (TUSB_CLASS_CDC_DATA == ((tusb_desc_interface_t const*) p_desc)->bInterfaceClass)) {
 1449              		.loc 1 334 53 discriminator 1 view .LVU351
 1450 0062 6379     		ldrb	r3, [r4, #5]	@ zero_extendqisi2
 1451 0064 0A2B     		cmp	r3, #10
 1452 0066 12D0     		beq	.L157
 1453              	.LVL109:
 1454              	.L134:
 347:lib/tinyusb/src/class/cdc/cdc_device.c **** 
 1455              		.loc 1 347 3 is_stmt 1 view .LVU352
 1456 0068 1248     		ldr	r0, .L158
 1457 006a FFF7FEFF 		bl	_prep_out_transaction.isra.0
 1458              	.LVL110:
 349:lib/tinyusb/src/class/cdc/cdc_device.c **** }
 1459              		.loc 1 349 3 view .LVU353
 1460              		.loc 1 350 1 is_stmt 0 view .LVU354
 1461 006e 2846     		mov	r0, r5
 1462 0070 03B0     		add	sp, sp, #12
 1463              		.cfi_remember_state
 1464              		.cfi_def_cfa_offset 20
 1465              		@ sp needed
 1466 0072 F0BD     		pop	{r4, r5, r6, r7, pc}
 1467              	.LVL111:
 1468              	.L156:
 1469              		.cfi_restore_state
 1470              	.LBB118:
 324:lib/tinyusb/src/class/cdc/cdc_device.c **** 
 1471              		.loc 1 324 5 is_stmt 1 view .LVU355
 326:lib/tinyusb/src/class/cdc/cdc_device.c ****     p_cdc->ep_notif = desc_ep->bEndpointAddress;
ARM GAS  /tmp/claude-502/ccvGLphW.s 			page 49


 1472              		.loc 1 326 5 view .LVU356
 326:lib/tinyusb/src/class/cdc/cdc_device.c ****     p_cdc->ep_notif = desc_ep->bEndpointAddress;
 1473              		.loc 1 326 5 view .LVU357
 1474 0074 2146     		mov	r1, r4
 1475 0076 3046     		mov	r0, r6
 1476              	.LVL112:
 326:lib/tinyusb/src/class/cdc/cdc_device.c ****     p_cdc->ep_notif = desc_ep->bEndpointAddress;
 1477              		.loc 1 326 5 is_stmt 0 view .LVU358
 1478 0078 FFF7FEFF 		bl	usbd_edpt_open
 1479              	.LVL113:
 326:lib/tinyusb/src/class/cdc/cdc_device.c ****     p_cdc->ep_notif = desc_ep->bEndpointAddress;
 1480              		.loc 1 326 5 view .LVU359
 1481 007c 0028     		cmp	r0, #0
 1482 007e CED0     		beq	.L147
 326:lib/tinyusb/src/class/cdc/cdc_device.c ****     p_cdc->ep_notif = desc_ep->bEndpointAddress;
 1483              		.loc 1 326 5 is_stmt 1 discriminator 2 view .LVU360
 327:lib/tinyusb/src/class/cdc/cdc_device.c **** 
 1484              		.loc 1 327 5 discriminator 2 view .LVU361
 327:lib/tinyusb/src/class/cdc/cdc_device.c **** 
 1485              		.loc 1 327 21 is_stmt 0 discriminator 2 view .LVU362
 1486 0080 A378     		ldrb	r3, [r4, #2]	@ zero_extendqisi2
 1487 0082 7B70     		strb	r3, [r7, #1]
 329:lib/tinyusb/src/class/cdc/cdc_device.c ****     p_desc = tu_desc_next(p_desc);
 1488              		.loc 1 329 5 is_stmt 1 discriminator 2 view .LVU363
 1489              	.LVL114:
 1490              	.LBB119:
 1491              	.LBI119:
 527:lib/tinyusb/src/common/tusb_types.h ****   return ((uint8_t const*) desc)[DESC_OFFSET_LEN];
 1492              		.loc 4 527 45 discriminator 2 view .LVU364
 1493              	.LBB120:
 1494              		.loc 4 528 3 discriminator 2 view .LVU365
 1495              		.loc 4 528 33 is_stmt 0 discriminator 2 view .LVU366
 1496 0084 2278     		ldrb	r2, [r4]	@ zero_extendqisi2
 1497              	.LVL115:
 1498              		.loc 4 528 33 discriminator 2 view .LVU367
 1499              	.LBE120:
 1500              	.LBE119:
 329:lib/tinyusb/src/class/cdc/cdc_device.c ****     p_desc = tu_desc_next(p_desc);
 1501              		.loc 1 329 13 discriminator 2 view .LVU368
 1502 0086 AB18     		adds	r3, r5, r2
 1503              	.LBB121:
 1504              	.LBB122:
 518:lib/tinyusb/src/common/tusb_types.h **** }
 1505              		.loc 4 518 16 discriminator 2 view .LVU369
 1506 0088 1444     		add	r4, r4, r2
 1507              	.LVL116:
 518:lib/tinyusb/src/common/tusb_types.h **** }
 1508              		.loc 4 518 16 discriminator 2 view .LVU370
 1509              	.LBE122:
 1510              	.LBE121:
 329:lib/tinyusb/src/class/cdc/cdc_device.c ****     p_desc = tu_desc_next(p_desc);
 1511              		.loc 1 329 13 discriminator 2 view .LVU371
 1512 008a 9DB2     		uxth	r5, r3
 1513              	.LVL117:
 330:lib/tinyusb/src/class/cdc/cdc_device.c ****   }
 1514              		.loc 1 330 5 is_stmt 1 discriminator 2 view .LVU372
 1515              	.LBB124:
ARM GAS  /tmp/claude-502/ccvGLphW.s 			page 50


 1516              	.LBI121:
 516:lib/tinyusb/src/common/tusb_types.h ****   uint8_t const* desc8 = (uint8_t const*) desc;
 1517              		.loc 4 516 53 discriminator 2 view .LVU373
 1518              	.LBB123:
 517:lib/tinyusb/src/common/tusb_types.h ****   return desc8 + desc8[DESC_OFFSET_LEN];
 1519              		.loc 4 517 3 discriminator 2 view .LVU374
 518:lib/tinyusb/src/common/tusb_types.h **** }
 1520              		.loc 4 518 3 discriminator 2 view .LVU375
 518:lib/tinyusb/src/common/tusb_types.h **** }
 1521              		.loc 4 518 3 is_stmt 0 discriminator 2 view .LVU376
 1522 008c E6E7     		b	.L132
 1523              	.L157:
 518:lib/tinyusb/src/common/tusb_types.h **** }
 1524              		.loc 4 518 3 discriminator 2 view .LVU377
 1525              	.LBE123:
 1526              	.LBE124:
 1527              	.LBE118:
 337:lib/tinyusb/src/class/cdc/cdc_device.c ****     p_desc = tu_desc_next(p_desc);
 1528              		.loc 1 337 5 is_stmt 1 view .LVU378
 1529              	.LVL118:
 1530              	.LBB125:
 1531              	.LBI125:
 527:lib/tinyusb/src/common/tusb_types.h ****   return ((uint8_t const*) desc)[DESC_OFFSET_LEN];
 1532              		.loc 4 527 45 view .LVU379
 1533              	.LBB126:
 1534              		.loc 4 528 3 view .LVU380
 1535              	.LBE126:
 1536              	.LBE125:
 341:lib/tinyusb/src/class/cdc/cdc_device.c **** 
 1537              		.loc 1 341 5 is_stmt 0 view .LVU381
 1538 008e 0A4B     		ldr	r3, .L158+4
 1539 0090 3046     		mov	r0, r6
 1540              	.LBB128:
 1541              	.LBB127:
 1542              		.loc 4 528 33 view .LVU382
 1543 0092 2778     		ldrb	r7, [r4]	@ zero_extendqisi2
 1544              	.LVL119:
 1545              		.loc 4 528 33 view .LVU383
 1546              	.LBE127:
 1547              	.LBE128:
 338:lib/tinyusb/src/class/cdc/cdc_device.c **** 
 1548              		.loc 1 338 5 is_stmt 1 view .LVU384
 1549              	.LBB129:
 1550              	.LBI129:
 516:lib/tinyusb/src/common/tusb_types.h ****   uint8_t const* desc8 = (uint8_t const*) desc;
 1551              		.loc 4 516 53 view .LVU385
 1552              	.LBB130:
 517:lib/tinyusb/src/common/tusb_types.h ****   return desc8 + desc8[DESC_OFFSET_LEN];
 1553              		.loc 4 517 3 view .LVU386
 518:lib/tinyusb/src/common/tusb_types.h **** }
 1554              		.loc 4 518 3 view .LVU387
 518:lib/tinyusb/src/common/tusb_types.h **** }
 1555              		.loc 4 518 3 is_stmt 0 view .LVU388
 1556              	.LBE130:
 1557              	.LBE129:
 341:lib/tinyusb/src/class/cdc/cdc_device.c **** 
 1558              		.loc 1 341 5 is_stmt 1 view .LVU389
ARM GAS  /tmp/claude-502/ccvGLphW.s 			page 51


 341:lib/tinyusb/src/class/cdc/cdc_device.c **** 
 1559              		.loc 1 341 5 view .LVU390
 1560 0094 0193     		str	r3, [sp, #4]
 1561 0096 0133     		adds	r3, r3, #1
 1562 0098 E119     		adds	r1, r4, r7
 1563 009a 0093     		str	r3, [sp]
 1564 009c 0223     		movs	r3, #2
 1565 009e 1A46     		mov	r2, r3
 1566 00a0 FFF7FEFF 		bl	usbd_open_edpt_pair
 1567              	.LVL120:
 1568 00a4 0028     		cmp	r0, #0
 1569 00a6 BAD0     		beq	.L147
 341:lib/tinyusb/src/class/cdc/cdc_device.c **** 
 1570              		.loc 1 341 5 discriminator 2 view .LVU391
 343:lib/tinyusb/src/class/cdc/cdc_device.c ****   }
 1571              		.loc 1 343 5 discriminator 2 view .LVU392
 1572 00a8 05F10E03 		add	r3, r5, #14
 343:lib/tinyusb/src/class/cdc/cdc_device.c ****   }
 1573              		.loc 1 343 13 is_stmt 0 discriminator 2 view .LVU393
 1574 00ac 17FA83F3 		uxtah	r3, r7, r3
 1575 00b0 9DB2     		uxth	r5, r3
 1576              	.LVL121:
 343:lib/tinyusb/src/class/cdc/cdc_device.c ****   }
 1577              		.loc 1 343 13 discriminator 2 view .LVU394
 1578 00b2 D9E7     		b	.L134
 1579              	.L159:
 1580              		.align	2
 1581              	.L158:
 1582 00b4 00000000 		.word	.LANCHOR1
 1583 00b8 02000000 		.word	.LANCHOR1+2
 1584              		.cfi_endproc
 1585              	.LFE428:
 1587              		.section	.text.cdcd_control_xfer_cb,"ax",%progbits
 1588              		.align	1
 1589              		.p2align 2,,3
 1590              		.global	cdcd_control_xfer_cb
 1591              		.syntax unified
 1592              		.thumb
 1593              		.thumb_func
 1595              	cdcd_control_xfer_cb:
 1596              	.LVL122:
 1597              	.LFB429:
 351:lib/tinyusb/src/class/cdc/cdc_device.c **** 
 352:lib/tinyusb/src/class/cdc/cdc_device.c **** // Invoked when a control transfer occurred on an interface of this class
 353:lib/tinyusb/src/class/cdc/cdc_device.c **** // Driver response accordingly to the request and the transfer stage (setup/data/ack)
 354:lib/tinyusb/src/class/cdc/cdc_device.c **** // return false to stall control endpoint (e.g unsupported request)
 355:lib/tinyusb/src/class/cdc/cdc_device.c **** bool cdcd_control_xfer_cb(uint8_t rhport, uint8_t stage, tusb_control_request_t const* request) {
 1598              		.loc 1 355 97 is_stmt 1 view -0
 1599              		.cfi_startproc
 1600              		@ args = 0, pretend = 0, frame = 0
 1601              		@ frame_needed = 0, uses_anonymous_args = 0
 356:lib/tinyusb/src/class/cdc/cdc_device.c ****   // Handle class request only
 357:lib/tinyusb/src/class/cdc/cdc_device.c ****   TU_VERIFY(request->bmRequestType_bit.type == TUSB_REQ_TYPE_CLASS);
 1602              		.loc 1 357 3 view .LVU396
 1603              		.loc 1 357 3 view .LVU397
 1604 0000 1378     		ldrb	r3, [r2]	@ zero_extendqisi2
 1605 0002 03F06003 		and	r3, r3, #96
ARM GAS  /tmp/claude-502/ccvGLphW.s 			page 52


 1606 0006 202B     		cmp	r3, #32
 355:lib/tinyusb/src/class/cdc/cdc_device.c ****   // Handle class request only
 1607              		.loc 1 355 97 is_stmt 0 view .LVU398
 1608 0008 70B5     		push	{r4, r5, r6, lr}
 1609              		.cfi_def_cfa_offset 16
 1610              		.cfi_offset 4, -16
 1611              		.cfi_offset 5, -12
 1612              		.cfi_offset 6, -8
 1613              		.cfi_offset 14, -4
 1614              		.loc 1 357 3 view .LVU399
 1615 000a 0FD1     		bne	.L177
 1616              	.LVL123:
 358:lib/tinyusb/src/class/cdc/cdc_device.c **** 
 359:lib/tinyusb/src/class/cdc/cdc_device.c ****   uint8_t itf = 0;
 360:lib/tinyusb/src/class/cdc/cdc_device.c ****   cdcd_interface_t* p_cdc = _cdcd_itf;
 361:lib/tinyusb/src/class/cdc/cdc_device.c **** 
 362:lib/tinyusb/src/class/cdc/cdc_device.c ****   // Identify which interface to use
 363:lib/tinyusb/src/class/cdc/cdc_device.c ****   for (;; itf++, p_cdc++) {
 1617              		.loc 1 363 3 is_stmt 1 view .LVU400
 364:lib/tinyusb/src/class/cdc/cdc_device.c ****     if (itf >= TU_ARRAY_SIZE(_cdcd_itf)) return false;
 1618              		.loc 1 364 5 view .LVU401
 365:lib/tinyusb/src/class/cdc/cdc_device.c **** 
 366:lib/tinyusb/src/class/cdc/cdc_device.c ****     if (p_cdc->itf_num == request->wIndex) break;
 1619              		.loc 1 366 5 view .LVU402
 1620 000c 9446     		mov	ip, r2
 1621              		.loc 1 366 14 is_stmt 0 view .LVU403
 1622 000e 334C     		ldr	r4, .L194
 1623              		.loc 1 366 8 view .LVU404
 1624 0010 BCF80430 		ldrh	r3, [ip, #4]	@ unaligned
 1625 0014 2278     		ldrb	r2, [r4]	@ zero_extendqisi2
 1626              	.LVL124:
 1627              		.loc 1 366 8 view .LVU405
 1628 0016 9A42     		cmp	r2, r3
 1629 0018 08D1     		bne	.L177
 367:lib/tinyusb/src/class/cdc/cdc_device.c ****   }
 368:lib/tinyusb/src/class/cdc/cdc_device.c **** 
 369:lib/tinyusb/src/class/cdc/cdc_device.c ****   switch (request->bRequest) {
 1630              		.loc 1 369 3 is_stmt 1 view .LVU406
 1631 001a 9CF80130 		ldrb	r3, [ip, #1]	@ zero_extendqisi2
 1632 001e 203B     		subs	r3, r3, #32
 1633 0020 032B     		cmp	r3, #3
 1634 0022 03D8     		bhi	.L177
 1635 0024 DFE803F0 		tbb	[pc, r3]
 1636              	.L163:
 1637 0028 16       		.byte	(.L166-.L163)/2
 1638 0029 28       		.byte	(.L165-.L163)/2
 1639 002a 31       		.byte	(.L164-.L163)/2
 1640 002b 05       		.byte	(.L162-.L163)/2
 1641              	.LVL125:
 1642              		.p2align 1
 1643              	.L177:
 1644              		.loc 1 369 3 is_stmt 0 view .LVU407
 1645 002c 0024     		movs	r4, #0
 1646              	.LVL126:
 1647              	.L161:
 370:lib/tinyusb/src/class/cdc/cdc_device.c ****     case CDC_REQUEST_SET_LINE_CODING:
 371:lib/tinyusb/src/class/cdc/cdc_device.c ****       if (stage == CONTROL_STAGE_SETUP) {
ARM GAS  /tmp/claude-502/ccvGLphW.s 			page 53


 372:lib/tinyusb/src/class/cdc/cdc_device.c ****         TU_LOG_DRV("  Set Line Coding\r\n");
 373:lib/tinyusb/src/class/cdc/cdc_device.c ****         tud_control_xfer(rhport, request, &p_cdc->line_coding, sizeof(cdc_line_coding_t));
 374:lib/tinyusb/src/class/cdc/cdc_device.c ****       } else if (stage == CONTROL_STAGE_ACK) {
 375:lib/tinyusb/src/class/cdc/cdc_device.c ****         if (tud_cdc_line_coding_cb) tud_cdc_line_coding_cb(itf, &p_cdc->line_coding);
 376:lib/tinyusb/src/class/cdc/cdc_device.c ****       }
 377:lib/tinyusb/src/class/cdc/cdc_device.c ****       break;
 378:lib/tinyusb/src/class/cdc/cdc_device.c **** 
 379:lib/tinyusb/src/class/cdc/cdc_device.c ****     case CDC_REQUEST_GET_LINE_CODING:
 380:lib/tinyusb/src/class/cdc/cdc_device.c ****       if (stage == CONTROL_STAGE_SETUP) {
 381:lib/tinyusb/src/class/cdc/cdc_device.c ****         TU_LOG_DRV("  Get Line Coding\r\n");
 382:lib/tinyusb/src/class/cdc/cdc_device.c ****         tud_control_xfer(rhport, request, &p_cdc->line_coding, sizeof(cdc_line_coding_t));
 383:lib/tinyusb/src/class/cdc/cdc_device.c ****       }
 384:lib/tinyusb/src/class/cdc/cdc_device.c ****       break;
 385:lib/tinyusb/src/class/cdc/cdc_device.c **** 
 386:lib/tinyusb/src/class/cdc/cdc_device.c ****     case CDC_REQUEST_SET_CONTROL_LINE_STATE:
 387:lib/tinyusb/src/class/cdc/cdc_device.c ****       if (stage == CONTROL_STAGE_SETUP) {
 388:lib/tinyusb/src/class/cdc/cdc_device.c ****         tud_control_status(rhport, request);
 389:lib/tinyusb/src/class/cdc/cdc_device.c ****       } else if (stage == CONTROL_STAGE_ACK) {
 390:lib/tinyusb/src/class/cdc/cdc_device.c ****         // CDC PSTN v1.2 section 6.3.12
 391:lib/tinyusb/src/class/cdc/cdc_device.c ****         // Bit 0: Indicates if DTE is present or not.
 392:lib/tinyusb/src/class/cdc/cdc_device.c ****         //        This signal corresponds to V.24 signal 108/2 and RS-232 signal DTR (Data Terminal
 393:lib/tinyusb/src/class/cdc/cdc_device.c ****         // Bit 1: Carrier control for half-duplex modems.
 394:lib/tinyusb/src/class/cdc/cdc_device.c ****         //        This signal corresponds to V.24 signal 105 and RS-232 signal RTS (Request to Send
 395:lib/tinyusb/src/class/cdc/cdc_device.c ****         bool const dtr = tu_bit_test(request->wValue, 0);
 396:lib/tinyusb/src/class/cdc/cdc_device.c ****         bool const rts = tu_bit_test(request->wValue, 1);
 397:lib/tinyusb/src/class/cdc/cdc_device.c **** 
 398:lib/tinyusb/src/class/cdc/cdc_device.c ****         p_cdc->line_state = (uint8_t) request->wValue;
 399:lib/tinyusb/src/class/cdc/cdc_device.c **** 
 400:lib/tinyusb/src/class/cdc/cdc_device.c ****         // Disable fifo overwriting if DTR bit is set
 401:lib/tinyusb/src/class/cdc/cdc_device.c ****         tu_fifo_set_overwritable(&p_cdc->tx_ff, !dtr);
 402:lib/tinyusb/src/class/cdc/cdc_device.c **** 
 403:lib/tinyusb/src/class/cdc/cdc_device.c ****         TU_LOG_DRV("  Set Control Line State: DTR = %d, RTS = %d\r\n", dtr, rts);
 404:lib/tinyusb/src/class/cdc/cdc_device.c **** 
 405:lib/tinyusb/src/class/cdc/cdc_device.c ****         // Invoke callback
 406:lib/tinyusb/src/class/cdc/cdc_device.c ****         if (tud_cdc_line_state_cb) tud_cdc_line_state_cb(itf, dtr, rts);
 407:lib/tinyusb/src/class/cdc/cdc_device.c ****       }
 408:lib/tinyusb/src/class/cdc/cdc_device.c ****       break;
 409:lib/tinyusb/src/class/cdc/cdc_device.c **** 
 410:lib/tinyusb/src/class/cdc/cdc_device.c ****     case CDC_REQUEST_SEND_BREAK:
 411:lib/tinyusb/src/class/cdc/cdc_device.c ****       if (stage == CONTROL_STAGE_SETUP) {
 412:lib/tinyusb/src/class/cdc/cdc_device.c ****         tud_control_status(rhport, request);
 413:lib/tinyusb/src/class/cdc/cdc_device.c ****       } else if (stage == CONTROL_STAGE_ACK) {
 414:lib/tinyusb/src/class/cdc/cdc_device.c ****         TU_LOG_DRV("  Send Break\r\n");
 415:lib/tinyusb/src/class/cdc/cdc_device.c ****         if (tud_cdc_send_break_cb) tud_cdc_send_break_cb(itf, request->wValue);
 416:lib/tinyusb/src/class/cdc/cdc_device.c ****       }
 417:lib/tinyusb/src/class/cdc/cdc_device.c ****       break;
 418:lib/tinyusb/src/class/cdc/cdc_device.c **** 
 419:lib/tinyusb/src/class/cdc/cdc_device.c ****     default:
 420:lib/tinyusb/src/class/cdc/cdc_device.c ****       return false; // stall unsupported request
 421:lib/tinyusb/src/class/cdc/cdc_device.c ****   }
 422:lib/tinyusb/src/class/cdc/cdc_device.c **** 
 423:lib/tinyusb/src/class/cdc/cdc_device.c ****   return true;
 424:lib/tinyusb/src/class/cdc/cdc_device.c **** }
 1648              		.loc 1 424 1 view .LVU408
 1649 002e 2046     		mov	r0, r4
 1650 0030 70BD     		pop	{r4, r5, r6, pc}
 1651              	.LVL127:
ARM GAS  /tmp/claude-502/ccvGLphW.s 			page 54


 1652              	.L162:
 411:lib/tinyusb/src/class/cdc/cdc_device.c ****         tud_control_status(rhport, request);
 1653              		.loc 1 411 7 is_stmt 1 view .LVU409
 411:lib/tinyusb/src/class/cdc/cdc_device.c ****         tud_control_status(rhport, request);
 1654              		.loc 1 411 10 is_stmt 0 view .LVU410
 1655 0032 0129     		cmp	r1, #1
 1656 0034 42D0     		beq	.L173
 413:lib/tinyusb/src/class/cdc/cdc_device.c ****         TU_LOG_DRV("  Send Break\r\n");
 1657              		.loc 1 413 14 is_stmt 1 view .LVU411
 414:lib/tinyusb/src/class/cdc/cdc_device.c ****         if (tud_cdc_send_break_cb) tud_cdc_send_break_cb(itf, request->wValue);
 1658              		.loc 1 414 39 view .LVU412
 415:lib/tinyusb/src/class/cdc/cdc_device.c ****       }
 1659              		.loc 1 415 9 view .LVU413
 415:lib/tinyusb/src/class/cdc/cdc_device.c ****       }
 1660              		.loc 1 415 12 is_stmt 0 view .LVU414
 1661 0036 2A4B     		ldr	r3, .L194+4
 1662 0038 4FF00104 		mov	r4, #1
 1663 003c 002B     		cmp	r3, #0
 1664 003e 42D0     		beq	.L191
 1665              	.L174:
 1666 0040 0329     		cmp	r1, #3
 1667 0042 14BF     		ite	ne
 1668 0044 0024     		movne	r4, #0
 1669 0046 04F00104 		andeq	r4, r4, #1
 1670 004a 002C     		cmp	r4, #0
 1671 004c 3FD1     		bne	.L192
 1672              	.LVL128:
 1673              	.L171:
 423:lib/tinyusb/src/class/cdc/cdc_device.c **** }
 1674              		.loc 1 423 10 view .LVU415
 1675 004e 0124     		movs	r4, #1
 1676              	.LVL129:
 1677              		.loc 1 424 1 view .LVU416
 1678 0050 2046     		mov	r0, r4
 1679 0052 70BD     		pop	{r4, r5, r6, pc}
 1680              	.LVL130:
 1681              	.L166:
 371:lib/tinyusb/src/class/cdc/cdc_device.c ****         TU_LOG_DRV("  Set Line Coding\r\n");
 1682              		.loc 1 371 7 is_stmt 1 view .LVU417
 371:lib/tinyusb/src/class/cdc/cdc_device.c ****         TU_LOG_DRV("  Set Line Coding\r\n");
 1683              		.loc 1 371 10 is_stmt 0 view .LVU418
 1684 0054 0129     		cmp	r1, #1
 1685 0056 11D0     		beq	.L170
 374:lib/tinyusb/src/class/cdc/cdc_device.c ****         if (tud_cdc_line_coding_cb) tud_cdc_line_coding_cb(itf, &p_cdc->line_coding);
 1686              		.loc 1 374 14 is_stmt 1 view .LVU419
 375:lib/tinyusb/src/class/cdc/cdc_device.c ****       }
 1687              		.loc 1 375 9 view .LVU420
 375:lib/tinyusb/src/class/cdc/cdc_device.c ****       }
 1688              		.loc 1 375 12 is_stmt 0 view .LVU421
 1689 0058 224B     		ldr	r3, .L194+8
 1690 005a 4FF00104 		mov	r4, #1
 1691 005e A3B3     		cbz	r3, .L193
 1692              	.L168:
 1693 0060 0329     		cmp	r1, #3
 1694 0062 14BF     		ite	ne
 1695 0064 0024     		movne	r4, #0
 1696 0066 04F00104 		andeq	r4, r4, #1
ARM GAS  /tmp/claude-502/ccvGLphW.s 			page 55


 1697 006a 002C     		cmp	r4, #0
 1698 006c EFD0     		beq	.L171
 375:lib/tinyusb/src/class/cdc/cdc_device.c ****       }
 1699              		.loc 1 375 37 is_stmt 1 discriminator 1 view .LVU422
 1700 006e 1E49     		ldr	r1, .L194+12
 1701              	.LVL131:
 375:lib/tinyusb/src/class/cdc/cdc_device.c ****       }
 1702              		.loc 1 375 37 is_stmt 0 discriminator 1 view .LVU423
 1703 0070 0020     		movs	r0, #0
 1704              	.LVL132:
 375:lib/tinyusb/src/class/cdc/cdc_device.c ****       }
 1705              		.loc 1 375 37 discriminator 1 view .LVU424
 1706 0072 FFF7FEFF 		bl	tud_cdc_line_coding_cb
 1707              	.LVL133:
 375:lib/tinyusb/src/class/cdc/cdc_device.c ****       }
 1708              		.loc 1 375 37 discriminator 1 view .LVU425
 1709 0076 DAE7     		b	.L161
 1710              	.LVL134:
 1711              	.L165:
 380:lib/tinyusb/src/class/cdc/cdc_device.c ****         TU_LOG_DRV("  Get Line Coding\r\n");
 1712              		.loc 1 380 7 is_stmt 1 view .LVU426
 380:lib/tinyusb/src/class/cdc/cdc_device.c ****         TU_LOG_DRV("  Get Line Coding\r\n");
 1713              		.loc 1 380 10 is_stmt 0 view .LVU427
 1714 0078 0129     		cmp	r1, #1
 1715 007a E8D1     		bne	.L171
 1716              	.L170:
 372:lib/tinyusb/src/class/cdc/cdc_device.c ****         tud_control_xfer(rhport, request, &p_cdc->line_coding, sizeof(cdc_line_coding_t));
 1717              		.loc 1 372 44 is_stmt 1 view .LVU428
 373:lib/tinyusb/src/class/cdc/cdc_device.c ****       } else if (stage == CONTROL_STAGE_ACK) {
 1718              		.loc 1 373 9 view .LVU429
 1719 007c 0723     		movs	r3, #7
 1720 007e 1A4A     		ldr	r2, .L194+12
 1721 0080 6146     		mov	r1, ip
 1722              	.LVL135:
 423:lib/tinyusb/src/class/cdc/cdc_device.c **** }
 1723              		.loc 1 423 10 is_stmt 0 view .LVU430
 1724 0082 0124     		movs	r4, #1
 373:lib/tinyusb/src/class/cdc/cdc_device.c ****       } else if (stage == CONTROL_STAGE_ACK) {
 1725              		.loc 1 373 9 view .LVU431
 1726 0084 FFF7FEFF 		bl	tud_control_xfer
 1727              	.LVL136:
 373:lib/tinyusb/src/class/cdc/cdc_device.c ****       } else if (stage == CONTROL_STAGE_ACK) {
 1728              		.loc 1 373 9 view .LVU432
 1729 0088 D1E7     		b	.L161
 1730              	.LVL137:
 1731              	.L164:
 387:lib/tinyusb/src/class/cdc/cdc_device.c ****         tud_control_status(rhport, request);
 1732              		.loc 1 387 7 is_stmt 1 view .LVU433
 387:lib/tinyusb/src/class/cdc/cdc_device.c ****         tud_control_status(rhport, request);
 1733              		.loc 1 387 10 is_stmt 0 view .LVU434
 1734 008a 0129     		cmp	r1, #1
 1735 008c 16D0     		beq	.L173
 389:lib/tinyusb/src/class/cdc/cdc_device.c ****         // CDC PSTN v1.2 section 6.3.12
 1736              		.loc 1 389 14 is_stmt 1 view .LVU435
 389:lib/tinyusb/src/class/cdc/cdc_device.c ****         // CDC PSTN v1.2 section 6.3.12
 1737              		.loc 1 389 17 is_stmt 0 view .LVU436
 1738 008e 0329     		cmp	r1, #3
ARM GAS  /tmp/claude-502/ccvGLphW.s 			page 56


 1739 0090 DDD1     		bne	.L171
 1740              	.LBB131:
 395:lib/tinyusb/src/class/cdc/cdc_device.c ****         bool const rts = tu_bit_test(request->wValue, 1);
 1741              		.loc 1 395 9 is_stmt 1 view .LVU437
 395:lib/tinyusb/src/class/cdc/cdc_device.c ****         bool const rts = tu_bit_test(request->wValue, 1);
 1742              		.loc 1 395 45 is_stmt 0 view .LVU438
 1743 0092 BCF80250 		ldrh	r5, [ip, #2]	@ unaligned
 1744              	.LVL138:
 1745              	.LBB132:
 1746              	.LBI132:
 1747              		.loc 3 147 46 is_stmt 1 view .LVU439
 1748              	.LBB133:
 1749              		.loc 3 147 90 view .LVU440
 1750              	.LBE133:
 1751              	.LBE132:
 401:lib/tinyusb/src/class/cdc/cdc_device.c **** 
 1752              		.loc 1 401 9 is_stmt 0 view .LVU441
 1753 0096 1548     		ldr	r0, .L194+16
 1754              	.LVL139:
 1755              	.LBB135:
 1756              	.LBB134:
 1757              		.loc 3 147 126 view .LVU442
 1758 0098 05F00106 		and	r6, r5, #1
 1759              	.LVL140:
 1760              		.loc 3 147 126 view .LVU443
 1761              	.LBE134:
 1762              	.LBE135:
 396:lib/tinyusb/src/class/cdc/cdc_device.c **** 
 1763              		.loc 1 396 9 is_stmt 1 view .LVU444
 1764              	.LBB136:
 1765              	.LBI136:
 1766              		.loc 3 147 46 view .LVU445
 1767              	.LBB137:
 1768              		.loc 3 147 90 view .LVU446
 1769              		.loc 3 147 90 is_stmt 0 view .LVU447
 1770              	.LBE137:
 1771              	.LBE136:
 398:lib/tinyusb/src/class/cdc/cdc_device.c **** 
 1772              		.loc 1 398 9 is_stmt 1 view .LVU448
 398:lib/tinyusb/src/class/cdc/cdc_device.c **** 
 1773              		.loc 1 398 29 is_stmt 0 view .LVU449
 1774 009c 2571     		strb	r5, [r4, #4]
 1775              	.LVL141:
 401:lib/tinyusb/src/class/cdc/cdc_device.c **** 
 1776              		.loc 1 401 9 is_stmt 1 view .LVU450
 1777 009e 86F00101 		eor	r1, r6, #1
 1778              	.LVL142:
 401:lib/tinyusb/src/class/cdc/cdc_device.c **** 
 1779              		.loc 1 401 9 is_stmt 0 view .LVU451
 1780 00a2 FFF7FEFF 		bl	tu_fifo_set_overwritable
 1781              	.LVL143:
 403:lib/tinyusb/src/class/cdc/cdc_device.c **** 
 1782              		.loc 1 403 81 is_stmt 1 view .LVU452
 406:lib/tinyusb/src/class/cdc/cdc_device.c ****       }
 1783              		.loc 1 406 9 view .LVU453
 406:lib/tinyusb/src/class/cdc/cdc_device.c ****       }
 1784              		.loc 1 406 12 is_stmt 0 view .LVU454
ARM GAS  /tmp/claude-502/ccvGLphW.s 			page 57


 1785 00a6 124B     		ldr	r3, .L194+20
 1786 00a8 002B     		cmp	r3, #0
 1787 00aa D0D0     		beq	.L171
 406:lib/tinyusb/src/class/cdc/cdc_device.c ****       }
 1788              		.loc 1 406 36 is_stmt 1 discriminator 1 view .LVU455
 1789 00ac C5F34002 		ubfx	r2, r5, #1, #1
 1790 00b0 3146     		mov	r1, r6
 1791 00b2 0020     		movs	r0, #0
 1792              	.LBE131:
 423:lib/tinyusb/src/class/cdc/cdc_device.c **** }
 1793              		.loc 1 423 10 is_stmt 0 discriminator 1 view .LVU456
 1794 00b4 0124     		movs	r4, #1
 1795              	.LBB138:
 406:lib/tinyusb/src/class/cdc/cdc_device.c ****       }
 1796              		.loc 1 406 36 discriminator 1 view .LVU457
 1797 00b6 FFF7FEFF 		bl	tud_cdc_line_state_cb
 1798              	.LVL144:
 1799 00ba B8E7     		b	.L161
 1800              	.LVL145:
 1801              	.L173:
 406:lib/tinyusb/src/class/cdc/cdc_device.c ****       }
 1802              		.loc 1 406 36 discriminator 1 view .LVU458
 1803              	.LBE138:
 388:lib/tinyusb/src/class/cdc/cdc_device.c ****       } else if (stage == CONTROL_STAGE_ACK) {
 1804              		.loc 1 388 9 is_stmt 1 view .LVU459
 1805 00bc 6146     		mov	r1, ip
 1806              	.LVL146:
 423:lib/tinyusb/src/class/cdc/cdc_device.c **** }
 1807              		.loc 1 423 10 is_stmt 0 view .LVU460
 1808 00be 0124     		movs	r4, #1
 388:lib/tinyusb/src/class/cdc/cdc_device.c ****       } else if (stage == CONTROL_STAGE_ACK) {
 1809              		.loc 1 388 9 view .LVU461
 1810 00c0 FFF7FEFF 		bl	tud_control_status
 1811              	.LVL147:
 388:lib/tinyusb/src/class/cdc/cdc_device.c ****       } else if (stage == CONTROL_STAGE_ACK) {
 1812              		.loc 1 388 9 view .LVU462
 1813 00c4 B3E7     		b	.L161
 1814              	.LVL148:
 1815              	.L191:
 415:lib/tinyusb/src/class/cdc/cdc_device.c ****       }
 1816              		.loc 1 415 12 view .LVU463
 1817 00c6 1C46     		mov	r4, r3
 1818 00c8 BAE7     		b	.L174
 1819              	.L193:
 375:lib/tinyusb/src/class/cdc/cdc_device.c ****       }
 1820              		.loc 1 375 12 view .LVU464
 1821 00ca 1C46     		mov	r4, r3
 1822 00cc C8E7     		b	.L168
 1823              	.L192:
 415:lib/tinyusb/src/class/cdc/cdc_device.c ****       }
 1824              		.loc 1 415 36 is_stmt 1 discriminator 1 view .LVU465
 1825 00ce BCF80210 		ldrh	r1, [ip, #2]	@ unaligned
 1826              	.LVL149:
 415:lib/tinyusb/src/class/cdc/cdc_device.c ****       }
 1827              		.loc 1 415 36 is_stmt 0 discriminator 1 view .LVU466
 1828 00d2 0020     		movs	r0, #0
 1829              	.LVL150:
ARM GAS  /tmp/claude-502/ccvGLphW.s 			page 58


 415:lib/tinyusb/src/class/cdc/cdc_device.c ****       }
 1830              		.loc 1 415 36 discriminator 1 view .LVU467
 1831 00d4 FFF7FEFF 		bl	tud_cdc_send_break_cb
 1832              	.LVL151:
 415:lib/tinyusb/src/class/cdc/cdc_device.c ****       }
 1833              		.loc 1 415 36 discriminator 1 view .LVU468
 1834 00d8 A9E7     		b	.L161
 1835              	.L195:
 1836 00da 00BF     		.align	2
 1837              	.L194:
 1838 00dc 00000000 		.word	.LANCHOR1
 1839 00e0 00000000 		.word	tud_cdc_send_break_cb
 1840 00e4 00000000 		.word	tud_cdc_line_coding_cb
 1841 00e8 08000000 		.word	.LANCHOR1+8
 1842 00ec 1C000000 		.word	.LANCHOR1+28
 1843 00f0 00000000 		.word	tud_cdc_line_state_cb
 1844              		.cfi_endproc
 1845              	.LFE429:
 1847              		.section	.text.cdcd_xfer_cb,"ax",%progbits
 1848              		.align	1
 1849              		.p2align 2,,3
 1850              		.global	cdcd_xfer_cb
 1851              		.syntax unified
 1852              		.thumb
 1853              		.thumb_func
 1855              	cdcd_xfer_cb:
 1856              	.LVL152:
 1857              	.LFB430:
 425:lib/tinyusb/src/class/cdc/cdc_device.c **** 
 426:lib/tinyusb/src/class/cdc/cdc_device.c **** bool cdcd_xfer_cb(uint8_t rhport, uint8_t ep_addr, xfer_result_t result, uint32_t xferred_bytes) {
 1858              		.loc 1 426 98 is_stmt 1 view -0
 1859              		.cfi_startproc
 1860              		@ args = 0, pretend = 0, frame = 0
 1861              		@ frame_needed = 0, uses_anonymous_args = 0
 427:lib/tinyusb/src/class/cdc/cdc_device.c ****   (void) result;
 1862              		.loc 1 427 3 view .LVU470
 428:lib/tinyusb/src/class/cdc/cdc_device.c **** 
 429:lib/tinyusb/src/class/cdc/cdc_device.c ****   uint8_t itf;
 1863              		.loc 1 429 3 view .LVU471
 430:lib/tinyusb/src/class/cdc/cdc_device.c ****   cdcd_interface_t* p_cdc;
 1864              		.loc 1 430 3 view .LVU472
 431:lib/tinyusb/src/class/cdc/cdc_device.c **** 
 432:lib/tinyusb/src/class/cdc/cdc_device.c ****   // Identify which interface to use
 433:lib/tinyusb/src/class/cdc/cdc_device.c ****   for (itf = 0; itf < CFG_TUD_CDC; itf++) {
 1865              		.loc 1 433 3 view .LVU473
 1866              		.loc 1 433 17 view .LVU474
 434:lib/tinyusb/src/class/cdc/cdc_device.c ****     p_cdc = &_cdcd_itf[itf];
 1867              		.loc 1 434 5 view .LVU475
 435:lib/tinyusb/src/class/cdc/cdc_device.c ****     if ((ep_addr == p_cdc->ep_out) || (ep_addr == p_cdc->ep_in)) break;
 1868              		.loc 1 435 5 view .LVU476
 426:lib/tinyusb/src/class/cdc/cdc_device.c ****   (void) result;
 1869              		.loc 1 426 98 is_stmt 0 view .LVU477
 1870 0000 2DE9F047 		push	{r4, r5, r6, r7, r8, r9, r10, lr}
 1871              		.cfi_def_cfa_offset 32
 1872              		.cfi_offset 4, -32
 1873              		.cfi_offset 5, -28
 1874              		.cfi_offset 6, -24
ARM GAS  /tmp/claude-502/ccvGLphW.s 			page 59


 1875              		.cfi_offset 7, -20
 1876              		.cfi_offset 8, -16
 1877              		.cfi_offset 9, -12
 1878              		.cfi_offset 10, -8
 1879              		.cfi_offset 14, -4
 1880              		.loc 1 435 26 view .LVU478
 1881 0004 374D     		ldr	r5, .L236
 426:lib/tinyusb/src/class/cdc/cdc_device.c ****   (void) result;
 1882              		.loc 1 426 98 view .LVU479
 1883 0006 0C46     		mov	r4, r1
 1884 0008 0746     		mov	r7, r0
 1885 000a 1E46     		mov	r6, r3
 1886              		.loc 1 435 8 view .LVU480
 1887 000c EA78     		ldrb	r2, [r5, #3]	@ zero_extendqisi2
 1888              	.LVL153:
 1889              		.loc 1 435 8 view .LVU481
 1890 000e 8A42     		cmp	r2, r1
 1891 0010 56D1     		bne	.L234
 436:lib/tinyusb/src/class/cdc/cdc_device.c ****   }
 437:lib/tinyusb/src/class/cdc/cdc_device.c ****   TU_ASSERT(itf < CFG_TUD_CDC);
 1892              		.loc 1 437 3 is_stmt 1 view .LVU482
 1893              		.loc 1 437 3 view .LVU483
 1894              		.loc 1 437 3 view .LVU484
 438:lib/tinyusb/src/class/cdc/cdc_device.c **** 
 439:lib/tinyusb/src/class/cdc/cdc_device.c ****   // Received new data
 440:lib/tinyusb/src/class/cdc/cdc_device.c ****   if (ep_addr == p_cdc->ep_out) {
 1895              		.loc 1 440 3 view .LVU485
 441:lib/tinyusb/src/class/cdc/cdc_device.c ****     tu_fifo_write_n(&p_cdc->rx_ff, p_cdc->epout_buf, (uint16_t) xferred_bytes);
 1896              		.loc 1 441 5 view .LVU486
 1897 0012 9AB2     		uxth	r2, r3
 1898 0014 05F50A71 		add	r1, r5, #552
 1899              	.LVL154:
 1900              		.loc 1 441 5 is_stmt 0 view .LVU487
 1901 0018 05F11000 		add	r0, r5, #16
 1902              	.LVL155:
 1903              		.loc 1 441 5 view .LVU488
 1904 001c FFF7FEFF 		bl	tu_fifo_write_n
 1905              	.LVL156:
 442:lib/tinyusb/src/class/cdc/cdc_device.c **** 
 443:lib/tinyusb/src/class/cdc/cdc_device.c ****     // Check for wanted char and invoke callback if needed
 444:lib/tinyusb/src/class/cdc/cdc_device.c ****     if (tud_cdc_rx_wanted_cb && (((signed char) p_cdc->wanted_char) != -1)) {
 1906              		.loc 1 444 5 is_stmt 1 view .LVU489
 1907              		.loc 1 444 8 is_stmt 0 view .LVU490
 1908 0020 314B     		ldr	r3, .L236+4
 1909 0022 D3B1     		cbz	r3, .L201
 1910              		.loc 1 444 54 discriminator 1 view .LVU491
 1911 0024 6B79     		ldrb	r3, [r5, #5]	@ zero_extendqisi2
 1912              		.loc 1 444 30 discriminator 1 view .LVU492
 1913 0026 FF2B     		cmp	r3, #255
 1914 0028 17D0     		beq	.L201
 1915              	.LVL157:
 1916              	.LBB139:
 445:lib/tinyusb/src/class/cdc/cdc_device.c ****       for (uint32_t i = 0; i < xferred_bytes; i++) {
 1917              		.loc 1 445 28 is_stmt 1 view .LVU493
 1918              		.loc 1 445 7 is_stmt 0 view .LVU494
 1919 002a B6B1     		cbz	r6, .L201
 1920 002c 05F22728 		addw	r8, r5, #551
ARM GAS  /tmp/claude-502/ccvGLphW.s 			page 60


 1921 0030 08EB060A 		add	r10, r8, r6
 446:lib/tinyusb/src/class/cdc/cdc_device.c ****         if ((p_cdc->wanted_char == p_cdc->epout_buf[i]) && !tu_fifo_empty(&p_cdc->rx_ff)) {
 1922              		.loc 1 446 61 view .LVU495
 1923 0034 A8F21729 		subw	r9, r8, #535
 1924 0038 02E0     		b	.L205
 1925              	.LVL158:
 1926              	.L203:
 445:lib/tinyusb/src/class/cdc/cdc_device.c ****       for (uint32_t i = 0; i < xferred_bytes; i++) {
 1927              		.loc 1 445 47 is_stmt 1 discriminator 2 view .LVU496
 445:lib/tinyusb/src/class/cdc/cdc_device.c ****       for (uint32_t i = 0; i < xferred_bytes; i++) {
 1928              		.loc 1 445 28 discriminator 2 view .LVU497
 445:lib/tinyusb/src/class/cdc/cdc_device.c ****       for (uint32_t i = 0; i < xferred_bytes; i++) {
 1929              		.loc 1 445 7 is_stmt 0 discriminator 2 view .LVU498
 1930 003a D045     		cmp	r8, r10
 1931 003c 0DD0     		beq	.L201
 1932              		.loc 1 446 19 view .LVU499
 1933 003e 6B79     		ldrb	r3, [r5, #5]	@ zero_extendqisi2
 1934              	.LVL159:
 1935              	.L205:
 1936              		.loc 1 446 9 is_stmt 1 view .LVU500
 1937              		.loc 1 446 12 is_stmt 0 view .LVU501
 1938 0040 18F8012F 		ldrb	r2, [r8, #1]!	@ zero_extendqisi2
 1939              	.LVL160:
 1940              		.loc 1 446 12 view .LVU502
 1941 0044 9A42     		cmp	r2, r3
 1942 0046 F8D1     		bne	.L203
 1943              		.loc 1 446 61 discriminator 1 view .LVU503
 1944 0048 4846     		mov	r0, r9
 1945 004a FFF7FEFF 		bl	tu_fifo_empty
 1946              	.LVL161:
 1947              		.loc 1 446 57 discriminator 1 view .LVU504
 1948 004e 0028     		cmp	r0, #0
 1949 0050 F3D1     		bne	.L203
 447:lib/tinyusb/src/class/cdc/cdc_device.c ****           tud_cdc_rx_wanted_cb(itf, p_cdc->wanted_char);
 1950              		.loc 1 447 11 is_stmt 1 view .LVU505
 1951 0052 6979     		ldrb	r1, [r5, #5]	@ zero_extendqisi2
 1952 0054 FFF7FEFF 		bl	tud_cdc_rx_wanted_cb
 1953              	.LVL162:
 1954 0058 EFE7     		b	.L203
 1955              	.LVL163:
 1956              	.L201:
 1957              		.loc 1 447 11 is_stmt 0 view .LVU506
 1958              	.LBE139:
 448:lib/tinyusb/src/class/cdc/cdc_device.c ****         }
 449:lib/tinyusb/src/class/cdc/cdc_device.c ****       }
 450:lib/tinyusb/src/class/cdc/cdc_device.c ****     }
 451:lib/tinyusb/src/class/cdc/cdc_device.c **** 
 452:lib/tinyusb/src/class/cdc/cdc_device.c ****     // invoke receive callback (if there is still data)
 453:lib/tinyusb/src/class/cdc/cdc_device.c ****     if (tud_cdc_rx_cb && !tu_fifo_empty(&p_cdc->rx_ff)) tud_cdc_rx_cb(itf);
 1959              		.loc 1 453 5 is_stmt 1 view .LVU507
 1960              		.loc 1 453 8 is_stmt 0 view .LVU508
 1961 005a 244B     		ldr	r3, .L236+8
 1962 005c 23B1     		cbz	r3, .L207
 1963              		.loc 1 453 27 discriminator 1 view .LVU509
 1964 005e 2448     		ldr	r0, .L236+12
 1965 0060 FFF7FEFF 		bl	tu_fifo_empty
 1966              	.LVL164:
ARM GAS  /tmp/claude-502/ccvGLphW.s 			page 61


 1967              		.loc 1 453 23 discriminator 1 view .LVU510
 1968 0064 0028     		cmp	r0, #0
 1969 0066 3AD0     		beq	.L235
 1970              	.L207:
 454:lib/tinyusb/src/class/cdc/cdc_device.c **** 
 455:lib/tinyusb/src/class/cdc/cdc_device.c ****     // prepare for OUT transaction
 456:lib/tinyusb/src/class/cdc/cdc_device.c ****     _prep_out_transaction(p_cdc);
 1971              		.loc 1 456 5 is_stmt 1 view .LVU511
 1972 0068 1E48     		ldr	r0, .L236
 1973 006a FFF7FEFF 		bl	_prep_out_transaction.isra.0
 1974              	.LVL165:
 457:lib/tinyusb/src/class/cdc/cdc_device.c ****   }
 458:lib/tinyusb/src/class/cdc/cdc_device.c **** 
 459:lib/tinyusb/src/class/cdc/cdc_device.c ****   // Data sent to host, we continue to fetch from tx fifo to send.
 460:lib/tinyusb/src/class/cdc/cdc_device.c ****   // Note: This will cause incorrect baudrate set in line coding.
 461:lib/tinyusb/src/class/cdc/cdc_device.c ****   //       Though maybe the baudrate is not really important !!!
 462:lib/tinyusb/src/class/cdc/cdc_device.c ****   if (ep_addr == p_cdc->ep_in) {
 1975              		.loc 1 462 3 view .LVU512
 1976              		.loc 1 462 6 is_stmt 0 view .LVU513
 1977 006e AB78     		ldrb	r3, [r5, #2]	@ zero_extendqisi2
 1978 0070 A342     		cmp	r3, r4
 1979 0072 03D0     		beq	.L198
 1980              	.LVL166:
 1981              	.L210:
 463:lib/tinyusb/src/class/cdc/cdc_device.c ****     // invoke transmit callback to possibly refill tx fifo
 464:lib/tinyusb/src/class/cdc/cdc_device.c ****     if (tud_cdc_tx_complete_cb) tud_cdc_tx_complete_cb(itf);
 465:lib/tinyusb/src/class/cdc/cdc_device.c **** 
 466:lib/tinyusb/src/class/cdc/cdc_device.c ****     if (0 == tud_cdc_n_write_flush(itf)) {
 467:lib/tinyusb/src/class/cdc/cdc_device.c ****       // If there is no data left, a ZLP should be sent if
 468:lib/tinyusb/src/class/cdc/cdc_device.c ****       // xferred_bytes is multiple of EP Packet size and not zero
 469:lib/tinyusb/src/class/cdc/cdc_device.c ****       if (!tu_fifo_count(&p_cdc->tx_ff) && xferred_bytes && (0 == (xferred_bytes & (BULK_PACKET_SIZ
 470:lib/tinyusb/src/class/cdc/cdc_device.c ****         if (usbd_edpt_claim(rhport, p_cdc->ep_in)) {
 471:lib/tinyusb/src/class/cdc/cdc_device.c ****           usbd_edpt_xfer(rhport, p_cdc->ep_in, NULL, 0);
 472:lib/tinyusb/src/class/cdc/cdc_device.c ****         }
 473:lib/tinyusb/src/class/cdc/cdc_device.c ****       }
 474:lib/tinyusb/src/class/cdc/cdc_device.c ****     }
 475:lib/tinyusb/src/class/cdc/cdc_device.c ****   }
 476:lib/tinyusb/src/class/cdc/cdc_device.c **** 
 477:lib/tinyusb/src/class/cdc/cdc_device.c ****   // nothing to do with notif endpoint for now
 478:lib/tinyusb/src/class/cdc/cdc_device.c **** 
 479:lib/tinyusb/src/class/cdc/cdc_device.c ****   return true;
 1982              		.loc 1 479 10 view .LVU514
 1983 0074 0124     		movs	r4, #1
 1984              	.LVL167:
 1985              	.L232:
 480:lib/tinyusb/src/class/cdc/cdc_device.c **** }
 1986              		.loc 1 480 1 view .LVU515
 1987 0076 2046     		mov	r0, r4
 1988 0078 BDE8F087 		pop	{r4, r5, r6, r7, r8, r9, r10, pc}
 1989              	.LVL168:
 1990              	.L198:
 464:lib/tinyusb/src/class/cdc/cdc_device.c **** 
 1991              		.loc 1 464 5 is_stmt 1 view .LVU516
 464:lib/tinyusb/src/class/cdc/cdc_device.c **** 
 1992              		.loc 1 464 8 is_stmt 0 view .LVU517
 1993 007c 1D4B     		ldr	r3, .L236+16
 1994 007e 13B1     		cbz	r3, .L209
ARM GAS  /tmp/claude-502/ccvGLphW.s 			page 62


 464:lib/tinyusb/src/class/cdc/cdc_device.c **** 
 1995              		.loc 1 464 33 is_stmt 1 discriminator 1 view .LVU518
 1996 0080 0020     		movs	r0, #0
 1997 0082 FFF7FEFF 		bl	tud_cdc_tx_complete_cb
 1998              	.LVL169:
 1999              	.L209:
 466:lib/tinyusb/src/class/cdc/cdc_device.c ****       // If there is no data left, a ZLP should be sent if
 2000              		.loc 1 466 5 view .LVU519
 466:lib/tinyusb/src/class/cdc/cdc_device.c ****       // If there is no data left, a ZLP should be sent if
 2001              		.loc 1 466 14 is_stmt 0 view .LVU520
 2002 0086 0020     		movs	r0, #0
 2003 0088 FFF7FEFF 		bl	tud_cdc_n_write_flush
 2004              	.LVL170:
 466:lib/tinyusb/src/class/cdc/cdc_device.c ****       // If there is no data left, a ZLP should be sent if
 2005              		.loc 1 466 8 view .LVU521
 2006 008c 0028     		cmp	r0, #0
 2007 008e F1D1     		bne	.L210
 469:lib/tinyusb/src/class/cdc/cdc_device.c ****         if (usbd_edpt_claim(rhport, p_cdc->ep_in)) {
 2008              		.loc 1 469 7 is_stmt 1 view .LVU522
 469:lib/tinyusb/src/class/cdc/cdc_device.c ****         if (usbd_edpt_claim(rhport, p_cdc->ep_in)) {
 2009              		.loc 1 469 12 is_stmt 0 view .LVU523
 2010 0090 1948     		ldr	r0, .L236+20
 2011 0092 FFF7FEFF 		bl	tu_fifo_count
 2012              	.LVL171:
 469:lib/tinyusb/src/class/cdc/cdc_device.c ****         if (usbd_edpt_claim(rhport, p_cdc->ep_in)) {
 2013              		.loc 1 469 41 view .LVU524
 2014 0096 002E     		cmp	r6, #0
 2015 0098 ECD0     		beq	.L210
 2016 009a 0028     		cmp	r0, #0
 2017 009c EAD1     		bne	.L210
 469:lib/tinyusb/src/class/cdc/cdc_device.c ****         if (usbd_edpt_claim(rhport, p_cdc->ep_in)) {
 2018              		.loc 1 469 58 discriminator 2 view .LVU525
 2019 009e 16F03F06 		ands	r6, r6, #63
 2020              	.LVL172:
 469:lib/tinyusb/src/class/cdc/cdc_device.c ****         if (usbd_edpt_claim(rhport, p_cdc->ep_in)) {
 2021              		.loc 1 469 58 discriminator 2 view .LVU526
 2022 00a2 E7D1     		bne	.L210
 470:lib/tinyusb/src/class/cdc/cdc_device.c ****           usbd_edpt_xfer(rhport, p_cdc->ep_in, NULL, 0);
 2023              		.loc 1 470 9 is_stmt 1 view .LVU527
 470:lib/tinyusb/src/class/cdc/cdc_device.c ****           usbd_edpt_xfer(rhport, p_cdc->ep_in, NULL, 0);
 2024              		.loc 1 470 13 is_stmt 0 view .LVU528
 2025 00a4 A978     		ldrb	r1, [r5, #2]	@ zero_extendqisi2
 2026 00a6 3846     		mov	r0, r7
 2027 00a8 FFF7FEFF 		bl	usbd_edpt_claim
 2028              	.LVL173:
 470:lib/tinyusb/src/class/cdc/cdc_device.c ****           usbd_edpt_xfer(rhport, p_cdc->ep_in, NULL, 0);
 2029              		.loc 1 470 12 view .LVU529
 2030 00ac 0446     		mov	r4, r0
 2031 00ae 0028     		cmp	r0, #0
 2032 00b0 E0D0     		beq	.L210
 471:lib/tinyusb/src/class/cdc/cdc_device.c ****         }
 2033              		.loc 1 471 11 is_stmt 1 view .LVU530
 2034 00b2 3346     		mov	r3, r6
 2035 00b4 3246     		mov	r2, r6
 2036 00b6 A978     		ldrb	r1, [r5, #2]	@ zero_extendqisi2
 2037 00b8 3846     		mov	r0, r7
 2038 00ba FFF7FEFF 		bl	usbd_edpt_xfer
ARM GAS  /tmp/claude-502/ccvGLphW.s 			page 63


 2039              	.LVL174:
 2040 00be DAE7     		b	.L232
 2041              	.LVL175:
 2042              	.L234:
 435:lib/tinyusb/src/class/cdc/cdc_device.c ****   }
 2043              		.loc 1 435 36 is_stmt 0 discriminator 1 view .LVU531
 2044 00c0 AB78     		ldrb	r3, [r5, #2]	@ zero_extendqisi2
 2045              	.LVL176:
 435:lib/tinyusb/src/class/cdc/cdc_device.c ****   }
 2046              		.loc 1 435 36 discriminator 1 view .LVU532
 2047 00c2 8B42     		cmp	r3, r1
 2048 00c4 DAD0     		beq	.L198
 2049              	.LVL177:
 433:lib/tinyusb/src/class/cdc/cdc_device.c ****     p_cdc = &_cdcd_itf[itf];
 2050              		.loc 1 433 17 is_stmt 1 view .LVU533
 437:lib/tinyusb/src/class/cdc/cdc_device.c **** 
 2051              		.loc 1 437 3 view .LVU534
 437:lib/tinyusb/src/class/cdc/cdc_device.c **** 
 2052              		.loc 1 437 3 view .LVU535
 437:lib/tinyusb/src/class/cdc/cdc_device.c **** 
 2053              		.loc 1 437 3 view .LVU536
 437:lib/tinyusb/src/class/cdc/cdc_device.c **** 
 2054              		.loc 1 437 3 view .LVU537
 437:lib/tinyusb/src/class/cdc/cdc_device.c **** 
 2055              		.loc 1 437 3 view .LVU538
 437:lib/tinyusb/src/class/cdc/cdc_device.c **** 
 2056              		.loc 1 437 3 view .LVU539
 2057              	.LBB140:
 437:lib/tinyusb/src/class/cdc/cdc_device.c **** 
 2058              		.loc 1 437 3 view .LVU540
 437:lib/tinyusb/src/class/cdc/cdc_device.c **** 
 2059              		.loc 1 437 3 view .LVU541
 2060 00c6 4FF0E023 		mov	r3, #-536813568
 2061 00ca D3F8F04D 		ldr	r4, [r3, #3568]
 2062 00ce 14F00104 		ands	r4, r4, #1
 2063 00d2 D0D0     		beq	.L232
 437:lib/tinyusb/src/class/cdc/cdc_device.c **** 
 2064              		.loc 1 437 3 discriminator 3 view .LVU542
 2065              		.syntax unified
 2066              	@ 437 "lib/tinyusb/src/class/cdc/cdc_device.c" 1
 2067 00d4 00BE     		BKPT #0
 2068              	
 2069              	@ 0 "" 2
 2070              		.thumb
 2071              		.syntax unified
 2072              	.LBE140:
 2073 00d6 0024     		movs	r4, #0
 2074              		.loc 1 480 1 is_stmt 0 discriminator 3 view .LVU543
 2075 00d8 2046     		mov	r0, r4
 2076              	.LVL178:
 2077              		.loc 1 480 1 discriminator 3 view .LVU544
 2078 00da BDE8F087 		pop	{r4, r5, r6, r7, r8, r9, r10, pc}
 2079              	.LVL179:
 2080              	.L235:
 453:lib/tinyusb/src/class/cdc/cdc_device.c **** 
 2081              		.loc 1 453 57 is_stmt 1 discriminator 2 view .LVU545
 2082 00de FFF7FEFF 		bl	tud_cdc_rx_cb
ARM GAS  /tmp/claude-502/ccvGLphW.s 			page 64


 2083              	.LVL180:
 2084 00e2 C1E7     		b	.L207
 2085              	.L237:
 2086              		.align	2
 2087              	.L236:
 2088 00e4 00000000 		.word	.LANCHOR1
 2089 00e8 00000000 		.word	tud_cdc_rx_wanted_cb
 2090 00ec 00000000 		.word	tud_cdc_rx_cb
 2091 00f0 10000000 		.word	.LANCHOR1+16
 2092 00f4 00000000 		.word	tud_cdc_tx_complete_cb
 2093 00f8 1C000000 		.word	.LANCHOR1+28
 2094              		.cfi_endproc
 2095              	.LFE430:
 2097              		.section	.bss._cdcd_fifo_cfg,"aw",%nobits
 2098              		.align	2
 2099              		.set	.LANCHOR0,. + 0
 2102              	_cdcd_fifo_cfg:
 2103 0000 00       		.space	1
 2104              		.section	.bss._cdcd_itf,"aw",%nobits
 2105              		.align	2
 2106              		.set	.LANCHOR1,. + 0
 2109              	_cdcd_itf:
 2110 0000 00000000 		.space	680
 2110      00000000 
 2110      00000000 
 2110      00000000 
 2110      00000000 
 2111              		.weak	tud_cdc_rx_cb
 2112              		.weak	tud_cdc_tx_complete_cb
 2113              		.weak	tud_cdc_rx_wanted_cb
 2114              		.weak	tud_cdc_send_break_cb
 2115              		.weak	tud_cdc_line_state_cb
 2116              		.weak	tud_cdc_line_coding_cb
 2117              		.text
 2118              	.Letext0:
 2119              		.file 5 "/Library/DaisyToolchain/0.2.0/arm/arm-none-eabi/include/machine/_default_types.h"
 2120              		.file 6 "/Library/DaisyToolchain/0.2.0/arm/arm-none-eabi/include/sys/_stdint.h"
 2121              		.file 7 "lib/tinyusb/src/common/tusb_fifo.h"
 2122              		.file 8 "lib/tinyusb/src/class/cdc/cdc.h"
 2123              		.file 9 "lib/tinyusb/src/class/cdc/cdc_device.h"
 2124              		.file 10 "lib/tinyusb/src/device/usbd_pvt.h"
 2125              		.file 11 "<built-in>"
ARM GAS  /tmp/claude-502/ccvGLphW.s 			page 65

