ARM GAS  /tmp/claude-502/ccFotbfS.s 			page 1


   1              		.cpu cortex-m7
   2              		.arch armv7e-m
   3              		.fpu fpv5-d16
   4              		.eabi_attribute 28, 1
   5              		.eabi_attribute 20, 1
   6              		.eabi_attribute 21, 1
   7              		.eabi_attribute 23, 3
   8              		.eabi_attribute 24, 1
   9              		.eabi_attribute 25, 1
  10              		.eabi_attribute 26, 1
  11              		.eabi_attribute 30, 2
  12              		.eabi_attribute 34, 1
  13              		.eabi_attribute 18, 4
  14              		.file	"dcd_dwc2.c"
  15              		.text
  16              	.Ltext0:
  17              		.cfi_sections	.debug_frame
  18              		.section	.text.fifo_alloc,"ax",%progbits
  19              		.align	1
  20              		.p2align 2,,3
  21              		.syntax unified
  22              		.thumb
  23              		.thumb_func
  25              	fifo_alloc:
  26              	.LVL0:
  27              	.LFB393:
  28              		.file 1 "lib/tinyusb/src/portable/synopsys/dwc2/dcd_dwc2.c"
   1:lib/tinyusb/src/portable/synopsys/dwc2/dcd_dwc2.c **** /*
   2:lib/tinyusb/src/portable/synopsys/dwc2/dcd_dwc2.c ****  * The MIT License (MIT)
   3:lib/tinyusb/src/portable/synopsys/dwc2/dcd_dwc2.c ****  *
   4:lib/tinyusb/src/portable/synopsys/dwc2/dcd_dwc2.c ****  * Copyright (c) 2019 William D. Jones
   5:lib/tinyusb/src/portable/synopsys/dwc2/dcd_dwc2.c ****  * Copyright (c) 2019 Ha Thach (tinyusb.org)
   6:lib/tinyusb/src/portable/synopsys/dwc2/dcd_dwc2.c ****  * Copyright (c) 2020 Jan Duempelmann
   7:lib/tinyusb/src/portable/synopsys/dwc2/dcd_dwc2.c ****  * Copyright (c) 2020 Reinhard Panhuber
   8:lib/tinyusb/src/portable/synopsys/dwc2/dcd_dwc2.c ****  *
   9:lib/tinyusb/src/portable/synopsys/dwc2/dcd_dwc2.c ****  * Permission is hereby granted, free of charge, to any person obtaining a copy
  10:lib/tinyusb/src/portable/synopsys/dwc2/dcd_dwc2.c ****  * of this software and associated documentation files (the "Software"), to deal
  11:lib/tinyusb/src/portable/synopsys/dwc2/dcd_dwc2.c ****  * in the Software without restriction, including without limitation the rights
  12:lib/tinyusb/src/portable/synopsys/dwc2/dcd_dwc2.c ****  * to use, copy, modify, merge, publish, distribute, sublicense, and/or sell
  13:lib/tinyusb/src/portable/synopsys/dwc2/dcd_dwc2.c ****  * copies of the Software, and to permit persons to whom the Software is
  14:lib/tinyusb/src/portable/synopsys/dwc2/dcd_dwc2.c ****  * furnished to do so, subject to the following conditions:
  15:lib/tinyusb/src/portable/synopsys/dwc2/dcd_dwc2.c ****  *
  16:lib/tinyusb/src/portable/synopsys/dwc2/dcd_dwc2.c ****  * The above copyright notice and this permission notice shall be included in
  17:lib/tinyusb/src/portable/synopsys/dwc2/dcd_dwc2.c ****  * all copies or substantial portions of the Software.
  18:lib/tinyusb/src/portable/synopsys/dwc2/dcd_dwc2.c ****  *
  19:lib/tinyusb/src/portable/synopsys/dwc2/dcd_dwc2.c ****  * THE SOFTWARE IS PROVIDED "AS IS", WITHOUT WARRANTY OF ANY KIND, EXPRESS OR
  20:lib/tinyusb/src/portable/synopsys/dwc2/dcd_dwc2.c ****  * IMPLIED, INCLUDING BUT NOT LIMITED TO THE WARRANTIES OF MERCHANTABILITY,
  21:lib/tinyusb/src/portable/synopsys/dwc2/dcd_dwc2.c ****  * FITNESS FOR A PARTICULAR PURPOSE AND NONINFRINGEMENT. IN NO EVENT SHALL THE
  22:lib/tinyusb/src/portable/synopsys/dwc2/dcd_dwc2.c ****  * AUTHORS OR COPYRIGHT HOLDERS BE LIABLE FOR ANY CLAIM, DAMAGES OR OTHER
  23:lib/tinyusb/src/portable/synopsys/dwc2/dcd_dwc2.c ****  * LIABILITY, WHETHER IN AN ACTION OF CONTRACT, TORT OR OTHERWISE, ARISING FROM,
  24:lib/tinyusb/src/portable/synopsys/dwc2/dcd_dwc2.c ****  * OUT OF OR IN CONNECTION WITH THE SOFTWARE OR THE USE OR OTHER DEALINGS IN
  25:lib/tinyusb/src/portable/synopsys/dwc2/dcd_dwc2.c ****  * THE SOFTWARE.
  26:lib/tinyusb/src/portable/synopsys/dwc2/dcd_dwc2.c ****  *
  27:lib/tinyusb/src/portable/synopsys/dwc2/dcd_dwc2.c ****  * This file is part of the TinyUSB stack.
  28:lib/tinyusb/src/portable/synopsys/dwc2/dcd_dwc2.c ****  */
  29:lib/tinyusb/src/portable/synopsys/dwc2/dcd_dwc2.c **** 
  30:lib/tinyusb/src/portable/synopsys/dwc2/dcd_dwc2.c **** #include "tusb_option.h"
ARM GAS  /tmp/claude-502/ccFotbfS.s 			page 2


  31:lib/tinyusb/src/portable/synopsys/dwc2/dcd_dwc2.c **** 
  32:lib/tinyusb/src/portable/synopsys/dwc2/dcd_dwc2.c **** #if CFG_TUD_ENABLED && defined(TUP_USBIP_DWC2)
  33:lib/tinyusb/src/portable/synopsys/dwc2/dcd_dwc2.c **** 
  34:lib/tinyusb/src/portable/synopsys/dwc2/dcd_dwc2.c **** #include "device/dcd.h"
  35:lib/tinyusb/src/portable/synopsys/dwc2/dcd_dwc2.c **** #include "dwc2_type.h"
  36:lib/tinyusb/src/portable/synopsys/dwc2/dcd_dwc2.c **** 
  37:lib/tinyusb/src/portable/synopsys/dwc2/dcd_dwc2.c **** // Following symbols must be defined by port header
  38:lib/tinyusb/src/portable/synopsys/dwc2/dcd_dwc2.c **** // - _dwc2_controller[]: array of controllers
  39:lib/tinyusb/src/portable/synopsys/dwc2/dcd_dwc2.c **** // - DWC2_EP_MAX: largest EP counts of all controllers
  40:lib/tinyusb/src/portable/synopsys/dwc2/dcd_dwc2.c **** // - dwc2_phy_init/dwc2_phy_update: phy init called before and after core reset
  41:lib/tinyusb/src/portable/synopsys/dwc2/dcd_dwc2.c **** // - dwc2_dcd_int_enable/dwc2_dcd_int_disable
  42:lib/tinyusb/src/portable/synopsys/dwc2/dcd_dwc2.c **** // - dwc2_remote_wakeup_delay
  43:lib/tinyusb/src/portable/synopsys/dwc2/dcd_dwc2.c **** 
  44:lib/tinyusb/src/portable/synopsys/dwc2/dcd_dwc2.c **** #if defined(TUP_USBIP_DWC2_STM32)
  45:lib/tinyusb/src/portable/synopsys/dwc2/dcd_dwc2.c ****   #include "dwc2_stm32.h"
  46:lib/tinyusb/src/portable/synopsys/dwc2/dcd_dwc2.c **** #elif defined(TUP_USBIP_DWC2_ESP32)
  47:lib/tinyusb/src/portable/synopsys/dwc2/dcd_dwc2.c ****   #include "dwc2_esp32.h"
  48:lib/tinyusb/src/portable/synopsys/dwc2/dcd_dwc2.c **** #elif TU_CHECK_MCU(OPT_MCU_GD32VF103)
  49:lib/tinyusb/src/portable/synopsys/dwc2/dcd_dwc2.c ****   #include "dwc2_gd32.h"
  50:lib/tinyusb/src/portable/synopsys/dwc2/dcd_dwc2.c **** #elif TU_CHECK_MCU(OPT_MCU_BCM2711, OPT_MCU_BCM2835, OPT_MCU_BCM2837)
  51:lib/tinyusb/src/portable/synopsys/dwc2/dcd_dwc2.c ****   #include "dwc2_bcm.h"
  52:lib/tinyusb/src/portable/synopsys/dwc2/dcd_dwc2.c **** #elif TU_CHECK_MCU(OPT_MCU_EFM32GG)
  53:lib/tinyusb/src/portable/synopsys/dwc2/dcd_dwc2.c ****   #include "dwc2_efm32.h"
  54:lib/tinyusb/src/portable/synopsys/dwc2/dcd_dwc2.c **** #elif TU_CHECK_MCU(OPT_MCU_XMC4000)
  55:lib/tinyusb/src/portable/synopsys/dwc2/dcd_dwc2.c ****   #include "dwc2_xmc.h"
  56:lib/tinyusb/src/portable/synopsys/dwc2/dcd_dwc2.c **** #else
  57:lib/tinyusb/src/portable/synopsys/dwc2/dcd_dwc2.c ****   #error "Unsupported MCUs"
  58:lib/tinyusb/src/portable/synopsys/dwc2/dcd_dwc2.c **** #endif
  59:lib/tinyusb/src/portable/synopsys/dwc2/dcd_dwc2.c **** 
  60:lib/tinyusb/src/portable/synopsys/dwc2/dcd_dwc2.c **** //--------------------------------------------------------------------+
  61:lib/tinyusb/src/portable/synopsys/dwc2/dcd_dwc2.c **** // MACRO TYPEDEF CONSTANT ENUM
  62:lib/tinyusb/src/portable/synopsys/dwc2/dcd_dwc2.c **** //--------------------------------------------------------------------+
  63:lib/tinyusb/src/portable/synopsys/dwc2/dcd_dwc2.c **** 
  64:lib/tinyusb/src/portable/synopsys/dwc2/dcd_dwc2.c **** // DWC2 registers
  65:lib/tinyusb/src/portable/synopsys/dwc2/dcd_dwc2.c **** #define DWC2_REG(_port)       ((dwc2_regs_t*) _dwc2_controller[_port].reg_base)
  66:lib/tinyusb/src/portable/synopsys/dwc2/dcd_dwc2.c **** 
  67:lib/tinyusb/src/portable/synopsys/dwc2/dcd_dwc2.c **** // Debug level for DWC2
  68:lib/tinyusb/src/portable/synopsys/dwc2/dcd_dwc2.c **** #define DWC2_DEBUG    2
  69:lib/tinyusb/src/portable/synopsys/dwc2/dcd_dwc2.c **** 
  70:lib/tinyusb/src/portable/synopsys/dwc2/dcd_dwc2.c **** #ifndef dcache_clean
  71:lib/tinyusb/src/portable/synopsys/dwc2/dcd_dwc2.c **** #define dcache_clean(_addr, _size)
  72:lib/tinyusb/src/portable/synopsys/dwc2/dcd_dwc2.c **** #endif
  73:lib/tinyusb/src/portable/synopsys/dwc2/dcd_dwc2.c **** 
  74:lib/tinyusb/src/portable/synopsys/dwc2/dcd_dwc2.c **** #ifndef dcache_invalidate
  75:lib/tinyusb/src/portable/synopsys/dwc2/dcd_dwc2.c **** #define dcache_invalidate(_addr, _size)
  76:lib/tinyusb/src/portable/synopsys/dwc2/dcd_dwc2.c **** #endif
  77:lib/tinyusb/src/portable/synopsys/dwc2/dcd_dwc2.c **** 
  78:lib/tinyusb/src/portable/synopsys/dwc2/dcd_dwc2.c **** #ifndef dcache_clean_invalidate
  79:lib/tinyusb/src/portable/synopsys/dwc2/dcd_dwc2.c **** #define dcache_clean_invalidate(_addr, _size)
  80:lib/tinyusb/src/portable/synopsys/dwc2/dcd_dwc2.c **** #endif
  81:lib/tinyusb/src/portable/synopsys/dwc2/dcd_dwc2.c **** 
  82:lib/tinyusb/src/portable/synopsys/dwc2/dcd_dwc2.c **** static TU_ATTR_ALIGNED(4) uint32_t _setup_packet[2];
  83:lib/tinyusb/src/portable/synopsys/dwc2/dcd_dwc2.c **** 
  84:lib/tinyusb/src/portable/synopsys/dwc2/dcd_dwc2.c **** typedef struct {
  85:lib/tinyusb/src/portable/synopsys/dwc2/dcd_dwc2.c ****   uint8_t* buffer;
  86:lib/tinyusb/src/portable/synopsys/dwc2/dcd_dwc2.c ****   tu_fifo_t* ff;
  87:lib/tinyusb/src/portable/synopsys/dwc2/dcd_dwc2.c ****   uint16_t total_len;
ARM GAS  /tmp/claude-502/ccFotbfS.s 			page 3


  88:lib/tinyusb/src/portable/synopsys/dwc2/dcd_dwc2.c ****   uint16_t max_size;
  89:lib/tinyusb/src/portable/synopsys/dwc2/dcd_dwc2.c ****   uint8_t interval;
  90:lib/tinyusb/src/portable/synopsys/dwc2/dcd_dwc2.c **** } xfer_ctl_t;
  91:lib/tinyusb/src/portable/synopsys/dwc2/dcd_dwc2.c **** 
  92:lib/tinyusb/src/portable/synopsys/dwc2/dcd_dwc2.c **** static xfer_ctl_t xfer_status[DWC2_EP_MAX][2];
  93:lib/tinyusb/src/portable/synopsys/dwc2/dcd_dwc2.c **** #define XFER_CTL_BASE(_ep, _dir) (&xfer_status[_ep][_dir])
  94:lib/tinyusb/src/portable/synopsys/dwc2/dcd_dwc2.c **** 
  95:lib/tinyusb/src/portable/synopsys/dwc2/dcd_dwc2.c **** // EP0 transfers are limited to 1 packet - larger sizes has to be split
  96:lib/tinyusb/src/portable/synopsys/dwc2/dcd_dwc2.c **** static uint16_t ep0_pending[2];               // Index determines direction as tusb_dir_t type
  97:lib/tinyusb/src/portable/synopsys/dwc2/dcd_dwc2.c **** 
  98:lib/tinyusb/src/portable/synopsys/dwc2/dcd_dwc2.c **** // TX FIFO RAM allocation so far in words - RX FIFO size is readily available from dwc2->grxfsiz
  99:lib/tinyusb/src/portable/synopsys/dwc2/dcd_dwc2.c **** static uint16_t _allocated_fifo_words_tx;     // TX FIFO size in words (IN EPs)
 100:lib/tinyusb/src/portable/synopsys/dwc2/dcd_dwc2.c **** 
 101:lib/tinyusb/src/portable/synopsys/dwc2/dcd_dwc2.c **** // SOF enabling flag - required for SOF to not get disabled in ISR when SOF was enabled by
 102:lib/tinyusb/src/portable/synopsys/dwc2/dcd_dwc2.c **** static bool _sof_en;
 103:lib/tinyusb/src/portable/synopsys/dwc2/dcd_dwc2.c **** 
 104:lib/tinyusb/src/portable/synopsys/dwc2/dcd_dwc2.c **** // Calculate the RX FIFO size according to minimum recommendations from reference manual
 105:lib/tinyusb/src/portable/synopsys/dwc2/dcd_dwc2.c **** // RxFIFO = (5 * number of control endpoints + 8) +
 106:lib/tinyusb/src/portable/synopsys/dwc2/dcd_dwc2.c **** //          ((largest USB packet used / 4) + 1 for status information) +
 107:lib/tinyusb/src/portable/synopsys/dwc2/dcd_dwc2.c **** //          (2 * number of OUT endpoints) + 1 for Global NAK
 108:lib/tinyusb/src/portable/synopsys/dwc2/dcd_dwc2.c **** // with number of control endpoints = 1 we have
 109:lib/tinyusb/src/portable/synopsys/dwc2/dcd_dwc2.c **** // RxFIFO = 15 + (largest USB packet used / 4) + 2 * number of OUT endpoints
 110:lib/tinyusb/src/portable/synopsys/dwc2/dcd_dwc2.c **** // we double the largest USB packet size to be able to hold up to 2 packets
 111:lib/tinyusb/src/portable/synopsys/dwc2/dcd_dwc2.c **** static inline uint16_t calc_grxfsiz(uint16_t max_ep_size, uint8_t ep_count) {
 112:lib/tinyusb/src/portable/synopsys/dwc2/dcd_dwc2.c ****   return 15 + 2 * (max_ep_size / 4) + 2 * ep_count;
 113:lib/tinyusb/src/portable/synopsys/dwc2/dcd_dwc2.c **** }
 114:lib/tinyusb/src/portable/synopsys/dwc2/dcd_dwc2.c **** 
 115:lib/tinyusb/src/portable/synopsys/dwc2/dcd_dwc2.c **** TU_ATTR_ALWAYS_INLINE static inline void fifo_flush_tx(dwc2_regs_t* dwc2, uint8_t epnum) {
 116:lib/tinyusb/src/portable/synopsys/dwc2/dcd_dwc2.c ****   // flush TX fifo and wait for it cleared
 117:lib/tinyusb/src/portable/synopsys/dwc2/dcd_dwc2.c ****   dwc2->grstctl = GRSTCTL_TXFFLSH | (epnum << GRSTCTL_TXFNUM_Pos);
 118:lib/tinyusb/src/portable/synopsys/dwc2/dcd_dwc2.c ****   while (dwc2->grstctl & GRSTCTL_TXFFLSH_Msk) {}
 119:lib/tinyusb/src/portable/synopsys/dwc2/dcd_dwc2.c **** }
 120:lib/tinyusb/src/portable/synopsys/dwc2/dcd_dwc2.c **** TU_ATTR_ALWAYS_INLINE static inline void fifo_flush_rx(dwc2_regs_t* dwc2) {
 121:lib/tinyusb/src/portable/synopsys/dwc2/dcd_dwc2.c ****   // flush RX fifo and wait for it cleared
 122:lib/tinyusb/src/portable/synopsys/dwc2/dcd_dwc2.c ****   dwc2->grstctl = GRSTCTL_RXFFLSH;
 123:lib/tinyusb/src/portable/synopsys/dwc2/dcd_dwc2.c ****   while (dwc2->grstctl & GRSTCTL_RXFFLSH_Msk) {}
 124:lib/tinyusb/src/portable/synopsys/dwc2/dcd_dwc2.c **** }
 125:lib/tinyusb/src/portable/synopsys/dwc2/dcd_dwc2.c **** 
 126:lib/tinyusb/src/portable/synopsys/dwc2/dcd_dwc2.c **** static bool fifo_alloc(uint8_t rhport, uint8_t ep_addr, uint16_t packet_size) {
  29              		.loc 1 126 79 view -0
  30              		.cfi_startproc
  31              		@ args = 0, pretend = 0, frame = 0
  32              		@ frame_needed = 0, uses_anonymous_args = 0
 127:lib/tinyusb/src/portable/synopsys/dwc2/dcd_dwc2.c ****   dwc2_regs_t* dwc2 = DWC2_REG(rhport);
  33              		.loc 1 127 3 view .LVU1
 128:lib/tinyusb/src/portable/synopsys/dwc2/dcd_dwc2.c ****   uint8_t const ep_count = _dwc2_controller[rhport].ep_count;
  34              		.loc 1 128 3 view .LVU2
  35              		.loc 1 128 17 is_stmt 0 view .LVU3
  36 0000 264B     		ldr	r3, .L19
  37              	.LBB170:
  38              	.LBB171:
  39              		.file 2 "lib/tinyusb/src/common/tusb_types.h"
   1:lib/tinyusb/src/common/tusb_types.h **** /*
   2:lib/tinyusb/src/common/tusb_types.h ****  * The MIT License (MIT)
   3:lib/tinyusb/src/common/tusb_types.h ****  *
   4:lib/tinyusb/src/common/tusb_types.h ****  * Copyright (c) 2019 Ha Thach (tinyusb.org)
   5:lib/tinyusb/src/common/tusb_types.h ****  *
ARM GAS  /tmp/claude-502/ccFotbfS.s 			page 4


   6:lib/tinyusb/src/common/tusb_types.h ****  * Permission is hereby granted, free of charge, to any person obtaining a copy
   7:lib/tinyusb/src/common/tusb_types.h ****  * of this software and associated documentation files (the "Software"), to deal
   8:lib/tinyusb/src/common/tusb_types.h ****  * in the Software without restriction, including without limitation the rights
   9:lib/tinyusb/src/common/tusb_types.h ****  * to use, copy, modify, merge, publish, distribute, sublicense, and/or sell
  10:lib/tinyusb/src/common/tusb_types.h ****  * copies of the Software, and to permit persons to whom the Software is
  11:lib/tinyusb/src/common/tusb_types.h ****  * furnished to do so, subject to the following conditions:
  12:lib/tinyusb/src/common/tusb_types.h ****  *
  13:lib/tinyusb/src/common/tusb_types.h ****  * The above copyright notice and this permission notice shall be included in
  14:lib/tinyusb/src/common/tusb_types.h ****  * all copies or substantial portions of the Software.
  15:lib/tinyusb/src/common/tusb_types.h ****  *
  16:lib/tinyusb/src/common/tusb_types.h ****  * THE SOFTWARE IS PROVIDED "AS IS", WITHOUT WARRANTY OF ANY KIND, EXPRESS OR
  17:lib/tinyusb/src/common/tusb_types.h ****  * IMPLIED, INCLUDING BUT NOT LIMITED TO THE WARRANTIES OF MERCHANTABILITY,
  18:lib/tinyusb/src/common/tusb_types.h ****  * FITNESS FOR A PARTICULAR PURPOSE AND NONINFRINGEMENT. IN NO EVENT SHALL THE
  19:lib/tinyusb/src/common/tusb_types.h ****  * AUTHORS OR COPYRIGHT HOLDERS BE LIABLE FOR ANY CLAIM, DAMAGES OR OTHER
  20:lib/tinyusb/src/common/tusb_types.h ****  * LIABILITY, WHETHER IN AN ACTION OF CONTRACT, TORT OR OTHERWISE, ARISING FROM,
  21:lib/tinyusb/src/common/tusb_types.h ****  * OUT OF OR IN CONNECTION WITH THE SOFTWARE OR THE USE OR OTHER DEALINGS IN
  22:lib/tinyusb/src/common/tusb_types.h ****  * THE SOFTWARE.
  23:lib/tinyusb/src/common/tusb_types.h ****  *
  24:lib/tinyusb/src/common/tusb_types.h ****  * This file is part of the TinyUSB stack.
  25:lib/tinyusb/src/common/tusb_types.h ****  */
  26:lib/tinyusb/src/common/tusb_types.h **** 
  27:lib/tinyusb/src/common/tusb_types.h **** #ifndef TUSB_TYPES_H_
  28:lib/tinyusb/src/common/tusb_types.h **** #define TUSB_TYPES_H_
  29:lib/tinyusb/src/common/tusb_types.h **** 
  30:lib/tinyusb/src/common/tusb_types.h **** #include <stdbool.h>
  31:lib/tinyusb/src/common/tusb_types.h **** #include <stdint.h>
  32:lib/tinyusb/src/common/tusb_types.h **** #include "tusb_compiler.h"
  33:lib/tinyusb/src/common/tusb_types.h **** 
  34:lib/tinyusb/src/common/tusb_types.h **** #ifdef __cplusplus
  35:lib/tinyusb/src/common/tusb_types.h ****  extern "C" {
  36:lib/tinyusb/src/common/tusb_types.h **** #endif
  37:lib/tinyusb/src/common/tusb_types.h **** 
  38:lib/tinyusb/src/common/tusb_types.h **** /*------------------------------------------------------------------*/
  39:lib/tinyusb/src/common/tusb_types.h **** /* CONSTANTS
  40:lib/tinyusb/src/common/tusb_types.h ****  *------------------------------------------------------------------*/
  41:lib/tinyusb/src/common/tusb_types.h **** 
  42:lib/tinyusb/src/common/tusb_types.h **** /// defined base on EHCI specs value for Endpoint Speed
  43:lib/tinyusb/src/common/tusb_types.h **** typedef enum {
  44:lib/tinyusb/src/common/tusb_types.h ****   TUSB_SPEED_FULL = 0,
  45:lib/tinyusb/src/common/tusb_types.h ****   TUSB_SPEED_LOW  = 1,
  46:lib/tinyusb/src/common/tusb_types.h ****   TUSB_SPEED_HIGH = 2,
  47:lib/tinyusb/src/common/tusb_types.h ****   TUSB_SPEED_INVALID = 0xff,
  48:lib/tinyusb/src/common/tusb_types.h **** } tusb_speed_t;
  49:lib/tinyusb/src/common/tusb_types.h **** 
  50:lib/tinyusb/src/common/tusb_types.h **** /// defined base on USB Specs Endpoint's bmAttributes
  51:lib/tinyusb/src/common/tusb_types.h **** typedef enum {
  52:lib/tinyusb/src/common/tusb_types.h ****   TUSB_XFER_CONTROL = 0 ,
  53:lib/tinyusb/src/common/tusb_types.h ****   TUSB_XFER_ISOCHRONOUS ,
  54:lib/tinyusb/src/common/tusb_types.h ****   TUSB_XFER_BULK        ,
  55:lib/tinyusb/src/common/tusb_types.h ****   TUSB_XFER_INTERRUPT
  56:lib/tinyusb/src/common/tusb_types.h **** } tusb_xfer_type_t;
  57:lib/tinyusb/src/common/tusb_types.h **** 
  58:lib/tinyusb/src/common/tusb_types.h **** typedef enum {
  59:lib/tinyusb/src/common/tusb_types.h ****   TUSB_DIR_OUT = 0,
  60:lib/tinyusb/src/common/tusb_types.h ****   TUSB_DIR_IN  = 1,
  61:lib/tinyusb/src/common/tusb_types.h **** 
  62:lib/tinyusb/src/common/tusb_types.h ****   TUSB_DIR_IN_MASK = 0x80
ARM GAS  /tmp/claude-502/ccFotbfS.s 			page 5


  63:lib/tinyusb/src/common/tusb_types.h **** } tusb_dir_t;
  64:lib/tinyusb/src/common/tusb_types.h **** 
  65:lib/tinyusb/src/common/tusb_types.h **** enum {
  66:lib/tinyusb/src/common/tusb_types.h ****   TUSB_EPSIZE_BULK_FS = 64,
  67:lib/tinyusb/src/common/tusb_types.h ****   TUSB_EPSIZE_BULK_HS = 512,
  68:lib/tinyusb/src/common/tusb_types.h **** 
  69:lib/tinyusb/src/common/tusb_types.h ****   TUSB_EPSIZE_ISO_FS_MAX = 1023,
  70:lib/tinyusb/src/common/tusb_types.h ****   TUSB_EPSIZE_ISO_HS_MAX = 1024,
  71:lib/tinyusb/src/common/tusb_types.h **** };
  72:lib/tinyusb/src/common/tusb_types.h **** 
  73:lib/tinyusb/src/common/tusb_types.h **** /// Isochronous Endpoint Attributes
  74:lib/tinyusb/src/common/tusb_types.h **** typedef enum {
  75:lib/tinyusb/src/common/tusb_types.h ****   TUSB_ISO_EP_ATT_NO_SYNC         = 0x00,
  76:lib/tinyusb/src/common/tusb_types.h ****   TUSB_ISO_EP_ATT_ASYNCHRONOUS    = 0x04,
  77:lib/tinyusb/src/common/tusb_types.h ****   TUSB_ISO_EP_ATT_ADAPTIVE        = 0x08,
  78:lib/tinyusb/src/common/tusb_types.h ****   TUSB_ISO_EP_ATT_SYNCHRONOUS     = 0x0C,
  79:lib/tinyusb/src/common/tusb_types.h ****   TUSB_ISO_EP_ATT_DATA            = 0x00, ///< Data End Point
  80:lib/tinyusb/src/common/tusb_types.h ****   TUSB_ISO_EP_ATT_EXPLICIT_FB     = 0x10, ///< Feedback End Point
  81:lib/tinyusb/src/common/tusb_types.h ****   TUSB_ISO_EP_ATT_IMPLICIT_FB     = 0x20, ///< Data endpoint that also serves as an implicit feedba
  82:lib/tinyusb/src/common/tusb_types.h **** } tusb_iso_ep_attribute_t;
  83:lib/tinyusb/src/common/tusb_types.h **** 
  84:lib/tinyusb/src/common/tusb_types.h **** /// USB Descriptor Types
  85:lib/tinyusb/src/common/tusb_types.h **** typedef enum {
  86:lib/tinyusb/src/common/tusb_types.h ****   TUSB_DESC_DEVICE                = 0x01,
  87:lib/tinyusb/src/common/tusb_types.h ****   TUSB_DESC_CONFIGURATION         = 0x02,
  88:lib/tinyusb/src/common/tusb_types.h ****   TUSB_DESC_STRING                = 0x03,
  89:lib/tinyusb/src/common/tusb_types.h ****   TUSB_DESC_INTERFACE             = 0x04,
  90:lib/tinyusb/src/common/tusb_types.h ****   TUSB_DESC_ENDPOINT              = 0x05,
  91:lib/tinyusb/src/common/tusb_types.h ****   TUSB_DESC_DEVICE_QUALIFIER      = 0x06,
  92:lib/tinyusb/src/common/tusb_types.h ****   TUSB_DESC_OTHER_SPEED_CONFIG    = 0x07,
  93:lib/tinyusb/src/common/tusb_types.h ****   TUSB_DESC_INTERFACE_POWER       = 0x08,
  94:lib/tinyusb/src/common/tusb_types.h ****   TUSB_DESC_OTG                   = 0x09,
  95:lib/tinyusb/src/common/tusb_types.h ****   TUSB_DESC_DEBUG                 = 0x0A,
  96:lib/tinyusb/src/common/tusb_types.h ****   TUSB_DESC_INTERFACE_ASSOCIATION = 0x0B,
  97:lib/tinyusb/src/common/tusb_types.h **** 
  98:lib/tinyusb/src/common/tusb_types.h ****   TUSB_DESC_BOS                   = 0x0F,
  99:lib/tinyusb/src/common/tusb_types.h ****   TUSB_DESC_DEVICE_CAPABILITY     = 0x10,
 100:lib/tinyusb/src/common/tusb_types.h **** 
 101:lib/tinyusb/src/common/tusb_types.h ****   TUSB_DESC_FUNCTIONAL            = 0x21,
 102:lib/tinyusb/src/common/tusb_types.h **** 
 103:lib/tinyusb/src/common/tusb_types.h ****   // Class Specific Descriptor
 104:lib/tinyusb/src/common/tusb_types.h ****   TUSB_DESC_CS_DEVICE             = 0x21,
 105:lib/tinyusb/src/common/tusb_types.h ****   TUSB_DESC_CS_CONFIGURATION      = 0x22,
 106:lib/tinyusb/src/common/tusb_types.h ****   TUSB_DESC_CS_STRING             = 0x23,
 107:lib/tinyusb/src/common/tusb_types.h ****   TUSB_DESC_CS_INTERFACE          = 0x24,
 108:lib/tinyusb/src/common/tusb_types.h ****   TUSB_DESC_CS_ENDPOINT           = 0x25,
 109:lib/tinyusb/src/common/tusb_types.h **** 
 110:lib/tinyusb/src/common/tusb_types.h ****   TUSB_DESC_SUPERSPEED_ENDPOINT_COMPANION     = 0x30,
 111:lib/tinyusb/src/common/tusb_types.h ****   TUSB_DESC_SUPERSPEED_ISO_ENDPOINT_COMPANION = 0x31
 112:lib/tinyusb/src/common/tusb_types.h **** } tusb_desc_type_t;
 113:lib/tinyusb/src/common/tusb_types.h **** 
 114:lib/tinyusb/src/common/tusb_types.h **** typedef enum {
 115:lib/tinyusb/src/common/tusb_types.h ****   TUSB_REQ_GET_STATUS        = 0  ,
 116:lib/tinyusb/src/common/tusb_types.h ****   TUSB_REQ_CLEAR_FEATURE     = 1  ,
 117:lib/tinyusb/src/common/tusb_types.h ****   TUSB_REQ_RESERVED          = 2  ,
 118:lib/tinyusb/src/common/tusb_types.h ****   TUSB_REQ_SET_FEATURE       = 3  ,
 119:lib/tinyusb/src/common/tusb_types.h ****   TUSB_REQ_RESERVED2         = 4  ,
ARM GAS  /tmp/claude-502/ccFotbfS.s 			page 6


 120:lib/tinyusb/src/common/tusb_types.h ****   TUSB_REQ_SET_ADDRESS       = 5  ,
 121:lib/tinyusb/src/common/tusb_types.h ****   TUSB_REQ_GET_DESCRIPTOR    = 6  ,
 122:lib/tinyusb/src/common/tusb_types.h ****   TUSB_REQ_SET_DESCRIPTOR    = 7  ,
 123:lib/tinyusb/src/common/tusb_types.h ****   TUSB_REQ_GET_CONFIGURATION = 8  ,
 124:lib/tinyusb/src/common/tusb_types.h ****   TUSB_REQ_SET_CONFIGURATION = 9  ,
 125:lib/tinyusb/src/common/tusb_types.h ****   TUSB_REQ_GET_INTERFACE     = 10 ,
 126:lib/tinyusb/src/common/tusb_types.h ****   TUSB_REQ_SET_INTERFACE     = 11 ,
 127:lib/tinyusb/src/common/tusb_types.h ****   TUSB_REQ_SYNCH_FRAME       = 12
 128:lib/tinyusb/src/common/tusb_types.h **** } tusb_request_code_t;
 129:lib/tinyusb/src/common/tusb_types.h **** 
 130:lib/tinyusb/src/common/tusb_types.h **** typedef enum {
 131:lib/tinyusb/src/common/tusb_types.h ****   TUSB_REQ_FEATURE_EDPT_HALT     = 0,
 132:lib/tinyusb/src/common/tusb_types.h ****   TUSB_REQ_FEATURE_REMOTE_WAKEUP = 1,
 133:lib/tinyusb/src/common/tusb_types.h ****   TUSB_REQ_FEATURE_TEST_MODE     = 2
 134:lib/tinyusb/src/common/tusb_types.h **** } tusb_request_feature_selector_t;
 135:lib/tinyusb/src/common/tusb_types.h **** 
 136:lib/tinyusb/src/common/tusb_types.h **** typedef enum {
 137:lib/tinyusb/src/common/tusb_types.h ****   TUSB_REQ_TYPE_STANDARD = 0,
 138:lib/tinyusb/src/common/tusb_types.h ****   TUSB_REQ_TYPE_CLASS,
 139:lib/tinyusb/src/common/tusb_types.h ****   TUSB_REQ_TYPE_VENDOR,
 140:lib/tinyusb/src/common/tusb_types.h ****   TUSB_REQ_TYPE_INVALID
 141:lib/tinyusb/src/common/tusb_types.h **** } tusb_request_type_t;
 142:lib/tinyusb/src/common/tusb_types.h **** 
 143:lib/tinyusb/src/common/tusb_types.h **** typedef enum {
 144:lib/tinyusb/src/common/tusb_types.h ****   TUSB_REQ_RCPT_DEVICE =0,
 145:lib/tinyusb/src/common/tusb_types.h ****   TUSB_REQ_RCPT_INTERFACE,
 146:lib/tinyusb/src/common/tusb_types.h ****   TUSB_REQ_RCPT_ENDPOINT,
 147:lib/tinyusb/src/common/tusb_types.h ****   TUSB_REQ_RCPT_OTHER
 148:lib/tinyusb/src/common/tusb_types.h **** } tusb_request_recipient_t;
 149:lib/tinyusb/src/common/tusb_types.h **** 
 150:lib/tinyusb/src/common/tusb_types.h **** // https://www.usb.org/defined-class-codes
 151:lib/tinyusb/src/common/tusb_types.h **** typedef enum {
 152:lib/tinyusb/src/common/tusb_types.h ****   TUSB_CLASS_UNSPECIFIED          = 0    ,
 153:lib/tinyusb/src/common/tusb_types.h ****   TUSB_CLASS_AUDIO                = 1    ,
 154:lib/tinyusb/src/common/tusb_types.h ****   TUSB_CLASS_CDC                  = 2    ,
 155:lib/tinyusb/src/common/tusb_types.h ****   TUSB_CLASS_HID                  = 3    ,
 156:lib/tinyusb/src/common/tusb_types.h ****   TUSB_CLASS_RESERVED_4           = 4    ,
 157:lib/tinyusb/src/common/tusb_types.h ****   TUSB_CLASS_PHYSICAL             = 5    ,
 158:lib/tinyusb/src/common/tusb_types.h ****   TUSB_CLASS_IMAGE                = 6    ,
 159:lib/tinyusb/src/common/tusb_types.h ****   TUSB_CLASS_PRINTER              = 7    ,
 160:lib/tinyusb/src/common/tusb_types.h ****   TUSB_CLASS_MSC                  = 8    ,
 161:lib/tinyusb/src/common/tusb_types.h ****   TUSB_CLASS_HUB                  = 9    ,
 162:lib/tinyusb/src/common/tusb_types.h ****   TUSB_CLASS_CDC_DATA             = 10   ,
 163:lib/tinyusb/src/common/tusb_types.h ****   TUSB_CLASS_SMART_CARD           = 11   ,
 164:lib/tinyusb/src/common/tusb_types.h ****   TUSB_CLASS_RESERVED_12          = 12   ,
 165:lib/tinyusb/src/common/tusb_types.h ****   TUSB_CLASS_CONTENT_SECURITY     = 13   ,
 166:lib/tinyusb/src/common/tusb_types.h ****   TUSB_CLASS_VIDEO                = 14   ,
 167:lib/tinyusb/src/common/tusb_types.h ****   TUSB_CLASS_PERSONAL_HEALTHCARE  = 15   ,
 168:lib/tinyusb/src/common/tusb_types.h ****   TUSB_CLASS_AUDIO_VIDEO          = 16   ,
 169:lib/tinyusb/src/common/tusb_types.h **** 
 170:lib/tinyusb/src/common/tusb_types.h ****   TUSB_CLASS_DIAGNOSTIC           = 0xDC ,
 171:lib/tinyusb/src/common/tusb_types.h ****   TUSB_CLASS_WIRELESS_CONTROLLER  = 0xE0 ,
 172:lib/tinyusb/src/common/tusb_types.h ****   TUSB_CLASS_MISC                 = 0xEF ,
 173:lib/tinyusb/src/common/tusb_types.h ****   TUSB_CLASS_APPLICATION_SPECIFIC = 0xFE ,
 174:lib/tinyusb/src/common/tusb_types.h ****   TUSB_CLASS_VENDOR_SPECIFIC      = 0xFF
 175:lib/tinyusb/src/common/tusb_types.h **** } tusb_class_code_t;
 176:lib/tinyusb/src/common/tusb_types.h **** 
ARM GAS  /tmp/claude-502/ccFotbfS.s 			page 7


 177:lib/tinyusb/src/common/tusb_types.h **** typedef enum
 178:lib/tinyusb/src/common/tusb_types.h **** {
 179:lib/tinyusb/src/common/tusb_types.h ****   MISC_SUBCLASS_COMMON = 2
 180:lib/tinyusb/src/common/tusb_types.h **** }misc_subclass_type_t;
 181:lib/tinyusb/src/common/tusb_types.h **** 
 182:lib/tinyusb/src/common/tusb_types.h **** typedef enum {
 183:lib/tinyusb/src/common/tusb_types.h ****   MISC_PROTOCOL_IAD = 1
 184:lib/tinyusb/src/common/tusb_types.h **** } misc_protocol_type_t;
 185:lib/tinyusb/src/common/tusb_types.h **** 
 186:lib/tinyusb/src/common/tusb_types.h **** typedef enum {
 187:lib/tinyusb/src/common/tusb_types.h ****   APP_SUBCLASS_USBTMC = 0x03,
 188:lib/tinyusb/src/common/tusb_types.h ****   APP_SUBCLASS_DFU_RUNTIME = 0x01
 189:lib/tinyusb/src/common/tusb_types.h **** } app_subclass_type_t;
 190:lib/tinyusb/src/common/tusb_types.h **** 
 191:lib/tinyusb/src/common/tusb_types.h **** typedef enum {
 192:lib/tinyusb/src/common/tusb_types.h ****   DEVICE_CAPABILITY_WIRELESS_USB               = 0x01,
 193:lib/tinyusb/src/common/tusb_types.h ****   DEVICE_CAPABILITY_USB20_EXTENSION            = 0x02,
 194:lib/tinyusb/src/common/tusb_types.h ****   DEVICE_CAPABILITY_SUPERSPEED_USB             = 0x03,
 195:lib/tinyusb/src/common/tusb_types.h ****   DEVICE_CAPABILITY_CONTAINER_id               = 0x04,
 196:lib/tinyusb/src/common/tusb_types.h ****   DEVICE_CAPABILITY_PLATFORM                   = 0x05,
 197:lib/tinyusb/src/common/tusb_types.h ****   DEVICE_CAPABILITY_POWER_DELIVERY             = 0x06,
 198:lib/tinyusb/src/common/tusb_types.h ****   DEVICE_CAPABILITY_BATTERY_INFO               = 0x07,
 199:lib/tinyusb/src/common/tusb_types.h ****   DEVICE_CAPABILITY_PD_CONSUMER_PORT           = 0x08,
 200:lib/tinyusb/src/common/tusb_types.h ****   DEVICE_CAPABILITY_PD_PROVIDER_PORT           = 0x09,
 201:lib/tinyusb/src/common/tusb_types.h ****   DEVICE_CAPABILITY_SUPERSPEED_PLUS            = 0x0A,
 202:lib/tinyusb/src/common/tusb_types.h ****   DEVICE_CAPABILITY_PRECESION_TIME_MEASUREMENT = 0x0B,
 203:lib/tinyusb/src/common/tusb_types.h ****   DEVICE_CAPABILITY_WIRELESS_USB_EXT           = 0x0C,
 204:lib/tinyusb/src/common/tusb_types.h ****   DEVICE_CAPABILITY_BILLBOARD                  = 0x0D,
 205:lib/tinyusb/src/common/tusb_types.h ****   DEVICE_CAPABILITY_AUTHENTICATION             = 0x0E,
 206:lib/tinyusb/src/common/tusb_types.h ****   DEVICE_CAPABILITY_BILLBOARD_EX               = 0x0F,
 207:lib/tinyusb/src/common/tusb_types.h ****   DEVICE_CAPABILITY_CONFIGURATION_SUMMARY      = 0x10
 208:lib/tinyusb/src/common/tusb_types.h **** } device_capability_type_t;
 209:lib/tinyusb/src/common/tusb_types.h **** 
 210:lib/tinyusb/src/common/tusb_types.h **** enum {
 211:lib/tinyusb/src/common/tusb_types.h ****   TUSB_DESC_CONFIG_ATT_REMOTE_WAKEUP = 1u << 5,
 212:lib/tinyusb/src/common/tusb_types.h ****   TUSB_DESC_CONFIG_ATT_SELF_POWERED  = 1u << 6,
 213:lib/tinyusb/src/common/tusb_types.h **** };
 214:lib/tinyusb/src/common/tusb_types.h **** 
 215:lib/tinyusb/src/common/tusb_types.h **** #define TUSB_DESC_CONFIG_POWER_MA(x)  ((x)/2)
 216:lib/tinyusb/src/common/tusb_types.h **** 
 217:lib/tinyusb/src/common/tusb_types.h **** // USB 2.0 Spec Table 9-7: Test Mode Selectors
 218:lib/tinyusb/src/common/tusb_types.h **** typedef enum {
 219:lib/tinyusb/src/common/tusb_types.h ****   TUSB_FEATURE_TEST_J = 1,
 220:lib/tinyusb/src/common/tusb_types.h ****   TUSB_FEATURE_TEST_K,
 221:lib/tinyusb/src/common/tusb_types.h ****   TUSB_FEATURE_TEST_SE0_NAK,
 222:lib/tinyusb/src/common/tusb_types.h ****   TUSB_FEATURE_TEST_PACKET,
 223:lib/tinyusb/src/common/tusb_types.h ****   TUSB_FEATURE_TEST_FORCE_ENABLE,
 224:lib/tinyusb/src/common/tusb_types.h **** } tusb_feature_test_mode_t;
 225:lib/tinyusb/src/common/tusb_types.h **** 
 226:lib/tinyusb/src/common/tusb_types.h **** //--------------------------------------------------------------------+
 227:lib/tinyusb/src/common/tusb_types.h **** //
 228:lib/tinyusb/src/common/tusb_types.h **** //--------------------------------------------------------------------+
 229:lib/tinyusb/src/common/tusb_types.h **** typedef enum {
 230:lib/tinyusb/src/common/tusb_types.h ****   XFER_RESULT_SUCCESS = 0,
 231:lib/tinyusb/src/common/tusb_types.h ****   XFER_RESULT_FAILED,
 232:lib/tinyusb/src/common/tusb_types.h ****   XFER_RESULT_STALLED,
 233:lib/tinyusb/src/common/tusb_types.h ****   XFER_RESULT_TIMEOUT,
ARM GAS  /tmp/claude-502/ccFotbfS.s 			page 8


 234:lib/tinyusb/src/common/tusb_types.h ****   XFER_RESULT_INVALID
 235:lib/tinyusb/src/common/tusb_types.h **** } xfer_result_t;
 236:lib/tinyusb/src/common/tusb_types.h **** 
 237:lib/tinyusb/src/common/tusb_types.h **** // TODO remove
 238:lib/tinyusb/src/common/tusb_types.h **** enum {
 239:lib/tinyusb/src/common/tusb_types.h ****   DESC_OFFSET_LEN  = 0,
 240:lib/tinyusb/src/common/tusb_types.h ****   DESC_OFFSET_TYPE = 1
 241:lib/tinyusb/src/common/tusb_types.h **** };
 242:lib/tinyusb/src/common/tusb_types.h **** 
 243:lib/tinyusb/src/common/tusb_types.h **** enum {
 244:lib/tinyusb/src/common/tusb_types.h ****   INTERFACE_INVALID_NUMBER = 0xff
 245:lib/tinyusb/src/common/tusb_types.h **** };
 246:lib/tinyusb/src/common/tusb_types.h **** 
 247:lib/tinyusb/src/common/tusb_types.h **** typedef enum {
 248:lib/tinyusb/src/common/tusb_types.h ****   MS_OS_20_SET_HEADER_DESCRIPTOR       = 0x00,
 249:lib/tinyusb/src/common/tusb_types.h ****   MS_OS_20_SUBSET_HEADER_CONFIGURATION = 0x01,
 250:lib/tinyusb/src/common/tusb_types.h ****   MS_OS_20_SUBSET_HEADER_FUNCTION      = 0x02,
 251:lib/tinyusb/src/common/tusb_types.h ****   MS_OS_20_FEATURE_COMPATBLE_ID        = 0x03,
 252:lib/tinyusb/src/common/tusb_types.h ****   MS_OS_20_FEATURE_REG_PROPERTY        = 0x04,
 253:lib/tinyusb/src/common/tusb_types.h ****   MS_OS_20_FEATURE_MIN_RESUME_TIME     = 0x05,
 254:lib/tinyusb/src/common/tusb_types.h ****   MS_OS_20_FEATURE_MODEL_ID            = 0x06,
 255:lib/tinyusb/src/common/tusb_types.h ****   MS_OS_20_FEATURE_CCGP_DEVICE         = 0x07,
 256:lib/tinyusb/src/common/tusb_types.h ****   MS_OS_20_FEATURE_VENDOR_REVISION     = 0x08
 257:lib/tinyusb/src/common/tusb_types.h **** } microsoft_os_20_type_t;
 258:lib/tinyusb/src/common/tusb_types.h **** 
 259:lib/tinyusb/src/common/tusb_types.h **** enum {
 260:lib/tinyusb/src/common/tusb_types.h ****   CONTROL_STAGE_IDLE,
 261:lib/tinyusb/src/common/tusb_types.h ****   CONTROL_STAGE_SETUP,
 262:lib/tinyusb/src/common/tusb_types.h ****   CONTROL_STAGE_DATA,
 263:lib/tinyusb/src/common/tusb_types.h ****   CONTROL_STAGE_ACK
 264:lib/tinyusb/src/common/tusb_types.h **** };
 265:lib/tinyusb/src/common/tusb_types.h **** 
 266:lib/tinyusb/src/common/tusb_types.h **** enum {
 267:lib/tinyusb/src/common/tusb_types.h ****   TUSB_INDEX_INVALID_8 = 0xFFu
 268:lib/tinyusb/src/common/tusb_types.h **** };
 269:lib/tinyusb/src/common/tusb_types.h **** 
 270:lib/tinyusb/src/common/tusb_types.h **** //--------------------------------------------------------------------+
 271:lib/tinyusb/src/common/tusb_types.h **** // USB Descriptors
 272:lib/tinyusb/src/common/tusb_types.h **** //--------------------------------------------------------------------+
 273:lib/tinyusb/src/common/tusb_types.h **** 
 274:lib/tinyusb/src/common/tusb_types.h **** // Start of all packed definitions for compiler without per-type packed
 275:lib/tinyusb/src/common/tusb_types.h **** TU_ATTR_PACKED_BEGIN
 276:lib/tinyusb/src/common/tusb_types.h **** TU_ATTR_BIT_FIELD_ORDER_BEGIN
 277:lib/tinyusb/src/common/tusb_types.h **** 
 278:lib/tinyusb/src/common/tusb_types.h **** /// USB Device Descriptor
 279:lib/tinyusb/src/common/tusb_types.h **** typedef struct TU_ATTR_PACKED {
 280:lib/tinyusb/src/common/tusb_types.h ****   uint8_t  bLength            ; ///< Size of this descriptor in bytes.
 281:lib/tinyusb/src/common/tusb_types.h ****   uint8_t  bDescriptorType    ; ///< DEVICE Descriptor Type.
 282:lib/tinyusb/src/common/tusb_types.h ****   uint16_t bcdUSB             ; ///< BUSB Specification Release Number in Binary-Coded Decimal (i.e
 283:lib/tinyusb/src/common/tusb_types.h **** 
 284:lib/tinyusb/src/common/tusb_types.h ****   uint8_t  bDeviceClass       ; ///< Class code (assigned by the USB-IF).
 285:lib/tinyusb/src/common/tusb_types.h ****   uint8_t  bDeviceSubClass    ; ///< Subclass code (assigned by the USB-IF).
 286:lib/tinyusb/src/common/tusb_types.h ****   uint8_t  bDeviceProtocol    ; ///< Protocol code (assigned by the USB-IF).
 287:lib/tinyusb/src/common/tusb_types.h ****   uint8_t  bMaxPacketSize0    ; ///< Maximum packet size for endpoint zero (only 8, 16, 32, or 64 a
 288:lib/tinyusb/src/common/tusb_types.h **** 
 289:lib/tinyusb/src/common/tusb_types.h ****   uint16_t idVendor           ; ///< Vendor ID (assigned by the USB-IF).
 290:lib/tinyusb/src/common/tusb_types.h ****   uint16_t idProduct          ; ///< Product ID (assigned by the manufacturer).
ARM GAS  /tmp/claude-502/ccFotbfS.s 			page 9


 291:lib/tinyusb/src/common/tusb_types.h ****   uint16_t bcdDevice          ; ///< Device release number in binary-coded decimal.
 292:lib/tinyusb/src/common/tusb_types.h ****   uint8_t  iManufacturer      ; ///< Index of string descriptor describing manufacturer.
 293:lib/tinyusb/src/common/tusb_types.h ****   uint8_t  iProduct           ; ///< Index of string descriptor describing product.
 294:lib/tinyusb/src/common/tusb_types.h ****   uint8_t  iSerialNumber      ; ///< Index of string descriptor describing the device's serial numb
 295:lib/tinyusb/src/common/tusb_types.h **** 
 296:lib/tinyusb/src/common/tusb_types.h ****   uint8_t  bNumConfigurations ; ///< Number of possible configurations.
 297:lib/tinyusb/src/common/tusb_types.h **** } tusb_desc_device_t;
 298:lib/tinyusb/src/common/tusb_types.h **** 
 299:lib/tinyusb/src/common/tusb_types.h **** TU_VERIFY_STATIC( sizeof(tusb_desc_device_t) == 18, "size is not correct");
 300:lib/tinyusb/src/common/tusb_types.h **** 
 301:lib/tinyusb/src/common/tusb_types.h **** // USB Binary Device Object Store (BOS) Descriptor
 302:lib/tinyusb/src/common/tusb_types.h **** typedef struct TU_ATTR_PACKED {
 303:lib/tinyusb/src/common/tusb_types.h ****   uint8_t  bLength         ; ///< Size of this descriptor in bytes
 304:lib/tinyusb/src/common/tusb_types.h ****   uint8_t  bDescriptorType ; ///< CONFIGURATION Descriptor Type
 305:lib/tinyusb/src/common/tusb_types.h ****   uint16_t wTotalLength    ; ///< Total length of data returned for this descriptor
 306:lib/tinyusb/src/common/tusb_types.h ****   uint8_t  bNumDeviceCaps  ; ///< Number of device capability descriptors in the BOS
 307:lib/tinyusb/src/common/tusb_types.h **** } tusb_desc_bos_t;
 308:lib/tinyusb/src/common/tusb_types.h **** 
 309:lib/tinyusb/src/common/tusb_types.h **** TU_VERIFY_STATIC( sizeof(tusb_desc_bos_t) == 5, "size is not correct");
 310:lib/tinyusb/src/common/tusb_types.h **** 
 311:lib/tinyusb/src/common/tusb_types.h **** /// USB Configuration Descriptor
 312:lib/tinyusb/src/common/tusb_types.h **** typedef struct TU_ATTR_PACKED {
 313:lib/tinyusb/src/common/tusb_types.h ****   uint8_t  bLength             ; ///< Size of this descriptor in bytes
 314:lib/tinyusb/src/common/tusb_types.h ****   uint8_t  bDescriptorType     ; ///< CONFIGURATION Descriptor Type
 315:lib/tinyusb/src/common/tusb_types.h ****   uint16_t wTotalLength        ; ///< Total length of data returned for this configuration. Include
 316:lib/tinyusb/src/common/tusb_types.h **** 
 317:lib/tinyusb/src/common/tusb_types.h ****   uint8_t  bNumInterfaces      ; ///< Number of interfaces supported by this configuration
 318:lib/tinyusb/src/common/tusb_types.h ****   uint8_t  bConfigurationValue ; ///< Value to use as an argument to the SetConfiguration() request
 319:lib/tinyusb/src/common/tusb_types.h ****   uint8_t  iConfiguration      ; ///< Index of string descriptor describing this configuration
 320:lib/tinyusb/src/common/tusb_types.h ****   uint8_t  bmAttributes        ; ///< Configuration characteristics \n D7: Reserved (set to one)\n 
 321:lib/tinyusb/src/common/tusb_types.h ****   uint8_t  bMaxPower           ; ///< Maximum power consumption of the USB device from the bus in t
 322:lib/tinyusb/src/common/tusb_types.h **** } tusb_desc_configuration_t;
 323:lib/tinyusb/src/common/tusb_types.h **** 
 324:lib/tinyusb/src/common/tusb_types.h **** TU_VERIFY_STATIC( sizeof(tusb_desc_configuration_t) == 9, "size is not correct");
 325:lib/tinyusb/src/common/tusb_types.h **** 
 326:lib/tinyusb/src/common/tusb_types.h **** /// USB Interface Descriptor
 327:lib/tinyusb/src/common/tusb_types.h **** typedef struct TU_ATTR_PACKED {
 328:lib/tinyusb/src/common/tusb_types.h ****   uint8_t  bLength            ; ///< Size of this descriptor in bytes
 329:lib/tinyusb/src/common/tusb_types.h ****   uint8_t  bDescriptorType    ; ///< INTERFACE Descriptor Type
 330:lib/tinyusb/src/common/tusb_types.h **** 
 331:lib/tinyusb/src/common/tusb_types.h ****   uint8_t  bInterfaceNumber   ; ///< Number of this interface. Zero-based value identifying the ind
 332:lib/tinyusb/src/common/tusb_types.h ****   uint8_t  bAlternateSetting  ; ///< Value used to select this alternate setting for the interface 
 333:lib/tinyusb/src/common/tusb_types.h ****   uint8_t  bNumEndpoints      ; ///< Number of endpoints used by this interface (excluding endpoint
 334:lib/tinyusb/src/common/tusb_types.h ****   uint8_t  bInterfaceClass    ; ///< Class code (assigned by the USB-IF). \li A value of zero is re
 335:lib/tinyusb/src/common/tusb_types.h ****   uint8_t  bInterfaceSubClass ; ///< Subclass code (assigned by the USB-IF). \n These codes are qua
 336:lib/tinyusb/src/common/tusb_types.h ****   uint8_t  bInterfaceProtocol ; ///< Protocol code (assigned by the USB). \n These codes are qualif
 337:lib/tinyusb/src/common/tusb_types.h ****   uint8_t  iInterface         ; ///< Index of string descriptor describing this interface
 338:lib/tinyusb/src/common/tusb_types.h **** } tusb_desc_interface_t;
 339:lib/tinyusb/src/common/tusb_types.h **** 
 340:lib/tinyusb/src/common/tusb_types.h **** TU_VERIFY_STATIC( sizeof(tusb_desc_interface_t) == 9, "size is not correct");
 341:lib/tinyusb/src/common/tusb_types.h **** 
 342:lib/tinyusb/src/common/tusb_types.h **** /// USB Endpoint Descriptor
 343:lib/tinyusb/src/common/tusb_types.h **** typedef struct TU_ATTR_PACKED {
 344:lib/tinyusb/src/common/tusb_types.h ****   uint8_t  bLength          ; // Size of this descriptor in bytes
 345:lib/tinyusb/src/common/tusb_types.h ****   uint8_t  bDescriptorType  ; // ENDPOINT Descriptor Type
 346:lib/tinyusb/src/common/tusb_types.h **** 
 347:lib/tinyusb/src/common/tusb_types.h ****   uint8_t  bEndpointAddress ; // The address of the endpoint
ARM GAS  /tmp/claude-502/ccFotbfS.s 			page 10


 348:lib/tinyusb/src/common/tusb_types.h **** 
 349:lib/tinyusb/src/common/tusb_types.h ****   struct TU_ATTR_PACKED {
 350:lib/tinyusb/src/common/tusb_types.h ****     uint8_t xfer  : 2;        // Control, ISO, Bulk, Interrupt
 351:lib/tinyusb/src/common/tusb_types.h ****     uint8_t sync  : 2;        // None, Asynchronous, Adaptive, Synchronous
 352:lib/tinyusb/src/common/tusb_types.h ****     uint8_t usage : 2;        // Data, Feedback, Implicit feedback
 353:lib/tinyusb/src/common/tusb_types.h ****     uint8_t       : 2;
 354:lib/tinyusb/src/common/tusb_types.h ****   } bmAttributes;
 355:lib/tinyusb/src/common/tusb_types.h **** 
 356:lib/tinyusb/src/common/tusb_types.h ****   uint16_t wMaxPacketSize   ; // Bit 10..0 : max packet size, bit 12..11 additional transaction per
 357:lib/tinyusb/src/common/tusb_types.h ****   uint8_t  bInterval        ; // Polling interval, in frames or microframes depending on the operat
 358:lib/tinyusb/src/common/tusb_types.h **** } tusb_desc_endpoint_t;
 359:lib/tinyusb/src/common/tusb_types.h **** 
 360:lib/tinyusb/src/common/tusb_types.h **** TU_VERIFY_STATIC( sizeof(tusb_desc_endpoint_t) == 7, "size is not correct");
 361:lib/tinyusb/src/common/tusb_types.h **** 
 362:lib/tinyusb/src/common/tusb_types.h **** /// USB Other Speed Configuration Descriptor
 363:lib/tinyusb/src/common/tusb_types.h **** typedef struct TU_ATTR_PACKED {
 364:lib/tinyusb/src/common/tusb_types.h ****   uint8_t  bLength             ; ///< Size of descriptor
 365:lib/tinyusb/src/common/tusb_types.h ****   uint8_t  bDescriptorType     ; ///< Other_speed_Configuration Type
 366:lib/tinyusb/src/common/tusb_types.h ****   uint16_t wTotalLength        ; ///< Total length of data returned
 367:lib/tinyusb/src/common/tusb_types.h **** 
 368:lib/tinyusb/src/common/tusb_types.h ****   uint8_t  bNumInterfaces      ; ///< Number of interfaces supported by this speed configuration
 369:lib/tinyusb/src/common/tusb_types.h ****   uint8_t  bConfigurationValue ; ///< Value to use to select configuration
 370:lib/tinyusb/src/common/tusb_types.h ****   uint8_t  iConfiguration      ; ///< Index of string descriptor
 371:lib/tinyusb/src/common/tusb_types.h ****   uint8_t  bmAttributes        ; ///< Same as Configuration descriptor
 372:lib/tinyusb/src/common/tusb_types.h ****   uint8_t  bMaxPower           ; ///< Same as Configuration descriptor
 373:lib/tinyusb/src/common/tusb_types.h **** } tusb_desc_other_speed_t;
 374:lib/tinyusb/src/common/tusb_types.h **** 
 375:lib/tinyusb/src/common/tusb_types.h **** /// USB Device Qualifier Descriptor
 376:lib/tinyusb/src/common/tusb_types.h **** typedef struct TU_ATTR_PACKED {
 377:lib/tinyusb/src/common/tusb_types.h ****   uint8_t  bLength            ; ///< Size of descriptor
 378:lib/tinyusb/src/common/tusb_types.h ****   uint8_t  bDescriptorType    ; ///< Device Qualifier Type
 379:lib/tinyusb/src/common/tusb_types.h ****   uint16_t bcdUSB             ; ///< USB specification version number (e.g., 0200H for V2.00)
 380:lib/tinyusb/src/common/tusb_types.h **** 
 381:lib/tinyusb/src/common/tusb_types.h ****   uint8_t  bDeviceClass       ; ///< Class Code
 382:lib/tinyusb/src/common/tusb_types.h ****   uint8_t  bDeviceSubClass    ; ///< SubClass Code
 383:lib/tinyusb/src/common/tusb_types.h ****   uint8_t  bDeviceProtocol    ; ///< Protocol Code
 384:lib/tinyusb/src/common/tusb_types.h **** 
 385:lib/tinyusb/src/common/tusb_types.h ****   uint8_t  bMaxPacketSize0    ; ///< Maximum packet size for other speed
 386:lib/tinyusb/src/common/tusb_types.h ****   uint8_t  bNumConfigurations ; ///< Number of Other-speed Configurations
 387:lib/tinyusb/src/common/tusb_types.h ****   uint8_t  bReserved          ; ///< Reserved for future use, must be zero
 388:lib/tinyusb/src/common/tusb_types.h **** } tusb_desc_device_qualifier_t;
 389:lib/tinyusb/src/common/tusb_types.h **** 
 390:lib/tinyusb/src/common/tusb_types.h **** TU_VERIFY_STATIC( sizeof(tusb_desc_device_qualifier_t) == 10, "size is not correct");
 391:lib/tinyusb/src/common/tusb_types.h **** 
 392:lib/tinyusb/src/common/tusb_types.h **** /// USB Interface Association Descriptor (IAD ECN)
 393:lib/tinyusb/src/common/tusb_types.h **** typedef struct TU_ATTR_PACKED {
 394:lib/tinyusb/src/common/tusb_types.h ****   uint8_t bLength           ; ///< Size of descriptor
 395:lib/tinyusb/src/common/tusb_types.h ****   uint8_t bDescriptorType   ; ///< Other_speed_Configuration Type
 396:lib/tinyusb/src/common/tusb_types.h **** 
 397:lib/tinyusb/src/common/tusb_types.h ****   uint8_t bFirstInterface   ; ///< Index of the first associated interface.
 398:lib/tinyusb/src/common/tusb_types.h ****   uint8_t bInterfaceCount   ; ///< Total number of associated interfaces.
 399:lib/tinyusb/src/common/tusb_types.h **** 
 400:lib/tinyusb/src/common/tusb_types.h ****   uint8_t bFunctionClass    ; ///< Interface class ID.
 401:lib/tinyusb/src/common/tusb_types.h ****   uint8_t bFunctionSubClass ; ///< Interface subclass ID.
 402:lib/tinyusb/src/common/tusb_types.h ****   uint8_t bFunctionProtocol ; ///< Interface protocol ID.
 403:lib/tinyusb/src/common/tusb_types.h **** 
 404:lib/tinyusb/src/common/tusb_types.h ****   uint8_t iFunction         ; ///< Index of the string descriptor describing the interface associat
ARM GAS  /tmp/claude-502/ccFotbfS.s 			page 11


 405:lib/tinyusb/src/common/tusb_types.h **** } tusb_desc_interface_assoc_t;
 406:lib/tinyusb/src/common/tusb_types.h **** 
 407:lib/tinyusb/src/common/tusb_types.h **** TU_VERIFY_STATIC( sizeof(tusb_desc_interface_assoc_t) == 8, "size is not correct");
 408:lib/tinyusb/src/common/tusb_types.h **** 
 409:lib/tinyusb/src/common/tusb_types.h **** // USB String Descriptor
 410:lib/tinyusb/src/common/tusb_types.h **** typedef struct TU_ATTR_PACKED {
 411:lib/tinyusb/src/common/tusb_types.h ****   uint8_t  bLength         ; ///< Size of this descriptor in bytes
 412:lib/tinyusb/src/common/tusb_types.h ****   uint8_t  bDescriptorType ; ///< Descriptor Type
 413:lib/tinyusb/src/common/tusb_types.h ****   uint16_t unicode_string[];
 414:lib/tinyusb/src/common/tusb_types.h **** } tusb_desc_string_t;
 415:lib/tinyusb/src/common/tusb_types.h **** 
 416:lib/tinyusb/src/common/tusb_types.h **** // USB Binary Device Object Store (BOS)
 417:lib/tinyusb/src/common/tusb_types.h **** typedef struct TU_ATTR_PACKED {
 418:lib/tinyusb/src/common/tusb_types.h ****   uint8_t bLength;
 419:lib/tinyusb/src/common/tusb_types.h ****   uint8_t bDescriptorType ;
 420:lib/tinyusb/src/common/tusb_types.h ****   uint8_t bDevCapabilityType;
 421:lib/tinyusb/src/common/tusb_types.h ****   uint8_t bReserved;
 422:lib/tinyusb/src/common/tusb_types.h ****   uint8_t PlatformCapabilityUUID[16];
 423:lib/tinyusb/src/common/tusb_types.h ****   uint8_t CapabilityData[];
 424:lib/tinyusb/src/common/tusb_types.h **** } tusb_desc_bos_platform_t;
 425:lib/tinyusb/src/common/tusb_types.h **** 
 426:lib/tinyusb/src/common/tusb_types.h **** // USB WebUSB URL Descriptor
 427:lib/tinyusb/src/common/tusb_types.h **** typedef struct TU_ATTR_PACKED {
 428:lib/tinyusb/src/common/tusb_types.h ****   uint8_t bLength;
 429:lib/tinyusb/src/common/tusb_types.h ****   uint8_t bDescriptorType;
 430:lib/tinyusb/src/common/tusb_types.h ****   uint8_t bScheme;
 431:lib/tinyusb/src/common/tusb_types.h ****   char    url[];
 432:lib/tinyusb/src/common/tusb_types.h **** } tusb_desc_webusb_url_t;
 433:lib/tinyusb/src/common/tusb_types.h **** 
 434:lib/tinyusb/src/common/tusb_types.h **** // DFU Functional Descriptor
 435:lib/tinyusb/src/common/tusb_types.h **** typedef struct TU_ATTR_PACKED {
 436:lib/tinyusb/src/common/tusb_types.h ****   uint8_t  bLength;
 437:lib/tinyusb/src/common/tusb_types.h ****   uint8_t  bDescriptorType;
 438:lib/tinyusb/src/common/tusb_types.h **** 
 439:lib/tinyusb/src/common/tusb_types.h ****   union {
 440:lib/tinyusb/src/common/tusb_types.h ****     struct TU_ATTR_PACKED {
 441:lib/tinyusb/src/common/tusb_types.h ****       uint8_t bitCanDnload             : 1;
 442:lib/tinyusb/src/common/tusb_types.h ****       uint8_t bitCanUpload             : 1;
 443:lib/tinyusb/src/common/tusb_types.h ****       uint8_t bitManifestationTolerant : 1;
 444:lib/tinyusb/src/common/tusb_types.h ****       uint8_t bitWillDetach            : 1;
 445:lib/tinyusb/src/common/tusb_types.h ****       uint8_t reserved                 : 4;
 446:lib/tinyusb/src/common/tusb_types.h ****     } bmAttributes;
 447:lib/tinyusb/src/common/tusb_types.h **** 
 448:lib/tinyusb/src/common/tusb_types.h ****     uint8_t bAttributes;
 449:lib/tinyusb/src/common/tusb_types.h ****   };
 450:lib/tinyusb/src/common/tusb_types.h **** 
 451:lib/tinyusb/src/common/tusb_types.h ****   uint16_t wDetachTimeOut;
 452:lib/tinyusb/src/common/tusb_types.h ****   uint16_t wTransferSize;
 453:lib/tinyusb/src/common/tusb_types.h ****   uint16_t bcdDFUVersion;
 454:lib/tinyusb/src/common/tusb_types.h **** } tusb_desc_dfu_functional_t;
 455:lib/tinyusb/src/common/tusb_types.h **** 
 456:lib/tinyusb/src/common/tusb_types.h **** //--------------------------------------------------------------------+
 457:lib/tinyusb/src/common/tusb_types.h **** //
 458:lib/tinyusb/src/common/tusb_types.h **** //--------------------------------------------------------------------+
 459:lib/tinyusb/src/common/tusb_types.h **** 
 460:lib/tinyusb/src/common/tusb_types.h **** typedef struct TU_ATTR_PACKED {
 461:lib/tinyusb/src/common/tusb_types.h ****   union {
ARM GAS  /tmp/claude-502/ccFotbfS.s 			page 12


 462:lib/tinyusb/src/common/tusb_types.h ****     struct TU_ATTR_PACKED {
 463:lib/tinyusb/src/common/tusb_types.h ****       uint8_t recipient :  5; ///< Recipient type tusb_request_recipient_t.
 464:lib/tinyusb/src/common/tusb_types.h ****       uint8_t type      :  2; ///< Request type tusb_request_type_t.
 465:lib/tinyusb/src/common/tusb_types.h ****       uint8_t direction :  1; ///< Direction type. tusb_dir_t
 466:lib/tinyusb/src/common/tusb_types.h ****     } bmRequestType_bit;
 467:lib/tinyusb/src/common/tusb_types.h **** 
 468:lib/tinyusb/src/common/tusb_types.h ****     uint8_t bmRequestType;
 469:lib/tinyusb/src/common/tusb_types.h ****   };
 470:lib/tinyusb/src/common/tusb_types.h **** 
 471:lib/tinyusb/src/common/tusb_types.h ****   uint8_t  bRequest;
 472:lib/tinyusb/src/common/tusb_types.h ****   uint16_t wValue;
 473:lib/tinyusb/src/common/tusb_types.h ****   uint16_t wIndex;
 474:lib/tinyusb/src/common/tusb_types.h ****   uint16_t wLength;
 475:lib/tinyusb/src/common/tusb_types.h **** } tusb_control_request_t;
 476:lib/tinyusb/src/common/tusb_types.h **** 
 477:lib/tinyusb/src/common/tusb_types.h **** TU_VERIFY_STATIC( sizeof(tusb_control_request_t) == 8, "size is not correct");
 478:lib/tinyusb/src/common/tusb_types.h **** 
 479:lib/tinyusb/src/common/tusb_types.h **** TU_ATTR_PACKED_END  // End of all packed definitions
 480:lib/tinyusb/src/common/tusb_types.h **** TU_ATTR_BIT_FIELD_ORDER_END
 481:lib/tinyusb/src/common/tusb_types.h **** 
 482:lib/tinyusb/src/common/tusb_types.h **** //--------------------------------------------------------------------+
 483:lib/tinyusb/src/common/tusb_types.h **** // Endpoint helper
 484:lib/tinyusb/src/common/tusb_types.h **** //--------------------------------------------------------------------+
 485:lib/tinyusb/src/common/tusb_types.h **** 
 486:lib/tinyusb/src/common/tusb_types.h **** // Get direction from Endpoint address
 487:lib/tinyusb/src/common/tusb_types.h **** TU_ATTR_ALWAYS_INLINE static inline tusb_dir_t tu_edpt_dir(uint8_t addr) {
 488:lib/tinyusb/src/common/tusb_types.h ****   return (addr & TUSB_DIR_IN_MASK) ? TUSB_DIR_IN : TUSB_DIR_OUT;
 489:lib/tinyusb/src/common/tusb_types.h **** }
 490:lib/tinyusb/src/common/tusb_types.h **** 
 491:lib/tinyusb/src/common/tusb_types.h **** // Get Endpoint number from address
 492:lib/tinyusb/src/common/tusb_types.h **** TU_ATTR_ALWAYS_INLINE static inline uint8_t tu_edpt_number(uint8_t addr) {
 493:lib/tinyusb/src/common/tusb_types.h ****   return (uint8_t)(addr & (~TUSB_DIR_IN_MASK));
  40              		.loc 2 493 10 view .LVU4
  41 0002 01F07F0C 		and	ip, r1, #127
  42              	.LBE171:
  43              	.LBE170:
 126:lib/tinyusb/src/portable/synopsys/dwc2/dcd_dwc2.c ****   dwc2_regs_t* dwc2 = DWC2_REG(rhport);
  44              		.loc 1 126 79 view .LVU5
  45 0006 70B5     		push	{r4, r5, r6, lr}
  46              		.cfi_def_cfa_offset 16
  47              		.cfi_offset 4, -16
  48              		.cfi_offset 5, -12
  49              		.cfi_offset 6, -8
  50              		.cfi_offset 14, -4
  51              		.loc 1 128 17 view .LVU6
  52 0008 0501     		lsls	r5, r0, #4
  53 000a 03EB0010 		add	r0, r3, r0, lsl #4
  54              	.LVL1:
  55              		.loc 1 128 17 view .LVU7
  56 000e 90F808E0 		ldrb	lr, [r0, #8]	@ zero_extendqisi2
  57              	.LVL2:
 129:lib/tinyusb/src/portable/synopsys/dwc2/dcd_dwc2.c ****   uint8_t const epnum = tu_edpt_number(ep_addr);
  58              		.loc 1 129 3 is_stmt 1 view .LVU8
  59              	.LBB173:
  60              	.LBI170:
 492:lib/tinyusb/src/common/tusb_types.h ****   return (uint8_t)(addr & (~TUSB_DIR_IN_MASK));
  61              		.loc 2 492 45 view .LVU9
ARM GAS  /tmp/claude-502/ccFotbfS.s 			page 13


  62              	.LBB172:
  63              		.loc 2 493 3 view .LVU10
  64              		.loc 2 493 3 is_stmt 0 view .LVU11
  65              	.LBE172:
  66              	.LBE173:
 130:lib/tinyusb/src/portable/synopsys/dwc2/dcd_dwc2.c ****   uint8_t const dir = tu_edpt_dir(ep_addr);
  67              		.loc 1 130 3 is_stmt 1 view .LVU12
  68              	.LBB174:
  69              	.LBI174:
 487:lib/tinyusb/src/common/tusb_types.h ****   return (addr & TUSB_DIR_IN_MASK) ? TUSB_DIR_IN : TUSB_DIR_OUT;
  70              		.loc 2 487 48 view .LVU13
  71              	.LBB175:
 488:lib/tinyusb/src/common/tusb_types.h **** }
  72              		.loc 2 488 3 view .LVU14
 488:lib/tinyusb/src/common/tusb_types.h **** }
  73              		.loc 2 488 3 is_stmt 0 view .LVU15
  74              	.LBE175:
  75              	.LBE174:
 131:lib/tinyusb/src/portable/synopsys/dwc2/dcd_dwc2.c **** 
 132:lib/tinyusb/src/portable/synopsys/dwc2/dcd_dwc2.c ****   TU_ASSERT(epnum < ep_count);
  76              		.loc 1 132 3 is_stmt 1 view .LVU16
  77              		.loc 1 132 3 view .LVU17
  78 0012 E645     		cmp	lr, ip
  79 0014 18D9     		bls	.L15
  80              	.LBB176:
  81              	.LBB177:
  82              		.file 3 "lib/tinyusb/src/common/tusb_common.h"
   1:lib/tinyusb/src/common/tusb_common.h **** /*
   2:lib/tinyusb/src/common/tusb_common.h ****  * The MIT License (MIT)
   3:lib/tinyusb/src/common/tusb_common.h ****  *
   4:lib/tinyusb/src/common/tusb_common.h ****  * Copyright (c) 2019 Ha Thach (tinyusb.org)
   5:lib/tinyusb/src/common/tusb_common.h ****  *
   6:lib/tinyusb/src/common/tusb_common.h ****  * Permission is hereby granted, free of charge, to any person obtaining a copy
   7:lib/tinyusb/src/common/tusb_common.h ****  * of this software and associated documentation files (the "Software"), to deal
   8:lib/tinyusb/src/common/tusb_common.h ****  * in the Software without restriction, including without limitation the rights
   9:lib/tinyusb/src/common/tusb_common.h ****  * to use, copy, modify, merge, publish, distribute, sublicense, and/or sell
  10:lib/tinyusb/src/common/tusb_common.h ****  * copies of the Software, and to permit persons to whom the Software is
  11:lib/tinyusb/src/common/tusb_common.h ****  * furnished to do so, subject to the following conditions:
  12:lib/tinyusb/src/common/tusb_common.h ****  *
  13:lib/tinyusb/src/common/tusb_common.h ****  * The above copyright notice and this permission notice shall be included in
  14:lib/tinyusb/src/common/tusb_common.h ****  * all copies or substantial portions of the Software.
  15:lib/tinyusb/src/common/tusb_common.h ****  *
  16:lib/tinyusb/src/common/tusb_common.h ****  * THE SOFTWARE IS PROVIDED "AS IS", WITHOUT WARRANTY OF ANY KIND, EXPRESS OR
  17:lib/tinyusb/src/common/tusb_common.h ****  * IMPLIED, INCLUDING BUT NOT LIMITED TO THE WARRANTIES OF MERCHANTABILITY,
  18:lib/tinyusb/src/common/tusb_common.h ****  * FITNESS FOR A PARTICULAR PURPOSE AND NONINFRINGEMENT. IN NO EVENT SHALL THE
  19:lib/tinyusb/src/common/tusb_common.h ****  * AUTHORS OR COPYRIGHT HOLDERS BE LIABLE FOR ANY CLAIM, DAMAGES OR OTHER
  20:lib/tinyusb/src/common/tusb_common.h ****  * LIABILITY, WHETHER IN AN ACTION OF CONTRACT, TORT OR OTHERWISE, ARISING FROM,
  21:lib/tinyusb/src/common/tusb_common.h ****  * OUT OF OR IN CONNECTION WITH THE SOFTWARE OR THE USE OR OTHER DEALINGS IN
  22:lib/tinyusb/src/common/tusb_common.h ****  * THE SOFTWARE.
  23:lib/tinyusb/src/common/tusb_common.h ****  *
  24:lib/tinyusb/src/common/tusb_common.h ****  * This file is part of the TinyUSB stack.
  25:lib/tinyusb/src/common/tusb_common.h ****  */
  26:lib/tinyusb/src/common/tusb_common.h **** 
  27:lib/tinyusb/src/common/tusb_common.h **** #ifndef _TUSB_COMMON_H_
  28:lib/tinyusb/src/common/tusb_common.h **** #define _TUSB_COMMON_H_
  29:lib/tinyusb/src/common/tusb_common.h **** 
  30:lib/tinyusb/src/common/tusb_common.h **** #ifdef __cplusplus
ARM GAS  /tmp/claude-502/ccFotbfS.s 			page 14


  31:lib/tinyusb/src/common/tusb_common.h ****  extern "C" {
  32:lib/tinyusb/src/common/tusb_common.h **** #endif
  33:lib/tinyusb/src/common/tusb_common.h **** 
  34:lib/tinyusb/src/common/tusb_common.h **** //--------------------------------------------------------------------+
  35:lib/tinyusb/src/common/tusb_common.h **** // Macros Helper
  36:lib/tinyusb/src/common/tusb_common.h **** //--------------------------------------------------------------------+
  37:lib/tinyusb/src/common/tusb_common.h **** #define TU_ARRAY_SIZE(_arr)   ( sizeof(_arr) / sizeof(_arr[0]) )
  38:lib/tinyusb/src/common/tusb_common.h **** #define TU_MIN(_x, _y)        ( ( (_x) < (_y) ) ? (_x) : (_y) )
  39:lib/tinyusb/src/common/tusb_common.h **** #define TU_MAX(_x, _y)        ( ( (_x) > (_y) ) ? (_x) : (_y) )
  40:lib/tinyusb/src/common/tusb_common.h **** #define TU_DIV_CEIL(n, d)     (((n) + (d) - 1) / (d))
  41:lib/tinyusb/src/common/tusb_common.h **** 
  42:lib/tinyusb/src/common/tusb_common.h **** #define TU_U16(_high, _low)   ((uint16_t) (((_high) << 8) | (_low)))
  43:lib/tinyusb/src/common/tusb_common.h **** #define TU_U16_HIGH(_u16)     ((uint8_t) (((_u16) >> 8) & 0x00ff))
  44:lib/tinyusb/src/common/tusb_common.h **** #define TU_U16_LOW(_u16)      ((uint8_t) ((_u16)       & 0x00ff))
  45:lib/tinyusb/src/common/tusb_common.h **** #define U16_TO_U8S_BE(_u16)   TU_U16_HIGH(_u16), TU_U16_LOW(_u16)
  46:lib/tinyusb/src/common/tusb_common.h **** #define U16_TO_U8S_LE(_u16)   TU_U16_LOW(_u16), TU_U16_HIGH(_u16)
  47:lib/tinyusb/src/common/tusb_common.h **** 
  48:lib/tinyusb/src/common/tusb_common.h **** #define TU_U32_BYTE3(_u32)    ((uint8_t) ((((uint32_t) _u32) >> 24) & 0x000000ff)) // MSB
  49:lib/tinyusb/src/common/tusb_common.h **** #define TU_U32_BYTE2(_u32)    ((uint8_t) ((((uint32_t) _u32) >> 16) & 0x000000ff))
  50:lib/tinyusb/src/common/tusb_common.h **** #define TU_U32_BYTE1(_u32)    ((uint8_t) ((((uint32_t) _u32) >>  8) & 0x000000ff))
  51:lib/tinyusb/src/common/tusb_common.h **** #define TU_U32_BYTE0(_u32)    ((uint8_t) (((uint32_t)  _u32)        & 0x000000ff)) // LSB
  52:lib/tinyusb/src/common/tusb_common.h **** 
  53:lib/tinyusb/src/common/tusb_common.h **** #define U32_TO_U8S_BE(_u32)   TU_U32_BYTE3(_u32), TU_U32_BYTE2(_u32), TU_U32_BYTE1(_u32), TU_U32_BY
  54:lib/tinyusb/src/common/tusb_common.h **** #define U32_TO_U8S_LE(_u32)   TU_U32_BYTE0(_u32), TU_U32_BYTE1(_u32), TU_U32_BYTE2(_u32), TU_U32_BY
  55:lib/tinyusb/src/common/tusb_common.h **** 
  56:lib/tinyusb/src/common/tusb_common.h **** #define TU_BIT(n)             (1UL << (n))
  57:lib/tinyusb/src/common/tusb_common.h **** 
  58:lib/tinyusb/src/common/tusb_common.h **** // Generate a mask with bit from high (31) to low (0) set, e.g TU_GENMASK(3, 0) = 0b1111
  59:lib/tinyusb/src/common/tusb_common.h **** #define TU_GENMASK(h, l)      ( (UINT32_MAX << (l)) & (UINT32_MAX >> (31 - (h))) )
  60:lib/tinyusb/src/common/tusb_common.h **** 
  61:lib/tinyusb/src/common/tusb_common.h **** //--------------------------------------------------------------------+
  62:lib/tinyusb/src/common/tusb_common.h **** // Includes
  63:lib/tinyusb/src/common/tusb_common.h **** //--------------------------------------------------------------------+
  64:lib/tinyusb/src/common/tusb_common.h **** 
  65:lib/tinyusb/src/common/tusb_common.h **** // Standard Headers
  66:lib/tinyusb/src/common/tusb_common.h **** #include <stdbool.h>
  67:lib/tinyusb/src/common/tusb_common.h **** #include <stdint.h>
  68:lib/tinyusb/src/common/tusb_common.h **** #include <inttypes.h>
  69:lib/tinyusb/src/common/tusb_common.h **** #include <stddef.h>
  70:lib/tinyusb/src/common/tusb_common.h **** #include <string.h>
  71:lib/tinyusb/src/common/tusb_common.h **** #include <stdio.h>
  72:lib/tinyusb/src/common/tusb_common.h **** 
  73:lib/tinyusb/src/common/tusb_common.h **** // Tinyusb Common Headers
  74:lib/tinyusb/src/common/tusb_common.h **** #include "tusb_option.h"
  75:lib/tinyusb/src/common/tusb_common.h **** #include "tusb_compiler.h"
  76:lib/tinyusb/src/common/tusb_common.h **** #include "tusb_verify.h"
  77:lib/tinyusb/src/common/tusb_common.h **** #include "tusb_types.h"
  78:lib/tinyusb/src/common/tusb_common.h **** #include "tusb_debug.h"
  79:lib/tinyusb/src/common/tusb_common.h **** 
  80:lib/tinyusb/src/common/tusb_common.h **** //--------------------------------------------------------------------+
  81:lib/tinyusb/src/common/tusb_common.h **** // Optional API implemented by application if needed
  82:lib/tinyusb/src/common/tusb_common.h **** // TODO move to a more ovious place/file
  83:lib/tinyusb/src/common/tusb_common.h **** //--------------------------------------------------------------------+
  84:lib/tinyusb/src/common/tusb_common.h **** 
  85:lib/tinyusb/src/common/tusb_common.h **** // flush data cache
  86:lib/tinyusb/src/common/tusb_common.h **** TU_ATTR_WEAK extern void tusb_app_dcache_flush(uintptr_t addr, uint32_t data_size);
  87:lib/tinyusb/src/common/tusb_common.h **** 
ARM GAS  /tmp/claude-502/ccFotbfS.s 			page 15


  88:lib/tinyusb/src/common/tusb_common.h **** // invalidate data cache
  89:lib/tinyusb/src/common/tusb_common.h **** TU_ATTR_WEAK extern void tusb_app_dcache_invalidate(uintptr_t addr, uint32_t data_size);
  90:lib/tinyusb/src/common/tusb_common.h **** 
  91:lib/tinyusb/src/common/tusb_common.h **** // Optional physical <-> virtual address translation
  92:lib/tinyusb/src/common/tusb_common.h **** TU_ATTR_WEAK extern void* tusb_app_virt_to_phys(void *virt_addr);
  93:lib/tinyusb/src/common/tusb_common.h **** TU_ATTR_WEAK extern void* tusb_app_phys_to_virt(void *phys_addr);
  94:lib/tinyusb/src/common/tusb_common.h **** 
  95:lib/tinyusb/src/common/tusb_common.h **** //--------------------------------------------------------------------+
  96:lib/tinyusb/src/common/tusb_common.h **** // Internal Inline Functions
  97:lib/tinyusb/src/common/tusb_common.h **** //--------------------------------------------------------------------+
  98:lib/tinyusb/src/common/tusb_common.h **** 
  99:lib/tinyusb/src/common/tusb_common.h **** //------------- Mem -------------//
 100:lib/tinyusb/src/common/tusb_common.h **** #define tu_memclr(buffer, size)  memset((buffer), 0, (size))
 101:lib/tinyusb/src/common/tusb_common.h **** #define tu_varclr(_var)          tu_memclr(_var, sizeof(*(_var)))
 102:lib/tinyusb/src/common/tusb_common.h **** 
 103:lib/tinyusb/src/common/tusb_common.h **** // This is a backport of memset_s from c11
 104:lib/tinyusb/src/common/tusb_common.h **** TU_ATTR_ALWAYS_INLINE static inline int tu_memset_s(void *dest, size_t destsz, int ch, size_t count
 105:lib/tinyusb/src/common/tusb_common.h ****   // TODO may check if desst and src is not NULL
 106:lib/tinyusb/src/common/tusb_common.h ****   if ( count > destsz ) {
 107:lib/tinyusb/src/common/tusb_common.h ****     return -1;
 108:lib/tinyusb/src/common/tusb_common.h ****   }
 109:lib/tinyusb/src/common/tusb_common.h ****   memset(dest, ch, count);
 110:lib/tinyusb/src/common/tusb_common.h ****   return 0;
 111:lib/tinyusb/src/common/tusb_common.h **** }
 112:lib/tinyusb/src/common/tusb_common.h **** 
 113:lib/tinyusb/src/common/tusb_common.h **** // This is a backport of memcpy_s from c11
 114:lib/tinyusb/src/common/tusb_common.h **** TU_ATTR_ALWAYS_INLINE static inline int tu_memcpy_s(void *dest, size_t destsz, const void *src, siz
 115:lib/tinyusb/src/common/tusb_common.h ****   // TODO may check if desst and src is not NULL
 116:lib/tinyusb/src/common/tusb_common.h ****   if ( count > destsz ) {
 117:lib/tinyusb/src/common/tusb_common.h ****     return -1;
 118:lib/tinyusb/src/common/tusb_common.h ****   }
 119:lib/tinyusb/src/common/tusb_common.h ****   memcpy(dest, src, count);
 120:lib/tinyusb/src/common/tusb_common.h ****   return 0;
 121:lib/tinyusb/src/common/tusb_common.h **** }
 122:lib/tinyusb/src/common/tusb_common.h **** 
 123:lib/tinyusb/src/common/tusb_common.h **** 
 124:lib/tinyusb/src/common/tusb_common.h **** //------------- Bytes -------------//
 125:lib/tinyusb/src/common/tusb_common.h **** TU_ATTR_ALWAYS_INLINE static inline uint32_t tu_u32(uint8_t b3, uint8_t b2, uint8_t b1, uint8_t b0)
 126:lib/tinyusb/src/common/tusb_common.h ****   return ( ((uint32_t) b3) << 24) | ( ((uint32_t) b2) << 16) | ( ((uint32_t) b1) << 8) | b0;
 127:lib/tinyusb/src/common/tusb_common.h **** }
 128:lib/tinyusb/src/common/tusb_common.h **** 
 129:lib/tinyusb/src/common/tusb_common.h **** TU_ATTR_ALWAYS_INLINE static inline uint16_t tu_u16(uint8_t high, uint8_t low) {
 130:lib/tinyusb/src/common/tusb_common.h ****   return (uint16_t) ((((uint16_t) high) << 8) | low);
 131:lib/tinyusb/src/common/tusb_common.h **** }
 132:lib/tinyusb/src/common/tusb_common.h **** 
 133:lib/tinyusb/src/common/tusb_common.h **** TU_ATTR_ALWAYS_INLINE static inline uint8_t tu_u32_byte3(uint32_t ui32) { return TU_U32_BYTE3(ui32)
 134:lib/tinyusb/src/common/tusb_common.h **** TU_ATTR_ALWAYS_INLINE static inline uint8_t tu_u32_byte2(uint32_t ui32) { return TU_U32_BYTE2(ui32)
 135:lib/tinyusb/src/common/tusb_common.h **** TU_ATTR_ALWAYS_INLINE static inline uint8_t tu_u32_byte1(uint32_t ui32) { return TU_U32_BYTE1(ui32)
 136:lib/tinyusb/src/common/tusb_common.h **** TU_ATTR_ALWAYS_INLINE static inline uint8_t tu_u32_byte0(uint32_t ui32) { return TU_U32_BYTE0(ui32)
 137:lib/tinyusb/src/common/tusb_common.h **** 
 138:lib/tinyusb/src/common/tusb_common.h **** TU_ATTR_ALWAYS_INLINE static inline uint16_t tu_u32_high16(uint32_t ui32) { return (uint16_t) (ui32
 139:lib/tinyusb/src/common/tusb_common.h **** TU_ATTR_ALWAYS_INLINE static inline uint16_t tu_u32_low16 (uint32_t ui32) { return (uint16_t) (ui32
 140:lib/tinyusb/src/common/tusb_common.h **** 
 141:lib/tinyusb/src/common/tusb_common.h **** TU_ATTR_ALWAYS_INLINE static inline uint8_t tu_u16_high(uint16_t ui16) { return TU_U16_HIGH(ui16); 
 142:lib/tinyusb/src/common/tusb_common.h **** TU_ATTR_ALWAYS_INLINE static inline uint8_t tu_u16_low (uint16_t ui16) { return TU_U16_LOW(ui16); }
 143:lib/tinyusb/src/common/tusb_common.h **** 
 144:lib/tinyusb/src/common/tusb_common.h **** //------------- Bits -------------//
ARM GAS  /tmp/claude-502/ccFotbfS.s 			page 16


 145:lib/tinyusb/src/common/tusb_common.h **** TU_ATTR_ALWAYS_INLINE static inline uint32_t tu_bit_set  (uint32_t value, uint8_t pos) { return val
 146:lib/tinyusb/src/common/tusb_common.h **** TU_ATTR_ALWAYS_INLINE static inline uint32_t tu_bit_clear(uint32_t value, uint8_t pos) { return val
 147:lib/tinyusb/src/common/tusb_common.h **** TU_ATTR_ALWAYS_INLINE static inline bool     tu_bit_test (uint32_t value, uint8_t pos) { return (va
 148:lib/tinyusb/src/common/tusb_common.h **** 
 149:lib/tinyusb/src/common/tusb_common.h **** //------------- Min -------------//
 150:lib/tinyusb/src/common/tusb_common.h **** TU_ATTR_ALWAYS_INLINE static inline uint8_t  tu_min8  (uint8_t  x, uint8_t y ) { return (x < y) ? x
 151:lib/tinyusb/src/common/tusb_common.h **** TU_ATTR_ALWAYS_INLINE static inline uint16_t tu_min16 (uint16_t x, uint16_t y) { return (x < y) ? x
 152:lib/tinyusb/src/common/tusb_common.h **** TU_ATTR_ALWAYS_INLINE static inline uint32_t tu_min32 (uint32_t x, uint32_t y) { return (x < y) ? x
 153:lib/tinyusb/src/common/tusb_common.h **** 
 154:lib/tinyusb/src/common/tusb_common.h **** //------------- Max -------------//
 155:lib/tinyusb/src/common/tusb_common.h **** TU_ATTR_ALWAYS_INLINE static inline uint8_t  tu_max8  (uint8_t  x, uint8_t y ) { return (x > y) ? x
 156:lib/tinyusb/src/common/tusb_common.h **** TU_ATTR_ALWAYS_INLINE static inline uint16_t tu_max16 (uint16_t x, uint16_t y) { return (x > y) ? x
 157:lib/tinyusb/src/common/tusb_common.h **** TU_ATTR_ALWAYS_INLINE static inline uint32_t tu_max32 (uint32_t x, uint32_t y) { return (x > y) ? x
 158:lib/tinyusb/src/common/tusb_common.h **** 
 159:lib/tinyusb/src/common/tusb_common.h **** //------------- Align -------------//
 160:lib/tinyusb/src/common/tusb_common.h **** TU_ATTR_ALWAYS_INLINE static inline uint32_t tu_align(uint32_t value, uint32_t alignment) {
 161:lib/tinyusb/src/common/tusb_common.h ****   return value & ((uint32_t) ~(alignment-1));
 162:lib/tinyusb/src/common/tusb_common.h **** }
 163:lib/tinyusb/src/common/tusb_common.h **** 
 164:lib/tinyusb/src/common/tusb_common.h **** TU_ATTR_ALWAYS_INLINE static inline uint32_t tu_align4  (uint32_t value) { return (value & 0xFFFFFF
 165:lib/tinyusb/src/common/tusb_common.h **** TU_ATTR_ALWAYS_INLINE static inline uint32_t tu_align8  (uint32_t value) { return (value & 0xFFFFFF
 166:lib/tinyusb/src/common/tusb_common.h **** TU_ATTR_ALWAYS_INLINE static inline uint32_t tu_align16 (uint32_t value) { return (value & 0xFFFFFF
 167:lib/tinyusb/src/common/tusb_common.h **** TU_ATTR_ALWAYS_INLINE static inline uint32_t tu_align32 (uint32_t value) { return (value & 0xFFFFFF
 168:lib/tinyusb/src/common/tusb_common.h **** TU_ATTR_ALWAYS_INLINE static inline uint32_t tu_align4k (uint32_t value) { return (value & 0xFFFFF0
 169:lib/tinyusb/src/common/tusb_common.h **** TU_ATTR_ALWAYS_INLINE static inline uint32_t tu_offset4k(uint32_t value) { return (value & 0xFFFUL)
 170:lib/tinyusb/src/common/tusb_common.h **** 
 171:lib/tinyusb/src/common/tusb_common.h **** TU_ATTR_ALWAYS_INLINE static inline bool tu_is_aligned32(uint32_t value) { return (value & 0x1FUL) 
 172:lib/tinyusb/src/common/tusb_common.h **** TU_ATTR_ALWAYS_INLINE static inline bool tu_is_aligned64(uint64_t value) { return (value & 0x3FUL) 
 173:lib/tinyusb/src/common/tusb_common.h **** 
 174:lib/tinyusb/src/common/tusb_common.h **** //------------- Mathematics -------------//
 175:lib/tinyusb/src/common/tusb_common.h **** TU_ATTR_ALWAYS_INLINE static inline uint32_t tu_div_ceil(uint32_t v, uint32_t d) { return (v + d -1
  83              		.loc 3 175 98 is_stmt 0 discriminator 2 view .LVU18
  84 0016 0332     		adds	r2, r2, #3
  85              	.LVL3:
  86              		.loc 3 175 98 discriminator 2 view .LVU19
  87              	.LBE177:
  88              	.LBE176:
 133:lib/tinyusb/src/portable/synopsys/dwc2/dcd_dwc2.c **** 
 134:lib/tinyusb/src/portable/synopsys/dwc2/dcd_dwc2.c ****   uint16_t fifo_size = tu_div_ceil(packet_size, 4);
 135:lib/tinyusb/src/portable/synopsys/dwc2/dcd_dwc2.c **** 
 136:lib/tinyusb/src/portable/synopsys/dwc2/dcd_dwc2.c ****   // "USB Data FIFOs" section in reference manual
 137:lib/tinyusb/src/portable/synopsys/dwc2/dcd_dwc2.c ****   // Peripheral FIFO architecture
 138:lib/tinyusb/src/portable/synopsys/dwc2/dcd_dwc2.c ****   //
 139:lib/tinyusb/src/portable/synopsys/dwc2/dcd_dwc2.c ****   // --------------- 320 or 1024 ( 1280 or 4096 bytes )
 140:lib/tinyusb/src/portable/synopsys/dwc2/dcd_dwc2.c ****   // | IN FIFO 0   |
 141:lib/tinyusb/src/portable/synopsys/dwc2/dcd_dwc2.c ****   // --------------- (320 or 1024) - 16
 142:lib/tinyusb/src/portable/synopsys/dwc2/dcd_dwc2.c ****   // | IN FIFO 1   |
 143:lib/tinyusb/src/portable/synopsys/dwc2/dcd_dwc2.c ****   // --------------- (320 or 1024) - 16 - x
 144:lib/tinyusb/src/portable/synopsys/dwc2/dcd_dwc2.c ****   // |   . . . .   |
 145:lib/tinyusb/src/portable/synopsys/dwc2/dcd_dwc2.c ****   // --------------- (320 or 1024) - 16 - x - y - ... - z
 146:lib/tinyusb/src/portable/synopsys/dwc2/dcd_dwc2.c ****   // | IN FIFO MAX |
 147:lib/tinyusb/src/portable/synopsys/dwc2/dcd_dwc2.c ****   // ---------------
 148:lib/tinyusb/src/portable/synopsys/dwc2/dcd_dwc2.c ****   // |    FREE     |
 149:lib/tinyusb/src/portable/synopsys/dwc2/dcd_dwc2.c ****   // --------------- GRXFSIZ
 150:lib/tinyusb/src/portable/synopsys/dwc2/dcd_dwc2.c ****   // | OUT FIFO    |
 151:lib/tinyusb/src/portable/synopsys/dwc2/dcd_dwc2.c ****   // | ( Shared )  |
 152:lib/tinyusb/src/portable/synopsys/dwc2/dcd_dwc2.c ****   // --------------- 0
ARM GAS  /tmp/claude-502/ccFotbfS.s 			page 17


 153:lib/tinyusb/src/portable/synopsys/dwc2/dcd_dwc2.c ****   //
 154:lib/tinyusb/src/portable/synopsys/dwc2/dcd_dwc2.c ****   // In FIFO is allocated by following rules:
 155:lib/tinyusb/src/portable/synopsys/dwc2/dcd_dwc2.c ****   // - IN EP 1 gets FIFO 1, IN EP "n" gets FIFO "n".
 156:lib/tinyusb/src/portable/synopsys/dwc2/dcd_dwc2.c ****   if (dir == TUSB_DIR_OUT) {
  89              		.loc 1 156 6 discriminator 2 view .LVU20
  90 0018 C909     		lsrs	r1, r1, #7
  91              	.LVL4:
 127:lib/tinyusb/src/portable/synopsys/dwc2/dcd_dwc2.c ****   uint8_t const ep_count = _dwc2_controller[rhport].ep_count;
  92              		.loc 1 127 16 discriminator 2 view .LVU21
  93 001a 5C59     		ldr	r4, [r3, r5]
 132:lib/tinyusb/src/portable/synopsys/dwc2/dcd_dwc2.c **** 
  94              		.loc 1 132 3 is_stmt 1 discriminator 2 view .LVU22
 134:lib/tinyusb/src/portable/synopsys/dwc2/dcd_dwc2.c **** 
  95              		.loc 1 134 3 discriminator 2 view .LVU23
  96              	.LVL5:
  97              	.LBB179:
  98              	.LBI176:
  99              		.loc 3 175 46 discriminator 2 view .LVU24
 100              	.LBB178:
 101              		.loc 3 175 84 discriminator 2 view .LVU25
 102              		.loc 3 175 84 is_stmt 0 discriminator 2 view .LVU26
 103              	.LBE178:
 104              	.LBE179:
 134:lib/tinyusb/src/portable/synopsys/dwc2/dcd_dwc2.c **** 
 105              		.loc 1 134 12 discriminator 2 view .LVU27
 106 001c 4FEA9202 		lsr	r2, r2, #2
 107              	.LVL6:
 108              		.loc 1 156 3 is_stmt 1 discriminator 2 view .LVU28
 109              		.loc 1 156 6 is_stmt 0 discriminator 2 view .LVU29
 110 0020 1CD1     		bne	.L4
 111              	.LBB180:
 157:lib/tinyusb/src/portable/synopsys/dwc2/dcd_dwc2.c ****     // Calculate required size of RX FIFO
 158:lib/tinyusb/src/portable/synopsys/dwc2/dcd_dwc2.c ****     uint16_t const sz = calc_grxfsiz(4 * fifo_size, ep_count);
 112              		.loc 1 158 5 is_stmt 1 view .LVU30
 113              	.LVL7:
 114              	.LBB181:
 115              	.LBI181:
 111:lib/tinyusb/src/portable/synopsys/dwc2/dcd_dwc2.c ****   return 15 + 2 * (max_ep_size / 4) + 2 * ep_count;
 116              		.loc 1 111 24 view .LVU31
 117              	.LBB182:
 112:lib/tinyusb/src/portable/synopsys/dwc2/dcd_dwc2.c **** }
 118              		.loc 1 112 3 view .LVU32
 112:lib/tinyusb/src/portable/synopsys/dwc2/dcd_dwc2.c **** }
 119              		.loc 1 112 37 is_stmt 0 view .LVU33
 120 0022 C2F30D03 		ubfx	r3, r2, #0, #14
 121              	.LBE182:
 122              	.LBE181:
 159:lib/tinyusb/src/portable/synopsys/dwc2/dcd_dwc2.c **** 
 160:lib/tinyusb/src/portable/synopsys/dwc2/dcd_dwc2.c ****     // If size_rx needs to be extended check if possible and if so enlarge it
 161:lib/tinyusb/src/portable/synopsys/dwc2/dcd_dwc2.c ****     if (dwc2->grxfsiz < sz) {
 123              		.loc 1 161 13 view .LVU34
 124 0026 626A     		ldr	r2, [r4, #36]
 125              	.LVL8:
 126              	.LBB184:
 127              	.LBB183:
 112:lib/tinyusb/src/portable/synopsys/dwc2/dcd_dwc2.c **** }
 128              		.loc 1 112 37 view .LVU35
ARM GAS  /tmp/claude-502/ccFotbfS.s 			page 18


 129 0028 7344     		add	r3, r3, lr
 130 002a 5B00     		lsls	r3, r3, #1
 131 002c 0F33     		adds	r3, r3, #15
 132 002e 9BB2     		uxth	r3, r3
 133              	.LVL9:
 112:lib/tinyusb/src/portable/synopsys/dwc2/dcd_dwc2.c **** }
 134              		.loc 1 112 37 view .LVU36
 135              	.LBE183:
 136              	.LBE184:
 137              		.loc 1 161 5 is_stmt 1 view .LVU37
 138              		.loc 1 161 8 is_stmt 0 view .LVU38
 139 0030 9A42     		cmp	r2, r3
 140 0032 2ED2     		bcs	.L9
 162:lib/tinyusb/src/portable/synopsys/dwc2/dcd_dwc2.c ****       TU_ASSERT(sz + _allocated_fifo_words_tx <= _dwc2_controller[rhport].ep_fifo_size / 4);
 141              		.loc 1 162 7 is_stmt 1 view .LVU39
 142              		.loc 1 162 7 view .LVU40
 143 0034 1A4A     		ldr	r2, .L19+4
 144 0036 C068     		ldr	r0, [r0, #12]
 145 0038 1288     		ldrh	r2, [r2]
 146 003a 1A44     		add	r2, r2, r3
 147 003c B2EB900F 		cmp	r2, r0, lsr #2
 148 0040 02D8     		bhi	.L15
 149              		.loc 1 162 7 discriminator 2 view .LVU41
 163:lib/tinyusb/src/portable/synopsys/dwc2/dcd_dwc2.c **** 
 164:lib/tinyusb/src/portable/synopsys/dwc2/dcd_dwc2.c ****       // Enlarge RX FIFO
 165:lib/tinyusb/src/portable/synopsys/dwc2/dcd_dwc2.c ****       dwc2->grxfsiz = sz;
 150              		.loc 1 165 7 discriminator 2 view .LVU42
 151              	.LBE180:
 166:lib/tinyusb/src/portable/synopsys/dwc2/dcd_dwc2.c ****     }
 167:lib/tinyusb/src/portable/synopsys/dwc2/dcd_dwc2.c ****   } else {
 168:lib/tinyusb/src/portable/synopsys/dwc2/dcd_dwc2.c ****     // Note if The TXFELVL is configured as half empty. In order
 169:lib/tinyusb/src/portable/synopsys/dwc2/dcd_dwc2.c ****     // to be able to write a packet at that point, the fifo must be twice the max_size.
 170:lib/tinyusb/src/portable/synopsys/dwc2/dcd_dwc2.c ****     if ((dwc2->gahbcfg & GAHBCFG_TXFELVL) == 0) {
 171:lib/tinyusb/src/portable/synopsys/dwc2/dcd_dwc2.c ****       fifo_size *= 2;
 172:lib/tinyusb/src/portable/synopsys/dwc2/dcd_dwc2.c ****     }
 173:lib/tinyusb/src/portable/synopsys/dwc2/dcd_dwc2.c **** 
 174:lib/tinyusb/src/portable/synopsys/dwc2/dcd_dwc2.c ****     // Check if free space is available
 175:lib/tinyusb/src/portable/synopsys/dwc2/dcd_dwc2.c ****     TU_ASSERT(_allocated_fifo_words_tx + fifo_size + dwc2->grxfsiz <= _dwc2_controller[rhport].ep_f
 176:lib/tinyusb/src/portable/synopsys/dwc2/dcd_dwc2.c ****     _allocated_fifo_words_tx += fifo_size;
 177:lib/tinyusb/src/portable/synopsys/dwc2/dcd_dwc2.c ****     TU_LOG(DWC2_DEBUG, "    Allocated %u bytes at offset %" PRIu32, fifo_size * 4,
 178:lib/tinyusb/src/portable/synopsys/dwc2/dcd_dwc2.c ****            _dwc2_controller[rhport].ep_fifo_size - _allocated_fifo_words_tx * 4);
 179:lib/tinyusb/src/portable/synopsys/dwc2/dcd_dwc2.c **** 
 180:lib/tinyusb/src/portable/synopsys/dwc2/dcd_dwc2.c ****     // DIEPTXF starts at FIFO #1.
 181:lib/tinyusb/src/portable/synopsys/dwc2/dcd_dwc2.c ****     // Both TXFD and TXSA are in unit of 32-bit words.
 182:lib/tinyusb/src/portable/synopsys/dwc2/dcd_dwc2.c ****     dwc2->dieptxf[epnum - 1] = (fifo_size << DIEPTXF_INEPTXFD_Pos) |
 183:lib/tinyusb/src/portable/synopsys/dwc2/dcd_dwc2.c ****                                (_dwc2_controller[rhport].ep_fifo_size / 4 - _allocated_fifo_words_t
 184:lib/tinyusb/src/portable/synopsys/dwc2/dcd_dwc2.c ****   }
 185:lib/tinyusb/src/portable/synopsys/dwc2/dcd_dwc2.c **** 
 186:lib/tinyusb/src/portable/synopsys/dwc2/dcd_dwc2.c ****   return true;
 152              		.loc 1 186 10 is_stmt 0 discriminator 2 view .LVU43
 153 0042 0120     		movs	r0, #1
 154              	.LBB185:
 165:lib/tinyusb/src/portable/synopsys/dwc2/dcd_dwc2.c ****     }
 155              		.loc 1 165 21 discriminator 2 view .LVU44
 156 0044 6362     		str	r3, [r4, #36]
 157              	.LVL10:
 158              	.L3:
ARM GAS  /tmp/claude-502/ccFotbfS.s 			page 19


 165:lib/tinyusb/src/portable/synopsys/dwc2/dcd_dwc2.c ****     }
 159              		.loc 1 165 21 discriminator 2 view .LVU45
 160              	.LBE185:
 187:lib/tinyusb/src/portable/synopsys/dwc2/dcd_dwc2.c **** }
 161              		.loc 1 187 1 view .LVU46
 162 0046 70BD     		pop	{r4, r5, r6, pc}
 163              	.L15:
 175:lib/tinyusb/src/portable/synopsys/dwc2/dcd_dwc2.c ****     _allocated_fifo_words_tx += fifo_size;
 164              		.loc 1 175 5 is_stmt 1 discriminator 1 view .LVU47
 175:lib/tinyusb/src/portable/synopsys/dwc2/dcd_dwc2.c ****     _allocated_fifo_words_tx += fifo_size;
 165              		.loc 1 175 5 discriminator 1 view .LVU48
 175:lib/tinyusb/src/portable/synopsys/dwc2/dcd_dwc2.c ****     _allocated_fifo_words_tx += fifo_size;
 166              		.loc 1 175 5 discriminator 1 view .LVU49
 175:lib/tinyusb/src/portable/synopsys/dwc2/dcd_dwc2.c ****     _allocated_fifo_words_tx += fifo_size;
 167              		.loc 1 175 5 discriminator 1 view .LVU50
 168              	.LBB186:
 175:lib/tinyusb/src/portable/synopsys/dwc2/dcd_dwc2.c ****     _allocated_fifo_words_tx += fifo_size;
 169              		.loc 1 175 5 discriminator 1 view .LVU51
 170              	.LVL11:
 175:lib/tinyusb/src/portable/synopsys/dwc2/dcd_dwc2.c ****     _allocated_fifo_words_tx += fifo_size;
 171              		.loc 1 175 5 discriminator 1 view .LVU52
 172 0048 4FF0E023 		mov	r3, #-536813568
 173 004c D3F8F00D 		ldr	r0, [r3, #3568]
 174 0050 10F00100 		ands	r0, r0, #1
 175 0054 F7D0     		beq	.L3
 175:lib/tinyusb/src/portable/synopsys/dwc2/dcd_dwc2.c ****     _allocated_fifo_words_tx += fifo_size;
 176              		.loc 1 175 5 discriminator 3 view .LVU53
 177              		.syntax unified
 178              	@ 175 "lib/tinyusb/src/portable/synopsys/dwc2/dcd_dwc2.c" 1
 179 0056 00BE     		BKPT #0
 180              	
 181              	@ 0 "" 2
 182              		.thumb
 183              		.syntax unified
 184              	.LBE186:
 185 0058 0020     		movs	r0, #0
 186              		.loc 1 187 1 is_stmt 0 discriminator 3 view .LVU54
 187 005a 70BD     		pop	{r4, r5, r6, pc}
 188              	.LVL12:
 189              	.L4:
 170:lib/tinyusb/src/portable/synopsys/dwc2/dcd_dwc2.c ****       fifo_size *= 2;
 190              		.loc 1 170 5 is_stmt 1 view .LVU55
 170:lib/tinyusb/src/portable/synopsys/dwc2/dcd_dwc2.c ****       fifo_size *= 2;
 191              		.loc 1 170 14 is_stmt 0 view .LVU56
 192 005c A168     		ldr	r1, [r4, #8]
 170:lib/tinyusb/src/portable/synopsys/dwc2/dcd_dwc2.c ****       fifo_size *= 2;
 193              		.loc 1 170 8 view .LVU57
 194 005e 0906     		lsls	r1, r1, #24
 195 0060 19D5     		bpl	.L18
 196              	.L6:
 175:lib/tinyusb/src/portable/synopsys/dwc2/dcd_dwc2.c ****     _allocated_fifo_words_tx += fifo_size;
 197              		.loc 1 175 5 is_stmt 1 view .LVU58
 175:lib/tinyusb/src/portable/synopsys/dwc2/dcd_dwc2.c ****     _allocated_fifo_words_tx += fifo_size;
 198              		.loc 1 175 5 view .LVU59
 199 0062 2B44     		add	r3, r3, r5
 200 0064 0E4E     		ldr	r6, .L19+4
 201 0066 606A     		ldr	r0, [r4, #36]
ARM GAS  /tmp/claude-502/ccFotbfS.s 			page 20


 202 0068 DD68     		ldr	r5, [r3, #12]
 203 006a 3388     		ldrh	r3, [r6]
 204 006c A908     		lsrs	r1, r5, #2
 205 006e 1344     		add	r3, r3, r2
 206 0070 1844     		add	r0, r0, r3
 207 0072 B0EB950F 		cmp	r0, r5, lsr #2
 208 0076 E7D8     		bhi	.L15
 175:lib/tinyusb/src/portable/synopsys/dwc2/dcd_dwc2.c ****     _allocated_fifo_words_tx += fifo_size;
 209              		.loc 1 175 5 discriminator 2 view .LVU60
 176:lib/tinyusb/src/portable/synopsys/dwc2/dcd_dwc2.c ****     TU_LOG(DWC2_DEBUG, "    Allocated %u bytes at offset %" PRIu32, fifo_size * 4,
 210              		.loc 1 176 5 discriminator 2 view .LVU61
 176:lib/tinyusb/src/portable/synopsys/dwc2/dcd_dwc2.c ****     TU_LOG(DWC2_DEBUG, "    Allocated %u bytes at offset %" PRIu32, fifo_size * 4,
 211              		.loc 1 176 30 is_stmt 0 discriminator 2 view .LVU62
 212 0078 9BB2     		uxth	r3, r3
 182:lib/tinyusb/src/portable/synopsys/dwc2/dcd_dwc2.c ****                                (_dwc2_controller[rhport].ep_fifo_size / 4 - _allocated_fifo_words_t
 213              		.loc 1 182 30 discriminator 2 view .LVU63
 214 007a 0CF13F0C 		add	ip, ip, #63
 215              	.LVL13:
 186:lib/tinyusb/src/portable/synopsys/dwc2/dcd_dwc2.c **** }
 216              		.loc 1 186 10 discriminator 2 view .LVU64
 217 007e 0120     		movs	r0, #1
 176:lib/tinyusb/src/portable/synopsys/dwc2/dcd_dwc2.c ****     TU_LOG(DWC2_DEBUG, "    Allocated %u bytes at offset %" PRIu32, fifo_size * 4,
 218              		.loc 1 176 30 discriminator 2 view .LVU65
 219 0080 3380     		strh	r3, [r6]	@ movhi
 178:lib/tinyusb/src/portable/synopsys/dwc2/dcd_dwc2.c **** 
 220              		.loc 1 178 81 is_stmt 1 discriminator 2 view .LVU66
 182:lib/tinyusb/src/portable/synopsys/dwc2/dcd_dwc2.c ****                                (_dwc2_controller[rhport].ep_fifo_size / 4 - _allocated_fifo_words_t
 221              		.loc 1 182 5 discriminator 2 view .LVU67
 183:lib/tinyusb/src/portable/synopsys/dwc2/dcd_dwc2.c ****   }
 222              		.loc 1 183 75 is_stmt 0 discriminator 2 view .LVU68
 223 0082 CB1A     		subs	r3, r1, r3
 182:lib/tinyusb/src/portable/synopsys/dwc2/dcd_dwc2.c ****                                (_dwc2_controller[rhport].ep_fifo_size / 4 - _allocated_fifo_words_t
 224              		.loc 1 182 30 discriminator 2 view .LVU69
 225 0084 04EB8C0C 		add	ip, r4, ip, lsl #2
 226              	.LVL14:
 182:lib/tinyusb/src/portable/synopsys/dwc2/dcd_dwc2.c ****                                (_dwc2_controller[rhport].ep_fifo_size / 4 - _allocated_fifo_words_t
 227              		.loc 1 182 68 discriminator 2 view .LVU70
 228 0088 43EA0242 		orr	r2, r3, r2, lsl #16
 229              	.LVL15:
 182:lib/tinyusb/src/portable/synopsys/dwc2/dcd_dwc2.c ****                                (_dwc2_controller[rhport].ep_fifo_size / 4 - _allocated_fifo_words_t
 230              		.loc 1 182 30 discriminator 2 view .LVU71
 231 008c CCF80420 		str	r2, [ip, #4]
 232              		.loc 1 187 1 discriminator 2 view .LVU72
 233 0090 70BD     		pop	{r4, r5, r6, pc}
 234              	.LVL16:
 235              	.L9:
 186:lib/tinyusb/src/portable/synopsys/dwc2/dcd_dwc2.c **** }
 236              		.loc 1 186 10 view .LVU73
 237 0092 0120     		movs	r0, #1
 238              		.loc 1 187 1 view .LVU74
 239 0094 70BD     		pop	{r4, r5, r6, pc}
 240              	.LVL17:
 241              	.L18:
 171:lib/tinyusb/src/portable/synopsys/dwc2/dcd_dwc2.c ****     }
 242              		.loc 1 171 7 is_stmt 1 view .LVU75
 171:lib/tinyusb/src/portable/synopsys/dwc2/dcd_dwc2.c ****     }
 243              		.loc 1 171 17 is_stmt 0 view .LVU76
ARM GAS  /tmp/claude-502/ccFotbfS.s 			page 21


 244 0096 5200     		lsls	r2, r2, #1
 245              	.LVL18:
 171:lib/tinyusb/src/portable/synopsys/dwc2/dcd_dwc2.c ****     }
 246              		.loc 1 171 17 view .LVU77
 247 0098 92B2     		uxth	r2, r2
 248              	.LVL19:
 171:lib/tinyusb/src/portable/synopsys/dwc2/dcd_dwc2.c ****     }
 249              		.loc 1 171 17 view .LVU78
 250 009a E2E7     		b	.L6
 251              	.L20:
 252              		.align	2
 253              	.L19:
 254 009c 00000000 		.word	.LANCHOR0
 255 00a0 00000000 		.word	.LANCHOR1
 256              		.cfi_endproc
 257              	.LFE393:
 259              		.section	.text.edpt_activate,"ax",%progbits
 260              		.align	1
 261              		.p2align 2,,3
 262              		.syntax unified
 263              		.thumb
 264              		.thumb_func
 266              	edpt_activate:
 267              	.LVL20:
 268              	.LFB394:
 188:lib/tinyusb/src/portable/synopsys/dwc2/dcd_dwc2.c **** 
 189:lib/tinyusb/src/portable/synopsys/dwc2/dcd_dwc2.c **** static void edpt_activate(uint8_t rhport, tusb_desc_endpoint_t const * p_endpoint_desc) {
 269              		.loc 1 189 89 is_stmt 1 view -0
 270              		.cfi_startproc
 271              		@ args = 0, pretend = 0, frame = 0
 272              		@ frame_needed = 0, uses_anonymous_args = 0
 190:lib/tinyusb/src/portable/synopsys/dwc2/dcd_dwc2.c ****   dwc2_regs_t* dwc2 = DWC2_REG(rhport);
 273              		.loc 1 190 3 view .LVU80
 189:lib/tinyusb/src/portable/synopsys/dwc2/dcd_dwc2.c ****   dwc2_regs_t* dwc2 = DWC2_REG(rhport);
 274              		.loc 1 189 89 is_stmt 0 view .LVU81
 275 0000 30B5     		push	{r4, r5, lr}
 276              		.cfi_def_cfa_offset 12
 277              		.cfi_offset 4, -12
 278              		.cfi_offset 5, -8
 279              		.cfi_offset 14, -4
 280              		.loc 1 190 23 view .LVU82
 281 0002 224B     		ldr	r3, .L27
 282 0004 0001     		lsls	r0, r0, #4
 283              	.LVL21:
 191:lib/tinyusb/src/portable/synopsys/dwc2/dcd_dwc2.c ****   uint8_t const epnum = tu_edpt_number(p_endpoint_desc->bEndpointAddress);
 284              		.loc 1 191 25 view .LVU83
 285 0006 91F802E0 		ldrb	lr, [r1, #2]	@ zero_extendqisi2
 190:lib/tinyusb/src/portable/synopsys/dwc2/dcd_dwc2.c ****   dwc2_regs_t* dwc2 = DWC2_REG(rhport);
 286              		.loc 1 190 16 view .LVU84
 287 000a 1D58     		ldr	r5, [r3, r0]
 288              	.LVL22:
 289              		.loc 1 191 3 is_stmt 1 view .LVU85
 290              	.LBB187:
 291              	.LBI187:
 492:lib/tinyusb/src/common/tusb_types.h ****   return (uint8_t)(addr & (~TUSB_DIR_IN_MASK));
 292              		.loc 2 492 45 view .LVU86
 293              	.LBB188:
ARM GAS  /tmp/claude-502/ccFotbfS.s 			page 22


 294              		.loc 2 493 3 view .LVU87
 295              		.loc 2 493 10 is_stmt 0 view .LVU88
 296 000c 0EF07F02 		and	r2, lr, #127
 297              	.LVL23:
 298              		.loc 2 493 10 view .LVU89
 299              	.LBE188:
 300              	.LBE187:
 192:lib/tinyusb/src/portable/synopsys/dwc2/dcd_dwc2.c ****   uint8_t const dir = tu_edpt_dir(p_endpoint_desc->bEndpointAddress);
 301              		.loc 1 192 3 is_stmt 1 view .LVU90
 302              	.LBB189:
 303              	.LBI189:
 487:lib/tinyusb/src/common/tusb_types.h ****   return (addr & TUSB_DIR_IN_MASK) ? TUSB_DIR_IN : TUSB_DIR_OUT;
 304              		.loc 2 487 48 view .LVU91
 305              	.LBB190:
 488:lib/tinyusb/src/common/tusb_types.h **** }
 306              		.loc 2 488 3 view .LVU92
 488:lib/tinyusb/src/common/tusb_types.h **** }
 307              		.loc 2 488 3 is_stmt 0 view .LVU93
 308              	.LBE190:
 309              	.LBE189:
 193:lib/tinyusb/src/portable/synopsys/dwc2/dcd_dwc2.c **** 
 194:lib/tinyusb/src/portable/synopsys/dwc2/dcd_dwc2.c ****   xfer_ctl_t* xfer = XFER_CTL_BASE(epnum, dir);
 310              		.loc 1 194 3 is_stmt 1 view .LVU94
 195:lib/tinyusb/src/portable/synopsys/dwc2/dcd_dwc2.c ****   xfer->max_size = tu_edpt_packet_size(p_endpoint_desc);
 311              		.loc 1 195 3 view .LVU95
 312              	.LBB191:
 313              	.LBI191:
 494:lib/tinyusb/src/common/tusb_types.h **** }
 495:lib/tinyusb/src/common/tusb_types.h **** 
 496:lib/tinyusb/src/common/tusb_types.h **** TU_ATTR_ALWAYS_INLINE static inline uint8_t tu_edpt_addr(uint8_t num, uint8_t dir) {
 497:lib/tinyusb/src/common/tusb_types.h ****   return (uint8_t)(num | (dir ? TUSB_DIR_IN_MASK : 0));
 498:lib/tinyusb/src/common/tusb_types.h **** }
 499:lib/tinyusb/src/common/tusb_types.h **** 
 500:lib/tinyusb/src/common/tusb_types.h **** TU_ATTR_ALWAYS_INLINE static inline uint16_t tu_edpt_packet_size(tusb_desc_endpoint_t const* desc_e
 314              		.loc 2 500 46 view .LVU96
 315              	.LBB192:
 501:lib/tinyusb/src/common/tusb_types.h ****   return tu_le16toh(desc_ep->wMaxPacketSize) & 0x7FF;
 316              		.loc 2 501 3 view .LVU97
 317              	.LBE192:
 318              	.LBE191:
 196:lib/tinyusb/src/portable/synopsys/dwc2/dcd_dwc2.c ****   xfer->interval = p_endpoint_desc->bInterval;
 197:lib/tinyusb/src/portable/synopsys/dwc2/dcd_dwc2.c **** 
 198:lib/tinyusb/src/portable/synopsys/dwc2/dcd_dwc2.c ****   // USBAEP, EPTYP, SD0PID_SEVNFRM, MPSIZ are the same for IN and OUT endpoints.
 199:lib/tinyusb/src/portable/synopsys/dwc2/dcd_dwc2.c ****   uint32_t const dxepctl = (1 << DOEPCTL_USBAEP_Pos) |
 200:lib/tinyusb/src/portable/synopsys/dwc2/dcd_dwc2.c ****                            (p_endpoint_desc->bmAttributes.xfer << DOEPCTL_EPTYP_Pos) |
 319              		.loc 1 200 58 is_stmt 0 view .LVU98
 320 0010 C878     		ldrb	r0, [r1, #3]	@ zero_extendqisi2
 321              	.LBB195:
 322              	.LBB193:
 323              		.loc 2 501 10 view .LVU99
 324 0012 8B88     		ldrh	r3, [r1, #4]	@ unaligned
 325              	.LBE193:
 326              	.LBE195:
 201:lib/tinyusb/src/portable/synopsys/dwc2/dcd_dwc2.c ****                            (p_endpoint_desc->bmAttributes.xfer != TUSB_XFER_ISOCHRONOUS ? DOEPCTL_S
 327              		.loc 1 201 114 view .LVU100
 328 0014 00F00304 		and	r4, r0, #3
 195:lib/tinyusb/src/portable/synopsys/dwc2/dcd_dwc2.c ****   xfer->interval = p_endpoint_desc->bInterval;
ARM GAS  /tmp/claude-502/ccFotbfS.s 			page 23


 329              		.loc 1 195 18 view .LVU101
 330 0018 4FEA420C 		lsl	ip, r2, #1
 331              	.LBB196:
 332              	.LBB194:
 333              		.loc 2 501 46 view .LVU102
 334 001c C3F30A03 		ubfx	r3, r3, #0, #11
 335              	.LVL24:
 336              		.loc 2 501 46 view .LVU103
 337              	.LBE194:
 338              	.LBE196:
 339              		.loc 1 201 114 view .LVU104
 340 0020 012C     		cmp	r4, #1
 200:lib/tinyusb/src/portable/synopsys/dwc2/dcd_dwc2.c ****                            (p_endpoint_desc->bmAttributes.xfer != TUSB_XFER_ISOCHRONOUS ? DOEPCTL_S
 341              		.loc 1 200 58 view .LVU105
 342 0022 2046     		mov	r0, r4
 195:lib/tinyusb/src/portable/synopsys/dwc2/dcd_dwc2.c ****   xfer->interval = p_endpoint_desc->bInterval;
 343              		.loc 1 195 18 view .LVU106
 344 0024 0CEBDE1C 		add	ip, ip, lr, lsr #7
 345 0028 194C     		ldr	r4, .L27+4
 346 002a 04EB0C1C 		add	ip, r4, ip, lsl #4
 347 002e ACF80A30 		strh	r3, [ip, #10]	@ movhi
 196:lib/tinyusb/src/portable/synopsys/dwc2/dcd_dwc2.c **** 
 348              		.loc 1 196 3 is_stmt 1 view .LVU107
 196:lib/tinyusb/src/portable/synopsys/dwc2/dcd_dwc2.c **** 
 349              		.loc 1 196 18 is_stmt 0 view .LVU108
 350 0032 8979     		ldrb	r1, [r1, #6]	@ zero_extendqisi2
 351              	.LVL25:
 196:lib/tinyusb/src/portable/synopsys/dwc2/dcd_dwc2.c **** 
 352              		.loc 1 196 18 view .LVU109
 353 0034 8CF80C10 		strb	r1, [ip, #12]
 199:lib/tinyusb/src/portable/synopsys/dwc2/dcd_dwc2.c ****                            (p_endpoint_desc->bmAttributes.xfer << DOEPCTL_EPTYP_Pos) |
 354              		.loc 1 199 3 is_stmt 1 view .LVU110
 355              		.loc 1 201 114 is_stmt 0 view .LVU111
 356 0038 14BF     		ite	ne
 357 003a 4FF08051 		movne	r1, #268435456
 358 003e 0021     		moveq	r1, #0
 359              		.loc 1 201 119 view .LVU112
 360 0040 0B43     		orrs	r3, r3, r1
 202:lib/tinyusb/src/portable/synopsys/dwc2/dcd_dwc2.c ****                            (xfer->max_size << DOEPCTL_MPSIZ_Pos);
 203:lib/tinyusb/src/portable/synopsys/dwc2/dcd_dwc2.c **** 
 204:lib/tinyusb/src/portable/synopsys/dwc2/dcd_dwc2.c ****   if (dir == TUSB_DIR_OUT) {
 361              		.loc 1 204 6 view .LVU113
 362 0042 5FEADE11 		lsrs	r1, lr, #7
 201:lib/tinyusb/src/portable/synopsys/dwc2/dcd_dwc2.c ****                            (xfer->max_size << DOEPCTL_MPSIZ_Pos);
 363              		.loc 1 201 119 view .LVU114
 364 0046 43EA8043 		orr	r3, r3, r0, lsl #18
 199:lib/tinyusb/src/portable/synopsys/dwc2/dcd_dwc2.c ****                            (p_endpoint_desc->bmAttributes.xfer << DOEPCTL_EPTYP_Pos) |
 365              		.loc 1 199 18 view .LVU115
 366 004a 43F40043 		orr	r3, r3, #32768
 367              	.LVL26:
 368              		.loc 1 204 3 is_stmt 1 view .LVU116
 369              		.loc 1 204 6 is_stmt 0 view .LVU117
 370 004e 0DD1     		bne	.L23
 205:lib/tinyusb/src/portable/synopsys/dwc2/dcd_dwc2.c ****     dwc2->epout[epnum].doepctl = dxepctl;
 371              		.loc 1 205 5 is_stmt 1 view .LVU118
 372              		.loc 1 205 32 is_stmt 0 view .LVU119
 373 0050 02F15801 		add	r1, r2, #88
ARM GAS  /tmp/claude-502/ccFotbfS.s 			page 24


 206:lib/tinyusb/src/portable/synopsys/dwc2/dcd_dwc2.c ****     dwc2->daintmsk |= TU_BIT(DAINTMSK_OEPM_Pos + epnum);
 374              		.loc 1 206 23 view .LVU120
 375 0054 02F11000 		add	r0, r2, #16
 376 0058 0122     		movs	r2, #1
 377              	.LVL27:
 205:lib/tinyusb/src/portable/synopsys/dwc2/dcd_dwc2.c ****     dwc2->epout[epnum].doepctl = dxepctl;
 378              		.loc 1 205 32 view .LVU121
 379 005a 4901     		lsls	r1, r1, #5
 380              		.loc 1 206 23 view .LVU122
 381 005c 8240     		lsls	r2, r2, r0
 205:lib/tinyusb/src/portable/synopsys/dwc2/dcd_dwc2.c ****     dwc2->epout[epnum].doepctl = dxepctl;
 382              		.loc 1 205 32 view .LVU123
 383 005e 6B50     		str	r3, [r5, r1]
 384              		.loc 1 206 5 is_stmt 1 view .LVU124
 385              		.loc 1 206 20 is_stmt 0 view .LVU125
 386 0060 D5F81C38 		ldr	r3, [r5, #2076]
 387              	.LVL28:
 388              		.loc 1 206 20 view .LVU126
 389 0064 1A43     		orrs	r2, r2, r3
 390 0066 C5F81C28 		str	r2, [r5, #2076]
 391              	.LVL29:
 207:lib/tinyusb/src/portable/synopsys/dwc2/dcd_dwc2.c ****   } else {
 208:lib/tinyusb/src/portable/synopsys/dwc2/dcd_dwc2.c ****     dwc2->epin[epnum].diepctl = dxepctl | (epnum << DIEPCTL_TXFNUM_Pos);
 209:lib/tinyusb/src/portable/synopsys/dwc2/dcd_dwc2.c ****     dwc2->daintmsk |= (1 << (DAINTMSK_IEPM_Pos + epnum));
 210:lib/tinyusb/src/portable/synopsys/dwc2/dcd_dwc2.c ****   }
 211:lib/tinyusb/src/portable/synopsys/dwc2/dcd_dwc2.c **** }
 392              		.loc 1 211 1 view .LVU127
 393 006a 30BD     		pop	{r4, r5, pc}
 394              	.LVL30:
 395              	.L23:
 208:lib/tinyusb/src/portable/synopsys/dwc2/dcd_dwc2.c ****     dwc2->daintmsk |= (1 << (DAINTMSK_IEPM_Pos + epnum));
 396              		.loc 1 208 5 is_stmt 1 view .LVU128
 208:lib/tinyusb/src/portable/synopsys/dwc2/dcd_dwc2.c ****     dwc2->daintmsk |= (1 << (DAINTMSK_IEPM_Pos + epnum));
 397              		.loc 1 208 31 is_stmt 0 view .LVU129
 398 006c 02F14800 		add	r0, r2, #72
 208:lib/tinyusb/src/portable/synopsys/dwc2/dcd_dwc2.c ****     dwc2->daintmsk |= (1 << (DAINTMSK_IEPM_Pos + epnum));
 399              		.loc 1 208 41 view .LVU130
 400 0070 43EA8253 		orr	r3, r3, r2, lsl #22
 401              	.LVL31:
 209:lib/tinyusb/src/portable/synopsys/dwc2/dcd_dwc2.c ****   }
 402              		.loc 1 209 26 view .LVU131
 403 0074 0121     		movs	r1, #1
 208:lib/tinyusb/src/portable/synopsys/dwc2/dcd_dwc2.c ****     dwc2->daintmsk |= (1 << (DAINTMSK_IEPM_Pos + epnum));
 404              		.loc 1 208 31 view .LVU132
 405 0076 4001     		lsls	r0, r0, #5
 209:lib/tinyusb/src/portable/synopsys/dwc2/dcd_dwc2.c ****   }
 406              		.loc 1 209 26 view .LVU133
 407 0078 01FA02F2 		lsl	r2, r1, r2
 408              	.LVL32:
 208:lib/tinyusb/src/portable/synopsys/dwc2/dcd_dwc2.c ****     dwc2->daintmsk |= (1 << (DAINTMSK_IEPM_Pos + epnum));
 409              		.loc 1 208 31 view .LVU134
 410 007c 2B50     		str	r3, [r5, r0]
 209:lib/tinyusb/src/portable/synopsys/dwc2/dcd_dwc2.c ****   }
 411              		.loc 1 209 5 is_stmt 1 view .LVU135
 209:lib/tinyusb/src/portable/synopsys/dwc2/dcd_dwc2.c ****   }
 412              		.loc 1 209 20 is_stmt 0 view .LVU136
 413 007e D5F81C38 		ldr	r3, [r5, #2076]
ARM GAS  /tmp/claude-502/ccFotbfS.s 			page 25


 414 0082 1A43     		orrs	r2, r2, r3
 415 0084 C5F81C28 		str	r2, [r5, #2076]
 416              		.loc 1 211 1 view .LVU137
 417 0088 30BD     		pop	{r4, r5, pc}
 418              	.LVL33:
 419              	.L28:
 420              		.loc 1 211 1 view .LVU138
 421 008a 00BF     		.align	2
 422              	.L27:
 423 008c 00000000 		.word	.LANCHOR0
 424 0090 00000000 		.word	.LANCHOR2
 425              		.cfi_endproc
 426              	.LFE394:
 428              		.section	.text.edpt_disable,"ax",%progbits
 429              		.align	1
 430              		.p2align 2,,3
 431              		.syntax unified
 432              		.thumb
 433              		.thumb_func
 435              	edpt_disable:
 436              	.LVL34:
 437              	.LFB395:
 212:lib/tinyusb/src/portable/synopsys/dwc2/dcd_dwc2.c **** 
 213:lib/tinyusb/src/portable/synopsys/dwc2/dcd_dwc2.c **** static void edpt_disable(uint8_t rhport, uint8_t ep_addr, bool stall) {
 438              		.loc 1 213 71 is_stmt 1 view -0
 439              		.cfi_startproc
 440              		@ args = 0, pretend = 0, frame = 0
 441              		@ frame_needed = 0, uses_anonymous_args = 0
 442              		@ link register save eliminated.
 214:lib/tinyusb/src/portable/synopsys/dwc2/dcd_dwc2.c ****   (void) rhport;
 443              		.loc 1 214 3 view .LVU140
 215:lib/tinyusb/src/portable/synopsys/dwc2/dcd_dwc2.c **** 
 216:lib/tinyusb/src/portable/synopsys/dwc2/dcd_dwc2.c ****   dwc2_regs_t* dwc2 = DWC2_REG(rhport);
 444              		.loc 1 216 3 view .LVU141
 445              		.loc 1 216 23 is_stmt 0 view .LVU142
 446 0000 0001     		lsls	r0, r0, #4
 447              	.LVL35:
 448              		.loc 1 216 23 view .LVU143
 449 0002 314B     		ldr	r3, .L74
 450              		.loc 1 216 16 view .LVU144
 451 0004 1B58     		ldr	r3, [r3, r0]
 452              	.LVL36:
 217:lib/tinyusb/src/portable/synopsys/dwc2/dcd_dwc2.c ****   uint8_t const epnum = tu_edpt_number(ep_addr);
 453              		.loc 1 217 3 is_stmt 1 view .LVU145
 454              	.LBB197:
 455              	.LBI197:
 492:lib/tinyusb/src/common/tusb_types.h ****   return (uint8_t)(addr & (~TUSB_DIR_IN_MASK));
 456              		.loc 2 492 45 view .LVU146
 457              	.LBB198:
 493:lib/tinyusb/src/common/tusb_types.h **** }
 458              		.loc 2 493 3 view .LVU147
 493:lib/tinyusb/src/common/tusb_types.h **** }
 459              		.loc 2 493 10 is_stmt 0 view .LVU148
 460 0006 01F07F00 		and	r0, r1, #127
 461              	.LVL37:
 493:lib/tinyusb/src/common/tusb_types.h **** }
 462              		.loc 2 493 10 view .LVU149
ARM GAS  /tmp/claude-502/ccFotbfS.s 			page 26


 463              	.LBE198:
 464              	.LBE197:
 218:lib/tinyusb/src/portable/synopsys/dwc2/dcd_dwc2.c ****   uint8_t const dir = tu_edpt_dir(ep_addr);
 465              		.loc 1 218 3 is_stmt 1 view .LVU150
 466              	.LBB199:
 467              	.LBI199:
 487:lib/tinyusb/src/common/tusb_types.h ****   return (addr & TUSB_DIR_IN_MASK) ? TUSB_DIR_IN : TUSB_DIR_OUT;
 468              		.loc 2 487 48 view .LVU151
 469              	.LBB200:
 488:lib/tinyusb/src/common/tusb_types.h **** }
 470              		.loc 2 488 3 view .LVU152
 488:lib/tinyusb/src/common/tusb_types.h **** }
 471              		.loc 2 488 3 is_stmt 0 view .LVU153
 472              	.LBE200:
 473              	.LBE199:
 219:lib/tinyusb/src/portable/synopsys/dwc2/dcd_dwc2.c **** 
 220:lib/tinyusb/src/portable/synopsys/dwc2/dcd_dwc2.c ****   if (dir == TUSB_DIR_IN) {
 474              		.loc 1 220 3 is_stmt 1 view .LVU154
 475              		.loc 1 220 6 is_stmt 0 view .LVU155
 476 000a C909     		lsrs	r1, r1, #7
 477              	.LVL38:
 478              		.loc 1 220 6 view .LVU156
 479 000c 2AD1     		bne	.L71
 480              	.LBB201:
 221:lib/tinyusb/src/portable/synopsys/dwc2/dcd_dwc2.c ****     dwc2_epin_t* epin = dwc2->epin;
 222:lib/tinyusb/src/portable/synopsys/dwc2/dcd_dwc2.c **** 
 223:lib/tinyusb/src/portable/synopsys/dwc2/dcd_dwc2.c ****     // Only disable currently enabled non-control endpoint
 224:lib/tinyusb/src/portable/synopsys/dwc2/dcd_dwc2.c ****     if ((epnum == 0) || !(epin[epnum].diepctl & DIEPCTL_EPENA)) {
 225:lib/tinyusb/src/portable/synopsys/dwc2/dcd_dwc2.c ****       epin[epnum].diepctl |= DIEPCTL_SNAK | (stall ? DIEPCTL_STALL : 0);
 226:lib/tinyusb/src/portable/synopsys/dwc2/dcd_dwc2.c ****     } else {
 227:lib/tinyusb/src/portable/synopsys/dwc2/dcd_dwc2.c ****       // Stop transmitting packets and NAK IN xfers.
 228:lib/tinyusb/src/portable/synopsys/dwc2/dcd_dwc2.c ****       epin[epnum].diepctl |= DIEPCTL_SNAK;
 229:lib/tinyusb/src/portable/synopsys/dwc2/dcd_dwc2.c ****       while ((epin[epnum].diepint & DIEPINT_INEPNE) == 0) {}
 230:lib/tinyusb/src/portable/synopsys/dwc2/dcd_dwc2.c **** 
 231:lib/tinyusb/src/portable/synopsys/dwc2/dcd_dwc2.c ****       // Disable the endpoint.
 232:lib/tinyusb/src/portable/synopsys/dwc2/dcd_dwc2.c ****       epin[epnum].diepctl |= DIEPCTL_EPDIS | (stall ? DIEPCTL_STALL : 0);
 233:lib/tinyusb/src/portable/synopsys/dwc2/dcd_dwc2.c ****       while ((epin[epnum].diepint & DIEPINT_EPDISD_Msk) == 0) {}
 234:lib/tinyusb/src/portable/synopsys/dwc2/dcd_dwc2.c **** 
 235:lib/tinyusb/src/portable/synopsys/dwc2/dcd_dwc2.c ****       epin[epnum].diepint = DIEPINT_EPDISD;
 236:lib/tinyusb/src/portable/synopsys/dwc2/dcd_dwc2.c ****     }
 237:lib/tinyusb/src/portable/synopsys/dwc2/dcd_dwc2.c **** 
 238:lib/tinyusb/src/portable/synopsys/dwc2/dcd_dwc2.c ****     // Flush the FIFO, and wait until we have confirmed it cleared.
 239:lib/tinyusb/src/portable/synopsys/dwc2/dcd_dwc2.c ****     fifo_flush_tx(dwc2, epnum);
 240:lib/tinyusb/src/portable/synopsys/dwc2/dcd_dwc2.c ****   } else {
 241:lib/tinyusb/src/portable/synopsys/dwc2/dcd_dwc2.c ****     dwc2_epout_t* epout = dwc2->epout;
 481              		.loc 1 241 5 is_stmt 1 view .LVU157
 482              		.loc 1 241 19 is_stmt 0 view .LVU158
 483 000e 03F53061 		add	r1, r3, #2816
 484              	.LVL39:
 242:lib/tinyusb/src/portable/synopsys/dwc2/dcd_dwc2.c **** 
 243:lib/tinyusb/src/portable/synopsys/dwc2/dcd_dwc2.c ****     // Only disable currently enabled non-control endpoint
 244:lib/tinyusb/src/portable/synopsys/dwc2/dcd_dwc2.c ****     if ((epnum == 0) || !(epout[epnum].doepctl & DOEPCTL_EPENA)) {
 485              		.loc 1 244 5 is_stmt 1 view .LVU159
 486              		.loc 1 244 8 is_stmt 0 view .LVU160
 487 0012 28B9     		cbnz	r0, .L72
 488              	.LVL40:
 489              	.L40:
ARM GAS  /tmp/claude-502/ccFotbfS.s 			page 27


 245:lib/tinyusb/src/portable/synopsys/dwc2/dcd_dwc2.c ****       epout[epnum].doepctl |= stall ? DOEPCTL_STALL : 0;
 490              		.loc 1 245 7 is_stmt 1 view .LVU161
 491              		.loc 1 245 28 is_stmt 0 view .LVU162
 492 0014 0B68     		ldr	r3, [r1]
 493              	.LVL41:
 494              		.loc 1 245 53 view .LVU163
 495 0016 0AB1     		cbz	r2, .L42
 496              		.loc 1 245 28 view .LVU164
 497 0018 43F40013 		orr	r3, r3, #2097152
 498              	.L42:
 499              		.loc 1 245 28 discriminator 4 view .LVU165
 500 001c 0B60     		str	r3, [r1]
 501 001e 7047     		bx	lr
 502              	.LVL42:
 503              	.L72:
 244:lib/tinyusb/src/portable/synopsys/dwc2/dcd_dwc2.c ****       epout[epnum].doepctl |= stall ? DOEPCTL_STALL : 0;
 504              		.loc 1 244 32 discriminator 1 view .LVU166
 505 0020 01EB4011 		add	r1, r1, r0, lsl #5
 506              	.LVL43:
 244:lib/tinyusb/src/portable/synopsys/dwc2/dcd_dwc2.c ****       epout[epnum].doepctl |= stall ? DOEPCTL_STALL : 0;
 507              		.loc 1 244 39 discriminator 1 view .LVU167
 508 0024 0868     		ldr	r0, [r1]
 509              	.LVL44:
 244:lib/tinyusb/src/portable/synopsys/dwc2/dcd_dwc2.c ****       epout[epnum].doepctl |= stall ? DOEPCTL_STALL : 0;
 510              		.loc 1 244 22 discriminator 1 view .LVU168
 511 0026 0028     		cmp	r0, #0
 512 0028 F4DA     		bge	.L40
 246:lib/tinyusb/src/portable/synopsys/dwc2/dcd_dwc2.c ****     } else {
 247:lib/tinyusb/src/portable/synopsys/dwc2/dcd_dwc2.c ****       // Asserting GONAK is required to STALL an OUT endpoint.
 248:lib/tinyusb/src/portable/synopsys/dwc2/dcd_dwc2.c ****       // Simpler to use polling here, we don't use the "B"OUTNAKEFF interrupt
 249:lib/tinyusb/src/portable/synopsys/dwc2/dcd_dwc2.c ****       // anyway, and it can't be cleared by user code. If this while loop never
 250:lib/tinyusb/src/portable/synopsys/dwc2/dcd_dwc2.c ****       // finishes, we have bigger problems than just the stack.
 251:lib/tinyusb/src/portable/synopsys/dwc2/dcd_dwc2.c ****       dwc2->dctl |= DCTL_SGONAK;
 513              		.loc 1 251 7 is_stmt 1 view .LVU169
 514              		.loc 1 251 18 is_stmt 0 view .LVU170
 515 002a D3F80408 		ldr	r0, [r3, #2052]
 516 002e 40F40070 		orr	r0, r0, #512
 517 0032 C3F80408 		str	r0, [r3, #2052]
 252:lib/tinyusb/src/portable/synopsys/dwc2/dcd_dwc2.c ****       while ((dwc2->gintsts & GINTSTS_BOUTNAKEFF_Msk) == 0) {}
 518              		.loc 1 252 7 is_stmt 1 view .LVU171
 519              	.L43:
 520              		.loc 1 252 62 discriminator 1 view .LVU172
 521              		.loc 1 252 13 discriminator 1 view .LVU173
 522              		.loc 1 252 19 is_stmt 0 discriminator 1 view .LVU174
 523 0036 5869     		ldr	r0, [r3, #20]
 524              		.loc 1 252 13 discriminator 1 view .LVU175
 525 0038 0006     		lsls	r0, r0, #24
 526 003a FCD5     		bpl	.L43
 253:lib/tinyusb/src/portable/synopsys/dwc2/dcd_dwc2.c **** 
 254:lib/tinyusb/src/portable/synopsys/dwc2/dcd_dwc2.c ****       // Ditto here- disable the endpoint.
 255:lib/tinyusb/src/portable/synopsys/dwc2/dcd_dwc2.c ****       epout[epnum].doepctl |= DOEPCTL_EPDIS | (stall ? DOEPCTL_STALL : 0);
 527              		.loc 1 255 7 is_stmt 1 view .LVU176
 528              		.loc 1 255 45 is_stmt 0 view .LVU177
 529 003c 002A     		cmp	r2, #0
 530 003e 2348     		ldr	r0, .L74+4
 531              		.loc 1 255 28 view .LVU178
 532 0040 0A68     		ldr	r2, [r1]
ARM GAS  /tmp/claude-502/ccFotbfS.s 			page 28


 533              	.LVL45:
 534              		.loc 1 255 45 view .LVU179
 535 0042 08BF     		it	eq
 536 0044 4FF08040 		moveq	r0, #1073741824
 537              		.loc 1 255 28 view .LVU180
 538 0048 0243     		orrs	r2, r2, r0
 539 004a 0A60     		str	r2, [r1]
 256:lib/tinyusb/src/portable/synopsys/dwc2/dcd_dwc2.c ****       while ((epout[epnum].doepint & DOEPINT_EPDISD_Msk) == 0) {}
 540              		.loc 1 256 7 is_stmt 1 view .LVU181
 541              	.L45:
 542              		.loc 1 256 65 discriminator 1 view .LVU182
 543              		.loc 1 256 13 discriminator 1 view .LVU183
 544              		.loc 1 256 27 is_stmt 0 discriminator 1 view .LVU184
 545 004c 8A68     		ldr	r2, [r1, #8]
 546              		.loc 1 256 13 discriminator 1 view .LVU185
 547 004e 9207     		lsls	r2, r2, #30
 548 0050 FCD5     		bpl	.L45
 257:lib/tinyusb/src/portable/synopsys/dwc2/dcd_dwc2.c **** 
 258:lib/tinyusb/src/portable/synopsys/dwc2/dcd_dwc2.c ****       epout[epnum].doepint = DOEPINT_EPDISD;
 549              		.loc 1 258 7 is_stmt 1 view .LVU186
 550              		.loc 1 258 28 is_stmt 0 view .LVU187
 551 0052 0222     		movs	r2, #2
 552 0054 8A60     		str	r2, [r1, #8]
 259:lib/tinyusb/src/portable/synopsys/dwc2/dcd_dwc2.c **** 
 260:lib/tinyusb/src/portable/synopsys/dwc2/dcd_dwc2.c ****       // Allow other OUT endpoints to keep receiving.
 261:lib/tinyusb/src/portable/synopsys/dwc2/dcd_dwc2.c ****       dwc2->dctl |= DCTL_CGONAK;
 553              		.loc 1 261 7 is_stmt 1 view .LVU188
 554              		.loc 1 261 18 is_stmt 0 view .LVU189
 555 0056 D3F80428 		ldr	r2, [r3, #2052]
 556 005a 42F48062 		orr	r2, r2, #1024
 557 005e C3F80428 		str	r2, [r3, #2052]
 558 0062 7047     		bx	lr
 559              	.LVL46:
 560              	.L71:
 561              		.loc 1 261 18 view .LVU190
 562              	.LBE201:
 563              	.LBB202:
 221:lib/tinyusb/src/portable/synopsys/dwc2/dcd_dwc2.c **** 
 564              		.loc 1 221 5 is_stmt 1 view .LVU191
 221:lib/tinyusb/src/portable/synopsys/dwc2/dcd_dwc2.c **** 
 565              		.loc 1 221 18 is_stmt 0 view .LVU192
 566 0064 03F51061 		add	r1, r3, #2304
 567              	.LVL47:
 224:lib/tinyusb/src/portable/synopsys/dwc2/dcd_dwc2.c ****       epin[epnum].diepctl |= DIEPCTL_SNAK | (stall ? DIEPCTL_STALL : 0);
 568              		.loc 1 224 5 is_stmt 1 view .LVU193
 569              	.LBE202:
 213:lib/tinyusb/src/portable/synopsys/dwc2/dcd_dwc2.c ****   (void) rhport;
 570              		.loc 1 213 71 is_stmt 0 view .LVU194
 571 0068 10B4     		push	{r4}
 572              		.cfi_def_cfa_offset 4
 573              		.cfi_offset 4, -4
 574              	.LBB205:
 224:lib/tinyusb/src/portable/synopsys/dwc2/dcd_dwc2.c ****       epin[epnum].diepctl |= DIEPCTL_SNAK | (stall ? DIEPCTL_STALL : 0);
 575              		.loc 1 224 8 view .LVU195
 576 006a 90B9     		cbnz	r0, .L73
 577              	.LVL48:
 578              	.L31:
ARM GAS  /tmp/claude-502/ccFotbfS.s 			page 29


 225:lib/tinyusb/src/portable/synopsys/dwc2/dcd_dwc2.c ****     } else {
 579              		.loc 1 225 7 is_stmt 1 view .LVU196
 225:lib/tinyusb/src/portable/synopsys/dwc2/dcd_dwc2.c ****     } else {
 580              		.loc 1 225 43 is_stmt 0 view .LVU197
 581 006c 002A     		cmp	r2, #0
 225:lib/tinyusb/src/portable/synopsys/dwc2/dcd_dwc2.c ****     } else {
 582              		.loc 1 225 27 view .LVU198
 583 006e 0A68     		ldr	r2, [r1]
 584              	.LVL49:
 225:lib/tinyusb/src/portable/synopsys/dwc2/dcd_dwc2.c ****     } else {
 585              		.loc 1 225 43 view .LVU199
 586 0070 14BF     		ite	ne
 587 0072 4FF00264 		movne	r4, #136314880
 588 0076 4FF00064 		moveq	r4, #134217728
 225:lib/tinyusb/src/portable/synopsys/dwc2/dcd_dwc2.c ****     } else {
 589              		.loc 1 225 27 view .LVU200
 590 007a 2243     		orrs	r2, r2, r4
 591 007c 0A60     		str	r2, [r1]
 592              	.L34:
 239:lib/tinyusb/src/portable/synopsys/dwc2/dcd_dwc2.c ****   } else {
 593              		.loc 1 239 5 is_stmt 1 view .LVU201
 594              	.LVL50:
 595              	.LBB203:
 596              	.LBI203:
 115:lib/tinyusb/src/portable/synopsys/dwc2/dcd_dwc2.c ****   // flush TX fifo and wait for it cleared
 597              		.loc 1 115 42 view .LVU202
 598              	.LBB204:
 117:lib/tinyusb/src/portable/synopsys/dwc2/dcd_dwc2.c ****   while (dwc2->grstctl & GRSTCTL_TXFFLSH_Msk) {}
 599              		.loc 1 117 3 view .LVU203
 117:lib/tinyusb/src/portable/synopsys/dwc2/dcd_dwc2.c ****   while (dwc2->grstctl & GRSTCTL_TXFFLSH_Msk) {}
 600              		.loc 1 117 44 is_stmt 0 view .LVU204
 601 007e 8001     		lsls	r0, r0, #6
 602              	.LVL51:
 117:lib/tinyusb/src/portable/synopsys/dwc2/dcd_dwc2.c ****   while (dwc2->grstctl & GRSTCTL_TXFFLSH_Msk) {}
 603              		.loc 1 117 35 view .LVU205
 604 0080 40F02000 		orr	r0, r0, #32
 117:lib/tinyusb/src/portable/synopsys/dwc2/dcd_dwc2.c ****   while (dwc2->grstctl & GRSTCTL_TXFFLSH_Msk) {}
 605              		.loc 1 117 17 view .LVU206
 606 0084 1861     		str	r0, [r3, #16]
 118:lib/tinyusb/src/portable/synopsys/dwc2/dcd_dwc2.c **** }
 607              		.loc 1 118 3 is_stmt 1 view .LVU207
 608              	.L38:
 118:lib/tinyusb/src/portable/synopsys/dwc2/dcd_dwc2.c **** }
 609              		.loc 1 118 48 view .LVU208
 118:lib/tinyusb/src/portable/synopsys/dwc2/dcd_dwc2.c **** }
 610              		.loc 1 118 9 view .LVU209
 118:lib/tinyusb/src/portable/synopsys/dwc2/dcd_dwc2.c **** }
 611              		.loc 1 118 14 is_stmt 0 view .LVU210
 612 0086 1A69     		ldr	r2, [r3, #16]
 118:lib/tinyusb/src/portable/synopsys/dwc2/dcd_dwc2.c **** }
 613              		.loc 1 118 9 view .LVU211
 614 0088 9406     		lsls	r4, r2, #26
 615 008a FCD4     		bmi	.L38
 616              	.LBE204:
 617              	.LBE203:
 618              	.LBE205:
 262:lib/tinyusb/src/portable/synopsys/dwc2/dcd_dwc2.c ****     }
ARM GAS  /tmp/claude-502/ccFotbfS.s 			page 30


 263:lib/tinyusb/src/portable/synopsys/dwc2/dcd_dwc2.c ****   }
 264:lib/tinyusb/src/portable/synopsys/dwc2/dcd_dwc2.c **** }
 619              		.loc 1 264 1 view .LVU212
 620 008c 5DF8044B 		ldr	r4, [sp], #4
 621              		.cfi_remember_state
 622              		.cfi_restore 4
 623              		.cfi_def_cfa_offset 0
 624 0090 7047     		bx	lr
 625              	.LVL52:
 626              	.L73:
 627              		.cfi_restore_state
 628              	.LBB206:
 224:lib/tinyusb/src/portable/synopsys/dwc2/dcd_dwc2.c ****       epin[epnum].diepctl |= DIEPCTL_SNAK | (stall ? DIEPCTL_STALL : 0);
 629              		.loc 1 224 31 discriminator 1 view .LVU213
 630 0092 01EB4011 		add	r1, r1, r0, lsl #5
 631              	.LVL53:
 224:lib/tinyusb/src/portable/synopsys/dwc2/dcd_dwc2.c ****       epin[epnum].diepctl |= DIEPCTL_SNAK | (stall ? DIEPCTL_STALL : 0);
 632              		.loc 1 224 38 discriminator 1 view .LVU214
 633 0096 0C68     		ldr	r4, [r1]
 224:lib/tinyusb/src/portable/synopsys/dwc2/dcd_dwc2.c ****       epin[epnum].diepctl |= DIEPCTL_SNAK | (stall ? DIEPCTL_STALL : 0);
 634              		.loc 1 224 22 discriminator 1 view .LVU215
 635 0098 002C     		cmp	r4, #0
 636 009a E7DA     		bge	.L31
 228:lib/tinyusb/src/portable/synopsys/dwc2/dcd_dwc2.c ****       while ((epin[epnum].diepint & DIEPINT_INEPNE) == 0) {}
 637              		.loc 1 228 7 is_stmt 1 view .LVU216
 228:lib/tinyusb/src/portable/synopsys/dwc2/dcd_dwc2.c ****       while ((epin[epnum].diepint & DIEPINT_INEPNE) == 0) {}
 638              		.loc 1 228 27 is_stmt 0 view .LVU217
 639 009c 0C68     		ldr	r4, [r1]
 640 009e 44F00064 		orr	r4, r4, #134217728
 641 00a2 0C60     		str	r4, [r1]
 229:lib/tinyusb/src/portable/synopsys/dwc2/dcd_dwc2.c **** 
 642              		.loc 1 229 7 is_stmt 1 view .LVU218
 643              	.L35:
 229:lib/tinyusb/src/portable/synopsys/dwc2/dcd_dwc2.c **** 
 644              		.loc 1 229 60 discriminator 1 view .LVU219
 229:lib/tinyusb/src/portable/synopsys/dwc2/dcd_dwc2.c **** 
 645              		.loc 1 229 13 discriminator 1 view .LVU220
 229:lib/tinyusb/src/portable/synopsys/dwc2/dcd_dwc2.c **** 
 646              		.loc 1 229 26 is_stmt 0 discriminator 1 view .LVU221
 647 00a4 8C68     		ldr	r4, [r1, #8]
 229:lib/tinyusb/src/portable/synopsys/dwc2/dcd_dwc2.c **** 
 648              		.loc 1 229 13 discriminator 1 view .LVU222
 649 00a6 6406     		lsls	r4, r4, #25
 650 00a8 FCD5     		bpl	.L35
 232:lib/tinyusb/src/portable/synopsys/dwc2/dcd_dwc2.c ****       while ((epin[epnum].diepint & DIEPINT_EPDISD_Msk) == 0) {}
 651              		.loc 1 232 7 is_stmt 1 view .LVU223
 232:lib/tinyusb/src/portable/synopsys/dwc2/dcd_dwc2.c ****       while ((epin[epnum].diepint & DIEPINT_EPDISD_Msk) == 0) {}
 652              		.loc 1 232 44 is_stmt 0 view .LVU224
 653 00aa 002A     		cmp	r2, #0
 654 00ac 074C     		ldr	r4, .L74+4
 232:lib/tinyusb/src/portable/synopsys/dwc2/dcd_dwc2.c ****       while ((epin[epnum].diepint & DIEPINT_EPDISD_Msk) == 0) {}
 655              		.loc 1 232 27 view .LVU225
 656 00ae 0A68     		ldr	r2, [r1]
 657              	.LVL54:
 232:lib/tinyusb/src/portable/synopsys/dwc2/dcd_dwc2.c ****       while ((epin[epnum].diepint & DIEPINT_EPDISD_Msk) == 0) {}
 658              		.loc 1 232 44 view .LVU226
 659 00b0 08BF     		it	eq
ARM GAS  /tmp/claude-502/ccFotbfS.s 			page 31


 660 00b2 4FF08044 		moveq	r4, #1073741824
 232:lib/tinyusb/src/portable/synopsys/dwc2/dcd_dwc2.c ****       while ((epin[epnum].diepint & DIEPINT_EPDISD_Msk) == 0) {}
 661              		.loc 1 232 27 view .LVU227
 662 00b6 2243     		orrs	r2, r2, r4
 663 00b8 0A60     		str	r2, [r1]
 233:lib/tinyusb/src/portable/synopsys/dwc2/dcd_dwc2.c **** 
 664              		.loc 1 233 7 is_stmt 1 view .LVU228
 665              	.L37:
 233:lib/tinyusb/src/portable/synopsys/dwc2/dcd_dwc2.c **** 
 666              		.loc 1 233 64 discriminator 1 view .LVU229
 233:lib/tinyusb/src/portable/synopsys/dwc2/dcd_dwc2.c **** 
 667              		.loc 1 233 13 discriminator 1 view .LVU230
 233:lib/tinyusb/src/portable/synopsys/dwc2/dcd_dwc2.c **** 
 668              		.loc 1 233 26 is_stmt 0 discriminator 1 view .LVU231
 669 00ba 8A68     		ldr	r2, [r1, #8]
 233:lib/tinyusb/src/portable/synopsys/dwc2/dcd_dwc2.c **** 
 670              		.loc 1 233 13 discriminator 1 view .LVU232
 671 00bc 9207     		lsls	r2, r2, #30
 672 00be FCD5     		bpl	.L37
 235:lib/tinyusb/src/portable/synopsys/dwc2/dcd_dwc2.c ****     }
 673              		.loc 1 235 7 is_stmt 1 view .LVU233
 235:lib/tinyusb/src/portable/synopsys/dwc2/dcd_dwc2.c ****     }
 674              		.loc 1 235 27 is_stmt 0 view .LVU234
 675 00c0 0222     		movs	r2, #2
 676 00c2 8A60     		str	r2, [r1, #8]
 677 00c4 DBE7     		b	.L34
 678              	.L75:
 679 00c6 00BF     		.align	2
 680              	.L74:
 681 00c8 00000000 		.word	.LANCHOR0
 682 00cc 00002040 		.word	1075838976
 683              	.LBE206:
 684              		.cfi_endproc
 685              	.LFE395:
 687              		.section	.text.edpt_schedule_packets,"ax",%progbits
 688              		.align	1
 689              		.p2align 2,,3
 690              		.syntax unified
 691              		.thumb
 692              		.thumb_func
 694              	edpt_schedule_packets:
 695              	.LVL55:
 696              	.LFB397:
 265:lib/tinyusb/src/portable/synopsys/dwc2/dcd_dwc2.c **** 
 266:lib/tinyusb/src/portable/synopsys/dwc2/dcd_dwc2.c **** // Start of Bus Reset
 267:lib/tinyusb/src/portable/synopsys/dwc2/dcd_dwc2.c **** static void bus_reset(uint8_t rhport) {
 268:lib/tinyusb/src/portable/synopsys/dwc2/dcd_dwc2.c ****   dwc2_regs_t* dwc2 = DWC2_REG(rhport);
 269:lib/tinyusb/src/portable/synopsys/dwc2/dcd_dwc2.c ****   uint8_t const ep_count = _dwc2_controller[rhport].ep_count;
 270:lib/tinyusb/src/portable/synopsys/dwc2/dcd_dwc2.c **** 
 271:lib/tinyusb/src/portable/synopsys/dwc2/dcd_dwc2.c ****   tu_memclr(xfer_status, sizeof(xfer_status));
 272:lib/tinyusb/src/portable/synopsys/dwc2/dcd_dwc2.c **** 
 273:lib/tinyusb/src/portable/synopsys/dwc2/dcd_dwc2.c ****   _sof_en = false;
 274:lib/tinyusb/src/portable/synopsys/dwc2/dcd_dwc2.c **** 
 275:lib/tinyusb/src/portable/synopsys/dwc2/dcd_dwc2.c ****   // clear device address
 276:lib/tinyusb/src/portable/synopsys/dwc2/dcd_dwc2.c ****   dwc2->dcfg &= ~DCFG_DAD_Msk;
 277:lib/tinyusb/src/portable/synopsys/dwc2/dcd_dwc2.c **** 
 278:lib/tinyusb/src/portable/synopsys/dwc2/dcd_dwc2.c ****   // 1. NAK for all OUT endpoints
ARM GAS  /tmp/claude-502/ccFotbfS.s 			page 32


 279:lib/tinyusb/src/portable/synopsys/dwc2/dcd_dwc2.c ****   for (uint8_t n = 0; n < ep_count; n++) {
 280:lib/tinyusb/src/portable/synopsys/dwc2/dcd_dwc2.c ****     dwc2->epout[n].doepctl |= DOEPCTL_SNAK;
 281:lib/tinyusb/src/portable/synopsys/dwc2/dcd_dwc2.c ****   }
 282:lib/tinyusb/src/portable/synopsys/dwc2/dcd_dwc2.c **** 
 283:lib/tinyusb/src/portable/synopsys/dwc2/dcd_dwc2.c ****   // 2. Disable all IN endpoints
 284:lib/tinyusb/src/portable/synopsys/dwc2/dcd_dwc2.c ****   for (uint8_t n = 0; n < ep_count; n++) {
 285:lib/tinyusb/src/portable/synopsys/dwc2/dcd_dwc2.c ****     if (dwc2->epin[n].diepctl & DIEPCTL_EPENA) {
 286:lib/tinyusb/src/portable/synopsys/dwc2/dcd_dwc2.c ****       dwc2->epin[n].diepctl |= DIEPCTL_SNAK | DIEPCTL_EPDIS;
 287:lib/tinyusb/src/portable/synopsys/dwc2/dcd_dwc2.c ****     }
 288:lib/tinyusb/src/portable/synopsys/dwc2/dcd_dwc2.c ****   }
 289:lib/tinyusb/src/portable/synopsys/dwc2/dcd_dwc2.c **** 
 290:lib/tinyusb/src/portable/synopsys/dwc2/dcd_dwc2.c ****   fifo_flush_tx(dwc2, 0x10); // all tx fifo
 291:lib/tinyusb/src/portable/synopsys/dwc2/dcd_dwc2.c ****   fifo_flush_rx(dwc2);
 292:lib/tinyusb/src/portable/synopsys/dwc2/dcd_dwc2.c **** 
 293:lib/tinyusb/src/portable/synopsys/dwc2/dcd_dwc2.c ****   // 3. Set up interrupt mask
 294:lib/tinyusb/src/portable/synopsys/dwc2/dcd_dwc2.c ****   dwc2->daintmsk = TU_BIT(DAINTMSK_OEPM_Pos) | TU_BIT(DAINTMSK_IEPM_Pos);
 295:lib/tinyusb/src/portable/synopsys/dwc2/dcd_dwc2.c ****   dwc2->doepmsk = DOEPMSK_STUPM | DOEPMSK_XFRCM;
 296:lib/tinyusb/src/portable/synopsys/dwc2/dcd_dwc2.c ****   dwc2->diepmsk = DIEPMSK_TOM | DIEPMSK_XFRCM;
 297:lib/tinyusb/src/portable/synopsys/dwc2/dcd_dwc2.c **** 
 298:lib/tinyusb/src/portable/synopsys/dwc2/dcd_dwc2.c ****   // "USB Data FIFOs" section in reference manual
 299:lib/tinyusb/src/portable/synopsys/dwc2/dcd_dwc2.c ****   // Peripheral FIFO architecture
 300:lib/tinyusb/src/portable/synopsys/dwc2/dcd_dwc2.c ****   //
 301:lib/tinyusb/src/portable/synopsys/dwc2/dcd_dwc2.c ****   // The FIFO is split up in a lower part where the RX FIFO is located and an upper part where the 
 302:lib/tinyusb/src/portable/synopsys/dwc2/dcd_dwc2.c ****   // We do this to allow the RX FIFO to grow dynamically which is possible since the free space is 
 303:lib/tinyusb/src/portable/synopsys/dwc2/dcd_dwc2.c ****   // between the RX and TX FIFOs. This is required by ISO OUT EPs which need a bigger FIFO than the
 304:lib/tinyusb/src/portable/synopsys/dwc2/dcd_dwc2.c ****   // configuration done below.
 305:lib/tinyusb/src/portable/synopsys/dwc2/dcd_dwc2.c ****   //
 306:lib/tinyusb/src/portable/synopsys/dwc2/dcd_dwc2.c ****   // Dynamically FIFO sizes are of interest only for ISO EPs since all others are usually not opene
 307:lib/tinyusb/src/portable/synopsys/dwc2/dcd_dwc2.c ****   // All EPs other than ISO are opened as soon as the driver starts up i.e. when the host sends a
 308:lib/tinyusb/src/portable/synopsys/dwc2/dcd_dwc2.c ****   // configure interface command. Hence, all IN EPs other the ISO will be located at the top. IN IS
 309:lib/tinyusb/src/portable/synopsys/dwc2/dcd_dwc2.c ****   // opened when the host sends an additional command: setInterface. At this point in time
 310:lib/tinyusb/src/portable/synopsys/dwc2/dcd_dwc2.c ****   // the ISO EP will be located next to the free space and can change its size. In case more IN EPs
 311:lib/tinyusb/src/portable/synopsys/dwc2/dcd_dwc2.c ****   // an additional memory
 312:lib/tinyusb/src/portable/synopsys/dwc2/dcd_dwc2.c ****   //
 313:lib/tinyusb/src/portable/synopsys/dwc2/dcd_dwc2.c ****   // --------------- 320 or 1024 ( 1280 or 4096 bytes )
 314:lib/tinyusb/src/portable/synopsys/dwc2/dcd_dwc2.c ****   // | IN FIFO 0   |
 315:lib/tinyusb/src/portable/synopsys/dwc2/dcd_dwc2.c ****   // --------------- (320 or 1024) - 16
 316:lib/tinyusb/src/portable/synopsys/dwc2/dcd_dwc2.c ****   // | IN FIFO 1   |
 317:lib/tinyusb/src/portable/synopsys/dwc2/dcd_dwc2.c ****   // --------------- (320 or 1024) - 16 - x
 318:lib/tinyusb/src/portable/synopsys/dwc2/dcd_dwc2.c ****   // |   . . . .   |
 319:lib/tinyusb/src/portable/synopsys/dwc2/dcd_dwc2.c ****   // --------------- (320 or 1024) - 16 - x - y - ... - z
 320:lib/tinyusb/src/portable/synopsys/dwc2/dcd_dwc2.c ****   // | IN FIFO MAX |
 321:lib/tinyusb/src/portable/synopsys/dwc2/dcd_dwc2.c ****   // ---------------
 322:lib/tinyusb/src/portable/synopsys/dwc2/dcd_dwc2.c ****   // |    FREE     |
 323:lib/tinyusb/src/portable/synopsys/dwc2/dcd_dwc2.c ****   // --------------- GRXFSIZ
 324:lib/tinyusb/src/portable/synopsys/dwc2/dcd_dwc2.c ****   // | OUT FIFO    |
 325:lib/tinyusb/src/portable/synopsys/dwc2/dcd_dwc2.c ****   // | ( Shared )  |
 326:lib/tinyusb/src/portable/synopsys/dwc2/dcd_dwc2.c ****   // --------------- 0
 327:lib/tinyusb/src/portable/synopsys/dwc2/dcd_dwc2.c ****   //
 328:lib/tinyusb/src/portable/synopsys/dwc2/dcd_dwc2.c ****   // According to "FIFO RAM allocation" section in RM, FIFO RAM are allocated as follows (each word
 329:lib/tinyusb/src/portable/synopsys/dwc2/dcd_dwc2.c ****   // - Each EP IN needs at least max packet size, 16 words is sufficient for EP0 IN
 330:lib/tinyusb/src/portable/synopsys/dwc2/dcd_dwc2.c ****   //
 331:lib/tinyusb/src/portable/synopsys/dwc2/dcd_dwc2.c ****   // - All EP OUT shared a unique OUT FIFO which uses
 332:lib/tinyusb/src/portable/synopsys/dwc2/dcd_dwc2.c ****   //   - 13 for setup packets + control words (up to 3 setup packets).
 333:lib/tinyusb/src/portable/synopsys/dwc2/dcd_dwc2.c ****   //   - 1 for global NAK (not required/used here).
 334:lib/tinyusb/src/portable/synopsys/dwc2/dcd_dwc2.c ****   //   - Largest-EPsize / 4 + 1. ( FS: 64 bytes, HS: 512 bytes). Recommended is  "2 x (Largest-EPsi
 335:lib/tinyusb/src/portable/synopsys/dwc2/dcd_dwc2.c ****   //   - 2 for each used OUT endpoint
ARM GAS  /tmp/claude-502/ccFotbfS.s 			page 33


 336:lib/tinyusb/src/portable/synopsys/dwc2/dcd_dwc2.c ****   //
 337:lib/tinyusb/src/portable/synopsys/dwc2/dcd_dwc2.c ****   //   Therefore GRXFSIZ = 13 + 1 + 1 + 2 x (Largest-EPsize/4) + 2 x EPOUTnum
 338:lib/tinyusb/src/portable/synopsys/dwc2/dcd_dwc2.c ****   //   - FullSpeed (64 Bytes ): GRXFSIZ = 15 + 2 x  16 + 2 x ep_count = 47  + 2 x ep_count
 339:lib/tinyusb/src/portable/synopsys/dwc2/dcd_dwc2.c ****   //   - Highspeed (512 bytes): GRXFSIZ = 15 + 2 x 128 + 2 x ep_count = 271 + 2 x ep_count
 340:lib/tinyusb/src/portable/synopsys/dwc2/dcd_dwc2.c ****   //
 341:lib/tinyusb/src/portable/synopsys/dwc2/dcd_dwc2.c ****   //   NOTE: Largest-EPsize & EPOUTnum is actual used endpoints in configuration. Since DCD has no 
 342:lib/tinyusb/src/portable/synopsys/dwc2/dcd_dwc2.c ****   //   of the overall picture yet. We will use the worst scenario: largest possible + ep_count
 343:lib/tinyusb/src/portable/synopsys/dwc2/dcd_dwc2.c ****   //
 344:lib/tinyusb/src/portable/synopsys/dwc2/dcd_dwc2.c ****   //   For Isochronous, largest EP size can be 1023/1024 for FS/HS respectively. In addition if mul
 345:lib/tinyusb/src/portable/synopsys/dwc2/dcd_dwc2.c ****   //   are enabled at least "2 x (Largest-EPsize/4) + 1" are recommended.  Maybe provide a macro fo
 346:lib/tinyusb/src/portable/synopsys/dwc2/dcd_dwc2.c ****   //   overwrite this.
 347:lib/tinyusb/src/portable/synopsys/dwc2/dcd_dwc2.c **** 
 348:lib/tinyusb/src/portable/synopsys/dwc2/dcd_dwc2.c ****   // EP0 out max is 64
 349:lib/tinyusb/src/portable/synopsys/dwc2/dcd_dwc2.c ****   dwc2->grxfsiz = calc_grxfsiz(64, ep_count);
 350:lib/tinyusb/src/portable/synopsys/dwc2/dcd_dwc2.c **** 
 351:lib/tinyusb/src/portable/synopsys/dwc2/dcd_dwc2.c ****   // Setup the control endpoint 0
 352:lib/tinyusb/src/portable/synopsys/dwc2/dcd_dwc2.c ****   _allocated_fifo_words_tx = 16;
 353:lib/tinyusb/src/portable/synopsys/dwc2/dcd_dwc2.c **** 
 354:lib/tinyusb/src/portable/synopsys/dwc2/dcd_dwc2.c ****   // Control IN uses FIFO 0 with 64 bytes ( 16 32-bit word )
 355:lib/tinyusb/src/portable/synopsys/dwc2/dcd_dwc2.c ****   dwc2->dieptxf0 = (16 << DIEPTXF0_TX0FD_Pos) | (_dwc2_controller[rhport].ep_fifo_size / 4 - _alloc
 356:lib/tinyusb/src/portable/synopsys/dwc2/dcd_dwc2.c **** 
 357:lib/tinyusb/src/portable/synopsys/dwc2/dcd_dwc2.c ****   // Fixed control EP0 size to 64 bytes
 358:lib/tinyusb/src/portable/synopsys/dwc2/dcd_dwc2.c ****   dwc2->epin[0].diepctl &= ~(0x03 << DIEPCTL_MPSIZ_Pos);
 359:lib/tinyusb/src/portable/synopsys/dwc2/dcd_dwc2.c ****   xfer_status[0][TUSB_DIR_OUT].max_size = 64;
 360:lib/tinyusb/src/portable/synopsys/dwc2/dcd_dwc2.c ****   xfer_status[0][TUSB_DIR_IN].max_size = 64;
 361:lib/tinyusb/src/portable/synopsys/dwc2/dcd_dwc2.c **** 
 362:lib/tinyusb/src/portable/synopsys/dwc2/dcd_dwc2.c ****   dwc2->epout[0].doeptsiz |= (3 << DOEPTSIZ_STUPCNT_Pos);
 363:lib/tinyusb/src/portable/synopsys/dwc2/dcd_dwc2.c **** 
 364:lib/tinyusb/src/portable/synopsys/dwc2/dcd_dwc2.c ****   dwc2->gintmsk |= GINTMSK_OEPINT | GINTMSK_IEPINT;
 365:lib/tinyusb/src/portable/synopsys/dwc2/dcd_dwc2.c **** }
 366:lib/tinyusb/src/portable/synopsys/dwc2/dcd_dwc2.c **** 
 367:lib/tinyusb/src/portable/synopsys/dwc2/dcd_dwc2.c **** static void edpt_schedule_packets(uint8_t rhport, uint8_t const epnum, uint8_t const dir, uint16_t 
 368:lib/tinyusb/src/portable/synopsys/dwc2/dcd_dwc2.c ****                                   uint16_t total_bytes) {
 697              		.loc 1 368 57 is_stmt 1 view -0
 698              		.cfi_startproc
 699              		@ args = 4, pretend = 0, frame = 0
 700              		@ frame_needed = 0, uses_anonymous_args = 0
 369:lib/tinyusb/src/portable/synopsys/dwc2/dcd_dwc2.c ****   (void) rhport;
 701              		.loc 1 369 3 view .LVU236
 370:lib/tinyusb/src/portable/synopsys/dwc2/dcd_dwc2.c **** 
 371:lib/tinyusb/src/portable/synopsys/dwc2/dcd_dwc2.c ****   dwc2_regs_t* dwc2 = DWC2_REG(rhport);
 702              		.loc 1 371 3 view .LVU237
 368:lib/tinyusb/src/portable/synopsys/dwc2/dcd_dwc2.c ****   (void) rhport;
 703              		.loc 1 368 57 is_stmt 0 view .LVU238
 704 0000 70B5     		push	{r4, r5, r6, lr}
 705              		.cfi_def_cfa_offset 16
 706              		.cfi_offset 4, -16
 707              		.cfi_offset 5, -12
 708              		.cfi_offset 6, -8
 709              		.cfi_offset 14, -4
 710              		.loc 1 371 23 view .LVU239
 711 0002 0001     		lsls	r0, r0, #4
 712              	.LVL56:
 713              		.loc 1 371 23 view .LVU240
 714 0004 3D4D     		ldr	r5, .L92
 368:lib/tinyusb/src/portable/synopsys/dwc2/dcd_dwc2.c ****   (void) rhport;
 715              		.loc 1 368 57 view .LVU241
ARM GAS  /tmp/claude-502/ccFotbfS.s 			page 34


 716 0006 BDF81040 		ldrh	r4, [sp, #16]
 717              		.loc 1 371 16 view .LVU242
 718 000a 2D58     		ldr	r5, [r5, r0]
 719              	.LVL57:
 372:lib/tinyusb/src/portable/synopsys/dwc2/dcd_dwc2.c **** 
 373:lib/tinyusb/src/portable/synopsys/dwc2/dcd_dwc2.c ****   // EP0 is limited to one packet each xfer
 374:lib/tinyusb/src/portable/synopsys/dwc2/dcd_dwc2.c ****   // We use multiple transaction of xfer->max_size length to get a whole transfer done
 375:lib/tinyusb/src/portable/synopsys/dwc2/dcd_dwc2.c ****   if (epnum == 0) {
 720              		.loc 1 375 3 is_stmt 1 view .LVU243
 721              		.loc 1 375 6 is_stmt 0 view .LVU244
 722 000c 61B9     		cbnz	r1, .L77
 723              	.LBB207:
 376:lib/tinyusb/src/portable/synopsys/dwc2/dcd_dwc2.c ****     xfer_ctl_t* const xfer = XFER_CTL_BASE(epnum, dir);
 724              		.loc 1 376 5 is_stmt 1 view .LVU245
 725              	.LVL58:
 377:lib/tinyusb/src/portable/synopsys/dwc2/dcd_dwc2.c ****     total_bytes = tu_min16(ep0_pending[dir], xfer->max_size);
 726              		.loc 1 377 5 view .LVU246
 727              		.loc 1 377 19 is_stmt 0 view .LVU247
 728 000e 3C48     		ldr	r0, .L92+4
 729 0010 3C4E     		ldr	r6, .L92+8
 730 0012 00EB0210 		add	r0, r0, r2, lsl #4
 731              	.LBB208:
 732              	.LBB209:
 151:lib/tinyusb/src/common/tusb_common.h **** TU_ATTR_ALWAYS_INLINE static inline uint32_t tu_min32 (uint32_t x, uint32_t y) { return (x < y) ? x
 733              		.loc 3 151 101 view .LVU248
 734 0016 4489     		ldrh	r4, [r0, #10]
 735              	.LBE209:
 736              	.LBE208:
 737              		.loc 1 377 19 view .LVU249
 738 0018 36F81200 		ldrh	r0, [r6, r2, lsl #1]
 739              	.LVL59:
 740              	.LBB211:
 741              	.LBI208:
 151:lib/tinyusb/src/common/tusb_common.h **** TU_ATTR_ALWAYS_INLINE static inline uint32_t tu_min32 (uint32_t x, uint32_t y) { return (x < y) ? x
 742              		.loc 3 151 46 is_stmt 1 view .LVU250
 743              	.LBB210:
 151:lib/tinyusb/src/common/tusb_common.h **** TU_ATTR_ALWAYS_INLINE static inline uint32_t tu_min32 (uint32_t x, uint32_t y) { return (x < y) ? x
 744              		.loc 3 151 82 view .LVU251
 151:lib/tinyusb/src/common/tusb_common.h **** TU_ATTR_ALWAYS_INLINE static inline uint32_t tu_min32 (uint32_t x, uint32_t y) { return (x < y) ? x
 745              		.loc 3 151 101 is_stmt 0 view .LVU252
 746 001c 8442     		cmp	r4, r0
 747 001e 28BF     		it	cs
 748 0020 0446     		movcs	r4, r0
 749              	.LVL60:
 151:lib/tinyusb/src/common/tusb_common.h **** TU_ATTR_ALWAYS_INLINE static inline uint32_t tu_min32 (uint32_t x, uint32_t y) { return (x < y) ? x
 750              		.loc 3 151 101 view .LVU253
 751              	.LBE210:
 752              	.LBE211:
 378:lib/tinyusb/src/portable/synopsys/dwc2/dcd_dwc2.c ****     ep0_pending[dir] -= total_bytes;
 753              		.loc 1 378 5 is_stmt 1 view .LVU254
 754              		.loc 1 378 22 is_stmt 0 view .LVU255
 755 0022 001B     		subs	r0, r0, r4
 756 0024 26F81200 		strh	r0, [r6, r2, lsl #1]	@ movhi
 757              	.LVL61:
 758              	.L77:
 759              		.loc 1 378 22 view .LVU256
 760              	.LBE207:
ARM GAS  /tmp/claude-502/ccFotbfS.s 			page 35


 379:lib/tinyusb/src/portable/synopsys/dwc2/dcd_dwc2.c ****   }
 380:lib/tinyusb/src/portable/synopsys/dwc2/dcd_dwc2.c **** 
 381:lib/tinyusb/src/portable/synopsys/dwc2/dcd_dwc2.c ****   // IN and OUT endpoint xfers are interrupt-driven, we just schedule them here.
 382:lib/tinyusb/src/portable/synopsys/dwc2/dcd_dwc2.c ****   if (dir == TUSB_DIR_IN) {
 761              		.loc 1 382 3 is_stmt 1 view .LVU257
 762              		.loc 1 382 6 is_stmt 0 view .LVU258
 763 0028 012A     		cmp	r2, #1
 764 002a 35D0     		beq	.L88
 765              	.LBB212:
 383:lib/tinyusb/src/portable/synopsys/dwc2/dcd_dwc2.c ****     dwc2_epin_t* epin = dwc2->epin;
 384:lib/tinyusb/src/portable/synopsys/dwc2/dcd_dwc2.c **** 
 385:lib/tinyusb/src/portable/synopsys/dwc2/dcd_dwc2.c ****     // A full IN transfer (multiple packets, possibly) triggers XFRC.
 386:lib/tinyusb/src/portable/synopsys/dwc2/dcd_dwc2.c ****     epin[epnum].dieptsiz = (num_packets << DIEPTSIZ_PKTCNT_Pos) |
 387:lib/tinyusb/src/portable/synopsys/dwc2/dcd_dwc2.c ****                            ((total_bytes << DIEPTSIZ_XFRSIZ_Pos) & DIEPTSIZ_XFRSIZ_Msk);
 388:lib/tinyusb/src/portable/synopsys/dwc2/dcd_dwc2.c **** 
 389:lib/tinyusb/src/portable/synopsys/dwc2/dcd_dwc2.c ****     epin[epnum].diepctl |= DIEPCTL_EPENA | DIEPCTL_CNAK;
 390:lib/tinyusb/src/portable/synopsys/dwc2/dcd_dwc2.c **** 
 391:lib/tinyusb/src/portable/synopsys/dwc2/dcd_dwc2.c ****     // For ISO endpoint set correct odd/even bit for next frame.
 392:lib/tinyusb/src/portable/synopsys/dwc2/dcd_dwc2.c ****     if ((epin[epnum].diepctl & DIEPCTL_EPTYP) == DIEPCTL_EPTYP_0 && (XFER_CTL_BASE(epnum, dir))->in
 393:lib/tinyusb/src/portable/synopsys/dwc2/dcd_dwc2.c ****       // Take odd/even bit from frame counter.
 394:lib/tinyusb/src/portable/synopsys/dwc2/dcd_dwc2.c ****       uint32_t const odd_frame_now = (dwc2->dsts & (1u << DSTS_FNSOF_Pos));
 395:lib/tinyusb/src/portable/synopsys/dwc2/dcd_dwc2.c ****       epin[epnum].diepctl |= (odd_frame_now ? DIEPCTL_SD0PID_SEVNFRM_Msk : DIEPCTL_SODDFRM_Msk);
 396:lib/tinyusb/src/portable/synopsys/dwc2/dcd_dwc2.c ****     }
 397:lib/tinyusb/src/portable/synopsys/dwc2/dcd_dwc2.c ****     // Enable fifo empty interrupt only if there are something to put in the fifo.
 398:lib/tinyusb/src/portable/synopsys/dwc2/dcd_dwc2.c ****     if (total_bytes != 0) {
 399:lib/tinyusb/src/portable/synopsys/dwc2/dcd_dwc2.c ****       dwc2->diepempmsk |= (1 << epnum);
 400:lib/tinyusb/src/portable/synopsys/dwc2/dcd_dwc2.c ****     }
 401:lib/tinyusb/src/portable/synopsys/dwc2/dcd_dwc2.c ****   } else {
 402:lib/tinyusb/src/portable/synopsys/dwc2/dcd_dwc2.c ****     dwc2_epout_t* epout = dwc2->epout;
 766              		.loc 1 402 5 is_stmt 1 view .LVU259
 767              	.LVL62:
 403:lib/tinyusb/src/portable/synopsys/dwc2/dcd_dwc2.c **** 
 404:lib/tinyusb/src/portable/synopsys/dwc2/dcd_dwc2.c ****     // A full OUT transfer (multiple packets, possibly) triggers XFRC.
 405:lib/tinyusb/src/portable/synopsys/dwc2/dcd_dwc2.c ****     epout[epnum].doeptsiz &= ~(DOEPTSIZ_PKTCNT_Msk | DOEPTSIZ_XFRSIZ);
 768              		.loc 1 405 5 view .LVU260
 402:lib/tinyusb/src/portable/synopsys/dwc2/dcd_dwc2.c **** 
 769              		.loc 1 402 19 is_stmt 0 view .LVU261
 770 002c 05F53060 		add	r0, r5, #2816
 771              	.LVL63:
 772              		.loc 1 405 10 view .LVU262
 773 0030 4FEA411E 		lsl	lr, r1, #5
 774              		.loc 1 405 27 view .LVU263
 775 0034 00EB411C 		add	ip, r0, r1, lsl #5
 776 0038 DCF81020 		ldr	r2, [ip, #16]
 777              	.LVL64:
 778              		.loc 1 405 27 view .LVU264
 779 003c 02F06042 		and	r2, r2, #-536870912
 780 0040 CCF81020 		str	r2, [ip, #16]
 406:lib/tinyusb/src/portable/synopsys/dwc2/dcd_dwc2.c ****     epout[epnum].doeptsiz |= (num_packets << DOEPTSIZ_PKTCNT_Pos) |
 781              		.loc 1 406 5 is_stmt 1 view .LVU265
 782              		.loc 1 406 27 is_stmt 0 view .LVU266
 783 0044 DCF81020 		ldr	r2, [ip, #16]
 784 0048 42EAC343 		orr	r3, r2, r3, lsl #19
 785              	.LVL65:
 786              		.loc 1 406 27 view .LVU267
 787 004c 1C43     		orrs	r4, r4, r3
 788              	.LVL66:
ARM GAS  /tmp/claude-502/ccFotbfS.s 			page 36


 789              		.loc 1 406 27 view .LVU268
 790 004e CCF81040 		str	r4, [ip, #16]
 407:lib/tinyusb/src/portable/synopsys/dwc2/dcd_dwc2.c ****                              ((total_bytes << DOEPTSIZ_XFRSIZ_Pos) & DOEPTSIZ_XFRSIZ_Msk);
 408:lib/tinyusb/src/portable/synopsys/dwc2/dcd_dwc2.c **** 
 409:lib/tinyusb/src/portable/synopsys/dwc2/dcd_dwc2.c ****     epout[epnum].doepctl |= DOEPCTL_EPENA | DOEPCTL_CNAK;
 791              		.loc 1 409 5 is_stmt 1 view .LVU269
 792              		.loc 1 409 26 is_stmt 0 view .LVU270
 793 0052 50F80E30 		ldr	r3, [r0, lr]
 794 0056 43F00443 		orr	r3, r3, #-2080374784
 795 005a 40F80E30 		str	r3, [r0, lr]
 410:lib/tinyusb/src/portable/synopsys/dwc2/dcd_dwc2.c ****     if ((epout[epnum].doepctl & DOEPCTL_EPTYP) == DOEPCTL_EPTYP_0 &&
 796              		.loc 1 410 5 is_stmt 1 view .LVU271
 797              		.loc 1 410 22 is_stmt 0 view .LVU272
 798 005e 50F80E30 		ldr	r3, [r0, lr]
 799              		.loc 1 410 31 view .LVU273
 800 0062 03F44023 		and	r3, r3, #786432
 801              		.loc 1 410 8 view .LVU274
 802 0066 B3F5802F 		cmp	r3, #262144
 803 006a 00D0     		beq	.L89
 804              	.LVL67:
 805              	.L76:
 806              		.loc 1 410 8 view .LVU275
 807              	.LBE212:
 411:lib/tinyusb/src/portable/synopsys/dwc2/dcd_dwc2.c ****         XFER_CTL_BASE(epnum, dir)->interval == 1) {
 412:lib/tinyusb/src/portable/synopsys/dwc2/dcd_dwc2.c ****       // Take odd/even bit from frame counter.
 413:lib/tinyusb/src/portable/synopsys/dwc2/dcd_dwc2.c ****       uint32_t const odd_frame_now = (dwc2->dsts & (1u << DSTS_FNSOF_Pos));
 414:lib/tinyusb/src/portable/synopsys/dwc2/dcd_dwc2.c ****       epout[epnum].doepctl |= (odd_frame_now ? DOEPCTL_SD0PID_SEVNFRM_Msk : DOEPCTL_SODDFRM_Msk);
 415:lib/tinyusb/src/portable/synopsys/dwc2/dcd_dwc2.c ****     }
 416:lib/tinyusb/src/portable/synopsys/dwc2/dcd_dwc2.c ****   }
 417:lib/tinyusb/src/portable/synopsys/dwc2/dcd_dwc2.c **** }
 808              		.loc 1 417 1 view .LVU276
 809 006c 70BD     		pop	{r4, r5, r6, pc}
 810              	.LVL68:
 811              	.L89:
 812              	.LBB214:
 411:lib/tinyusb/src/portable/synopsys/dwc2/dcd_dwc2.c ****         XFER_CTL_BASE(epnum, dir)->interval == 1) {
 813              		.loc 1 411 34 discriminator 1 view .LVU277
 814 006e 244B     		ldr	r3, .L92+4
 815 0070 03EB4111 		add	r1, r3, r1, lsl #5
 816              	.LVL69:
 410:lib/tinyusb/src/portable/synopsys/dwc2/dcd_dwc2.c ****     if ((epout[epnum].doepctl & DOEPCTL_EPTYP) == DOEPCTL_EPTYP_0 &&
 817              		.loc 1 410 67 discriminator 1 view .LVU278
 818 0074 0B7B     		ldrb	r3, [r1, #12]	@ zero_extendqisi2
 819 0076 012B     		cmp	r3, #1
 820 0078 F8D1     		bne	.L76
 821              	.LBB213:
 413:lib/tinyusb/src/portable/synopsys/dwc2/dcd_dwc2.c ****       epout[epnum].doepctl |= (odd_frame_now ? DOEPCTL_SD0PID_SEVNFRM_Msk : DOEPCTL_SODDFRM_Msk);
 822              		.loc 1 413 7 is_stmt 1 view .LVU279
 413:lib/tinyusb/src/portable/synopsys/dwc2/dcd_dwc2.c ****       epout[epnum].doepctl |= (odd_frame_now ? DOEPCTL_SD0PID_SEVNFRM_Msk : DOEPCTL_SODDFRM_Msk);
 823              		.loc 1 413 43 is_stmt 0 view .LVU280
 824 007a D5F80828 		ldr	r2, [r5, #2056]
 825              	.LVL70:
 414:lib/tinyusb/src/portable/synopsys/dwc2/dcd_dwc2.c ****     }
 826              		.loc 1 414 7 is_stmt 1 view .LVU281
 414:lib/tinyusb/src/portable/synopsys/dwc2/dcd_dwc2.c ****     }
 827              		.loc 1 414 28 is_stmt 0 view .LVU282
 828 007e 50F80E30 		ldr	r3, [r0, lr]
ARM GAS  /tmp/claude-502/ccFotbfS.s 			page 37


 414:lib/tinyusb/src/portable/synopsys/dwc2/dcd_dwc2.c ****     }
 829              		.loc 1 414 75 view .LVU283
 830 0082 12F4807F 		tst	r2, #256
 831 0086 14BF     		ite	ne
 832 0088 4FF08052 		movne	r2, #268435456
 833              	.LVL71:
 414:lib/tinyusb/src/portable/synopsys/dwc2/dcd_dwc2.c ****     }
 834              		.loc 1 414 75 view .LVU284
 835 008c 4FF00052 		moveq	r2, #536870912
 414:lib/tinyusb/src/portable/synopsys/dwc2/dcd_dwc2.c ****     }
 836              		.loc 1 414 28 view .LVU285
 837 0090 1343     		orrs	r3, r3, r2
 838 0092 40F80E30 		str	r3, [r0, lr]
 839              	.LBE213:
 840              	.LBE214:
 841              		.loc 1 417 1 view .LVU286
 842 0096 70BD     		pop	{r4, r5, r6, pc}
 843              	.LVL72:
 844              	.L88:
 845              	.LBB215:
 383:lib/tinyusb/src/portable/synopsys/dwc2/dcd_dwc2.c **** 
 846              		.loc 1 383 5 is_stmt 1 view .LVU287
 386:lib/tinyusb/src/portable/synopsys/dwc2/dcd_dwc2.c ****                            ((total_bytes << DIEPTSIZ_XFRSIZ_Pos) & DIEPTSIZ_XFRSIZ_Msk);
 847              		.loc 1 386 5 view .LVU288
 383:lib/tinyusb/src/portable/synopsys/dwc2/dcd_dwc2.c **** 
 848              		.loc 1 383 18 is_stmt 0 view .LVU289
 849 0098 05F51062 		add	r2, r5, #2304
 850              	.LVL73:
 386:lib/tinyusb/src/portable/synopsys/dwc2/dcd_dwc2.c ****                            ((total_bytes << DIEPTSIZ_XFRSIZ_Pos) & DIEPTSIZ_XFRSIZ_Msk);
 851              		.loc 1 386 9 view .LVU290
 852 009c 4801     		lsls	r0, r1, #5
 386:lib/tinyusb/src/portable/synopsys/dwc2/dcd_dwc2.c ****                            ((total_bytes << DIEPTSIZ_XFRSIZ_Pos) & DIEPTSIZ_XFRSIZ_Msk);
 853              		.loc 1 386 65 view .LVU291
 854 009e 44EAC343 		orr	r3, r4, r3, lsl #19
 855              	.LVL74:
 386:lib/tinyusb/src/portable/synopsys/dwc2/dcd_dwc2.c ****                            ((total_bytes << DIEPTSIZ_XFRSIZ_Pos) & DIEPTSIZ_XFRSIZ_Msk);
 856              		.loc 1 386 9 view .LVU292
 857 00a2 02EB4116 		add	r6, r2, r1, lsl #5
 386:lib/tinyusb/src/portable/synopsys/dwc2/dcd_dwc2.c ****                            ((total_bytes << DIEPTSIZ_XFRSIZ_Pos) & DIEPTSIZ_XFRSIZ_Msk);
 858              		.loc 1 386 26 view .LVU293
 859 00a6 3361     		str	r3, [r6, #16]
 389:lib/tinyusb/src/portable/synopsys/dwc2/dcd_dwc2.c **** 
 860              		.loc 1 389 5 is_stmt 1 view .LVU294
 389:lib/tinyusb/src/portable/synopsys/dwc2/dcd_dwc2.c **** 
 861              		.loc 1 389 25 is_stmt 0 view .LVU295
 862 00a8 1358     		ldr	r3, [r2, r0]
 863 00aa 43F00443 		orr	r3, r3, #-2080374784
 864 00ae 1350     		str	r3, [r2, r0]
 392:lib/tinyusb/src/portable/synopsys/dwc2/dcd_dwc2.c ****       // Take odd/even bit from frame counter.
 865              		.loc 1 392 5 is_stmt 1 view .LVU296
 392:lib/tinyusb/src/portable/synopsys/dwc2/dcd_dwc2.c ****       // Take odd/even bit from frame counter.
 866              		.loc 1 392 21 is_stmt 0 view .LVU297
 867 00b0 1358     		ldr	r3, [r2, r0]
 392:lib/tinyusb/src/portable/synopsys/dwc2/dcd_dwc2.c ****       // Take odd/even bit from frame counter.
 868              		.loc 1 392 30 view .LVU298
 869 00b2 03F44023 		and	r3, r3, #786432
 392:lib/tinyusb/src/portable/synopsys/dwc2/dcd_dwc2.c ****       // Take odd/even bit from frame counter.
ARM GAS  /tmp/claude-502/ccFotbfS.s 			page 38


 870              		.loc 1 392 8 view .LVU299
 871 00b6 B3F5802F 		cmp	r3, #262144
 872 00ba 0AD0     		beq	.L90
 873              	.L79:
 398:lib/tinyusb/src/portable/synopsys/dwc2/dcd_dwc2.c ****       dwc2->diepempmsk |= (1 << epnum);
 874              		.loc 1 398 5 is_stmt 1 view .LVU300
 398:lib/tinyusb/src/portable/synopsys/dwc2/dcd_dwc2.c ****       dwc2->diepempmsk |= (1 << epnum);
 875              		.loc 1 398 8 is_stmt 0 view .LVU301
 876 00bc 002C     		cmp	r4, #0
 877 00be D5D0     		beq	.L76
 878              	.L91:
 399:lib/tinyusb/src/portable/synopsys/dwc2/dcd_dwc2.c ****     }
 879              		.loc 1 399 7 is_stmt 1 view .LVU302
 399:lib/tinyusb/src/portable/synopsys/dwc2/dcd_dwc2.c ****     }
 880              		.loc 1 399 30 is_stmt 0 view .LVU303
 881 00c0 0123     		movs	r3, #1
 399:lib/tinyusb/src/portable/synopsys/dwc2/dcd_dwc2.c ****     }
 882              		.loc 1 399 24 view .LVU304
 883 00c2 D5F83428 		ldr	r2, [r5, #2100]
 884              	.LVL75:
 399:lib/tinyusb/src/portable/synopsys/dwc2/dcd_dwc2.c ****     }
 885              		.loc 1 399 30 view .LVU305
 886 00c6 03FA01F1 		lsl	r1, r3, r1
 887              	.LVL76:
 399:lib/tinyusb/src/portable/synopsys/dwc2/dcd_dwc2.c ****     }
 888              		.loc 1 399 24 view .LVU306
 889 00ca 1143     		orrs	r1, r1, r2
 890 00cc C5F83418 		str	r1, [r5, #2100]
 891              	.LBE215:
 892              		.loc 1 417 1 view .LVU307
 893 00d0 70BD     		pop	{r4, r5, r6, pc}
 894              	.LVL77:
 895              	.L90:
 896              	.LBB217:
 392:lib/tinyusb/src/portable/synopsys/dwc2/dcd_dwc2.c ****       // Take odd/even bit from frame counter.
 897              		.loc 1 392 96 discriminator 1 view .LVU308
 898 00d2 0B4B     		ldr	r3, .L92+4
 899 00d4 03EB4113 		add	r3, r3, r1, lsl #5
 392:lib/tinyusb/src/portable/synopsys/dwc2/dcd_dwc2.c ****       // Take odd/even bit from frame counter.
 900              		.loc 1 392 66 discriminator 1 view .LVU309
 901 00d8 1B7F     		ldrb	r3, [r3, #28]	@ zero_extendqisi2
 902 00da 012B     		cmp	r3, #1
 903 00dc EED1     		bne	.L79
 904              	.LBB216:
 394:lib/tinyusb/src/portable/synopsys/dwc2/dcd_dwc2.c ****       epin[epnum].diepctl |= (odd_frame_now ? DIEPCTL_SD0PID_SEVNFRM_Msk : DIEPCTL_SODDFRM_Msk);
 905              		.loc 1 394 7 is_stmt 1 view .LVU310
 394:lib/tinyusb/src/portable/synopsys/dwc2/dcd_dwc2.c ****       epin[epnum].diepctl |= (odd_frame_now ? DIEPCTL_SD0PID_SEVNFRM_Msk : DIEPCTL_SODDFRM_Msk);
 906              		.loc 1 394 43 is_stmt 0 view .LVU311
 907 00de D5F80838 		ldr	r3, [r5, #2056]
 908              	.LVL78:
 395:lib/tinyusb/src/portable/synopsys/dwc2/dcd_dwc2.c ****     }
 909              		.loc 1 395 7 is_stmt 1 view .LVU312
 395:lib/tinyusb/src/portable/synopsys/dwc2/dcd_dwc2.c ****     }
 910              		.loc 1 395 74 is_stmt 0 view .LVU313
 911 00e2 13F4807F 		tst	r3, #256
 395:lib/tinyusb/src/portable/synopsys/dwc2/dcd_dwc2.c ****     }
 912              		.loc 1 395 27 view .LVU314
ARM GAS  /tmp/claude-502/ccFotbfS.s 			page 39


 913 00e6 1358     		ldr	r3, [r2, r0]
 914              	.LVL79:
 395:lib/tinyusb/src/portable/synopsys/dwc2/dcd_dwc2.c ****     }
 915              		.loc 1 395 74 view .LVU315
 916 00e8 14BF     		ite	ne
 917 00ea 4FF08056 		movne	r6, #268435456
 918 00ee 4FF00056 		moveq	r6, #536870912
 395:lib/tinyusb/src/portable/synopsys/dwc2/dcd_dwc2.c ****     }
 919              		.loc 1 395 27 view .LVU316
 920 00f2 3343     		orrs	r3, r3, r6
 921 00f4 1350     		str	r3, [r2, r0]
 922              	.LBE216:
 398:lib/tinyusb/src/portable/synopsys/dwc2/dcd_dwc2.c ****       dwc2->diepempmsk |= (1 << epnum);
 923              		.loc 1 398 5 is_stmt 1 view .LVU317
 398:lib/tinyusb/src/portable/synopsys/dwc2/dcd_dwc2.c ****       dwc2->diepempmsk |= (1 << epnum);
 924              		.loc 1 398 8 is_stmt 0 view .LVU318
 925 00f6 002C     		cmp	r4, #0
 926 00f8 B8D0     		beq	.L76
 927 00fa E1E7     		b	.L91
 928              	.L93:
 929              		.align	2
 930              	.L92:
 931 00fc 00000000 		.word	.LANCHOR0
 932 0100 00000000 		.word	.LANCHOR2
 933 0104 00000000 		.word	.LANCHOR3
 934              	.LBE217:
 935              		.cfi_endproc
 936              	.LFE397:
 938              		.section	.text.dcd_init,"ax",%progbits
 939              		.align	1
 940              		.p2align 2,,3
 941              		.global	dcd_init
 942              		.syntax unified
 943              		.thumb
 944              		.thumb_func
 946              	dcd_init:
 947              	.LVL80:
 948              	.LFB403:
 418:lib/tinyusb/src/portable/synopsys/dwc2/dcd_dwc2.c **** 
 419:lib/tinyusb/src/portable/synopsys/dwc2/dcd_dwc2.c **** /*------------------------------------------------------------------*/
 420:lib/tinyusb/src/portable/synopsys/dwc2/dcd_dwc2.c **** /* Controller API
 421:lib/tinyusb/src/portable/synopsys/dwc2/dcd_dwc2.c ****  *------------------------------------------------------------------*/
 422:lib/tinyusb/src/portable/synopsys/dwc2/dcd_dwc2.c **** #if CFG_TUSB_DEBUG >= DWC2_DEBUG
 423:lib/tinyusb/src/portable/synopsys/dwc2/dcd_dwc2.c **** void print_dwc2_info(dwc2_regs_t* dwc2) {
 424:lib/tinyusb/src/portable/synopsys/dwc2/dcd_dwc2.c ****   // print guid, gsnpsid, ghwcfg1, ghwcfg2, ghwcfg3, ghwcfg4
 425:lib/tinyusb/src/portable/synopsys/dwc2/dcd_dwc2.c ****   // use dwc2_info.py/md for bit-field value and comparison with other ports
 426:lib/tinyusb/src/portable/synopsys/dwc2/dcd_dwc2.c ****   volatile uint32_t const* p = (volatile uint32_t const*) &dwc2->guid;
 427:lib/tinyusb/src/portable/synopsys/dwc2/dcd_dwc2.c ****   TU_LOG(DWC2_DEBUG, "guid, gsnpsid, ghwcfg1, ghwcfg2, ghwcfg3, ghwcfg4\r\n");
 428:lib/tinyusb/src/portable/synopsys/dwc2/dcd_dwc2.c ****   for (size_t i = 0; i < 5; i++) {
 429:lib/tinyusb/src/portable/synopsys/dwc2/dcd_dwc2.c ****     TU_LOG(DWC2_DEBUG, "0x%08" PRIX32 ", ", p[i]);
 430:lib/tinyusb/src/portable/synopsys/dwc2/dcd_dwc2.c ****   }
 431:lib/tinyusb/src/portable/synopsys/dwc2/dcd_dwc2.c ****   TU_LOG(DWC2_DEBUG, "0x%08" PRIX32 "\r\n", p[5]);
 432:lib/tinyusb/src/portable/synopsys/dwc2/dcd_dwc2.c **** }
 433:lib/tinyusb/src/portable/synopsys/dwc2/dcd_dwc2.c **** #endif
 434:lib/tinyusb/src/portable/synopsys/dwc2/dcd_dwc2.c **** 
 435:lib/tinyusb/src/portable/synopsys/dwc2/dcd_dwc2.c **** static void reset_core(dwc2_regs_t* dwc2) {
 436:lib/tinyusb/src/portable/synopsys/dwc2/dcd_dwc2.c ****   // reset core
ARM GAS  /tmp/claude-502/ccFotbfS.s 			page 40


 437:lib/tinyusb/src/portable/synopsys/dwc2/dcd_dwc2.c ****   dwc2->grstctl |= GRSTCTL_CSRST;
 438:lib/tinyusb/src/portable/synopsys/dwc2/dcd_dwc2.c **** 
 439:lib/tinyusb/src/portable/synopsys/dwc2/dcd_dwc2.c ****   // wait for reset bit is cleared
 440:lib/tinyusb/src/portable/synopsys/dwc2/dcd_dwc2.c ****   // TODO version 4.20a should wait for RESET DONE mask
 441:lib/tinyusb/src/portable/synopsys/dwc2/dcd_dwc2.c ****   while (dwc2->grstctl & GRSTCTL_CSRST) {}
 442:lib/tinyusb/src/portable/synopsys/dwc2/dcd_dwc2.c **** 
 443:lib/tinyusb/src/portable/synopsys/dwc2/dcd_dwc2.c ****   // wait for AHB master IDLE
 444:lib/tinyusb/src/portable/synopsys/dwc2/dcd_dwc2.c ****   while (!(dwc2->grstctl & GRSTCTL_AHBIDL)) {}
 445:lib/tinyusb/src/portable/synopsys/dwc2/dcd_dwc2.c **** 
 446:lib/tinyusb/src/portable/synopsys/dwc2/dcd_dwc2.c ****   // wait for device mode ?
 447:lib/tinyusb/src/portable/synopsys/dwc2/dcd_dwc2.c **** }
 448:lib/tinyusb/src/portable/synopsys/dwc2/dcd_dwc2.c **** 
 449:lib/tinyusb/src/portable/synopsys/dwc2/dcd_dwc2.c **** static bool phy_hs_supported(dwc2_regs_t* dwc2) {
 450:lib/tinyusb/src/portable/synopsys/dwc2/dcd_dwc2.c ****   (void) dwc2;
 451:lib/tinyusb/src/portable/synopsys/dwc2/dcd_dwc2.c **** 
 452:lib/tinyusb/src/portable/synopsys/dwc2/dcd_dwc2.c **** #if TU_CHECK_MCU(OPT_MCU_ESP32S2, OPT_MCU_ESP32S3)
 453:lib/tinyusb/src/portable/synopsys/dwc2/dcd_dwc2.c ****   // note: esp32 incorrect report its hs_phy_type as utmi
 454:lib/tinyusb/src/portable/synopsys/dwc2/dcd_dwc2.c ****   return false;
 455:lib/tinyusb/src/portable/synopsys/dwc2/dcd_dwc2.c **** #elif !TUD_OPT_HIGH_SPEED
 456:lib/tinyusb/src/portable/synopsys/dwc2/dcd_dwc2.c ****   return false;
 457:lib/tinyusb/src/portable/synopsys/dwc2/dcd_dwc2.c **** #else
 458:lib/tinyusb/src/portable/synopsys/dwc2/dcd_dwc2.c ****   return dwc2->ghwcfg2_bm.hs_phy_type != HS_PHY_TYPE_NONE;
 459:lib/tinyusb/src/portable/synopsys/dwc2/dcd_dwc2.c **** #endif
 460:lib/tinyusb/src/portable/synopsys/dwc2/dcd_dwc2.c **** }
 461:lib/tinyusb/src/portable/synopsys/dwc2/dcd_dwc2.c **** 
 462:lib/tinyusb/src/portable/synopsys/dwc2/dcd_dwc2.c **** static void phy_fs_init(dwc2_regs_t* dwc2) {
 463:lib/tinyusb/src/portable/synopsys/dwc2/dcd_dwc2.c ****   TU_LOG(DWC2_DEBUG, "Fullspeed PHY init\r\n");
 464:lib/tinyusb/src/portable/synopsys/dwc2/dcd_dwc2.c **** 
 465:lib/tinyusb/src/portable/synopsys/dwc2/dcd_dwc2.c ****   // Select FS PHY
 466:lib/tinyusb/src/portable/synopsys/dwc2/dcd_dwc2.c ****   dwc2->gusbcfg |= GUSBCFG_PHYSEL;
 467:lib/tinyusb/src/portable/synopsys/dwc2/dcd_dwc2.c **** 
 468:lib/tinyusb/src/portable/synopsys/dwc2/dcd_dwc2.c ****   // MCU specific PHY init before reset
 469:lib/tinyusb/src/portable/synopsys/dwc2/dcd_dwc2.c ****   dwc2_phy_init(dwc2, HS_PHY_TYPE_NONE);
 470:lib/tinyusb/src/portable/synopsys/dwc2/dcd_dwc2.c **** 
 471:lib/tinyusb/src/portable/synopsys/dwc2/dcd_dwc2.c ****   // Reset core after selecting PHY
 472:lib/tinyusb/src/portable/synopsys/dwc2/dcd_dwc2.c ****   reset_core(dwc2);
 473:lib/tinyusb/src/portable/synopsys/dwc2/dcd_dwc2.c **** 
 474:lib/tinyusb/src/portable/synopsys/dwc2/dcd_dwc2.c ****   // USB turnaround time is critical for certification where long cables and 5-Hubs are used.
 475:lib/tinyusb/src/portable/synopsys/dwc2/dcd_dwc2.c ****   // So if you need the AHB to run at less than 30 MHz, and if USB turnaround time is not critical,
 476:lib/tinyusb/src/portable/synopsys/dwc2/dcd_dwc2.c ****   // these bits can be programmed to a larger value. Default is 5
 477:lib/tinyusb/src/portable/synopsys/dwc2/dcd_dwc2.c ****   dwc2->gusbcfg = (dwc2->gusbcfg & ~GUSBCFG_TRDT_Msk) | (5u << GUSBCFG_TRDT_Pos);
 478:lib/tinyusb/src/portable/synopsys/dwc2/dcd_dwc2.c **** 
 479:lib/tinyusb/src/portable/synopsys/dwc2/dcd_dwc2.c ****   // MCU specific PHY update post reset
 480:lib/tinyusb/src/portable/synopsys/dwc2/dcd_dwc2.c ****   dwc2_phy_update(dwc2, HS_PHY_TYPE_NONE);
 481:lib/tinyusb/src/portable/synopsys/dwc2/dcd_dwc2.c **** 
 482:lib/tinyusb/src/portable/synopsys/dwc2/dcd_dwc2.c ****   // set max speed
 483:lib/tinyusb/src/portable/synopsys/dwc2/dcd_dwc2.c ****   dwc2->dcfg = (dwc2->dcfg & ~DCFG_DSPD_Msk) | (DCFG_DSPD_FS << DCFG_DSPD_Pos);
 484:lib/tinyusb/src/portable/synopsys/dwc2/dcd_dwc2.c **** }
 485:lib/tinyusb/src/portable/synopsys/dwc2/dcd_dwc2.c **** 
 486:lib/tinyusb/src/portable/synopsys/dwc2/dcd_dwc2.c **** static void phy_hs_init(dwc2_regs_t* dwc2) {
 487:lib/tinyusb/src/portable/synopsys/dwc2/dcd_dwc2.c ****   uint32_t gusbcfg = dwc2->gusbcfg;
 488:lib/tinyusb/src/portable/synopsys/dwc2/dcd_dwc2.c **** 
 489:lib/tinyusb/src/portable/synopsys/dwc2/dcd_dwc2.c ****   // De-select FS PHY
 490:lib/tinyusb/src/portable/synopsys/dwc2/dcd_dwc2.c ****   gusbcfg &= ~GUSBCFG_PHYSEL;
 491:lib/tinyusb/src/portable/synopsys/dwc2/dcd_dwc2.c **** 
 492:lib/tinyusb/src/portable/synopsys/dwc2/dcd_dwc2.c ****   if (dwc2->ghwcfg2_bm.hs_phy_type == HS_PHY_TYPE_ULPI) {
 493:lib/tinyusb/src/portable/synopsys/dwc2/dcd_dwc2.c ****     TU_LOG(DWC2_DEBUG, "Highspeed ULPI PHY init\r\n");
ARM GAS  /tmp/claude-502/ccFotbfS.s 			page 41


 494:lib/tinyusb/src/portable/synopsys/dwc2/dcd_dwc2.c **** 
 495:lib/tinyusb/src/portable/synopsys/dwc2/dcd_dwc2.c ****     // Select ULPI
 496:lib/tinyusb/src/portable/synopsys/dwc2/dcd_dwc2.c ****     gusbcfg |= GUSBCFG_ULPI_UTMI_SEL;
 497:lib/tinyusb/src/portable/synopsys/dwc2/dcd_dwc2.c **** 
 498:lib/tinyusb/src/portable/synopsys/dwc2/dcd_dwc2.c ****     // ULPI 8-bit interface, single data rate
 499:lib/tinyusb/src/portable/synopsys/dwc2/dcd_dwc2.c ****     gusbcfg &= ~(GUSBCFG_PHYIF16 | GUSBCFG_DDRSEL);
 500:lib/tinyusb/src/portable/synopsys/dwc2/dcd_dwc2.c **** 
 501:lib/tinyusb/src/portable/synopsys/dwc2/dcd_dwc2.c ****     // default internal VBUS Indicator and Drive
 502:lib/tinyusb/src/portable/synopsys/dwc2/dcd_dwc2.c ****     gusbcfg &= ~(GUSBCFG_ULPIEVBUSD | GUSBCFG_ULPIEVBUSI);
 503:lib/tinyusb/src/portable/synopsys/dwc2/dcd_dwc2.c **** 
 504:lib/tinyusb/src/portable/synopsys/dwc2/dcd_dwc2.c ****     // Disable FS/LS ULPI
 505:lib/tinyusb/src/portable/synopsys/dwc2/dcd_dwc2.c ****     gusbcfg &= ~(GUSBCFG_ULPIFSLS | GUSBCFG_ULPICSM);
 506:lib/tinyusb/src/portable/synopsys/dwc2/dcd_dwc2.c ****   } else {
 507:lib/tinyusb/src/portable/synopsys/dwc2/dcd_dwc2.c ****     TU_LOG(DWC2_DEBUG, "Highspeed UTMI+ PHY init\r\n");
 508:lib/tinyusb/src/portable/synopsys/dwc2/dcd_dwc2.c **** 
 509:lib/tinyusb/src/portable/synopsys/dwc2/dcd_dwc2.c ****     // Select UTMI+ with 8-bit interface
 510:lib/tinyusb/src/portable/synopsys/dwc2/dcd_dwc2.c ****     gusbcfg &= ~(GUSBCFG_ULPI_UTMI_SEL | GUSBCFG_PHYIF16);
 511:lib/tinyusb/src/portable/synopsys/dwc2/dcd_dwc2.c **** 
 512:lib/tinyusb/src/portable/synopsys/dwc2/dcd_dwc2.c ****     // Set 16-bit interface if supported
 513:lib/tinyusb/src/portable/synopsys/dwc2/dcd_dwc2.c ****     if (dwc2->ghwcfg4_bm.utmi_phy_data_width) gusbcfg |= GUSBCFG_PHYIF16;
 514:lib/tinyusb/src/portable/synopsys/dwc2/dcd_dwc2.c ****   }
 515:lib/tinyusb/src/portable/synopsys/dwc2/dcd_dwc2.c **** 
 516:lib/tinyusb/src/portable/synopsys/dwc2/dcd_dwc2.c ****   // Apply config
 517:lib/tinyusb/src/portable/synopsys/dwc2/dcd_dwc2.c ****   dwc2->gusbcfg = gusbcfg;
 518:lib/tinyusb/src/portable/synopsys/dwc2/dcd_dwc2.c **** 
 519:lib/tinyusb/src/portable/synopsys/dwc2/dcd_dwc2.c ****   // mcu specific phy init
 520:lib/tinyusb/src/portable/synopsys/dwc2/dcd_dwc2.c ****   dwc2_phy_init(dwc2, dwc2->ghwcfg2_bm.hs_phy_type);
 521:lib/tinyusb/src/portable/synopsys/dwc2/dcd_dwc2.c **** 
 522:lib/tinyusb/src/portable/synopsys/dwc2/dcd_dwc2.c ****   // Reset core after selecting PHY
 523:lib/tinyusb/src/portable/synopsys/dwc2/dcd_dwc2.c ****   reset_core(dwc2);
 524:lib/tinyusb/src/portable/synopsys/dwc2/dcd_dwc2.c **** 
 525:lib/tinyusb/src/portable/synopsys/dwc2/dcd_dwc2.c ****   // Set turn-around, must after core reset otherwise it will be clear
 526:lib/tinyusb/src/portable/synopsys/dwc2/dcd_dwc2.c ****   // - 9 if using 8-bit PHY interface
 527:lib/tinyusb/src/portable/synopsys/dwc2/dcd_dwc2.c ****   // - 5 if using 16-bit PHY interface
 528:lib/tinyusb/src/portable/synopsys/dwc2/dcd_dwc2.c ****   gusbcfg &= ~GUSBCFG_TRDT_Msk;
 529:lib/tinyusb/src/portable/synopsys/dwc2/dcd_dwc2.c ****   gusbcfg |= (dwc2->ghwcfg4_bm.utmi_phy_data_width ? 5u : 9u) << GUSBCFG_TRDT_Pos;
 530:lib/tinyusb/src/portable/synopsys/dwc2/dcd_dwc2.c ****   dwc2->gusbcfg = gusbcfg;
 531:lib/tinyusb/src/portable/synopsys/dwc2/dcd_dwc2.c **** 
 532:lib/tinyusb/src/portable/synopsys/dwc2/dcd_dwc2.c ****   // MCU specific PHY update post reset
 533:lib/tinyusb/src/portable/synopsys/dwc2/dcd_dwc2.c ****   dwc2_phy_update(dwc2, dwc2->ghwcfg2_bm.hs_phy_type);
 534:lib/tinyusb/src/portable/synopsys/dwc2/dcd_dwc2.c **** 
 535:lib/tinyusb/src/portable/synopsys/dwc2/dcd_dwc2.c ****   // Set max speed
 536:lib/tinyusb/src/portable/synopsys/dwc2/dcd_dwc2.c ****   uint32_t dcfg = dwc2->dcfg;
 537:lib/tinyusb/src/portable/synopsys/dwc2/dcd_dwc2.c ****   dcfg &= ~DCFG_DSPD_Msk;
 538:lib/tinyusb/src/portable/synopsys/dwc2/dcd_dwc2.c ****   dcfg |= DCFG_DSPD_HS << DCFG_DSPD_Pos;
 539:lib/tinyusb/src/portable/synopsys/dwc2/dcd_dwc2.c **** 
 540:lib/tinyusb/src/portable/synopsys/dwc2/dcd_dwc2.c ****   // XCVRDLY: transceiver delay between xcvr_sel and txvalid during device chirp is required
 541:lib/tinyusb/src/portable/synopsys/dwc2/dcd_dwc2.c ****   // when using with some PHYs such as USB334x (USB3341, USB3343, USB3346, USB3347)
 542:lib/tinyusb/src/portable/synopsys/dwc2/dcd_dwc2.c ****   if (dwc2->ghwcfg2_bm.hs_phy_type == HS_PHY_TYPE_ULPI) dcfg |= DCFG_XCVRDLY;
 543:lib/tinyusb/src/portable/synopsys/dwc2/dcd_dwc2.c **** 
 544:lib/tinyusb/src/portable/synopsys/dwc2/dcd_dwc2.c ****   dwc2->dcfg = dcfg;
 545:lib/tinyusb/src/portable/synopsys/dwc2/dcd_dwc2.c **** }
 546:lib/tinyusb/src/portable/synopsys/dwc2/dcd_dwc2.c **** 
 547:lib/tinyusb/src/portable/synopsys/dwc2/dcd_dwc2.c **** static bool check_dwc2(dwc2_regs_t* dwc2) {
 548:lib/tinyusb/src/portable/synopsys/dwc2/dcd_dwc2.c **** #if CFG_TUSB_DEBUG >= DWC2_DEBUG
 549:lib/tinyusb/src/portable/synopsys/dwc2/dcd_dwc2.c ****   print_dwc2_info(dwc2);
 550:lib/tinyusb/src/portable/synopsys/dwc2/dcd_dwc2.c **** #endif
ARM GAS  /tmp/claude-502/ccFotbfS.s 			page 42


 551:lib/tinyusb/src/portable/synopsys/dwc2/dcd_dwc2.c **** 
 552:lib/tinyusb/src/portable/synopsys/dwc2/dcd_dwc2.c ****   // For some reasons: GD32VF103 snpsid and all hwcfg register are always zero (skip it)
 553:lib/tinyusb/src/portable/synopsys/dwc2/dcd_dwc2.c ****   (void) dwc2;
 554:lib/tinyusb/src/portable/synopsys/dwc2/dcd_dwc2.c **** #if !TU_CHECK_MCU(OPT_MCU_GD32VF103)
 555:lib/tinyusb/src/portable/synopsys/dwc2/dcd_dwc2.c ****   uint32_t const gsnpsid = dwc2->gsnpsid & GSNPSID_ID_MASK;
 556:lib/tinyusb/src/portable/synopsys/dwc2/dcd_dwc2.c ****   TU_ASSERT(gsnpsid == DWC2_OTG_ID || gsnpsid == DWC2_FS_IOT_ID || gsnpsid == DWC2_HS_IOT_ID);
 557:lib/tinyusb/src/portable/synopsys/dwc2/dcd_dwc2.c **** #endif
 558:lib/tinyusb/src/portable/synopsys/dwc2/dcd_dwc2.c **** 
 559:lib/tinyusb/src/portable/synopsys/dwc2/dcd_dwc2.c ****   return true;
 560:lib/tinyusb/src/portable/synopsys/dwc2/dcd_dwc2.c **** }
 561:lib/tinyusb/src/portable/synopsys/dwc2/dcd_dwc2.c **** 
 562:lib/tinyusb/src/portable/synopsys/dwc2/dcd_dwc2.c **** void dcd_init(uint8_t rhport) {
 949              		.loc 1 562 31 is_stmt 1 view -0
 950              		.cfi_startproc
 951              		@ args = 0, pretend = 0, frame = 0
 952              		@ frame_needed = 0, uses_anonymous_args = 0
 953              		@ link register save eliminated.
 563:lib/tinyusb/src/portable/synopsys/dwc2/dcd_dwc2.c ****   // Programming model begins in the last section of the chapter on the USB
 564:lib/tinyusb/src/portable/synopsys/dwc2/dcd_dwc2.c ****   // peripheral in each Reference Manual.
 565:lib/tinyusb/src/portable/synopsys/dwc2/dcd_dwc2.c ****   dwc2_regs_t* dwc2 = DWC2_REG(rhport);
 954              		.loc 1 565 3 view .LVU320
 955              		.loc 1 565 23 is_stmt 0 view .LVU321
 956 0000 0001     		lsls	r0, r0, #4
 957              	.LVL81:
 958              		.loc 1 565 23 view .LVU322
 959 0002 714B     		ldr	r3, .L130
 960              	.LBB242:
 961              	.LBB243:
 555:lib/tinyusb/src/portable/synopsys/dwc2/dcd_dwc2.c ****   TU_ASSERT(gsnpsid == DWC2_OTG_ID || gsnpsid == DWC2_FS_IOT_ID || gsnpsid == DWC2_HS_IOT_ID);
 962              		.loc 1 555 18 view .LVU323
 963 0004 714A     		ldr	r2, .L130+4
 964              	.LBE243:
 965              	.LBE242:
 966              		.loc 1 565 23 view .LVU324
 967 0006 1B58     		ldr	r3, [r3, r0]
 968              	.LVL82:
 566:lib/tinyusb/src/portable/synopsys/dwc2/dcd_dwc2.c **** 
 567:lib/tinyusb/src/portable/synopsys/dwc2/dcd_dwc2.c ****   // Check Synopsys ID register, failed if controller clock/power is not enabled
 568:lib/tinyusb/src/portable/synopsys/dwc2/dcd_dwc2.c ****   if (!check_dwc2(dwc2)) return;
 969              		.loc 1 568 3 is_stmt 1 view .LVU325
 970              	.LBB248:
 971              	.LBI242:
 547:lib/tinyusb/src/portable/synopsys/dwc2/dcd_dwc2.c **** #if CFG_TUSB_DEBUG >= DWC2_DEBUG
 972              		.loc 1 547 13 view .LVU326
 973              	.LBB245:
 553:lib/tinyusb/src/portable/synopsys/dwc2/dcd_dwc2.c **** #if !TU_CHECK_MCU(OPT_MCU_GD32VF103)
 974              		.loc 1 553 3 view .LVU327
 555:lib/tinyusb/src/portable/synopsys/dwc2/dcd_dwc2.c ****   TU_ASSERT(gsnpsid == DWC2_OTG_ID || gsnpsid == DWC2_FS_IOT_ID || gsnpsid == DWC2_HS_IOT_ID);
 975              		.loc 1 555 3 view .LVU328
 556:lib/tinyusb/src/portable/synopsys/dwc2/dcd_dwc2.c **** #endif
 976              		.loc 1 556 3 is_stmt 0 view .LVU329
 977 0008 7149     		ldr	r1, .L130+8
 555:lib/tinyusb/src/portable/synopsys/dwc2/dcd_dwc2.c ****   TU_ASSERT(gsnpsid == DWC2_OTG_ID || gsnpsid == DWC2_FS_IOT_ID || gsnpsid == DWC2_HS_IOT_ID);
 978              		.loc 1 555 32 view .LVU330
 979 000a 186C     		ldr	r0, [r3, #64]
 980              	.LBE245:
 981              	.LBE248:
ARM GAS  /tmp/claude-502/ccFotbfS.s 			page 43


 562:lib/tinyusb/src/portable/synopsys/dwc2/dcd_dwc2.c ****   // Programming model begins in the last section of the chapter on the USB
 982              		.loc 1 562 31 view .LVU331
 983 000c 10B4     		push	{r4}
 984              		.cfi_def_cfa_offset 4
 985              		.cfi_offset 4, -4
 986              	.LBB249:
 987              	.LBB246:
 555:lib/tinyusb/src/portable/synopsys/dwc2/dcd_dwc2.c ****   TU_ASSERT(gsnpsid == DWC2_OTG_ID || gsnpsid == DWC2_FS_IOT_ID || gsnpsid == DWC2_HS_IOT_ID);
 988              		.loc 1 555 18 view .LVU332
 989 000e 0240     		ands	r2, r2, r0
 990              	.LVL83:
 556:lib/tinyusb/src/portable/synopsys/dwc2/dcd_dwc2.c **** #endif
 991              		.loc 1 556 3 is_stmt 1 view .LVU333
 556:lib/tinyusb/src/portable/synopsys/dwc2/dcd_dwc2.c **** #endif
 992              		.loc 1 556 3 view .LVU334
 993 0010 704C     		ldr	r4, .L130+12
 994 0012 A242     		cmp	r2, r4
 995 0014 18BF     		it	ne
 996 0016 8A42     		cmpne	r2, r1
 997 0018 03D0     		beq	.L95
 998 001a 01F58031 		add	r1, r1, #65536
 999 001e 8A42     		cmp	r2, r1
 1000 0020 54D1     		bne	.L127
 1001              	.L95:
 1002              	.LVL84:
 556:lib/tinyusb/src/portable/synopsys/dwc2/dcd_dwc2.c **** #endif
 1003              		.loc 1 556 3 is_stmt 0 view .LVU335
 1004              	.LBE246:
 1005              	.LBE249:
 569:lib/tinyusb/src/portable/synopsys/dwc2/dcd_dwc2.c ****   dcd_disconnect(rhport);
 1006              		.loc 1 569 3 is_stmt 1 view .LVU336
 1007              	.LBB250:
 1008              	.LBI250:
 570:lib/tinyusb/src/portable/synopsys/dwc2/dcd_dwc2.c **** 
 571:lib/tinyusb/src/portable/synopsys/dwc2/dcd_dwc2.c ****   // max number of endpoints & total_fifo_size are:
 572:lib/tinyusb/src/portable/synopsys/dwc2/dcd_dwc2.c ****   // hw_cfg2->num_dev_ep, hw_cfg2->total_fifo_size
 573:lib/tinyusb/src/portable/synopsys/dwc2/dcd_dwc2.c **** 
 574:lib/tinyusb/src/portable/synopsys/dwc2/dcd_dwc2.c ****   if (phy_hs_supported(dwc2)) {
 575:lib/tinyusb/src/portable/synopsys/dwc2/dcd_dwc2.c ****     phy_hs_init(dwc2); // Highspeed
 576:lib/tinyusb/src/portable/synopsys/dwc2/dcd_dwc2.c ****   } else {
 577:lib/tinyusb/src/portable/synopsys/dwc2/dcd_dwc2.c ****     phy_fs_init(dwc2); // core does not support highspeed or hs phy is not present
 578:lib/tinyusb/src/portable/synopsys/dwc2/dcd_dwc2.c ****   }
 579:lib/tinyusb/src/portable/synopsys/dwc2/dcd_dwc2.c **** 
 580:lib/tinyusb/src/portable/synopsys/dwc2/dcd_dwc2.c ****   // Restart PHY clock
 581:lib/tinyusb/src/portable/synopsys/dwc2/dcd_dwc2.c ****   dwc2->pcgctl &= ~(PCGCTL_STOPPCLK | PCGCTL_GATEHCLK | PCGCTL_PWRCLMP | PCGCTL_RSTPDWNMODULE);
 582:lib/tinyusb/src/portable/synopsys/dwc2/dcd_dwc2.c **** 
 583:lib/tinyusb/src/portable/synopsys/dwc2/dcd_dwc2.c ****   /* Set HS/FS Timeout Calibration to 7 (max available value).
 584:lib/tinyusb/src/portable/synopsys/dwc2/dcd_dwc2.c ****    * The number of PHY clocks that the application programs in
 585:lib/tinyusb/src/portable/synopsys/dwc2/dcd_dwc2.c ****    * this field is added to the high/full speed interpacket timeout
 586:lib/tinyusb/src/portable/synopsys/dwc2/dcd_dwc2.c ****    * duration in the core to account for any additional delays
 587:lib/tinyusb/src/portable/synopsys/dwc2/dcd_dwc2.c ****    * introduced by the PHY. This can be required, because the delay
 588:lib/tinyusb/src/portable/synopsys/dwc2/dcd_dwc2.c ****    * introduced by the PHY in generating the linestate condition
 589:lib/tinyusb/src/portable/synopsys/dwc2/dcd_dwc2.c ****    * can vary from one PHY to another.
 590:lib/tinyusb/src/portable/synopsys/dwc2/dcd_dwc2.c ****    */
 591:lib/tinyusb/src/portable/synopsys/dwc2/dcd_dwc2.c ****   dwc2->gusbcfg |= (7ul << GUSBCFG_TOCAL_Pos);
 592:lib/tinyusb/src/portable/synopsys/dwc2/dcd_dwc2.c **** 
 593:lib/tinyusb/src/portable/synopsys/dwc2/dcd_dwc2.c ****   // Force device mode
ARM GAS  /tmp/claude-502/ccFotbfS.s 			page 44


 594:lib/tinyusb/src/portable/synopsys/dwc2/dcd_dwc2.c ****   dwc2->gusbcfg = (dwc2->gusbcfg & ~GUSBCFG_FHMOD) | GUSBCFG_FDMOD;
 595:lib/tinyusb/src/portable/synopsys/dwc2/dcd_dwc2.c **** 
 596:lib/tinyusb/src/portable/synopsys/dwc2/dcd_dwc2.c ****   // Clear A override, force B Valid
 597:lib/tinyusb/src/portable/synopsys/dwc2/dcd_dwc2.c ****   dwc2->gotgctl = (dwc2->gotgctl & ~GOTGCTL_AVALOEN) | GOTGCTL_BVALOEN | GOTGCTL_BVALOVAL;
 598:lib/tinyusb/src/portable/synopsys/dwc2/dcd_dwc2.c **** 
 599:lib/tinyusb/src/portable/synopsys/dwc2/dcd_dwc2.c ****   // If USB host misbehaves during status portion of control xfer
 600:lib/tinyusb/src/portable/synopsys/dwc2/dcd_dwc2.c ****   // (non zero-length packet), send STALL back and discard.
 601:lib/tinyusb/src/portable/synopsys/dwc2/dcd_dwc2.c ****   dwc2->dcfg |= DCFG_NZLSOHSK;
 602:lib/tinyusb/src/portable/synopsys/dwc2/dcd_dwc2.c **** 
 603:lib/tinyusb/src/portable/synopsys/dwc2/dcd_dwc2.c ****   fifo_flush_tx(dwc2, 0x10); // all tx fifo
 604:lib/tinyusb/src/portable/synopsys/dwc2/dcd_dwc2.c ****   fifo_flush_rx(dwc2);
 605:lib/tinyusb/src/portable/synopsys/dwc2/dcd_dwc2.c **** 
 606:lib/tinyusb/src/portable/synopsys/dwc2/dcd_dwc2.c ****   // Clear all interrupts
 607:lib/tinyusb/src/portable/synopsys/dwc2/dcd_dwc2.c ****   uint32_t int_mask = dwc2->gintsts;
 608:lib/tinyusb/src/portable/synopsys/dwc2/dcd_dwc2.c ****   dwc2->gintsts |= int_mask;
 609:lib/tinyusb/src/portable/synopsys/dwc2/dcd_dwc2.c ****   int_mask = dwc2->gotgint;
 610:lib/tinyusb/src/portable/synopsys/dwc2/dcd_dwc2.c ****   dwc2->gotgint |= int_mask;
 611:lib/tinyusb/src/portable/synopsys/dwc2/dcd_dwc2.c **** 
 612:lib/tinyusb/src/portable/synopsys/dwc2/dcd_dwc2.c ****   // Required as part of core initialization.
 613:lib/tinyusb/src/portable/synopsys/dwc2/dcd_dwc2.c ****   dwc2->gintmsk = GINTMSK_OTGINT | GINTMSK_RXFLVLM |
 614:lib/tinyusb/src/portable/synopsys/dwc2/dcd_dwc2.c ****                   GINTMSK_USBSUSPM | GINTMSK_USBRST | GINTMSK_ENUMDNEM | GINTMSK_WUIM;
 615:lib/tinyusb/src/portable/synopsys/dwc2/dcd_dwc2.c **** 
 616:lib/tinyusb/src/portable/synopsys/dwc2/dcd_dwc2.c ****   // Configure TX FIFO empty level for interrupt. Default is complete empty
 617:lib/tinyusb/src/portable/synopsys/dwc2/dcd_dwc2.c ****   dwc2->gahbcfg |= GAHBCFG_TXFELVL;
 618:lib/tinyusb/src/portable/synopsys/dwc2/dcd_dwc2.c **** 
 619:lib/tinyusb/src/portable/synopsys/dwc2/dcd_dwc2.c ****   // Enable global interrupt
 620:lib/tinyusb/src/portable/synopsys/dwc2/dcd_dwc2.c ****   dwc2->gahbcfg |= GAHBCFG_GINT;
 621:lib/tinyusb/src/portable/synopsys/dwc2/dcd_dwc2.c **** 
 622:lib/tinyusb/src/portable/synopsys/dwc2/dcd_dwc2.c ****   // make sure we are in device mode
 623:lib/tinyusb/src/portable/synopsys/dwc2/dcd_dwc2.c **** //  TU_ASSERT(!(dwc2->gintsts & GINTSTS_CMOD), );
 624:lib/tinyusb/src/portable/synopsys/dwc2/dcd_dwc2.c **** 
 625:lib/tinyusb/src/portable/synopsys/dwc2/dcd_dwc2.c **** //  TU_LOG_HEX(DWC2_DEBUG, dwc2->gotgctl);
 626:lib/tinyusb/src/portable/synopsys/dwc2/dcd_dwc2.c **** //  TU_LOG_HEX(DWC2_DEBUG, dwc2->gusbcfg);
 627:lib/tinyusb/src/portable/synopsys/dwc2/dcd_dwc2.c **** //  TU_LOG_HEX(DWC2_DEBUG, dwc2->dcfg);
 628:lib/tinyusb/src/portable/synopsys/dwc2/dcd_dwc2.c **** //  TU_LOG_HEX(DWC2_DEBUG, dwc2->gahbcfg);
 629:lib/tinyusb/src/portable/synopsys/dwc2/dcd_dwc2.c **** 
 630:lib/tinyusb/src/portable/synopsys/dwc2/dcd_dwc2.c ****   dcd_connect(rhport);
 631:lib/tinyusb/src/portable/synopsys/dwc2/dcd_dwc2.c **** }
 632:lib/tinyusb/src/portable/synopsys/dwc2/dcd_dwc2.c **** 
 633:lib/tinyusb/src/portable/synopsys/dwc2/dcd_dwc2.c **** void dcd_int_enable(uint8_t rhport) {
 634:lib/tinyusb/src/portable/synopsys/dwc2/dcd_dwc2.c ****   dwc2_dcd_int_enable(rhport);
 635:lib/tinyusb/src/portable/synopsys/dwc2/dcd_dwc2.c **** }
 636:lib/tinyusb/src/portable/synopsys/dwc2/dcd_dwc2.c **** 
 637:lib/tinyusb/src/portable/synopsys/dwc2/dcd_dwc2.c **** void dcd_int_disable(uint8_t rhport) {
 638:lib/tinyusb/src/portable/synopsys/dwc2/dcd_dwc2.c ****   dwc2_dcd_int_disable(rhport);
 639:lib/tinyusb/src/portable/synopsys/dwc2/dcd_dwc2.c **** }
 640:lib/tinyusb/src/portable/synopsys/dwc2/dcd_dwc2.c **** 
 641:lib/tinyusb/src/portable/synopsys/dwc2/dcd_dwc2.c **** void dcd_set_address(uint8_t rhport, uint8_t dev_addr) {
 642:lib/tinyusb/src/portable/synopsys/dwc2/dcd_dwc2.c ****   dwc2_regs_t* dwc2 = DWC2_REG(rhport);
 643:lib/tinyusb/src/portable/synopsys/dwc2/dcd_dwc2.c ****   dwc2->dcfg = (dwc2->dcfg & ~DCFG_DAD_Msk) | (dev_addr << DCFG_DAD_Pos);
 644:lib/tinyusb/src/portable/synopsys/dwc2/dcd_dwc2.c **** 
 645:lib/tinyusb/src/portable/synopsys/dwc2/dcd_dwc2.c ****   // Response with status after changing device address
 646:lib/tinyusb/src/portable/synopsys/dwc2/dcd_dwc2.c ****   dcd_edpt_xfer(rhport, tu_edpt_addr(0, TUSB_DIR_IN), NULL, 0);
 647:lib/tinyusb/src/portable/synopsys/dwc2/dcd_dwc2.c **** }
 648:lib/tinyusb/src/portable/synopsys/dwc2/dcd_dwc2.c **** 
 649:lib/tinyusb/src/portable/synopsys/dwc2/dcd_dwc2.c **** void dcd_remote_wakeup(uint8_t rhport) {
 650:lib/tinyusb/src/portable/synopsys/dwc2/dcd_dwc2.c ****   (void) rhport;
ARM GAS  /tmp/claude-502/ccFotbfS.s 			page 45


 651:lib/tinyusb/src/portable/synopsys/dwc2/dcd_dwc2.c **** 
 652:lib/tinyusb/src/portable/synopsys/dwc2/dcd_dwc2.c ****   dwc2_regs_t* dwc2 = DWC2_REG(rhport);
 653:lib/tinyusb/src/portable/synopsys/dwc2/dcd_dwc2.c **** 
 654:lib/tinyusb/src/portable/synopsys/dwc2/dcd_dwc2.c ****   // set remote wakeup
 655:lib/tinyusb/src/portable/synopsys/dwc2/dcd_dwc2.c ****   dwc2->dctl |= DCTL_RWUSIG;
 656:lib/tinyusb/src/portable/synopsys/dwc2/dcd_dwc2.c **** 
 657:lib/tinyusb/src/portable/synopsys/dwc2/dcd_dwc2.c ****   // enable SOF to detect bus resume
 658:lib/tinyusb/src/portable/synopsys/dwc2/dcd_dwc2.c ****   dwc2->gintsts = GINTSTS_SOF;
 659:lib/tinyusb/src/portable/synopsys/dwc2/dcd_dwc2.c ****   dwc2->gintmsk |= GINTMSK_SOFM;
 660:lib/tinyusb/src/portable/synopsys/dwc2/dcd_dwc2.c **** 
 661:lib/tinyusb/src/portable/synopsys/dwc2/dcd_dwc2.c ****   // Per specs: remote wakeup signal bit must be clear within 1-15ms
 662:lib/tinyusb/src/portable/synopsys/dwc2/dcd_dwc2.c ****   dwc2_remote_wakeup_delay();
 663:lib/tinyusb/src/portable/synopsys/dwc2/dcd_dwc2.c **** 
 664:lib/tinyusb/src/portable/synopsys/dwc2/dcd_dwc2.c ****   dwc2->dctl &= ~DCTL_RWUSIG;
 665:lib/tinyusb/src/portable/synopsys/dwc2/dcd_dwc2.c **** }
 666:lib/tinyusb/src/portable/synopsys/dwc2/dcd_dwc2.c **** 
 667:lib/tinyusb/src/portable/synopsys/dwc2/dcd_dwc2.c **** void dcd_connect(uint8_t rhport) {
 668:lib/tinyusb/src/portable/synopsys/dwc2/dcd_dwc2.c ****   (void) rhport;
 669:lib/tinyusb/src/portable/synopsys/dwc2/dcd_dwc2.c ****   dwc2_regs_t* dwc2 = DWC2_REG(rhport);
 670:lib/tinyusb/src/portable/synopsys/dwc2/dcd_dwc2.c **** 
 671:lib/tinyusb/src/portable/synopsys/dwc2/dcd_dwc2.c **** #ifdef TUP_USBIP_DWC2_ESP32
 672:lib/tinyusb/src/portable/synopsys/dwc2/dcd_dwc2.c ****   usb_wrap_otg_conf_reg_t conf = USB_WRAP.otg_conf;
 673:lib/tinyusb/src/portable/synopsys/dwc2/dcd_dwc2.c ****   conf.pad_pull_override = 0;
 674:lib/tinyusb/src/portable/synopsys/dwc2/dcd_dwc2.c ****   conf.dp_pullup = 0;
 675:lib/tinyusb/src/portable/synopsys/dwc2/dcd_dwc2.c ****   conf.dp_pulldown = 0;
 676:lib/tinyusb/src/portable/synopsys/dwc2/dcd_dwc2.c ****   conf.dm_pullup = 0;
 677:lib/tinyusb/src/portable/synopsys/dwc2/dcd_dwc2.c ****   conf.dm_pulldown = 0;
 678:lib/tinyusb/src/portable/synopsys/dwc2/dcd_dwc2.c ****   USB_WRAP.otg_conf = conf;
 679:lib/tinyusb/src/portable/synopsys/dwc2/dcd_dwc2.c **** #endif
 680:lib/tinyusb/src/portable/synopsys/dwc2/dcd_dwc2.c **** 
 681:lib/tinyusb/src/portable/synopsys/dwc2/dcd_dwc2.c ****   dwc2->dctl &= ~DCTL_SDIS;
 682:lib/tinyusb/src/portable/synopsys/dwc2/dcd_dwc2.c **** }
 683:lib/tinyusb/src/portable/synopsys/dwc2/dcd_dwc2.c **** 
 684:lib/tinyusb/src/portable/synopsys/dwc2/dcd_dwc2.c **** void dcd_disconnect(uint8_t rhport) {
 1009              		.loc 1 684 6 view .LVU337
 1010              	.LBB251:
 685:lib/tinyusb/src/portable/synopsys/dwc2/dcd_dwc2.c ****   (void) rhport;
 1011              		.loc 1 685 3 view .LVU338
 686:lib/tinyusb/src/portable/synopsys/dwc2/dcd_dwc2.c ****   dwc2_regs_t* dwc2 = DWC2_REG(rhport);
 1012              		.loc 1 686 3 view .LVU339
 687:lib/tinyusb/src/portable/synopsys/dwc2/dcd_dwc2.c **** 
 688:lib/tinyusb/src/portable/synopsys/dwc2/dcd_dwc2.c **** #ifdef TUP_USBIP_DWC2_ESP32
 689:lib/tinyusb/src/portable/synopsys/dwc2/dcd_dwc2.c ****   usb_wrap_otg_conf_reg_t conf = USB_WRAP.otg_conf;
 690:lib/tinyusb/src/portable/synopsys/dwc2/dcd_dwc2.c ****   conf.pad_pull_override = 1;
 691:lib/tinyusb/src/portable/synopsys/dwc2/dcd_dwc2.c ****   conf.dp_pullup = 0;
 692:lib/tinyusb/src/portable/synopsys/dwc2/dcd_dwc2.c ****   conf.dp_pulldown = 1;
 693:lib/tinyusb/src/portable/synopsys/dwc2/dcd_dwc2.c ****   conf.dm_pullup = 0;
 694:lib/tinyusb/src/portable/synopsys/dwc2/dcd_dwc2.c ****   conf.dm_pulldown = 1;
 695:lib/tinyusb/src/portable/synopsys/dwc2/dcd_dwc2.c ****   USB_WRAP.otg_conf = conf;
 696:lib/tinyusb/src/portable/synopsys/dwc2/dcd_dwc2.c **** #endif
 697:lib/tinyusb/src/portable/synopsys/dwc2/dcd_dwc2.c **** 
 698:lib/tinyusb/src/portable/synopsys/dwc2/dcd_dwc2.c ****   dwc2->dctl |= DCTL_SDIS;
 1013              		.loc 1 698 3 view .LVU340
 1014              		.loc 1 698 14 is_stmt 0 view .LVU341
 1015 0022 D3F80428 		ldr	r2, [r3, #2052]
 1016              	.LBE251:
 1017              	.LBE250:
ARM GAS  /tmp/claude-502/ccFotbfS.s 			page 46


 1018              	.LBB254:
 1019              	.LBB255:
 1020              	.LBB256:
 1021              	.LBB257:
 1022              		.file 4 "lib/tinyusb/src/portable/synopsys/dwc2/dwc2_stm32.h"
   1:lib/tinyusb/src/portable/synopsys/dwc2/dwc2_stm32.h **** /*
   2:lib/tinyusb/src/portable/synopsys/dwc2/dwc2_stm32.h ****  * The MIT License (MIT)
   3:lib/tinyusb/src/portable/synopsys/dwc2/dwc2_stm32.h ****  *
   4:lib/tinyusb/src/portable/synopsys/dwc2/dwc2_stm32.h ****  * Copyright (c) 2021, Ha Thach (tinyusb.org)
   5:lib/tinyusb/src/portable/synopsys/dwc2/dwc2_stm32.h ****  *
   6:lib/tinyusb/src/portable/synopsys/dwc2/dwc2_stm32.h ****  * Permission is hereby granted, free of charge, to any person obtaining a copy
   7:lib/tinyusb/src/portable/synopsys/dwc2/dwc2_stm32.h ****  * of this software and associated documentation files (the "Software"), to deal
   8:lib/tinyusb/src/portable/synopsys/dwc2/dwc2_stm32.h ****  * in the Software without restriction, including without limitation the rights
   9:lib/tinyusb/src/portable/synopsys/dwc2/dwc2_stm32.h ****  * to use, copy, modify, merge, publish, distribute, sublicense, and/or sell
  10:lib/tinyusb/src/portable/synopsys/dwc2/dwc2_stm32.h ****  * copies of the Software, and to permit persons to whom the Software is
  11:lib/tinyusb/src/portable/synopsys/dwc2/dwc2_stm32.h ****  * furnished to do so, subject to the following conditions:
  12:lib/tinyusb/src/portable/synopsys/dwc2/dwc2_stm32.h ****  *
  13:lib/tinyusb/src/portable/synopsys/dwc2/dwc2_stm32.h ****  * The above copyright notice and this permission notice shall be included in
  14:lib/tinyusb/src/portable/synopsys/dwc2/dwc2_stm32.h ****  * all copies or substantial portions of the Software.
  15:lib/tinyusb/src/portable/synopsys/dwc2/dwc2_stm32.h ****  *
  16:lib/tinyusb/src/portable/synopsys/dwc2/dwc2_stm32.h ****  * THE SOFTWARE IS PROVIDED "AS IS", WITHOUT WARRANTY OF ANY KIND, EXPRESS OR
  17:lib/tinyusb/src/portable/synopsys/dwc2/dwc2_stm32.h ****  * IMPLIED, INCLUDING BUT NOT LIMITED TO THE WARRANTIES OF MERCHANTABILITY,
  18:lib/tinyusb/src/portable/synopsys/dwc2/dwc2_stm32.h ****  * FITNESS FOR A PARTICULAR PURPOSE AND NONINFRINGEMENT. IN NO EVENT SHALL THE
  19:lib/tinyusb/src/portable/synopsys/dwc2/dwc2_stm32.h ****  * AUTHORS OR COPYRIGHT HOLDERS BE LIABLE FOR ANY CLAIM, DAMAGES OR OTHER
  20:lib/tinyusb/src/portable/synopsys/dwc2/dwc2_stm32.h ****  * LIABILITY, WHETHER IN AN ACTION OF CONTRACT, TORT OR OTHERWISE, ARISING FROM,
  21:lib/tinyusb/src/portable/synopsys/dwc2/dwc2_stm32.h ****  * OUT OF OR IN CONNECTION WITH THE SOFTWARE OR THE USE OR OTHER DEALINGS IN
  22:lib/tinyusb/src/portable/synopsys/dwc2/dwc2_stm32.h ****  * THE SOFTWARE.
  23:lib/tinyusb/src/portable/synopsys/dwc2/dwc2_stm32.h ****  *
  24:lib/tinyusb/src/portable/synopsys/dwc2/dwc2_stm32.h ****  * This file is part of the TinyUSB stack.
  25:lib/tinyusb/src/portable/synopsys/dwc2/dwc2_stm32.h ****  */
  26:lib/tinyusb/src/portable/synopsys/dwc2/dwc2_stm32.h **** 
  27:lib/tinyusb/src/portable/synopsys/dwc2/dwc2_stm32.h **** #ifndef DWC2_STM32_H_
  28:lib/tinyusb/src/portable/synopsys/dwc2/dwc2_stm32.h **** #define DWC2_STM32_H_
  29:lib/tinyusb/src/portable/synopsys/dwc2/dwc2_stm32.h **** 
  30:lib/tinyusb/src/portable/synopsys/dwc2/dwc2_stm32.h **** #ifdef __cplusplus
  31:lib/tinyusb/src/portable/synopsys/dwc2/dwc2_stm32.h **** extern "C" {
  32:lib/tinyusb/src/portable/synopsys/dwc2/dwc2_stm32.h **** #endif
  33:lib/tinyusb/src/portable/synopsys/dwc2/dwc2_stm32.h **** 
  34:lib/tinyusb/src/portable/synopsys/dwc2/dwc2_stm32.h **** // EP_MAX       : Max number of bi-directional endpoints including EP0
  35:lib/tinyusb/src/portable/synopsys/dwc2/dwc2_stm32.h **** // EP_FIFO_SIZE : Size of dedicated USB SRAM
  36:lib/tinyusb/src/portable/synopsys/dwc2/dwc2_stm32.h **** #if CFG_TUSB_MCU == OPT_MCU_STM32F1
  37:lib/tinyusb/src/portable/synopsys/dwc2/dwc2_stm32.h ****   #include "stm32f1xx.h"
  38:lib/tinyusb/src/portable/synopsys/dwc2/dwc2_stm32.h ****   #define EP_MAX_FS       4
  39:lib/tinyusb/src/portable/synopsys/dwc2/dwc2_stm32.h ****   #define EP_FIFO_SIZE_FS 1280
  40:lib/tinyusb/src/portable/synopsys/dwc2/dwc2_stm32.h **** 
  41:lib/tinyusb/src/portable/synopsys/dwc2/dwc2_stm32.h **** #elif CFG_TUSB_MCU == OPT_MCU_STM32F2
  42:lib/tinyusb/src/portable/synopsys/dwc2/dwc2_stm32.h ****   #include "stm32f2xx.h"
  43:lib/tinyusb/src/portable/synopsys/dwc2/dwc2_stm32.h ****   #define EP_MAX_FS       USB_OTG_FS_MAX_IN_ENDPOINTS
  44:lib/tinyusb/src/portable/synopsys/dwc2/dwc2_stm32.h ****   #define EP_FIFO_SIZE_FS USB_OTG_FS_TOTAL_FIFO_SIZE
  45:lib/tinyusb/src/portable/synopsys/dwc2/dwc2_stm32.h **** 
  46:lib/tinyusb/src/portable/synopsys/dwc2/dwc2_stm32.h ****   #define EP_MAX_HS       USB_OTG_HS_MAX_IN_ENDPOINTS
  47:lib/tinyusb/src/portable/synopsys/dwc2/dwc2_stm32.h ****   #define EP_FIFO_SIZE_HS USB_OTG_HS_TOTAL_FIFO_SIZE
  48:lib/tinyusb/src/portable/synopsys/dwc2/dwc2_stm32.h **** 
  49:lib/tinyusb/src/portable/synopsys/dwc2/dwc2_stm32.h **** #elif CFG_TUSB_MCU == OPT_MCU_STM32F4
  50:lib/tinyusb/src/portable/synopsys/dwc2/dwc2_stm32.h ****   #include "stm32f4xx.h"
  51:lib/tinyusb/src/portable/synopsys/dwc2/dwc2_stm32.h ****   #define EP_MAX_FS       USB_OTG_FS_MAX_IN_ENDPOINTS
  52:lib/tinyusb/src/portable/synopsys/dwc2/dwc2_stm32.h ****   #define EP_FIFO_SIZE_FS USB_OTG_FS_TOTAL_FIFO_SIZE
ARM GAS  /tmp/claude-502/ccFotbfS.s 			page 47


  53:lib/tinyusb/src/portable/synopsys/dwc2/dwc2_stm32.h **** 
  54:lib/tinyusb/src/portable/synopsys/dwc2/dwc2_stm32.h ****   #define EP_MAX_HS       USB_OTG_HS_MAX_IN_ENDPOINTS
  55:lib/tinyusb/src/portable/synopsys/dwc2/dwc2_stm32.h ****   #define EP_FIFO_SIZE_HS USB_OTG_HS_TOTAL_FIFO_SIZE
  56:lib/tinyusb/src/portable/synopsys/dwc2/dwc2_stm32.h **** 
  57:lib/tinyusb/src/portable/synopsys/dwc2/dwc2_stm32.h **** #elif CFG_TUSB_MCU == OPT_MCU_STM32H7
  58:lib/tinyusb/src/portable/synopsys/dwc2/dwc2_stm32.h ****   #include "stm32h7xx.h"
  59:lib/tinyusb/src/portable/synopsys/dwc2/dwc2_stm32.h ****   #define EP_MAX_FS       9
  60:lib/tinyusb/src/portable/synopsys/dwc2/dwc2_stm32.h ****   #define EP_FIFO_SIZE_FS 4096
  61:lib/tinyusb/src/portable/synopsys/dwc2/dwc2_stm32.h **** 
  62:lib/tinyusb/src/portable/synopsys/dwc2/dwc2_stm32.h ****   #define EP_MAX_HS       9
  63:lib/tinyusb/src/portable/synopsys/dwc2/dwc2_stm32.h ****   #define EP_FIFO_SIZE_HS 4096
  64:lib/tinyusb/src/portable/synopsys/dwc2/dwc2_stm32.h **** 
  65:lib/tinyusb/src/portable/synopsys/dwc2/dwc2_stm32.h ****   // NOTE: H7 with only 1 USB port: H72x / H73x / H7Ax / H7Bx
  66:lib/tinyusb/src/portable/synopsys/dwc2/dwc2_stm32.h ****   // USB_OTG_FS_PERIPH_BASE and OTG_FS_IRQn not defined
  67:lib/tinyusb/src/portable/synopsys/dwc2/dwc2_stm32.h ****   #if (! defined USB2_OTG_FS)
  68:lib/tinyusb/src/portable/synopsys/dwc2/dwc2_stm32.h ****     #define USB_OTG_FS_PERIPH_BASE  USB1_OTG_HS_PERIPH_BASE
  69:lib/tinyusb/src/portable/synopsys/dwc2/dwc2_stm32.h ****     #define OTG_FS_IRQn             OTG_HS_IRQn
  70:lib/tinyusb/src/portable/synopsys/dwc2/dwc2_stm32.h ****   #endif
  71:lib/tinyusb/src/portable/synopsys/dwc2/dwc2_stm32.h **** 
  72:lib/tinyusb/src/portable/synopsys/dwc2/dwc2_stm32.h **** #elif CFG_TUSB_MCU == OPT_MCU_STM32F7
  73:lib/tinyusb/src/portable/synopsys/dwc2/dwc2_stm32.h ****   #include "stm32f7xx.h"
  74:lib/tinyusb/src/portable/synopsys/dwc2/dwc2_stm32.h ****   #define EP_MAX_FS       6
  75:lib/tinyusb/src/portable/synopsys/dwc2/dwc2_stm32.h ****   #define EP_FIFO_SIZE_FS 1280
  76:lib/tinyusb/src/portable/synopsys/dwc2/dwc2_stm32.h **** 
  77:lib/tinyusb/src/portable/synopsys/dwc2/dwc2_stm32.h ****   #define EP_MAX_HS       9
  78:lib/tinyusb/src/portable/synopsys/dwc2/dwc2_stm32.h ****   #define EP_FIFO_SIZE_HS 4096
  79:lib/tinyusb/src/portable/synopsys/dwc2/dwc2_stm32.h **** 
  80:lib/tinyusb/src/portable/synopsys/dwc2/dwc2_stm32.h **** #elif CFG_TUSB_MCU == OPT_MCU_STM32L4
  81:lib/tinyusb/src/portable/synopsys/dwc2/dwc2_stm32.h ****   #include "stm32l4xx.h"
  82:lib/tinyusb/src/portable/synopsys/dwc2/dwc2_stm32.h ****   #define EP_MAX_FS       6
  83:lib/tinyusb/src/portable/synopsys/dwc2/dwc2_stm32.h ****   #define EP_FIFO_SIZE_FS 1280
  84:lib/tinyusb/src/portable/synopsys/dwc2/dwc2_stm32.h **** 
  85:lib/tinyusb/src/portable/synopsys/dwc2/dwc2_stm32.h **** #elif CFG_TUSB_MCU == OPT_MCU_STM32U5
  86:lib/tinyusb/src/portable/synopsys/dwc2/dwc2_stm32.h ****   #include "stm32u5xx.h"
  87:lib/tinyusb/src/portable/synopsys/dwc2/dwc2_stm32.h ****   // U59x/5Ax/5Fx/5Gx are highspeed with built-in HS PHY
  88:lib/tinyusb/src/portable/synopsys/dwc2/dwc2_stm32.h ****   #ifdef USB_OTG_FS
  89:lib/tinyusb/src/portable/synopsys/dwc2/dwc2_stm32.h ****     #define USB_OTG_FS_PERIPH_BASE    USB_OTG_FS_BASE
  90:lib/tinyusb/src/portable/synopsys/dwc2/dwc2_stm32.h ****     #define EP_MAX_FS                 6
  91:lib/tinyusb/src/portable/synopsys/dwc2/dwc2_stm32.h ****     #define EP_FIFO_SIZE_FS           1280
  92:lib/tinyusb/src/portable/synopsys/dwc2/dwc2_stm32.h ****   #else
  93:lib/tinyusb/src/portable/synopsys/dwc2/dwc2_stm32.h ****     #define USB_OTG_HS_PERIPH_BASE    USB_OTG_HS_BASE
  94:lib/tinyusb/src/portable/synopsys/dwc2/dwc2_stm32.h ****     #define EP_MAX_HS                 9
  95:lib/tinyusb/src/portable/synopsys/dwc2/dwc2_stm32.h ****     #define EP_FIFO_SIZE_HS           4096
  96:lib/tinyusb/src/portable/synopsys/dwc2/dwc2_stm32.h ****   #endif
  97:lib/tinyusb/src/portable/synopsys/dwc2/dwc2_stm32.h **** #else
  98:lib/tinyusb/src/portable/synopsys/dwc2/dwc2_stm32.h ****   #error "Unsupported MCUs"
  99:lib/tinyusb/src/portable/synopsys/dwc2/dwc2_stm32.h **** #endif
 100:lib/tinyusb/src/portable/synopsys/dwc2/dwc2_stm32.h **** 
 101:lib/tinyusb/src/portable/synopsys/dwc2/dwc2_stm32.h **** // OTG HS always has higher number of endpoints than FS
 102:lib/tinyusb/src/portable/synopsys/dwc2/dwc2_stm32.h **** #ifdef USB_OTG_HS_PERIPH_BASE
 103:lib/tinyusb/src/portable/synopsys/dwc2/dwc2_stm32.h ****   #define DWC2_EP_MAX   EP_MAX_HS
 104:lib/tinyusb/src/portable/synopsys/dwc2/dwc2_stm32.h **** #else
 105:lib/tinyusb/src/portable/synopsys/dwc2/dwc2_stm32.h ****   #define DWC2_EP_MAX   EP_MAX_FS
 106:lib/tinyusb/src/portable/synopsys/dwc2/dwc2_stm32.h **** #endif
 107:lib/tinyusb/src/portable/synopsys/dwc2/dwc2_stm32.h **** 
 108:lib/tinyusb/src/portable/synopsys/dwc2/dwc2_stm32.h **** // On STM32 for consistency we associate
 109:lib/tinyusb/src/portable/synopsys/dwc2/dwc2_stm32.h **** // - Port0 to OTG_FS, and Port1 to OTG_HS
ARM GAS  /tmp/claude-502/ccFotbfS.s 			page 48


 110:lib/tinyusb/src/portable/synopsys/dwc2/dwc2_stm32.h **** static const dwc2_controller_t _dwc2_controller[] = {
 111:lib/tinyusb/src/portable/synopsys/dwc2/dwc2_stm32.h ****     #ifdef USB_OTG_FS_PERIPH_BASE
 112:lib/tinyusb/src/portable/synopsys/dwc2/dwc2_stm32.h ****     { .reg_base = USB_OTG_FS_PERIPH_BASE, .irqnum = OTG_FS_IRQn, .ep_count = EP_MAX_FS, .ep_fifo_si
 113:lib/tinyusb/src/portable/synopsys/dwc2/dwc2_stm32.h ****     #endif
 114:lib/tinyusb/src/portable/synopsys/dwc2/dwc2_stm32.h **** 
 115:lib/tinyusb/src/portable/synopsys/dwc2/dwc2_stm32.h ****     #ifdef USB_OTG_HS_PERIPH_BASE
 116:lib/tinyusb/src/portable/synopsys/dwc2/dwc2_stm32.h ****     { .reg_base = USB_OTG_HS_PERIPH_BASE, .irqnum = OTG_HS_IRQn, .ep_count = EP_MAX_HS, .ep_fifo_si
 117:lib/tinyusb/src/portable/synopsys/dwc2/dwc2_stm32.h ****     #endif
 118:lib/tinyusb/src/portable/synopsys/dwc2/dwc2_stm32.h **** };
 119:lib/tinyusb/src/portable/synopsys/dwc2/dwc2_stm32.h **** 
 120:lib/tinyusb/src/portable/synopsys/dwc2/dwc2_stm32.h **** //--------------------------------------------------------------------+
 121:lib/tinyusb/src/portable/synopsys/dwc2/dwc2_stm32.h **** //
 122:lib/tinyusb/src/portable/synopsys/dwc2/dwc2_stm32.h **** //--------------------------------------------------------------------+
 123:lib/tinyusb/src/portable/synopsys/dwc2/dwc2_stm32.h **** 
 124:lib/tinyusb/src/portable/synopsys/dwc2/dwc2_stm32.h **** // SystemCoreClock is already included by family header
 125:lib/tinyusb/src/portable/synopsys/dwc2/dwc2_stm32.h **** // extern uint32_t SystemCoreClock;
 126:lib/tinyusb/src/portable/synopsys/dwc2/dwc2_stm32.h **** 
 127:lib/tinyusb/src/portable/synopsys/dwc2/dwc2_stm32.h **** TU_ATTR_ALWAYS_INLINE static inline void dwc2_dcd_int_enable(uint8_t rhport) {
 128:lib/tinyusb/src/portable/synopsys/dwc2/dwc2_stm32.h ****   NVIC_EnableIRQ((IRQn_Type) _dwc2_controller[rhport].irqnum);
 129:lib/tinyusb/src/portable/synopsys/dwc2/dwc2_stm32.h **** }
 130:lib/tinyusb/src/portable/synopsys/dwc2/dwc2_stm32.h **** 
 131:lib/tinyusb/src/portable/synopsys/dwc2/dwc2_stm32.h **** TU_ATTR_ALWAYS_INLINE static inline void dwc2_dcd_int_disable(uint8_t rhport) {
 132:lib/tinyusb/src/portable/synopsys/dwc2/dwc2_stm32.h ****   NVIC_DisableIRQ((IRQn_Type) _dwc2_controller[rhport].irqnum);
 133:lib/tinyusb/src/portable/synopsys/dwc2/dwc2_stm32.h **** }
 134:lib/tinyusb/src/portable/synopsys/dwc2/dwc2_stm32.h **** 
 135:lib/tinyusb/src/portable/synopsys/dwc2/dwc2_stm32.h **** TU_ATTR_ALWAYS_INLINE static inline void dwc2_remote_wakeup_delay(void) {
 136:lib/tinyusb/src/portable/synopsys/dwc2/dwc2_stm32.h ****   // try to delay for 1 ms
 137:lib/tinyusb/src/portable/synopsys/dwc2/dwc2_stm32.h ****   uint32_t count = SystemCoreClock / 1000;
 138:lib/tinyusb/src/portable/synopsys/dwc2/dwc2_stm32.h ****   while (count--) __NOP();
 139:lib/tinyusb/src/portable/synopsys/dwc2/dwc2_stm32.h **** }
 140:lib/tinyusb/src/portable/synopsys/dwc2/dwc2_stm32.h **** 
 141:lib/tinyusb/src/portable/synopsys/dwc2/dwc2_stm32.h **** // MCU specific PHY init, called BEFORE core reset
 142:lib/tinyusb/src/portable/synopsys/dwc2/dwc2_stm32.h **** // - dwc2 3.30a (H5) use USB_HS_PHYC
 143:lib/tinyusb/src/portable/synopsys/dwc2/dwc2_stm32.h **** // - dwc2 4.11a (U5) use femtoPHY
 144:lib/tinyusb/src/portable/synopsys/dwc2/dwc2_stm32.h **** static inline void dwc2_phy_init(dwc2_regs_t* dwc2, uint8_t hs_phy_type) {
 145:lib/tinyusb/src/portable/synopsys/dwc2/dwc2_stm32.h ****   if (hs_phy_type == HS_PHY_TYPE_NONE) {
 146:lib/tinyusb/src/portable/synopsys/dwc2/dwc2_stm32.h ****     // Enable on-chip FS PHY
 147:lib/tinyusb/src/portable/synopsys/dwc2/dwc2_stm32.h ****     dwc2->stm32_gccfg |= STM32_GCCFG_PWRDWN;
 148:lib/tinyusb/src/portable/synopsys/dwc2/dwc2_stm32.h **** 
 149:lib/tinyusb/src/portable/synopsys/dwc2/dwc2_stm32.h ****     // https://community.st.com/t5/stm32cubemx-mcus/why-stm32h743-usb-fs-doesn-t-work-if-freertos-t
 150:lib/tinyusb/src/portable/synopsys/dwc2/dwc2_stm32.h ****     // H7 running on full-speed phy need to disable ULPI clock in sleep mode.
 151:lib/tinyusb/src/portable/synopsys/dwc2/dwc2_stm32.h ****     // Otherwise, USB won't work when mcu executing WFI/WFE instruction i.e tick-less RTOS.
 152:lib/tinyusb/src/portable/synopsys/dwc2/dwc2_stm32.h ****     // Note: there may be other family that is affected by this, but only H7 and F7 is tested so fa
 153:lib/tinyusb/src/portable/synopsys/dwc2/dwc2_stm32.h ****     #if defined(USB_OTG_FS_PERIPH_BASE) && defined(RCC_AHB1LPENR_USB2OTGFSULPILPEN)
 154:lib/tinyusb/src/portable/synopsys/dwc2/dwc2_stm32.h ****     if ( USB_OTG_FS_PERIPH_BASE == (uint32_t) dwc2 ) {
 1023              		.loc 4 154 8 view .LVU342
 1024 0026 6C49     		ldr	r1, .L130+16
 1025              	.LBE257:
 1026              	.LBE256:
 1027              	.LBE255:
 1028              	.LBE254:
 1029              	.LBB301:
 1030              	.LBB252:
 1031              		.loc 1 698 14 view .LVU343
 1032 0028 42F00202 		orr	r2, r2, #2
 1033              	.LBE252:
 1034              	.LBE301:
ARM GAS  /tmp/claude-502/ccFotbfS.s 			page 49


 1035              	.LBB302:
 1036              	.LBB295:
 1037              	.LBB264:
 1038              	.LBB260:
 1039              		.loc 4 154 8 view .LVU344
 1040 002c 8B42     		cmp	r3, r1
 1041              	.LBE260:
 1042              	.LBE264:
 1043              	.LBE295:
 1044              	.LBE302:
 1045              	.LBB303:
 1046              	.LBB253:
 1047              		.loc 1 698 14 view .LVU345
 1048 002e C3F80428 		str	r2, [r3, #2052]
 1049              	.LVL85:
 1050              		.loc 1 698 14 view .LVU346
 1051              	.LBE253:
 1052              	.LBE303:
 574:lib/tinyusb/src/portable/synopsys/dwc2/dcd_dwc2.c ****     phy_hs_init(dwc2); // Highspeed
 1053              		.loc 1 574 3 is_stmt 1 view .LVU347
 450:lib/tinyusb/src/portable/synopsys/dwc2/dcd_dwc2.c **** 
 1054              		.loc 1 450 3 view .LVU348
 456:lib/tinyusb/src/portable/synopsys/dwc2/dcd_dwc2.c **** #else
 1055              		.loc 1 456 3 view .LVU349
 577:lib/tinyusb/src/portable/synopsys/dwc2/dcd_dwc2.c ****   }
 1056              		.loc 1 577 5 view .LVU350
 1057              	.LBB304:
 1058              	.LBI254:
 462:lib/tinyusb/src/portable/synopsys/dwc2/dcd_dwc2.c ****   TU_LOG(DWC2_DEBUG, "Fullspeed PHY init\r\n");
 1059              		.loc 1 462 13 view .LVU351
 1060              	.LBB296:
 463:lib/tinyusb/src/portable/synopsys/dwc2/dcd_dwc2.c **** 
 1061              		.loc 1 463 47 view .LVU352
 466:lib/tinyusb/src/portable/synopsys/dwc2/dcd_dwc2.c **** 
 1062              		.loc 1 466 3 view .LVU353
 466:lib/tinyusb/src/portable/synopsys/dwc2/dcd_dwc2.c **** 
 1063              		.loc 1 466 17 is_stmt 0 view .LVU354
 1064 0032 DA68     		ldr	r2, [r3, #12]
 1065 0034 42F04002 		orr	r2, r2, #64
 1066 0038 DA60     		str	r2, [r3, #12]
 469:lib/tinyusb/src/portable/synopsys/dwc2/dcd_dwc2.c **** 
 1067              		.loc 1 469 3 is_stmt 1 view .LVU355
 1068              	.LVL86:
 1069              	.LBB265:
 1070              	.LBI256:
 144:lib/tinyusb/src/portable/synopsys/dwc2/dwc2_stm32.h ****   if (hs_phy_type == HS_PHY_TYPE_NONE) {
 1071              		.loc 4 144 20 view .LVU356
 1072              	.LBB261:
 145:lib/tinyusb/src/portable/synopsys/dwc2/dwc2_stm32.h ****     // Enable on-chip FS PHY
 1073              		.loc 4 145 3 view .LVU357
 147:lib/tinyusb/src/portable/synopsys/dwc2/dwc2_stm32.h **** 
 1074              		.loc 4 147 5 view .LVU358
 147:lib/tinyusb/src/portable/synopsys/dwc2/dwc2_stm32.h **** 
 1075              		.loc 4 147 23 is_stmt 0 view .LVU359
 1076 003a 9A6B     		ldr	r2, [r3, #56]
 1077 003c 42F48032 		orr	r2, r2, #65536
 1078 0040 9A63     		str	r2, [r3, #56]
ARM GAS  /tmp/claude-502/ccFotbfS.s 			page 50


 1079              		.loc 4 154 5 is_stmt 1 view .LVU360
 1080              		.loc 4 154 8 is_stmt 0 view .LVU361
 1081 0042 00F0A780 		beq	.L128
 155:lib/tinyusb/src/portable/synopsys/dwc2/dwc2_stm32.h ****       RCC->AHB1LPENR &= ~RCC_AHB1LPENR_USB2OTGFSULPILPEN;
 156:lib/tinyusb/src/portable/synopsys/dwc2/dwc2_stm32.h ****     }
 157:lib/tinyusb/src/portable/synopsys/dwc2/dwc2_stm32.h ****     #endif
 158:lib/tinyusb/src/portable/synopsys/dwc2/dwc2_stm32.h **** 
 159:lib/tinyusb/src/portable/synopsys/dwc2/dwc2_stm32.h ****     #if defined(USB_OTG_HS_PERIPH_BASE) && defined(RCC_AHB1LPENR_USB1OTGHSULPILPEN)
 160:lib/tinyusb/src/portable/synopsys/dwc2/dwc2_stm32.h ****     if ( USB_OTG_HS_PERIPH_BASE == (uint32_t) dwc2 ) {
 1082              		.loc 4 160 5 is_stmt 1 view .LVU362
 1083              		.loc 4 160 8 is_stmt 0 view .LVU363
 1084 0046 654A     		ldr	r2, .L130+20
 1085 0048 9342     		cmp	r3, r2
 1086 004a 00F09880 		beq	.L129
 1087              	.L98:
 161:lib/tinyusb/src/portable/synopsys/dwc2/dwc2_stm32.h ****       RCC->AHB1LPENR &= ~RCC_AHB1LPENR_USB1OTGHSULPILPEN;
 162:lib/tinyusb/src/portable/synopsys/dwc2/dwc2_stm32.h ****     }
 163:lib/tinyusb/src/portable/synopsys/dwc2/dwc2_stm32.h ****     #endif
 164:lib/tinyusb/src/portable/synopsys/dwc2/dwc2_stm32.h **** 
 165:lib/tinyusb/src/portable/synopsys/dwc2/dwc2_stm32.h ****     #if defined(USB_OTG_HS_PERIPH_BASE) && defined(RCC_AHB1LPENR_OTGHSULPILPEN)
 166:lib/tinyusb/src/portable/synopsys/dwc2/dwc2_stm32.h ****     if ( USB_OTG_HS_PERIPH_BASE == (uint32_t) dwc2 ) {
 167:lib/tinyusb/src/portable/synopsys/dwc2/dwc2_stm32.h ****       RCC->AHB1LPENR &= ~RCC_AHB1LPENR_OTGHSULPILPEN;
 168:lib/tinyusb/src/portable/synopsys/dwc2/dwc2_stm32.h ****     }
 169:lib/tinyusb/src/portable/synopsys/dwc2/dwc2_stm32.h ****     #endif
 170:lib/tinyusb/src/portable/synopsys/dwc2/dwc2_stm32.h **** 
 171:lib/tinyusb/src/portable/synopsys/dwc2/dwc2_stm32.h ****   } else {
 172:lib/tinyusb/src/portable/synopsys/dwc2/dwc2_stm32.h **** #if CFG_TUSB_MCU != OPT_MCU_STM32U5
 173:lib/tinyusb/src/portable/synopsys/dwc2/dwc2_stm32.h ****     // Disable FS PHY, TODO on U5A5 (dwc2 4.11a) 16th bit is 'Host CDP behavior enable'
 174:lib/tinyusb/src/portable/synopsys/dwc2/dwc2_stm32.h ****     dwc2->stm32_gccfg &= ~STM32_GCCFG_PWRDWN;
 175:lib/tinyusb/src/portable/synopsys/dwc2/dwc2_stm32.h **** #endif
 176:lib/tinyusb/src/portable/synopsys/dwc2/dwc2_stm32.h **** 
 177:lib/tinyusb/src/portable/synopsys/dwc2/dwc2_stm32.h ****     // Enable on-chip HS PHY
 178:lib/tinyusb/src/portable/synopsys/dwc2/dwc2_stm32.h ****     if (hs_phy_type == HS_PHY_TYPE_UTMI || hs_phy_type == HS_PHY_TYPE_UTMI_ULPI) {
 179:lib/tinyusb/src/portable/synopsys/dwc2/dwc2_stm32.h ****       #ifdef USB_HS_PHYC
 180:lib/tinyusb/src/portable/synopsys/dwc2/dwc2_stm32.h ****       // Enable UTMI HS PHY
 181:lib/tinyusb/src/portable/synopsys/dwc2/dwc2_stm32.h ****       dwc2->stm32_gccfg |= STM32_GCCFG_PHYHSEN;
 182:lib/tinyusb/src/portable/synopsys/dwc2/dwc2_stm32.h **** 
 183:lib/tinyusb/src/portable/synopsys/dwc2/dwc2_stm32.h ****       // Enable LDO
 184:lib/tinyusb/src/portable/synopsys/dwc2/dwc2_stm32.h ****       USB_HS_PHYC->USB_HS_PHYC_LDO |= USB_HS_PHYC_LDO_ENABLE;
 185:lib/tinyusb/src/portable/synopsys/dwc2/dwc2_stm32.h **** 
 186:lib/tinyusb/src/portable/synopsys/dwc2/dwc2_stm32.h ****       // Wait until LDO ready
 187:lib/tinyusb/src/portable/synopsys/dwc2/dwc2_stm32.h ****       while ( 0 == (USB_HS_PHYC->USB_HS_PHYC_LDO & USB_HS_PHYC_LDO_STATUS) ) {}
 188:lib/tinyusb/src/portable/synopsys/dwc2/dwc2_stm32.h **** 
 189:lib/tinyusb/src/portable/synopsys/dwc2/dwc2_stm32.h ****       uint32_t phyc_pll = 0;
 190:lib/tinyusb/src/portable/synopsys/dwc2/dwc2_stm32.h **** 
 191:lib/tinyusb/src/portable/synopsys/dwc2/dwc2_stm32.h ****       // TODO Try to get HSE_VALUE from registers instead of depending CFLAGS
 192:lib/tinyusb/src/portable/synopsys/dwc2/dwc2_stm32.h ****       switch ( HSE_VALUE )
 193:lib/tinyusb/src/portable/synopsys/dwc2/dwc2_stm32.h ****       {
 194:lib/tinyusb/src/portable/synopsys/dwc2/dwc2_stm32.h ****         case 12000000: phyc_pll = USB_HS_PHYC_PLL1_PLLSEL_12MHZ   ; break;
 195:lib/tinyusb/src/portable/synopsys/dwc2/dwc2_stm32.h ****         case 12500000: phyc_pll = USB_HS_PHYC_PLL1_PLLSEL_12_5MHZ ; break;
 196:lib/tinyusb/src/portable/synopsys/dwc2/dwc2_stm32.h ****         case 16000000: phyc_pll = USB_HS_PHYC_PLL1_PLLSEL_16MHZ   ; break;
 197:lib/tinyusb/src/portable/synopsys/dwc2/dwc2_stm32.h ****         case 24000000: phyc_pll = USB_HS_PHYC_PLL1_PLLSEL_24MHZ   ; break;
 198:lib/tinyusb/src/portable/synopsys/dwc2/dwc2_stm32.h ****         case 25000000: phyc_pll = USB_HS_PHYC_PLL1_PLLSEL_25MHZ   ; break;
 199:lib/tinyusb/src/portable/synopsys/dwc2/dwc2_stm32.h ****         case 32000000: phyc_pll = USB_HS_PHYC_PLL1_PLLSEL_Msk     ; break; // Value not defined in 
 200:lib/tinyusb/src/portable/synopsys/dwc2/dwc2_stm32.h ****         default:
 201:lib/tinyusb/src/portable/synopsys/dwc2/dwc2_stm32.h ****           TU_ASSERT(false, );
 202:lib/tinyusb/src/portable/synopsys/dwc2/dwc2_stm32.h ****       }
ARM GAS  /tmp/claude-502/ccFotbfS.s 			page 51


 203:lib/tinyusb/src/portable/synopsys/dwc2/dwc2_stm32.h ****       USB_HS_PHYC->USB_HS_PHYC_PLL = phyc_pll;
 204:lib/tinyusb/src/portable/synopsys/dwc2/dwc2_stm32.h **** 
 205:lib/tinyusb/src/portable/synopsys/dwc2/dwc2_stm32.h ****       // Control the tuning interface of the High Speed PHY
 206:lib/tinyusb/src/portable/synopsys/dwc2/dwc2_stm32.h ****       // Use magic value (USB_HS_PHYC_TUNE_VALUE) from ST driver for F7
 207:lib/tinyusb/src/portable/synopsys/dwc2/dwc2_stm32.h ****       USB_HS_PHYC->USB_HS_PHYC_TUNE |= 0x00000F13U;
 208:lib/tinyusb/src/portable/synopsys/dwc2/dwc2_stm32.h **** 
 209:lib/tinyusb/src/portable/synopsys/dwc2/dwc2_stm32.h ****       // Enable PLL internal PHY
 210:lib/tinyusb/src/portable/synopsys/dwc2/dwc2_stm32.h ****       USB_HS_PHYC->USB_HS_PHYC_PLL |= USB_HS_PHYC_PLL_PLLEN;
 211:lib/tinyusb/src/portable/synopsys/dwc2/dwc2_stm32.h ****       #else
 212:lib/tinyusb/src/portable/synopsys/dwc2/dwc2_stm32.h **** 
 213:lib/tinyusb/src/portable/synopsys/dwc2/dwc2_stm32.h ****       #endif
 214:lib/tinyusb/src/portable/synopsys/dwc2/dwc2_stm32.h ****     }
 1088              		.loc 4 214 5 is_stmt 1 view .LVU364
 1089              	.LVL87:
 1090              		.loc 4 214 5 is_stmt 0 view .LVU365
 1091              	.LBE261:
 1092              	.LBE265:
 472:lib/tinyusb/src/portable/synopsys/dwc2/dcd_dwc2.c **** 
 1093              		.loc 1 472 3 is_stmt 1 view .LVU366
 1094              	.LBB266:
 1095              	.LBI266:
 435:lib/tinyusb/src/portable/synopsys/dwc2/dcd_dwc2.c ****   // reset core
 1096              		.loc 1 435 13 view .LVU367
 1097              	.LBB267:
 437:lib/tinyusb/src/portable/synopsys/dwc2/dcd_dwc2.c **** 
 1098              		.loc 1 437 3 view .LVU368
 437:lib/tinyusb/src/portable/synopsys/dwc2/dcd_dwc2.c **** 
 1099              		.loc 1 437 17 is_stmt 0 view .LVU369
 1100 004e 1A69     		ldr	r2, [r3, #16]
 1101 0050 42F00102 		orr	r2, r2, #1
 1102 0054 1A61     		str	r2, [r3, #16]
 441:lib/tinyusb/src/portable/synopsys/dwc2/dcd_dwc2.c **** 
 1103              		.loc 1 441 3 is_stmt 1 view .LVU370
 1104              	.L99:
 441:lib/tinyusb/src/portable/synopsys/dwc2/dcd_dwc2.c **** 
 1105              		.loc 1 441 42 view .LVU371
 441:lib/tinyusb/src/portable/synopsys/dwc2/dcd_dwc2.c **** 
 1106              		.loc 1 441 9 view .LVU372
 441:lib/tinyusb/src/portable/synopsys/dwc2/dcd_dwc2.c **** 
 1107              		.loc 1 441 14 is_stmt 0 view .LVU373
 1108 0056 1A69     		ldr	r2, [r3, #16]
 441:lib/tinyusb/src/portable/synopsys/dwc2/dcd_dwc2.c **** 
 1109              		.loc 1 441 9 view .LVU374
 1110 0058 D007     		lsls	r0, r2, #31
 1111 005a FCD4     		bmi	.L99
 1112              	.L100:
 444:lib/tinyusb/src/portable/synopsys/dwc2/dcd_dwc2.c **** 
 1113              		.loc 1 444 46 is_stmt 1 view .LVU375
 444:lib/tinyusb/src/portable/synopsys/dwc2/dcd_dwc2.c **** 
 1114              		.loc 1 444 9 view .LVU376
 444:lib/tinyusb/src/portable/synopsys/dwc2/dcd_dwc2.c **** 
 1115              		.loc 1 444 16 is_stmt 0 view .LVU377
 1116 005c 1A69     		ldr	r2, [r3, #16]
 444:lib/tinyusb/src/portable/synopsys/dwc2/dcd_dwc2.c **** 
 1117              		.loc 1 444 9 view .LVU378
 1118 005e 002A     		cmp	r2, #0
 1119 0060 FCDA     		bge	.L100
ARM GAS  /tmp/claude-502/ccFotbfS.s 			page 52


 1120              	.LVL88:
 444:lib/tinyusb/src/portable/synopsys/dwc2/dcd_dwc2.c **** 
 1121              		.loc 1 444 9 view .LVU379
 1122              	.LBE267:
 1123              	.LBE266:
 477:lib/tinyusb/src/portable/synopsys/dwc2/dcd_dwc2.c **** 
 1124              		.loc 1 477 3 is_stmt 1 view .LVU380
 477:lib/tinyusb/src/portable/synopsys/dwc2/dcd_dwc2.c **** 
 1125              		.loc 1 477 24 is_stmt 0 view .LVU381
 1126 0062 DA68     		ldr	r2, [r3, #12]
 1127              	.LBB268:
 1128              	.LBB269:
 1129              	.LBB270:
 215:lib/tinyusb/src/portable/synopsys/dwc2/dwc2_stm32.h ****   }
 216:lib/tinyusb/src/portable/synopsys/dwc2/dwc2_stm32.h **** }
 217:lib/tinyusb/src/portable/synopsys/dwc2/dwc2_stm32.h **** 
 218:lib/tinyusb/src/portable/synopsys/dwc2/dwc2_stm32.h **** // MCU specific PHY update, it is called AFTER init() and core reset
 219:lib/tinyusb/src/portable/synopsys/dwc2/dwc2_stm32.h **** static inline void dwc2_phy_update(dwc2_regs_t* dwc2, uint8_t hs_phy_type) {
 220:lib/tinyusb/src/portable/synopsys/dwc2/dwc2_stm32.h ****   // used to set turnaround time for fullspeed, nothing to do in highspeed mode
 221:lib/tinyusb/src/portable/synopsys/dwc2/dwc2_stm32.h ****   if (hs_phy_type == HS_PHY_TYPE_NONE) {
 222:lib/tinyusb/src/portable/synopsys/dwc2/dwc2_stm32.h ****     // Turnaround timeout depends on the AHB clock dictated by STM32 Reference Manual
 223:lib/tinyusb/src/portable/synopsys/dwc2/dwc2_stm32.h ****     uint32_t turnaround;
 224:lib/tinyusb/src/portable/synopsys/dwc2/dwc2_stm32.h **** 
 225:lib/tinyusb/src/portable/synopsys/dwc2/dwc2_stm32.h ****     if (SystemCoreClock >= 32000000u) {
 1130              		.loc 4 225 25 view .LVU382
 1131 0064 5E49     		ldr	r1, .L130+24
 1132              		.loc 4 225 8 view .LVU383
 1133 0066 5F48     		ldr	r0, .L130+28
 1134              	.LBE270:
 1135              	.LBE269:
 1136              	.LBE268:
 477:lib/tinyusb/src/portable/synopsys/dwc2/dcd_dwc2.c **** 
 1137              		.loc 1 477 34 view .LVU384
 1138 0068 22F47052 		bic	r2, r2, #15360
 1139              	.LBB285:
 1140              	.LBB278:
 1141              	.LBB271:
 1142              		.loc 4 225 25 view .LVU385
 1143 006c 0968     		ldr	r1, [r1]
 1144              	.LBE271:
 1145              	.LBE278:
 1146              	.LBE285:
 477:lib/tinyusb/src/portable/synopsys/dwc2/dcd_dwc2.c **** 
 1147              		.loc 1 477 55 view .LVU386
 1148 006e 42F4A052 		orr	r2, r2, #5120
 1149              	.LBB286:
 1150              	.LBB279:
 1151              	.LBB272:
 1152              		.loc 4 225 8 view .LVU387
 1153 0072 8142     		cmp	r1, r0
 1154              	.LBE272:
 1155              	.LBE279:
 1156              	.LBE286:
 477:lib/tinyusb/src/portable/synopsys/dwc2/dcd_dwc2.c **** 
 1157              		.loc 1 477 17 view .LVU388
 1158 0074 DA60     		str	r2, [r3, #12]
 480:lib/tinyusb/src/portable/synopsys/dwc2/dcd_dwc2.c **** 
ARM GAS  /tmp/claude-502/ccFotbfS.s 			page 53


 1159              		.loc 1 480 3 is_stmt 1 view .LVU389
 1160              	.LVL89:
 1161              	.LBB287:
 1162              	.LBI268:
 219:lib/tinyusb/src/portable/synopsys/dwc2/dwc2_stm32.h ****   // used to set turnaround time for fullspeed, nothing to do in highspeed mode
 1163              		.loc 4 219 20 view .LVU390
 1164              	.LBE287:
 1165              	.LBE296:
 1166              	.LBE304:
 221:lib/tinyusb/src/portable/synopsys/dwc2/dwc2_stm32.h ****     // Turnaround timeout depends on the AHB clock dictated by STM32 Reference Manual
 1167              		.loc 4 221 3 view .LVU391
 1168              	.LBB305:
 1169              	.LBB297:
 1170              	.LBB288:
 1171              	.LBB280:
 1172              	.LBI269:
 219:lib/tinyusb/src/portable/synopsys/dwc2/dwc2_stm32.h ****   // used to set turnaround time for fullspeed, nothing to do in highspeed mode
 1173              		.loc 4 219 20 view .LVU392
 1174              	.LBB273:
 223:lib/tinyusb/src/portable/synopsys/dwc2/dwc2_stm32.h **** 
 1175              		.loc 4 223 5 view .LVU393
 1176              		.loc 4 225 5 view .LVU394
 1177              		.loc 4 225 8 is_stmt 0 view .LVU395
 1178 0076 33D2     		bcs	.L104
 226:lib/tinyusb/src/portable/synopsys/dwc2/dwc2_stm32.h ****       turnaround = 0x6u;
 227:lib/tinyusb/src/portable/synopsys/dwc2/dwc2_stm32.h ****     } else if (SystemCoreClock >= 27500000u) {
 1179              		.loc 4 227 12 is_stmt 1 view .LVU396
 1180              		.loc 4 227 15 is_stmt 0 view .LVU397
 1181 0078 5B4A     		ldr	r2, .L130+32
 1182 007a 9142     		cmp	r1, r2
 1183 007c 00F28780 		bhi	.L105
 228:lib/tinyusb/src/portable/synopsys/dwc2/dwc2_stm32.h ****       turnaround = 0x7u;
 229:lib/tinyusb/src/portable/synopsys/dwc2/dwc2_stm32.h ****     } else if (SystemCoreClock >= 24000000u) {
 1184              		.loc 4 229 12 is_stmt 1 view .LVU398
 1185              		.loc 4 229 15 is_stmt 0 view .LVU399
 1186 0080 5A4A     		ldr	r2, .L130+36
 1187 0082 9142     		cmp	r1, r2
 1188 0084 80F08E80 		bcs	.L106
 230:lib/tinyusb/src/portable/synopsys/dwc2/dwc2_stm32.h ****       turnaround = 0x8u;
 231:lib/tinyusb/src/portable/synopsys/dwc2/dwc2_stm32.h ****     } else if (SystemCoreClock >= 21800000u) {
 1189              		.loc 4 231 12 is_stmt 1 view .LVU400
 1190              		.loc 4 231 15 is_stmt 0 view .LVU401
 1191 0088 594A     		ldr	r2, .L130+40
 1192 008a 9142     		cmp	r1, r2
 1193 008c 00F28D80 		bhi	.L107
 232:lib/tinyusb/src/portable/synopsys/dwc2/dwc2_stm32.h ****       turnaround = 0x9u;
 233:lib/tinyusb/src/portable/synopsys/dwc2/dwc2_stm32.h ****     }
 234:lib/tinyusb/src/portable/synopsys/dwc2/dwc2_stm32.h ****     else if (SystemCoreClock >= 20000000u) {
 1194              		.loc 4 234 10 is_stmt 1 view .LVU402
 1195              		.loc 4 234 13 is_stmt 0 view .LVU403
 1196 0090 A2F5DB12 		sub	r2, r2, #1794048
 1197 0094 A2F5BA52 		sub	r2, r2, #5952
 1198 0098 9142     		cmp	r1, r2
 1199 009a 00F28980 		bhi	.L108
 235:lib/tinyusb/src/portable/synopsys/dwc2/dwc2_stm32.h ****       turnaround = 0xAu;
 236:lib/tinyusb/src/portable/synopsys/dwc2/dwc2_stm32.h ****     }
 237:lib/tinyusb/src/portable/synopsys/dwc2/dwc2_stm32.h ****     else if (SystemCoreClock >= 18500000u) {
ARM GAS  /tmp/claude-502/ccFotbfS.s 			page 54


 1200              		.loc 4 237 10 is_stmt 1 view .LVU404
 1201              		.loc 4 237 13 is_stmt 0 view .LVU405
 1202 009e A2F5B712 		sub	r2, r2, #1499136
 1203 00a2 A2F55872 		sub	r2, r2, #864
 1204 00a6 9142     		cmp	r1, r2
 1205 00a8 00F28580 		bhi	.L109
 238:lib/tinyusb/src/portable/synopsys/dwc2/dwc2_stm32.h ****       turnaround = 0xBu;
 239:lib/tinyusb/src/portable/synopsys/dwc2/dwc2_stm32.h ****     }
 240:lib/tinyusb/src/portable/synopsys/dwc2/dwc2_stm32.h ****     else if (SystemCoreClock >= 17200000u) {
 1206              		.loc 4 240 10 is_stmt 1 view .LVU406
 1207              		.loc 4 240 13 is_stmt 0 view .LVU407
 1208 00ac 514A     		ldr	r2, .L130+44
 1209 00ae 9142     		cmp	r1, r2
 1210 00b0 80F08480 		bcs	.L110
 241:lib/tinyusb/src/portable/synopsys/dwc2/dwc2_stm32.h ****       turnaround = 0xCu;
 242:lib/tinyusb/src/portable/synopsys/dwc2/dwc2_stm32.h ****     }
 243:lib/tinyusb/src/portable/synopsys/dwc2/dwc2_stm32.h ****     else if (SystemCoreClock >= 16000000u) {
 1211              		.loc 4 243 10 is_stmt 1 view .LVU408
 1212              		.loc 4 243 13 is_stmt 0 view .LVU409
 1213 00b4 504A     		ldr	r2, .L130+48
 1214 00b6 9142     		cmp	r1, r2
 1215 00b8 80F08380 		bcs	.L111
 244:lib/tinyusb/src/portable/synopsys/dwc2/dwc2_stm32.h ****       turnaround = 0xDu;
 245:lib/tinyusb/src/portable/synopsys/dwc2/dwc2_stm32.h ****     }
 246:lib/tinyusb/src/portable/synopsys/dwc2/dwc2_stm32.h ****     else if (SystemCoreClock >= 15000000u) {
 1216              		.loc 4 246 10 is_stmt 1 view .LVU410
 1217              		.loc 4 246 13 is_stmt 0 view .LVU411
 1218 00bc 4F4A     		ldr	r2, .L130+52
 1219 00be 9142     		cmp	r1, r2
 1220 00c0 2CBF     		ite	cs
 1221 00c2 4FF46051 		movcs	r1, #14336
 1222 00c6 4FF47051 		movcc	r1, #15360
 1223 00ca 0BE0     		b	.L101
 1224              	.LVL90:
 1225              	.L127:
 1226              		.loc 4 246 13 view .LVU412
 1227              	.LBE273:
 1228              	.LBE280:
 1229              	.LBE288:
 1230              	.LBE297:
 1231              	.LBE305:
 1232              	.LBB306:
 1233              	.LBB247:
 556:lib/tinyusb/src/portable/synopsys/dwc2/dcd_dwc2.c **** #endif
 1234              		.loc 1 556 3 is_stmt 1 view .LVU413
 556:lib/tinyusb/src/portable/synopsys/dwc2/dcd_dwc2.c **** #endif
 1235              		.loc 1 556 3 view .LVU414
 556:lib/tinyusb/src/portable/synopsys/dwc2/dcd_dwc2.c **** #endif
 1236              		.loc 1 556 3 view .LVU415
 556:lib/tinyusb/src/portable/synopsys/dwc2/dcd_dwc2.c **** #endif
 1237              		.loc 1 556 3 view .LVU416
 1238              	.LBB244:
 556:lib/tinyusb/src/portable/synopsys/dwc2/dcd_dwc2.c **** #endif
 1239              		.loc 1 556 3 view .LVU417
 556:lib/tinyusb/src/portable/synopsys/dwc2/dcd_dwc2.c **** #endif
 1240              		.loc 1 556 3 view .LVU418
 1241 00cc 4FF0E023 		mov	r3, #-536813568
ARM GAS  /tmp/claude-502/ccFotbfS.s 			page 55


 1242              	.LVL91:
 556:lib/tinyusb/src/portable/synopsys/dwc2/dcd_dwc2.c **** #endif
 1243              		.loc 1 556 3 is_stmt 0 view .LVU419
 1244 00d0 D3F8F03D 		ldr	r3, [r3, #3568]
 1245 00d4 DC07     		lsls	r4, r3, #31
 1246 00d6 00D5     		bpl	.L94
 556:lib/tinyusb/src/portable/synopsys/dwc2/dcd_dwc2.c **** #endif
 1247              		.loc 1 556 3 is_stmt 1 view .LVU420
 1248              		.syntax unified
 1249              	@ 556 "lib/tinyusb/src/portable/synopsys/dwc2/dcd_dwc2.c" 1
 1250 00d8 00BE     		BKPT #0
 1251              	
 1252              	@ 0 "" 2
 1253              	.LVL92:
 1254              		.thumb
 1255              		.syntax unified
 1256              	.L94:
 556:lib/tinyusb/src/portable/synopsys/dwc2/dcd_dwc2.c **** #endif
 1257              		.loc 1 556 3 is_stmt 0 view .LVU421
 1258              	.LBE244:
 1259              	.LBE247:
 1260              	.LBE306:
 631:lib/tinyusb/src/portable/synopsys/dwc2/dcd_dwc2.c **** 
 1261              		.loc 1 631 1 view .LVU422
 1262 00da 5DF8044B 		ldr	r4, [sp], #4
 1263              		.cfi_remember_state
 1264              		.cfi_restore 4
 1265              		.cfi_def_cfa_offset 0
 1266 00de 7047     		bx	lr
 1267              	.LVL93:
 1268              	.L104:
 1269              		.cfi_restore_state
 1270              	.LBB307:
 1271              	.LBB298:
 1272              	.LBB289:
 1273              	.LBB281:
 1274              	.LBB274:
 631:lib/tinyusb/src/portable/synopsys/dwc2/dcd_dwc2.c **** 
 1275              		.loc 1 631 1 view .LVU423
 1276 00e0 4FF4C051 		mov	r1, #6144
 1277              	.L101:
 247:lib/tinyusb/src/portable/synopsys/dwc2/dwc2_stm32.h ****       turnaround = 0xEu;
 248:lib/tinyusb/src/portable/synopsys/dwc2/dwc2_stm32.h ****     }
 249:lib/tinyusb/src/portable/synopsys/dwc2/dwc2_stm32.h ****     else {
 250:lib/tinyusb/src/portable/synopsys/dwc2/dwc2_stm32.h ****       turnaround = 0xFu;
 251:lib/tinyusb/src/portable/synopsys/dwc2/dwc2_stm32.h ****     }
 252:lib/tinyusb/src/portable/synopsys/dwc2/dwc2_stm32.h **** 
 253:lib/tinyusb/src/portable/synopsys/dwc2/dwc2_stm32.h ****     dwc2->gusbcfg = (dwc2->gusbcfg & ~GUSBCFG_TRDT_Msk) | (turnaround << GUSBCFG_TRDT_Pos);
 1278              		.loc 4 253 5 is_stmt 1 view .LVU424
 1279              		.loc 4 253 26 is_stmt 0 view .LVU425
 1280 00e4 DA68     		ldr	r2, [r3, #12]
 1281              	.LBE274:
 1282              	.LBE281:
 1283              	.LBE289:
 1284              	.LBE298:
 1285              	.LBE307:
 1286              	.LBB308:
ARM GAS  /tmp/claude-502/ccFotbfS.s 			page 56


 1287              	.LBB309:
 117:lib/tinyusb/src/portable/synopsys/dwc2/dcd_dwc2.c ****   while (dwc2->grstctl & GRSTCTL_TXFFLSH_Msk) {}
 1288              		.loc 1 117 17 view .LVU426
 1289 00e6 4FF48460 		mov	r0, #1056
 1290              	.LBE309:
 1291              	.LBE308:
 1292              	.LBB311:
 1293              	.LBB299:
 1294              	.LBB290:
 1295              	.LBB282:
 1296              	.LBB275:
 1297              		.loc 4 253 36 view .LVU427
 1298 00ea 22F47052 		bic	r2, r2, #15360
 1299              		.loc 4 253 57 view .LVU428
 1300 00ee 0A43     		orrs	r2, r2, r1
 1301              		.loc 4 253 19 view .LVU429
 1302 00f0 DA60     		str	r2, [r3, #12]
 1303              	.LVL94:
 1304              		.loc 4 253 19 view .LVU430
 1305              	.LBE275:
 1306              	.LBE282:
 1307              	.LBE290:
 483:lib/tinyusb/src/portable/synopsys/dwc2/dcd_dwc2.c **** }
 1308              		.loc 1 483 3 is_stmt 1 view .LVU431
 483:lib/tinyusb/src/portable/synopsys/dwc2/dcd_dwc2.c **** }
 1309              		.loc 1 483 21 is_stmt 0 view .LVU432
 1310 00f2 D3F80028 		ldr	r2, [r3, #2048]
 483:lib/tinyusb/src/portable/synopsys/dwc2/dcd_dwc2.c **** }
 1311              		.loc 1 483 46 view .LVU433
 1312 00f6 42F00302 		orr	r2, r2, #3
 483:lib/tinyusb/src/portable/synopsys/dwc2/dcd_dwc2.c **** }
 1313              		.loc 1 483 14 view .LVU434
 1314 00fa C3F80028 		str	r2, [r3, #2048]
 1315              	.LVL95:
 483:lib/tinyusb/src/portable/synopsys/dwc2/dcd_dwc2.c **** }
 1316              		.loc 1 483 14 view .LVU435
 1317              	.LBE299:
 1318              	.LBE311:
 581:lib/tinyusb/src/portable/synopsys/dwc2/dcd_dwc2.c **** 
 1319              		.loc 1 581 3 is_stmt 1 view .LVU436
 581:lib/tinyusb/src/portable/synopsys/dwc2/dcd_dwc2.c **** 
 1320              		.loc 1 581 16 is_stmt 0 view .LVU437
 1321 00fe D3F8002E 		ldr	r2, [r3, #3584]
 1322 0102 22F00F02 		bic	r2, r2, #15
 1323 0106 C3F8002E 		str	r2, [r3, #3584]
 591:lib/tinyusb/src/portable/synopsys/dwc2/dcd_dwc2.c **** 
 1324              		.loc 1 591 3 is_stmt 1 view .LVU438
 591:lib/tinyusb/src/portable/synopsys/dwc2/dcd_dwc2.c **** 
 1325              		.loc 1 591 17 is_stmt 0 view .LVU439
 1326 010a DA68     		ldr	r2, [r3, #12]
 1327 010c 42F00702 		orr	r2, r2, #7
 1328 0110 DA60     		str	r2, [r3, #12]
 594:lib/tinyusb/src/portable/synopsys/dwc2/dcd_dwc2.c **** 
 1329              		.loc 1 594 3 is_stmt 1 view .LVU440
 594:lib/tinyusb/src/portable/synopsys/dwc2/dcd_dwc2.c **** 
 1330              		.loc 1 594 24 is_stmt 0 view .LVU441
 1331 0112 DA68     		ldr	r2, [r3, #12]
ARM GAS  /tmp/claude-502/ccFotbfS.s 			page 57


 594:lib/tinyusb/src/portable/synopsys/dwc2/dcd_dwc2.c **** 
 1332              		.loc 1 594 52 view .LVU442
 1333 0114 22F0C042 		bic	r2, r2, #1610612736
 1334 0118 42F08042 		orr	r2, r2, #1073741824
 594:lib/tinyusb/src/portable/synopsys/dwc2/dcd_dwc2.c **** 
 1335              		.loc 1 594 17 view .LVU443
 1336 011c DA60     		str	r2, [r3, #12]
 597:lib/tinyusb/src/portable/synopsys/dwc2/dcd_dwc2.c **** 
 1337              		.loc 1 597 3 is_stmt 1 view .LVU444
 597:lib/tinyusb/src/portable/synopsys/dwc2/dcd_dwc2.c **** 
 1338              		.loc 1 597 24 is_stmt 0 view .LVU445
 1339 011e 1A68     		ldr	r2, [r3]
 597:lib/tinyusb/src/portable/synopsys/dwc2/dcd_dwc2.c **** 
 1340              		.loc 1 597 72 view .LVU446
 1341 0120 22F0D002 		bic	r2, r2, #208
 1342 0124 42F0C002 		orr	r2, r2, #192
 597:lib/tinyusb/src/portable/synopsys/dwc2/dcd_dwc2.c **** 
 1343              		.loc 1 597 17 view .LVU447
 1344 0128 1A60     		str	r2, [r3]
 601:lib/tinyusb/src/portable/synopsys/dwc2/dcd_dwc2.c **** 
 1345              		.loc 1 601 3 is_stmt 1 view .LVU448
 601:lib/tinyusb/src/portable/synopsys/dwc2/dcd_dwc2.c **** 
 1346              		.loc 1 601 14 is_stmt 0 view .LVU449
 1347 012a D3F80028 		ldr	r2, [r3, #2048]
 1348 012e 42F00402 		orr	r2, r2, #4
 1349 0132 C3F80028 		str	r2, [r3, #2048]
 603:lib/tinyusb/src/portable/synopsys/dwc2/dcd_dwc2.c ****   fifo_flush_rx(dwc2);
 1350              		.loc 1 603 3 is_stmt 1 view .LVU450
 1351              	.LVL96:
 1352              	.LBB312:
 1353              	.LBI308:
 115:lib/tinyusb/src/portable/synopsys/dwc2/dcd_dwc2.c ****   // flush TX fifo and wait for it cleared
 1354              		.loc 1 115 42 view .LVU451
 1355              	.LBB310:
 117:lib/tinyusb/src/portable/synopsys/dwc2/dcd_dwc2.c ****   while (dwc2->grstctl & GRSTCTL_TXFFLSH_Msk) {}
 1356              		.loc 1 117 3 view .LVU452
 117:lib/tinyusb/src/portable/synopsys/dwc2/dcd_dwc2.c ****   while (dwc2->grstctl & GRSTCTL_TXFFLSH_Msk) {}
 1357              		.loc 1 117 17 is_stmt 0 view .LVU453
 1358 0136 1861     		str	r0, [r3, #16]
 118:lib/tinyusb/src/portable/synopsys/dwc2/dcd_dwc2.c **** }
 1359              		.loc 1 118 3 is_stmt 1 view .LVU454
 1360              	.L102:
 118:lib/tinyusb/src/portable/synopsys/dwc2/dcd_dwc2.c **** }
 1361              		.loc 1 118 48 view .LVU455
 118:lib/tinyusb/src/portable/synopsys/dwc2/dcd_dwc2.c **** }
 1362              		.loc 1 118 9 view .LVU456
 118:lib/tinyusb/src/portable/synopsys/dwc2/dcd_dwc2.c **** }
 1363              		.loc 1 118 14 is_stmt 0 view .LVU457
 1364 0138 1A69     		ldr	r2, [r3, #16]
 118:lib/tinyusb/src/portable/synopsys/dwc2/dcd_dwc2.c **** }
 1365              		.loc 1 118 9 view .LVU458
 1366 013a 9106     		lsls	r1, r2, #26
 1367 013c FCD4     		bmi	.L102
 1368              	.LVL97:
 118:lib/tinyusb/src/portable/synopsys/dwc2/dcd_dwc2.c **** }
 1369              		.loc 1 118 9 view .LVU459
 1370              	.LBE310:
ARM GAS  /tmp/claude-502/ccFotbfS.s 			page 58


 1371              	.LBE312:
 604:lib/tinyusb/src/portable/synopsys/dwc2/dcd_dwc2.c **** 
 1372              		.loc 1 604 3 is_stmt 1 view .LVU460
 1373              	.LBB313:
 1374              	.LBI313:
 120:lib/tinyusb/src/portable/synopsys/dwc2/dcd_dwc2.c ****   // flush RX fifo and wait for it cleared
 1375              		.loc 1 120 42 view .LVU461
 1376              	.LBB314:
 122:lib/tinyusb/src/portable/synopsys/dwc2/dcd_dwc2.c ****   while (dwc2->grstctl & GRSTCTL_RXFFLSH_Msk) {}
 1377              		.loc 1 122 3 view .LVU462
 122:lib/tinyusb/src/portable/synopsys/dwc2/dcd_dwc2.c ****   while (dwc2->grstctl & GRSTCTL_RXFFLSH_Msk) {}
 1378              		.loc 1 122 17 is_stmt 0 view .LVU463
 1379 013e 1022     		movs	r2, #16
 1380 0140 1A61     		str	r2, [r3, #16]
 123:lib/tinyusb/src/portable/synopsys/dwc2/dcd_dwc2.c **** }
 1381              		.loc 1 123 3 is_stmt 1 view .LVU464
 1382              	.L103:
 123:lib/tinyusb/src/portable/synopsys/dwc2/dcd_dwc2.c **** }
 1383              		.loc 1 123 48 view .LVU465
 123:lib/tinyusb/src/portable/synopsys/dwc2/dcd_dwc2.c **** }
 1384              		.loc 1 123 9 view .LVU466
 123:lib/tinyusb/src/portable/synopsys/dwc2/dcd_dwc2.c **** }
 1385              		.loc 1 123 14 is_stmt 0 view .LVU467
 1386 0142 1A69     		ldr	r2, [r3, #16]
 123:lib/tinyusb/src/portable/synopsys/dwc2/dcd_dwc2.c **** }
 1387              		.loc 1 123 9 view .LVU468
 1388 0144 D206     		lsls	r2, r2, #27
 1389 0146 FCD4     		bmi	.L103
 1390              	.LVL98:
 123:lib/tinyusb/src/portable/synopsys/dwc2/dcd_dwc2.c **** }
 1391              		.loc 1 123 9 view .LVU469
 1392              	.LBE314:
 1393              	.LBE313:
 607:lib/tinyusb/src/portable/synopsys/dwc2/dcd_dwc2.c ****   dwc2->gintsts |= int_mask;
 1394              		.loc 1 607 3 is_stmt 1 view .LVU470
 607:lib/tinyusb/src/portable/synopsys/dwc2/dcd_dwc2.c ****   dwc2->gintsts |= int_mask;
 1395              		.loc 1 607 12 is_stmt 0 view .LVU471
 1396 0148 5869     		ldr	r0, [r3, #20]
 1397              	.LVL99:
 608:lib/tinyusb/src/portable/synopsys/dwc2/dcd_dwc2.c ****   int_mask = dwc2->gotgint;
 1398              		.loc 1 608 3 is_stmt 1 view .LVU472
 608:lib/tinyusb/src/portable/synopsys/dwc2/dcd_dwc2.c ****   int_mask = dwc2->gotgint;
 1399              		.loc 1 608 17 is_stmt 0 view .LVU473
 1400 014a 5A69     		ldr	r2, [r3, #20]
 613:lib/tinyusb/src/portable/synopsys/dwc2/dcd_dwc2.c ****                   GINTMSK_USBSUSPM | GINTMSK_USBRST | GINTMSK_ENUMDNEM | GINTMSK_WUIM;
 1401              		.loc 1 613 17 view .LVU474
 1402 014c 2C49     		ldr	r1, .L130+56
 608:lib/tinyusb/src/portable/synopsys/dwc2/dcd_dwc2.c ****   int_mask = dwc2->gotgint;
 1403              		.loc 1 608 17 view .LVU475
 1404 014e 0243     		orrs	r2, r2, r0
 631:lib/tinyusb/src/portable/synopsys/dwc2/dcd_dwc2.c **** 
 1405              		.loc 1 631 1 view .LVU476
 1406 0150 5DF8044B 		ldr	r4, [sp], #4
 1407              		.cfi_remember_state
 1408              		.cfi_restore 4
 1409              		.cfi_def_cfa_offset 0
 608:lib/tinyusb/src/portable/synopsys/dwc2/dcd_dwc2.c ****   int_mask = dwc2->gotgint;
ARM GAS  /tmp/claude-502/ccFotbfS.s 			page 59


 1410              		.loc 1 608 17 view .LVU477
 1411 0154 5A61     		str	r2, [r3, #20]
 609:lib/tinyusb/src/portable/synopsys/dwc2/dcd_dwc2.c ****   dwc2->gotgint |= int_mask;
 1412              		.loc 1 609 3 is_stmt 1 view .LVU478
 609:lib/tinyusb/src/portable/synopsys/dwc2/dcd_dwc2.c ****   dwc2->gotgint |= int_mask;
 1413              		.loc 1 609 12 is_stmt 0 view .LVU479
 1414 0156 5868     		ldr	r0, [r3, #4]
 1415              	.LVL100:
 610:lib/tinyusb/src/portable/synopsys/dwc2/dcd_dwc2.c **** 
 1416              		.loc 1 610 3 is_stmt 1 view .LVU480
 610:lib/tinyusb/src/portable/synopsys/dwc2/dcd_dwc2.c **** 
 1417              		.loc 1 610 17 is_stmt 0 view .LVU481
 1418 0158 5A68     		ldr	r2, [r3, #4]
 1419 015a 0243     		orrs	r2, r2, r0
 1420 015c 5A60     		str	r2, [r3, #4]
 613:lib/tinyusb/src/portable/synopsys/dwc2/dcd_dwc2.c ****                   GINTMSK_USBSUSPM | GINTMSK_USBRST | GINTMSK_ENUMDNEM | GINTMSK_WUIM;
 1421              		.loc 1 613 3 is_stmt 1 view .LVU482
 613:lib/tinyusb/src/portable/synopsys/dwc2/dcd_dwc2.c ****                   GINTMSK_USBSUSPM | GINTMSK_USBRST | GINTMSK_ENUMDNEM | GINTMSK_WUIM;
 1422              		.loc 1 613 17 is_stmt 0 view .LVU483
 1423 015e 9961     		str	r1, [r3, #24]
 617:lib/tinyusb/src/portable/synopsys/dwc2/dcd_dwc2.c **** 
 1424              		.loc 1 617 3 is_stmt 1 view .LVU484
 617:lib/tinyusb/src/portable/synopsys/dwc2/dcd_dwc2.c **** 
 1425              		.loc 1 617 17 is_stmt 0 view .LVU485
 1426 0160 9A68     		ldr	r2, [r3, #8]
 1427 0162 42F08002 		orr	r2, r2, #128
 1428 0166 9A60     		str	r2, [r3, #8]
 620:lib/tinyusb/src/portable/synopsys/dwc2/dcd_dwc2.c **** 
 1429              		.loc 1 620 3 is_stmt 1 view .LVU486
 620:lib/tinyusb/src/portable/synopsys/dwc2/dcd_dwc2.c **** 
 1430              		.loc 1 620 17 is_stmt 0 view .LVU487
 1431 0168 9A68     		ldr	r2, [r3, #8]
 1432 016a 42F00102 		orr	r2, r2, #1
 1433 016e 9A60     		str	r2, [r3, #8]
 630:lib/tinyusb/src/portable/synopsys/dwc2/dcd_dwc2.c **** }
 1434              		.loc 1 630 3 is_stmt 1 view .LVU488
 1435              	.LVL101:
 1436              	.LBB315:
 1437              	.LBI315:
 667:lib/tinyusb/src/portable/synopsys/dwc2/dcd_dwc2.c ****   (void) rhport;
 1438              		.loc 1 667 6 view .LVU489
 1439              	.LBB316:
 668:lib/tinyusb/src/portable/synopsys/dwc2/dcd_dwc2.c ****   dwc2_regs_t* dwc2 = DWC2_REG(rhport);
 1440              		.loc 1 668 3 view .LVU490
 669:lib/tinyusb/src/portable/synopsys/dwc2/dcd_dwc2.c **** 
 1441              		.loc 1 669 3 view .LVU491
 681:lib/tinyusb/src/portable/synopsys/dwc2/dcd_dwc2.c **** }
 1442              		.loc 1 681 3 view .LVU492
 681:lib/tinyusb/src/portable/synopsys/dwc2/dcd_dwc2.c **** }
 1443              		.loc 1 681 14 is_stmt 0 view .LVU493
 1444 0170 D3F80428 		ldr	r2, [r3, #2052]
 1445 0174 22F00202 		bic	r2, r2, #2
 1446 0178 C3F80428 		str	r2, [r3, #2052]
 1447              	.LVL102:
 681:lib/tinyusb/src/portable/synopsys/dwc2/dcd_dwc2.c **** }
 1448              		.loc 1 681 14 view .LVU494
 1449              	.LBE316:
ARM GAS  /tmp/claude-502/ccFotbfS.s 			page 60


 1450              	.LBE315:
 631:lib/tinyusb/src/portable/synopsys/dwc2/dcd_dwc2.c **** 
 1451              		.loc 1 631 1 view .LVU495
 1452 017c 7047     		bx	lr
 1453              	.LVL103:
 1454              	.L129:
 1455              		.cfi_restore_state
 1456              	.LBB317:
 1457              	.LBB300:
 1458              	.LBB291:
 1459              	.LBB262:
 1460              	.LBB258:
 1461              	.LBI258:
 144:lib/tinyusb/src/portable/synopsys/dwc2/dwc2_stm32.h ****   if (hs_phy_type == HS_PHY_TYPE_NONE) {
 1462              		.loc 4 144 20 is_stmt 1 view .LVU496
 1463              	.LBB259:
 161:lib/tinyusb/src/portable/synopsys/dwc2/dwc2_stm32.h ****     }
 1464              		.loc 4 161 7 view .LVU497
 161:lib/tinyusb/src/portable/synopsys/dwc2/dwc2_stm32.h ****     }
 1465              		.loc 4 161 22 is_stmt 0 view .LVU498
 1466 017e 2149     		ldr	r1, .L130+60
 1467 0180 D1F80021 		ldr	r2, [r1, #256]
 1468 0184 22F08062 		bic	r2, r2, #67108864
 1469 0188 C1F80021 		str	r2, [r1, #256]
 214:lib/tinyusb/src/portable/synopsys/dwc2/dwc2_stm32.h ****   }
 1470              		.loc 4 214 5 is_stmt 1 view .LVU499
 216:lib/tinyusb/src/portable/synopsys/dwc2/dwc2_stm32.h **** 
 1471              		.loc 4 216 1 is_stmt 0 view .LVU500
 1472 018c 5FE7     		b	.L98
 1473              	.LVL104:
 1474              	.L105:
 216:lib/tinyusb/src/portable/synopsys/dwc2/dwc2_stm32.h **** 
 1475              		.loc 4 216 1 view .LVU501
 1476              	.LBE259:
 1477              	.LBE258:
 1478              	.LBE262:
 1479              	.LBE291:
 1480              	.LBB292:
 1481              	.LBB283:
 1482              	.LBB276:
 1483 018e 4FF4E051 		mov	r1, #7168
 1484 0192 A7E7     		b	.L101
 1485              	.LVL105:
 1486              	.L128:
 216:lib/tinyusb/src/portable/synopsys/dwc2/dwc2_stm32.h **** 
 1487              		.loc 4 216 1 view .LVU502
 1488              	.LBE276:
 1489              	.LBE283:
 1490              	.LBE292:
 1491              	.LBB293:
 1492              	.LBB263:
 155:lib/tinyusb/src/portable/synopsys/dwc2/dwc2_stm32.h ****     }
 1493              		.loc 4 155 7 is_stmt 1 view .LVU503
 155:lib/tinyusb/src/portable/synopsys/dwc2/dwc2_stm32.h ****     }
 1494              		.loc 4 155 22 is_stmt 0 view .LVU504
 1495 0194 1B49     		ldr	r1, .L130+60
 1496 0196 D1F80021 		ldr	r2, [r1, #256]
ARM GAS  /tmp/claude-502/ccFotbfS.s 			page 61


 1497 019a 22F08052 		bic	r2, r2, #268435456
 1498 019e C1F80021 		str	r2, [r1, #256]
 160:lib/tinyusb/src/portable/synopsys/dwc2/dwc2_stm32.h ****       RCC->AHB1LPENR &= ~RCC_AHB1LPENR_USB1OTGHSULPILPEN;
 1499              		.loc 4 160 5 is_stmt 1 view .LVU505
 1500 01a2 54E7     		b	.L98
 1501              	.LVL106:
 1502              	.L106:
 160:lib/tinyusb/src/portable/synopsys/dwc2/dwc2_stm32.h ****       RCC->AHB1LPENR &= ~RCC_AHB1LPENR_USB1OTGHSULPILPEN;
 1503              		.loc 4 160 5 is_stmt 0 view .LVU506
 1504              	.LBE263:
 1505              	.LBE293:
 1506              	.LBB294:
 1507              	.LBB284:
 1508              	.LBB277:
 1509 01a4 4FF40051 		mov	r1, #8192
 1510 01a8 9CE7     		b	.L101
 1511              	.L107:
 1512 01aa 4FF41051 		mov	r1, #9216
 1513 01ae 99E7     		b	.L101
 1514              	.L108:
 1515 01b0 4FF42051 		mov	r1, #10240
 1516 01b4 96E7     		b	.L101
 1517              	.L109:
 1518 01b6 4FF43051 		mov	r1, #11264
 1519 01ba 93E7     		b	.L101
 1520              	.L110:
 1521 01bc 4FF44051 		mov	r1, #12288
 1522 01c0 90E7     		b	.L101
 1523              	.L111:
 1524 01c2 4FF45051 		mov	r1, #13312
 1525 01c6 8DE7     		b	.L101
 1526              	.L131:
 1527              		.align	2
 1528              	.L130:
 1529 01c8 00000000 		.word	.LANCHOR0
 1530 01cc 0000FFFF 		.word	-65536
 1531 01d0 00003155 		.word	1429274624
 1532 01d4 0000544F 		.word	1330905088
 1533 01d8 00000840 		.word	1074266112
 1534 01dc 00000440 		.word	1074003968
 1535 01e0 00000000 		.word	SystemCoreClock
 1536 01e4 0048E801 		.word	32000000
 1537 01e8 DF9DA301 		.word	27499999
 1538 01ec 00366E01 		.word	24000000
 1539 01f0 3FA44C01 		.word	21799999
 1540 01f4 80730601 		.word	17200000
 1541 01f8 0024F400 		.word	16000000
 1542 01fc C0E1E400 		.word	15000000
 1543 0200 14380080 		.word	-2147469292
 1544 0204 00440258 		.word	1476543488
 1545              	.LBE277:
 1546              	.LBE284:
 1547              	.LBE294:
 1548              	.LBE300:
 1549              	.LBE317:
 1550              		.cfi_endproc
 1551              	.LFE403:
ARM GAS  /tmp/claude-502/ccFotbfS.s 			page 62


 1553              		.section	.text.dcd_int_enable,"ax",%progbits
 1554              		.align	1
 1555              		.p2align 2,,3
 1556              		.global	dcd_int_enable
 1557              		.syntax unified
 1558              		.thumb
 1559              		.thumb_func
 1561              	dcd_int_enable:
 1562              	.LVL107:
 1563              	.LFB404:
 633:lib/tinyusb/src/portable/synopsys/dwc2/dcd_dwc2.c ****   dwc2_dcd_int_enable(rhport);
 1564              		.loc 1 633 37 is_stmt 1 view -0
 1565              		.cfi_startproc
 1566              		@ args = 0, pretend = 0, frame = 0
 1567              		@ frame_needed = 0, uses_anonymous_args = 0
 1568              		@ link register save eliminated.
 634:lib/tinyusb/src/portable/synopsys/dwc2/dcd_dwc2.c **** }
 1569              		.loc 1 634 3 view .LVU508
 1570              	.LBB318:
 1571              	.LBI318:
 127:lib/tinyusb/src/portable/synopsys/dwc2/dwc2_stm32.h ****   NVIC_EnableIRQ((IRQn_Type) _dwc2_controller[rhport].irqnum);
 1572              		.loc 4 127 42 view .LVU509
 1573              	.LBB319:
 128:lib/tinyusb/src/portable/synopsys/dwc2/dwc2_stm32.h **** }
 1574              		.loc 4 128 3 view .LVU510
 128:lib/tinyusb/src/portable/synopsys/dwc2/dwc2_stm32.h **** }
 1575              		.loc 4 128 54 is_stmt 0 view .LVU511
 1576 0000 084B     		ldr	r3, .L134
 1577 0002 03EB0010 		add	r0, r3, r0, lsl #4
 1578              	.LVL108:
 128:lib/tinyusb/src/portable/synopsys/dwc2/dwc2_stm32.h **** }
 1579              		.loc 4 128 54 view .LVU512
 1580 0006 4268     		ldr	r2, [r0, #4]
 128:lib/tinyusb/src/portable/synopsys/dwc2/dwc2_stm32.h **** }
 1581              		.loc 4 128 3 view .LVU513
 1582 0008 13B2     		sxth	r3, r2
 1583              	.LVL109:
 1584              	.LBB320:
 1585              	.LBI320:
 1586              		.file 5 "/Users/reza.kalfane/Workspaces/Daisy/DaisyExamples/libDaisy/Drivers/CMSIS/Include/core_cm
   1:/Users/reza.kalfane/Workspaces/Daisy/DaisyExamples/libDaisy/Drivers/CMSIS/Include/core_cm7.h **** /**************************************************************************//**
   2:/Users/reza.kalfane/Workspaces/Daisy/DaisyExamples/libDaisy/Drivers/CMSIS/Include/core_cm7.h ****  * @file     core_cm7.h
   3:/Users/reza.kalfane/Workspaces/Daisy/DaisyExamples/libDaisy/Drivers/CMSIS/Include/core_cm7.h ****  * @brief    CMSIS Cortex-M7 Core Peripheral Access Layer Header File
   4:/Users/reza.kalfane/Workspaces/Daisy/DaisyExamples/libDaisy/Drivers/CMSIS/Include/core_cm7.h ****  * @version  V5.0.1
   5:/Users/reza.kalfane/Workspaces/Daisy/DaisyExamples/libDaisy/Drivers/CMSIS/Include/core_cm7.h ****  * @date     25. November 2016
   6:/Users/reza.kalfane/Workspaces/Daisy/DaisyExamples/libDaisy/Drivers/CMSIS/Include/core_cm7.h ****  ******************************************************************************/
   7:/Users/reza.kalfane/Workspaces/Daisy/DaisyExamples/libDaisy/Drivers/CMSIS/Include/core_cm7.h **** /*
   8:/Users/reza.kalfane/Workspaces/Daisy/DaisyExamples/libDaisy/Drivers/CMSIS/Include/core_cm7.h ****  * Copyright (c) 2009-2016 ARM Limited. All rights reserved.
   9:/Users/reza.kalfane/Workspaces/Daisy/DaisyExamples/libDaisy/Drivers/CMSIS/Include/core_cm7.h ****  *
  10:/Users/reza.kalfane/Workspaces/Daisy/DaisyExamples/libDaisy/Drivers/CMSIS/Include/core_cm7.h ****  * SPDX-License-Identifier: Apache-2.0
  11:/Users/reza.kalfane/Workspaces/Daisy/DaisyExamples/libDaisy/Drivers/CMSIS/Include/core_cm7.h ****  *
  12:/Users/reza.kalfane/Workspaces/Daisy/DaisyExamples/libDaisy/Drivers/CMSIS/Include/core_cm7.h ****  * Licensed under the Apache License, Version 2.0 (the License); you may
  13:/Users/reza.kalfane/Workspaces/Daisy/DaisyExamples/libDaisy/Drivers/CMSIS/Include/core_cm7.h ****  * not use this file except in compliance with the License.
  14:/Users/reza.kalfane/Workspaces/Daisy/DaisyExamples/libDaisy/Drivers/CMSIS/Include/core_cm7.h ****  * You may obtain a copy of the License at
  15:/Users/reza.kalfane/Workspaces/Daisy/DaisyExamples/libDaisy/Drivers/CMSIS/Include/core_cm7.h ****  *
  16:/Users/reza.kalfane/Workspaces/Daisy/DaisyExamples/libDaisy/Drivers/CMSIS/Include/core_cm7.h ****  * www.apache.org/licenses/LICENSE-2.0
  17:/Users/reza.kalfane/Workspaces/Daisy/DaisyExamples/libDaisy/Drivers/CMSIS/Include/core_cm7.h ****  *
ARM GAS  /tmp/claude-502/ccFotbfS.s 			page 63


  18:/Users/reza.kalfane/Workspaces/Daisy/DaisyExamples/libDaisy/Drivers/CMSIS/Include/core_cm7.h ****  * Unless required by applicable law or agreed to in writing, software
  19:/Users/reza.kalfane/Workspaces/Daisy/DaisyExamples/libDaisy/Drivers/CMSIS/Include/core_cm7.h ****  * distributed under the License is distributed on an AS IS BASIS, WITHOUT
  20:/Users/reza.kalfane/Workspaces/Daisy/DaisyExamples/libDaisy/Drivers/CMSIS/Include/core_cm7.h ****  * WARRANTIES OR CONDITIONS OF ANY KIND, either express or implied.
  21:/Users/reza.kalfane/Workspaces/Daisy/DaisyExamples/libDaisy/Drivers/CMSIS/Include/core_cm7.h ****  * See the License for the specific language governing permissions and
  22:/Users/reza.kalfane/Workspaces/Daisy/DaisyExamples/libDaisy/Drivers/CMSIS/Include/core_cm7.h ****  * limitations under the License.
  23:/Users/reza.kalfane/Workspaces/Daisy/DaisyExamples/libDaisy/Drivers/CMSIS/Include/core_cm7.h ****  */
  24:/Users/reza.kalfane/Workspaces/Daisy/DaisyExamples/libDaisy/Drivers/CMSIS/Include/core_cm7.h **** 
  25:/Users/reza.kalfane/Workspaces/Daisy/DaisyExamples/libDaisy/Drivers/CMSIS/Include/core_cm7.h **** #if   defined ( __ICCARM__ )
  26:/Users/reza.kalfane/Workspaces/Daisy/DaisyExamples/libDaisy/Drivers/CMSIS/Include/core_cm7.h ****  #pragma system_include         /* treat file as system include file for MISRA check */
  27:/Users/reza.kalfane/Workspaces/Daisy/DaisyExamples/libDaisy/Drivers/CMSIS/Include/core_cm7.h **** #elif defined (__ARMCC_VERSION) && (__ARMCC_VERSION >= 6010050)
  28:/Users/reza.kalfane/Workspaces/Daisy/DaisyExamples/libDaisy/Drivers/CMSIS/Include/core_cm7.h ****   #pragma clang system_header   /* treat file as system include file */
  29:/Users/reza.kalfane/Workspaces/Daisy/DaisyExamples/libDaisy/Drivers/CMSIS/Include/core_cm7.h **** #endif
  30:/Users/reza.kalfane/Workspaces/Daisy/DaisyExamples/libDaisy/Drivers/CMSIS/Include/core_cm7.h **** 
  31:/Users/reza.kalfane/Workspaces/Daisy/DaisyExamples/libDaisy/Drivers/CMSIS/Include/core_cm7.h **** #ifndef __CORE_CM7_H_GENERIC
  32:/Users/reza.kalfane/Workspaces/Daisy/DaisyExamples/libDaisy/Drivers/CMSIS/Include/core_cm7.h **** #define __CORE_CM7_H_GENERIC
  33:/Users/reza.kalfane/Workspaces/Daisy/DaisyExamples/libDaisy/Drivers/CMSIS/Include/core_cm7.h **** 
  34:/Users/reza.kalfane/Workspaces/Daisy/DaisyExamples/libDaisy/Drivers/CMSIS/Include/core_cm7.h **** #include <stdint.h>
  35:/Users/reza.kalfane/Workspaces/Daisy/DaisyExamples/libDaisy/Drivers/CMSIS/Include/core_cm7.h **** 
  36:/Users/reza.kalfane/Workspaces/Daisy/DaisyExamples/libDaisy/Drivers/CMSIS/Include/core_cm7.h **** #ifdef __cplusplus
  37:/Users/reza.kalfane/Workspaces/Daisy/DaisyExamples/libDaisy/Drivers/CMSIS/Include/core_cm7.h ****  extern "C" {
  38:/Users/reza.kalfane/Workspaces/Daisy/DaisyExamples/libDaisy/Drivers/CMSIS/Include/core_cm7.h **** #endif
  39:/Users/reza.kalfane/Workspaces/Daisy/DaisyExamples/libDaisy/Drivers/CMSIS/Include/core_cm7.h **** 
  40:/Users/reza.kalfane/Workspaces/Daisy/DaisyExamples/libDaisy/Drivers/CMSIS/Include/core_cm7.h **** /**
  41:/Users/reza.kalfane/Workspaces/Daisy/DaisyExamples/libDaisy/Drivers/CMSIS/Include/core_cm7.h ****   \page CMSIS_MISRA_Exceptions  MISRA-C:2004 Compliance Exceptions
  42:/Users/reza.kalfane/Workspaces/Daisy/DaisyExamples/libDaisy/Drivers/CMSIS/Include/core_cm7.h ****   CMSIS violates the following MISRA-C:2004 rules:
  43:/Users/reza.kalfane/Workspaces/Daisy/DaisyExamples/libDaisy/Drivers/CMSIS/Include/core_cm7.h **** 
  44:/Users/reza.kalfane/Workspaces/Daisy/DaisyExamples/libDaisy/Drivers/CMSIS/Include/core_cm7.h ****    \li Required Rule 8.5, object/function definition in header file.<br>
  45:/Users/reza.kalfane/Workspaces/Daisy/DaisyExamples/libDaisy/Drivers/CMSIS/Include/core_cm7.h ****      Function definitions in header files are used to allow 'inlining'.
  46:/Users/reza.kalfane/Workspaces/Daisy/DaisyExamples/libDaisy/Drivers/CMSIS/Include/core_cm7.h **** 
  47:/Users/reza.kalfane/Workspaces/Daisy/DaisyExamples/libDaisy/Drivers/CMSIS/Include/core_cm7.h ****    \li Required Rule 18.4, declaration of union type or object of union type: '{...}'.<br>
  48:/Users/reza.kalfane/Workspaces/Daisy/DaisyExamples/libDaisy/Drivers/CMSIS/Include/core_cm7.h ****      Unions are used for effective representation of core registers.
  49:/Users/reza.kalfane/Workspaces/Daisy/DaisyExamples/libDaisy/Drivers/CMSIS/Include/core_cm7.h **** 
  50:/Users/reza.kalfane/Workspaces/Daisy/DaisyExamples/libDaisy/Drivers/CMSIS/Include/core_cm7.h ****    \li Advisory Rule 19.7, Function-like macro defined.<br>
  51:/Users/reza.kalfane/Workspaces/Daisy/DaisyExamples/libDaisy/Drivers/CMSIS/Include/core_cm7.h ****      Function-like macros are used to allow more efficient code.
  52:/Users/reza.kalfane/Workspaces/Daisy/DaisyExamples/libDaisy/Drivers/CMSIS/Include/core_cm7.h ****  */
  53:/Users/reza.kalfane/Workspaces/Daisy/DaisyExamples/libDaisy/Drivers/CMSIS/Include/core_cm7.h **** 
  54:/Users/reza.kalfane/Workspaces/Daisy/DaisyExamples/libDaisy/Drivers/CMSIS/Include/core_cm7.h **** 
  55:/Users/reza.kalfane/Workspaces/Daisy/DaisyExamples/libDaisy/Drivers/CMSIS/Include/core_cm7.h **** /*******************************************************************************
  56:/Users/reza.kalfane/Workspaces/Daisy/DaisyExamples/libDaisy/Drivers/CMSIS/Include/core_cm7.h ****  *                 CMSIS definitions
  57:/Users/reza.kalfane/Workspaces/Daisy/DaisyExamples/libDaisy/Drivers/CMSIS/Include/core_cm7.h ****  ******************************************************************************/
  58:/Users/reza.kalfane/Workspaces/Daisy/DaisyExamples/libDaisy/Drivers/CMSIS/Include/core_cm7.h **** /**
  59:/Users/reza.kalfane/Workspaces/Daisy/DaisyExamples/libDaisy/Drivers/CMSIS/Include/core_cm7.h ****   \ingroup Cortex_M7
  60:/Users/reza.kalfane/Workspaces/Daisy/DaisyExamples/libDaisy/Drivers/CMSIS/Include/core_cm7.h ****   @{
  61:/Users/reza.kalfane/Workspaces/Daisy/DaisyExamples/libDaisy/Drivers/CMSIS/Include/core_cm7.h ****  */
  62:/Users/reza.kalfane/Workspaces/Daisy/DaisyExamples/libDaisy/Drivers/CMSIS/Include/core_cm7.h **** 
  63:/Users/reza.kalfane/Workspaces/Daisy/DaisyExamples/libDaisy/Drivers/CMSIS/Include/core_cm7.h **** /*  CMSIS CM7 definitions */
  64:/Users/reza.kalfane/Workspaces/Daisy/DaisyExamples/libDaisy/Drivers/CMSIS/Include/core_cm7.h **** #define __CM7_CMSIS_VERSION_MAIN  ( 5U)                                      /*!< [31:16] CMSIS HAL
  65:/Users/reza.kalfane/Workspaces/Daisy/DaisyExamples/libDaisy/Drivers/CMSIS/Include/core_cm7.h **** #define __CM7_CMSIS_VERSION_SUB   ( 0U)                                      /*!< [15:0]  CMSIS HAL
  66:/Users/reza.kalfane/Workspaces/Daisy/DaisyExamples/libDaisy/Drivers/CMSIS/Include/core_cm7.h **** #define __CM7_CMSIS_VERSION       ((__CM7_CMSIS_VERSION_MAIN << 16U) | \
  67:/Users/reza.kalfane/Workspaces/Daisy/DaisyExamples/libDaisy/Drivers/CMSIS/Include/core_cm7.h ****                                     __CM7_CMSIS_VERSION_SUB           )      /*!< CMSIS HAL version
  68:/Users/reza.kalfane/Workspaces/Daisy/DaisyExamples/libDaisy/Drivers/CMSIS/Include/core_cm7.h **** 
  69:/Users/reza.kalfane/Workspaces/Daisy/DaisyExamples/libDaisy/Drivers/CMSIS/Include/core_cm7.h **** #define __CORTEX_M                (7U)                                       /*!< Cortex-M Core */
  70:/Users/reza.kalfane/Workspaces/Daisy/DaisyExamples/libDaisy/Drivers/CMSIS/Include/core_cm7.h **** 
  71:/Users/reza.kalfane/Workspaces/Daisy/DaisyExamples/libDaisy/Drivers/CMSIS/Include/core_cm7.h **** /** __FPU_USED indicates whether an FPU is used or not.
  72:/Users/reza.kalfane/Workspaces/Daisy/DaisyExamples/libDaisy/Drivers/CMSIS/Include/core_cm7.h ****     For this, __FPU_PRESENT has to be checked prior to making use of FPU specific registers and fun
  73:/Users/reza.kalfane/Workspaces/Daisy/DaisyExamples/libDaisy/Drivers/CMSIS/Include/core_cm7.h **** */
  74:/Users/reza.kalfane/Workspaces/Daisy/DaisyExamples/libDaisy/Drivers/CMSIS/Include/core_cm7.h **** #if defined ( __CC_ARM )
ARM GAS  /tmp/claude-502/ccFotbfS.s 			page 64


  75:/Users/reza.kalfane/Workspaces/Daisy/DaisyExamples/libDaisy/Drivers/CMSIS/Include/core_cm7.h ****   #if defined __TARGET_FPU_VFP
  76:/Users/reza.kalfane/Workspaces/Daisy/DaisyExamples/libDaisy/Drivers/CMSIS/Include/core_cm7.h ****     #if defined (__FPU_PRESENT) && (__FPU_PRESENT == 1U)
  77:/Users/reza.kalfane/Workspaces/Daisy/DaisyExamples/libDaisy/Drivers/CMSIS/Include/core_cm7.h ****       #define __FPU_USED       1U
  78:/Users/reza.kalfane/Workspaces/Daisy/DaisyExamples/libDaisy/Drivers/CMSIS/Include/core_cm7.h ****     #else
  79:/Users/reza.kalfane/Workspaces/Daisy/DaisyExamples/libDaisy/Drivers/CMSIS/Include/core_cm7.h ****       #error "Compiler generates FPU instructions for a device without an FPU (check __FPU_PRESENT)
  80:/Users/reza.kalfane/Workspaces/Daisy/DaisyExamples/libDaisy/Drivers/CMSIS/Include/core_cm7.h ****       #define __FPU_USED       0U
  81:/Users/reza.kalfane/Workspaces/Daisy/DaisyExamples/libDaisy/Drivers/CMSIS/Include/core_cm7.h ****     #endif
  82:/Users/reza.kalfane/Workspaces/Daisy/DaisyExamples/libDaisy/Drivers/CMSIS/Include/core_cm7.h ****   #else
  83:/Users/reza.kalfane/Workspaces/Daisy/DaisyExamples/libDaisy/Drivers/CMSIS/Include/core_cm7.h ****     #define __FPU_USED         0U
  84:/Users/reza.kalfane/Workspaces/Daisy/DaisyExamples/libDaisy/Drivers/CMSIS/Include/core_cm7.h ****   #endif
  85:/Users/reza.kalfane/Workspaces/Daisy/DaisyExamples/libDaisy/Drivers/CMSIS/Include/core_cm7.h **** 
  86:/Users/reza.kalfane/Workspaces/Daisy/DaisyExamples/libDaisy/Drivers/CMSIS/Include/core_cm7.h **** #elif defined (__ARMCC_VERSION) && (__ARMCC_VERSION >= 6010050)
  87:/Users/reza.kalfane/Workspaces/Daisy/DaisyExamples/libDaisy/Drivers/CMSIS/Include/core_cm7.h ****   #if defined __ARM_PCS_VFP
  88:/Users/reza.kalfane/Workspaces/Daisy/DaisyExamples/libDaisy/Drivers/CMSIS/Include/core_cm7.h ****     #if defined (__FPU_PRESENT) && (__FPU_PRESENT == 1U)
  89:/Users/reza.kalfane/Workspaces/Daisy/DaisyExamples/libDaisy/Drivers/CMSIS/Include/core_cm7.h ****       #define __FPU_USED       1U
  90:/Users/reza.kalfane/Workspaces/Daisy/DaisyExamples/libDaisy/Drivers/CMSIS/Include/core_cm7.h ****     #else
  91:/Users/reza.kalfane/Workspaces/Daisy/DaisyExamples/libDaisy/Drivers/CMSIS/Include/core_cm7.h ****       #warning "Compiler generates FPU instructions for a device without an FPU (check __FPU_PRESEN
  92:/Users/reza.kalfane/Workspaces/Daisy/DaisyExamples/libDaisy/Drivers/CMSIS/Include/core_cm7.h ****       #define __FPU_USED       0U
  93:/Users/reza.kalfane/Workspaces/Daisy/DaisyExamples/libDaisy/Drivers/CMSIS/Include/core_cm7.h ****     #endif
  94:/Users/reza.kalfane/Workspaces/Daisy/DaisyExamples/libDaisy/Drivers/CMSIS/Include/core_cm7.h ****   #else
  95:/Users/reza.kalfane/Workspaces/Daisy/DaisyExamples/libDaisy/Drivers/CMSIS/Include/core_cm7.h ****     #define __FPU_USED         0U
  96:/Users/reza.kalfane/Workspaces/Daisy/DaisyExamples/libDaisy/Drivers/CMSIS/Include/core_cm7.h ****   #endif
  97:/Users/reza.kalfane/Workspaces/Daisy/DaisyExamples/libDaisy/Drivers/CMSIS/Include/core_cm7.h **** 
  98:/Users/reza.kalfane/Workspaces/Daisy/DaisyExamples/libDaisy/Drivers/CMSIS/Include/core_cm7.h **** #elif defined ( __GNUC__ )
  99:/Users/reza.kalfane/Workspaces/Daisy/DaisyExamples/libDaisy/Drivers/CMSIS/Include/core_cm7.h ****   #if defined (__VFP_FP__) && !defined(__SOFTFP__)
 100:/Users/reza.kalfane/Workspaces/Daisy/DaisyExamples/libDaisy/Drivers/CMSIS/Include/core_cm7.h ****     #if defined (__FPU_PRESENT) && (__FPU_PRESENT == 1U)
 101:/Users/reza.kalfane/Workspaces/Daisy/DaisyExamples/libDaisy/Drivers/CMSIS/Include/core_cm7.h ****       #define __FPU_USED       1U
 102:/Users/reza.kalfane/Workspaces/Daisy/DaisyExamples/libDaisy/Drivers/CMSIS/Include/core_cm7.h ****     #else
 103:/Users/reza.kalfane/Workspaces/Daisy/DaisyExamples/libDaisy/Drivers/CMSIS/Include/core_cm7.h ****       #error "Compiler generates FPU instructions for a device without an FPU (check __FPU_PRESENT)
 104:/Users/reza.kalfane/Workspaces/Daisy/DaisyExamples/libDaisy/Drivers/CMSIS/Include/core_cm7.h ****       #define __FPU_USED       0U
 105:/Users/reza.kalfane/Workspaces/Daisy/DaisyExamples/libDaisy/Drivers/CMSIS/Include/core_cm7.h ****     #endif
 106:/Users/reza.kalfane/Workspaces/Daisy/DaisyExamples/libDaisy/Drivers/CMSIS/Include/core_cm7.h ****   #else
 107:/Users/reza.kalfane/Workspaces/Daisy/DaisyExamples/libDaisy/Drivers/CMSIS/Include/core_cm7.h ****     #define __FPU_USED         0U
 108:/Users/reza.kalfane/Workspaces/Daisy/DaisyExamples/libDaisy/Drivers/CMSIS/Include/core_cm7.h ****   #endif
 109:/Users/reza.kalfane/Workspaces/Daisy/DaisyExamples/libDaisy/Drivers/CMSIS/Include/core_cm7.h **** 
 110:/Users/reza.kalfane/Workspaces/Daisy/DaisyExamples/libDaisy/Drivers/CMSIS/Include/core_cm7.h **** #elif defined ( __ICCARM__ )
 111:/Users/reza.kalfane/Workspaces/Daisy/DaisyExamples/libDaisy/Drivers/CMSIS/Include/core_cm7.h ****   #if defined __ARMVFP__
 112:/Users/reza.kalfane/Workspaces/Daisy/DaisyExamples/libDaisy/Drivers/CMSIS/Include/core_cm7.h ****     #if defined (__FPU_PRESENT) && (__FPU_PRESENT == 1U)
 113:/Users/reza.kalfane/Workspaces/Daisy/DaisyExamples/libDaisy/Drivers/CMSIS/Include/core_cm7.h ****       #define __FPU_USED       1U
 114:/Users/reza.kalfane/Workspaces/Daisy/DaisyExamples/libDaisy/Drivers/CMSIS/Include/core_cm7.h ****     #else
 115:/Users/reza.kalfane/Workspaces/Daisy/DaisyExamples/libDaisy/Drivers/CMSIS/Include/core_cm7.h ****       #error "Compiler generates FPU instructions for a device without an FPU (check __FPU_PRESENT)
 116:/Users/reza.kalfane/Workspaces/Daisy/DaisyExamples/libDaisy/Drivers/CMSIS/Include/core_cm7.h ****       #define __FPU_USED       0U
 117:/Users/reza.kalfane/Workspaces/Daisy/DaisyExamples/libDaisy/Drivers/CMSIS/Include/core_cm7.h ****     #endif
 118:/Users/reza.kalfane/Workspaces/Daisy/DaisyExamples/libDaisy/Drivers/CMSIS/Include/core_cm7.h ****   #else
 119:/Users/reza.kalfane/Workspaces/Daisy/DaisyExamples/libDaisy/Drivers/CMSIS/Include/core_cm7.h ****     #define __FPU_USED         0U
 120:/Users/reza.kalfane/Workspaces/Daisy/DaisyExamples/libDaisy/Drivers/CMSIS/Include/core_cm7.h ****   #endif
 121:/Users/reza.kalfane/Workspaces/Daisy/DaisyExamples/libDaisy/Drivers/CMSIS/Include/core_cm7.h **** 
 122:/Users/reza.kalfane/Workspaces/Daisy/DaisyExamples/libDaisy/Drivers/CMSIS/Include/core_cm7.h **** #elif defined ( __TI_ARM__ )
 123:/Users/reza.kalfane/Workspaces/Daisy/DaisyExamples/libDaisy/Drivers/CMSIS/Include/core_cm7.h ****   #if defined __TI_VFP_SUPPORT__
 124:/Users/reza.kalfane/Workspaces/Daisy/DaisyExamples/libDaisy/Drivers/CMSIS/Include/core_cm7.h ****     #if defined (__FPU_PRESENT) && (__FPU_PRESENT == 1U)
 125:/Users/reza.kalfane/Workspaces/Daisy/DaisyExamples/libDaisy/Drivers/CMSIS/Include/core_cm7.h ****       #define __FPU_USED       1U
 126:/Users/reza.kalfane/Workspaces/Daisy/DaisyExamples/libDaisy/Drivers/CMSIS/Include/core_cm7.h ****     #else
 127:/Users/reza.kalfane/Workspaces/Daisy/DaisyExamples/libDaisy/Drivers/CMSIS/Include/core_cm7.h ****       #error "Compiler generates FPU instructions for a device without an FPU (check __FPU_PRESENT)
 128:/Users/reza.kalfane/Workspaces/Daisy/DaisyExamples/libDaisy/Drivers/CMSIS/Include/core_cm7.h ****       #define __FPU_USED       0U
 129:/Users/reza.kalfane/Workspaces/Daisy/DaisyExamples/libDaisy/Drivers/CMSIS/Include/core_cm7.h ****     #endif
 130:/Users/reza.kalfane/Workspaces/Daisy/DaisyExamples/libDaisy/Drivers/CMSIS/Include/core_cm7.h ****   #else
 131:/Users/reza.kalfane/Workspaces/Daisy/DaisyExamples/libDaisy/Drivers/CMSIS/Include/core_cm7.h ****     #define __FPU_USED         0U
ARM GAS  /tmp/claude-502/ccFotbfS.s 			page 65


 132:/Users/reza.kalfane/Workspaces/Daisy/DaisyExamples/libDaisy/Drivers/CMSIS/Include/core_cm7.h ****   #endif
 133:/Users/reza.kalfane/Workspaces/Daisy/DaisyExamples/libDaisy/Drivers/CMSIS/Include/core_cm7.h **** 
 134:/Users/reza.kalfane/Workspaces/Daisy/DaisyExamples/libDaisy/Drivers/CMSIS/Include/core_cm7.h **** #elif defined ( __TASKING__ )
 135:/Users/reza.kalfane/Workspaces/Daisy/DaisyExamples/libDaisy/Drivers/CMSIS/Include/core_cm7.h ****   #if defined __FPU_VFP__
 136:/Users/reza.kalfane/Workspaces/Daisy/DaisyExamples/libDaisy/Drivers/CMSIS/Include/core_cm7.h ****     #if defined (__FPU_PRESENT) && (__FPU_PRESENT == 1U)
 137:/Users/reza.kalfane/Workspaces/Daisy/DaisyExamples/libDaisy/Drivers/CMSIS/Include/core_cm7.h ****       #define __FPU_USED       1U
 138:/Users/reza.kalfane/Workspaces/Daisy/DaisyExamples/libDaisy/Drivers/CMSIS/Include/core_cm7.h ****     #else
 139:/Users/reza.kalfane/Workspaces/Daisy/DaisyExamples/libDaisy/Drivers/CMSIS/Include/core_cm7.h ****       #error "Compiler generates FPU instructions for a device without an FPU (check __FPU_PRESENT)
 140:/Users/reza.kalfane/Workspaces/Daisy/DaisyExamples/libDaisy/Drivers/CMSIS/Include/core_cm7.h ****       #define __FPU_USED       0U
 141:/Users/reza.kalfane/Workspaces/Daisy/DaisyExamples/libDaisy/Drivers/CMSIS/Include/core_cm7.h ****     #endif
 142:/Users/reza.kalfane/Workspaces/Daisy/DaisyExamples/libDaisy/Drivers/CMSIS/Include/core_cm7.h ****   #else
 143:/Users/reza.kalfane/Workspaces/Daisy/DaisyExamples/libDaisy/Drivers/CMSIS/Include/core_cm7.h ****     #define __FPU_USED         0U
 144:/Users/reza.kalfane/Workspaces/Daisy/DaisyExamples/libDaisy/Drivers/CMSIS/Include/core_cm7.h ****   #endif
 145:/Users/reza.kalfane/Workspaces/Daisy/DaisyExamples/libDaisy/Drivers/CMSIS/Include/core_cm7.h **** 
 146:/Users/reza.kalfane/Workspaces/Daisy/DaisyExamples/libDaisy/Drivers/CMSIS/Include/core_cm7.h **** #elif defined ( __CSMC__ )
 147:/Users/reza.kalfane/Workspaces/Daisy/DaisyExamples/libDaisy/Drivers/CMSIS/Include/core_cm7.h ****   #if ( __CSMC__ & 0x400U)
 148:/Users/reza.kalfane/Workspaces/Daisy/DaisyExamples/libDaisy/Drivers/CMSIS/Include/core_cm7.h ****     #if defined (__FPU_PRESENT) && (__FPU_PRESENT == 1U)
 149:/Users/reza.kalfane/Workspaces/Daisy/DaisyExamples/libDaisy/Drivers/CMSIS/Include/core_cm7.h ****       #define __FPU_USED       1U
 150:/Users/reza.kalfane/Workspaces/Daisy/DaisyExamples/libDaisy/Drivers/CMSIS/Include/core_cm7.h ****     #else
 151:/Users/reza.kalfane/Workspaces/Daisy/DaisyExamples/libDaisy/Drivers/CMSIS/Include/core_cm7.h ****       #error "Compiler generates FPU instructions for a device without an FPU (check __FPU_PRESENT)
 152:/Users/reza.kalfane/Workspaces/Daisy/DaisyExamples/libDaisy/Drivers/CMSIS/Include/core_cm7.h ****       #define __FPU_USED       0U
 153:/Users/reza.kalfane/Workspaces/Daisy/DaisyExamples/libDaisy/Drivers/CMSIS/Include/core_cm7.h ****     #endif
 154:/Users/reza.kalfane/Workspaces/Daisy/DaisyExamples/libDaisy/Drivers/CMSIS/Include/core_cm7.h ****   #else
 155:/Users/reza.kalfane/Workspaces/Daisy/DaisyExamples/libDaisy/Drivers/CMSIS/Include/core_cm7.h ****     #define __FPU_USED         0U
 156:/Users/reza.kalfane/Workspaces/Daisy/DaisyExamples/libDaisy/Drivers/CMSIS/Include/core_cm7.h ****   #endif
 157:/Users/reza.kalfane/Workspaces/Daisy/DaisyExamples/libDaisy/Drivers/CMSIS/Include/core_cm7.h **** 
 158:/Users/reza.kalfane/Workspaces/Daisy/DaisyExamples/libDaisy/Drivers/CMSIS/Include/core_cm7.h **** #endif
 159:/Users/reza.kalfane/Workspaces/Daisy/DaisyExamples/libDaisy/Drivers/CMSIS/Include/core_cm7.h **** 
 160:/Users/reza.kalfane/Workspaces/Daisy/DaisyExamples/libDaisy/Drivers/CMSIS/Include/core_cm7.h **** #include "cmsis_compiler.h"               /* CMSIS compiler specific defines */
 161:/Users/reza.kalfane/Workspaces/Daisy/DaisyExamples/libDaisy/Drivers/CMSIS/Include/core_cm7.h **** 
 162:/Users/reza.kalfane/Workspaces/Daisy/DaisyExamples/libDaisy/Drivers/CMSIS/Include/core_cm7.h **** 
 163:/Users/reza.kalfane/Workspaces/Daisy/DaisyExamples/libDaisy/Drivers/CMSIS/Include/core_cm7.h **** #ifdef __cplusplus
 164:/Users/reza.kalfane/Workspaces/Daisy/DaisyExamples/libDaisy/Drivers/CMSIS/Include/core_cm7.h **** }
 165:/Users/reza.kalfane/Workspaces/Daisy/DaisyExamples/libDaisy/Drivers/CMSIS/Include/core_cm7.h **** #endif
 166:/Users/reza.kalfane/Workspaces/Daisy/DaisyExamples/libDaisy/Drivers/CMSIS/Include/core_cm7.h **** 
 167:/Users/reza.kalfane/Workspaces/Daisy/DaisyExamples/libDaisy/Drivers/CMSIS/Include/core_cm7.h **** #endif /* __CORE_CM7_H_GENERIC */
 168:/Users/reza.kalfane/Workspaces/Daisy/DaisyExamples/libDaisy/Drivers/CMSIS/Include/core_cm7.h **** 
 169:/Users/reza.kalfane/Workspaces/Daisy/DaisyExamples/libDaisy/Drivers/CMSIS/Include/core_cm7.h **** #ifndef __CMSIS_GENERIC
 170:/Users/reza.kalfane/Workspaces/Daisy/DaisyExamples/libDaisy/Drivers/CMSIS/Include/core_cm7.h **** 
 171:/Users/reza.kalfane/Workspaces/Daisy/DaisyExamples/libDaisy/Drivers/CMSIS/Include/core_cm7.h **** #ifndef __CORE_CM7_H_DEPENDANT
 172:/Users/reza.kalfane/Workspaces/Daisy/DaisyExamples/libDaisy/Drivers/CMSIS/Include/core_cm7.h **** #define __CORE_CM7_H_DEPENDANT
 173:/Users/reza.kalfane/Workspaces/Daisy/DaisyExamples/libDaisy/Drivers/CMSIS/Include/core_cm7.h **** 
 174:/Users/reza.kalfane/Workspaces/Daisy/DaisyExamples/libDaisy/Drivers/CMSIS/Include/core_cm7.h **** #ifdef __cplusplus
 175:/Users/reza.kalfane/Workspaces/Daisy/DaisyExamples/libDaisy/Drivers/CMSIS/Include/core_cm7.h ****  extern "C" {
 176:/Users/reza.kalfane/Workspaces/Daisy/DaisyExamples/libDaisy/Drivers/CMSIS/Include/core_cm7.h **** #endif
 177:/Users/reza.kalfane/Workspaces/Daisy/DaisyExamples/libDaisy/Drivers/CMSIS/Include/core_cm7.h **** 
 178:/Users/reza.kalfane/Workspaces/Daisy/DaisyExamples/libDaisy/Drivers/CMSIS/Include/core_cm7.h **** /* check device defines and use defaults */
 179:/Users/reza.kalfane/Workspaces/Daisy/DaisyExamples/libDaisy/Drivers/CMSIS/Include/core_cm7.h **** #if defined __CHECK_DEVICE_DEFINES
 180:/Users/reza.kalfane/Workspaces/Daisy/DaisyExamples/libDaisy/Drivers/CMSIS/Include/core_cm7.h ****   #ifndef __CM7_REV
 181:/Users/reza.kalfane/Workspaces/Daisy/DaisyExamples/libDaisy/Drivers/CMSIS/Include/core_cm7.h ****     #define __CM7_REV               0x0000U
 182:/Users/reza.kalfane/Workspaces/Daisy/DaisyExamples/libDaisy/Drivers/CMSIS/Include/core_cm7.h ****     #warning "__CM7_REV not defined in device header file; using default!"
 183:/Users/reza.kalfane/Workspaces/Daisy/DaisyExamples/libDaisy/Drivers/CMSIS/Include/core_cm7.h ****   #endif
 184:/Users/reza.kalfane/Workspaces/Daisy/DaisyExamples/libDaisy/Drivers/CMSIS/Include/core_cm7.h **** 
 185:/Users/reza.kalfane/Workspaces/Daisy/DaisyExamples/libDaisy/Drivers/CMSIS/Include/core_cm7.h ****   #ifndef __FPU_PRESENT
 186:/Users/reza.kalfane/Workspaces/Daisy/DaisyExamples/libDaisy/Drivers/CMSIS/Include/core_cm7.h ****     #define __FPU_PRESENT             0U
 187:/Users/reza.kalfane/Workspaces/Daisy/DaisyExamples/libDaisy/Drivers/CMSIS/Include/core_cm7.h ****     #warning "__FPU_PRESENT not defined in device header file; using default!"
 188:/Users/reza.kalfane/Workspaces/Daisy/DaisyExamples/libDaisy/Drivers/CMSIS/Include/core_cm7.h ****   #endif
ARM GAS  /tmp/claude-502/ccFotbfS.s 			page 66


 189:/Users/reza.kalfane/Workspaces/Daisy/DaisyExamples/libDaisy/Drivers/CMSIS/Include/core_cm7.h **** 
 190:/Users/reza.kalfane/Workspaces/Daisy/DaisyExamples/libDaisy/Drivers/CMSIS/Include/core_cm7.h ****   #ifndef __MPU_PRESENT
 191:/Users/reza.kalfane/Workspaces/Daisy/DaisyExamples/libDaisy/Drivers/CMSIS/Include/core_cm7.h ****     #define __MPU_PRESENT             0U
 192:/Users/reza.kalfane/Workspaces/Daisy/DaisyExamples/libDaisy/Drivers/CMSIS/Include/core_cm7.h ****     #warning "__MPU_PRESENT not defined in device header file; using default!"
 193:/Users/reza.kalfane/Workspaces/Daisy/DaisyExamples/libDaisy/Drivers/CMSIS/Include/core_cm7.h ****   #endif
 194:/Users/reza.kalfane/Workspaces/Daisy/DaisyExamples/libDaisy/Drivers/CMSIS/Include/core_cm7.h **** 
 195:/Users/reza.kalfane/Workspaces/Daisy/DaisyExamples/libDaisy/Drivers/CMSIS/Include/core_cm7.h ****   #ifndef __ICACHE_PRESENT
 196:/Users/reza.kalfane/Workspaces/Daisy/DaisyExamples/libDaisy/Drivers/CMSIS/Include/core_cm7.h ****     #define __ICACHE_PRESENT          0U
 197:/Users/reza.kalfane/Workspaces/Daisy/DaisyExamples/libDaisy/Drivers/CMSIS/Include/core_cm7.h ****     #warning "__ICACHE_PRESENT not defined in device header file; using default!"
 198:/Users/reza.kalfane/Workspaces/Daisy/DaisyExamples/libDaisy/Drivers/CMSIS/Include/core_cm7.h ****   #endif
 199:/Users/reza.kalfane/Workspaces/Daisy/DaisyExamples/libDaisy/Drivers/CMSIS/Include/core_cm7.h **** 
 200:/Users/reza.kalfane/Workspaces/Daisy/DaisyExamples/libDaisy/Drivers/CMSIS/Include/core_cm7.h ****   #ifndef __DCACHE_PRESENT
 201:/Users/reza.kalfane/Workspaces/Daisy/DaisyExamples/libDaisy/Drivers/CMSIS/Include/core_cm7.h ****     #define __DCACHE_PRESENT          0U
 202:/Users/reza.kalfane/Workspaces/Daisy/DaisyExamples/libDaisy/Drivers/CMSIS/Include/core_cm7.h ****     #warning "__DCACHE_PRESENT not defined in device header file; using default!"
 203:/Users/reza.kalfane/Workspaces/Daisy/DaisyExamples/libDaisy/Drivers/CMSIS/Include/core_cm7.h ****   #endif
 204:/Users/reza.kalfane/Workspaces/Daisy/DaisyExamples/libDaisy/Drivers/CMSIS/Include/core_cm7.h **** 
 205:/Users/reza.kalfane/Workspaces/Daisy/DaisyExamples/libDaisy/Drivers/CMSIS/Include/core_cm7.h ****   #ifndef __DTCM_PRESENT
 206:/Users/reza.kalfane/Workspaces/Daisy/DaisyExamples/libDaisy/Drivers/CMSIS/Include/core_cm7.h ****     #define __DTCM_PRESENT            0U
 207:/Users/reza.kalfane/Workspaces/Daisy/DaisyExamples/libDaisy/Drivers/CMSIS/Include/core_cm7.h ****     #warning "__DTCM_PRESENT        not defined in device header file; using default!"
 208:/Users/reza.kalfane/Workspaces/Daisy/DaisyExamples/libDaisy/Drivers/CMSIS/Include/core_cm7.h ****   #endif
 209:/Users/reza.kalfane/Workspaces/Daisy/DaisyExamples/libDaisy/Drivers/CMSIS/Include/core_cm7.h **** 
 210:/Users/reza.kalfane/Workspaces/Daisy/DaisyExamples/libDaisy/Drivers/CMSIS/Include/core_cm7.h ****   #ifndef __NVIC_PRIO_BITS
 211:/Users/reza.kalfane/Workspaces/Daisy/DaisyExamples/libDaisy/Drivers/CMSIS/Include/core_cm7.h ****     #define __NVIC_PRIO_BITS          3U
 212:/Users/reza.kalfane/Workspaces/Daisy/DaisyExamples/libDaisy/Drivers/CMSIS/Include/core_cm7.h ****     #warning "__NVIC_PRIO_BITS not defined in device header file; using default!"
 213:/Users/reza.kalfane/Workspaces/Daisy/DaisyExamples/libDaisy/Drivers/CMSIS/Include/core_cm7.h ****   #endif
 214:/Users/reza.kalfane/Workspaces/Daisy/DaisyExamples/libDaisy/Drivers/CMSIS/Include/core_cm7.h **** 
 215:/Users/reza.kalfane/Workspaces/Daisy/DaisyExamples/libDaisy/Drivers/CMSIS/Include/core_cm7.h ****   #ifndef __Vendor_SysTickConfig
 216:/Users/reza.kalfane/Workspaces/Daisy/DaisyExamples/libDaisy/Drivers/CMSIS/Include/core_cm7.h ****     #define __Vendor_SysTickConfig    0U
 217:/Users/reza.kalfane/Workspaces/Daisy/DaisyExamples/libDaisy/Drivers/CMSIS/Include/core_cm7.h ****     #warning "__Vendor_SysTickConfig not defined in device header file; using default!"
 218:/Users/reza.kalfane/Workspaces/Daisy/DaisyExamples/libDaisy/Drivers/CMSIS/Include/core_cm7.h ****   #endif
 219:/Users/reza.kalfane/Workspaces/Daisy/DaisyExamples/libDaisy/Drivers/CMSIS/Include/core_cm7.h **** #endif
 220:/Users/reza.kalfane/Workspaces/Daisy/DaisyExamples/libDaisy/Drivers/CMSIS/Include/core_cm7.h **** 
 221:/Users/reza.kalfane/Workspaces/Daisy/DaisyExamples/libDaisy/Drivers/CMSIS/Include/core_cm7.h **** /* IO definitions (access restrictions to peripheral registers) */
 222:/Users/reza.kalfane/Workspaces/Daisy/DaisyExamples/libDaisy/Drivers/CMSIS/Include/core_cm7.h **** /**
 223:/Users/reza.kalfane/Workspaces/Daisy/DaisyExamples/libDaisy/Drivers/CMSIS/Include/core_cm7.h ****     \defgroup CMSIS_glob_defs CMSIS Global Defines
 224:/Users/reza.kalfane/Workspaces/Daisy/DaisyExamples/libDaisy/Drivers/CMSIS/Include/core_cm7.h **** 
 225:/Users/reza.kalfane/Workspaces/Daisy/DaisyExamples/libDaisy/Drivers/CMSIS/Include/core_cm7.h ****     <strong>IO Type Qualifiers</strong> are used
 226:/Users/reza.kalfane/Workspaces/Daisy/DaisyExamples/libDaisy/Drivers/CMSIS/Include/core_cm7.h ****     \li to specify the access to peripheral variables.
 227:/Users/reza.kalfane/Workspaces/Daisy/DaisyExamples/libDaisy/Drivers/CMSIS/Include/core_cm7.h ****     \li for automatic generation of peripheral register debug information.
 228:/Users/reza.kalfane/Workspaces/Daisy/DaisyExamples/libDaisy/Drivers/CMSIS/Include/core_cm7.h **** */
 229:/Users/reza.kalfane/Workspaces/Daisy/DaisyExamples/libDaisy/Drivers/CMSIS/Include/core_cm7.h **** #ifdef __cplusplus
 230:/Users/reza.kalfane/Workspaces/Daisy/DaisyExamples/libDaisy/Drivers/CMSIS/Include/core_cm7.h ****   #define   __I     volatile             /*!< Defines 'read only' permissions */
 231:/Users/reza.kalfane/Workspaces/Daisy/DaisyExamples/libDaisy/Drivers/CMSIS/Include/core_cm7.h **** #else
 232:/Users/reza.kalfane/Workspaces/Daisy/DaisyExamples/libDaisy/Drivers/CMSIS/Include/core_cm7.h ****   #define   __I     volatile const       /*!< Defines 'read only' permissions */
 233:/Users/reza.kalfane/Workspaces/Daisy/DaisyExamples/libDaisy/Drivers/CMSIS/Include/core_cm7.h **** #endif
 234:/Users/reza.kalfane/Workspaces/Daisy/DaisyExamples/libDaisy/Drivers/CMSIS/Include/core_cm7.h **** #define     __O     volatile             /*!< Defines 'write only' permissions */
 235:/Users/reza.kalfane/Workspaces/Daisy/DaisyExamples/libDaisy/Drivers/CMSIS/Include/core_cm7.h **** #define     __IO    volatile             /*!< Defines 'read / write' permissions */
 236:/Users/reza.kalfane/Workspaces/Daisy/DaisyExamples/libDaisy/Drivers/CMSIS/Include/core_cm7.h **** 
 237:/Users/reza.kalfane/Workspaces/Daisy/DaisyExamples/libDaisy/Drivers/CMSIS/Include/core_cm7.h **** /* following defines should be used for structure members */
 238:/Users/reza.kalfane/Workspaces/Daisy/DaisyExamples/libDaisy/Drivers/CMSIS/Include/core_cm7.h **** #define     __IM     volatile const      /*! Defines 'read only' structure member permissions */
 239:/Users/reza.kalfane/Workspaces/Daisy/DaisyExamples/libDaisy/Drivers/CMSIS/Include/core_cm7.h **** #define     __OM     volatile            /*! Defines 'write only' structure member permissions */
 240:/Users/reza.kalfane/Workspaces/Daisy/DaisyExamples/libDaisy/Drivers/CMSIS/Include/core_cm7.h **** #define     __IOM    volatile            /*! Defines 'read / write' structure member permissions */
 241:/Users/reza.kalfane/Workspaces/Daisy/DaisyExamples/libDaisy/Drivers/CMSIS/Include/core_cm7.h **** 
 242:/Users/reza.kalfane/Workspaces/Daisy/DaisyExamples/libDaisy/Drivers/CMSIS/Include/core_cm7.h **** /*@} end of group Cortex_M7 */
 243:/Users/reza.kalfane/Workspaces/Daisy/DaisyExamples/libDaisy/Drivers/CMSIS/Include/core_cm7.h **** 
 244:/Users/reza.kalfane/Workspaces/Daisy/DaisyExamples/libDaisy/Drivers/CMSIS/Include/core_cm7.h **** 
 245:/Users/reza.kalfane/Workspaces/Daisy/DaisyExamples/libDaisy/Drivers/CMSIS/Include/core_cm7.h **** 
ARM GAS  /tmp/claude-502/ccFotbfS.s 			page 67


 246:/Users/reza.kalfane/Workspaces/Daisy/DaisyExamples/libDaisy/Drivers/CMSIS/Include/core_cm7.h **** /*******************************************************************************
 247:/Users/reza.kalfane/Workspaces/Daisy/DaisyExamples/libDaisy/Drivers/CMSIS/Include/core_cm7.h ****  *                 Register Abstraction
 248:/Users/reza.kalfane/Workspaces/Daisy/DaisyExamples/libDaisy/Drivers/CMSIS/Include/core_cm7.h ****   Core Register contain:
 249:/Users/reza.kalfane/Workspaces/Daisy/DaisyExamples/libDaisy/Drivers/CMSIS/Include/core_cm7.h ****   - Core Register
 250:/Users/reza.kalfane/Workspaces/Daisy/DaisyExamples/libDaisy/Drivers/CMSIS/Include/core_cm7.h ****   - Core NVIC Register
 251:/Users/reza.kalfane/Workspaces/Daisy/DaisyExamples/libDaisy/Drivers/CMSIS/Include/core_cm7.h ****   - Core SCB Register
 252:/Users/reza.kalfane/Workspaces/Daisy/DaisyExamples/libDaisy/Drivers/CMSIS/Include/core_cm7.h ****   - Core SysTick Register
 253:/Users/reza.kalfane/Workspaces/Daisy/DaisyExamples/libDaisy/Drivers/CMSIS/Include/core_cm7.h ****   - Core Debug Register
 254:/Users/reza.kalfane/Workspaces/Daisy/DaisyExamples/libDaisy/Drivers/CMSIS/Include/core_cm7.h ****   - Core MPU Register
 255:/Users/reza.kalfane/Workspaces/Daisy/DaisyExamples/libDaisy/Drivers/CMSIS/Include/core_cm7.h ****   - Core FPU Register
 256:/Users/reza.kalfane/Workspaces/Daisy/DaisyExamples/libDaisy/Drivers/CMSIS/Include/core_cm7.h ****  ******************************************************************************/
 257:/Users/reza.kalfane/Workspaces/Daisy/DaisyExamples/libDaisy/Drivers/CMSIS/Include/core_cm7.h **** /**
 258:/Users/reza.kalfane/Workspaces/Daisy/DaisyExamples/libDaisy/Drivers/CMSIS/Include/core_cm7.h ****   \defgroup CMSIS_core_register Defines and Type Definitions
 259:/Users/reza.kalfane/Workspaces/Daisy/DaisyExamples/libDaisy/Drivers/CMSIS/Include/core_cm7.h ****   \brief Type definitions and defines for Cortex-M processor based devices.
 260:/Users/reza.kalfane/Workspaces/Daisy/DaisyExamples/libDaisy/Drivers/CMSIS/Include/core_cm7.h **** */
 261:/Users/reza.kalfane/Workspaces/Daisy/DaisyExamples/libDaisy/Drivers/CMSIS/Include/core_cm7.h **** 
 262:/Users/reza.kalfane/Workspaces/Daisy/DaisyExamples/libDaisy/Drivers/CMSIS/Include/core_cm7.h **** /**
 263:/Users/reza.kalfane/Workspaces/Daisy/DaisyExamples/libDaisy/Drivers/CMSIS/Include/core_cm7.h ****   \ingroup    CMSIS_core_register
 264:/Users/reza.kalfane/Workspaces/Daisy/DaisyExamples/libDaisy/Drivers/CMSIS/Include/core_cm7.h ****   \defgroup   CMSIS_CORE  Status and Control Registers
 265:/Users/reza.kalfane/Workspaces/Daisy/DaisyExamples/libDaisy/Drivers/CMSIS/Include/core_cm7.h ****   \brief      Core Register type definitions.
 266:/Users/reza.kalfane/Workspaces/Daisy/DaisyExamples/libDaisy/Drivers/CMSIS/Include/core_cm7.h ****   @{
 267:/Users/reza.kalfane/Workspaces/Daisy/DaisyExamples/libDaisy/Drivers/CMSIS/Include/core_cm7.h ****  */
 268:/Users/reza.kalfane/Workspaces/Daisy/DaisyExamples/libDaisy/Drivers/CMSIS/Include/core_cm7.h **** 
 269:/Users/reza.kalfane/Workspaces/Daisy/DaisyExamples/libDaisy/Drivers/CMSIS/Include/core_cm7.h **** /**
 270:/Users/reza.kalfane/Workspaces/Daisy/DaisyExamples/libDaisy/Drivers/CMSIS/Include/core_cm7.h ****   \brief  Union type to access the Application Program Status Register (APSR).
 271:/Users/reza.kalfane/Workspaces/Daisy/DaisyExamples/libDaisy/Drivers/CMSIS/Include/core_cm7.h ****  */
 272:/Users/reza.kalfane/Workspaces/Daisy/DaisyExamples/libDaisy/Drivers/CMSIS/Include/core_cm7.h **** typedef union
 273:/Users/reza.kalfane/Workspaces/Daisy/DaisyExamples/libDaisy/Drivers/CMSIS/Include/core_cm7.h **** {
 274:/Users/reza.kalfane/Workspaces/Daisy/DaisyExamples/libDaisy/Drivers/CMSIS/Include/core_cm7.h ****   struct
 275:/Users/reza.kalfane/Workspaces/Daisy/DaisyExamples/libDaisy/Drivers/CMSIS/Include/core_cm7.h ****   {
 276:/Users/reza.kalfane/Workspaces/Daisy/DaisyExamples/libDaisy/Drivers/CMSIS/Include/core_cm7.h ****     uint32_t _reserved0:16;              /*!< bit:  0..15  Reserved */
 277:/Users/reza.kalfane/Workspaces/Daisy/DaisyExamples/libDaisy/Drivers/CMSIS/Include/core_cm7.h ****     uint32_t GE:4;                       /*!< bit: 16..19  Greater than or Equal flags */
 278:/Users/reza.kalfane/Workspaces/Daisy/DaisyExamples/libDaisy/Drivers/CMSIS/Include/core_cm7.h ****     uint32_t _reserved1:7;               /*!< bit: 20..26  Reserved */
 279:/Users/reza.kalfane/Workspaces/Daisy/DaisyExamples/libDaisy/Drivers/CMSIS/Include/core_cm7.h ****     uint32_t Q:1;                        /*!< bit:     27  Saturation condition flag */
 280:/Users/reza.kalfane/Workspaces/Daisy/DaisyExamples/libDaisy/Drivers/CMSIS/Include/core_cm7.h ****     uint32_t V:1;                        /*!< bit:     28  Overflow condition code flag */
 281:/Users/reza.kalfane/Workspaces/Daisy/DaisyExamples/libDaisy/Drivers/CMSIS/Include/core_cm7.h ****     uint32_t C:1;                        /*!< bit:     29  Carry condition code flag */
 282:/Users/reza.kalfane/Workspaces/Daisy/DaisyExamples/libDaisy/Drivers/CMSIS/Include/core_cm7.h ****     uint32_t Z:1;                        /*!< bit:     30  Zero condition code flag */
 283:/Users/reza.kalfane/Workspaces/Daisy/DaisyExamples/libDaisy/Drivers/CMSIS/Include/core_cm7.h ****     uint32_t N:1;                        /*!< bit:     31  Negative condition code flag */
 284:/Users/reza.kalfane/Workspaces/Daisy/DaisyExamples/libDaisy/Drivers/CMSIS/Include/core_cm7.h ****   } b;                                   /*!< Structure used for bit  access */
 285:/Users/reza.kalfane/Workspaces/Daisy/DaisyExamples/libDaisy/Drivers/CMSIS/Include/core_cm7.h ****   uint32_t w;                            /*!< Type      used for word access */
 286:/Users/reza.kalfane/Workspaces/Daisy/DaisyExamples/libDaisy/Drivers/CMSIS/Include/core_cm7.h **** } APSR_Type;
 287:/Users/reza.kalfane/Workspaces/Daisy/DaisyExamples/libDaisy/Drivers/CMSIS/Include/core_cm7.h **** 
 288:/Users/reza.kalfane/Workspaces/Daisy/DaisyExamples/libDaisy/Drivers/CMSIS/Include/core_cm7.h **** /* APSR Register Definitions */
 289:/Users/reza.kalfane/Workspaces/Daisy/DaisyExamples/libDaisy/Drivers/CMSIS/Include/core_cm7.h **** #define APSR_N_Pos                         31U                                            /*!< APSR
 290:/Users/reza.kalfane/Workspaces/Daisy/DaisyExamples/libDaisy/Drivers/CMSIS/Include/core_cm7.h **** #define APSR_N_Msk                         (1UL << APSR_N_Pos)                            /*!< APSR
 291:/Users/reza.kalfane/Workspaces/Daisy/DaisyExamples/libDaisy/Drivers/CMSIS/Include/core_cm7.h **** 
 292:/Users/reza.kalfane/Workspaces/Daisy/DaisyExamples/libDaisy/Drivers/CMSIS/Include/core_cm7.h **** #define APSR_Z_Pos                         30U                                            /*!< APSR
 293:/Users/reza.kalfane/Workspaces/Daisy/DaisyExamples/libDaisy/Drivers/CMSIS/Include/core_cm7.h **** #define APSR_Z_Msk                         (1UL << APSR_Z_Pos)                            /*!< APSR
 294:/Users/reza.kalfane/Workspaces/Daisy/DaisyExamples/libDaisy/Drivers/CMSIS/Include/core_cm7.h **** 
 295:/Users/reza.kalfane/Workspaces/Daisy/DaisyExamples/libDaisy/Drivers/CMSIS/Include/core_cm7.h **** #define APSR_C_Pos                         29U                                            /*!< APSR
 296:/Users/reza.kalfane/Workspaces/Daisy/DaisyExamples/libDaisy/Drivers/CMSIS/Include/core_cm7.h **** #define APSR_C_Msk                         (1UL << APSR_C_Pos)                            /*!< APSR
 297:/Users/reza.kalfane/Workspaces/Daisy/DaisyExamples/libDaisy/Drivers/CMSIS/Include/core_cm7.h **** 
 298:/Users/reza.kalfane/Workspaces/Daisy/DaisyExamples/libDaisy/Drivers/CMSIS/Include/core_cm7.h **** #define APSR_V_Pos                         28U                                            /*!< APSR
 299:/Users/reza.kalfane/Workspaces/Daisy/DaisyExamples/libDaisy/Drivers/CMSIS/Include/core_cm7.h **** #define APSR_V_Msk                         (1UL << APSR_V_Pos)                            /*!< APSR
 300:/Users/reza.kalfane/Workspaces/Daisy/DaisyExamples/libDaisy/Drivers/CMSIS/Include/core_cm7.h **** 
 301:/Users/reza.kalfane/Workspaces/Daisy/DaisyExamples/libDaisy/Drivers/CMSIS/Include/core_cm7.h **** #define APSR_Q_Pos                         27U                                            /*!< APSR
 302:/Users/reza.kalfane/Workspaces/Daisy/DaisyExamples/libDaisy/Drivers/CMSIS/Include/core_cm7.h **** #define APSR_Q_Msk                         (1UL << APSR_Q_Pos)                            /*!< APSR
ARM GAS  /tmp/claude-502/ccFotbfS.s 			page 68


 303:/Users/reza.kalfane/Workspaces/Daisy/DaisyExamples/libDaisy/Drivers/CMSIS/Include/core_cm7.h **** 
 304:/Users/reza.kalfane/Workspaces/Daisy/DaisyExamples/libDaisy/Drivers/CMSIS/Include/core_cm7.h **** #define APSR_GE_Pos                        16U                                            /*!< APSR
 305:/Users/reza.kalfane/Workspaces/Daisy/DaisyExamples/libDaisy/Drivers/CMSIS/Include/core_cm7.h **** #define APSR_GE_Msk                        (0xFUL << APSR_GE_Pos)                         /*!< APSR
 306:/Users/reza.kalfane/Workspaces/Daisy/DaisyExamples/libDaisy/Drivers/CMSIS/Include/core_cm7.h **** 
 307:/Users/reza.kalfane/Workspaces/Daisy/DaisyExamples/libDaisy/Drivers/CMSIS/Include/core_cm7.h **** 
 308:/Users/reza.kalfane/Workspaces/Daisy/DaisyExamples/libDaisy/Drivers/CMSIS/Include/core_cm7.h **** /**
 309:/Users/reza.kalfane/Workspaces/Daisy/DaisyExamples/libDaisy/Drivers/CMSIS/Include/core_cm7.h ****   \brief  Union type to access the Interrupt Program Status Register (IPSR).
 310:/Users/reza.kalfane/Workspaces/Daisy/DaisyExamples/libDaisy/Drivers/CMSIS/Include/core_cm7.h ****  */
 311:/Users/reza.kalfane/Workspaces/Daisy/DaisyExamples/libDaisy/Drivers/CMSIS/Include/core_cm7.h **** typedef union
 312:/Users/reza.kalfane/Workspaces/Daisy/DaisyExamples/libDaisy/Drivers/CMSIS/Include/core_cm7.h **** {
 313:/Users/reza.kalfane/Workspaces/Daisy/DaisyExamples/libDaisy/Drivers/CMSIS/Include/core_cm7.h ****   struct
 314:/Users/reza.kalfane/Workspaces/Daisy/DaisyExamples/libDaisy/Drivers/CMSIS/Include/core_cm7.h ****   {
 315:/Users/reza.kalfane/Workspaces/Daisy/DaisyExamples/libDaisy/Drivers/CMSIS/Include/core_cm7.h ****     uint32_t ISR:9;                      /*!< bit:  0.. 8  Exception number */
 316:/Users/reza.kalfane/Workspaces/Daisy/DaisyExamples/libDaisy/Drivers/CMSIS/Include/core_cm7.h ****     uint32_t _reserved0:23;              /*!< bit:  9..31  Reserved */
 317:/Users/reza.kalfane/Workspaces/Daisy/DaisyExamples/libDaisy/Drivers/CMSIS/Include/core_cm7.h ****   } b;                                   /*!< Structure used for bit  access */
 318:/Users/reza.kalfane/Workspaces/Daisy/DaisyExamples/libDaisy/Drivers/CMSIS/Include/core_cm7.h ****   uint32_t w;                            /*!< Type      used for word access */
 319:/Users/reza.kalfane/Workspaces/Daisy/DaisyExamples/libDaisy/Drivers/CMSIS/Include/core_cm7.h **** } IPSR_Type;
 320:/Users/reza.kalfane/Workspaces/Daisy/DaisyExamples/libDaisy/Drivers/CMSIS/Include/core_cm7.h **** 
 321:/Users/reza.kalfane/Workspaces/Daisy/DaisyExamples/libDaisy/Drivers/CMSIS/Include/core_cm7.h **** /* IPSR Register Definitions */
 322:/Users/reza.kalfane/Workspaces/Daisy/DaisyExamples/libDaisy/Drivers/CMSIS/Include/core_cm7.h **** #define IPSR_ISR_Pos                        0U                                            /*!< IPSR
 323:/Users/reza.kalfane/Workspaces/Daisy/DaisyExamples/libDaisy/Drivers/CMSIS/Include/core_cm7.h **** #define IPSR_ISR_Msk                       (0x1FFUL /*<< IPSR_ISR_Pos*/)                  /*!< IPSR
 324:/Users/reza.kalfane/Workspaces/Daisy/DaisyExamples/libDaisy/Drivers/CMSIS/Include/core_cm7.h **** 
 325:/Users/reza.kalfane/Workspaces/Daisy/DaisyExamples/libDaisy/Drivers/CMSIS/Include/core_cm7.h **** 
 326:/Users/reza.kalfane/Workspaces/Daisy/DaisyExamples/libDaisy/Drivers/CMSIS/Include/core_cm7.h **** /**
 327:/Users/reza.kalfane/Workspaces/Daisy/DaisyExamples/libDaisy/Drivers/CMSIS/Include/core_cm7.h ****   \brief  Union type to access the Special-Purpose Program Status Registers (xPSR).
 328:/Users/reza.kalfane/Workspaces/Daisy/DaisyExamples/libDaisy/Drivers/CMSIS/Include/core_cm7.h ****  */
 329:/Users/reza.kalfane/Workspaces/Daisy/DaisyExamples/libDaisy/Drivers/CMSIS/Include/core_cm7.h **** typedef union
 330:/Users/reza.kalfane/Workspaces/Daisy/DaisyExamples/libDaisy/Drivers/CMSIS/Include/core_cm7.h **** {
 331:/Users/reza.kalfane/Workspaces/Daisy/DaisyExamples/libDaisy/Drivers/CMSIS/Include/core_cm7.h ****   struct
 332:/Users/reza.kalfane/Workspaces/Daisy/DaisyExamples/libDaisy/Drivers/CMSIS/Include/core_cm7.h ****   {
 333:/Users/reza.kalfane/Workspaces/Daisy/DaisyExamples/libDaisy/Drivers/CMSIS/Include/core_cm7.h ****     uint32_t ISR:9;                      /*!< bit:  0.. 8  Exception number */
 334:/Users/reza.kalfane/Workspaces/Daisy/DaisyExamples/libDaisy/Drivers/CMSIS/Include/core_cm7.h ****     uint32_t _reserved0:1;               /*!< bit:      9  Reserved */
 335:/Users/reza.kalfane/Workspaces/Daisy/DaisyExamples/libDaisy/Drivers/CMSIS/Include/core_cm7.h ****     uint32_t ICI_IT_1:6;                 /*!< bit: 10..15  ICI/IT part 1 */
 336:/Users/reza.kalfane/Workspaces/Daisy/DaisyExamples/libDaisy/Drivers/CMSIS/Include/core_cm7.h ****     uint32_t GE:4;                       /*!< bit: 16..19  Greater than or Equal flags */
 337:/Users/reza.kalfane/Workspaces/Daisy/DaisyExamples/libDaisy/Drivers/CMSIS/Include/core_cm7.h ****     uint32_t _reserved1:4;               /*!< bit: 20..23  Reserved */
 338:/Users/reza.kalfane/Workspaces/Daisy/DaisyExamples/libDaisy/Drivers/CMSIS/Include/core_cm7.h ****     uint32_t T:1;                        /*!< bit:     24  Thumb bit */
 339:/Users/reza.kalfane/Workspaces/Daisy/DaisyExamples/libDaisy/Drivers/CMSIS/Include/core_cm7.h ****     uint32_t ICI_IT_2:2;                 /*!< bit: 25..26  ICI/IT part 2 */
 340:/Users/reza.kalfane/Workspaces/Daisy/DaisyExamples/libDaisy/Drivers/CMSIS/Include/core_cm7.h ****     uint32_t Q:1;                        /*!< bit:     27  Saturation condition flag */
 341:/Users/reza.kalfane/Workspaces/Daisy/DaisyExamples/libDaisy/Drivers/CMSIS/Include/core_cm7.h ****     uint32_t V:1;                        /*!< bit:     28  Overflow condition code flag */
 342:/Users/reza.kalfane/Workspaces/Daisy/DaisyExamples/libDaisy/Drivers/CMSIS/Include/core_cm7.h ****     uint32_t C:1;                        /*!< bit:     29  Carry condition code flag */
 343:/Users/reza.kalfane/Workspaces/Daisy/DaisyExamples/libDaisy/Drivers/CMSIS/Include/core_cm7.h ****     uint32_t Z:1;                        /*!< bit:     30  Zero condition code flag */
 344:/Users/reza.kalfane/Workspaces/Daisy/DaisyExamples/libDaisy/Drivers/CMSIS/Include/core_cm7.h ****     uint32_t N:1;                        /*!< bit:     31  Negative condition code flag */
 345:/Users/reza.kalfane/Workspaces/Daisy/DaisyExamples/libDaisy/Drivers/CMSIS/Include/core_cm7.h ****   } b;                                   /*!< Structure used for bit  access */
 346:/Users/reza.kalfane/Workspaces/Daisy/DaisyExamples/libDaisy/Drivers/CMSIS/Include/core_cm7.h ****   uint32_t w;                            /*!< Type      used for word access */
 347:/Users/reza.kalfane/Workspaces/Daisy/DaisyExamples/libDaisy/Drivers/CMSIS/Include/core_cm7.h **** } xPSR_Type;
 348:/Users/reza.kalfane/Workspaces/Daisy/DaisyExamples/libDaisy/Drivers/CMSIS/Include/core_cm7.h **** 
 349:/Users/reza.kalfane/Workspaces/Daisy/DaisyExamples/libDaisy/Drivers/CMSIS/Include/core_cm7.h **** /* xPSR Register Definitions */
 350:/Users/reza.kalfane/Workspaces/Daisy/DaisyExamples/libDaisy/Drivers/CMSIS/Include/core_cm7.h **** #define xPSR_N_Pos                         31U                                            /*!< xPSR
 351:/Users/reza.kalfane/Workspaces/Daisy/DaisyExamples/libDaisy/Drivers/CMSIS/Include/core_cm7.h **** #define xPSR_N_Msk                         (1UL << xPSR_N_Pos)                            /*!< xPSR
 352:/Users/reza.kalfane/Workspaces/Daisy/DaisyExamples/libDaisy/Drivers/CMSIS/Include/core_cm7.h **** 
 353:/Users/reza.kalfane/Workspaces/Daisy/DaisyExamples/libDaisy/Drivers/CMSIS/Include/core_cm7.h **** #define xPSR_Z_Pos                         30U                                            /*!< xPSR
 354:/Users/reza.kalfane/Workspaces/Daisy/DaisyExamples/libDaisy/Drivers/CMSIS/Include/core_cm7.h **** #define xPSR_Z_Msk                         (1UL << xPSR_Z_Pos)                            /*!< xPSR
 355:/Users/reza.kalfane/Workspaces/Daisy/DaisyExamples/libDaisy/Drivers/CMSIS/Include/core_cm7.h **** 
 356:/Users/reza.kalfane/Workspaces/Daisy/DaisyExamples/libDaisy/Drivers/CMSIS/Include/core_cm7.h **** #define xPSR_C_Pos                         29U                                            /*!< xPSR
 357:/Users/reza.kalfane/Workspaces/Daisy/DaisyExamples/libDaisy/Drivers/CMSIS/Include/core_cm7.h **** #define xPSR_C_Msk                         (1UL << xPSR_C_Pos)                            /*!< xPSR
 358:/Users/reza.kalfane/Workspaces/Daisy/DaisyExamples/libDaisy/Drivers/CMSIS/Include/core_cm7.h **** 
 359:/Users/reza.kalfane/Workspaces/Daisy/DaisyExamples/libDaisy/Drivers/CMSIS/Include/core_cm7.h **** #define xPSR_V_Pos                         28U                                            /*!< xPSR
ARM GAS  /tmp/claude-502/ccFotbfS.s 			page 69


 360:/Users/reza.kalfane/Workspaces/Daisy/DaisyExamples/libDaisy/Drivers/CMSIS/Include/core_cm7.h **** #define xPSR_V_Msk                         (1UL << xPSR_V_Pos)                            /*!< xPSR
 361:/Users/reza.kalfane/Workspaces/Daisy/DaisyExamples/libDaisy/Drivers/CMSIS/Include/core_cm7.h **** 
 362:/Users/reza.kalfane/Workspaces/Daisy/DaisyExamples/libDaisy/Drivers/CMSIS/Include/core_cm7.h **** #define xPSR_Q_Pos                         27U                                            /*!< xPSR
 363:/Users/reza.kalfane/Workspaces/Daisy/DaisyExamples/libDaisy/Drivers/CMSIS/Include/core_cm7.h **** #define xPSR_Q_Msk                         (1UL << xPSR_Q_Pos)                            /*!< xPSR
 364:/Users/reza.kalfane/Workspaces/Daisy/DaisyExamples/libDaisy/Drivers/CMSIS/Include/core_cm7.h **** 
 365:/Users/reza.kalfane/Workspaces/Daisy/DaisyExamples/libDaisy/Drivers/CMSIS/Include/core_cm7.h **** #define xPSR_ICI_IT_2_Pos                  25U                                            /*!< xPSR
 366:/Users/reza.kalfane/Workspaces/Daisy/DaisyExamples/libDaisy/Drivers/CMSIS/Include/core_cm7.h **** #define xPSR_ICI_IT_2_Msk                  (3UL << xPSR_ICI_IT_2_Pos)                     /*!< xPSR
 367:/Users/reza.kalfane/Workspaces/Daisy/DaisyExamples/libDaisy/Drivers/CMSIS/Include/core_cm7.h **** 
 368:/Users/reza.kalfane/Workspaces/Daisy/DaisyExamples/libDaisy/Drivers/CMSIS/Include/core_cm7.h **** #define xPSR_T_Pos                         24U                                            /*!< xPSR
 369:/Users/reza.kalfane/Workspaces/Daisy/DaisyExamples/libDaisy/Drivers/CMSIS/Include/core_cm7.h **** #define xPSR_T_Msk                         (1UL << xPSR_T_Pos)                            /*!< xPSR
 370:/Users/reza.kalfane/Workspaces/Daisy/DaisyExamples/libDaisy/Drivers/CMSIS/Include/core_cm7.h **** 
 371:/Users/reza.kalfane/Workspaces/Daisy/DaisyExamples/libDaisy/Drivers/CMSIS/Include/core_cm7.h **** #define xPSR_GE_Pos                        16U                                            /*!< xPSR
 372:/Users/reza.kalfane/Workspaces/Daisy/DaisyExamples/libDaisy/Drivers/CMSIS/Include/core_cm7.h **** #define xPSR_GE_Msk                        (0xFUL << xPSR_GE_Pos)                         /*!< xPSR
 373:/Users/reza.kalfane/Workspaces/Daisy/DaisyExamples/libDaisy/Drivers/CMSIS/Include/core_cm7.h **** 
 374:/Users/reza.kalfane/Workspaces/Daisy/DaisyExamples/libDaisy/Drivers/CMSIS/Include/core_cm7.h **** #define xPSR_ICI_IT_1_Pos                  10U                                            /*!< xPSR
 375:/Users/reza.kalfane/Workspaces/Daisy/DaisyExamples/libDaisy/Drivers/CMSIS/Include/core_cm7.h **** #define xPSR_ICI_IT_1_Msk                  (0x3FUL << xPSR_ICI_IT_1_Pos)                  /*!< xPSR
 376:/Users/reza.kalfane/Workspaces/Daisy/DaisyExamples/libDaisy/Drivers/CMSIS/Include/core_cm7.h **** 
 377:/Users/reza.kalfane/Workspaces/Daisy/DaisyExamples/libDaisy/Drivers/CMSIS/Include/core_cm7.h **** #define xPSR_ISR_Pos                        0U                                            /*!< xPSR
 378:/Users/reza.kalfane/Workspaces/Daisy/DaisyExamples/libDaisy/Drivers/CMSIS/Include/core_cm7.h **** #define xPSR_ISR_Msk                       (0x1FFUL /*<< xPSR_ISR_Pos*/)                  /*!< xPSR
 379:/Users/reza.kalfane/Workspaces/Daisy/DaisyExamples/libDaisy/Drivers/CMSIS/Include/core_cm7.h **** 
 380:/Users/reza.kalfane/Workspaces/Daisy/DaisyExamples/libDaisy/Drivers/CMSIS/Include/core_cm7.h **** 
 381:/Users/reza.kalfane/Workspaces/Daisy/DaisyExamples/libDaisy/Drivers/CMSIS/Include/core_cm7.h **** /**
 382:/Users/reza.kalfane/Workspaces/Daisy/DaisyExamples/libDaisy/Drivers/CMSIS/Include/core_cm7.h ****   \brief  Union type to access the Control Registers (CONTROL).
 383:/Users/reza.kalfane/Workspaces/Daisy/DaisyExamples/libDaisy/Drivers/CMSIS/Include/core_cm7.h ****  */
 384:/Users/reza.kalfane/Workspaces/Daisy/DaisyExamples/libDaisy/Drivers/CMSIS/Include/core_cm7.h **** typedef union
 385:/Users/reza.kalfane/Workspaces/Daisy/DaisyExamples/libDaisy/Drivers/CMSIS/Include/core_cm7.h **** {
 386:/Users/reza.kalfane/Workspaces/Daisy/DaisyExamples/libDaisy/Drivers/CMSIS/Include/core_cm7.h ****   struct
 387:/Users/reza.kalfane/Workspaces/Daisy/DaisyExamples/libDaisy/Drivers/CMSIS/Include/core_cm7.h ****   {
 388:/Users/reza.kalfane/Workspaces/Daisy/DaisyExamples/libDaisy/Drivers/CMSIS/Include/core_cm7.h ****     uint32_t nPRIV:1;                    /*!< bit:      0  Execution privilege in Thread mode */
 389:/Users/reza.kalfane/Workspaces/Daisy/DaisyExamples/libDaisy/Drivers/CMSIS/Include/core_cm7.h ****     uint32_t SPSEL:1;                    /*!< bit:      1  Stack to be used */
 390:/Users/reza.kalfane/Workspaces/Daisy/DaisyExamples/libDaisy/Drivers/CMSIS/Include/core_cm7.h ****     uint32_t FPCA:1;                     /*!< bit:      2  FP extension active flag */
 391:/Users/reza.kalfane/Workspaces/Daisy/DaisyExamples/libDaisy/Drivers/CMSIS/Include/core_cm7.h ****     uint32_t _reserved0:29;              /*!< bit:  3..31  Reserved */
 392:/Users/reza.kalfane/Workspaces/Daisy/DaisyExamples/libDaisy/Drivers/CMSIS/Include/core_cm7.h ****   } b;                                   /*!< Structure used for bit  access */
 393:/Users/reza.kalfane/Workspaces/Daisy/DaisyExamples/libDaisy/Drivers/CMSIS/Include/core_cm7.h ****   uint32_t w;                            /*!< Type      used for word access */
 394:/Users/reza.kalfane/Workspaces/Daisy/DaisyExamples/libDaisy/Drivers/CMSIS/Include/core_cm7.h **** } CONTROL_Type;
 395:/Users/reza.kalfane/Workspaces/Daisy/DaisyExamples/libDaisy/Drivers/CMSIS/Include/core_cm7.h **** 
 396:/Users/reza.kalfane/Workspaces/Daisy/DaisyExamples/libDaisy/Drivers/CMSIS/Include/core_cm7.h **** /* CONTROL Register Definitions */
 397:/Users/reza.kalfane/Workspaces/Daisy/DaisyExamples/libDaisy/Drivers/CMSIS/Include/core_cm7.h **** #define CONTROL_FPCA_Pos                    2U                                            /*!< CONT
 398:/Users/reza.kalfane/Workspaces/Daisy/DaisyExamples/libDaisy/Drivers/CMSIS/Include/core_cm7.h **** #define CONTROL_FPCA_Msk                   (1UL << CONTROL_FPCA_Pos)                      /*!< CONT
 399:/Users/reza.kalfane/Workspaces/Daisy/DaisyExamples/libDaisy/Drivers/CMSIS/Include/core_cm7.h **** 
 400:/Users/reza.kalfane/Workspaces/Daisy/DaisyExamples/libDaisy/Drivers/CMSIS/Include/core_cm7.h **** #define CONTROL_SPSEL_Pos                   1U                                            /*!< CONT
 401:/Users/reza.kalfane/Workspaces/Daisy/DaisyExamples/libDaisy/Drivers/CMSIS/Include/core_cm7.h **** #define CONTROL_SPSEL_Msk                  (1UL << CONTROL_SPSEL_Pos)                     /*!< CONT
 402:/Users/reza.kalfane/Workspaces/Daisy/DaisyExamples/libDaisy/Drivers/CMSIS/Include/core_cm7.h **** 
 403:/Users/reza.kalfane/Workspaces/Daisy/DaisyExamples/libDaisy/Drivers/CMSIS/Include/core_cm7.h **** #define CONTROL_nPRIV_Pos                   0U                                            /*!< CONT
 404:/Users/reza.kalfane/Workspaces/Daisy/DaisyExamples/libDaisy/Drivers/CMSIS/Include/core_cm7.h **** #define CONTROL_nPRIV_Msk                  (1UL /*<< CONTROL_nPRIV_Pos*/)                 /*!< CONT
 405:/Users/reza.kalfane/Workspaces/Daisy/DaisyExamples/libDaisy/Drivers/CMSIS/Include/core_cm7.h **** 
 406:/Users/reza.kalfane/Workspaces/Daisy/DaisyExamples/libDaisy/Drivers/CMSIS/Include/core_cm7.h **** /*@} end of group CMSIS_CORE */
 407:/Users/reza.kalfane/Workspaces/Daisy/DaisyExamples/libDaisy/Drivers/CMSIS/Include/core_cm7.h **** 
 408:/Users/reza.kalfane/Workspaces/Daisy/DaisyExamples/libDaisy/Drivers/CMSIS/Include/core_cm7.h **** 
 409:/Users/reza.kalfane/Workspaces/Daisy/DaisyExamples/libDaisy/Drivers/CMSIS/Include/core_cm7.h **** /**
 410:/Users/reza.kalfane/Workspaces/Daisy/DaisyExamples/libDaisy/Drivers/CMSIS/Include/core_cm7.h ****   \ingroup    CMSIS_core_register
 411:/Users/reza.kalfane/Workspaces/Daisy/DaisyExamples/libDaisy/Drivers/CMSIS/Include/core_cm7.h ****   \defgroup   CMSIS_NVIC  Nested Vectored Interrupt Controller (NVIC)
 412:/Users/reza.kalfane/Workspaces/Daisy/DaisyExamples/libDaisy/Drivers/CMSIS/Include/core_cm7.h ****   \brief      Type definitions for the NVIC Registers
 413:/Users/reza.kalfane/Workspaces/Daisy/DaisyExamples/libDaisy/Drivers/CMSIS/Include/core_cm7.h ****   @{
 414:/Users/reza.kalfane/Workspaces/Daisy/DaisyExamples/libDaisy/Drivers/CMSIS/Include/core_cm7.h ****  */
 415:/Users/reza.kalfane/Workspaces/Daisy/DaisyExamples/libDaisy/Drivers/CMSIS/Include/core_cm7.h **** 
 416:/Users/reza.kalfane/Workspaces/Daisy/DaisyExamples/libDaisy/Drivers/CMSIS/Include/core_cm7.h **** /**
ARM GAS  /tmp/claude-502/ccFotbfS.s 			page 70


 417:/Users/reza.kalfane/Workspaces/Daisy/DaisyExamples/libDaisy/Drivers/CMSIS/Include/core_cm7.h ****   \brief  Structure type to access the Nested Vectored Interrupt Controller (NVIC).
 418:/Users/reza.kalfane/Workspaces/Daisy/DaisyExamples/libDaisy/Drivers/CMSIS/Include/core_cm7.h ****  */
 419:/Users/reza.kalfane/Workspaces/Daisy/DaisyExamples/libDaisy/Drivers/CMSIS/Include/core_cm7.h **** typedef struct
 420:/Users/reza.kalfane/Workspaces/Daisy/DaisyExamples/libDaisy/Drivers/CMSIS/Include/core_cm7.h **** {
 421:/Users/reza.kalfane/Workspaces/Daisy/DaisyExamples/libDaisy/Drivers/CMSIS/Include/core_cm7.h ****   __IOM uint32_t ISER[8U];               /*!< Offset: 0x000 (R/W)  Interrupt Set Enable Register */
 422:/Users/reza.kalfane/Workspaces/Daisy/DaisyExamples/libDaisy/Drivers/CMSIS/Include/core_cm7.h ****         uint32_t RESERVED0[24U];
 423:/Users/reza.kalfane/Workspaces/Daisy/DaisyExamples/libDaisy/Drivers/CMSIS/Include/core_cm7.h ****   __IOM uint32_t ICER[8U];               /*!< Offset: 0x080 (R/W)  Interrupt Clear Enable Register 
 424:/Users/reza.kalfane/Workspaces/Daisy/DaisyExamples/libDaisy/Drivers/CMSIS/Include/core_cm7.h ****         uint32_t RSERVED1[24U];
 425:/Users/reza.kalfane/Workspaces/Daisy/DaisyExamples/libDaisy/Drivers/CMSIS/Include/core_cm7.h ****   __IOM uint32_t ISPR[8U];               /*!< Offset: 0x100 (R/W)  Interrupt Set Pending Register *
 426:/Users/reza.kalfane/Workspaces/Daisy/DaisyExamples/libDaisy/Drivers/CMSIS/Include/core_cm7.h ****         uint32_t RESERVED2[24U];
 427:/Users/reza.kalfane/Workspaces/Daisy/DaisyExamples/libDaisy/Drivers/CMSIS/Include/core_cm7.h ****   __IOM uint32_t ICPR[8U];               /*!< Offset: 0x180 (R/W)  Interrupt Clear Pending Register
 428:/Users/reza.kalfane/Workspaces/Daisy/DaisyExamples/libDaisy/Drivers/CMSIS/Include/core_cm7.h ****         uint32_t RESERVED3[24U];
 429:/Users/reza.kalfane/Workspaces/Daisy/DaisyExamples/libDaisy/Drivers/CMSIS/Include/core_cm7.h ****   __IOM uint32_t IABR[8U];               /*!< Offset: 0x200 (R/W)  Interrupt Active bit Register */
 430:/Users/reza.kalfane/Workspaces/Daisy/DaisyExamples/libDaisy/Drivers/CMSIS/Include/core_cm7.h ****         uint32_t RESERVED4[56U];
 431:/Users/reza.kalfane/Workspaces/Daisy/DaisyExamples/libDaisy/Drivers/CMSIS/Include/core_cm7.h ****   __IOM uint8_t  IP[240U];               /*!< Offset: 0x300 (R/W)  Interrupt Priority Register (8Bi
 432:/Users/reza.kalfane/Workspaces/Daisy/DaisyExamples/libDaisy/Drivers/CMSIS/Include/core_cm7.h ****         uint32_t RESERVED5[644U];
 433:/Users/reza.kalfane/Workspaces/Daisy/DaisyExamples/libDaisy/Drivers/CMSIS/Include/core_cm7.h ****   __OM  uint32_t STIR;                   /*!< Offset: 0xE00 ( /W)  Software Trigger Interrupt Regis
 434:/Users/reza.kalfane/Workspaces/Daisy/DaisyExamples/libDaisy/Drivers/CMSIS/Include/core_cm7.h **** }  NVIC_Type;
 435:/Users/reza.kalfane/Workspaces/Daisy/DaisyExamples/libDaisy/Drivers/CMSIS/Include/core_cm7.h **** 
 436:/Users/reza.kalfane/Workspaces/Daisy/DaisyExamples/libDaisy/Drivers/CMSIS/Include/core_cm7.h **** /* Software Triggered Interrupt Register Definitions */
 437:/Users/reza.kalfane/Workspaces/Daisy/DaisyExamples/libDaisy/Drivers/CMSIS/Include/core_cm7.h **** #define NVIC_STIR_INTID_Pos                 0U                                         /*!< STIR: I
 438:/Users/reza.kalfane/Workspaces/Daisy/DaisyExamples/libDaisy/Drivers/CMSIS/Include/core_cm7.h **** #define NVIC_STIR_INTID_Msk                (0x1FFUL /*<< NVIC_STIR_INTID_Pos*/)        /*!< STIR: I
 439:/Users/reza.kalfane/Workspaces/Daisy/DaisyExamples/libDaisy/Drivers/CMSIS/Include/core_cm7.h **** 
 440:/Users/reza.kalfane/Workspaces/Daisy/DaisyExamples/libDaisy/Drivers/CMSIS/Include/core_cm7.h **** /*@} end of group CMSIS_NVIC */
 441:/Users/reza.kalfane/Workspaces/Daisy/DaisyExamples/libDaisy/Drivers/CMSIS/Include/core_cm7.h **** 
 442:/Users/reza.kalfane/Workspaces/Daisy/DaisyExamples/libDaisy/Drivers/CMSIS/Include/core_cm7.h **** 
 443:/Users/reza.kalfane/Workspaces/Daisy/DaisyExamples/libDaisy/Drivers/CMSIS/Include/core_cm7.h **** /**
 444:/Users/reza.kalfane/Workspaces/Daisy/DaisyExamples/libDaisy/Drivers/CMSIS/Include/core_cm7.h ****   \ingroup  CMSIS_core_register
 445:/Users/reza.kalfane/Workspaces/Daisy/DaisyExamples/libDaisy/Drivers/CMSIS/Include/core_cm7.h ****   \defgroup CMSIS_SCB     System Control Block (SCB)
 446:/Users/reza.kalfane/Workspaces/Daisy/DaisyExamples/libDaisy/Drivers/CMSIS/Include/core_cm7.h ****   \brief    Type definitions for the System Control Block Registers
 447:/Users/reza.kalfane/Workspaces/Daisy/DaisyExamples/libDaisy/Drivers/CMSIS/Include/core_cm7.h ****   @{
 448:/Users/reza.kalfane/Workspaces/Daisy/DaisyExamples/libDaisy/Drivers/CMSIS/Include/core_cm7.h ****  */
 449:/Users/reza.kalfane/Workspaces/Daisy/DaisyExamples/libDaisy/Drivers/CMSIS/Include/core_cm7.h **** 
 450:/Users/reza.kalfane/Workspaces/Daisy/DaisyExamples/libDaisy/Drivers/CMSIS/Include/core_cm7.h **** /**
 451:/Users/reza.kalfane/Workspaces/Daisy/DaisyExamples/libDaisy/Drivers/CMSIS/Include/core_cm7.h ****   \brief  Structure type to access the System Control Block (SCB).
 452:/Users/reza.kalfane/Workspaces/Daisy/DaisyExamples/libDaisy/Drivers/CMSIS/Include/core_cm7.h ****  */
 453:/Users/reza.kalfane/Workspaces/Daisy/DaisyExamples/libDaisy/Drivers/CMSIS/Include/core_cm7.h **** typedef struct
 454:/Users/reza.kalfane/Workspaces/Daisy/DaisyExamples/libDaisy/Drivers/CMSIS/Include/core_cm7.h **** {
 455:/Users/reza.kalfane/Workspaces/Daisy/DaisyExamples/libDaisy/Drivers/CMSIS/Include/core_cm7.h ****   __IM  uint32_t CPUID;                  /*!< Offset: 0x000 (R/ )  CPUID Base Register */
 456:/Users/reza.kalfane/Workspaces/Daisy/DaisyExamples/libDaisy/Drivers/CMSIS/Include/core_cm7.h ****   __IOM uint32_t ICSR;                   /*!< Offset: 0x004 (R/W)  Interrupt Control and State Regi
 457:/Users/reza.kalfane/Workspaces/Daisy/DaisyExamples/libDaisy/Drivers/CMSIS/Include/core_cm7.h ****   __IOM uint32_t VTOR;                   /*!< Offset: 0x008 (R/W)  Vector Table Offset Register */
 458:/Users/reza.kalfane/Workspaces/Daisy/DaisyExamples/libDaisy/Drivers/CMSIS/Include/core_cm7.h ****   __IOM uint32_t AIRCR;                  /*!< Offset: 0x00C (R/W)  Application Interrupt and Reset 
 459:/Users/reza.kalfane/Workspaces/Daisy/DaisyExamples/libDaisy/Drivers/CMSIS/Include/core_cm7.h ****   __IOM uint32_t SCR;                    /*!< Offset: 0x010 (R/W)  System Control Register */
 460:/Users/reza.kalfane/Workspaces/Daisy/DaisyExamples/libDaisy/Drivers/CMSIS/Include/core_cm7.h ****   __IOM uint32_t CCR;                    /*!< Offset: 0x014 (R/W)  Configuration Control Register *
 461:/Users/reza.kalfane/Workspaces/Daisy/DaisyExamples/libDaisy/Drivers/CMSIS/Include/core_cm7.h ****   __IOM uint8_t  SHPR[12U];              /*!< Offset: 0x018 (R/W)  System Handlers Priority Registe
 462:/Users/reza.kalfane/Workspaces/Daisy/DaisyExamples/libDaisy/Drivers/CMSIS/Include/core_cm7.h ****   __IOM uint32_t SHCSR;                  /*!< Offset: 0x024 (R/W)  System Handler Control and State
 463:/Users/reza.kalfane/Workspaces/Daisy/DaisyExamples/libDaisy/Drivers/CMSIS/Include/core_cm7.h ****   __IOM uint32_t CFSR;                   /*!< Offset: 0x028 (R/W)  Configurable Fault Status Regist
 464:/Users/reza.kalfane/Workspaces/Daisy/DaisyExamples/libDaisy/Drivers/CMSIS/Include/core_cm7.h ****   __IOM uint32_t HFSR;                   /*!< Offset: 0x02C (R/W)  HardFault Status Register */
 465:/Users/reza.kalfane/Workspaces/Daisy/DaisyExamples/libDaisy/Drivers/CMSIS/Include/core_cm7.h ****   __IOM uint32_t DFSR;                   /*!< Offset: 0x030 (R/W)  Debug Fault Status Register */
 466:/Users/reza.kalfane/Workspaces/Daisy/DaisyExamples/libDaisy/Drivers/CMSIS/Include/core_cm7.h ****   __IOM uint32_t MMFAR;                  /*!< Offset: 0x034 (R/W)  MemManage Fault Address Register
 467:/Users/reza.kalfane/Workspaces/Daisy/DaisyExamples/libDaisy/Drivers/CMSIS/Include/core_cm7.h ****   __IOM uint32_t BFAR;                   /*!< Offset: 0x038 (R/W)  BusFault Address Register */
 468:/Users/reza.kalfane/Workspaces/Daisy/DaisyExamples/libDaisy/Drivers/CMSIS/Include/core_cm7.h ****   __IOM uint32_t AFSR;                   /*!< Offset: 0x03C (R/W)  Auxiliary Fault Status Register 
 469:/Users/reza.kalfane/Workspaces/Daisy/DaisyExamples/libDaisy/Drivers/CMSIS/Include/core_cm7.h ****   __IM  uint32_t ID_PFR[2U];             /*!< Offset: 0x040 (R/ )  Processor Feature Register */
 470:/Users/reza.kalfane/Workspaces/Daisy/DaisyExamples/libDaisy/Drivers/CMSIS/Include/core_cm7.h ****   __IM  uint32_t ID_DFR;                 /*!< Offset: 0x048 (R/ )  Debug Feature Register */
 471:/Users/reza.kalfane/Workspaces/Daisy/DaisyExamples/libDaisy/Drivers/CMSIS/Include/core_cm7.h ****   __IM  uint32_t ID_AFR;                 /*!< Offset: 0x04C (R/ )  Auxiliary Feature Register */
 472:/Users/reza.kalfane/Workspaces/Daisy/DaisyExamples/libDaisy/Drivers/CMSIS/Include/core_cm7.h ****   __IM  uint32_t ID_MFR[4U];             /*!< Offset: 0x050 (R/ )  Memory Model Feature Register */
 473:/Users/reza.kalfane/Workspaces/Daisy/DaisyExamples/libDaisy/Drivers/CMSIS/Include/core_cm7.h ****   __IM  uint32_t ID_ISAR[5U];            /*!< Offset: 0x060 (R/ )  Instruction Set Attributes Regis
ARM GAS  /tmp/claude-502/ccFotbfS.s 			page 71


 474:/Users/reza.kalfane/Workspaces/Daisy/DaisyExamples/libDaisy/Drivers/CMSIS/Include/core_cm7.h ****         uint32_t RESERVED0[1U];
 475:/Users/reza.kalfane/Workspaces/Daisy/DaisyExamples/libDaisy/Drivers/CMSIS/Include/core_cm7.h ****   __IM  uint32_t CLIDR;                  /*!< Offset: 0x078 (R/ )  Cache Level ID register */
 476:/Users/reza.kalfane/Workspaces/Daisy/DaisyExamples/libDaisy/Drivers/CMSIS/Include/core_cm7.h ****   __IM  uint32_t CTR;                    /*!< Offset: 0x07C (R/ )  Cache Type register */
 477:/Users/reza.kalfane/Workspaces/Daisy/DaisyExamples/libDaisy/Drivers/CMSIS/Include/core_cm7.h ****   __IM  uint32_t CCSIDR;                 /*!< Offset: 0x080 (R/ )  Cache Size ID Register */
 478:/Users/reza.kalfane/Workspaces/Daisy/DaisyExamples/libDaisy/Drivers/CMSIS/Include/core_cm7.h ****   __IOM uint32_t CSSELR;                 /*!< Offset: 0x084 (R/W)  Cache Size Selection Register */
 479:/Users/reza.kalfane/Workspaces/Daisy/DaisyExamples/libDaisy/Drivers/CMSIS/Include/core_cm7.h ****   __IOM uint32_t CPACR;                  /*!< Offset: 0x088 (R/W)  Coprocessor Access Control Regis
 480:/Users/reza.kalfane/Workspaces/Daisy/DaisyExamples/libDaisy/Drivers/CMSIS/Include/core_cm7.h ****         uint32_t RESERVED3[93U];
 481:/Users/reza.kalfane/Workspaces/Daisy/DaisyExamples/libDaisy/Drivers/CMSIS/Include/core_cm7.h ****   __OM  uint32_t STIR;                   /*!< Offset: 0x200 ( /W)  Software Triggered Interrupt Reg
 482:/Users/reza.kalfane/Workspaces/Daisy/DaisyExamples/libDaisy/Drivers/CMSIS/Include/core_cm7.h ****         uint32_t RESERVED4[15U];
 483:/Users/reza.kalfane/Workspaces/Daisy/DaisyExamples/libDaisy/Drivers/CMSIS/Include/core_cm7.h ****   __IM  uint32_t MVFR0;                  /*!< Offset: 0x240 (R/ )  Media and VFP Feature Register 0
 484:/Users/reza.kalfane/Workspaces/Daisy/DaisyExamples/libDaisy/Drivers/CMSIS/Include/core_cm7.h ****   __IM  uint32_t MVFR1;                  /*!< Offset: 0x244 (R/ )  Media and VFP Feature Register 1
 485:/Users/reza.kalfane/Workspaces/Daisy/DaisyExamples/libDaisy/Drivers/CMSIS/Include/core_cm7.h ****   __IM  uint32_t MVFR2;                  /*!< Offset: 0x248 (R/ )  Media and VFP Feature Register 1
 486:/Users/reza.kalfane/Workspaces/Daisy/DaisyExamples/libDaisy/Drivers/CMSIS/Include/core_cm7.h ****         uint32_t RESERVED5[1U];
 487:/Users/reza.kalfane/Workspaces/Daisy/DaisyExamples/libDaisy/Drivers/CMSIS/Include/core_cm7.h ****   __OM  uint32_t ICIALLU;                /*!< Offset: 0x250 ( /W)  I-Cache Invalidate All to PoU */
 488:/Users/reza.kalfane/Workspaces/Daisy/DaisyExamples/libDaisy/Drivers/CMSIS/Include/core_cm7.h ****         uint32_t RESERVED6[1U];
 489:/Users/reza.kalfane/Workspaces/Daisy/DaisyExamples/libDaisy/Drivers/CMSIS/Include/core_cm7.h ****   __OM  uint32_t ICIMVAU;                /*!< Offset: 0x258 ( /W)  I-Cache Invalidate by MVA to PoU
 490:/Users/reza.kalfane/Workspaces/Daisy/DaisyExamples/libDaisy/Drivers/CMSIS/Include/core_cm7.h ****   __OM  uint32_t DCIMVAC;                /*!< Offset: 0x25C ( /W)  D-Cache Invalidate by MVA to PoC
 491:/Users/reza.kalfane/Workspaces/Daisy/DaisyExamples/libDaisy/Drivers/CMSIS/Include/core_cm7.h ****   __OM  uint32_t DCISW;                  /*!< Offset: 0x260 ( /W)  D-Cache Invalidate by Set-way */
 492:/Users/reza.kalfane/Workspaces/Daisy/DaisyExamples/libDaisy/Drivers/CMSIS/Include/core_cm7.h ****   __OM  uint32_t DCCMVAU;                /*!< Offset: 0x264 ( /W)  D-Cache Clean by MVA to PoU */
 493:/Users/reza.kalfane/Workspaces/Daisy/DaisyExamples/libDaisy/Drivers/CMSIS/Include/core_cm7.h ****   __OM  uint32_t DCCMVAC;                /*!< Offset: 0x268 ( /W)  D-Cache Clean by MVA to PoC */
 494:/Users/reza.kalfane/Workspaces/Daisy/DaisyExamples/libDaisy/Drivers/CMSIS/Include/core_cm7.h ****   __OM  uint32_t DCCSW;                  /*!< Offset: 0x26C ( /W)  D-Cache Clean by Set-way */
 495:/Users/reza.kalfane/Workspaces/Daisy/DaisyExamples/libDaisy/Drivers/CMSIS/Include/core_cm7.h ****   __OM  uint32_t DCCIMVAC;               /*!< Offset: 0x270 ( /W)  D-Cache Clean and Invalidate by 
 496:/Users/reza.kalfane/Workspaces/Daisy/DaisyExamples/libDaisy/Drivers/CMSIS/Include/core_cm7.h ****   __OM  uint32_t DCCISW;                 /*!< Offset: 0x274 ( /W)  D-Cache Clean and Invalidate by 
 497:/Users/reza.kalfane/Workspaces/Daisy/DaisyExamples/libDaisy/Drivers/CMSIS/Include/core_cm7.h ****         uint32_t RESERVED7[6U];
 498:/Users/reza.kalfane/Workspaces/Daisy/DaisyExamples/libDaisy/Drivers/CMSIS/Include/core_cm7.h ****   __IOM uint32_t ITCMCR;                 /*!< Offset: 0x290 (R/W)  Instruction Tightly-Coupled Memo
 499:/Users/reza.kalfane/Workspaces/Daisy/DaisyExamples/libDaisy/Drivers/CMSIS/Include/core_cm7.h ****   __IOM uint32_t DTCMCR;                 /*!< Offset: 0x294 (R/W)  Data Tightly-Coupled Memory Cont
 500:/Users/reza.kalfane/Workspaces/Daisy/DaisyExamples/libDaisy/Drivers/CMSIS/Include/core_cm7.h ****   __IOM uint32_t AHBPCR;                 /*!< Offset: 0x298 (R/W)  AHBP Control Register */
 501:/Users/reza.kalfane/Workspaces/Daisy/DaisyExamples/libDaisy/Drivers/CMSIS/Include/core_cm7.h ****   __IOM uint32_t CACR;                   /*!< Offset: 0x29C (R/W)  L1 Cache Control Register */
 502:/Users/reza.kalfane/Workspaces/Daisy/DaisyExamples/libDaisy/Drivers/CMSIS/Include/core_cm7.h ****   __IOM uint32_t AHBSCR;                 /*!< Offset: 0x2A0 (R/W)  AHB Slave Control Register */
 503:/Users/reza.kalfane/Workspaces/Daisy/DaisyExamples/libDaisy/Drivers/CMSIS/Include/core_cm7.h ****         uint32_t RESERVED8[1U];
 504:/Users/reza.kalfane/Workspaces/Daisy/DaisyExamples/libDaisy/Drivers/CMSIS/Include/core_cm7.h ****   __IOM uint32_t ABFSR;                  /*!< Offset: 0x2A8 (R/W)  Auxiliary Bus Fault Status Regis
 505:/Users/reza.kalfane/Workspaces/Daisy/DaisyExamples/libDaisy/Drivers/CMSIS/Include/core_cm7.h **** } SCB_Type;
 506:/Users/reza.kalfane/Workspaces/Daisy/DaisyExamples/libDaisy/Drivers/CMSIS/Include/core_cm7.h **** 
 507:/Users/reza.kalfane/Workspaces/Daisy/DaisyExamples/libDaisy/Drivers/CMSIS/Include/core_cm7.h **** /* SCB CPUID Register Definitions */
 508:/Users/reza.kalfane/Workspaces/Daisy/DaisyExamples/libDaisy/Drivers/CMSIS/Include/core_cm7.h **** #define SCB_CPUID_IMPLEMENTER_Pos          24U                                            /*!< SCB 
 509:/Users/reza.kalfane/Workspaces/Daisy/DaisyExamples/libDaisy/Drivers/CMSIS/Include/core_cm7.h **** #define SCB_CPUID_IMPLEMENTER_Msk          (0xFFUL << SCB_CPUID_IMPLEMENTER_Pos)          /*!< SCB 
 510:/Users/reza.kalfane/Workspaces/Daisy/DaisyExamples/libDaisy/Drivers/CMSIS/Include/core_cm7.h **** 
 511:/Users/reza.kalfane/Workspaces/Daisy/DaisyExamples/libDaisy/Drivers/CMSIS/Include/core_cm7.h **** #define SCB_CPUID_VARIANT_Pos              20U                                            /*!< SCB 
 512:/Users/reza.kalfane/Workspaces/Daisy/DaisyExamples/libDaisy/Drivers/CMSIS/Include/core_cm7.h **** #define SCB_CPUID_VARIANT_Msk              (0xFUL << SCB_CPUID_VARIANT_Pos)               /*!< SCB 
 513:/Users/reza.kalfane/Workspaces/Daisy/DaisyExamples/libDaisy/Drivers/CMSIS/Include/core_cm7.h **** 
 514:/Users/reza.kalfane/Workspaces/Daisy/DaisyExamples/libDaisy/Drivers/CMSIS/Include/core_cm7.h **** #define SCB_CPUID_ARCHITECTURE_Pos         16U                                            /*!< SCB 
 515:/Users/reza.kalfane/Workspaces/Daisy/DaisyExamples/libDaisy/Drivers/CMSIS/Include/core_cm7.h **** #define SCB_CPUID_ARCHITECTURE_Msk         (0xFUL << SCB_CPUID_ARCHITECTURE_Pos)          /*!< SCB 
 516:/Users/reza.kalfane/Workspaces/Daisy/DaisyExamples/libDaisy/Drivers/CMSIS/Include/core_cm7.h **** 
 517:/Users/reza.kalfane/Workspaces/Daisy/DaisyExamples/libDaisy/Drivers/CMSIS/Include/core_cm7.h **** #define SCB_CPUID_PARTNO_Pos                4U                                            /*!< SCB 
 518:/Users/reza.kalfane/Workspaces/Daisy/DaisyExamples/libDaisy/Drivers/CMSIS/Include/core_cm7.h **** #define SCB_CPUID_PARTNO_Msk               (0xFFFUL << SCB_CPUID_PARTNO_Pos)              /*!< SCB 
 519:/Users/reza.kalfane/Workspaces/Daisy/DaisyExamples/libDaisy/Drivers/CMSIS/Include/core_cm7.h **** 
 520:/Users/reza.kalfane/Workspaces/Daisy/DaisyExamples/libDaisy/Drivers/CMSIS/Include/core_cm7.h **** #define SCB_CPUID_REVISION_Pos              0U                                            /*!< SCB 
 521:/Users/reza.kalfane/Workspaces/Daisy/DaisyExamples/libDaisy/Drivers/CMSIS/Include/core_cm7.h **** #define SCB_CPUID_REVISION_Msk             (0xFUL /*<< SCB_CPUID_REVISION_Pos*/)          /*!< SCB 
 522:/Users/reza.kalfane/Workspaces/Daisy/DaisyExamples/libDaisy/Drivers/CMSIS/Include/core_cm7.h **** 
 523:/Users/reza.kalfane/Workspaces/Daisy/DaisyExamples/libDaisy/Drivers/CMSIS/Include/core_cm7.h **** /* SCB Interrupt Control State Register Definitions */
 524:/Users/reza.kalfane/Workspaces/Daisy/DaisyExamples/libDaisy/Drivers/CMSIS/Include/core_cm7.h **** #define SCB_ICSR_NMIPENDSET_Pos            31U                                            /*!< SCB 
 525:/Users/reza.kalfane/Workspaces/Daisy/DaisyExamples/libDaisy/Drivers/CMSIS/Include/core_cm7.h **** #define SCB_ICSR_NMIPENDSET_Msk            (1UL << SCB_ICSR_NMIPENDSET_Pos)               /*!< SCB 
 526:/Users/reza.kalfane/Workspaces/Daisy/DaisyExamples/libDaisy/Drivers/CMSIS/Include/core_cm7.h **** 
 527:/Users/reza.kalfane/Workspaces/Daisy/DaisyExamples/libDaisy/Drivers/CMSIS/Include/core_cm7.h **** #define SCB_ICSR_PENDSVSET_Pos             28U                                            /*!< SCB 
 528:/Users/reza.kalfane/Workspaces/Daisy/DaisyExamples/libDaisy/Drivers/CMSIS/Include/core_cm7.h **** #define SCB_ICSR_PENDSVSET_Msk             (1UL << SCB_ICSR_PENDSVSET_Pos)                /*!< SCB 
 529:/Users/reza.kalfane/Workspaces/Daisy/DaisyExamples/libDaisy/Drivers/CMSIS/Include/core_cm7.h **** 
 530:/Users/reza.kalfane/Workspaces/Daisy/DaisyExamples/libDaisy/Drivers/CMSIS/Include/core_cm7.h **** #define SCB_ICSR_PENDSVCLR_Pos             27U                                            /*!< SCB 
ARM GAS  /tmp/claude-502/ccFotbfS.s 			page 72


 531:/Users/reza.kalfane/Workspaces/Daisy/DaisyExamples/libDaisy/Drivers/CMSIS/Include/core_cm7.h **** #define SCB_ICSR_PENDSVCLR_Msk             (1UL << SCB_ICSR_PENDSVCLR_Pos)                /*!< SCB 
 532:/Users/reza.kalfane/Workspaces/Daisy/DaisyExamples/libDaisy/Drivers/CMSIS/Include/core_cm7.h **** 
 533:/Users/reza.kalfane/Workspaces/Daisy/DaisyExamples/libDaisy/Drivers/CMSIS/Include/core_cm7.h **** #define SCB_ICSR_PENDSTSET_Pos             26U                                            /*!< SCB 
 534:/Users/reza.kalfane/Workspaces/Daisy/DaisyExamples/libDaisy/Drivers/CMSIS/Include/core_cm7.h **** #define SCB_ICSR_PENDSTSET_Msk             (1UL << SCB_ICSR_PENDSTSET_Pos)                /*!< SCB 
 535:/Users/reza.kalfane/Workspaces/Daisy/DaisyExamples/libDaisy/Drivers/CMSIS/Include/core_cm7.h **** 
 536:/Users/reza.kalfane/Workspaces/Daisy/DaisyExamples/libDaisy/Drivers/CMSIS/Include/core_cm7.h **** #define SCB_ICSR_PENDSTCLR_Pos             25U                                            /*!< SCB 
 537:/Users/reza.kalfane/Workspaces/Daisy/DaisyExamples/libDaisy/Drivers/CMSIS/Include/core_cm7.h **** #define SCB_ICSR_PENDSTCLR_Msk             (1UL << SCB_ICSR_PENDSTCLR_Pos)                /*!< SCB 
 538:/Users/reza.kalfane/Workspaces/Daisy/DaisyExamples/libDaisy/Drivers/CMSIS/Include/core_cm7.h **** 
 539:/Users/reza.kalfane/Workspaces/Daisy/DaisyExamples/libDaisy/Drivers/CMSIS/Include/core_cm7.h **** #define SCB_ICSR_ISRPREEMPT_Pos            23U                                            /*!< SCB 
 540:/Users/reza.kalfane/Workspaces/Daisy/DaisyExamples/libDaisy/Drivers/CMSIS/Include/core_cm7.h **** #define SCB_ICSR_ISRPREEMPT_Msk            (1UL << SCB_ICSR_ISRPREEMPT_Pos)               /*!< SCB 
 541:/Users/reza.kalfane/Workspaces/Daisy/DaisyExamples/libDaisy/Drivers/CMSIS/Include/core_cm7.h **** 
 542:/Users/reza.kalfane/Workspaces/Daisy/DaisyExamples/libDaisy/Drivers/CMSIS/Include/core_cm7.h **** #define SCB_ICSR_ISRPENDING_Pos            22U                                            /*!< SCB 
 543:/Users/reza.kalfane/Workspaces/Daisy/DaisyExamples/libDaisy/Drivers/CMSIS/Include/core_cm7.h **** #define SCB_ICSR_ISRPENDING_Msk            (1UL << SCB_ICSR_ISRPENDING_Pos)               /*!< SCB 
 544:/Users/reza.kalfane/Workspaces/Daisy/DaisyExamples/libDaisy/Drivers/CMSIS/Include/core_cm7.h **** 
 545:/Users/reza.kalfane/Workspaces/Daisy/DaisyExamples/libDaisy/Drivers/CMSIS/Include/core_cm7.h **** #define SCB_ICSR_VECTPENDING_Pos           12U                                            /*!< SCB 
 546:/Users/reza.kalfane/Workspaces/Daisy/DaisyExamples/libDaisy/Drivers/CMSIS/Include/core_cm7.h **** #define SCB_ICSR_VECTPENDING_Msk           (0x1FFUL << SCB_ICSR_VECTPENDING_Pos)          /*!< SCB 
 547:/Users/reza.kalfane/Workspaces/Daisy/DaisyExamples/libDaisy/Drivers/CMSIS/Include/core_cm7.h **** 
 548:/Users/reza.kalfane/Workspaces/Daisy/DaisyExamples/libDaisy/Drivers/CMSIS/Include/core_cm7.h **** #define SCB_ICSR_RETTOBASE_Pos             11U                                            /*!< SCB 
 549:/Users/reza.kalfane/Workspaces/Daisy/DaisyExamples/libDaisy/Drivers/CMSIS/Include/core_cm7.h **** #define SCB_ICSR_RETTOBASE_Msk             (1UL << SCB_ICSR_RETTOBASE_Pos)                /*!< SCB 
 550:/Users/reza.kalfane/Workspaces/Daisy/DaisyExamples/libDaisy/Drivers/CMSIS/Include/core_cm7.h **** 
 551:/Users/reza.kalfane/Workspaces/Daisy/DaisyExamples/libDaisy/Drivers/CMSIS/Include/core_cm7.h **** #define SCB_ICSR_VECTACTIVE_Pos             0U                                            /*!< SCB 
 552:/Users/reza.kalfane/Workspaces/Daisy/DaisyExamples/libDaisy/Drivers/CMSIS/Include/core_cm7.h **** #define SCB_ICSR_VECTACTIVE_Msk            (0x1FFUL /*<< SCB_ICSR_VECTACTIVE_Pos*/)       /*!< SCB 
 553:/Users/reza.kalfane/Workspaces/Daisy/DaisyExamples/libDaisy/Drivers/CMSIS/Include/core_cm7.h **** 
 554:/Users/reza.kalfane/Workspaces/Daisy/DaisyExamples/libDaisy/Drivers/CMSIS/Include/core_cm7.h **** /* SCB Vector Table Offset Register Definitions */
 555:/Users/reza.kalfane/Workspaces/Daisy/DaisyExamples/libDaisy/Drivers/CMSIS/Include/core_cm7.h **** #define SCB_VTOR_TBLOFF_Pos                 7U                                            /*!< SCB 
 556:/Users/reza.kalfane/Workspaces/Daisy/DaisyExamples/libDaisy/Drivers/CMSIS/Include/core_cm7.h **** #define SCB_VTOR_TBLOFF_Msk                (0x1FFFFFFUL << SCB_VTOR_TBLOFF_Pos)           /*!< SCB 
 557:/Users/reza.kalfane/Workspaces/Daisy/DaisyExamples/libDaisy/Drivers/CMSIS/Include/core_cm7.h **** 
 558:/Users/reza.kalfane/Workspaces/Daisy/DaisyExamples/libDaisy/Drivers/CMSIS/Include/core_cm7.h **** /* SCB Application Interrupt and Reset Control Register Definitions */
 559:/Users/reza.kalfane/Workspaces/Daisy/DaisyExamples/libDaisy/Drivers/CMSIS/Include/core_cm7.h **** #define SCB_AIRCR_VECTKEY_Pos              16U                                            /*!< SCB 
 560:/Users/reza.kalfane/Workspaces/Daisy/DaisyExamples/libDaisy/Drivers/CMSIS/Include/core_cm7.h **** #define SCB_AIRCR_VECTKEY_Msk              (0xFFFFUL << SCB_AIRCR_VECTKEY_Pos)            /*!< SCB 
 561:/Users/reza.kalfane/Workspaces/Daisy/DaisyExamples/libDaisy/Drivers/CMSIS/Include/core_cm7.h **** 
 562:/Users/reza.kalfane/Workspaces/Daisy/DaisyExamples/libDaisy/Drivers/CMSIS/Include/core_cm7.h **** #define SCB_AIRCR_VECTKEYSTAT_Pos          16U                                            /*!< SCB 
 563:/Users/reza.kalfane/Workspaces/Daisy/DaisyExamples/libDaisy/Drivers/CMSIS/Include/core_cm7.h **** #define SCB_AIRCR_VECTKEYSTAT_Msk          (0xFFFFUL << SCB_AIRCR_VECTKEYSTAT_Pos)        /*!< SCB 
 564:/Users/reza.kalfane/Workspaces/Daisy/DaisyExamples/libDaisy/Drivers/CMSIS/Include/core_cm7.h **** 
 565:/Users/reza.kalfane/Workspaces/Daisy/DaisyExamples/libDaisy/Drivers/CMSIS/Include/core_cm7.h **** #define SCB_AIRCR_ENDIANESS_Pos            15U                                            /*!< SCB 
 566:/Users/reza.kalfane/Workspaces/Daisy/DaisyExamples/libDaisy/Drivers/CMSIS/Include/core_cm7.h **** #define SCB_AIRCR_ENDIANESS_Msk            (1UL << SCB_AIRCR_ENDIANESS_Pos)               /*!< SCB 
 567:/Users/reza.kalfane/Workspaces/Daisy/DaisyExamples/libDaisy/Drivers/CMSIS/Include/core_cm7.h **** 
 568:/Users/reza.kalfane/Workspaces/Daisy/DaisyExamples/libDaisy/Drivers/CMSIS/Include/core_cm7.h **** #define SCB_AIRCR_PRIGROUP_Pos              8U                                            /*!< SCB 
 569:/Users/reza.kalfane/Workspaces/Daisy/DaisyExamples/libDaisy/Drivers/CMSIS/Include/core_cm7.h **** #define SCB_AIRCR_PRIGROUP_Msk             (7UL << SCB_AIRCR_PRIGROUP_Pos)                /*!< SCB 
 570:/Users/reza.kalfane/Workspaces/Daisy/DaisyExamples/libDaisy/Drivers/CMSIS/Include/core_cm7.h **** 
 571:/Users/reza.kalfane/Workspaces/Daisy/DaisyExamples/libDaisy/Drivers/CMSIS/Include/core_cm7.h **** #define SCB_AIRCR_SYSRESETREQ_Pos           2U                                            /*!< SCB 
 572:/Users/reza.kalfane/Workspaces/Daisy/DaisyExamples/libDaisy/Drivers/CMSIS/Include/core_cm7.h **** #define SCB_AIRCR_SYSRESETREQ_Msk          (1UL << SCB_AIRCR_SYSRESETREQ_Pos)             /*!< SCB 
 573:/Users/reza.kalfane/Workspaces/Daisy/DaisyExamples/libDaisy/Drivers/CMSIS/Include/core_cm7.h **** 
 574:/Users/reza.kalfane/Workspaces/Daisy/DaisyExamples/libDaisy/Drivers/CMSIS/Include/core_cm7.h **** #define SCB_AIRCR_VECTCLRACTIVE_Pos         1U                                            /*!< SCB 
 575:/Users/reza.kalfane/Workspaces/Daisy/DaisyExamples/libDaisy/Drivers/CMSIS/Include/core_cm7.h **** #define SCB_AIRCR_VECTCLRACTIVE_Msk        (1UL << SCB_AIRCR_VECTCLRACTIVE_Pos)           /*!< SCB 
 576:/Users/reza.kalfane/Workspaces/Daisy/DaisyExamples/libDaisy/Drivers/CMSIS/Include/core_cm7.h **** 
 577:/Users/reza.kalfane/Workspaces/Daisy/DaisyExamples/libDaisy/Drivers/CMSIS/Include/core_cm7.h **** #define SCB_AIRCR_VECTRESET_Pos             0U                                            /*!< SCB 
 578:/Users/reza.kalfane/Workspaces/Daisy/DaisyExamples/libDaisy/Drivers/CMSIS/Include/core_cm7.h **** #define SCB_AIRCR_VECTRESET_Msk            (1UL /*<< SCB_AIRCR_VECTRESET_Pos*/)           /*!< SCB 
 579:/Users/reza.kalfane/Workspaces/Daisy/DaisyExamples/libDaisy/Drivers/CMSIS/Include/core_cm7.h **** 
 580:/Users/reza.kalfane/Workspaces/Daisy/DaisyExamples/libDaisy/Drivers/CMSIS/Include/core_cm7.h **** /* SCB System Control Register Definitions */
 581:/Users/reza.kalfane/Workspaces/Daisy/DaisyExamples/libDaisy/Drivers/CMSIS/Include/core_cm7.h **** #define SCB_SCR_SEVONPEND_Pos               4U                                            /*!< SCB 
 582:/Users/reza.kalfane/Workspaces/Daisy/DaisyExamples/libDaisy/Drivers/CMSIS/Include/core_cm7.h **** #define SCB_SCR_SEVONPEND_Msk              (1UL << SCB_SCR_SEVONPEND_Pos)                 /*!< SCB 
 583:/Users/reza.kalfane/Workspaces/Daisy/DaisyExamples/libDaisy/Drivers/CMSIS/Include/core_cm7.h **** 
 584:/Users/reza.kalfane/Workspaces/Daisy/DaisyExamples/libDaisy/Drivers/CMSIS/Include/core_cm7.h **** #define SCB_SCR_SLEEPDEEP_Pos               2U                                            /*!< SCB 
 585:/Users/reza.kalfane/Workspaces/Daisy/DaisyExamples/libDaisy/Drivers/CMSIS/Include/core_cm7.h **** #define SCB_SCR_SLEEPDEEP_Msk              (1UL << SCB_SCR_SLEEPDEEP_Pos)                 /*!< SCB 
 586:/Users/reza.kalfane/Workspaces/Daisy/DaisyExamples/libDaisy/Drivers/CMSIS/Include/core_cm7.h **** 
 587:/Users/reza.kalfane/Workspaces/Daisy/DaisyExamples/libDaisy/Drivers/CMSIS/Include/core_cm7.h **** #define SCB_SCR_SLEEPONEXIT_Pos             1U                                            /*!< SCB 
ARM GAS  /tmp/claude-502/ccFotbfS.s 			page 73


 588:/Users/reza.kalfane/Workspaces/Daisy/DaisyExamples/libDaisy/Drivers/CMSIS/Include/core_cm7.h **** #define SCB_SCR_SLEEPONEXIT_Msk            (1UL << SCB_SCR_SLEEPONEXIT_Pos)               /*!< SCB 
 589:/Users/reza.kalfane/Workspaces/Daisy/DaisyExamples/libDaisy/Drivers/CMSIS/Include/core_cm7.h **** 
 590:/Users/reza.kalfane/Workspaces/Daisy/DaisyExamples/libDaisy/Drivers/CMSIS/Include/core_cm7.h **** /* SCB Configuration Control Register Definitions */
 591:/Users/reza.kalfane/Workspaces/Daisy/DaisyExamples/libDaisy/Drivers/CMSIS/Include/core_cm7.h **** #define SCB_CCR_BP_Pos                      18U                                           /*!< SCB 
 592:/Users/reza.kalfane/Workspaces/Daisy/DaisyExamples/libDaisy/Drivers/CMSIS/Include/core_cm7.h **** #define SCB_CCR_BP_Msk                     (1UL << SCB_CCR_BP_Pos)                        /*!< SCB 
 593:/Users/reza.kalfane/Workspaces/Daisy/DaisyExamples/libDaisy/Drivers/CMSIS/Include/core_cm7.h **** 
 594:/Users/reza.kalfane/Workspaces/Daisy/DaisyExamples/libDaisy/Drivers/CMSIS/Include/core_cm7.h **** #define SCB_CCR_IC_Pos                      17U                                           /*!< SCB 
 595:/Users/reza.kalfane/Workspaces/Daisy/DaisyExamples/libDaisy/Drivers/CMSIS/Include/core_cm7.h **** #define SCB_CCR_IC_Msk                     (1UL << SCB_CCR_IC_Pos)                        /*!< SCB 
 596:/Users/reza.kalfane/Workspaces/Daisy/DaisyExamples/libDaisy/Drivers/CMSIS/Include/core_cm7.h **** 
 597:/Users/reza.kalfane/Workspaces/Daisy/DaisyExamples/libDaisy/Drivers/CMSIS/Include/core_cm7.h **** #define SCB_CCR_DC_Pos                      16U                                           /*!< SCB 
 598:/Users/reza.kalfane/Workspaces/Daisy/DaisyExamples/libDaisy/Drivers/CMSIS/Include/core_cm7.h **** #define SCB_CCR_DC_Msk                     (1UL << SCB_CCR_DC_Pos)                        /*!< SCB 
 599:/Users/reza.kalfane/Workspaces/Daisy/DaisyExamples/libDaisy/Drivers/CMSIS/Include/core_cm7.h **** 
 600:/Users/reza.kalfane/Workspaces/Daisy/DaisyExamples/libDaisy/Drivers/CMSIS/Include/core_cm7.h **** #define SCB_CCR_STKALIGN_Pos                9U                                            /*!< SCB 
 601:/Users/reza.kalfane/Workspaces/Daisy/DaisyExamples/libDaisy/Drivers/CMSIS/Include/core_cm7.h **** #define SCB_CCR_STKALIGN_Msk               (1UL << SCB_CCR_STKALIGN_Pos)                  /*!< SCB 
 602:/Users/reza.kalfane/Workspaces/Daisy/DaisyExamples/libDaisy/Drivers/CMSIS/Include/core_cm7.h **** 
 603:/Users/reza.kalfane/Workspaces/Daisy/DaisyExamples/libDaisy/Drivers/CMSIS/Include/core_cm7.h **** #define SCB_CCR_BFHFNMIGN_Pos               8U                                            /*!< SCB 
 604:/Users/reza.kalfane/Workspaces/Daisy/DaisyExamples/libDaisy/Drivers/CMSIS/Include/core_cm7.h **** #define SCB_CCR_BFHFNMIGN_Msk              (1UL << SCB_CCR_BFHFNMIGN_Pos)                 /*!< SCB 
 605:/Users/reza.kalfane/Workspaces/Daisy/DaisyExamples/libDaisy/Drivers/CMSIS/Include/core_cm7.h **** 
 606:/Users/reza.kalfane/Workspaces/Daisy/DaisyExamples/libDaisy/Drivers/CMSIS/Include/core_cm7.h **** #define SCB_CCR_DIV_0_TRP_Pos               4U                                            /*!< SCB 
 607:/Users/reza.kalfane/Workspaces/Daisy/DaisyExamples/libDaisy/Drivers/CMSIS/Include/core_cm7.h **** #define SCB_CCR_DIV_0_TRP_Msk              (1UL << SCB_CCR_DIV_0_TRP_Pos)                 /*!< SCB 
 608:/Users/reza.kalfane/Workspaces/Daisy/DaisyExamples/libDaisy/Drivers/CMSIS/Include/core_cm7.h **** 
 609:/Users/reza.kalfane/Workspaces/Daisy/DaisyExamples/libDaisy/Drivers/CMSIS/Include/core_cm7.h **** #define SCB_CCR_UNALIGN_TRP_Pos             3U                                            /*!< SCB 
 610:/Users/reza.kalfane/Workspaces/Daisy/DaisyExamples/libDaisy/Drivers/CMSIS/Include/core_cm7.h **** #define SCB_CCR_UNALIGN_TRP_Msk            (1UL << SCB_CCR_UNALIGN_TRP_Pos)               /*!< SCB 
 611:/Users/reza.kalfane/Workspaces/Daisy/DaisyExamples/libDaisy/Drivers/CMSIS/Include/core_cm7.h **** 
 612:/Users/reza.kalfane/Workspaces/Daisy/DaisyExamples/libDaisy/Drivers/CMSIS/Include/core_cm7.h **** #define SCB_CCR_USERSETMPEND_Pos            1U                                            /*!< SCB 
 613:/Users/reza.kalfane/Workspaces/Daisy/DaisyExamples/libDaisy/Drivers/CMSIS/Include/core_cm7.h **** #define SCB_CCR_USERSETMPEND_Msk           (1UL << SCB_CCR_USERSETMPEND_Pos)              /*!< SCB 
 614:/Users/reza.kalfane/Workspaces/Daisy/DaisyExamples/libDaisy/Drivers/CMSIS/Include/core_cm7.h **** 
 615:/Users/reza.kalfane/Workspaces/Daisy/DaisyExamples/libDaisy/Drivers/CMSIS/Include/core_cm7.h **** #define SCB_CCR_NONBASETHRDENA_Pos          0U                                            /*!< SCB 
 616:/Users/reza.kalfane/Workspaces/Daisy/DaisyExamples/libDaisy/Drivers/CMSIS/Include/core_cm7.h **** #define SCB_CCR_NONBASETHRDENA_Msk         (1UL /*<< SCB_CCR_NONBASETHRDENA_Pos*/)        /*!< SCB 
 617:/Users/reza.kalfane/Workspaces/Daisy/DaisyExamples/libDaisy/Drivers/CMSIS/Include/core_cm7.h **** 
 618:/Users/reza.kalfane/Workspaces/Daisy/DaisyExamples/libDaisy/Drivers/CMSIS/Include/core_cm7.h **** /* SCB System Handler Control and State Register Definitions */
 619:/Users/reza.kalfane/Workspaces/Daisy/DaisyExamples/libDaisy/Drivers/CMSIS/Include/core_cm7.h **** #define SCB_SHCSR_USGFAULTENA_Pos          18U                                            /*!< SCB 
 620:/Users/reza.kalfane/Workspaces/Daisy/DaisyExamples/libDaisy/Drivers/CMSIS/Include/core_cm7.h **** #define SCB_SHCSR_USGFAULTENA_Msk          (1UL << SCB_SHCSR_USGFAULTENA_Pos)             /*!< SCB 
 621:/Users/reza.kalfane/Workspaces/Daisy/DaisyExamples/libDaisy/Drivers/CMSIS/Include/core_cm7.h **** 
 622:/Users/reza.kalfane/Workspaces/Daisy/DaisyExamples/libDaisy/Drivers/CMSIS/Include/core_cm7.h **** #define SCB_SHCSR_BUSFAULTENA_Pos          17U                                            /*!< SCB 
 623:/Users/reza.kalfane/Workspaces/Daisy/DaisyExamples/libDaisy/Drivers/CMSIS/Include/core_cm7.h **** #define SCB_SHCSR_BUSFAULTENA_Msk          (1UL << SCB_SHCSR_BUSFAULTENA_Pos)             /*!< SCB 
 624:/Users/reza.kalfane/Workspaces/Daisy/DaisyExamples/libDaisy/Drivers/CMSIS/Include/core_cm7.h **** 
 625:/Users/reza.kalfane/Workspaces/Daisy/DaisyExamples/libDaisy/Drivers/CMSIS/Include/core_cm7.h **** #define SCB_SHCSR_MEMFAULTENA_Pos          16U                                            /*!< SCB 
 626:/Users/reza.kalfane/Workspaces/Daisy/DaisyExamples/libDaisy/Drivers/CMSIS/Include/core_cm7.h **** #define SCB_SHCSR_MEMFAULTENA_Msk          (1UL << SCB_SHCSR_MEMFAULTENA_Pos)             /*!< SCB 
 627:/Users/reza.kalfane/Workspaces/Daisy/DaisyExamples/libDaisy/Drivers/CMSIS/Include/core_cm7.h **** 
 628:/Users/reza.kalfane/Workspaces/Daisy/DaisyExamples/libDaisy/Drivers/CMSIS/Include/core_cm7.h **** #define SCB_SHCSR_SVCALLPENDED_Pos         15U                                            /*!< SCB 
 629:/Users/reza.kalfane/Workspaces/Daisy/DaisyExamples/libDaisy/Drivers/CMSIS/Include/core_cm7.h **** #define SCB_SHCSR_SVCALLPENDED_Msk         (1UL << SCB_SHCSR_SVCALLPENDED_Pos)            /*!< SCB 
 630:/Users/reza.kalfane/Workspaces/Daisy/DaisyExamples/libDaisy/Drivers/CMSIS/Include/core_cm7.h **** 
 631:/Users/reza.kalfane/Workspaces/Daisy/DaisyExamples/libDaisy/Drivers/CMSIS/Include/core_cm7.h **** #define SCB_SHCSR_BUSFAULTPENDED_Pos       14U                                            /*!< SCB 
 632:/Users/reza.kalfane/Workspaces/Daisy/DaisyExamples/libDaisy/Drivers/CMSIS/Include/core_cm7.h **** #define SCB_SHCSR_BUSFAULTPENDED_Msk       (1UL << SCB_SHCSR_BUSFAULTPENDED_Pos)          /*!< SCB 
 633:/Users/reza.kalfane/Workspaces/Daisy/DaisyExamples/libDaisy/Drivers/CMSIS/Include/core_cm7.h **** 
 634:/Users/reza.kalfane/Workspaces/Daisy/DaisyExamples/libDaisy/Drivers/CMSIS/Include/core_cm7.h **** #define SCB_SHCSR_MEMFAULTPENDED_Pos       13U                                            /*!< SCB 
 635:/Users/reza.kalfane/Workspaces/Daisy/DaisyExamples/libDaisy/Drivers/CMSIS/Include/core_cm7.h **** #define SCB_SHCSR_MEMFAULTPENDED_Msk       (1UL << SCB_SHCSR_MEMFAULTPENDED_Pos)          /*!< SCB 
 636:/Users/reza.kalfane/Workspaces/Daisy/DaisyExamples/libDaisy/Drivers/CMSIS/Include/core_cm7.h **** 
 637:/Users/reza.kalfane/Workspaces/Daisy/DaisyExamples/libDaisy/Drivers/CMSIS/Include/core_cm7.h **** #define SCB_SHCSR_USGFAULTPENDED_Pos       12U                                            /*!< SCB 
 638:/Users/reza.kalfane/Workspaces/Daisy/DaisyExamples/libDaisy/Drivers/CMSIS/Include/core_cm7.h **** #define SCB_SHCSR_USGFAULTPENDED_Msk       (1UL << SCB_SHCSR_USGFAULTPENDED_Pos)          /*!< SCB 
 639:/Users/reza.kalfane/Workspaces/Daisy/DaisyExamples/libDaisy/Drivers/CMSIS/Include/core_cm7.h **** 
 640:/Users/reza.kalfane/Workspaces/Daisy/DaisyExamples/libDaisy/Drivers/CMSIS/Include/core_cm7.h **** #define SCB_SHCSR_SYSTICKACT_Pos           11U                                            /*!< SCB 
 641:/Users/reza.kalfane/Workspaces/Daisy/DaisyExamples/libDaisy/Drivers/CMSIS/Include/core_cm7.h **** #define SCB_SHCSR_SYSTICKACT_Msk           (1UL << SCB_SHCSR_SYSTICKACT_Pos)              /*!< SCB 
 642:/Users/reza.kalfane/Workspaces/Daisy/DaisyExamples/libDaisy/Drivers/CMSIS/Include/core_cm7.h **** 
 643:/Users/reza.kalfane/Workspaces/Daisy/DaisyExamples/libDaisy/Drivers/CMSIS/Include/core_cm7.h **** #define SCB_SHCSR_PENDSVACT_Pos            10U                                            /*!< SCB 
 644:/Users/reza.kalfane/Workspaces/Daisy/DaisyExamples/libDaisy/Drivers/CMSIS/Include/core_cm7.h **** #define SCB_SHCSR_PENDSVACT_Msk            (1UL << SCB_SHCSR_PENDSVACT_Pos)               /*!< SCB 
ARM GAS  /tmp/claude-502/ccFotbfS.s 			page 74


 645:/Users/reza.kalfane/Workspaces/Daisy/DaisyExamples/libDaisy/Drivers/CMSIS/Include/core_cm7.h **** 
 646:/Users/reza.kalfane/Workspaces/Daisy/DaisyExamples/libDaisy/Drivers/CMSIS/Include/core_cm7.h **** #define SCB_SHCSR_MONITORACT_Pos            8U                                            /*!< SCB 
 647:/Users/reza.kalfane/Workspaces/Daisy/DaisyExamples/libDaisy/Drivers/CMSIS/Include/core_cm7.h **** #define SCB_SHCSR_MONITORACT_Msk           (1UL << SCB_SHCSR_MONITORACT_Pos)              /*!< SCB 
 648:/Users/reza.kalfane/Workspaces/Daisy/DaisyExamples/libDaisy/Drivers/CMSIS/Include/core_cm7.h **** 
 649:/Users/reza.kalfane/Workspaces/Daisy/DaisyExamples/libDaisy/Drivers/CMSIS/Include/core_cm7.h **** #define SCB_SHCSR_SVCALLACT_Pos             7U                                            /*!< SCB 
 650:/Users/reza.kalfane/Workspaces/Daisy/DaisyExamples/libDaisy/Drivers/CMSIS/Include/core_cm7.h **** #define SCB_SHCSR_SVCALLACT_Msk            (1UL << SCB_SHCSR_SVCALLACT_Pos)               /*!< SCB 
 651:/Users/reza.kalfane/Workspaces/Daisy/DaisyExamples/libDaisy/Drivers/CMSIS/Include/core_cm7.h **** 
 652:/Users/reza.kalfane/Workspaces/Daisy/DaisyExamples/libDaisy/Drivers/CMSIS/Include/core_cm7.h **** #define SCB_SHCSR_USGFAULTACT_Pos           3U                                            /*!< SCB 
 653:/Users/reza.kalfane/Workspaces/Daisy/DaisyExamples/libDaisy/Drivers/CMSIS/Include/core_cm7.h **** #define SCB_SHCSR_USGFAULTACT_Msk          (1UL << SCB_SHCSR_USGFAULTACT_Pos)             /*!< SCB 
 654:/Users/reza.kalfane/Workspaces/Daisy/DaisyExamples/libDaisy/Drivers/CMSIS/Include/core_cm7.h **** 
 655:/Users/reza.kalfane/Workspaces/Daisy/DaisyExamples/libDaisy/Drivers/CMSIS/Include/core_cm7.h **** #define SCB_SHCSR_BUSFAULTACT_Pos           1U                                            /*!< SCB 
 656:/Users/reza.kalfane/Workspaces/Daisy/DaisyExamples/libDaisy/Drivers/CMSIS/Include/core_cm7.h **** #define SCB_SHCSR_BUSFAULTACT_Msk          (1UL << SCB_SHCSR_BUSFAULTACT_Pos)             /*!< SCB 
 657:/Users/reza.kalfane/Workspaces/Daisy/DaisyExamples/libDaisy/Drivers/CMSIS/Include/core_cm7.h **** 
 658:/Users/reza.kalfane/Workspaces/Daisy/DaisyExamples/libDaisy/Drivers/CMSIS/Include/core_cm7.h **** #define SCB_SHCSR_MEMFAULTACT_Pos           0U                                            /*!< SCB 
 659:/Users/reza.kalfane/Workspaces/Daisy/DaisyExamples/libDaisy/Drivers/CMSIS/Include/core_cm7.h **** #define SCB_SHCSR_MEMFAULTACT_Msk          (1UL /*<< SCB_SHCSR_MEMFAULTACT_Pos*/)         /*!< SCB 
 660:/Users/reza.kalfane/Workspaces/Daisy/DaisyExamples/libDaisy/Drivers/CMSIS/Include/core_cm7.h **** 
 661:/Users/reza.kalfane/Workspaces/Daisy/DaisyExamples/libDaisy/Drivers/CMSIS/Include/core_cm7.h **** /* SCB Configurable Fault Status Register Definitions */
 662:/Users/reza.kalfane/Workspaces/Daisy/DaisyExamples/libDaisy/Drivers/CMSIS/Include/core_cm7.h **** #define SCB_CFSR_USGFAULTSR_Pos            16U                                            /*!< SCB 
 663:/Users/reza.kalfane/Workspaces/Daisy/DaisyExamples/libDaisy/Drivers/CMSIS/Include/core_cm7.h **** #define SCB_CFSR_USGFAULTSR_Msk            (0xFFFFUL << SCB_CFSR_USGFAULTSR_Pos)          /*!< SCB 
 664:/Users/reza.kalfane/Workspaces/Daisy/DaisyExamples/libDaisy/Drivers/CMSIS/Include/core_cm7.h **** 
 665:/Users/reza.kalfane/Workspaces/Daisy/DaisyExamples/libDaisy/Drivers/CMSIS/Include/core_cm7.h **** #define SCB_CFSR_BUSFAULTSR_Pos             8U                                            /*!< SCB 
 666:/Users/reza.kalfane/Workspaces/Daisy/DaisyExamples/libDaisy/Drivers/CMSIS/Include/core_cm7.h **** #define SCB_CFSR_BUSFAULTSR_Msk            (0xFFUL << SCB_CFSR_BUSFAULTSR_Pos)            /*!< SCB 
 667:/Users/reza.kalfane/Workspaces/Daisy/DaisyExamples/libDaisy/Drivers/CMSIS/Include/core_cm7.h **** 
 668:/Users/reza.kalfane/Workspaces/Daisy/DaisyExamples/libDaisy/Drivers/CMSIS/Include/core_cm7.h **** #define SCB_CFSR_MEMFAULTSR_Pos             0U                                            /*!< SCB 
 669:/Users/reza.kalfane/Workspaces/Daisy/DaisyExamples/libDaisy/Drivers/CMSIS/Include/core_cm7.h **** #define SCB_CFSR_MEMFAULTSR_Msk            (0xFFUL /*<< SCB_CFSR_MEMFAULTSR_Pos*/)        /*!< SCB 
 670:/Users/reza.kalfane/Workspaces/Daisy/DaisyExamples/libDaisy/Drivers/CMSIS/Include/core_cm7.h **** 
 671:/Users/reza.kalfane/Workspaces/Daisy/DaisyExamples/libDaisy/Drivers/CMSIS/Include/core_cm7.h **** /* MemManage Fault Status Register (part of SCB Configurable Fault Status Register) */
 672:/Users/reza.kalfane/Workspaces/Daisy/DaisyExamples/libDaisy/Drivers/CMSIS/Include/core_cm7.h **** #define SCB_CFSR_MMARVALID_Pos             (SCB_SHCSR_MEMFAULTACT_Pos + 7U)               /*!< SCB 
 673:/Users/reza.kalfane/Workspaces/Daisy/DaisyExamples/libDaisy/Drivers/CMSIS/Include/core_cm7.h **** #define SCB_CFSR_MMARVALID_Msk             (1UL << SCB_CFSR_MMARVALID_Pos)                /*!< SCB 
 674:/Users/reza.kalfane/Workspaces/Daisy/DaisyExamples/libDaisy/Drivers/CMSIS/Include/core_cm7.h **** 
 675:/Users/reza.kalfane/Workspaces/Daisy/DaisyExamples/libDaisy/Drivers/CMSIS/Include/core_cm7.h **** #define SCB_CFSR_MLSPERR_Pos               (SCB_SHCSR_MEMFAULTACT_Pos + 5U)               /*!< SCB 
 676:/Users/reza.kalfane/Workspaces/Daisy/DaisyExamples/libDaisy/Drivers/CMSIS/Include/core_cm7.h **** #define SCB_CFSR_MLSPERR_Msk               (1UL << SCB_CFSR_MLSPERR_Pos)                  /*!< SCB 
 677:/Users/reza.kalfane/Workspaces/Daisy/DaisyExamples/libDaisy/Drivers/CMSIS/Include/core_cm7.h **** 
 678:/Users/reza.kalfane/Workspaces/Daisy/DaisyExamples/libDaisy/Drivers/CMSIS/Include/core_cm7.h **** #define SCB_CFSR_MSTKERR_Pos               (SCB_SHCSR_MEMFAULTACT_Pos + 4U)               /*!< SCB 
 679:/Users/reza.kalfane/Workspaces/Daisy/DaisyExamples/libDaisy/Drivers/CMSIS/Include/core_cm7.h **** #define SCB_CFSR_MSTKERR_Msk               (1UL << SCB_CFSR_MSTKERR_Pos)                  /*!< SCB 
 680:/Users/reza.kalfane/Workspaces/Daisy/DaisyExamples/libDaisy/Drivers/CMSIS/Include/core_cm7.h **** 
 681:/Users/reza.kalfane/Workspaces/Daisy/DaisyExamples/libDaisy/Drivers/CMSIS/Include/core_cm7.h **** #define SCB_CFSR_MUNSTKERR_Pos             (SCB_SHCSR_MEMFAULTACT_Pos + 3U)               /*!< SCB 
 682:/Users/reza.kalfane/Workspaces/Daisy/DaisyExamples/libDaisy/Drivers/CMSIS/Include/core_cm7.h **** #define SCB_CFSR_MUNSTKERR_Msk             (1UL << SCB_CFSR_MUNSTKERR_Pos)                /*!< SCB 
 683:/Users/reza.kalfane/Workspaces/Daisy/DaisyExamples/libDaisy/Drivers/CMSIS/Include/core_cm7.h **** 
 684:/Users/reza.kalfane/Workspaces/Daisy/DaisyExamples/libDaisy/Drivers/CMSIS/Include/core_cm7.h **** #define SCB_CFSR_DACCVIOL_Pos              (SCB_SHCSR_MEMFAULTACT_Pos + 1U)               /*!< SCB 
 685:/Users/reza.kalfane/Workspaces/Daisy/DaisyExamples/libDaisy/Drivers/CMSIS/Include/core_cm7.h **** #define SCB_CFSR_DACCVIOL_Msk              (1UL << SCB_CFSR_DACCVIOL_Pos)                 /*!< SCB 
 686:/Users/reza.kalfane/Workspaces/Daisy/DaisyExamples/libDaisy/Drivers/CMSIS/Include/core_cm7.h **** 
 687:/Users/reza.kalfane/Workspaces/Daisy/DaisyExamples/libDaisy/Drivers/CMSIS/Include/core_cm7.h **** #define SCB_CFSR_IACCVIOL_Pos              (SCB_SHCSR_MEMFAULTACT_Pos + 0U)               /*!< SCB 
 688:/Users/reza.kalfane/Workspaces/Daisy/DaisyExamples/libDaisy/Drivers/CMSIS/Include/core_cm7.h **** #define SCB_CFSR_IACCVIOL_Msk              (1UL /*<< SCB_CFSR_IACCVIOL_Pos*/)             /*!< SCB 
 689:/Users/reza.kalfane/Workspaces/Daisy/DaisyExamples/libDaisy/Drivers/CMSIS/Include/core_cm7.h **** 
 690:/Users/reza.kalfane/Workspaces/Daisy/DaisyExamples/libDaisy/Drivers/CMSIS/Include/core_cm7.h **** /* BusFault Status Register (part of SCB Configurable Fault Status Register) */
 691:/Users/reza.kalfane/Workspaces/Daisy/DaisyExamples/libDaisy/Drivers/CMSIS/Include/core_cm7.h **** #define SCB_CFSR_BFARVALID_Pos            (SCB_CFSR_BUSFAULTSR_Pos + 7U)                  /*!< SCB 
 692:/Users/reza.kalfane/Workspaces/Daisy/DaisyExamples/libDaisy/Drivers/CMSIS/Include/core_cm7.h **** #define SCB_CFSR_BFARVALID_Msk            (1UL << SCB_CFSR_BFARVALID_Pos)                 /*!< SCB 
 693:/Users/reza.kalfane/Workspaces/Daisy/DaisyExamples/libDaisy/Drivers/CMSIS/Include/core_cm7.h **** 
 694:/Users/reza.kalfane/Workspaces/Daisy/DaisyExamples/libDaisy/Drivers/CMSIS/Include/core_cm7.h **** #define SCB_CFSR_LSPERR_Pos               (SCB_CFSR_BUSFAULTSR_Pos + 5U)                  /*!< SCB 
 695:/Users/reza.kalfane/Workspaces/Daisy/DaisyExamples/libDaisy/Drivers/CMSIS/Include/core_cm7.h **** #define SCB_CFSR_LSPERR_Msk               (1UL << SCB_CFSR_LSPERR_Pos)                    /*!< SCB 
 696:/Users/reza.kalfane/Workspaces/Daisy/DaisyExamples/libDaisy/Drivers/CMSIS/Include/core_cm7.h **** 
 697:/Users/reza.kalfane/Workspaces/Daisy/DaisyExamples/libDaisy/Drivers/CMSIS/Include/core_cm7.h **** #define SCB_CFSR_STKERR_Pos               (SCB_CFSR_BUSFAULTSR_Pos + 4U)                  /*!< SCB 
 698:/Users/reza.kalfane/Workspaces/Daisy/DaisyExamples/libDaisy/Drivers/CMSIS/Include/core_cm7.h **** #define SCB_CFSR_STKERR_Msk               (1UL << SCB_CFSR_STKERR_Pos)                    /*!< SCB 
 699:/Users/reza.kalfane/Workspaces/Daisy/DaisyExamples/libDaisy/Drivers/CMSIS/Include/core_cm7.h **** 
 700:/Users/reza.kalfane/Workspaces/Daisy/DaisyExamples/libDaisy/Drivers/CMSIS/Include/core_cm7.h **** #define SCB_CFSR_UNSTKERR_Pos             (SCB_CFSR_BUSFAULTSR_Pos + 3U)                  /*!< SCB 
 701:/Users/reza.kalfane/Workspaces/Daisy/DaisyExamples/libDaisy/Drivers/CMSIS/Include/core_cm7.h **** #define SCB_CFSR_UNSTKERR_Msk             (1UL << SCB_CFSR_UNSTKERR_Pos)                  /*!< SCB 
ARM GAS  /tmp/claude-502/ccFotbfS.s 			page 75


 702:/Users/reza.kalfane/Workspaces/Daisy/DaisyExamples/libDaisy/Drivers/CMSIS/Include/core_cm7.h **** 
 703:/Users/reza.kalfane/Workspaces/Daisy/DaisyExamples/libDaisy/Drivers/CMSIS/Include/core_cm7.h **** #define SCB_CFSR_IMPRECISERR_Pos          (SCB_CFSR_BUSFAULTSR_Pos + 2U)                  /*!< SCB 
 704:/Users/reza.kalfane/Workspaces/Daisy/DaisyExamples/libDaisy/Drivers/CMSIS/Include/core_cm7.h **** #define SCB_CFSR_IMPRECISERR_Msk          (1UL << SCB_CFSR_IMPRECISERR_Pos)               /*!< SCB 
 705:/Users/reza.kalfane/Workspaces/Daisy/DaisyExamples/libDaisy/Drivers/CMSIS/Include/core_cm7.h **** 
 706:/Users/reza.kalfane/Workspaces/Daisy/DaisyExamples/libDaisy/Drivers/CMSIS/Include/core_cm7.h **** #define SCB_CFSR_PRECISERR_Pos            (SCB_CFSR_BUSFAULTSR_Pos + 1U)                  /*!< SCB 
 707:/Users/reza.kalfane/Workspaces/Daisy/DaisyExamples/libDaisy/Drivers/CMSIS/Include/core_cm7.h **** #define SCB_CFSR_PRECISERR_Msk            (1UL << SCB_CFSR_PRECISERR_Pos)                 /*!< SCB 
 708:/Users/reza.kalfane/Workspaces/Daisy/DaisyExamples/libDaisy/Drivers/CMSIS/Include/core_cm7.h **** 
 709:/Users/reza.kalfane/Workspaces/Daisy/DaisyExamples/libDaisy/Drivers/CMSIS/Include/core_cm7.h **** #define SCB_CFSR_IBUSERR_Pos              (SCB_CFSR_BUSFAULTSR_Pos + 0U)                  /*!< SCB 
 710:/Users/reza.kalfane/Workspaces/Daisy/DaisyExamples/libDaisy/Drivers/CMSIS/Include/core_cm7.h **** #define SCB_CFSR_IBUSERR_Msk              (1UL << SCB_CFSR_IBUSERR_Pos)                   /*!< SCB 
 711:/Users/reza.kalfane/Workspaces/Daisy/DaisyExamples/libDaisy/Drivers/CMSIS/Include/core_cm7.h **** 
 712:/Users/reza.kalfane/Workspaces/Daisy/DaisyExamples/libDaisy/Drivers/CMSIS/Include/core_cm7.h **** /* UsageFault Status Register (part of SCB Configurable Fault Status Register) */
 713:/Users/reza.kalfane/Workspaces/Daisy/DaisyExamples/libDaisy/Drivers/CMSIS/Include/core_cm7.h **** #define SCB_CFSR_DIVBYZERO_Pos            (SCB_CFSR_USGFAULTSR_Pos + 9U)                  /*!< SCB 
 714:/Users/reza.kalfane/Workspaces/Daisy/DaisyExamples/libDaisy/Drivers/CMSIS/Include/core_cm7.h **** #define SCB_CFSR_DIVBYZERO_Msk            (1UL << SCB_CFSR_DIVBYZERO_Pos)                 /*!< SCB 
 715:/Users/reza.kalfane/Workspaces/Daisy/DaisyExamples/libDaisy/Drivers/CMSIS/Include/core_cm7.h **** 
 716:/Users/reza.kalfane/Workspaces/Daisy/DaisyExamples/libDaisy/Drivers/CMSIS/Include/core_cm7.h **** #define SCB_CFSR_UNALIGNED_Pos            (SCB_CFSR_USGFAULTSR_Pos + 8U)                  /*!< SCB 
 717:/Users/reza.kalfane/Workspaces/Daisy/DaisyExamples/libDaisy/Drivers/CMSIS/Include/core_cm7.h **** #define SCB_CFSR_UNALIGNED_Msk            (1UL << SCB_CFSR_UNALIGNED_Pos)                 /*!< SCB 
 718:/Users/reza.kalfane/Workspaces/Daisy/DaisyExamples/libDaisy/Drivers/CMSIS/Include/core_cm7.h **** 
 719:/Users/reza.kalfane/Workspaces/Daisy/DaisyExamples/libDaisy/Drivers/CMSIS/Include/core_cm7.h **** #define SCB_CFSR_NOCP_Pos                 (SCB_CFSR_USGFAULTSR_Pos + 3U)                  /*!< SCB 
 720:/Users/reza.kalfane/Workspaces/Daisy/DaisyExamples/libDaisy/Drivers/CMSIS/Include/core_cm7.h **** #define SCB_CFSR_NOCP_Msk                 (1UL << SCB_CFSR_NOCP_Pos)                      /*!< SCB 
 721:/Users/reza.kalfane/Workspaces/Daisy/DaisyExamples/libDaisy/Drivers/CMSIS/Include/core_cm7.h **** 
 722:/Users/reza.kalfane/Workspaces/Daisy/DaisyExamples/libDaisy/Drivers/CMSIS/Include/core_cm7.h **** #define SCB_CFSR_INVPC_Pos                (SCB_CFSR_USGFAULTSR_Pos + 2U)                  /*!< SCB 
 723:/Users/reza.kalfane/Workspaces/Daisy/DaisyExamples/libDaisy/Drivers/CMSIS/Include/core_cm7.h **** #define SCB_CFSR_INVPC_Msk                (1UL << SCB_CFSR_INVPC_Pos)                     /*!< SCB 
 724:/Users/reza.kalfane/Workspaces/Daisy/DaisyExamples/libDaisy/Drivers/CMSIS/Include/core_cm7.h **** 
 725:/Users/reza.kalfane/Workspaces/Daisy/DaisyExamples/libDaisy/Drivers/CMSIS/Include/core_cm7.h **** #define SCB_CFSR_INVSTATE_Pos             (SCB_CFSR_USGFAULTSR_Pos + 1U)                  /*!< SCB 
 726:/Users/reza.kalfane/Workspaces/Daisy/DaisyExamples/libDaisy/Drivers/CMSIS/Include/core_cm7.h **** #define SCB_CFSR_INVSTATE_Msk             (1UL << SCB_CFSR_INVSTATE_Pos)                  /*!< SCB 
 727:/Users/reza.kalfane/Workspaces/Daisy/DaisyExamples/libDaisy/Drivers/CMSIS/Include/core_cm7.h **** 
 728:/Users/reza.kalfane/Workspaces/Daisy/DaisyExamples/libDaisy/Drivers/CMSIS/Include/core_cm7.h **** #define SCB_CFSR_UNDEFINSTR_Pos           (SCB_CFSR_USGFAULTSR_Pos + 0U)                  /*!< SCB 
 729:/Users/reza.kalfane/Workspaces/Daisy/DaisyExamples/libDaisy/Drivers/CMSIS/Include/core_cm7.h **** #define SCB_CFSR_UNDEFINSTR_Msk           (1UL << SCB_CFSR_UNDEFINSTR_Pos)                /*!< SCB 
 730:/Users/reza.kalfane/Workspaces/Daisy/DaisyExamples/libDaisy/Drivers/CMSIS/Include/core_cm7.h **** 
 731:/Users/reza.kalfane/Workspaces/Daisy/DaisyExamples/libDaisy/Drivers/CMSIS/Include/core_cm7.h **** /* SCB Hard Fault Status Register Definitions */
 732:/Users/reza.kalfane/Workspaces/Daisy/DaisyExamples/libDaisy/Drivers/CMSIS/Include/core_cm7.h **** #define SCB_HFSR_DEBUGEVT_Pos              31U                                            /*!< SCB 
 733:/Users/reza.kalfane/Workspaces/Daisy/DaisyExamples/libDaisy/Drivers/CMSIS/Include/core_cm7.h **** #define SCB_HFSR_DEBUGEVT_Msk              (1UL << SCB_HFSR_DEBUGEVT_Pos)                 /*!< SCB 
 734:/Users/reza.kalfane/Workspaces/Daisy/DaisyExamples/libDaisy/Drivers/CMSIS/Include/core_cm7.h **** 
 735:/Users/reza.kalfane/Workspaces/Daisy/DaisyExamples/libDaisy/Drivers/CMSIS/Include/core_cm7.h **** #define SCB_HFSR_FORCED_Pos                30U                                            /*!< SCB 
 736:/Users/reza.kalfane/Workspaces/Daisy/DaisyExamples/libDaisy/Drivers/CMSIS/Include/core_cm7.h **** #define SCB_HFSR_FORCED_Msk                (1UL << SCB_HFSR_FORCED_Pos)                   /*!< SCB 
 737:/Users/reza.kalfane/Workspaces/Daisy/DaisyExamples/libDaisy/Drivers/CMSIS/Include/core_cm7.h **** 
 738:/Users/reza.kalfane/Workspaces/Daisy/DaisyExamples/libDaisy/Drivers/CMSIS/Include/core_cm7.h **** #define SCB_HFSR_VECTTBL_Pos                1U                                            /*!< SCB 
 739:/Users/reza.kalfane/Workspaces/Daisy/DaisyExamples/libDaisy/Drivers/CMSIS/Include/core_cm7.h **** #define SCB_HFSR_VECTTBL_Msk               (1UL << SCB_HFSR_VECTTBL_Pos)                  /*!< SCB 
 740:/Users/reza.kalfane/Workspaces/Daisy/DaisyExamples/libDaisy/Drivers/CMSIS/Include/core_cm7.h **** 
 741:/Users/reza.kalfane/Workspaces/Daisy/DaisyExamples/libDaisy/Drivers/CMSIS/Include/core_cm7.h **** /* SCB Debug Fault Status Register Definitions */
 742:/Users/reza.kalfane/Workspaces/Daisy/DaisyExamples/libDaisy/Drivers/CMSIS/Include/core_cm7.h **** #define SCB_DFSR_EXTERNAL_Pos               4U                                            /*!< SCB 
 743:/Users/reza.kalfane/Workspaces/Daisy/DaisyExamples/libDaisy/Drivers/CMSIS/Include/core_cm7.h **** #define SCB_DFSR_EXTERNAL_Msk              (1UL << SCB_DFSR_EXTERNAL_Pos)                 /*!< SCB 
 744:/Users/reza.kalfane/Workspaces/Daisy/DaisyExamples/libDaisy/Drivers/CMSIS/Include/core_cm7.h **** 
 745:/Users/reza.kalfane/Workspaces/Daisy/DaisyExamples/libDaisy/Drivers/CMSIS/Include/core_cm7.h **** #define SCB_DFSR_VCATCH_Pos                 3U                                            /*!< SCB 
 746:/Users/reza.kalfane/Workspaces/Daisy/DaisyExamples/libDaisy/Drivers/CMSIS/Include/core_cm7.h **** #define SCB_DFSR_VCATCH_Msk                (1UL << SCB_DFSR_VCATCH_Pos)                   /*!< SCB 
 747:/Users/reza.kalfane/Workspaces/Daisy/DaisyExamples/libDaisy/Drivers/CMSIS/Include/core_cm7.h **** 
 748:/Users/reza.kalfane/Workspaces/Daisy/DaisyExamples/libDaisy/Drivers/CMSIS/Include/core_cm7.h **** #define SCB_DFSR_DWTTRAP_Pos                2U                                            /*!< SCB 
 749:/Users/reza.kalfane/Workspaces/Daisy/DaisyExamples/libDaisy/Drivers/CMSIS/Include/core_cm7.h **** #define SCB_DFSR_DWTTRAP_Msk               (1UL << SCB_DFSR_DWTTRAP_Pos)                  /*!< SCB 
 750:/Users/reza.kalfane/Workspaces/Daisy/DaisyExamples/libDaisy/Drivers/CMSIS/Include/core_cm7.h **** 
 751:/Users/reza.kalfane/Workspaces/Daisy/DaisyExamples/libDaisy/Drivers/CMSIS/Include/core_cm7.h **** #define SCB_DFSR_BKPT_Pos                   1U                                            /*!< SCB 
 752:/Users/reza.kalfane/Workspaces/Daisy/DaisyExamples/libDaisy/Drivers/CMSIS/Include/core_cm7.h **** #define SCB_DFSR_BKPT_Msk                  (1UL << SCB_DFSR_BKPT_Pos)                     /*!< SCB 
 753:/Users/reza.kalfane/Workspaces/Daisy/DaisyExamples/libDaisy/Drivers/CMSIS/Include/core_cm7.h **** 
 754:/Users/reza.kalfane/Workspaces/Daisy/DaisyExamples/libDaisy/Drivers/CMSIS/Include/core_cm7.h **** #define SCB_DFSR_HALTED_Pos                 0U                                            /*!< SCB 
 755:/Users/reza.kalfane/Workspaces/Daisy/DaisyExamples/libDaisy/Drivers/CMSIS/Include/core_cm7.h **** #define SCB_DFSR_HALTED_Msk                (1UL /*<< SCB_DFSR_HALTED_Pos*/)               /*!< SCB 
 756:/Users/reza.kalfane/Workspaces/Daisy/DaisyExamples/libDaisy/Drivers/CMSIS/Include/core_cm7.h **** 
 757:/Users/reza.kalfane/Workspaces/Daisy/DaisyExamples/libDaisy/Drivers/CMSIS/Include/core_cm7.h **** /* SCB Cache Level ID Register Definitions */
 758:/Users/reza.kalfane/Workspaces/Daisy/DaisyExamples/libDaisy/Drivers/CMSIS/Include/core_cm7.h **** #define SCB_CLIDR_LOUU_Pos                 27U                                            /*!< SCB 
ARM GAS  /tmp/claude-502/ccFotbfS.s 			page 76


 759:/Users/reza.kalfane/Workspaces/Daisy/DaisyExamples/libDaisy/Drivers/CMSIS/Include/core_cm7.h **** #define SCB_CLIDR_LOUU_Msk                 (7UL << SCB_CLIDR_LOUU_Pos)                    /*!< SCB 
 760:/Users/reza.kalfane/Workspaces/Daisy/DaisyExamples/libDaisy/Drivers/CMSIS/Include/core_cm7.h **** 
 761:/Users/reza.kalfane/Workspaces/Daisy/DaisyExamples/libDaisy/Drivers/CMSIS/Include/core_cm7.h **** #define SCB_CLIDR_LOC_Pos                  24U                                            /*!< SCB 
 762:/Users/reza.kalfane/Workspaces/Daisy/DaisyExamples/libDaisy/Drivers/CMSIS/Include/core_cm7.h **** #define SCB_CLIDR_LOC_Msk                  (7UL << SCB_CLIDR_LOC_Pos)                     /*!< SCB 
 763:/Users/reza.kalfane/Workspaces/Daisy/DaisyExamples/libDaisy/Drivers/CMSIS/Include/core_cm7.h **** 
 764:/Users/reza.kalfane/Workspaces/Daisy/DaisyExamples/libDaisy/Drivers/CMSIS/Include/core_cm7.h **** /* SCB Cache Type Register Definitions */
 765:/Users/reza.kalfane/Workspaces/Daisy/DaisyExamples/libDaisy/Drivers/CMSIS/Include/core_cm7.h **** #define SCB_CTR_FORMAT_Pos                 29U                                            /*!< SCB 
 766:/Users/reza.kalfane/Workspaces/Daisy/DaisyExamples/libDaisy/Drivers/CMSIS/Include/core_cm7.h **** #define SCB_CTR_FORMAT_Msk                 (7UL << SCB_CTR_FORMAT_Pos)                    /*!< SCB 
 767:/Users/reza.kalfane/Workspaces/Daisy/DaisyExamples/libDaisy/Drivers/CMSIS/Include/core_cm7.h **** 
 768:/Users/reza.kalfane/Workspaces/Daisy/DaisyExamples/libDaisy/Drivers/CMSIS/Include/core_cm7.h **** #define SCB_CTR_CWG_Pos                    24U                                            /*!< SCB 
 769:/Users/reza.kalfane/Workspaces/Daisy/DaisyExamples/libDaisy/Drivers/CMSIS/Include/core_cm7.h **** #define SCB_CTR_CWG_Msk                    (0xFUL << SCB_CTR_CWG_Pos)                     /*!< SCB 
 770:/Users/reza.kalfane/Workspaces/Daisy/DaisyExamples/libDaisy/Drivers/CMSIS/Include/core_cm7.h **** 
 771:/Users/reza.kalfane/Workspaces/Daisy/DaisyExamples/libDaisy/Drivers/CMSIS/Include/core_cm7.h **** #define SCB_CTR_ERG_Pos                    20U                                            /*!< SCB 
 772:/Users/reza.kalfane/Workspaces/Daisy/DaisyExamples/libDaisy/Drivers/CMSIS/Include/core_cm7.h **** #define SCB_CTR_ERG_Msk                    (0xFUL << SCB_CTR_ERG_Pos)                     /*!< SCB 
 773:/Users/reza.kalfane/Workspaces/Daisy/DaisyExamples/libDaisy/Drivers/CMSIS/Include/core_cm7.h **** 
 774:/Users/reza.kalfane/Workspaces/Daisy/DaisyExamples/libDaisy/Drivers/CMSIS/Include/core_cm7.h **** #define SCB_CTR_DMINLINE_Pos               16U                                            /*!< SCB 
 775:/Users/reza.kalfane/Workspaces/Daisy/DaisyExamples/libDaisy/Drivers/CMSIS/Include/core_cm7.h **** #define SCB_CTR_DMINLINE_Msk               (0xFUL << SCB_CTR_DMINLINE_Pos)                /*!< SCB 
 776:/Users/reza.kalfane/Workspaces/Daisy/DaisyExamples/libDaisy/Drivers/CMSIS/Include/core_cm7.h **** 
 777:/Users/reza.kalfane/Workspaces/Daisy/DaisyExamples/libDaisy/Drivers/CMSIS/Include/core_cm7.h **** #define SCB_CTR_IMINLINE_Pos                0U                                            /*!< SCB 
 778:/Users/reza.kalfane/Workspaces/Daisy/DaisyExamples/libDaisy/Drivers/CMSIS/Include/core_cm7.h **** #define SCB_CTR_IMINLINE_Msk               (0xFUL /*<< SCB_CTR_IMINLINE_Pos*/)            /*!< SCB 
 779:/Users/reza.kalfane/Workspaces/Daisy/DaisyExamples/libDaisy/Drivers/CMSIS/Include/core_cm7.h **** 
 780:/Users/reza.kalfane/Workspaces/Daisy/DaisyExamples/libDaisy/Drivers/CMSIS/Include/core_cm7.h **** /* SCB Cache Size ID Register Definitions */
 781:/Users/reza.kalfane/Workspaces/Daisy/DaisyExamples/libDaisy/Drivers/CMSIS/Include/core_cm7.h **** #define SCB_CCSIDR_WT_Pos                  31U                                            /*!< SCB 
 782:/Users/reza.kalfane/Workspaces/Daisy/DaisyExamples/libDaisy/Drivers/CMSIS/Include/core_cm7.h **** #define SCB_CCSIDR_WT_Msk                  (1UL << SCB_CCSIDR_WT_Pos)                     /*!< SCB 
 783:/Users/reza.kalfane/Workspaces/Daisy/DaisyExamples/libDaisy/Drivers/CMSIS/Include/core_cm7.h **** 
 784:/Users/reza.kalfane/Workspaces/Daisy/DaisyExamples/libDaisy/Drivers/CMSIS/Include/core_cm7.h **** #define SCB_CCSIDR_WB_Pos                  30U                                            /*!< SCB 
 785:/Users/reza.kalfane/Workspaces/Daisy/DaisyExamples/libDaisy/Drivers/CMSIS/Include/core_cm7.h **** #define SCB_CCSIDR_WB_Msk                  (1UL << SCB_CCSIDR_WB_Pos)                     /*!< SCB 
 786:/Users/reza.kalfane/Workspaces/Daisy/DaisyExamples/libDaisy/Drivers/CMSIS/Include/core_cm7.h **** 
 787:/Users/reza.kalfane/Workspaces/Daisy/DaisyExamples/libDaisy/Drivers/CMSIS/Include/core_cm7.h **** #define SCB_CCSIDR_RA_Pos                  29U                                            /*!< SCB 
 788:/Users/reza.kalfane/Workspaces/Daisy/DaisyExamples/libDaisy/Drivers/CMSIS/Include/core_cm7.h **** #define SCB_CCSIDR_RA_Msk                  (1UL << SCB_CCSIDR_RA_Pos)                     /*!< SCB 
 789:/Users/reza.kalfane/Workspaces/Daisy/DaisyExamples/libDaisy/Drivers/CMSIS/Include/core_cm7.h **** 
 790:/Users/reza.kalfane/Workspaces/Daisy/DaisyExamples/libDaisy/Drivers/CMSIS/Include/core_cm7.h **** #define SCB_CCSIDR_WA_Pos                  28U                                            /*!< SCB 
 791:/Users/reza.kalfane/Workspaces/Daisy/DaisyExamples/libDaisy/Drivers/CMSIS/Include/core_cm7.h **** #define SCB_CCSIDR_WA_Msk                  (1UL << SCB_CCSIDR_WA_Pos)                     /*!< SCB 
 792:/Users/reza.kalfane/Workspaces/Daisy/DaisyExamples/libDaisy/Drivers/CMSIS/Include/core_cm7.h **** 
 793:/Users/reza.kalfane/Workspaces/Daisy/DaisyExamples/libDaisy/Drivers/CMSIS/Include/core_cm7.h **** #define SCB_CCSIDR_NUMSETS_Pos             13U                                            /*!< SCB 
 794:/Users/reza.kalfane/Workspaces/Daisy/DaisyExamples/libDaisy/Drivers/CMSIS/Include/core_cm7.h **** #define SCB_CCSIDR_NUMSETS_Msk             (0x7FFFUL << SCB_CCSIDR_NUMSETS_Pos)           /*!< SCB 
 795:/Users/reza.kalfane/Workspaces/Daisy/DaisyExamples/libDaisy/Drivers/CMSIS/Include/core_cm7.h **** 
 796:/Users/reza.kalfane/Workspaces/Daisy/DaisyExamples/libDaisy/Drivers/CMSIS/Include/core_cm7.h **** #define SCB_CCSIDR_ASSOCIATIVITY_Pos        3U                                            /*!< SCB 
 797:/Users/reza.kalfane/Workspaces/Daisy/DaisyExamples/libDaisy/Drivers/CMSIS/Include/core_cm7.h **** #define SCB_CCSIDR_ASSOCIATIVITY_Msk       (0x3FFUL << SCB_CCSIDR_ASSOCIATIVITY_Pos)      /*!< SCB 
 798:/Users/reza.kalfane/Workspaces/Daisy/DaisyExamples/libDaisy/Drivers/CMSIS/Include/core_cm7.h **** 
 799:/Users/reza.kalfane/Workspaces/Daisy/DaisyExamples/libDaisy/Drivers/CMSIS/Include/core_cm7.h **** #define SCB_CCSIDR_LINESIZE_Pos             0U                                            /*!< SCB 
 800:/Users/reza.kalfane/Workspaces/Daisy/DaisyExamples/libDaisy/Drivers/CMSIS/Include/core_cm7.h **** #define SCB_CCSIDR_LINESIZE_Msk            (7UL /*<< SCB_CCSIDR_LINESIZE_Pos*/)           /*!< SCB 
 801:/Users/reza.kalfane/Workspaces/Daisy/DaisyExamples/libDaisy/Drivers/CMSIS/Include/core_cm7.h **** 
 802:/Users/reza.kalfane/Workspaces/Daisy/DaisyExamples/libDaisy/Drivers/CMSIS/Include/core_cm7.h **** /* SCB Cache Size Selection Register Definitions */
 803:/Users/reza.kalfane/Workspaces/Daisy/DaisyExamples/libDaisy/Drivers/CMSIS/Include/core_cm7.h **** #define SCB_CSSELR_LEVEL_Pos                1U                                            /*!< SCB 
 804:/Users/reza.kalfane/Workspaces/Daisy/DaisyExamples/libDaisy/Drivers/CMSIS/Include/core_cm7.h **** #define SCB_CSSELR_LEVEL_Msk               (7UL << SCB_CSSELR_LEVEL_Pos)                  /*!< SCB 
 805:/Users/reza.kalfane/Workspaces/Daisy/DaisyExamples/libDaisy/Drivers/CMSIS/Include/core_cm7.h **** 
 806:/Users/reza.kalfane/Workspaces/Daisy/DaisyExamples/libDaisy/Drivers/CMSIS/Include/core_cm7.h **** #define SCB_CSSELR_IND_Pos                  0U                                            /*!< SCB 
 807:/Users/reza.kalfane/Workspaces/Daisy/DaisyExamples/libDaisy/Drivers/CMSIS/Include/core_cm7.h **** #define SCB_CSSELR_IND_Msk                 (1UL /*<< SCB_CSSELR_IND_Pos*/)                /*!< SCB 
 808:/Users/reza.kalfane/Workspaces/Daisy/DaisyExamples/libDaisy/Drivers/CMSIS/Include/core_cm7.h **** 
 809:/Users/reza.kalfane/Workspaces/Daisy/DaisyExamples/libDaisy/Drivers/CMSIS/Include/core_cm7.h **** /* SCB Software Triggered Interrupt Register Definitions */
 810:/Users/reza.kalfane/Workspaces/Daisy/DaisyExamples/libDaisy/Drivers/CMSIS/Include/core_cm7.h **** #define SCB_STIR_INTID_Pos                  0U                                            /*!< SCB 
 811:/Users/reza.kalfane/Workspaces/Daisy/DaisyExamples/libDaisy/Drivers/CMSIS/Include/core_cm7.h **** #define SCB_STIR_INTID_Msk                 (0x1FFUL /*<< SCB_STIR_INTID_Pos*/)            /*!< SCB 
 812:/Users/reza.kalfane/Workspaces/Daisy/DaisyExamples/libDaisy/Drivers/CMSIS/Include/core_cm7.h **** 
 813:/Users/reza.kalfane/Workspaces/Daisy/DaisyExamples/libDaisy/Drivers/CMSIS/Include/core_cm7.h **** /* SCB D-Cache Invalidate by Set-way Register Definitions */
 814:/Users/reza.kalfane/Workspaces/Daisy/DaisyExamples/libDaisy/Drivers/CMSIS/Include/core_cm7.h **** #define SCB_DCISW_WAY_Pos                  30U                                            /*!< SCB 
 815:/Users/reza.kalfane/Workspaces/Daisy/DaisyExamples/libDaisy/Drivers/CMSIS/Include/core_cm7.h **** #define SCB_DCISW_WAY_Msk                  (3UL << SCB_DCISW_WAY_Pos)                     /*!< SCB 
ARM GAS  /tmp/claude-502/ccFotbfS.s 			page 77


 816:/Users/reza.kalfane/Workspaces/Daisy/DaisyExamples/libDaisy/Drivers/CMSIS/Include/core_cm7.h **** 
 817:/Users/reza.kalfane/Workspaces/Daisy/DaisyExamples/libDaisy/Drivers/CMSIS/Include/core_cm7.h **** #define SCB_DCISW_SET_Pos                   5U                                            /*!< SCB 
 818:/Users/reza.kalfane/Workspaces/Daisy/DaisyExamples/libDaisy/Drivers/CMSIS/Include/core_cm7.h **** #define SCB_DCISW_SET_Msk                  (0x1FFUL << SCB_DCISW_SET_Pos)                 /*!< SCB 
 819:/Users/reza.kalfane/Workspaces/Daisy/DaisyExamples/libDaisy/Drivers/CMSIS/Include/core_cm7.h **** 
 820:/Users/reza.kalfane/Workspaces/Daisy/DaisyExamples/libDaisy/Drivers/CMSIS/Include/core_cm7.h **** /* SCB D-Cache Clean by Set-way Register Definitions */
 821:/Users/reza.kalfane/Workspaces/Daisy/DaisyExamples/libDaisy/Drivers/CMSIS/Include/core_cm7.h **** #define SCB_DCCSW_WAY_Pos                  30U                                            /*!< SCB 
 822:/Users/reza.kalfane/Workspaces/Daisy/DaisyExamples/libDaisy/Drivers/CMSIS/Include/core_cm7.h **** #define SCB_DCCSW_WAY_Msk                  (3UL << SCB_DCCSW_WAY_Pos)                     /*!< SCB 
 823:/Users/reza.kalfane/Workspaces/Daisy/DaisyExamples/libDaisy/Drivers/CMSIS/Include/core_cm7.h **** 
 824:/Users/reza.kalfane/Workspaces/Daisy/DaisyExamples/libDaisy/Drivers/CMSIS/Include/core_cm7.h **** #define SCB_DCCSW_SET_Pos                   5U                                            /*!< SCB 
 825:/Users/reza.kalfane/Workspaces/Daisy/DaisyExamples/libDaisy/Drivers/CMSIS/Include/core_cm7.h **** #define SCB_DCCSW_SET_Msk                  (0x1FFUL << SCB_DCCSW_SET_Pos)                 /*!< SCB 
 826:/Users/reza.kalfane/Workspaces/Daisy/DaisyExamples/libDaisy/Drivers/CMSIS/Include/core_cm7.h **** 
 827:/Users/reza.kalfane/Workspaces/Daisy/DaisyExamples/libDaisy/Drivers/CMSIS/Include/core_cm7.h **** /* SCB D-Cache Clean and Invalidate by Set-way Register Definitions */
 828:/Users/reza.kalfane/Workspaces/Daisy/DaisyExamples/libDaisy/Drivers/CMSIS/Include/core_cm7.h **** #define SCB_DCCISW_WAY_Pos                 30U                                            /*!< SCB 
 829:/Users/reza.kalfane/Workspaces/Daisy/DaisyExamples/libDaisy/Drivers/CMSIS/Include/core_cm7.h **** #define SCB_DCCISW_WAY_Msk                 (3UL << SCB_DCCISW_WAY_Pos)                    /*!< SCB 
 830:/Users/reza.kalfane/Workspaces/Daisy/DaisyExamples/libDaisy/Drivers/CMSIS/Include/core_cm7.h **** 
 831:/Users/reza.kalfane/Workspaces/Daisy/DaisyExamples/libDaisy/Drivers/CMSIS/Include/core_cm7.h **** #define SCB_DCCISW_SET_Pos                  5U                                            /*!< SCB 
 832:/Users/reza.kalfane/Workspaces/Daisy/DaisyExamples/libDaisy/Drivers/CMSIS/Include/core_cm7.h **** #define SCB_DCCISW_SET_Msk                 (0x1FFUL << SCB_DCCISW_SET_Pos)                /*!< SCB 
 833:/Users/reza.kalfane/Workspaces/Daisy/DaisyExamples/libDaisy/Drivers/CMSIS/Include/core_cm7.h **** 
 834:/Users/reza.kalfane/Workspaces/Daisy/DaisyExamples/libDaisy/Drivers/CMSIS/Include/core_cm7.h **** /* Instruction Tightly-Coupled Memory Control Register Definitions */
 835:/Users/reza.kalfane/Workspaces/Daisy/DaisyExamples/libDaisy/Drivers/CMSIS/Include/core_cm7.h **** #define SCB_ITCMCR_SZ_Pos                   3U                                            /*!< SCB 
 836:/Users/reza.kalfane/Workspaces/Daisy/DaisyExamples/libDaisy/Drivers/CMSIS/Include/core_cm7.h **** #define SCB_ITCMCR_SZ_Msk                  (0xFUL << SCB_ITCMCR_SZ_Pos)                   /*!< SCB 
 837:/Users/reza.kalfane/Workspaces/Daisy/DaisyExamples/libDaisy/Drivers/CMSIS/Include/core_cm7.h **** 
 838:/Users/reza.kalfane/Workspaces/Daisy/DaisyExamples/libDaisy/Drivers/CMSIS/Include/core_cm7.h **** #define SCB_ITCMCR_RETEN_Pos                2U                                            /*!< SCB 
 839:/Users/reza.kalfane/Workspaces/Daisy/DaisyExamples/libDaisy/Drivers/CMSIS/Include/core_cm7.h **** #define SCB_ITCMCR_RETEN_Msk               (1UL << SCB_ITCMCR_RETEN_Pos)                  /*!< SCB 
 840:/Users/reza.kalfane/Workspaces/Daisy/DaisyExamples/libDaisy/Drivers/CMSIS/Include/core_cm7.h **** 
 841:/Users/reza.kalfane/Workspaces/Daisy/DaisyExamples/libDaisy/Drivers/CMSIS/Include/core_cm7.h **** #define SCB_ITCMCR_RMW_Pos                  1U                                            /*!< SCB 
 842:/Users/reza.kalfane/Workspaces/Daisy/DaisyExamples/libDaisy/Drivers/CMSIS/Include/core_cm7.h **** #define SCB_ITCMCR_RMW_Msk                 (1UL << SCB_ITCMCR_RMW_Pos)                    /*!< SCB 
 843:/Users/reza.kalfane/Workspaces/Daisy/DaisyExamples/libDaisy/Drivers/CMSIS/Include/core_cm7.h **** 
 844:/Users/reza.kalfane/Workspaces/Daisy/DaisyExamples/libDaisy/Drivers/CMSIS/Include/core_cm7.h **** #define SCB_ITCMCR_EN_Pos                   0U                                            /*!< SCB 
 845:/Users/reza.kalfane/Workspaces/Daisy/DaisyExamples/libDaisy/Drivers/CMSIS/Include/core_cm7.h **** #define SCB_ITCMCR_EN_Msk                  (1UL /*<< SCB_ITCMCR_EN_Pos*/)                 /*!< SCB 
 846:/Users/reza.kalfane/Workspaces/Daisy/DaisyExamples/libDaisy/Drivers/CMSIS/Include/core_cm7.h **** 
 847:/Users/reza.kalfane/Workspaces/Daisy/DaisyExamples/libDaisy/Drivers/CMSIS/Include/core_cm7.h **** /* Data Tightly-Coupled Memory Control Register Definitions */
 848:/Users/reza.kalfane/Workspaces/Daisy/DaisyExamples/libDaisy/Drivers/CMSIS/Include/core_cm7.h **** #define SCB_DTCMCR_SZ_Pos                   3U                                            /*!< SCB 
 849:/Users/reza.kalfane/Workspaces/Daisy/DaisyExamples/libDaisy/Drivers/CMSIS/Include/core_cm7.h **** #define SCB_DTCMCR_SZ_Msk                  (0xFUL << SCB_DTCMCR_SZ_Pos)                   /*!< SCB 
 850:/Users/reza.kalfane/Workspaces/Daisy/DaisyExamples/libDaisy/Drivers/CMSIS/Include/core_cm7.h **** 
 851:/Users/reza.kalfane/Workspaces/Daisy/DaisyExamples/libDaisy/Drivers/CMSIS/Include/core_cm7.h **** #define SCB_DTCMCR_RETEN_Pos                2U                                            /*!< SCB 
 852:/Users/reza.kalfane/Workspaces/Daisy/DaisyExamples/libDaisy/Drivers/CMSIS/Include/core_cm7.h **** #define SCB_DTCMCR_RETEN_Msk               (1UL << SCB_DTCMCR_RETEN_Pos)                   /*!< SCB
 853:/Users/reza.kalfane/Workspaces/Daisy/DaisyExamples/libDaisy/Drivers/CMSIS/Include/core_cm7.h **** 
 854:/Users/reza.kalfane/Workspaces/Daisy/DaisyExamples/libDaisy/Drivers/CMSIS/Include/core_cm7.h **** #define SCB_DTCMCR_RMW_Pos                  1U                                            /*!< SCB 
 855:/Users/reza.kalfane/Workspaces/Daisy/DaisyExamples/libDaisy/Drivers/CMSIS/Include/core_cm7.h **** #define SCB_DTCMCR_RMW_Msk                 (1UL << SCB_DTCMCR_RMW_Pos)                    /*!< SCB 
 856:/Users/reza.kalfane/Workspaces/Daisy/DaisyExamples/libDaisy/Drivers/CMSIS/Include/core_cm7.h **** 
 857:/Users/reza.kalfane/Workspaces/Daisy/DaisyExamples/libDaisy/Drivers/CMSIS/Include/core_cm7.h **** #define SCB_DTCMCR_EN_Pos                   0U                                            /*!< SCB 
 858:/Users/reza.kalfane/Workspaces/Daisy/DaisyExamples/libDaisy/Drivers/CMSIS/Include/core_cm7.h **** #define SCB_DTCMCR_EN_Msk                  (1UL /*<< SCB_DTCMCR_EN_Pos*/)                 /*!< SCB 
 859:/Users/reza.kalfane/Workspaces/Daisy/DaisyExamples/libDaisy/Drivers/CMSIS/Include/core_cm7.h **** 
 860:/Users/reza.kalfane/Workspaces/Daisy/DaisyExamples/libDaisy/Drivers/CMSIS/Include/core_cm7.h **** /* AHBP Control Register Definitions */
 861:/Users/reza.kalfane/Workspaces/Daisy/DaisyExamples/libDaisy/Drivers/CMSIS/Include/core_cm7.h **** #define SCB_AHBPCR_SZ_Pos                   1U                                            /*!< SCB 
 862:/Users/reza.kalfane/Workspaces/Daisy/DaisyExamples/libDaisy/Drivers/CMSIS/Include/core_cm7.h **** #define SCB_AHBPCR_SZ_Msk                  (7UL << SCB_AHBPCR_SZ_Pos)                     /*!< SCB 
 863:/Users/reza.kalfane/Workspaces/Daisy/DaisyExamples/libDaisy/Drivers/CMSIS/Include/core_cm7.h **** 
 864:/Users/reza.kalfane/Workspaces/Daisy/DaisyExamples/libDaisy/Drivers/CMSIS/Include/core_cm7.h **** #define SCB_AHBPCR_EN_Pos                   0U                                            /*!< SCB 
 865:/Users/reza.kalfane/Workspaces/Daisy/DaisyExamples/libDaisy/Drivers/CMSIS/Include/core_cm7.h **** #define SCB_AHBPCR_EN_Msk                  (1UL /*<< SCB_AHBPCR_EN_Pos*/)                 /*!< SCB 
 866:/Users/reza.kalfane/Workspaces/Daisy/DaisyExamples/libDaisy/Drivers/CMSIS/Include/core_cm7.h **** 
 867:/Users/reza.kalfane/Workspaces/Daisy/DaisyExamples/libDaisy/Drivers/CMSIS/Include/core_cm7.h **** /* L1 Cache Control Register Definitions */
 868:/Users/reza.kalfane/Workspaces/Daisy/DaisyExamples/libDaisy/Drivers/CMSIS/Include/core_cm7.h **** #define SCB_CACR_FORCEWT_Pos                2U                                            /*!< SCB 
 869:/Users/reza.kalfane/Workspaces/Daisy/DaisyExamples/libDaisy/Drivers/CMSIS/Include/core_cm7.h **** #define SCB_CACR_FORCEWT_Msk               (1UL << SCB_CACR_FORCEWT_Pos)                  /*!< SCB 
 870:/Users/reza.kalfane/Workspaces/Daisy/DaisyExamples/libDaisy/Drivers/CMSIS/Include/core_cm7.h **** 
 871:/Users/reza.kalfane/Workspaces/Daisy/DaisyExamples/libDaisy/Drivers/CMSIS/Include/core_cm7.h **** #define SCB_CACR_ECCEN_Pos                  1U                                            /*!< SCB 
 872:/Users/reza.kalfane/Workspaces/Daisy/DaisyExamples/libDaisy/Drivers/CMSIS/Include/core_cm7.h **** #define SCB_CACR_ECCEN_Msk                 (1UL << SCB_CACR_ECCEN_Pos)                    /*!< SCB 
ARM GAS  /tmp/claude-502/ccFotbfS.s 			page 78


 873:/Users/reza.kalfane/Workspaces/Daisy/DaisyExamples/libDaisy/Drivers/CMSIS/Include/core_cm7.h **** 
 874:/Users/reza.kalfane/Workspaces/Daisy/DaisyExamples/libDaisy/Drivers/CMSIS/Include/core_cm7.h **** #define SCB_CACR_SIWT_Pos                   0U                                            /*!< SCB 
 875:/Users/reza.kalfane/Workspaces/Daisy/DaisyExamples/libDaisy/Drivers/CMSIS/Include/core_cm7.h **** #define SCB_CACR_SIWT_Msk                  (1UL /*<< SCB_CACR_SIWT_Pos*/)                 /*!< SCB 
 876:/Users/reza.kalfane/Workspaces/Daisy/DaisyExamples/libDaisy/Drivers/CMSIS/Include/core_cm7.h **** 
 877:/Users/reza.kalfane/Workspaces/Daisy/DaisyExamples/libDaisy/Drivers/CMSIS/Include/core_cm7.h **** /* AHBS Control Register Definitions */
 878:/Users/reza.kalfane/Workspaces/Daisy/DaisyExamples/libDaisy/Drivers/CMSIS/Include/core_cm7.h **** #define SCB_AHBSCR_INITCOUNT_Pos           11U                                            /*!< SCB 
 879:/Users/reza.kalfane/Workspaces/Daisy/DaisyExamples/libDaisy/Drivers/CMSIS/Include/core_cm7.h **** #define SCB_AHBSCR_INITCOUNT_Msk           (0x1FUL << SCB_AHBPCR_INITCOUNT_Pos)           /*!< SCB 
 880:/Users/reza.kalfane/Workspaces/Daisy/DaisyExamples/libDaisy/Drivers/CMSIS/Include/core_cm7.h **** 
 881:/Users/reza.kalfane/Workspaces/Daisy/DaisyExamples/libDaisy/Drivers/CMSIS/Include/core_cm7.h **** #define SCB_AHBSCR_TPRI_Pos                 2U                                            /*!< SCB 
 882:/Users/reza.kalfane/Workspaces/Daisy/DaisyExamples/libDaisy/Drivers/CMSIS/Include/core_cm7.h **** #define SCB_AHBSCR_TPRI_Msk                (0x1FFUL << SCB_AHBPCR_TPRI_Pos)               /*!< SCB 
 883:/Users/reza.kalfane/Workspaces/Daisy/DaisyExamples/libDaisy/Drivers/CMSIS/Include/core_cm7.h **** 
 884:/Users/reza.kalfane/Workspaces/Daisy/DaisyExamples/libDaisy/Drivers/CMSIS/Include/core_cm7.h **** #define SCB_AHBSCR_CTL_Pos                  0U                                            /*!< SCB 
 885:/Users/reza.kalfane/Workspaces/Daisy/DaisyExamples/libDaisy/Drivers/CMSIS/Include/core_cm7.h **** #define SCB_AHBSCR_CTL_Msk                 (3UL /*<< SCB_AHBPCR_CTL_Pos*/)                /*!< SCB 
 886:/Users/reza.kalfane/Workspaces/Daisy/DaisyExamples/libDaisy/Drivers/CMSIS/Include/core_cm7.h **** 
 887:/Users/reza.kalfane/Workspaces/Daisy/DaisyExamples/libDaisy/Drivers/CMSIS/Include/core_cm7.h **** /* Auxiliary Bus Fault Status Register Definitions */
 888:/Users/reza.kalfane/Workspaces/Daisy/DaisyExamples/libDaisy/Drivers/CMSIS/Include/core_cm7.h **** #define SCB_ABFSR_AXIMTYPE_Pos              8U                                            /*!< SCB 
 889:/Users/reza.kalfane/Workspaces/Daisy/DaisyExamples/libDaisy/Drivers/CMSIS/Include/core_cm7.h **** #define SCB_ABFSR_AXIMTYPE_Msk             (3UL << SCB_ABFSR_AXIMTYPE_Pos)                /*!< SCB 
 890:/Users/reza.kalfane/Workspaces/Daisy/DaisyExamples/libDaisy/Drivers/CMSIS/Include/core_cm7.h **** 
 891:/Users/reza.kalfane/Workspaces/Daisy/DaisyExamples/libDaisy/Drivers/CMSIS/Include/core_cm7.h **** #define SCB_ABFSR_EPPB_Pos                  4U                                            /*!< SCB 
 892:/Users/reza.kalfane/Workspaces/Daisy/DaisyExamples/libDaisy/Drivers/CMSIS/Include/core_cm7.h **** #define SCB_ABFSR_EPPB_Msk                 (1UL << SCB_ABFSR_EPPB_Pos)                    /*!< SCB 
 893:/Users/reza.kalfane/Workspaces/Daisy/DaisyExamples/libDaisy/Drivers/CMSIS/Include/core_cm7.h **** 
 894:/Users/reza.kalfane/Workspaces/Daisy/DaisyExamples/libDaisy/Drivers/CMSIS/Include/core_cm7.h **** #define SCB_ABFSR_AXIM_Pos                  3U                                            /*!< SCB 
 895:/Users/reza.kalfane/Workspaces/Daisy/DaisyExamples/libDaisy/Drivers/CMSIS/Include/core_cm7.h **** #define SCB_ABFSR_AXIM_Msk                 (1UL << SCB_ABFSR_AXIM_Pos)                    /*!< SCB 
 896:/Users/reza.kalfane/Workspaces/Daisy/DaisyExamples/libDaisy/Drivers/CMSIS/Include/core_cm7.h **** 
 897:/Users/reza.kalfane/Workspaces/Daisy/DaisyExamples/libDaisy/Drivers/CMSIS/Include/core_cm7.h **** #define SCB_ABFSR_AHBP_Pos                  2U                                            /*!< SCB 
 898:/Users/reza.kalfane/Workspaces/Daisy/DaisyExamples/libDaisy/Drivers/CMSIS/Include/core_cm7.h **** #define SCB_ABFSR_AHBP_Msk                 (1UL << SCB_ABFSR_AHBP_Pos)                    /*!< SCB 
 899:/Users/reza.kalfane/Workspaces/Daisy/DaisyExamples/libDaisy/Drivers/CMSIS/Include/core_cm7.h **** 
 900:/Users/reza.kalfane/Workspaces/Daisy/DaisyExamples/libDaisy/Drivers/CMSIS/Include/core_cm7.h **** #define SCB_ABFSR_DTCM_Pos                  1U                                            /*!< SCB 
 901:/Users/reza.kalfane/Workspaces/Daisy/DaisyExamples/libDaisy/Drivers/CMSIS/Include/core_cm7.h **** #define SCB_ABFSR_DTCM_Msk                 (1UL << SCB_ABFSR_DTCM_Pos)                    /*!< SCB 
 902:/Users/reza.kalfane/Workspaces/Daisy/DaisyExamples/libDaisy/Drivers/CMSIS/Include/core_cm7.h **** 
 903:/Users/reza.kalfane/Workspaces/Daisy/DaisyExamples/libDaisy/Drivers/CMSIS/Include/core_cm7.h **** #define SCB_ABFSR_ITCM_Pos                  0U                                            /*!< SCB 
 904:/Users/reza.kalfane/Workspaces/Daisy/DaisyExamples/libDaisy/Drivers/CMSIS/Include/core_cm7.h **** #define SCB_ABFSR_ITCM_Msk                 (1UL /*<< SCB_ABFSR_ITCM_Pos*/)                /*!< SCB 
 905:/Users/reza.kalfane/Workspaces/Daisy/DaisyExamples/libDaisy/Drivers/CMSIS/Include/core_cm7.h **** 
 906:/Users/reza.kalfane/Workspaces/Daisy/DaisyExamples/libDaisy/Drivers/CMSIS/Include/core_cm7.h **** /*@} end of group CMSIS_SCB */
 907:/Users/reza.kalfane/Workspaces/Daisy/DaisyExamples/libDaisy/Drivers/CMSIS/Include/core_cm7.h **** 
 908:/Users/reza.kalfane/Workspaces/Daisy/DaisyExamples/libDaisy/Drivers/CMSIS/Include/core_cm7.h **** 
 909:/Users/reza.kalfane/Workspaces/Daisy/DaisyExamples/libDaisy/Drivers/CMSIS/Include/core_cm7.h **** /**
 910:/Users/reza.kalfane/Workspaces/Daisy/DaisyExamples/libDaisy/Drivers/CMSIS/Include/core_cm7.h ****   \ingroup  CMSIS_core_register
 911:/Users/reza.kalfane/Workspaces/Daisy/DaisyExamples/libDaisy/Drivers/CMSIS/Include/core_cm7.h ****   \defgroup CMSIS_SCnSCB System Controls not in SCB (SCnSCB)
 912:/Users/reza.kalfane/Workspaces/Daisy/DaisyExamples/libDaisy/Drivers/CMSIS/Include/core_cm7.h ****   \brief    Type definitions for the System Control and ID Register not in the SCB
 913:/Users/reza.kalfane/Workspaces/Daisy/DaisyExamples/libDaisy/Drivers/CMSIS/Include/core_cm7.h ****   @{
 914:/Users/reza.kalfane/Workspaces/Daisy/DaisyExamples/libDaisy/Drivers/CMSIS/Include/core_cm7.h ****  */
 915:/Users/reza.kalfane/Workspaces/Daisy/DaisyExamples/libDaisy/Drivers/CMSIS/Include/core_cm7.h **** 
 916:/Users/reza.kalfane/Workspaces/Daisy/DaisyExamples/libDaisy/Drivers/CMSIS/Include/core_cm7.h **** /**
 917:/Users/reza.kalfane/Workspaces/Daisy/DaisyExamples/libDaisy/Drivers/CMSIS/Include/core_cm7.h ****   \brief  Structure type to access the System Control and ID Register not in the SCB.
 918:/Users/reza.kalfane/Workspaces/Daisy/DaisyExamples/libDaisy/Drivers/CMSIS/Include/core_cm7.h ****  */
 919:/Users/reza.kalfane/Workspaces/Daisy/DaisyExamples/libDaisy/Drivers/CMSIS/Include/core_cm7.h **** typedef struct
 920:/Users/reza.kalfane/Workspaces/Daisy/DaisyExamples/libDaisy/Drivers/CMSIS/Include/core_cm7.h **** {
 921:/Users/reza.kalfane/Workspaces/Daisy/DaisyExamples/libDaisy/Drivers/CMSIS/Include/core_cm7.h ****         uint32_t RESERVED0[1U];
 922:/Users/reza.kalfane/Workspaces/Daisy/DaisyExamples/libDaisy/Drivers/CMSIS/Include/core_cm7.h ****   __IM  uint32_t ICTR;                   /*!< Offset: 0x004 (R/ )  Interrupt Controller Type Regist
 923:/Users/reza.kalfane/Workspaces/Daisy/DaisyExamples/libDaisy/Drivers/CMSIS/Include/core_cm7.h ****   __IOM uint32_t ACTLR;                  /*!< Offset: 0x008 (R/W)  Auxiliary Control Register */
 924:/Users/reza.kalfane/Workspaces/Daisy/DaisyExamples/libDaisy/Drivers/CMSIS/Include/core_cm7.h **** } SCnSCB_Type;
 925:/Users/reza.kalfane/Workspaces/Daisy/DaisyExamples/libDaisy/Drivers/CMSIS/Include/core_cm7.h **** 
 926:/Users/reza.kalfane/Workspaces/Daisy/DaisyExamples/libDaisy/Drivers/CMSIS/Include/core_cm7.h **** /* Interrupt Controller Type Register Definitions */
 927:/Users/reza.kalfane/Workspaces/Daisy/DaisyExamples/libDaisy/Drivers/CMSIS/Include/core_cm7.h **** #define SCnSCB_ICTR_INTLINESNUM_Pos         0U                                         /*!< ICTR: I
 928:/Users/reza.kalfane/Workspaces/Daisy/DaisyExamples/libDaisy/Drivers/CMSIS/Include/core_cm7.h **** #define SCnSCB_ICTR_INTLINESNUM_Msk        (0xFUL /*<< SCnSCB_ICTR_INTLINESNUM_Pos*/)  /*!< ICTR: I
 929:/Users/reza.kalfane/Workspaces/Daisy/DaisyExamples/libDaisy/Drivers/CMSIS/Include/core_cm7.h **** 
ARM GAS  /tmp/claude-502/ccFotbfS.s 			page 79


 930:/Users/reza.kalfane/Workspaces/Daisy/DaisyExamples/libDaisy/Drivers/CMSIS/Include/core_cm7.h **** /* Auxiliary Control Register Definitions */
 931:/Users/reza.kalfane/Workspaces/Daisy/DaisyExamples/libDaisy/Drivers/CMSIS/Include/core_cm7.h **** #define SCnSCB_ACTLR_DISITMATBFLUSH_Pos    12U                                         /*!< ACTLR: 
 932:/Users/reza.kalfane/Workspaces/Daisy/DaisyExamples/libDaisy/Drivers/CMSIS/Include/core_cm7.h **** #define SCnSCB_ACTLR_DISITMATBFLUSH_Msk    (1UL << SCnSCB_ACTLR_DISITMATBFLUSH_Pos)    /*!< ACTLR: 
 933:/Users/reza.kalfane/Workspaces/Daisy/DaisyExamples/libDaisy/Drivers/CMSIS/Include/core_cm7.h **** 
 934:/Users/reza.kalfane/Workspaces/Daisy/DaisyExamples/libDaisy/Drivers/CMSIS/Include/core_cm7.h **** #define SCnSCB_ACTLR_DISRAMODE_Pos         11U                                         /*!< ACTLR: 
 935:/Users/reza.kalfane/Workspaces/Daisy/DaisyExamples/libDaisy/Drivers/CMSIS/Include/core_cm7.h **** #define SCnSCB_ACTLR_DISRAMODE_Msk         (1UL << SCnSCB_ACTLR_DISRAMODE_Pos)         /*!< ACTLR: 
 936:/Users/reza.kalfane/Workspaces/Daisy/DaisyExamples/libDaisy/Drivers/CMSIS/Include/core_cm7.h **** 
 937:/Users/reza.kalfane/Workspaces/Daisy/DaisyExamples/libDaisy/Drivers/CMSIS/Include/core_cm7.h **** #define SCnSCB_ACTLR_FPEXCODIS_Pos         10U                                         /*!< ACTLR: 
 938:/Users/reza.kalfane/Workspaces/Daisy/DaisyExamples/libDaisy/Drivers/CMSIS/Include/core_cm7.h **** #define SCnSCB_ACTLR_FPEXCODIS_Msk         (1UL << SCnSCB_ACTLR_FPEXCODIS_Pos)         /*!< ACTLR: 
 939:/Users/reza.kalfane/Workspaces/Daisy/DaisyExamples/libDaisy/Drivers/CMSIS/Include/core_cm7.h **** 
 940:/Users/reza.kalfane/Workspaces/Daisy/DaisyExamples/libDaisy/Drivers/CMSIS/Include/core_cm7.h **** #define SCnSCB_ACTLR_DISFOLD_Pos            2U                                         /*!< ACTLR: 
 941:/Users/reza.kalfane/Workspaces/Daisy/DaisyExamples/libDaisy/Drivers/CMSIS/Include/core_cm7.h **** #define SCnSCB_ACTLR_DISFOLD_Msk           (1UL << SCnSCB_ACTLR_DISFOLD_Pos)           /*!< ACTLR: 
 942:/Users/reza.kalfane/Workspaces/Daisy/DaisyExamples/libDaisy/Drivers/CMSIS/Include/core_cm7.h **** 
 943:/Users/reza.kalfane/Workspaces/Daisy/DaisyExamples/libDaisy/Drivers/CMSIS/Include/core_cm7.h **** #define SCnSCB_ACTLR_DISMCYCINT_Pos         0U                                         /*!< ACTLR: 
 944:/Users/reza.kalfane/Workspaces/Daisy/DaisyExamples/libDaisy/Drivers/CMSIS/Include/core_cm7.h **** #define SCnSCB_ACTLR_DISMCYCINT_Msk        (1UL /*<< SCnSCB_ACTLR_DISMCYCINT_Pos*/)    /*!< ACTLR: 
 945:/Users/reza.kalfane/Workspaces/Daisy/DaisyExamples/libDaisy/Drivers/CMSIS/Include/core_cm7.h **** 
 946:/Users/reza.kalfane/Workspaces/Daisy/DaisyExamples/libDaisy/Drivers/CMSIS/Include/core_cm7.h **** /*@} end of group CMSIS_SCnotSCB */
 947:/Users/reza.kalfane/Workspaces/Daisy/DaisyExamples/libDaisy/Drivers/CMSIS/Include/core_cm7.h **** 
 948:/Users/reza.kalfane/Workspaces/Daisy/DaisyExamples/libDaisy/Drivers/CMSIS/Include/core_cm7.h **** 
 949:/Users/reza.kalfane/Workspaces/Daisy/DaisyExamples/libDaisy/Drivers/CMSIS/Include/core_cm7.h **** /**
 950:/Users/reza.kalfane/Workspaces/Daisy/DaisyExamples/libDaisy/Drivers/CMSIS/Include/core_cm7.h ****   \ingroup  CMSIS_core_register
 951:/Users/reza.kalfane/Workspaces/Daisy/DaisyExamples/libDaisy/Drivers/CMSIS/Include/core_cm7.h ****   \defgroup CMSIS_SysTick     System Tick Timer (SysTick)
 952:/Users/reza.kalfane/Workspaces/Daisy/DaisyExamples/libDaisy/Drivers/CMSIS/Include/core_cm7.h ****   \brief    Type definitions for the System Timer Registers.
 953:/Users/reza.kalfane/Workspaces/Daisy/DaisyExamples/libDaisy/Drivers/CMSIS/Include/core_cm7.h ****   @{
 954:/Users/reza.kalfane/Workspaces/Daisy/DaisyExamples/libDaisy/Drivers/CMSIS/Include/core_cm7.h ****  */
 955:/Users/reza.kalfane/Workspaces/Daisy/DaisyExamples/libDaisy/Drivers/CMSIS/Include/core_cm7.h **** 
 956:/Users/reza.kalfane/Workspaces/Daisy/DaisyExamples/libDaisy/Drivers/CMSIS/Include/core_cm7.h **** /**
 957:/Users/reza.kalfane/Workspaces/Daisy/DaisyExamples/libDaisy/Drivers/CMSIS/Include/core_cm7.h ****   \brief  Structure type to access the System Timer (SysTick).
 958:/Users/reza.kalfane/Workspaces/Daisy/DaisyExamples/libDaisy/Drivers/CMSIS/Include/core_cm7.h ****  */
 959:/Users/reza.kalfane/Workspaces/Daisy/DaisyExamples/libDaisy/Drivers/CMSIS/Include/core_cm7.h **** typedef struct
 960:/Users/reza.kalfane/Workspaces/Daisy/DaisyExamples/libDaisy/Drivers/CMSIS/Include/core_cm7.h **** {
 961:/Users/reza.kalfane/Workspaces/Daisy/DaisyExamples/libDaisy/Drivers/CMSIS/Include/core_cm7.h ****   __IOM uint32_t CTRL;                   /*!< Offset: 0x000 (R/W)  SysTick Control and Status Regis
 962:/Users/reza.kalfane/Workspaces/Daisy/DaisyExamples/libDaisy/Drivers/CMSIS/Include/core_cm7.h ****   __IOM uint32_t LOAD;                   /*!< Offset: 0x004 (R/W)  SysTick Reload Value Register */
 963:/Users/reza.kalfane/Workspaces/Daisy/DaisyExamples/libDaisy/Drivers/CMSIS/Include/core_cm7.h ****   __IOM uint32_t VAL;                    /*!< Offset: 0x008 (R/W)  SysTick Current Value Register *
 964:/Users/reza.kalfane/Workspaces/Daisy/DaisyExamples/libDaisy/Drivers/CMSIS/Include/core_cm7.h ****   __IM  uint32_t CALIB;                  /*!< Offset: 0x00C (R/ )  SysTick Calibration Register */
 965:/Users/reza.kalfane/Workspaces/Daisy/DaisyExamples/libDaisy/Drivers/CMSIS/Include/core_cm7.h **** } SysTick_Type;
 966:/Users/reza.kalfane/Workspaces/Daisy/DaisyExamples/libDaisy/Drivers/CMSIS/Include/core_cm7.h **** 
 967:/Users/reza.kalfane/Workspaces/Daisy/DaisyExamples/libDaisy/Drivers/CMSIS/Include/core_cm7.h **** /* SysTick Control / Status Register Definitions */
 968:/Users/reza.kalfane/Workspaces/Daisy/DaisyExamples/libDaisy/Drivers/CMSIS/Include/core_cm7.h **** #define SysTick_CTRL_COUNTFLAG_Pos         16U                                            /*!< SysT
 969:/Users/reza.kalfane/Workspaces/Daisy/DaisyExamples/libDaisy/Drivers/CMSIS/Include/core_cm7.h **** #define SysTick_CTRL_COUNTFLAG_Msk         (1UL << SysTick_CTRL_COUNTFLAG_Pos)            /*!< SysT
 970:/Users/reza.kalfane/Workspaces/Daisy/DaisyExamples/libDaisy/Drivers/CMSIS/Include/core_cm7.h **** 
 971:/Users/reza.kalfane/Workspaces/Daisy/DaisyExamples/libDaisy/Drivers/CMSIS/Include/core_cm7.h **** #define SysTick_CTRL_CLKSOURCE_Pos          2U                                            /*!< SysT
 972:/Users/reza.kalfane/Workspaces/Daisy/DaisyExamples/libDaisy/Drivers/CMSIS/Include/core_cm7.h **** #define SysTick_CTRL_CLKSOURCE_Msk         (1UL << SysTick_CTRL_CLKSOURCE_Pos)            /*!< SysT
 973:/Users/reza.kalfane/Workspaces/Daisy/DaisyExamples/libDaisy/Drivers/CMSIS/Include/core_cm7.h **** 
 974:/Users/reza.kalfane/Workspaces/Daisy/DaisyExamples/libDaisy/Drivers/CMSIS/Include/core_cm7.h **** #define SysTick_CTRL_TICKINT_Pos            1U                                            /*!< SysT
 975:/Users/reza.kalfane/Workspaces/Daisy/DaisyExamples/libDaisy/Drivers/CMSIS/Include/core_cm7.h **** #define SysTick_CTRL_TICKINT_Msk           (1UL << SysTick_CTRL_TICKINT_Pos)              /*!< SysT
 976:/Users/reza.kalfane/Workspaces/Daisy/DaisyExamples/libDaisy/Drivers/CMSIS/Include/core_cm7.h **** 
 977:/Users/reza.kalfane/Workspaces/Daisy/DaisyExamples/libDaisy/Drivers/CMSIS/Include/core_cm7.h **** #define SysTick_CTRL_ENABLE_Pos             0U                                            /*!< SysT
 978:/Users/reza.kalfane/Workspaces/Daisy/DaisyExamples/libDaisy/Drivers/CMSIS/Include/core_cm7.h **** #define SysTick_CTRL_ENABLE_Msk            (1UL /*<< SysTick_CTRL_ENABLE_Pos*/)           /*!< SysT
 979:/Users/reza.kalfane/Workspaces/Daisy/DaisyExamples/libDaisy/Drivers/CMSIS/Include/core_cm7.h **** 
 980:/Users/reza.kalfane/Workspaces/Daisy/DaisyExamples/libDaisy/Drivers/CMSIS/Include/core_cm7.h **** /* SysTick Reload Register Definitions */
 981:/Users/reza.kalfane/Workspaces/Daisy/DaisyExamples/libDaisy/Drivers/CMSIS/Include/core_cm7.h **** #define SysTick_LOAD_RELOAD_Pos             0U                                            /*!< SysT
 982:/Users/reza.kalfane/Workspaces/Daisy/DaisyExamples/libDaisy/Drivers/CMSIS/Include/core_cm7.h **** #define SysTick_LOAD_RELOAD_Msk            (0xFFFFFFUL /*<< SysTick_LOAD_RELOAD_Pos*/)    /*!< SysT
 983:/Users/reza.kalfane/Workspaces/Daisy/DaisyExamples/libDaisy/Drivers/CMSIS/Include/core_cm7.h **** 
 984:/Users/reza.kalfane/Workspaces/Daisy/DaisyExamples/libDaisy/Drivers/CMSIS/Include/core_cm7.h **** /* SysTick Current Register Definitions */
 985:/Users/reza.kalfane/Workspaces/Daisy/DaisyExamples/libDaisy/Drivers/CMSIS/Include/core_cm7.h **** #define SysTick_VAL_CURRENT_Pos             0U                                            /*!< SysT
 986:/Users/reza.kalfane/Workspaces/Daisy/DaisyExamples/libDaisy/Drivers/CMSIS/Include/core_cm7.h **** #define SysTick_VAL_CURRENT_Msk            (0xFFFFFFUL /*<< SysTick_VAL_CURRENT_Pos*/)    /*!< SysT
ARM GAS  /tmp/claude-502/ccFotbfS.s 			page 80


 987:/Users/reza.kalfane/Workspaces/Daisy/DaisyExamples/libDaisy/Drivers/CMSIS/Include/core_cm7.h **** 
 988:/Users/reza.kalfane/Workspaces/Daisy/DaisyExamples/libDaisy/Drivers/CMSIS/Include/core_cm7.h **** /* SysTick Calibration Register Definitions */
 989:/Users/reza.kalfane/Workspaces/Daisy/DaisyExamples/libDaisy/Drivers/CMSIS/Include/core_cm7.h **** #define SysTick_CALIB_NOREF_Pos            31U                                            /*!< SysT
 990:/Users/reza.kalfane/Workspaces/Daisy/DaisyExamples/libDaisy/Drivers/CMSIS/Include/core_cm7.h **** #define SysTick_CALIB_NOREF_Msk            (1UL << SysTick_CALIB_NOREF_Pos)               /*!< SysT
 991:/Users/reza.kalfane/Workspaces/Daisy/DaisyExamples/libDaisy/Drivers/CMSIS/Include/core_cm7.h **** 
 992:/Users/reza.kalfane/Workspaces/Daisy/DaisyExamples/libDaisy/Drivers/CMSIS/Include/core_cm7.h **** #define SysTick_CALIB_SKEW_Pos             30U                                            /*!< SysT
 993:/Users/reza.kalfane/Workspaces/Daisy/DaisyExamples/libDaisy/Drivers/CMSIS/Include/core_cm7.h **** #define SysTick_CALIB_SKEW_Msk             (1UL << SysTick_CALIB_SKEW_Pos)                /*!< SysT
 994:/Users/reza.kalfane/Workspaces/Daisy/DaisyExamples/libDaisy/Drivers/CMSIS/Include/core_cm7.h **** 
 995:/Users/reza.kalfane/Workspaces/Daisy/DaisyExamples/libDaisy/Drivers/CMSIS/Include/core_cm7.h **** #define SysTick_CALIB_TENMS_Pos             0U                                            /*!< SysT
 996:/Users/reza.kalfane/Workspaces/Daisy/DaisyExamples/libDaisy/Drivers/CMSIS/Include/core_cm7.h **** #define SysTick_CALIB_TENMS_Msk            (0xFFFFFFUL /*<< SysTick_CALIB_TENMS_Pos*/)    /*!< SysT
 997:/Users/reza.kalfane/Workspaces/Daisy/DaisyExamples/libDaisy/Drivers/CMSIS/Include/core_cm7.h **** 
 998:/Users/reza.kalfane/Workspaces/Daisy/DaisyExamples/libDaisy/Drivers/CMSIS/Include/core_cm7.h **** /*@} end of group CMSIS_SysTick */
 999:/Users/reza.kalfane/Workspaces/Daisy/DaisyExamples/libDaisy/Drivers/CMSIS/Include/core_cm7.h **** 
1000:/Users/reza.kalfane/Workspaces/Daisy/DaisyExamples/libDaisy/Drivers/CMSIS/Include/core_cm7.h **** 
1001:/Users/reza.kalfane/Workspaces/Daisy/DaisyExamples/libDaisy/Drivers/CMSIS/Include/core_cm7.h **** /**
1002:/Users/reza.kalfane/Workspaces/Daisy/DaisyExamples/libDaisy/Drivers/CMSIS/Include/core_cm7.h ****   \ingroup  CMSIS_core_register
1003:/Users/reza.kalfane/Workspaces/Daisy/DaisyExamples/libDaisy/Drivers/CMSIS/Include/core_cm7.h ****   \defgroup CMSIS_ITM     Instrumentation Trace Macrocell (ITM)
1004:/Users/reza.kalfane/Workspaces/Daisy/DaisyExamples/libDaisy/Drivers/CMSIS/Include/core_cm7.h ****   \brief    Type definitions for the Instrumentation Trace Macrocell (ITM)
1005:/Users/reza.kalfane/Workspaces/Daisy/DaisyExamples/libDaisy/Drivers/CMSIS/Include/core_cm7.h ****   @{
1006:/Users/reza.kalfane/Workspaces/Daisy/DaisyExamples/libDaisy/Drivers/CMSIS/Include/core_cm7.h ****  */
1007:/Users/reza.kalfane/Workspaces/Daisy/DaisyExamples/libDaisy/Drivers/CMSIS/Include/core_cm7.h **** 
1008:/Users/reza.kalfane/Workspaces/Daisy/DaisyExamples/libDaisy/Drivers/CMSIS/Include/core_cm7.h **** /**
1009:/Users/reza.kalfane/Workspaces/Daisy/DaisyExamples/libDaisy/Drivers/CMSIS/Include/core_cm7.h ****   \brief  Structure type to access the Instrumentation Trace Macrocell Register (ITM).
1010:/Users/reza.kalfane/Workspaces/Daisy/DaisyExamples/libDaisy/Drivers/CMSIS/Include/core_cm7.h ****  */
1011:/Users/reza.kalfane/Workspaces/Daisy/DaisyExamples/libDaisy/Drivers/CMSIS/Include/core_cm7.h **** typedef struct
1012:/Users/reza.kalfane/Workspaces/Daisy/DaisyExamples/libDaisy/Drivers/CMSIS/Include/core_cm7.h **** {
1013:/Users/reza.kalfane/Workspaces/Daisy/DaisyExamples/libDaisy/Drivers/CMSIS/Include/core_cm7.h ****   __OM  union
1014:/Users/reza.kalfane/Workspaces/Daisy/DaisyExamples/libDaisy/Drivers/CMSIS/Include/core_cm7.h ****   {
1015:/Users/reza.kalfane/Workspaces/Daisy/DaisyExamples/libDaisy/Drivers/CMSIS/Include/core_cm7.h ****     __OM  uint8_t    u8;                 /*!< Offset: 0x000 ( /W)  ITM Stimulus Port 8-bit */
1016:/Users/reza.kalfane/Workspaces/Daisy/DaisyExamples/libDaisy/Drivers/CMSIS/Include/core_cm7.h ****     __OM  uint16_t   u16;                /*!< Offset: 0x000 ( /W)  ITM Stimulus Port 16-bit */
1017:/Users/reza.kalfane/Workspaces/Daisy/DaisyExamples/libDaisy/Drivers/CMSIS/Include/core_cm7.h ****     __OM  uint32_t   u32;                /*!< Offset: 0x000 ( /W)  ITM Stimulus Port 32-bit */
1018:/Users/reza.kalfane/Workspaces/Daisy/DaisyExamples/libDaisy/Drivers/CMSIS/Include/core_cm7.h ****   }  PORT [32U];                         /*!< Offset: 0x000 ( /W)  ITM Stimulus Port Registers */
1019:/Users/reza.kalfane/Workspaces/Daisy/DaisyExamples/libDaisy/Drivers/CMSIS/Include/core_cm7.h ****         uint32_t RESERVED0[864U];
1020:/Users/reza.kalfane/Workspaces/Daisy/DaisyExamples/libDaisy/Drivers/CMSIS/Include/core_cm7.h ****   __IOM uint32_t TER;                    /*!< Offset: 0xE00 (R/W)  ITM Trace Enable Register */
1021:/Users/reza.kalfane/Workspaces/Daisy/DaisyExamples/libDaisy/Drivers/CMSIS/Include/core_cm7.h ****         uint32_t RESERVED1[15U];
1022:/Users/reza.kalfane/Workspaces/Daisy/DaisyExamples/libDaisy/Drivers/CMSIS/Include/core_cm7.h ****   __IOM uint32_t TPR;                    /*!< Offset: 0xE40 (R/W)  ITM Trace Privilege Register */
1023:/Users/reza.kalfane/Workspaces/Daisy/DaisyExamples/libDaisy/Drivers/CMSIS/Include/core_cm7.h ****         uint32_t RESERVED2[15U];
1024:/Users/reza.kalfane/Workspaces/Daisy/DaisyExamples/libDaisy/Drivers/CMSIS/Include/core_cm7.h ****   __IOM uint32_t TCR;                    /*!< Offset: 0xE80 (R/W)  ITM Trace Control Register */
1025:/Users/reza.kalfane/Workspaces/Daisy/DaisyExamples/libDaisy/Drivers/CMSIS/Include/core_cm7.h ****         uint32_t RESERVED3[29U];
1026:/Users/reza.kalfane/Workspaces/Daisy/DaisyExamples/libDaisy/Drivers/CMSIS/Include/core_cm7.h ****   __OM  uint32_t IWR;                    /*!< Offset: 0xEF8 ( /W)  ITM Integration Write Register *
1027:/Users/reza.kalfane/Workspaces/Daisy/DaisyExamples/libDaisy/Drivers/CMSIS/Include/core_cm7.h ****   __IM  uint32_t IRR;                    /*!< Offset: 0xEFC (R/ )  ITM Integration Read Register */
1028:/Users/reza.kalfane/Workspaces/Daisy/DaisyExamples/libDaisy/Drivers/CMSIS/Include/core_cm7.h ****   __IOM uint32_t IMCR;                   /*!< Offset: 0xF00 (R/W)  ITM Integration Mode Control Reg
1029:/Users/reza.kalfane/Workspaces/Daisy/DaisyExamples/libDaisy/Drivers/CMSIS/Include/core_cm7.h ****         uint32_t RESERVED4[43U];
1030:/Users/reza.kalfane/Workspaces/Daisy/DaisyExamples/libDaisy/Drivers/CMSIS/Include/core_cm7.h ****   __OM  uint32_t LAR;                    /*!< Offset: 0xFB0 ( /W)  ITM Lock Access Register */
1031:/Users/reza.kalfane/Workspaces/Daisy/DaisyExamples/libDaisy/Drivers/CMSIS/Include/core_cm7.h ****   __IM  uint32_t LSR;                    /*!< Offset: 0xFB4 (R/ )  ITM Lock Status Register */
1032:/Users/reza.kalfane/Workspaces/Daisy/DaisyExamples/libDaisy/Drivers/CMSIS/Include/core_cm7.h ****         uint32_t RESERVED5[6U];
1033:/Users/reza.kalfane/Workspaces/Daisy/DaisyExamples/libDaisy/Drivers/CMSIS/Include/core_cm7.h ****   __IM  uint32_t PID4;                   /*!< Offset: 0xFD0 (R/ )  ITM Peripheral Identification Re
1034:/Users/reza.kalfane/Workspaces/Daisy/DaisyExamples/libDaisy/Drivers/CMSIS/Include/core_cm7.h ****   __IM  uint32_t PID5;                   /*!< Offset: 0xFD4 (R/ )  ITM Peripheral Identification Re
1035:/Users/reza.kalfane/Workspaces/Daisy/DaisyExamples/libDaisy/Drivers/CMSIS/Include/core_cm7.h ****   __IM  uint32_t PID6;                   /*!< Offset: 0xFD8 (R/ )  ITM Peripheral Identification Re
1036:/Users/reza.kalfane/Workspaces/Daisy/DaisyExamples/libDaisy/Drivers/CMSIS/Include/core_cm7.h ****   __IM  uint32_t PID7;                   /*!< Offset: 0xFDC (R/ )  ITM Peripheral Identification Re
1037:/Users/reza.kalfane/Workspaces/Daisy/DaisyExamples/libDaisy/Drivers/CMSIS/Include/core_cm7.h ****   __IM  uint32_t PID0;                   /*!< Offset: 0xFE0 (R/ )  ITM Peripheral Identification Re
1038:/Users/reza.kalfane/Workspaces/Daisy/DaisyExamples/libDaisy/Drivers/CMSIS/Include/core_cm7.h ****   __IM  uint32_t PID1;                   /*!< Offset: 0xFE4 (R/ )  ITM Peripheral Identification Re
1039:/Users/reza.kalfane/Workspaces/Daisy/DaisyExamples/libDaisy/Drivers/CMSIS/Include/core_cm7.h ****   __IM  uint32_t PID2;                   /*!< Offset: 0xFE8 (R/ )  ITM Peripheral Identification Re
1040:/Users/reza.kalfane/Workspaces/Daisy/DaisyExamples/libDaisy/Drivers/CMSIS/Include/core_cm7.h ****   __IM  uint32_t PID3;                   /*!< Offset: 0xFEC (R/ )  ITM Peripheral Identification Re
1041:/Users/reza.kalfane/Workspaces/Daisy/DaisyExamples/libDaisy/Drivers/CMSIS/Include/core_cm7.h ****   __IM  uint32_t CID0;                   /*!< Offset: 0xFF0 (R/ )  ITM Component  Identification Re
1042:/Users/reza.kalfane/Workspaces/Daisy/DaisyExamples/libDaisy/Drivers/CMSIS/Include/core_cm7.h ****   __IM  uint32_t CID1;                   /*!< Offset: 0xFF4 (R/ )  ITM Component  Identification Re
1043:/Users/reza.kalfane/Workspaces/Daisy/DaisyExamples/libDaisy/Drivers/CMSIS/Include/core_cm7.h ****   __IM  uint32_t CID2;                   /*!< Offset: 0xFF8 (R/ )  ITM Component  Identification Re
ARM GAS  /tmp/claude-502/ccFotbfS.s 			page 81


1044:/Users/reza.kalfane/Workspaces/Daisy/DaisyExamples/libDaisy/Drivers/CMSIS/Include/core_cm7.h ****   __IM  uint32_t CID3;                   /*!< Offset: 0xFFC (R/ )  ITM Component  Identification Re
1045:/Users/reza.kalfane/Workspaces/Daisy/DaisyExamples/libDaisy/Drivers/CMSIS/Include/core_cm7.h **** } ITM_Type;
1046:/Users/reza.kalfane/Workspaces/Daisy/DaisyExamples/libDaisy/Drivers/CMSIS/Include/core_cm7.h **** 
1047:/Users/reza.kalfane/Workspaces/Daisy/DaisyExamples/libDaisy/Drivers/CMSIS/Include/core_cm7.h **** /* ITM Trace Privilege Register Definitions */
1048:/Users/reza.kalfane/Workspaces/Daisy/DaisyExamples/libDaisy/Drivers/CMSIS/Include/core_cm7.h **** #define ITM_TPR_PRIVMASK_Pos                0U                                            /*!< ITM 
1049:/Users/reza.kalfane/Workspaces/Daisy/DaisyExamples/libDaisy/Drivers/CMSIS/Include/core_cm7.h **** #define ITM_TPR_PRIVMASK_Msk               (0xFUL /*<< ITM_TPR_PRIVMASK_Pos*/)            /*!< ITM 
1050:/Users/reza.kalfane/Workspaces/Daisy/DaisyExamples/libDaisy/Drivers/CMSIS/Include/core_cm7.h **** 
1051:/Users/reza.kalfane/Workspaces/Daisy/DaisyExamples/libDaisy/Drivers/CMSIS/Include/core_cm7.h **** /* ITM Trace Control Register Definitions */
1052:/Users/reza.kalfane/Workspaces/Daisy/DaisyExamples/libDaisy/Drivers/CMSIS/Include/core_cm7.h **** #define ITM_TCR_BUSY_Pos                   23U                                            /*!< ITM 
1053:/Users/reza.kalfane/Workspaces/Daisy/DaisyExamples/libDaisy/Drivers/CMSIS/Include/core_cm7.h **** #define ITM_TCR_BUSY_Msk                   (1UL << ITM_TCR_BUSY_Pos)                      /*!< ITM 
1054:/Users/reza.kalfane/Workspaces/Daisy/DaisyExamples/libDaisy/Drivers/CMSIS/Include/core_cm7.h **** 
1055:/Users/reza.kalfane/Workspaces/Daisy/DaisyExamples/libDaisy/Drivers/CMSIS/Include/core_cm7.h **** #define ITM_TCR_TraceBusID_Pos             16U                                            /*!< ITM 
1056:/Users/reza.kalfane/Workspaces/Daisy/DaisyExamples/libDaisy/Drivers/CMSIS/Include/core_cm7.h **** #define ITM_TCR_TraceBusID_Msk             (0x7FUL << ITM_TCR_TraceBusID_Pos)             /*!< ITM 
1057:/Users/reza.kalfane/Workspaces/Daisy/DaisyExamples/libDaisy/Drivers/CMSIS/Include/core_cm7.h **** 
1058:/Users/reza.kalfane/Workspaces/Daisy/DaisyExamples/libDaisy/Drivers/CMSIS/Include/core_cm7.h **** #define ITM_TCR_GTSFREQ_Pos                10U                                            /*!< ITM 
1059:/Users/reza.kalfane/Workspaces/Daisy/DaisyExamples/libDaisy/Drivers/CMSIS/Include/core_cm7.h **** #define ITM_TCR_GTSFREQ_Msk                (3UL << ITM_TCR_GTSFREQ_Pos)                   /*!< ITM 
1060:/Users/reza.kalfane/Workspaces/Daisy/DaisyExamples/libDaisy/Drivers/CMSIS/Include/core_cm7.h **** 
1061:/Users/reza.kalfane/Workspaces/Daisy/DaisyExamples/libDaisy/Drivers/CMSIS/Include/core_cm7.h **** #define ITM_TCR_TSPrescale_Pos              8U                                            /*!< ITM 
1062:/Users/reza.kalfane/Workspaces/Daisy/DaisyExamples/libDaisy/Drivers/CMSIS/Include/core_cm7.h **** #define ITM_TCR_TSPrescale_Msk             (3UL << ITM_TCR_TSPrescale_Pos)                /*!< ITM 
1063:/Users/reza.kalfane/Workspaces/Daisy/DaisyExamples/libDaisy/Drivers/CMSIS/Include/core_cm7.h **** 
1064:/Users/reza.kalfane/Workspaces/Daisy/DaisyExamples/libDaisy/Drivers/CMSIS/Include/core_cm7.h **** #define ITM_TCR_SWOENA_Pos                  4U                                            /*!< ITM 
1065:/Users/reza.kalfane/Workspaces/Daisy/DaisyExamples/libDaisy/Drivers/CMSIS/Include/core_cm7.h **** #define ITM_TCR_SWOENA_Msk                 (1UL << ITM_TCR_SWOENA_Pos)                    /*!< ITM 
1066:/Users/reza.kalfane/Workspaces/Daisy/DaisyExamples/libDaisy/Drivers/CMSIS/Include/core_cm7.h **** 
1067:/Users/reza.kalfane/Workspaces/Daisy/DaisyExamples/libDaisy/Drivers/CMSIS/Include/core_cm7.h **** #define ITM_TCR_DWTENA_Pos                  3U                                            /*!< ITM 
1068:/Users/reza.kalfane/Workspaces/Daisy/DaisyExamples/libDaisy/Drivers/CMSIS/Include/core_cm7.h **** #define ITM_TCR_DWTENA_Msk                 (1UL << ITM_TCR_DWTENA_Pos)                    /*!< ITM 
1069:/Users/reza.kalfane/Workspaces/Daisy/DaisyExamples/libDaisy/Drivers/CMSIS/Include/core_cm7.h **** 
1070:/Users/reza.kalfane/Workspaces/Daisy/DaisyExamples/libDaisy/Drivers/CMSIS/Include/core_cm7.h **** #define ITM_TCR_SYNCENA_Pos                 2U                                            /*!< ITM 
1071:/Users/reza.kalfane/Workspaces/Daisy/DaisyExamples/libDaisy/Drivers/CMSIS/Include/core_cm7.h **** #define ITM_TCR_SYNCENA_Msk                (1UL << ITM_TCR_SYNCENA_Pos)                   /*!< ITM 
1072:/Users/reza.kalfane/Workspaces/Daisy/DaisyExamples/libDaisy/Drivers/CMSIS/Include/core_cm7.h **** 
1073:/Users/reza.kalfane/Workspaces/Daisy/DaisyExamples/libDaisy/Drivers/CMSIS/Include/core_cm7.h **** #define ITM_TCR_TSENA_Pos                   1U                                            /*!< ITM 
1074:/Users/reza.kalfane/Workspaces/Daisy/DaisyExamples/libDaisy/Drivers/CMSIS/Include/core_cm7.h **** #define ITM_TCR_TSENA_Msk                  (1UL << ITM_TCR_TSENA_Pos)                     /*!< ITM 
1075:/Users/reza.kalfane/Workspaces/Daisy/DaisyExamples/libDaisy/Drivers/CMSIS/Include/core_cm7.h **** 
1076:/Users/reza.kalfane/Workspaces/Daisy/DaisyExamples/libDaisy/Drivers/CMSIS/Include/core_cm7.h **** #define ITM_TCR_ITMENA_Pos                  0U                                            /*!< ITM 
1077:/Users/reza.kalfane/Workspaces/Daisy/DaisyExamples/libDaisy/Drivers/CMSIS/Include/core_cm7.h **** #define ITM_TCR_ITMENA_Msk                 (1UL /*<< ITM_TCR_ITMENA_Pos*/)                /*!< ITM 
1078:/Users/reza.kalfane/Workspaces/Daisy/DaisyExamples/libDaisy/Drivers/CMSIS/Include/core_cm7.h **** 
1079:/Users/reza.kalfane/Workspaces/Daisy/DaisyExamples/libDaisy/Drivers/CMSIS/Include/core_cm7.h **** /* ITM Integration Write Register Definitions */
1080:/Users/reza.kalfane/Workspaces/Daisy/DaisyExamples/libDaisy/Drivers/CMSIS/Include/core_cm7.h **** #define ITM_IWR_ATVALIDM_Pos                0U                                            /*!< ITM 
1081:/Users/reza.kalfane/Workspaces/Daisy/DaisyExamples/libDaisy/Drivers/CMSIS/Include/core_cm7.h **** #define ITM_IWR_ATVALIDM_Msk               (1UL /*<< ITM_IWR_ATVALIDM_Pos*/)              /*!< ITM 
1082:/Users/reza.kalfane/Workspaces/Daisy/DaisyExamples/libDaisy/Drivers/CMSIS/Include/core_cm7.h **** 
1083:/Users/reza.kalfane/Workspaces/Daisy/DaisyExamples/libDaisy/Drivers/CMSIS/Include/core_cm7.h **** /* ITM Integration Read Register Definitions */
1084:/Users/reza.kalfane/Workspaces/Daisy/DaisyExamples/libDaisy/Drivers/CMSIS/Include/core_cm7.h **** #define ITM_IRR_ATREADYM_Pos                0U                                            /*!< ITM 
1085:/Users/reza.kalfane/Workspaces/Daisy/DaisyExamples/libDaisy/Drivers/CMSIS/Include/core_cm7.h **** #define ITM_IRR_ATREADYM_Msk               (1UL /*<< ITM_IRR_ATREADYM_Pos*/)              /*!< ITM 
1086:/Users/reza.kalfane/Workspaces/Daisy/DaisyExamples/libDaisy/Drivers/CMSIS/Include/core_cm7.h **** 
1087:/Users/reza.kalfane/Workspaces/Daisy/DaisyExamples/libDaisy/Drivers/CMSIS/Include/core_cm7.h **** /* ITM Integration Mode Control Register Definitions */
1088:/Users/reza.kalfane/Workspaces/Daisy/DaisyExamples/libDaisy/Drivers/CMSIS/Include/core_cm7.h **** #define ITM_IMCR_INTEGRATION_Pos            0U                                            /*!< ITM 
1089:/Users/reza.kalfane/Workspaces/Daisy/DaisyExamples/libDaisy/Drivers/CMSIS/Include/core_cm7.h **** #define ITM_IMCR_INTEGRATION_Msk           (1UL /*<< ITM_IMCR_INTEGRATION_Pos*/)          /*!< ITM 
1090:/Users/reza.kalfane/Workspaces/Daisy/DaisyExamples/libDaisy/Drivers/CMSIS/Include/core_cm7.h **** 
1091:/Users/reza.kalfane/Workspaces/Daisy/DaisyExamples/libDaisy/Drivers/CMSIS/Include/core_cm7.h **** /* ITM Lock Status Register Definitions */
1092:/Users/reza.kalfane/Workspaces/Daisy/DaisyExamples/libDaisy/Drivers/CMSIS/Include/core_cm7.h **** #define ITM_LSR_ByteAcc_Pos                 2U                                            /*!< ITM 
1093:/Users/reza.kalfane/Workspaces/Daisy/DaisyExamples/libDaisy/Drivers/CMSIS/Include/core_cm7.h **** #define ITM_LSR_ByteAcc_Msk                (1UL << ITM_LSR_ByteAcc_Pos)                   /*!< ITM 
1094:/Users/reza.kalfane/Workspaces/Daisy/DaisyExamples/libDaisy/Drivers/CMSIS/Include/core_cm7.h **** 
1095:/Users/reza.kalfane/Workspaces/Daisy/DaisyExamples/libDaisy/Drivers/CMSIS/Include/core_cm7.h **** #define ITM_LSR_Access_Pos                  1U                                            /*!< ITM 
1096:/Users/reza.kalfane/Workspaces/Daisy/DaisyExamples/libDaisy/Drivers/CMSIS/Include/core_cm7.h **** #define ITM_LSR_Access_Msk                 (1UL << ITM_LSR_Access_Pos)                    /*!< ITM 
1097:/Users/reza.kalfane/Workspaces/Daisy/DaisyExamples/libDaisy/Drivers/CMSIS/Include/core_cm7.h **** 
1098:/Users/reza.kalfane/Workspaces/Daisy/DaisyExamples/libDaisy/Drivers/CMSIS/Include/core_cm7.h **** #define ITM_LSR_Present_Pos                 0U                                            /*!< ITM 
1099:/Users/reza.kalfane/Workspaces/Daisy/DaisyExamples/libDaisy/Drivers/CMSIS/Include/core_cm7.h **** #define ITM_LSR_Present_Msk                (1UL /*<< ITM_LSR_Present_Pos*/)               /*!< ITM 
1100:/Users/reza.kalfane/Workspaces/Daisy/DaisyExamples/libDaisy/Drivers/CMSIS/Include/core_cm7.h **** 
ARM GAS  /tmp/claude-502/ccFotbfS.s 			page 82


1101:/Users/reza.kalfane/Workspaces/Daisy/DaisyExamples/libDaisy/Drivers/CMSIS/Include/core_cm7.h **** /*@}*/ /* end of group CMSIS_ITM */
1102:/Users/reza.kalfane/Workspaces/Daisy/DaisyExamples/libDaisy/Drivers/CMSIS/Include/core_cm7.h **** 
1103:/Users/reza.kalfane/Workspaces/Daisy/DaisyExamples/libDaisy/Drivers/CMSIS/Include/core_cm7.h **** 
1104:/Users/reza.kalfane/Workspaces/Daisy/DaisyExamples/libDaisy/Drivers/CMSIS/Include/core_cm7.h **** /**
1105:/Users/reza.kalfane/Workspaces/Daisy/DaisyExamples/libDaisy/Drivers/CMSIS/Include/core_cm7.h ****   \ingroup  CMSIS_core_register
1106:/Users/reza.kalfane/Workspaces/Daisy/DaisyExamples/libDaisy/Drivers/CMSIS/Include/core_cm7.h ****   \defgroup CMSIS_DWT     Data Watchpoint and Trace (DWT)
1107:/Users/reza.kalfane/Workspaces/Daisy/DaisyExamples/libDaisy/Drivers/CMSIS/Include/core_cm7.h ****   \brief    Type definitions for the Data Watchpoint and Trace (DWT)
1108:/Users/reza.kalfane/Workspaces/Daisy/DaisyExamples/libDaisy/Drivers/CMSIS/Include/core_cm7.h ****   @{
1109:/Users/reza.kalfane/Workspaces/Daisy/DaisyExamples/libDaisy/Drivers/CMSIS/Include/core_cm7.h ****  */
1110:/Users/reza.kalfane/Workspaces/Daisy/DaisyExamples/libDaisy/Drivers/CMSIS/Include/core_cm7.h **** 
1111:/Users/reza.kalfane/Workspaces/Daisy/DaisyExamples/libDaisy/Drivers/CMSIS/Include/core_cm7.h **** /**
1112:/Users/reza.kalfane/Workspaces/Daisy/DaisyExamples/libDaisy/Drivers/CMSIS/Include/core_cm7.h ****   \brief  Structure type to access the Data Watchpoint and Trace Register (DWT).
1113:/Users/reza.kalfane/Workspaces/Daisy/DaisyExamples/libDaisy/Drivers/CMSIS/Include/core_cm7.h ****  */
1114:/Users/reza.kalfane/Workspaces/Daisy/DaisyExamples/libDaisy/Drivers/CMSIS/Include/core_cm7.h **** typedef struct
1115:/Users/reza.kalfane/Workspaces/Daisy/DaisyExamples/libDaisy/Drivers/CMSIS/Include/core_cm7.h **** {
1116:/Users/reza.kalfane/Workspaces/Daisy/DaisyExamples/libDaisy/Drivers/CMSIS/Include/core_cm7.h ****   __IOM uint32_t CTRL;                   /*!< Offset: 0x000 (R/W)  Control Register */
1117:/Users/reza.kalfane/Workspaces/Daisy/DaisyExamples/libDaisy/Drivers/CMSIS/Include/core_cm7.h ****   __IOM uint32_t CYCCNT;                 /*!< Offset: 0x004 (R/W)  Cycle Count Register */
1118:/Users/reza.kalfane/Workspaces/Daisy/DaisyExamples/libDaisy/Drivers/CMSIS/Include/core_cm7.h ****   __IOM uint32_t CPICNT;                 /*!< Offset: 0x008 (R/W)  CPI Count Register */
1119:/Users/reza.kalfane/Workspaces/Daisy/DaisyExamples/libDaisy/Drivers/CMSIS/Include/core_cm7.h ****   __IOM uint32_t EXCCNT;                 /*!< Offset: 0x00C (R/W)  Exception Overhead Count Registe
1120:/Users/reza.kalfane/Workspaces/Daisy/DaisyExamples/libDaisy/Drivers/CMSIS/Include/core_cm7.h ****   __IOM uint32_t SLEEPCNT;               /*!< Offset: 0x010 (R/W)  Sleep Count Register */
1121:/Users/reza.kalfane/Workspaces/Daisy/DaisyExamples/libDaisy/Drivers/CMSIS/Include/core_cm7.h ****   __IOM uint32_t LSUCNT;                 /*!< Offset: 0x014 (R/W)  LSU Count Register */
1122:/Users/reza.kalfane/Workspaces/Daisy/DaisyExamples/libDaisy/Drivers/CMSIS/Include/core_cm7.h ****   __IOM uint32_t FOLDCNT;                /*!< Offset: 0x018 (R/W)  Folded-instruction Count Registe
1123:/Users/reza.kalfane/Workspaces/Daisy/DaisyExamples/libDaisy/Drivers/CMSIS/Include/core_cm7.h ****   __IM  uint32_t PCSR;                   /*!< Offset: 0x01C (R/ )  Program Counter Sample Register 
1124:/Users/reza.kalfane/Workspaces/Daisy/DaisyExamples/libDaisy/Drivers/CMSIS/Include/core_cm7.h ****   __IOM uint32_t COMP0;                  /*!< Offset: 0x020 (R/W)  Comparator Register 0 */
1125:/Users/reza.kalfane/Workspaces/Daisy/DaisyExamples/libDaisy/Drivers/CMSIS/Include/core_cm7.h ****   __IOM uint32_t MASK0;                  /*!< Offset: 0x024 (R/W)  Mask Register 0 */
1126:/Users/reza.kalfane/Workspaces/Daisy/DaisyExamples/libDaisy/Drivers/CMSIS/Include/core_cm7.h ****   __IOM uint32_t FUNCTION0;              /*!< Offset: 0x028 (R/W)  Function Register 0 */
1127:/Users/reza.kalfane/Workspaces/Daisy/DaisyExamples/libDaisy/Drivers/CMSIS/Include/core_cm7.h ****         uint32_t RESERVED0[1U];
1128:/Users/reza.kalfane/Workspaces/Daisy/DaisyExamples/libDaisy/Drivers/CMSIS/Include/core_cm7.h ****   __IOM uint32_t COMP1;                  /*!< Offset: 0x030 (R/W)  Comparator Register 1 */
1129:/Users/reza.kalfane/Workspaces/Daisy/DaisyExamples/libDaisy/Drivers/CMSIS/Include/core_cm7.h ****   __IOM uint32_t MASK1;                  /*!< Offset: 0x034 (R/W)  Mask Register 1 */
1130:/Users/reza.kalfane/Workspaces/Daisy/DaisyExamples/libDaisy/Drivers/CMSIS/Include/core_cm7.h ****   __IOM uint32_t FUNCTION1;              /*!< Offset: 0x038 (R/W)  Function Register 1 */
1131:/Users/reza.kalfane/Workspaces/Daisy/DaisyExamples/libDaisy/Drivers/CMSIS/Include/core_cm7.h ****         uint32_t RESERVED1[1U];
1132:/Users/reza.kalfane/Workspaces/Daisy/DaisyExamples/libDaisy/Drivers/CMSIS/Include/core_cm7.h ****   __IOM uint32_t COMP2;                  /*!< Offset: 0x040 (R/W)  Comparator Register 2 */
1133:/Users/reza.kalfane/Workspaces/Daisy/DaisyExamples/libDaisy/Drivers/CMSIS/Include/core_cm7.h ****   __IOM uint32_t MASK2;                  /*!< Offset: 0x044 (R/W)  Mask Register 2 */
1134:/Users/reza.kalfane/Workspaces/Daisy/DaisyExamples/libDaisy/Drivers/CMSIS/Include/core_cm7.h ****   __IOM uint32_t FUNCTION2;              /*!< Offset: 0x048 (R/W)  Function Register 2 */
1135:/Users/reza.kalfane/Workspaces/Daisy/DaisyExamples/libDaisy/Drivers/CMSIS/Include/core_cm7.h ****         uint32_t RESERVED2[1U];
1136:/Users/reza.kalfane/Workspaces/Daisy/DaisyExamples/libDaisy/Drivers/CMSIS/Include/core_cm7.h ****   __IOM uint32_t COMP3;                  /*!< Offset: 0x050 (R/W)  Comparator Register 3 */
1137:/Users/reza.kalfane/Workspaces/Daisy/DaisyExamples/libDaisy/Drivers/CMSIS/Include/core_cm7.h ****   __IOM uint32_t MASK3;                  /*!< Offset: 0x054 (R/W)  Mask Register 3 */
1138:/Users/reza.kalfane/Workspaces/Daisy/DaisyExamples/libDaisy/Drivers/CMSIS/Include/core_cm7.h ****   __IOM uint32_t FUNCTION3;              /*!< Offset: 0x058 (R/W)  Function Register 3 */
1139:/Users/reza.kalfane/Workspaces/Daisy/DaisyExamples/libDaisy/Drivers/CMSIS/Include/core_cm7.h ****         uint32_t RESERVED3[981U];
1140:/Users/reza.kalfane/Workspaces/Daisy/DaisyExamples/libDaisy/Drivers/CMSIS/Include/core_cm7.h ****   __OM  uint32_t LAR;                    /*!< Offset: 0xFB0 (  W)  Lock Access Register */
1141:/Users/reza.kalfane/Workspaces/Daisy/DaisyExamples/libDaisy/Drivers/CMSIS/Include/core_cm7.h ****   __IM  uint32_t LSR;                    /*!< Offset: 0xFB4 (R  )  Lock Status Register */
1142:/Users/reza.kalfane/Workspaces/Daisy/DaisyExamples/libDaisy/Drivers/CMSIS/Include/core_cm7.h **** } DWT_Type;
1143:/Users/reza.kalfane/Workspaces/Daisy/DaisyExamples/libDaisy/Drivers/CMSIS/Include/core_cm7.h **** 
1144:/Users/reza.kalfane/Workspaces/Daisy/DaisyExamples/libDaisy/Drivers/CMSIS/Include/core_cm7.h **** /* DWT Control Register Definitions */
1145:/Users/reza.kalfane/Workspaces/Daisy/DaisyExamples/libDaisy/Drivers/CMSIS/Include/core_cm7.h **** #define DWT_CTRL_NUMCOMP_Pos               28U                                         /*!< DWT CTR
1146:/Users/reza.kalfane/Workspaces/Daisy/DaisyExamples/libDaisy/Drivers/CMSIS/Include/core_cm7.h **** #define DWT_CTRL_NUMCOMP_Msk               (0xFUL << DWT_CTRL_NUMCOMP_Pos)             /*!< DWT CTR
1147:/Users/reza.kalfane/Workspaces/Daisy/DaisyExamples/libDaisy/Drivers/CMSIS/Include/core_cm7.h **** 
1148:/Users/reza.kalfane/Workspaces/Daisy/DaisyExamples/libDaisy/Drivers/CMSIS/Include/core_cm7.h **** #define DWT_CTRL_NOTRCPKT_Pos              27U                                         /*!< DWT CTR
1149:/Users/reza.kalfane/Workspaces/Daisy/DaisyExamples/libDaisy/Drivers/CMSIS/Include/core_cm7.h **** #define DWT_CTRL_NOTRCPKT_Msk              (0x1UL << DWT_CTRL_NOTRCPKT_Pos)            /*!< DWT CTR
1150:/Users/reza.kalfane/Workspaces/Daisy/DaisyExamples/libDaisy/Drivers/CMSIS/Include/core_cm7.h **** 
1151:/Users/reza.kalfane/Workspaces/Daisy/DaisyExamples/libDaisy/Drivers/CMSIS/Include/core_cm7.h **** #define DWT_CTRL_NOEXTTRIG_Pos             26U                                         /*!< DWT CTR
1152:/Users/reza.kalfane/Workspaces/Daisy/DaisyExamples/libDaisy/Drivers/CMSIS/Include/core_cm7.h **** #define DWT_CTRL_NOEXTTRIG_Msk             (0x1UL << DWT_CTRL_NOEXTTRIG_Pos)           /*!< DWT CTR
1153:/Users/reza.kalfane/Workspaces/Daisy/DaisyExamples/libDaisy/Drivers/CMSIS/Include/core_cm7.h **** 
1154:/Users/reza.kalfane/Workspaces/Daisy/DaisyExamples/libDaisy/Drivers/CMSIS/Include/core_cm7.h **** #define DWT_CTRL_NOCYCCNT_Pos              25U                                         /*!< DWT CTR
1155:/Users/reza.kalfane/Workspaces/Daisy/DaisyExamples/libDaisy/Drivers/CMSIS/Include/core_cm7.h **** #define DWT_CTRL_NOCYCCNT_Msk              (0x1UL << DWT_CTRL_NOCYCCNT_Pos)            /*!< DWT CTR
1156:/Users/reza.kalfane/Workspaces/Daisy/DaisyExamples/libDaisy/Drivers/CMSIS/Include/core_cm7.h **** 
1157:/Users/reza.kalfane/Workspaces/Daisy/DaisyExamples/libDaisy/Drivers/CMSIS/Include/core_cm7.h **** #define DWT_CTRL_NOPRFCNT_Pos              24U                                         /*!< DWT CTR
ARM GAS  /tmp/claude-502/ccFotbfS.s 			page 83


1158:/Users/reza.kalfane/Workspaces/Daisy/DaisyExamples/libDaisy/Drivers/CMSIS/Include/core_cm7.h **** #define DWT_CTRL_NOPRFCNT_Msk              (0x1UL << DWT_CTRL_NOPRFCNT_Pos)            /*!< DWT CTR
1159:/Users/reza.kalfane/Workspaces/Daisy/DaisyExamples/libDaisy/Drivers/CMSIS/Include/core_cm7.h **** 
1160:/Users/reza.kalfane/Workspaces/Daisy/DaisyExamples/libDaisy/Drivers/CMSIS/Include/core_cm7.h **** #define DWT_CTRL_CYCEVTENA_Pos             22U                                         /*!< DWT CTR
1161:/Users/reza.kalfane/Workspaces/Daisy/DaisyExamples/libDaisy/Drivers/CMSIS/Include/core_cm7.h **** #define DWT_CTRL_CYCEVTENA_Msk             (0x1UL << DWT_CTRL_CYCEVTENA_Pos)           /*!< DWT CTR
1162:/Users/reza.kalfane/Workspaces/Daisy/DaisyExamples/libDaisy/Drivers/CMSIS/Include/core_cm7.h **** 
1163:/Users/reza.kalfane/Workspaces/Daisy/DaisyExamples/libDaisy/Drivers/CMSIS/Include/core_cm7.h **** #define DWT_CTRL_FOLDEVTENA_Pos            21U                                         /*!< DWT CTR
1164:/Users/reza.kalfane/Workspaces/Daisy/DaisyExamples/libDaisy/Drivers/CMSIS/Include/core_cm7.h **** #define DWT_CTRL_FOLDEVTENA_Msk            (0x1UL << DWT_CTRL_FOLDEVTENA_Pos)          /*!< DWT CTR
1165:/Users/reza.kalfane/Workspaces/Daisy/DaisyExamples/libDaisy/Drivers/CMSIS/Include/core_cm7.h **** 
1166:/Users/reza.kalfane/Workspaces/Daisy/DaisyExamples/libDaisy/Drivers/CMSIS/Include/core_cm7.h **** #define DWT_CTRL_LSUEVTENA_Pos             20U                                         /*!< DWT CTR
1167:/Users/reza.kalfane/Workspaces/Daisy/DaisyExamples/libDaisy/Drivers/CMSIS/Include/core_cm7.h **** #define DWT_CTRL_LSUEVTENA_Msk             (0x1UL << DWT_CTRL_LSUEVTENA_Pos)           /*!< DWT CTR
1168:/Users/reza.kalfane/Workspaces/Daisy/DaisyExamples/libDaisy/Drivers/CMSIS/Include/core_cm7.h **** 
1169:/Users/reza.kalfane/Workspaces/Daisy/DaisyExamples/libDaisy/Drivers/CMSIS/Include/core_cm7.h **** #define DWT_CTRL_SLEEPEVTENA_Pos           19U                                         /*!< DWT CTR
1170:/Users/reza.kalfane/Workspaces/Daisy/DaisyExamples/libDaisy/Drivers/CMSIS/Include/core_cm7.h **** #define DWT_CTRL_SLEEPEVTENA_Msk           (0x1UL << DWT_CTRL_SLEEPEVTENA_Pos)         /*!< DWT CTR
1171:/Users/reza.kalfane/Workspaces/Daisy/DaisyExamples/libDaisy/Drivers/CMSIS/Include/core_cm7.h **** 
1172:/Users/reza.kalfane/Workspaces/Daisy/DaisyExamples/libDaisy/Drivers/CMSIS/Include/core_cm7.h **** #define DWT_CTRL_EXCEVTENA_Pos             18U                                         /*!< DWT CTR
1173:/Users/reza.kalfane/Workspaces/Daisy/DaisyExamples/libDaisy/Drivers/CMSIS/Include/core_cm7.h **** #define DWT_CTRL_EXCEVTENA_Msk             (0x1UL << DWT_CTRL_EXCEVTENA_Pos)           /*!< DWT CTR
1174:/Users/reza.kalfane/Workspaces/Daisy/DaisyExamples/libDaisy/Drivers/CMSIS/Include/core_cm7.h **** 
1175:/Users/reza.kalfane/Workspaces/Daisy/DaisyExamples/libDaisy/Drivers/CMSIS/Include/core_cm7.h **** #define DWT_CTRL_CPIEVTENA_Pos             17U                                         /*!< DWT CTR
1176:/Users/reza.kalfane/Workspaces/Daisy/DaisyExamples/libDaisy/Drivers/CMSIS/Include/core_cm7.h **** #define DWT_CTRL_CPIEVTENA_Msk             (0x1UL << DWT_CTRL_CPIEVTENA_Pos)           /*!< DWT CTR
1177:/Users/reza.kalfane/Workspaces/Daisy/DaisyExamples/libDaisy/Drivers/CMSIS/Include/core_cm7.h **** 
1178:/Users/reza.kalfane/Workspaces/Daisy/DaisyExamples/libDaisy/Drivers/CMSIS/Include/core_cm7.h **** #define DWT_CTRL_EXCTRCENA_Pos             16U                                         /*!< DWT CTR
1179:/Users/reza.kalfane/Workspaces/Daisy/DaisyExamples/libDaisy/Drivers/CMSIS/Include/core_cm7.h **** #define DWT_CTRL_EXCTRCENA_Msk             (0x1UL << DWT_CTRL_EXCTRCENA_Pos)           /*!< DWT CTR
1180:/Users/reza.kalfane/Workspaces/Daisy/DaisyExamples/libDaisy/Drivers/CMSIS/Include/core_cm7.h **** 
1181:/Users/reza.kalfane/Workspaces/Daisy/DaisyExamples/libDaisy/Drivers/CMSIS/Include/core_cm7.h **** #define DWT_CTRL_PCSAMPLENA_Pos            12U                                         /*!< DWT CTR
1182:/Users/reza.kalfane/Workspaces/Daisy/DaisyExamples/libDaisy/Drivers/CMSIS/Include/core_cm7.h **** #define DWT_CTRL_PCSAMPLENA_Msk            (0x1UL << DWT_CTRL_PCSAMPLENA_Pos)          /*!< DWT CTR
1183:/Users/reza.kalfane/Workspaces/Daisy/DaisyExamples/libDaisy/Drivers/CMSIS/Include/core_cm7.h **** 
1184:/Users/reza.kalfane/Workspaces/Daisy/DaisyExamples/libDaisy/Drivers/CMSIS/Include/core_cm7.h **** #define DWT_CTRL_SYNCTAP_Pos               10U                                         /*!< DWT CTR
1185:/Users/reza.kalfane/Workspaces/Daisy/DaisyExamples/libDaisy/Drivers/CMSIS/Include/core_cm7.h **** #define DWT_CTRL_SYNCTAP_Msk               (0x3UL << DWT_CTRL_SYNCTAP_Pos)             /*!< DWT CTR
1186:/Users/reza.kalfane/Workspaces/Daisy/DaisyExamples/libDaisy/Drivers/CMSIS/Include/core_cm7.h **** 
1187:/Users/reza.kalfane/Workspaces/Daisy/DaisyExamples/libDaisy/Drivers/CMSIS/Include/core_cm7.h **** #define DWT_CTRL_CYCTAP_Pos                 9U                                         /*!< DWT CTR
1188:/Users/reza.kalfane/Workspaces/Daisy/DaisyExamples/libDaisy/Drivers/CMSIS/Include/core_cm7.h **** #define DWT_CTRL_CYCTAP_Msk                (0x1UL << DWT_CTRL_CYCTAP_Pos)              /*!< DWT CTR
1189:/Users/reza.kalfane/Workspaces/Daisy/DaisyExamples/libDaisy/Drivers/CMSIS/Include/core_cm7.h **** 
1190:/Users/reza.kalfane/Workspaces/Daisy/DaisyExamples/libDaisy/Drivers/CMSIS/Include/core_cm7.h **** #define DWT_CTRL_POSTINIT_Pos               5U                                         /*!< DWT CTR
1191:/Users/reza.kalfane/Workspaces/Daisy/DaisyExamples/libDaisy/Drivers/CMSIS/Include/core_cm7.h **** #define DWT_CTRL_POSTINIT_Msk              (0xFUL << DWT_CTRL_POSTINIT_Pos)            /*!< DWT CTR
1192:/Users/reza.kalfane/Workspaces/Daisy/DaisyExamples/libDaisy/Drivers/CMSIS/Include/core_cm7.h **** 
1193:/Users/reza.kalfane/Workspaces/Daisy/DaisyExamples/libDaisy/Drivers/CMSIS/Include/core_cm7.h **** #define DWT_CTRL_POSTPRESET_Pos             1U                                         /*!< DWT CTR
1194:/Users/reza.kalfane/Workspaces/Daisy/DaisyExamples/libDaisy/Drivers/CMSIS/Include/core_cm7.h **** #define DWT_CTRL_POSTPRESET_Msk            (0xFUL << DWT_CTRL_POSTPRESET_Pos)          /*!< DWT CTR
1195:/Users/reza.kalfane/Workspaces/Daisy/DaisyExamples/libDaisy/Drivers/CMSIS/Include/core_cm7.h **** 
1196:/Users/reza.kalfane/Workspaces/Daisy/DaisyExamples/libDaisy/Drivers/CMSIS/Include/core_cm7.h **** #define DWT_CTRL_CYCCNTENA_Pos              0U                                         /*!< DWT CTR
1197:/Users/reza.kalfane/Workspaces/Daisy/DaisyExamples/libDaisy/Drivers/CMSIS/Include/core_cm7.h **** #define DWT_CTRL_CYCCNTENA_Msk             (0x1UL /*<< DWT_CTRL_CYCCNTENA_Pos*/)       /*!< DWT CTR
1198:/Users/reza.kalfane/Workspaces/Daisy/DaisyExamples/libDaisy/Drivers/CMSIS/Include/core_cm7.h **** 
1199:/Users/reza.kalfane/Workspaces/Daisy/DaisyExamples/libDaisy/Drivers/CMSIS/Include/core_cm7.h **** /* DWT CPI Count Register Definitions */
1200:/Users/reza.kalfane/Workspaces/Daisy/DaisyExamples/libDaisy/Drivers/CMSIS/Include/core_cm7.h **** #define DWT_CPICNT_CPICNT_Pos               0U                                         /*!< DWT CPI
1201:/Users/reza.kalfane/Workspaces/Daisy/DaisyExamples/libDaisy/Drivers/CMSIS/Include/core_cm7.h **** #define DWT_CPICNT_CPICNT_Msk              (0xFFUL /*<< DWT_CPICNT_CPICNT_Pos*/)       /*!< DWT CPI
1202:/Users/reza.kalfane/Workspaces/Daisy/DaisyExamples/libDaisy/Drivers/CMSIS/Include/core_cm7.h **** 
1203:/Users/reza.kalfane/Workspaces/Daisy/DaisyExamples/libDaisy/Drivers/CMSIS/Include/core_cm7.h **** /* DWT Exception Overhead Count Register Definitions */
1204:/Users/reza.kalfane/Workspaces/Daisy/DaisyExamples/libDaisy/Drivers/CMSIS/Include/core_cm7.h **** #define DWT_EXCCNT_EXCCNT_Pos               0U                                         /*!< DWT EXC
1205:/Users/reza.kalfane/Workspaces/Daisy/DaisyExamples/libDaisy/Drivers/CMSIS/Include/core_cm7.h **** #define DWT_EXCCNT_EXCCNT_Msk              (0xFFUL /*<< DWT_EXCCNT_EXCCNT_Pos*/)       /*!< DWT EXC
1206:/Users/reza.kalfane/Workspaces/Daisy/DaisyExamples/libDaisy/Drivers/CMSIS/Include/core_cm7.h **** 
1207:/Users/reza.kalfane/Workspaces/Daisy/DaisyExamples/libDaisy/Drivers/CMSIS/Include/core_cm7.h **** /* DWT Sleep Count Register Definitions */
1208:/Users/reza.kalfane/Workspaces/Daisy/DaisyExamples/libDaisy/Drivers/CMSIS/Include/core_cm7.h **** #define DWT_SLEEPCNT_SLEEPCNT_Pos           0U                                         /*!< DWT SLE
1209:/Users/reza.kalfane/Workspaces/Daisy/DaisyExamples/libDaisy/Drivers/CMSIS/Include/core_cm7.h **** #define DWT_SLEEPCNT_SLEEPCNT_Msk          (0xFFUL /*<< DWT_SLEEPCNT_SLEEPCNT_Pos*/)   /*!< DWT SLE
1210:/Users/reza.kalfane/Workspaces/Daisy/DaisyExamples/libDaisy/Drivers/CMSIS/Include/core_cm7.h **** 
1211:/Users/reza.kalfane/Workspaces/Daisy/DaisyExamples/libDaisy/Drivers/CMSIS/Include/core_cm7.h **** /* DWT LSU Count Register Definitions */
1212:/Users/reza.kalfane/Workspaces/Daisy/DaisyExamples/libDaisy/Drivers/CMSIS/Include/core_cm7.h **** #define DWT_LSUCNT_LSUCNT_Pos               0U                                         /*!< DWT LSU
1213:/Users/reza.kalfane/Workspaces/Daisy/DaisyExamples/libDaisy/Drivers/CMSIS/Include/core_cm7.h **** #define DWT_LSUCNT_LSUCNT_Msk              (0xFFUL /*<< DWT_LSUCNT_LSUCNT_Pos*/)       /*!< DWT LSU
1214:/Users/reza.kalfane/Workspaces/Daisy/DaisyExamples/libDaisy/Drivers/CMSIS/Include/core_cm7.h **** 
ARM GAS  /tmp/claude-502/ccFotbfS.s 			page 84


1215:/Users/reza.kalfane/Workspaces/Daisy/DaisyExamples/libDaisy/Drivers/CMSIS/Include/core_cm7.h **** /* DWT Folded-instruction Count Register Definitions */
1216:/Users/reza.kalfane/Workspaces/Daisy/DaisyExamples/libDaisy/Drivers/CMSIS/Include/core_cm7.h **** #define DWT_FOLDCNT_FOLDCNT_Pos             0U                                         /*!< DWT FOL
1217:/Users/reza.kalfane/Workspaces/Daisy/DaisyExamples/libDaisy/Drivers/CMSIS/Include/core_cm7.h **** #define DWT_FOLDCNT_FOLDCNT_Msk            (0xFFUL /*<< DWT_FOLDCNT_FOLDCNT_Pos*/)     /*!< DWT FOL
1218:/Users/reza.kalfane/Workspaces/Daisy/DaisyExamples/libDaisy/Drivers/CMSIS/Include/core_cm7.h **** 
1219:/Users/reza.kalfane/Workspaces/Daisy/DaisyExamples/libDaisy/Drivers/CMSIS/Include/core_cm7.h **** /* DWT Comparator Mask Register Definitions */
1220:/Users/reza.kalfane/Workspaces/Daisy/DaisyExamples/libDaisy/Drivers/CMSIS/Include/core_cm7.h **** #define DWT_MASK_MASK_Pos                   0U                                         /*!< DWT MAS
1221:/Users/reza.kalfane/Workspaces/Daisy/DaisyExamples/libDaisy/Drivers/CMSIS/Include/core_cm7.h **** #define DWT_MASK_MASK_Msk                  (0x1FUL /*<< DWT_MASK_MASK_Pos*/)           /*!< DWT MAS
1222:/Users/reza.kalfane/Workspaces/Daisy/DaisyExamples/libDaisy/Drivers/CMSIS/Include/core_cm7.h **** 
1223:/Users/reza.kalfane/Workspaces/Daisy/DaisyExamples/libDaisy/Drivers/CMSIS/Include/core_cm7.h **** /* DWT Comparator Function Register Definitions */
1224:/Users/reza.kalfane/Workspaces/Daisy/DaisyExamples/libDaisy/Drivers/CMSIS/Include/core_cm7.h **** #define DWT_FUNCTION_MATCHED_Pos           24U                                         /*!< DWT FUN
1225:/Users/reza.kalfane/Workspaces/Daisy/DaisyExamples/libDaisy/Drivers/CMSIS/Include/core_cm7.h **** #define DWT_FUNCTION_MATCHED_Msk           (0x1UL << DWT_FUNCTION_MATCHED_Pos)         /*!< DWT FUN
1226:/Users/reza.kalfane/Workspaces/Daisy/DaisyExamples/libDaisy/Drivers/CMSIS/Include/core_cm7.h **** 
1227:/Users/reza.kalfane/Workspaces/Daisy/DaisyExamples/libDaisy/Drivers/CMSIS/Include/core_cm7.h **** #define DWT_FUNCTION_DATAVADDR1_Pos        16U                                         /*!< DWT FUN
1228:/Users/reza.kalfane/Workspaces/Daisy/DaisyExamples/libDaisy/Drivers/CMSIS/Include/core_cm7.h **** #define DWT_FUNCTION_DATAVADDR1_Msk        (0xFUL << DWT_FUNCTION_DATAVADDR1_Pos)      /*!< DWT FUN
1229:/Users/reza.kalfane/Workspaces/Daisy/DaisyExamples/libDaisy/Drivers/CMSIS/Include/core_cm7.h **** 
1230:/Users/reza.kalfane/Workspaces/Daisy/DaisyExamples/libDaisy/Drivers/CMSIS/Include/core_cm7.h **** #define DWT_FUNCTION_DATAVADDR0_Pos        12U                                         /*!< DWT FUN
1231:/Users/reza.kalfane/Workspaces/Daisy/DaisyExamples/libDaisy/Drivers/CMSIS/Include/core_cm7.h **** #define DWT_FUNCTION_DATAVADDR0_Msk        (0xFUL << DWT_FUNCTION_DATAVADDR0_Pos)      /*!< DWT FUN
1232:/Users/reza.kalfane/Workspaces/Daisy/DaisyExamples/libDaisy/Drivers/CMSIS/Include/core_cm7.h **** 
1233:/Users/reza.kalfane/Workspaces/Daisy/DaisyExamples/libDaisy/Drivers/CMSIS/Include/core_cm7.h **** #define DWT_FUNCTION_DATAVSIZE_Pos         10U                                         /*!< DWT FUN
1234:/Users/reza.kalfane/Workspaces/Daisy/DaisyExamples/libDaisy/Drivers/CMSIS/Include/core_cm7.h **** #define DWT_FUNCTION_DATAVSIZE_Msk         (0x3UL << DWT_FUNCTION_DATAVSIZE_Pos)       /*!< DWT FUN
1235:/Users/reza.kalfane/Workspaces/Daisy/DaisyExamples/libDaisy/Drivers/CMSIS/Include/core_cm7.h **** 
1236:/Users/reza.kalfane/Workspaces/Daisy/DaisyExamples/libDaisy/Drivers/CMSIS/Include/core_cm7.h **** #define DWT_FUNCTION_LNK1ENA_Pos            9U                                         /*!< DWT FUN
1237:/Users/reza.kalfane/Workspaces/Daisy/DaisyExamples/libDaisy/Drivers/CMSIS/Include/core_cm7.h **** #define DWT_FUNCTION_LNK1ENA_Msk           (0x1UL << DWT_FUNCTION_LNK1ENA_Pos)         /*!< DWT FUN
1238:/Users/reza.kalfane/Workspaces/Daisy/DaisyExamples/libDaisy/Drivers/CMSIS/Include/core_cm7.h **** 
1239:/Users/reza.kalfane/Workspaces/Daisy/DaisyExamples/libDaisy/Drivers/CMSIS/Include/core_cm7.h **** #define DWT_FUNCTION_DATAVMATCH_Pos         8U                                         /*!< DWT FUN
1240:/Users/reza.kalfane/Workspaces/Daisy/DaisyExamples/libDaisy/Drivers/CMSIS/Include/core_cm7.h **** #define DWT_FUNCTION_DATAVMATCH_Msk        (0x1UL << DWT_FUNCTION_DATAVMATCH_Pos)      /*!< DWT FUN
1241:/Users/reza.kalfane/Workspaces/Daisy/DaisyExamples/libDaisy/Drivers/CMSIS/Include/core_cm7.h **** 
1242:/Users/reza.kalfane/Workspaces/Daisy/DaisyExamples/libDaisy/Drivers/CMSIS/Include/core_cm7.h **** #define DWT_FUNCTION_CYCMATCH_Pos           7U                                         /*!< DWT FUN
1243:/Users/reza.kalfane/Workspaces/Daisy/DaisyExamples/libDaisy/Drivers/CMSIS/Include/core_cm7.h **** #define DWT_FUNCTION_CYCMATCH_Msk          (0x1UL << DWT_FUNCTION_CYCMATCH_Pos)        /*!< DWT FUN
1244:/Users/reza.kalfane/Workspaces/Daisy/DaisyExamples/libDaisy/Drivers/CMSIS/Include/core_cm7.h **** 
1245:/Users/reza.kalfane/Workspaces/Daisy/DaisyExamples/libDaisy/Drivers/CMSIS/Include/core_cm7.h **** #define DWT_FUNCTION_EMITRANGE_Pos          5U                                         /*!< DWT FUN
1246:/Users/reza.kalfane/Workspaces/Daisy/DaisyExamples/libDaisy/Drivers/CMSIS/Include/core_cm7.h **** #define DWT_FUNCTION_EMITRANGE_Msk         (0x1UL << DWT_FUNCTION_EMITRANGE_Pos)       /*!< DWT FUN
1247:/Users/reza.kalfane/Workspaces/Daisy/DaisyExamples/libDaisy/Drivers/CMSIS/Include/core_cm7.h **** 
1248:/Users/reza.kalfane/Workspaces/Daisy/DaisyExamples/libDaisy/Drivers/CMSIS/Include/core_cm7.h **** #define DWT_FUNCTION_FUNCTION_Pos           0U                                         /*!< DWT FUN
1249:/Users/reza.kalfane/Workspaces/Daisy/DaisyExamples/libDaisy/Drivers/CMSIS/Include/core_cm7.h **** #define DWT_FUNCTION_FUNCTION_Msk          (0xFUL /*<< DWT_FUNCTION_FUNCTION_Pos*/)    /*!< DWT FUN
1250:/Users/reza.kalfane/Workspaces/Daisy/DaisyExamples/libDaisy/Drivers/CMSIS/Include/core_cm7.h **** 
1251:/Users/reza.kalfane/Workspaces/Daisy/DaisyExamples/libDaisy/Drivers/CMSIS/Include/core_cm7.h **** /*@}*/ /* end of group CMSIS_DWT */
1252:/Users/reza.kalfane/Workspaces/Daisy/DaisyExamples/libDaisy/Drivers/CMSIS/Include/core_cm7.h **** 
1253:/Users/reza.kalfane/Workspaces/Daisy/DaisyExamples/libDaisy/Drivers/CMSIS/Include/core_cm7.h **** 
1254:/Users/reza.kalfane/Workspaces/Daisy/DaisyExamples/libDaisy/Drivers/CMSIS/Include/core_cm7.h **** /**
1255:/Users/reza.kalfane/Workspaces/Daisy/DaisyExamples/libDaisy/Drivers/CMSIS/Include/core_cm7.h ****   \ingroup  CMSIS_core_register
1256:/Users/reza.kalfane/Workspaces/Daisy/DaisyExamples/libDaisy/Drivers/CMSIS/Include/core_cm7.h ****   \defgroup CMSIS_TPI     Trace Port Interface (TPI)
1257:/Users/reza.kalfane/Workspaces/Daisy/DaisyExamples/libDaisy/Drivers/CMSIS/Include/core_cm7.h ****   \brief    Type definitions for the Trace Port Interface (TPI)
1258:/Users/reza.kalfane/Workspaces/Daisy/DaisyExamples/libDaisy/Drivers/CMSIS/Include/core_cm7.h ****   @{
1259:/Users/reza.kalfane/Workspaces/Daisy/DaisyExamples/libDaisy/Drivers/CMSIS/Include/core_cm7.h ****  */
1260:/Users/reza.kalfane/Workspaces/Daisy/DaisyExamples/libDaisy/Drivers/CMSIS/Include/core_cm7.h **** 
1261:/Users/reza.kalfane/Workspaces/Daisy/DaisyExamples/libDaisy/Drivers/CMSIS/Include/core_cm7.h **** /**
1262:/Users/reza.kalfane/Workspaces/Daisy/DaisyExamples/libDaisy/Drivers/CMSIS/Include/core_cm7.h ****   \brief  Structure type to access the Trace Port Interface Register (TPI).
1263:/Users/reza.kalfane/Workspaces/Daisy/DaisyExamples/libDaisy/Drivers/CMSIS/Include/core_cm7.h ****  */
1264:/Users/reza.kalfane/Workspaces/Daisy/DaisyExamples/libDaisy/Drivers/CMSIS/Include/core_cm7.h **** typedef struct
1265:/Users/reza.kalfane/Workspaces/Daisy/DaisyExamples/libDaisy/Drivers/CMSIS/Include/core_cm7.h **** {
1266:/Users/reza.kalfane/Workspaces/Daisy/DaisyExamples/libDaisy/Drivers/CMSIS/Include/core_cm7.h ****   __IOM uint32_t SSPSR;                  /*!< Offset: 0x000 (R/ )  Supported Parallel Port Size Reg
1267:/Users/reza.kalfane/Workspaces/Daisy/DaisyExamples/libDaisy/Drivers/CMSIS/Include/core_cm7.h ****   __IOM uint32_t CSPSR;                  /*!< Offset: 0x004 (R/W)  Current Parallel Port Size Regis
1268:/Users/reza.kalfane/Workspaces/Daisy/DaisyExamples/libDaisy/Drivers/CMSIS/Include/core_cm7.h ****         uint32_t RESERVED0[2U];
1269:/Users/reza.kalfane/Workspaces/Daisy/DaisyExamples/libDaisy/Drivers/CMSIS/Include/core_cm7.h ****   __IOM uint32_t ACPR;                   /*!< Offset: 0x010 (R/W)  Asynchronous Clock Prescaler Reg
1270:/Users/reza.kalfane/Workspaces/Daisy/DaisyExamples/libDaisy/Drivers/CMSIS/Include/core_cm7.h ****         uint32_t RESERVED1[55U];
1271:/Users/reza.kalfane/Workspaces/Daisy/DaisyExamples/libDaisy/Drivers/CMSIS/Include/core_cm7.h ****   __IOM uint32_t SPPR;                   /*!< Offset: 0x0F0 (R/W)  Selected Pin Protocol Register *
ARM GAS  /tmp/claude-502/ccFotbfS.s 			page 85


1272:/Users/reza.kalfane/Workspaces/Daisy/DaisyExamples/libDaisy/Drivers/CMSIS/Include/core_cm7.h ****         uint32_t RESERVED2[131U];
1273:/Users/reza.kalfane/Workspaces/Daisy/DaisyExamples/libDaisy/Drivers/CMSIS/Include/core_cm7.h ****   __IM  uint32_t FFSR;                   /*!< Offset: 0x300 (R/ )  Formatter and Flush Status Regis
1274:/Users/reza.kalfane/Workspaces/Daisy/DaisyExamples/libDaisy/Drivers/CMSIS/Include/core_cm7.h ****   __IOM uint32_t FFCR;                   /*!< Offset: 0x304 (R/W)  Formatter and Flush Control Regi
1275:/Users/reza.kalfane/Workspaces/Daisy/DaisyExamples/libDaisy/Drivers/CMSIS/Include/core_cm7.h ****   __IM  uint32_t FSCR;                   /*!< Offset: 0x308 (R/ )  Formatter Synchronization Counte
1276:/Users/reza.kalfane/Workspaces/Daisy/DaisyExamples/libDaisy/Drivers/CMSIS/Include/core_cm7.h ****         uint32_t RESERVED3[759U];
1277:/Users/reza.kalfane/Workspaces/Daisy/DaisyExamples/libDaisy/Drivers/CMSIS/Include/core_cm7.h ****   __IM  uint32_t TRIGGER;                /*!< Offset: 0xEE8 (R/ )  TRIGGER */
1278:/Users/reza.kalfane/Workspaces/Daisy/DaisyExamples/libDaisy/Drivers/CMSIS/Include/core_cm7.h ****   __IM  uint32_t FIFO0;                  /*!< Offset: 0xEEC (R/ )  Integration ETM Data */
1279:/Users/reza.kalfane/Workspaces/Daisy/DaisyExamples/libDaisy/Drivers/CMSIS/Include/core_cm7.h ****   __IM  uint32_t ITATBCTR2;              /*!< Offset: 0xEF0 (R/ )  ITATBCTR2 */
1280:/Users/reza.kalfane/Workspaces/Daisy/DaisyExamples/libDaisy/Drivers/CMSIS/Include/core_cm7.h ****         uint32_t RESERVED4[1U];
1281:/Users/reza.kalfane/Workspaces/Daisy/DaisyExamples/libDaisy/Drivers/CMSIS/Include/core_cm7.h ****   __IM  uint32_t ITATBCTR0;              /*!< Offset: 0xEF8 (R/ )  ITATBCTR0 */
1282:/Users/reza.kalfane/Workspaces/Daisy/DaisyExamples/libDaisy/Drivers/CMSIS/Include/core_cm7.h ****   __IM  uint32_t FIFO1;                  /*!< Offset: 0xEFC (R/ )  Integration ITM Data */
1283:/Users/reza.kalfane/Workspaces/Daisy/DaisyExamples/libDaisy/Drivers/CMSIS/Include/core_cm7.h ****   __IOM uint32_t ITCTRL;                 /*!< Offset: 0xF00 (R/W)  Integration Mode Control */
1284:/Users/reza.kalfane/Workspaces/Daisy/DaisyExamples/libDaisy/Drivers/CMSIS/Include/core_cm7.h ****         uint32_t RESERVED5[39U];
1285:/Users/reza.kalfane/Workspaces/Daisy/DaisyExamples/libDaisy/Drivers/CMSIS/Include/core_cm7.h ****   __IOM uint32_t CLAIMSET;               /*!< Offset: 0xFA0 (R/W)  Claim tag set */
1286:/Users/reza.kalfane/Workspaces/Daisy/DaisyExamples/libDaisy/Drivers/CMSIS/Include/core_cm7.h ****   __IOM uint32_t CLAIMCLR;               /*!< Offset: 0xFA4 (R/W)  Claim tag clear */
1287:/Users/reza.kalfane/Workspaces/Daisy/DaisyExamples/libDaisy/Drivers/CMSIS/Include/core_cm7.h ****         uint32_t RESERVED7[8U];
1288:/Users/reza.kalfane/Workspaces/Daisy/DaisyExamples/libDaisy/Drivers/CMSIS/Include/core_cm7.h ****   __IM  uint32_t DEVID;                  /*!< Offset: 0xFC8 (R/ )  TPIU_DEVID */
1289:/Users/reza.kalfane/Workspaces/Daisy/DaisyExamples/libDaisy/Drivers/CMSIS/Include/core_cm7.h ****   __IM  uint32_t DEVTYPE;                /*!< Offset: 0xFCC (R/ )  TPIU_DEVTYPE */
1290:/Users/reza.kalfane/Workspaces/Daisy/DaisyExamples/libDaisy/Drivers/CMSIS/Include/core_cm7.h **** } TPI_Type;
1291:/Users/reza.kalfane/Workspaces/Daisy/DaisyExamples/libDaisy/Drivers/CMSIS/Include/core_cm7.h **** 
1292:/Users/reza.kalfane/Workspaces/Daisy/DaisyExamples/libDaisy/Drivers/CMSIS/Include/core_cm7.h **** /* TPI Asynchronous Clock Prescaler Register Definitions */
1293:/Users/reza.kalfane/Workspaces/Daisy/DaisyExamples/libDaisy/Drivers/CMSIS/Include/core_cm7.h **** #define TPI_ACPR_PRESCALER_Pos              0U                                         /*!< TPI ACP
1294:/Users/reza.kalfane/Workspaces/Daisy/DaisyExamples/libDaisy/Drivers/CMSIS/Include/core_cm7.h **** #define TPI_ACPR_PRESCALER_Msk             (0x1FFFUL /*<< TPI_ACPR_PRESCALER_Pos*/)    /*!< TPI ACP
1295:/Users/reza.kalfane/Workspaces/Daisy/DaisyExamples/libDaisy/Drivers/CMSIS/Include/core_cm7.h **** 
1296:/Users/reza.kalfane/Workspaces/Daisy/DaisyExamples/libDaisy/Drivers/CMSIS/Include/core_cm7.h **** /* TPI Selected Pin Protocol Register Definitions */
1297:/Users/reza.kalfane/Workspaces/Daisy/DaisyExamples/libDaisy/Drivers/CMSIS/Include/core_cm7.h **** #define TPI_SPPR_TXMODE_Pos                 0U                                         /*!< TPI SPP
1298:/Users/reza.kalfane/Workspaces/Daisy/DaisyExamples/libDaisy/Drivers/CMSIS/Include/core_cm7.h **** #define TPI_SPPR_TXMODE_Msk                (0x3UL /*<< TPI_SPPR_TXMODE_Pos*/)          /*!< TPI SPP
1299:/Users/reza.kalfane/Workspaces/Daisy/DaisyExamples/libDaisy/Drivers/CMSIS/Include/core_cm7.h **** 
1300:/Users/reza.kalfane/Workspaces/Daisy/DaisyExamples/libDaisy/Drivers/CMSIS/Include/core_cm7.h **** /* TPI Formatter and Flush Status Register Definitions */
1301:/Users/reza.kalfane/Workspaces/Daisy/DaisyExamples/libDaisy/Drivers/CMSIS/Include/core_cm7.h **** #define TPI_FFSR_FtNonStop_Pos              3U                                         /*!< TPI FFS
1302:/Users/reza.kalfane/Workspaces/Daisy/DaisyExamples/libDaisy/Drivers/CMSIS/Include/core_cm7.h **** #define TPI_FFSR_FtNonStop_Msk             (0x1UL << TPI_FFSR_FtNonStop_Pos)           /*!< TPI FFS
1303:/Users/reza.kalfane/Workspaces/Daisy/DaisyExamples/libDaisy/Drivers/CMSIS/Include/core_cm7.h **** 
1304:/Users/reza.kalfane/Workspaces/Daisy/DaisyExamples/libDaisy/Drivers/CMSIS/Include/core_cm7.h **** #define TPI_FFSR_TCPresent_Pos              2U                                         /*!< TPI FFS
1305:/Users/reza.kalfane/Workspaces/Daisy/DaisyExamples/libDaisy/Drivers/CMSIS/Include/core_cm7.h **** #define TPI_FFSR_TCPresent_Msk             (0x1UL << TPI_FFSR_TCPresent_Pos)           /*!< TPI FFS
1306:/Users/reza.kalfane/Workspaces/Daisy/DaisyExamples/libDaisy/Drivers/CMSIS/Include/core_cm7.h **** 
1307:/Users/reza.kalfane/Workspaces/Daisy/DaisyExamples/libDaisy/Drivers/CMSIS/Include/core_cm7.h **** #define TPI_FFSR_FtStopped_Pos              1U                                         /*!< TPI FFS
1308:/Users/reza.kalfane/Workspaces/Daisy/DaisyExamples/libDaisy/Drivers/CMSIS/Include/core_cm7.h **** #define TPI_FFSR_FtStopped_Msk             (0x1UL << TPI_FFSR_FtStopped_Pos)           /*!< TPI FFS
1309:/Users/reza.kalfane/Workspaces/Daisy/DaisyExamples/libDaisy/Drivers/CMSIS/Include/core_cm7.h **** 
1310:/Users/reza.kalfane/Workspaces/Daisy/DaisyExamples/libDaisy/Drivers/CMSIS/Include/core_cm7.h **** #define TPI_FFSR_FlInProg_Pos               0U                                         /*!< TPI FFS
1311:/Users/reza.kalfane/Workspaces/Daisy/DaisyExamples/libDaisy/Drivers/CMSIS/Include/core_cm7.h **** #define TPI_FFSR_FlInProg_Msk              (0x1UL /*<< TPI_FFSR_FlInProg_Pos*/)        /*!< TPI FFS
1312:/Users/reza.kalfane/Workspaces/Daisy/DaisyExamples/libDaisy/Drivers/CMSIS/Include/core_cm7.h **** 
1313:/Users/reza.kalfane/Workspaces/Daisy/DaisyExamples/libDaisy/Drivers/CMSIS/Include/core_cm7.h **** /* TPI Formatter and Flush Control Register Definitions */
1314:/Users/reza.kalfane/Workspaces/Daisy/DaisyExamples/libDaisy/Drivers/CMSIS/Include/core_cm7.h **** #define TPI_FFCR_TrigIn_Pos                 8U                                         /*!< TPI FFC
1315:/Users/reza.kalfane/Workspaces/Daisy/DaisyExamples/libDaisy/Drivers/CMSIS/Include/core_cm7.h **** #define TPI_FFCR_TrigIn_Msk                (0x1UL << TPI_FFCR_TrigIn_Pos)              /*!< TPI FFC
1316:/Users/reza.kalfane/Workspaces/Daisy/DaisyExamples/libDaisy/Drivers/CMSIS/Include/core_cm7.h **** 
1317:/Users/reza.kalfane/Workspaces/Daisy/DaisyExamples/libDaisy/Drivers/CMSIS/Include/core_cm7.h **** #define TPI_FFCR_EnFCont_Pos                1U                                         /*!< TPI FFC
1318:/Users/reza.kalfane/Workspaces/Daisy/DaisyExamples/libDaisy/Drivers/CMSIS/Include/core_cm7.h **** #define TPI_FFCR_EnFCont_Msk               (0x1UL << TPI_FFCR_EnFCont_Pos)             /*!< TPI FFC
1319:/Users/reza.kalfane/Workspaces/Daisy/DaisyExamples/libDaisy/Drivers/CMSIS/Include/core_cm7.h **** 
1320:/Users/reza.kalfane/Workspaces/Daisy/DaisyExamples/libDaisy/Drivers/CMSIS/Include/core_cm7.h **** /* TPI TRIGGER Register Definitions */
1321:/Users/reza.kalfane/Workspaces/Daisy/DaisyExamples/libDaisy/Drivers/CMSIS/Include/core_cm7.h **** #define TPI_TRIGGER_TRIGGER_Pos             0U                                         /*!< TPI TRI
1322:/Users/reza.kalfane/Workspaces/Daisy/DaisyExamples/libDaisy/Drivers/CMSIS/Include/core_cm7.h **** #define TPI_TRIGGER_TRIGGER_Msk            (0x1UL /*<< TPI_TRIGGER_TRIGGER_Pos*/)      /*!< TPI TRI
1323:/Users/reza.kalfane/Workspaces/Daisy/DaisyExamples/libDaisy/Drivers/CMSIS/Include/core_cm7.h **** 
1324:/Users/reza.kalfane/Workspaces/Daisy/DaisyExamples/libDaisy/Drivers/CMSIS/Include/core_cm7.h **** /* TPI Integration ETM Data Register Definitions (FIFO0) */
1325:/Users/reza.kalfane/Workspaces/Daisy/DaisyExamples/libDaisy/Drivers/CMSIS/Include/core_cm7.h **** #define TPI_FIFO0_ITM_ATVALID_Pos          29U                                         /*!< TPI FIF
1326:/Users/reza.kalfane/Workspaces/Daisy/DaisyExamples/libDaisy/Drivers/CMSIS/Include/core_cm7.h **** #define TPI_FIFO0_ITM_ATVALID_Msk          (0x3UL << TPI_FIFO0_ITM_ATVALID_Pos)        /*!< TPI FIF
1327:/Users/reza.kalfane/Workspaces/Daisy/DaisyExamples/libDaisy/Drivers/CMSIS/Include/core_cm7.h **** 
1328:/Users/reza.kalfane/Workspaces/Daisy/DaisyExamples/libDaisy/Drivers/CMSIS/Include/core_cm7.h **** #define TPI_FIFO0_ITM_bytecount_Pos        27U                                         /*!< TPI FIF
ARM GAS  /tmp/claude-502/ccFotbfS.s 			page 86


1329:/Users/reza.kalfane/Workspaces/Daisy/DaisyExamples/libDaisy/Drivers/CMSIS/Include/core_cm7.h **** #define TPI_FIFO0_ITM_bytecount_Msk        (0x3UL << TPI_FIFO0_ITM_bytecount_Pos)      /*!< TPI FIF
1330:/Users/reza.kalfane/Workspaces/Daisy/DaisyExamples/libDaisy/Drivers/CMSIS/Include/core_cm7.h **** 
1331:/Users/reza.kalfane/Workspaces/Daisy/DaisyExamples/libDaisy/Drivers/CMSIS/Include/core_cm7.h **** #define TPI_FIFO0_ETM_ATVALID_Pos          26U                                         /*!< TPI FIF
1332:/Users/reza.kalfane/Workspaces/Daisy/DaisyExamples/libDaisy/Drivers/CMSIS/Include/core_cm7.h **** #define TPI_FIFO0_ETM_ATVALID_Msk          (0x3UL << TPI_FIFO0_ETM_ATVALID_Pos)        /*!< TPI FIF
1333:/Users/reza.kalfane/Workspaces/Daisy/DaisyExamples/libDaisy/Drivers/CMSIS/Include/core_cm7.h **** 
1334:/Users/reza.kalfane/Workspaces/Daisy/DaisyExamples/libDaisy/Drivers/CMSIS/Include/core_cm7.h **** #define TPI_FIFO0_ETM_bytecount_Pos        24U                                         /*!< TPI FIF
1335:/Users/reza.kalfane/Workspaces/Daisy/DaisyExamples/libDaisy/Drivers/CMSIS/Include/core_cm7.h **** #define TPI_FIFO0_ETM_bytecount_Msk        (0x3UL << TPI_FIFO0_ETM_bytecount_Pos)      /*!< TPI FIF
1336:/Users/reza.kalfane/Workspaces/Daisy/DaisyExamples/libDaisy/Drivers/CMSIS/Include/core_cm7.h **** 
1337:/Users/reza.kalfane/Workspaces/Daisy/DaisyExamples/libDaisy/Drivers/CMSIS/Include/core_cm7.h **** #define TPI_FIFO0_ETM2_Pos                 16U                                         /*!< TPI FIF
1338:/Users/reza.kalfane/Workspaces/Daisy/DaisyExamples/libDaisy/Drivers/CMSIS/Include/core_cm7.h **** #define TPI_FIFO0_ETM2_Msk                 (0xFFUL << TPI_FIFO0_ETM2_Pos)              /*!< TPI FIF
1339:/Users/reza.kalfane/Workspaces/Daisy/DaisyExamples/libDaisy/Drivers/CMSIS/Include/core_cm7.h **** 
1340:/Users/reza.kalfane/Workspaces/Daisy/DaisyExamples/libDaisy/Drivers/CMSIS/Include/core_cm7.h **** #define TPI_FIFO0_ETM1_Pos                  8U                                         /*!< TPI FIF
1341:/Users/reza.kalfane/Workspaces/Daisy/DaisyExamples/libDaisy/Drivers/CMSIS/Include/core_cm7.h **** #define TPI_FIFO0_ETM1_Msk                 (0xFFUL << TPI_FIFO0_ETM1_Pos)              /*!< TPI FIF
1342:/Users/reza.kalfane/Workspaces/Daisy/DaisyExamples/libDaisy/Drivers/CMSIS/Include/core_cm7.h **** 
1343:/Users/reza.kalfane/Workspaces/Daisy/DaisyExamples/libDaisy/Drivers/CMSIS/Include/core_cm7.h **** #define TPI_FIFO0_ETM0_Pos                  0U                                         /*!< TPI FIF
1344:/Users/reza.kalfane/Workspaces/Daisy/DaisyExamples/libDaisy/Drivers/CMSIS/Include/core_cm7.h **** #define TPI_FIFO0_ETM0_Msk                 (0xFFUL /*<< TPI_FIFO0_ETM0_Pos*/)          /*!< TPI FIF
1345:/Users/reza.kalfane/Workspaces/Daisy/DaisyExamples/libDaisy/Drivers/CMSIS/Include/core_cm7.h **** 
1346:/Users/reza.kalfane/Workspaces/Daisy/DaisyExamples/libDaisy/Drivers/CMSIS/Include/core_cm7.h **** /* TPI ITATBCTR2 Register Definitions */
1347:/Users/reza.kalfane/Workspaces/Daisy/DaisyExamples/libDaisy/Drivers/CMSIS/Include/core_cm7.h **** #define TPI_ITATBCTR2_ATREADY_Pos           0U                                         /*!< TPI ITA
1348:/Users/reza.kalfane/Workspaces/Daisy/DaisyExamples/libDaisy/Drivers/CMSIS/Include/core_cm7.h **** #define TPI_ITATBCTR2_ATREADY_Msk          (0x1UL /*<< TPI_ITATBCTR2_ATREADY_Pos*/)    /*!< TPI ITA
1349:/Users/reza.kalfane/Workspaces/Daisy/DaisyExamples/libDaisy/Drivers/CMSIS/Include/core_cm7.h **** 
1350:/Users/reza.kalfane/Workspaces/Daisy/DaisyExamples/libDaisy/Drivers/CMSIS/Include/core_cm7.h **** /* TPI Integration ITM Data Register Definitions (FIFO1) */
1351:/Users/reza.kalfane/Workspaces/Daisy/DaisyExamples/libDaisy/Drivers/CMSIS/Include/core_cm7.h **** #define TPI_FIFO1_ITM_ATVALID_Pos          29U                                         /*!< TPI FIF
1352:/Users/reza.kalfane/Workspaces/Daisy/DaisyExamples/libDaisy/Drivers/CMSIS/Include/core_cm7.h **** #define TPI_FIFO1_ITM_ATVALID_Msk          (0x3UL << TPI_FIFO1_ITM_ATVALID_Pos)        /*!< TPI FIF
1353:/Users/reza.kalfane/Workspaces/Daisy/DaisyExamples/libDaisy/Drivers/CMSIS/Include/core_cm7.h **** 
1354:/Users/reza.kalfane/Workspaces/Daisy/DaisyExamples/libDaisy/Drivers/CMSIS/Include/core_cm7.h **** #define TPI_FIFO1_ITM_bytecount_Pos        27U                                         /*!< TPI FIF
1355:/Users/reza.kalfane/Workspaces/Daisy/DaisyExamples/libDaisy/Drivers/CMSIS/Include/core_cm7.h **** #define TPI_FIFO1_ITM_bytecount_Msk        (0x3UL << TPI_FIFO1_ITM_bytecount_Pos)      /*!< TPI FIF
1356:/Users/reza.kalfane/Workspaces/Daisy/DaisyExamples/libDaisy/Drivers/CMSIS/Include/core_cm7.h **** 
1357:/Users/reza.kalfane/Workspaces/Daisy/DaisyExamples/libDaisy/Drivers/CMSIS/Include/core_cm7.h **** #define TPI_FIFO1_ETM_ATVALID_Pos          26U                                         /*!< TPI FIF
1358:/Users/reza.kalfane/Workspaces/Daisy/DaisyExamples/libDaisy/Drivers/CMSIS/Include/core_cm7.h **** #define TPI_FIFO1_ETM_ATVALID_Msk          (0x3UL << TPI_FIFO1_ETM_ATVALID_Pos)        /*!< TPI FIF
1359:/Users/reza.kalfane/Workspaces/Daisy/DaisyExamples/libDaisy/Drivers/CMSIS/Include/core_cm7.h **** 
1360:/Users/reza.kalfane/Workspaces/Daisy/DaisyExamples/libDaisy/Drivers/CMSIS/Include/core_cm7.h **** #define TPI_FIFO1_ETM_bytecount_Pos        24U                                         /*!< TPI FIF
1361:/Users/reza.kalfane/Workspaces/Daisy/DaisyExamples/libDaisy/Drivers/CMSIS/Include/core_cm7.h **** #define TPI_FIFO1_ETM_bytecount_Msk        (0x3UL << TPI_FIFO1_ETM_bytecount_Pos)      /*!< TPI FIF
1362:/Users/reza.kalfane/Workspaces/Daisy/DaisyExamples/libDaisy/Drivers/CMSIS/Include/core_cm7.h **** 
1363:/Users/reza.kalfane/Workspaces/Daisy/DaisyExamples/libDaisy/Drivers/CMSIS/Include/core_cm7.h **** #define TPI_FIFO1_ITM2_Pos                 16U                                         /*!< TPI FIF
1364:/Users/reza.kalfane/Workspaces/Daisy/DaisyExamples/libDaisy/Drivers/CMSIS/Include/core_cm7.h **** #define TPI_FIFO1_ITM2_Msk                 (0xFFUL << TPI_FIFO1_ITM2_Pos)              /*!< TPI FIF
1365:/Users/reza.kalfane/Workspaces/Daisy/DaisyExamples/libDaisy/Drivers/CMSIS/Include/core_cm7.h **** 
1366:/Users/reza.kalfane/Workspaces/Daisy/DaisyExamples/libDaisy/Drivers/CMSIS/Include/core_cm7.h **** #define TPI_FIFO1_ITM1_Pos                  8U                                         /*!< TPI FIF
1367:/Users/reza.kalfane/Workspaces/Daisy/DaisyExamples/libDaisy/Drivers/CMSIS/Include/core_cm7.h **** #define TPI_FIFO1_ITM1_Msk                 (0xFFUL << TPI_FIFO1_ITM1_Pos)              /*!< TPI FIF
1368:/Users/reza.kalfane/Workspaces/Daisy/DaisyExamples/libDaisy/Drivers/CMSIS/Include/core_cm7.h **** 
1369:/Users/reza.kalfane/Workspaces/Daisy/DaisyExamples/libDaisy/Drivers/CMSIS/Include/core_cm7.h **** #define TPI_FIFO1_ITM0_Pos                  0U                                         /*!< TPI FIF
1370:/Users/reza.kalfane/Workspaces/Daisy/DaisyExamples/libDaisy/Drivers/CMSIS/Include/core_cm7.h **** #define TPI_FIFO1_ITM0_Msk                 (0xFFUL /*<< TPI_FIFO1_ITM0_Pos*/)          /*!< TPI FIF
1371:/Users/reza.kalfane/Workspaces/Daisy/DaisyExamples/libDaisy/Drivers/CMSIS/Include/core_cm7.h **** 
1372:/Users/reza.kalfane/Workspaces/Daisy/DaisyExamples/libDaisy/Drivers/CMSIS/Include/core_cm7.h **** /* TPI ITATBCTR0 Register Definitions */
1373:/Users/reza.kalfane/Workspaces/Daisy/DaisyExamples/libDaisy/Drivers/CMSIS/Include/core_cm7.h **** #define TPI_ITATBCTR0_ATREADY_Pos           0U                                         /*!< TPI ITA
1374:/Users/reza.kalfane/Workspaces/Daisy/DaisyExamples/libDaisy/Drivers/CMSIS/Include/core_cm7.h **** #define TPI_ITATBCTR0_ATREADY_Msk          (0x1UL /*<< TPI_ITATBCTR0_ATREADY_Pos*/)    /*!< TPI ITA
1375:/Users/reza.kalfane/Workspaces/Daisy/DaisyExamples/libDaisy/Drivers/CMSIS/Include/core_cm7.h **** 
1376:/Users/reza.kalfane/Workspaces/Daisy/DaisyExamples/libDaisy/Drivers/CMSIS/Include/core_cm7.h **** /* TPI Integration Mode Control Register Definitions */
1377:/Users/reza.kalfane/Workspaces/Daisy/DaisyExamples/libDaisy/Drivers/CMSIS/Include/core_cm7.h **** #define TPI_ITCTRL_Mode_Pos                 0U                                         /*!< TPI ITC
1378:/Users/reza.kalfane/Workspaces/Daisy/DaisyExamples/libDaisy/Drivers/CMSIS/Include/core_cm7.h **** #define TPI_ITCTRL_Mode_Msk                (0x1UL /*<< TPI_ITCTRL_Mode_Pos*/)          /*!< TPI ITC
1379:/Users/reza.kalfane/Workspaces/Daisy/DaisyExamples/libDaisy/Drivers/CMSIS/Include/core_cm7.h **** 
1380:/Users/reza.kalfane/Workspaces/Daisy/DaisyExamples/libDaisy/Drivers/CMSIS/Include/core_cm7.h **** /* TPI DEVID Register Definitions */
1381:/Users/reza.kalfane/Workspaces/Daisy/DaisyExamples/libDaisy/Drivers/CMSIS/Include/core_cm7.h **** #define TPI_DEVID_NRZVALID_Pos             11U                                         /*!< TPI DEV
1382:/Users/reza.kalfane/Workspaces/Daisy/DaisyExamples/libDaisy/Drivers/CMSIS/Include/core_cm7.h **** #define TPI_DEVID_NRZVALID_Msk             (0x1UL << TPI_DEVID_NRZVALID_Pos)           /*!< TPI DEV
1383:/Users/reza.kalfane/Workspaces/Daisy/DaisyExamples/libDaisy/Drivers/CMSIS/Include/core_cm7.h **** 
1384:/Users/reza.kalfane/Workspaces/Daisy/DaisyExamples/libDaisy/Drivers/CMSIS/Include/core_cm7.h **** #define TPI_DEVID_MANCVALID_Pos            10U                                         /*!< TPI DEV
1385:/Users/reza.kalfane/Workspaces/Daisy/DaisyExamples/libDaisy/Drivers/CMSIS/Include/core_cm7.h **** #define TPI_DEVID_MANCVALID_Msk            (0x1UL << TPI_DEVID_MANCVALID_Pos)          /*!< TPI DEV
ARM GAS  /tmp/claude-502/ccFotbfS.s 			page 87


1386:/Users/reza.kalfane/Workspaces/Daisy/DaisyExamples/libDaisy/Drivers/CMSIS/Include/core_cm7.h **** 
1387:/Users/reza.kalfane/Workspaces/Daisy/DaisyExamples/libDaisy/Drivers/CMSIS/Include/core_cm7.h **** #define TPI_DEVID_PTINVALID_Pos             9U                                         /*!< TPI DEV
1388:/Users/reza.kalfane/Workspaces/Daisy/DaisyExamples/libDaisy/Drivers/CMSIS/Include/core_cm7.h **** #define TPI_DEVID_PTINVALID_Msk            (0x1UL << TPI_DEVID_PTINVALID_Pos)          /*!< TPI DEV
1389:/Users/reza.kalfane/Workspaces/Daisy/DaisyExamples/libDaisy/Drivers/CMSIS/Include/core_cm7.h **** 
1390:/Users/reza.kalfane/Workspaces/Daisy/DaisyExamples/libDaisy/Drivers/CMSIS/Include/core_cm7.h **** #define TPI_DEVID_MinBufSz_Pos              6U                                         /*!< TPI DEV
1391:/Users/reza.kalfane/Workspaces/Daisy/DaisyExamples/libDaisy/Drivers/CMSIS/Include/core_cm7.h **** #define TPI_DEVID_MinBufSz_Msk             (0x7UL << TPI_DEVID_MinBufSz_Pos)           /*!< TPI DEV
1392:/Users/reza.kalfane/Workspaces/Daisy/DaisyExamples/libDaisy/Drivers/CMSIS/Include/core_cm7.h **** 
1393:/Users/reza.kalfane/Workspaces/Daisy/DaisyExamples/libDaisy/Drivers/CMSIS/Include/core_cm7.h **** #define TPI_DEVID_AsynClkIn_Pos             5U                                         /*!< TPI DEV
1394:/Users/reza.kalfane/Workspaces/Daisy/DaisyExamples/libDaisy/Drivers/CMSIS/Include/core_cm7.h **** #define TPI_DEVID_AsynClkIn_Msk            (0x1UL << TPI_DEVID_AsynClkIn_Pos)          /*!< TPI DEV
1395:/Users/reza.kalfane/Workspaces/Daisy/DaisyExamples/libDaisy/Drivers/CMSIS/Include/core_cm7.h **** 
1396:/Users/reza.kalfane/Workspaces/Daisy/DaisyExamples/libDaisy/Drivers/CMSIS/Include/core_cm7.h **** #define TPI_DEVID_NrTraceInput_Pos          0U                                         /*!< TPI DEV
1397:/Users/reza.kalfane/Workspaces/Daisy/DaisyExamples/libDaisy/Drivers/CMSIS/Include/core_cm7.h **** #define TPI_DEVID_NrTraceInput_Msk         (0x1FUL /*<< TPI_DEVID_NrTraceInput_Pos*/)  /*!< TPI DEV
1398:/Users/reza.kalfane/Workspaces/Daisy/DaisyExamples/libDaisy/Drivers/CMSIS/Include/core_cm7.h **** 
1399:/Users/reza.kalfane/Workspaces/Daisy/DaisyExamples/libDaisy/Drivers/CMSIS/Include/core_cm7.h **** /* TPI DEVTYPE Register Definitions */
1400:/Users/reza.kalfane/Workspaces/Daisy/DaisyExamples/libDaisy/Drivers/CMSIS/Include/core_cm7.h **** #define TPI_DEVTYPE_MajorType_Pos           4U                                         /*!< TPI DEV
1401:/Users/reza.kalfane/Workspaces/Daisy/DaisyExamples/libDaisy/Drivers/CMSIS/Include/core_cm7.h **** #define TPI_DEVTYPE_MajorType_Msk          (0xFUL << TPI_DEVTYPE_MajorType_Pos)        /*!< TPI DEV
1402:/Users/reza.kalfane/Workspaces/Daisy/DaisyExamples/libDaisy/Drivers/CMSIS/Include/core_cm7.h **** 
1403:/Users/reza.kalfane/Workspaces/Daisy/DaisyExamples/libDaisy/Drivers/CMSIS/Include/core_cm7.h **** #define TPI_DEVTYPE_SubType_Pos             0U                                         /*!< TPI DEV
1404:/Users/reza.kalfane/Workspaces/Daisy/DaisyExamples/libDaisy/Drivers/CMSIS/Include/core_cm7.h **** #define TPI_DEVTYPE_SubType_Msk            (0xFUL /*<< TPI_DEVTYPE_SubType_Pos*/)      /*!< TPI DEV
1405:/Users/reza.kalfane/Workspaces/Daisy/DaisyExamples/libDaisy/Drivers/CMSIS/Include/core_cm7.h **** 
1406:/Users/reza.kalfane/Workspaces/Daisy/DaisyExamples/libDaisy/Drivers/CMSIS/Include/core_cm7.h **** /*@}*/ /* end of group CMSIS_TPI */
1407:/Users/reza.kalfane/Workspaces/Daisy/DaisyExamples/libDaisy/Drivers/CMSIS/Include/core_cm7.h **** 
1408:/Users/reza.kalfane/Workspaces/Daisy/DaisyExamples/libDaisy/Drivers/CMSIS/Include/core_cm7.h **** 
1409:/Users/reza.kalfane/Workspaces/Daisy/DaisyExamples/libDaisy/Drivers/CMSIS/Include/core_cm7.h **** #if defined (__MPU_PRESENT) && (__MPU_PRESENT == 1U)
1410:/Users/reza.kalfane/Workspaces/Daisy/DaisyExamples/libDaisy/Drivers/CMSIS/Include/core_cm7.h **** /**
1411:/Users/reza.kalfane/Workspaces/Daisy/DaisyExamples/libDaisy/Drivers/CMSIS/Include/core_cm7.h ****   \ingroup  CMSIS_core_register
1412:/Users/reza.kalfane/Workspaces/Daisy/DaisyExamples/libDaisy/Drivers/CMSIS/Include/core_cm7.h ****   \defgroup CMSIS_MPU     Memory Protection Unit (MPU)
1413:/Users/reza.kalfane/Workspaces/Daisy/DaisyExamples/libDaisy/Drivers/CMSIS/Include/core_cm7.h ****   \brief    Type definitions for the Memory Protection Unit (MPU)
1414:/Users/reza.kalfane/Workspaces/Daisy/DaisyExamples/libDaisy/Drivers/CMSIS/Include/core_cm7.h ****   @{
1415:/Users/reza.kalfane/Workspaces/Daisy/DaisyExamples/libDaisy/Drivers/CMSIS/Include/core_cm7.h ****  */
1416:/Users/reza.kalfane/Workspaces/Daisy/DaisyExamples/libDaisy/Drivers/CMSIS/Include/core_cm7.h **** 
1417:/Users/reza.kalfane/Workspaces/Daisy/DaisyExamples/libDaisy/Drivers/CMSIS/Include/core_cm7.h **** /**
1418:/Users/reza.kalfane/Workspaces/Daisy/DaisyExamples/libDaisy/Drivers/CMSIS/Include/core_cm7.h ****   \brief  Structure type to access the Memory Protection Unit (MPU).
1419:/Users/reza.kalfane/Workspaces/Daisy/DaisyExamples/libDaisy/Drivers/CMSIS/Include/core_cm7.h ****  */
1420:/Users/reza.kalfane/Workspaces/Daisy/DaisyExamples/libDaisy/Drivers/CMSIS/Include/core_cm7.h **** typedef struct
1421:/Users/reza.kalfane/Workspaces/Daisy/DaisyExamples/libDaisy/Drivers/CMSIS/Include/core_cm7.h **** {
1422:/Users/reza.kalfane/Workspaces/Daisy/DaisyExamples/libDaisy/Drivers/CMSIS/Include/core_cm7.h ****   __IM  uint32_t TYPE;                   /*!< Offset: 0x000 (R/ )  MPU Type Register */
1423:/Users/reza.kalfane/Workspaces/Daisy/DaisyExamples/libDaisy/Drivers/CMSIS/Include/core_cm7.h ****   __IOM uint32_t CTRL;                   /*!< Offset: 0x004 (R/W)  MPU Control Register */
1424:/Users/reza.kalfane/Workspaces/Daisy/DaisyExamples/libDaisy/Drivers/CMSIS/Include/core_cm7.h ****   __IOM uint32_t RNR;                    /*!< Offset: 0x008 (R/W)  MPU Region RNRber Register */
1425:/Users/reza.kalfane/Workspaces/Daisy/DaisyExamples/libDaisy/Drivers/CMSIS/Include/core_cm7.h ****   __IOM uint32_t RBAR;                   /*!< Offset: 0x00C (R/W)  MPU Region Base Address Register
1426:/Users/reza.kalfane/Workspaces/Daisy/DaisyExamples/libDaisy/Drivers/CMSIS/Include/core_cm7.h ****   __IOM uint32_t RASR;                   /*!< Offset: 0x010 (R/W)  MPU Region Attribute and Size Re
1427:/Users/reza.kalfane/Workspaces/Daisy/DaisyExamples/libDaisy/Drivers/CMSIS/Include/core_cm7.h ****   __IOM uint32_t RBAR_A1;                /*!< Offset: 0x014 (R/W)  MPU Alias 1 Region Base Address 
1428:/Users/reza.kalfane/Workspaces/Daisy/DaisyExamples/libDaisy/Drivers/CMSIS/Include/core_cm7.h ****   __IOM uint32_t RASR_A1;                /*!< Offset: 0x018 (R/W)  MPU Alias 1 Region Attribute and
1429:/Users/reza.kalfane/Workspaces/Daisy/DaisyExamples/libDaisy/Drivers/CMSIS/Include/core_cm7.h ****   __IOM uint32_t RBAR_A2;                /*!< Offset: 0x01C (R/W)  MPU Alias 2 Region Base Address 
1430:/Users/reza.kalfane/Workspaces/Daisy/DaisyExamples/libDaisy/Drivers/CMSIS/Include/core_cm7.h ****   __IOM uint32_t RASR_A2;                /*!< Offset: 0x020 (R/W)  MPU Alias 2 Region Attribute and
1431:/Users/reza.kalfane/Workspaces/Daisy/DaisyExamples/libDaisy/Drivers/CMSIS/Include/core_cm7.h ****   __IOM uint32_t RBAR_A3;                /*!< Offset: 0x024 (R/W)  MPU Alias 3 Region Base Address 
1432:/Users/reza.kalfane/Workspaces/Daisy/DaisyExamples/libDaisy/Drivers/CMSIS/Include/core_cm7.h ****   __IOM uint32_t RASR_A3;                /*!< Offset: 0x028 (R/W)  MPU Alias 3 Region Attribute and
1433:/Users/reza.kalfane/Workspaces/Daisy/DaisyExamples/libDaisy/Drivers/CMSIS/Include/core_cm7.h **** } MPU_Type;
1434:/Users/reza.kalfane/Workspaces/Daisy/DaisyExamples/libDaisy/Drivers/CMSIS/Include/core_cm7.h **** 
1435:/Users/reza.kalfane/Workspaces/Daisy/DaisyExamples/libDaisy/Drivers/CMSIS/Include/core_cm7.h **** /* MPU Type Register Definitions */
1436:/Users/reza.kalfane/Workspaces/Daisy/DaisyExamples/libDaisy/Drivers/CMSIS/Include/core_cm7.h **** #define MPU_TYPE_IREGION_Pos               16U                                            /*!< MPU 
1437:/Users/reza.kalfane/Workspaces/Daisy/DaisyExamples/libDaisy/Drivers/CMSIS/Include/core_cm7.h **** #define MPU_TYPE_IREGION_Msk               (0xFFUL << MPU_TYPE_IREGION_Pos)               /*!< MPU 
1438:/Users/reza.kalfane/Workspaces/Daisy/DaisyExamples/libDaisy/Drivers/CMSIS/Include/core_cm7.h **** 
1439:/Users/reza.kalfane/Workspaces/Daisy/DaisyExamples/libDaisy/Drivers/CMSIS/Include/core_cm7.h **** #define MPU_TYPE_DREGION_Pos                8U                                            /*!< MPU 
1440:/Users/reza.kalfane/Workspaces/Daisy/DaisyExamples/libDaisy/Drivers/CMSIS/Include/core_cm7.h **** #define MPU_TYPE_DREGION_Msk               (0xFFUL << MPU_TYPE_DREGION_Pos)               /*!< MPU 
1441:/Users/reza.kalfane/Workspaces/Daisy/DaisyExamples/libDaisy/Drivers/CMSIS/Include/core_cm7.h **** 
1442:/Users/reza.kalfane/Workspaces/Daisy/DaisyExamples/libDaisy/Drivers/CMSIS/Include/core_cm7.h **** #define MPU_TYPE_SEPARATE_Pos               0U                                            /*!< MPU 
ARM GAS  /tmp/claude-502/ccFotbfS.s 			page 88


1443:/Users/reza.kalfane/Workspaces/Daisy/DaisyExamples/libDaisy/Drivers/CMSIS/Include/core_cm7.h **** #define MPU_TYPE_SEPARATE_Msk              (1UL /*<< MPU_TYPE_SEPARATE_Pos*/)             /*!< MPU 
1444:/Users/reza.kalfane/Workspaces/Daisy/DaisyExamples/libDaisy/Drivers/CMSIS/Include/core_cm7.h **** 
1445:/Users/reza.kalfane/Workspaces/Daisy/DaisyExamples/libDaisy/Drivers/CMSIS/Include/core_cm7.h **** /* MPU Control Register Definitions */
1446:/Users/reza.kalfane/Workspaces/Daisy/DaisyExamples/libDaisy/Drivers/CMSIS/Include/core_cm7.h **** #define MPU_CTRL_PRIVDEFENA_Pos             2U                                            /*!< MPU 
1447:/Users/reza.kalfane/Workspaces/Daisy/DaisyExamples/libDaisy/Drivers/CMSIS/Include/core_cm7.h **** #define MPU_CTRL_PRIVDEFENA_Msk            (1UL << MPU_CTRL_PRIVDEFENA_Pos)               /*!< MPU 
1448:/Users/reza.kalfane/Workspaces/Daisy/DaisyExamples/libDaisy/Drivers/CMSIS/Include/core_cm7.h **** 
1449:/Users/reza.kalfane/Workspaces/Daisy/DaisyExamples/libDaisy/Drivers/CMSIS/Include/core_cm7.h **** #define MPU_CTRL_HFNMIENA_Pos               1U                                            /*!< MPU 
1450:/Users/reza.kalfane/Workspaces/Daisy/DaisyExamples/libDaisy/Drivers/CMSIS/Include/core_cm7.h **** #define MPU_CTRL_HFNMIENA_Msk              (1UL << MPU_CTRL_HFNMIENA_Pos)                 /*!< MPU 
1451:/Users/reza.kalfane/Workspaces/Daisy/DaisyExamples/libDaisy/Drivers/CMSIS/Include/core_cm7.h **** 
1452:/Users/reza.kalfane/Workspaces/Daisy/DaisyExamples/libDaisy/Drivers/CMSIS/Include/core_cm7.h **** #define MPU_CTRL_ENABLE_Pos                 0U                                            /*!< MPU 
1453:/Users/reza.kalfane/Workspaces/Daisy/DaisyExamples/libDaisy/Drivers/CMSIS/Include/core_cm7.h **** #define MPU_CTRL_ENABLE_Msk                (1UL /*<< MPU_CTRL_ENABLE_Pos*/)               /*!< MPU 
1454:/Users/reza.kalfane/Workspaces/Daisy/DaisyExamples/libDaisy/Drivers/CMSIS/Include/core_cm7.h **** 
1455:/Users/reza.kalfane/Workspaces/Daisy/DaisyExamples/libDaisy/Drivers/CMSIS/Include/core_cm7.h **** /* MPU Region Number Register Definitions */
1456:/Users/reza.kalfane/Workspaces/Daisy/DaisyExamples/libDaisy/Drivers/CMSIS/Include/core_cm7.h **** #define MPU_RNR_REGION_Pos                  0U                                            /*!< MPU 
1457:/Users/reza.kalfane/Workspaces/Daisy/DaisyExamples/libDaisy/Drivers/CMSIS/Include/core_cm7.h **** #define MPU_RNR_REGION_Msk                 (0xFFUL /*<< MPU_RNR_REGION_Pos*/)             /*!< MPU 
1458:/Users/reza.kalfane/Workspaces/Daisy/DaisyExamples/libDaisy/Drivers/CMSIS/Include/core_cm7.h **** 
1459:/Users/reza.kalfane/Workspaces/Daisy/DaisyExamples/libDaisy/Drivers/CMSIS/Include/core_cm7.h **** /* MPU Region Base Address Register Definitions */
1460:/Users/reza.kalfane/Workspaces/Daisy/DaisyExamples/libDaisy/Drivers/CMSIS/Include/core_cm7.h **** #define MPU_RBAR_ADDR_Pos                   5U                                            /*!< MPU 
1461:/Users/reza.kalfane/Workspaces/Daisy/DaisyExamples/libDaisy/Drivers/CMSIS/Include/core_cm7.h **** #define MPU_RBAR_ADDR_Msk                  (0x7FFFFFFUL << MPU_RBAR_ADDR_Pos)             /*!< MPU 
1462:/Users/reza.kalfane/Workspaces/Daisy/DaisyExamples/libDaisy/Drivers/CMSIS/Include/core_cm7.h **** 
1463:/Users/reza.kalfane/Workspaces/Daisy/DaisyExamples/libDaisy/Drivers/CMSIS/Include/core_cm7.h **** #define MPU_RBAR_VALID_Pos                  4U                                            /*!< MPU 
1464:/Users/reza.kalfane/Workspaces/Daisy/DaisyExamples/libDaisy/Drivers/CMSIS/Include/core_cm7.h **** #define MPU_RBAR_VALID_Msk                 (1UL << MPU_RBAR_VALID_Pos)                    /*!< MPU 
1465:/Users/reza.kalfane/Workspaces/Daisy/DaisyExamples/libDaisy/Drivers/CMSIS/Include/core_cm7.h **** 
1466:/Users/reza.kalfane/Workspaces/Daisy/DaisyExamples/libDaisy/Drivers/CMSIS/Include/core_cm7.h **** #define MPU_RBAR_REGION_Pos                 0U                                            /*!< MPU 
1467:/Users/reza.kalfane/Workspaces/Daisy/DaisyExamples/libDaisy/Drivers/CMSIS/Include/core_cm7.h **** #define MPU_RBAR_REGION_Msk                (0xFUL /*<< MPU_RBAR_REGION_Pos*/)             /*!< MPU 
1468:/Users/reza.kalfane/Workspaces/Daisy/DaisyExamples/libDaisy/Drivers/CMSIS/Include/core_cm7.h **** 
1469:/Users/reza.kalfane/Workspaces/Daisy/DaisyExamples/libDaisy/Drivers/CMSIS/Include/core_cm7.h **** /* MPU Region Attribute and Size Register Definitions */
1470:/Users/reza.kalfane/Workspaces/Daisy/DaisyExamples/libDaisy/Drivers/CMSIS/Include/core_cm7.h **** #define MPU_RASR_ATTRS_Pos                 16U                                            /*!< MPU 
1471:/Users/reza.kalfane/Workspaces/Daisy/DaisyExamples/libDaisy/Drivers/CMSIS/Include/core_cm7.h **** #define MPU_RASR_ATTRS_Msk                 (0xFFFFUL << MPU_RASR_ATTRS_Pos)               /*!< MPU 
1472:/Users/reza.kalfane/Workspaces/Daisy/DaisyExamples/libDaisy/Drivers/CMSIS/Include/core_cm7.h **** 
1473:/Users/reza.kalfane/Workspaces/Daisy/DaisyExamples/libDaisy/Drivers/CMSIS/Include/core_cm7.h **** #define MPU_RASR_XN_Pos                    28U                                            /*!< MPU 
1474:/Users/reza.kalfane/Workspaces/Daisy/DaisyExamples/libDaisy/Drivers/CMSIS/Include/core_cm7.h **** #define MPU_RASR_XN_Msk                    (1UL << MPU_RASR_XN_Pos)                       /*!< MPU 
1475:/Users/reza.kalfane/Workspaces/Daisy/DaisyExamples/libDaisy/Drivers/CMSIS/Include/core_cm7.h **** 
1476:/Users/reza.kalfane/Workspaces/Daisy/DaisyExamples/libDaisy/Drivers/CMSIS/Include/core_cm7.h **** #define MPU_RASR_AP_Pos                    24U                                            /*!< MPU 
1477:/Users/reza.kalfane/Workspaces/Daisy/DaisyExamples/libDaisy/Drivers/CMSIS/Include/core_cm7.h **** #define MPU_RASR_AP_Msk                    (0x7UL << MPU_RASR_AP_Pos)                     /*!< MPU 
1478:/Users/reza.kalfane/Workspaces/Daisy/DaisyExamples/libDaisy/Drivers/CMSIS/Include/core_cm7.h **** 
1479:/Users/reza.kalfane/Workspaces/Daisy/DaisyExamples/libDaisy/Drivers/CMSIS/Include/core_cm7.h **** #define MPU_RASR_TEX_Pos                   19U                                            /*!< MPU 
1480:/Users/reza.kalfane/Workspaces/Daisy/DaisyExamples/libDaisy/Drivers/CMSIS/Include/core_cm7.h **** #define MPU_RASR_TEX_Msk                   (0x7UL << MPU_RASR_TEX_Pos)                    /*!< MPU 
1481:/Users/reza.kalfane/Workspaces/Daisy/DaisyExamples/libDaisy/Drivers/CMSIS/Include/core_cm7.h **** 
1482:/Users/reza.kalfane/Workspaces/Daisy/DaisyExamples/libDaisy/Drivers/CMSIS/Include/core_cm7.h **** #define MPU_RASR_S_Pos                     18U                                            /*!< MPU 
1483:/Users/reza.kalfane/Workspaces/Daisy/DaisyExamples/libDaisy/Drivers/CMSIS/Include/core_cm7.h **** #define MPU_RASR_S_Msk                     (1UL << MPU_RASR_S_Pos)                        /*!< MPU 
1484:/Users/reza.kalfane/Workspaces/Daisy/DaisyExamples/libDaisy/Drivers/CMSIS/Include/core_cm7.h **** 
1485:/Users/reza.kalfane/Workspaces/Daisy/DaisyExamples/libDaisy/Drivers/CMSIS/Include/core_cm7.h **** #define MPU_RASR_C_Pos                     17U                                            /*!< MPU 
1486:/Users/reza.kalfane/Workspaces/Daisy/DaisyExamples/libDaisy/Drivers/CMSIS/Include/core_cm7.h **** #define MPU_RASR_C_Msk                     (1UL << MPU_RASR_C_Pos)                        /*!< MPU 
1487:/Users/reza.kalfane/Workspaces/Daisy/DaisyExamples/libDaisy/Drivers/CMSIS/Include/core_cm7.h **** 
1488:/Users/reza.kalfane/Workspaces/Daisy/DaisyExamples/libDaisy/Drivers/CMSIS/Include/core_cm7.h **** #define MPU_RASR_B_Pos                     16U                                            /*!< MPU 
1489:/Users/reza.kalfane/Workspaces/Daisy/DaisyExamples/libDaisy/Drivers/CMSIS/Include/core_cm7.h **** #define MPU_RASR_B_Msk                     (1UL << MPU_RASR_B_Pos)                        /*!< MPU 
1490:/Users/reza.kalfane/Workspaces/Daisy/DaisyExamples/libDaisy/Drivers/CMSIS/Include/core_cm7.h **** 
1491:/Users/reza.kalfane/Workspaces/Daisy/DaisyExamples/libDaisy/Drivers/CMSIS/Include/core_cm7.h **** #define MPU_RASR_SRD_Pos                    8U                                            /*!< MPU 
1492:/Users/reza.kalfane/Workspaces/Daisy/DaisyExamples/libDaisy/Drivers/CMSIS/Include/core_cm7.h **** #define MPU_RASR_SRD_Msk                   (0xFFUL << MPU_RASR_SRD_Pos)                   /*!< MPU 
1493:/Users/reza.kalfane/Workspaces/Daisy/DaisyExamples/libDaisy/Drivers/CMSIS/Include/core_cm7.h **** 
1494:/Users/reza.kalfane/Workspaces/Daisy/DaisyExamples/libDaisy/Drivers/CMSIS/Include/core_cm7.h **** #define MPU_RASR_SIZE_Pos                   1U                                            /*!< MPU 
1495:/Users/reza.kalfane/Workspaces/Daisy/DaisyExamples/libDaisy/Drivers/CMSIS/Include/core_cm7.h **** #define MPU_RASR_SIZE_Msk                  (0x1FUL << MPU_RASR_SIZE_Pos)                  /*!< MPU 
1496:/Users/reza.kalfane/Workspaces/Daisy/DaisyExamples/libDaisy/Drivers/CMSIS/Include/core_cm7.h **** 
1497:/Users/reza.kalfane/Workspaces/Daisy/DaisyExamples/libDaisy/Drivers/CMSIS/Include/core_cm7.h **** #define MPU_RASR_ENABLE_Pos                 0U                                            /*!< MPU 
1498:/Users/reza.kalfane/Workspaces/Daisy/DaisyExamples/libDaisy/Drivers/CMSIS/Include/core_cm7.h **** #define MPU_RASR_ENABLE_Msk                (1UL /*<< MPU_RASR_ENABLE_Pos*/)               /*!< MPU 
1499:/Users/reza.kalfane/Workspaces/Daisy/DaisyExamples/libDaisy/Drivers/CMSIS/Include/core_cm7.h **** 
ARM GAS  /tmp/claude-502/ccFotbfS.s 			page 89


1500:/Users/reza.kalfane/Workspaces/Daisy/DaisyExamples/libDaisy/Drivers/CMSIS/Include/core_cm7.h **** /*@} end of group CMSIS_MPU */
1501:/Users/reza.kalfane/Workspaces/Daisy/DaisyExamples/libDaisy/Drivers/CMSIS/Include/core_cm7.h **** #endif /* defined (__MPU_PRESENT) && (__MPU_PRESENT == 1U) */
1502:/Users/reza.kalfane/Workspaces/Daisy/DaisyExamples/libDaisy/Drivers/CMSIS/Include/core_cm7.h **** 
1503:/Users/reza.kalfane/Workspaces/Daisy/DaisyExamples/libDaisy/Drivers/CMSIS/Include/core_cm7.h **** 
1504:/Users/reza.kalfane/Workspaces/Daisy/DaisyExamples/libDaisy/Drivers/CMSIS/Include/core_cm7.h **** /**
1505:/Users/reza.kalfane/Workspaces/Daisy/DaisyExamples/libDaisy/Drivers/CMSIS/Include/core_cm7.h ****   \ingroup  CMSIS_core_register
1506:/Users/reza.kalfane/Workspaces/Daisy/DaisyExamples/libDaisy/Drivers/CMSIS/Include/core_cm7.h ****   \defgroup CMSIS_FPU     Floating Point Unit (FPU)
1507:/Users/reza.kalfane/Workspaces/Daisy/DaisyExamples/libDaisy/Drivers/CMSIS/Include/core_cm7.h ****   \brief    Type definitions for the Floating Point Unit (FPU)
1508:/Users/reza.kalfane/Workspaces/Daisy/DaisyExamples/libDaisy/Drivers/CMSIS/Include/core_cm7.h ****   @{
1509:/Users/reza.kalfane/Workspaces/Daisy/DaisyExamples/libDaisy/Drivers/CMSIS/Include/core_cm7.h ****  */
1510:/Users/reza.kalfane/Workspaces/Daisy/DaisyExamples/libDaisy/Drivers/CMSIS/Include/core_cm7.h **** 
1511:/Users/reza.kalfane/Workspaces/Daisy/DaisyExamples/libDaisy/Drivers/CMSIS/Include/core_cm7.h **** /**
1512:/Users/reza.kalfane/Workspaces/Daisy/DaisyExamples/libDaisy/Drivers/CMSIS/Include/core_cm7.h ****   \brief  Structure type to access the Floating Point Unit (FPU).
1513:/Users/reza.kalfane/Workspaces/Daisy/DaisyExamples/libDaisy/Drivers/CMSIS/Include/core_cm7.h ****  */
1514:/Users/reza.kalfane/Workspaces/Daisy/DaisyExamples/libDaisy/Drivers/CMSIS/Include/core_cm7.h **** typedef struct
1515:/Users/reza.kalfane/Workspaces/Daisy/DaisyExamples/libDaisy/Drivers/CMSIS/Include/core_cm7.h **** {
1516:/Users/reza.kalfane/Workspaces/Daisy/DaisyExamples/libDaisy/Drivers/CMSIS/Include/core_cm7.h ****         uint32_t RESERVED0[1U];
1517:/Users/reza.kalfane/Workspaces/Daisy/DaisyExamples/libDaisy/Drivers/CMSIS/Include/core_cm7.h ****   __IOM uint32_t FPCCR;                  /*!< Offset: 0x004 (R/W)  Floating-Point Context Control R
1518:/Users/reza.kalfane/Workspaces/Daisy/DaisyExamples/libDaisy/Drivers/CMSIS/Include/core_cm7.h ****   __IOM uint32_t FPCAR;                  /*!< Offset: 0x008 (R/W)  Floating-Point Context Address R
1519:/Users/reza.kalfane/Workspaces/Daisy/DaisyExamples/libDaisy/Drivers/CMSIS/Include/core_cm7.h ****   __IOM uint32_t FPDSCR;                 /*!< Offset: 0x00C (R/W)  Floating-Point Default Status Co
1520:/Users/reza.kalfane/Workspaces/Daisy/DaisyExamples/libDaisy/Drivers/CMSIS/Include/core_cm7.h ****   __IM  uint32_t MVFR0;                  /*!< Offset: 0x010 (R/ )  Media and FP Feature Register 0 
1521:/Users/reza.kalfane/Workspaces/Daisy/DaisyExamples/libDaisy/Drivers/CMSIS/Include/core_cm7.h ****   __IM  uint32_t MVFR1;                  /*!< Offset: 0x014 (R/ )  Media and FP Feature Register 1 
1522:/Users/reza.kalfane/Workspaces/Daisy/DaisyExamples/libDaisy/Drivers/CMSIS/Include/core_cm7.h ****   __IM  uint32_t MVFR2;                  /*!< Offset: 0x018 (R/ )  Media and FP Feature Register 2 
1523:/Users/reza.kalfane/Workspaces/Daisy/DaisyExamples/libDaisy/Drivers/CMSIS/Include/core_cm7.h **** } FPU_Type;
1524:/Users/reza.kalfane/Workspaces/Daisy/DaisyExamples/libDaisy/Drivers/CMSIS/Include/core_cm7.h **** 
1525:/Users/reza.kalfane/Workspaces/Daisy/DaisyExamples/libDaisy/Drivers/CMSIS/Include/core_cm7.h **** /* Floating-Point Context Control Register Definitions */
1526:/Users/reza.kalfane/Workspaces/Daisy/DaisyExamples/libDaisy/Drivers/CMSIS/Include/core_cm7.h **** #define FPU_FPCCR_ASPEN_Pos                31U                                            /*!< FPCC
1527:/Users/reza.kalfane/Workspaces/Daisy/DaisyExamples/libDaisy/Drivers/CMSIS/Include/core_cm7.h **** #define FPU_FPCCR_ASPEN_Msk                (1UL << FPU_FPCCR_ASPEN_Pos)                   /*!< FPCC
1528:/Users/reza.kalfane/Workspaces/Daisy/DaisyExamples/libDaisy/Drivers/CMSIS/Include/core_cm7.h **** 
1529:/Users/reza.kalfane/Workspaces/Daisy/DaisyExamples/libDaisy/Drivers/CMSIS/Include/core_cm7.h **** #define FPU_FPCCR_LSPEN_Pos                30U                                            /*!< FPCC
1530:/Users/reza.kalfane/Workspaces/Daisy/DaisyExamples/libDaisy/Drivers/CMSIS/Include/core_cm7.h **** #define FPU_FPCCR_LSPEN_Msk                (1UL << FPU_FPCCR_LSPEN_Pos)                   /*!< FPCC
1531:/Users/reza.kalfane/Workspaces/Daisy/DaisyExamples/libDaisy/Drivers/CMSIS/Include/core_cm7.h **** 
1532:/Users/reza.kalfane/Workspaces/Daisy/DaisyExamples/libDaisy/Drivers/CMSIS/Include/core_cm7.h **** #define FPU_FPCCR_MONRDY_Pos                8U                                            /*!< FPCC
1533:/Users/reza.kalfane/Workspaces/Daisy/DaisyExamples/libDaisy/Drivers/CMSIS/Include/core_cm7.h **** #define FPU_FPCCR_MONRDY_Msk               (1UL << FPU_FPCCR_MONRDY_Pos)                  /*!< FPCC
1534:/Users/reza.kalfane/Workspaces/Daisy/DaisyExamples/libDaisy/Drivers/CMSIS/Include/core_cm7.h **** 
1535:/Users/reza.kalfane/Workspaces/Daisy/DaisyExamples/libDaisy/Drivers/CMSIS/Include/core_cm7.h **** #define FPU_FPCCR_BFRDY_Pos                 6U                                            /*!< FPCC
1536:/Users/reza.kalfane/Workspaces/Daisy/DaisyExamples/libDaisy/Drivers/CMSIS/Include/core_cm7.h **** #define FPU_FPCCR_BFRDY_Msk                (1UL << FPU_FPCCR_BFRDY_Pos)                   /*!< FPCC
1537:/Users/reza.kalfane/Workspaces/Daisy/DaisyExamples/libDaisy/Drivers/CMSIS/Include/core_cm7.h **** 
1538:/Users/reza.kalfane/Workspaces/Daisy/DaisyExamples/libDaisy/Drivers/CMSIS/Include/core_cm7.h **** #define FPU_FPCCR_MMRDY_Pos                 5U                                            /*!< FPCC
1539:/Users/reza.kalfane/Workspaces/Daisy/DaisyExamples/libDaisy/Drivers/CMSIS/Include/core_cm7.h **** #define FPU_FPCCR_MMRDY_Msk                (1UL << FPU_FPCCR_MMRDY_Pos)                   /*!< FPCC
1540:/Users/reza.kalfane/Workspaces/Daisy/DaisyExamples/libDaisy/Drivers/CMSIS/Include/core_cm7.h **** 
1541:/Users/reza.kalfane/Workspaces/Daisy/DaisyExamples/libDaisy/Drivers/CMSIS/Include/core_cm7.h **** #define FPU_FPCCR_HFRDY_Pos                 4U                                            /*!< FPCC
1542:/Users/reza.kalfane/Workspaces/Daisy/DaisyExamples/libDaisy/Drivers/CMSIS/Include/core_cm7.h **** #define FPU_FPCCR_HFRDY_Msk                (1UL << FPU_FPCCR_HFRDY_Pos)                   /*!< FPCC
1543:/Users/reza.kalfane/Workspaces/Daisy/DaisyExamples/libDaisy/Drivers/CMSIS/Include/core_cm7.h **** 
1544:/Users/reza.kalfane/Workspaces/Daisy/DaisyExamples/libDaisy/Drivers/CMSIS/Include/core_cm7.h **** #define FPU_FPCCR_THREAD_Pos                3U                                            /*!< FPCC
1545:/Users/reza.kalfane/Workspaces/Daisy/DaisyExamples/libDaisy/Drivers/CMSIS/Include/core_cm7.h **** #define FPU_FPCCR_THREAD_Msk               (1UL << FPU_FPCCR_THREAD_Pos)                  /*!< FPCC
1546:/Users/reza.kalfane/Workspaces/Daisy/DaisyExamples/libDaisy/Drivers/CMSIS/Include/core_cm7.h **** 
1547:/Users/reza.kalfane/Workspaces/Daisy/DaisyExamples/libDaisy/Drivers/CMSIS/Include/core_cm7.h **** #define FPU_FPCCR_USER_Pos                  1U                                            /*!< FPCC
1548:/Users/reza.kalfane/Workspaces/Daisy/DaisyExamples/libDaisy/Drivers/CMSIS/Include/core_cm7.h **** #define FPU_FPCCR_USER_Msk                 (1UL << FPU_FPCCR_USER_Pos)                    /*!< FPCC
1549:/Users/reza.kalfane/Workspaces/Daisy/DaisyExamples/libDaisy/Drivers/CMSIS/Include/core_cm7.h **** 
1550:/Users/reza.kalfane/Workspaces/Daisy/DaisyExamples/libDaisy/Drivers/CMSIS/Include/core_cm7.h **** #define FPU_FPCCR_LSPACT_Pos                0U                                            /*!< FPCC
1551:/Users/reza.kalfane/Workspaces/Daisy/DaisyExamples/libDaisy/Drivers/CMSIS/Include/core_cm7.h **** #define FPU_FPCCR_LSPACT_Msk               (1UL /*<< FPU_FPCCR_LSPACT_Pos*/)              /*!< FPCC
1552:/Users/reza.kalfane/Workspaces/Daisy/DaisyExamples/libDaisy/Drivers/CMSIS/Include/core_cm7.h **** 
1553:/Users/reza.kalfane/Workspaces/Daisy/DaisyExamples/libDaisy/Drivers/CMSIS/Include/core_cm7.h **** /* Floating-Point Context Address Register Definitions */
1554:/Users/reza.kalfane/Workspaces/Daisy/DaisyExamples/libDaisy/Drivers/CMSIS/Include/core_cm7.h **** #define FPU_FPCAR_ADDRESS_Pos               3U                                            /*!< FPCA
1555:/Users/reza.kalfane/Workspaces/Daisy/DaisyExamples/libDaisy/Drivers/CMSIS/Include/core_cm7.h **** #define FPU_FPCAR_ADDRESS_Msk              (0x1FFFFFFFUL << FPU_FPCAR_ADDRESS_Pos)        /*!< FPCA
1556:/Users/reza.kalfane/Workspaces/Daisy/DaisyExamples/libDaisy/Drivers/CMSIS/Include/core_cm7.h **** 
ARM GAS  /tmp/claude-502/ccFotbfS.s 			page 90


1557:/Users/reza.kalfane/Workspaces/Daisy/DaisyExamples/libDaisy/Drivers/CMSIS/Include/core_cm7.h **** /* Floating-Point Default Status Control Register Definitions */
1558:/Users/reza.kalfane/Workspaces/Daisy/DaisyExamples/libDaisy/Drivers/CMSIS/Include/core_cm7.h **** #define FPU_FPDSCR_AHP_Pos                 26U                                            /*!< FPDS
1559:/Users/reza.kalfane/Workspaces/Daisy/DaisyExamples/libDaisy/Drivers/CMSIS/Include/core_cm7.h **** #define FPU_FPDSCR_AHP_Msk                 (1UL << FPU_FPDSCR_AHP_Pos)                    /*!< FPDS
1560:/Users/reza.kalfane/Workspaces/Daisy/DaisyExamples/libDaisy/Drivers/CMSIS/Include/core_cm7.h **** 
1561:/Users/reza.kalfane/Workspaces/Daisy/DaisyExamples/libDaisy/Drivers/CMSIS/Include/core_cm7.h **** #define FPU_FPDSCR_DN_Pos                  25U                                            /*!< FPDS
1562:/Users/reza.kalfane/Workspaces/Daisy/DaisyExamples/libDaisy/Drivers/CMSIS/Include/core_cm7.h **** #define FPU_FPDSCR_DN_Msk                  (1UL << FPU_FPDSCR_DN_Pos)                     /*!< FPDS
1563:/Users/reza.kalfane/Workspaces/Daisy/DaisyExamples/libDaisy/Drivers/CMSIS/Include/core_cm7.h **** 
1564:/Users/reza.kalfane/Workspaces/Daisy/DaisyExamples/libDaisy/Drivers/CMSIS/Include/core_cm7.h **** #define FPU_FPDSCR_FZ_Pos                  24U                                            /*!< FPDS
1565:/Users/reza.kalfane/Workspaces/Daisy/DaisyExamples/libDaisy/Drivers/CMSIS/Include/core_cm7.h **** #define FPU_FPDSCR_FZ_Msk                  (1UL << FPU_FPDSCR_FZ_Pos)                     /*!< FPDS
1566:/Users/reza.kalfane/Workspaces/Daisy/DaisyExamples/libDaisy/Drivers/CMSIS/Include/core_cm7.h **** 
1567:/Users/reza.kalfane/Workspaces/Daisy/DaisyExamples/libDaisy/Drivers/CMSIS/Include/core_cm7.h **** #define FPU_FPDSCR_RMode_Pos               22U                                            /*!< FPDS
1568:/Users/reza.kalfane/Workspaces/Daisy/DaisyExamples/libDaisy/Drivers/CMSIS/Include/core_cm7.h **** #define FPU_FPDSCR_RMode_Msk               (3UL << FPU_FPDSCR_RMode_Pos)                  /*!< FPDS
1569:/Users/reza.kalfane/Workspaces/Daisy/DaisyExamples/libDaisy/Drivers/CMSIS/Include/core_cm7.h **** 
1570:/Users/reza.kalfane/Workspaces/Daisy/DaisyExamples/libDaisy/Drivers/CMSIS/Include/core_cm7.h **** /* Media and FP Feature Register 0 Definitions */
1571:/Users/reza.kalfane/Workspaces/Daisy/DaisyExamples/libDaisy/Drivers/CMSIS/Include/core_cm7.h **** #define FPU_MVFR0_FP_rounding_modes_Pos    28U                                            /*!< MVFR
1572:/Users/reza.kalfane/Workspaces/Daisy/DaisyExamples/libDaisy/Drivers/CMSIS/Include/core_cm7.h **** #define FPU_MVFR0_FP_rounding_modes_Msk    (0xFUL << FPU_MVFR0_FP_rounding_modes_Pos)     /*!< MVFR
1573:/Users/reza.kalfane/Workspaces/Daisy/DaisyExamples/libDaisy/Drivers/CMSIS/Include/core_cm7.h **** 
1574:/Users/reza.kalfane/Workspaces/Daisy/DaisyExamples/libDaisy/Drivers/CMSIS/Include/core_cm7.h **** #define FPU_MVFR0_Short_vectors_Pos        24U                                            /*!< MVFR
1575:/Users/reza.kalfane/Workspaces/Daisy/DaisyExamples/libDaisy/Drivers/CMSIS/Include/core_cm7.h **** #define FPU_MVFR0_Short_vectors_Msk        (0xFUL << FPU_MVFR0_Short_vectors_Pos)         /*!< MVFR
1576:/Users/reza.kalfane/Workspaces/Daisy/DaisyExamples/libDaisy/Drivers/CMSIS/Include/core_cm7.h **** 
1577:/Users/reza.kalfane/Workspaces/Daisy/DaisyExamples/libDaisy/Drivers/CMSIS/Include/core_cm7.h **** #define FPU_MVFR0_Square_root_Pos          20U                                            /*!< MVFR
1578:/Users/reza.kalfane/Workspaces/Daisy/DaisyExamples/libDaisy/Drivers/CMSIS/Include/core_cm7.h **** #define FPU_MVFR0_Square_root_Msk          (0xFUL << FPU_MVFR0_Square_root_Pos)           /*!< MVFR
1579:/Users/reza.kalfane/Workspaces/Daisy/DaisyExamples/libDaisy/Drivers/CMSIS/Include/core_cm7.h **** 
1580:/Users/reza.kalfane/Workspaces/Daisy/DaisyExamples/libDaisy/Drivers/CMSIS/Include/core_cm7.h **** #define FPU_MVFR0_Divide_Pos               16U                                            /*!< MVFR
1581:/Users/reza.kalfane/Workspaces/Daisy/DaisyExamples/libDaisy/Drivers/CMSIS/Include/core_cm7.h **** #define FPU_MVFR0_Divide_Msk               (0xFUL << FPU_MVFR0_Divide_Pos)                /*!< MVFR
1582:/Users/reza.kalfane/Workspaces/Daisy/DaisyExamples/libDaisy/Drivers/CMSIS/Include/core_cm7.h **** 
1583:/Users/reza.kalfane/Workspaces/Daisy/DaisyExamples/libDaisy/Drivers/CMSIS/Include/core_cm7.h **** #define FPU_MVFR0_FP_excep_trapping_Pos    12U                                            /*!< MVFR
1584:/Users/reza.kalfane/Workspaces/Daisy/DaisyExamples/libDaisy/Drivers/CMSIS/Include/core_cm7.h **** #define FPU_MVFR0_FP_excep_trapping_Msk    (0xFUL << FPU_MVFR0_FP_excep_trapping_Pos)     /*!< MVFR
1585:/Users/reza.kalfane/Workspaces/Daisy/DaisyExamples/libDaisy/Drivers/CMSIS/Include/core_cm7.h **** 
1586:/Users/reza.kalfane/Workspaces/Daisy/DaisyExamples/libDaisy/Drivers/CMSIS/Include/core_cm7.h **** #define FPU_MVFR0_Double_precision_Pos      8U                                            /*!< MVFR
1587:/Users/reza.kalfane/Workspaces/Daisy/DaisyExamples/libDaisy/Drivers/CMSIS/Include/core_cm7.h **** #define FPU_MVFR0_Double_precision_Msk     (0xFUL << FPU_MVFR0_Double_precision_Pos)      /*!< MVFR
1588:/Users/reza.kalfane/Workspaces/Daisy/DaisyExamples/libDaisy/Drivers/CMSIS/Include/core_cm7.h **** 
1589:/Users/reza.kalfane/Workspaces/Daisy/DaisyExamples/libDaisy/Drivers/CMSIS/Include/core_cm7.h **** #define FPU_MVFR0_Single_precision_Pos      4U                                            /*!< MVFR
1590:/Users/reza.kalfane/Workspaces/Daisy/DaisyExamples/libDaisy/Drivers/CMSIS/Include/core_cm7.h **** #define FPU_MVFR0_Single_precision_Msk     (0xFUL << FPU_MVFR0_Single_precision_Pos)      /*!< MVFR
1591:/Users/reza.kalfane/Workspaces/Daisy/DaisyExamples/libDaisy/Drivers/CMSIS/Include/core_cm7.h **** 
1592:/Users/reza.kalfane/Workspaces/Daisy/DaisyExamples/libDaisy/Drivers/CMSIS/Include/core_cm7.h **** #define FPU_MVFR0_A_SIMD_registers_Pos      0U                                            /*!< MVFR
1593:/Users/reza.kalfane/Workspaces/Daisy/DaisyExamples/libDaisy/Drivers/CMSIS/Include/core_cm7.h **** #define FPU_MVFR0_A_SIMD_registers_Msk     (0xFUL /*<< FPU_MVFR0_A_SIMD_registers_Pos*/)  /*!< MVFR
1594:/Users/reza.kalfane/Workspaces/Daisy/DaisyExamples/libDaisy/Drivers/CMSIS/Include/core_cm7.h **** 
1595:/Users/reza.kalfane/Workspaces/Daisy/DaisyExamples/libDaisy/Drivers/CMSIS/Include/core_cm7.h **** /* Media and FP Feature Register 1 Definitions */
1596:/Users/reza.kalfane/Workspaces/Daisy/DaisyExamples/libDaisy/Drivers/CMSIS/Include/core_cm7.h **** #define FPU_MVFR1_FP_fused_MAC_Pos         28U                                            /*!< MVFR
1597:/Users/reza.kalfane/Workspaces/Daisy/DaisyExamples/libDaisy/Drivers/CMSIS/Include/core_cm7.h **** #define FPU_MVFR1_FP_fused_MAC_Msk         (0xFUL << FPU_MVFR1_FP_fused_MAC_Pos)          /*!< MVFR
1598:/Users/reza.kalfane/Workspaces/Daisy/DaisyExamples/libDaisy/Drivers/CMSIS/Include/core_cm7.h **** 
1599:/Users/reza.kalfane/Workspaces/Daisy/DaisyExamples/libDaisy/Drivers/CMSIS/Include/core_cm7.h **** #define FPU_MVFR1_FP_HPFP_Pos              24U                                            /*!< MVFR
1600:/Users/reza.kalfane/Workspaces/Daisy/DaisyExamples/libDaisy/Drivers/CMSIS/Include/core_cm7.h **** #define FPU_MVFR1_FP_HPFP_Msk              (0xFUL << FPU_MVFR1_FP_HPFP_Pos)               /*!< MVFR
1601:/Users/reza.kalfane/Workspaces/Daisy/DaisyExamples/libDaisy/Drivers/CMSIS/Include/core_cm7.h **** 
1602:/Users/reza.kalfane/Workspaces/Daisy/DaisyExamples/libDaisy/Drivers/CMSIS/Include/core_cm7.h **** #define FPU_MVFR1_D_NaN_mode_Pos            4U                                            /*!< MVFR
1603:/Users/reza.kalfane/Workspaces/Daisy/DaisyExamples/libDaisy/Drivers/CMSIS/Include/core_cm7.h **** #define FPU_MVFR1_D_NaN_mode_Msk           (0xFUL << FPU_MVFR1_D_NaN_mode_Pos)            /*!< MVFR
1604:/Users/reza.kalfane/Workspaces/Daisy/DaisyExamples/libDaisy/Drivers/CMSIS/Include/core_cm7.h **** 
1605:/Users/reza.kalfane/Workspaces/Daisy/DaisyExamples/libDaisy/Drivers/CMSIS/Include/core_cm7.h **** #define FPU_MVFR1_FtZ_mode_Pos              0U                                            /*!< MVFR
1606:/Users/reza.kalfane/Workspaces/Daisy/DaisyExamples/libDaisy/Drivers/CMSIS/Include/core_cm7.h **** #define FPU_MVFR1_FtZ_mode_Msk             (0xFUL /*<< FPU_MVFR1_FtZ_mode_Pos*/)          /*!< MVFR
1607:/Users/reza.kalfane/Workspaces/Daisy/DaisyExamples/libDaisy/Drivers/CMSIS/Include/core_cm7.h **** 
1608:/Users/reza.kalfane/Workspaces/Daisy/DaisyExamples/libDaisy/Drivers/CMSIS/Include/core_cm7.h **** /* Media and FP Feature Register 2 Definitions */
1609:/Users/reza.kalfane/Workspaces/Daisy/DaisyExamples/libDaisy/Drivers/CMSIS/Include/core_cm7.h **** 
1610:/Users/reza.kalfane/Workspaces/Daisy/DaisyExamples/libDaisy/Drivers/CMSIS/Include/core_cm7.h **** /*@} end of group CMSIS_FPU */
1611:/Users/reza.kalfane/Workspaces/Daisy/DaisyExamples/libDaisy/Drivers/CMSIS/Include/core_cm7.h **** 
1612:/Users/reza.kalfane/Workspaces/Daisy/DaisyExamples/libDaisy/Drivers/CMSIS/Include/core_cm7.h **** 
1613:/Users/reza.kalfane/Workspaces/Daisy/DaisyExamples/libDaisy/Drivers/CMSIS/Include/core_cm7.h **** /**
ARM GAS  /tmp/claude-502/ccFotbfS.s 			page 91


1614:/Users/reza.kalfane/Workspaces/Daisy/DaisyExamples/libDaisy/Drivers/CMSIS/Include/core_cm7.h ****   \ingroup  CMSIS_core_register
1615:/Users/reza.kalfane/Workspaces/Daisy/DaisyExamples/libDaisy/Drivers/CMSIS/Include/core_cm7.h ****   \defgroup CMSIS_CoreDebug       Core Debug Registers (CoreDebug)
1616:/Users/reza.kalfane/Workspaces/Daisy/DaisyExamples/libDaisy/Drivers/CMSIS/Include/core_cm7.h ****   \brief    Type definitions for the Core Debug Registers
1617:/Users/reza.kalfane/Workspaces/Daisy/DaisyExamples/libDaisy/Drivers/CMSIS/Include/core_cm7.h ****   @{
1618:/Users/reza.kalfane/Workspaces/Daisy/DaisyExamples/libDaisy/Drivers/CMSIS/Include/core_cm7.h ****  */
1619:/Users/reza.kalfane/Workspaces/Daisy/DaisyExamples/libDaisy/Drivers/CMSIS/Include/core_cm7.h **** 
1620:/Users/reza.kalfane/Workspaces/Daisy/DaisyExamples/libDaisy/Drivers/CMSIS/Include/core_cm7.h **** /**
1621:/Users/reza.kalfane/Workspaces/Daisy/DaisyExamples/libDaisy/Drivers/CMSIS/Include/core_cm7.h ****   \brief  Structure type to access the Core Debug Register (CoreDebug).
1622:/Users/reza.kalfane/Workspaces/Daisy/DaisyExamples/libDaisy/Drivers/CMSIS/Include/core_cm7.h ****  */
1623:/Users/reza.kalfane/Workspaces/Daisy/DaisyExamples/libDaisy/Drivers/CMSIS/Include/core_cm7.h **** typedef struct
1624:/Users/reza.kalfane/Workspaces/Daisy/DaisyExamples/libDaisy/Drivers/CMSIS/Include/core_cm7.h **** {
1625:/Users/reza.kalfane/Workspaces/Daisy/DaisyExamples/libDaisy/Drivers/CMSIS/Include/core_cm7.h ****   __IOM uint32_t DHCSR;                  /*!< Offset: 0x000 (R/W)  Debug Halting Control and Status
1626:/Users/reza.kalfane/Workspaces/Daisy/DaisyExamples/libDaisy/Drivers/CMSIS/Include/core_cm7.h ****   __OM  uint32_t DCRSR;                  /*!< Offset: 0x004 ( /W)  Debug Core Register Selector Reg
1627:/Users/reza.kalfane/Workspaces/Daisy/DaisyExamples/libDaisy/Drivers/CMSIS/Include/core_cm7.h ****   __IOM uint32_t DCRDR;                  /*!< Offset: 0x008 (R/W)  Debug Core Register Data Registe
1628:/Users/reza.kalfane/Workspaces/Daisy/DaisyExamples/libDaisy/Drivers/CMSIS/Include/core_cm7.h ****   __IOM uint32_t DEMCR;                  /*!< Offset: 0x00C (R/W)  Debug Exception and Monitor Cont
1629:/Users/reza.kalfane/Workspaces/Daisy/DaisyExamples/libDaisy/Drivers/CMSIS/Include/core_cm7.h **** } CoreDebug_Type;
1630:/Users/reza.kalfane/Workspaces/Daisy/DaisyExamples/libDaisy/Drivers/CMSIS/Include/core_cm7.h **** 
1631:/Users/reza.kalfane/Workspaces/Daisy/DaisyExamples/libDaisy/Drivers/CMSIS/Include/core_cm7.h **** /* Debug Halting Control and Status Register Definitions */
1632:/Users/reza.kalfane/Workspaces/Daisy/DaisyExamples/libDaisy/Drivers/CMSIS/Include/core_cm7.h **** #define CoreDebug_DHCSR_DBGKEY_Pos         16U                                            /*!< Core
1633:/Users/reza.kalfane/Workspaces/Daisy/DaisyExamples/libDaisy/Drivers/CMSIS/Include/core_cm7.h **** #define CoreDebug_DHCSR_DBGKEY_Msk         (0xFFFFUL << CoreDebug_DHCSR_DBGKEY_Pos)       /*!< Core
1634:/Users/reza.kalfane/Workspaces/Daisy/DaisyExamples/libDaisy/Drivers/CMSIS/Include/core_cm7.h **** 
1635:/Users/reza.kalfane/Workspaces/Daisy/DaisyExamples/libDaisy/Drivers/CMSIS/Include/core_cm7.h **** #define CoreDebug_DHCSR_S_RESET_ST_Pos     25U                                            /*!< Core
1636:/Users/reza.kalfane/Workspaces/Daisy/DaisyExamples/libDaisy/Drivers/CMSIS/Include/core_cm7.h **** #define CoreDebug_DHCSR_S_RESET_ST_Msk     (1UL << CoreDebug_DHCSR_S_RESET_ST_Pos)        /*!< Core
1637:/Users/reza.kalfane/Workspaces/Daisy/DaisyExamples/libDaisy/Drivers/CMSIS/Include/core_cm7.h **** 
1638:/Users/reza.kalfane/Workspaces/Daisy/DaisyExamples/libDaisy/Drivers/CMSIS/Include/core_cm7.h **** #define CoreDebug_DHCSR_S_RETIRE_ST_Pos    24U                                            /*!< Core
1639:/Users/reza.kalfane/Workspaces/Daisy/DaisyExamples/libDaisy/Drivers/CMSIS/Include/core_cm7.h **** #define CoreDebug_DHCSR_S_RETIRE_ST_Msk    (1UL << CoreDebug_DHCSR_S_RETIRE_ST_Pos)       /*!< Core
1640:/Users/reza.kalfane/Workspaces/Daisy/DaisyExamples/libDaisy/Drivers/CMSIS/Include/core_cm7.h **** 
1641:/Users/reza.kalfane/Workspaces/Daisy/DaisyExamples/libDaisy/Drivers/CMSIS/Include/core_cm7.h **** #define CoreDebug_DHCSR_S_LOCKUP_Pos       19U                                            /*!< Core
1642:/Users/reza.kalfane/Workspaces/Daisy/DaisyExamples/libDaisy/Drivers/CMSIS/Include/core_cm7.h **** #define CoreDebug_DHCSR_S_LOCKUP_Msk       (1UL << CoreDebug_DHCSR_S_LOCKUP_Pos)          /*!< Core
1643:/Users/reza.kalfane/Workspaces/Daisy/DaisyExamples/libDaisy/Drivers/CMSIS/Include/core_cm7.h **** 
1644:/Users/reza.kalfane/Workspaces/Daisy/DaisyExamples/libDaisy/Drivers/CMSIS/Include/core_cm7.h **** #define CoreDebug_DHCSR_S_SLEEP_Pos        18U                                            /*!< Core
1645:/Users/reza.kalfane/Workspaces/Daisy/DaisyExamples/libDaisy/Drivers/CMSIS/Include/core_cm7.h **** #define CoreDebug_DHCSR_S_SLEEP_Msk        (1UL << CoreDebug_DHCSR_S_SLEEP_Pos)           /*!< Core
1646:/Users/reza.kalfane/Workspaces/Daisy/DaisyExamples/libDaisy/Drivers/CMSIS/Include/core_cm7.h **** 
1647:/Users/reza.kalfane/Workspaces/Daisy/DaisyExamples/libDaisy/Drivers/CMSIS/Include/core_cm7.h **** #define CoreDebug_DHCSR_S_HALT_Pos         17U                                            /*!< Core
1648:/Users/reza.kalfane/Workspaces/Daisy/DaisyExamples/libDaisy/Drivers/CMSIS/Include/core_cm7.h **** #define CoreDebug_DHCSR_S_HALT_Msk         (1UL << CoreDebug_DHCSR_S_HALT_Pos)            /*!< Core
1649:/Users/reza.kalfane/Workspaces/Daisy/DaisyExamples/libDaisy/Drivers/CMSIS/Include/core_cm7.h **** 
1650:/Users/reza.kalfane/Workspaces/Daisy/DaisyExamples/libDaisy/Drivers/CMSIS/Include/core_cm7.h **** #define CoreDebug_DHCSR_S_REGRDY_Pos       16U                                            /*!< Core
1651:/Users/reza.kalfane/Workspaces/Daisy/DaisyExamples/libDaisy/Drivers/CMSIS/Include/core_cm7.h **** #define CoreDebug_DHCSR_S_REGRDY_Msk       (1UL << CoreDebug_DHCSR_S_REGRDY_Pos)          /*!< Core
1652:/Users/reza.kalfane/Workspaces/Daisy/DaisyExamples/libDaisy/Drivers/CMSIS/Include/core_cm7.h **** 
1653:/Users/reza.kalfane/Workspaces/Daisy/DaisyExamples/libDaisy/Drivers/CMSIS/Include/core_cm7.h **** #define CoreDebug_DHCSR_C_SNAPSTALL_Pos     5U                                            /*!< Core
1654:/Users/reza.kalfane/Workspaces/Daisy/DaisyExamples/libDaisy/Drivers/CMSIS/Include/core_cm7.h **** #define CoreDebug_DHCSR_C_SNAPSTALL_Msk    (1UL << CoreDebug_DHCSR_C_SNAPSTALL_Pos)       /*!< Core
1655:/Users/reza.kalfane/Workspaces/Daisy/DaisyExamples/libDaisy/Drivers/CMSIS/Include/core_cm7.h **** 
1656:/Users/reza.kalfane/Workspaces/Daisy/DaisyExamples/libDaisy/Drivers/CMSIS/Include/core_cm7.h **** #define CoreDebug_DHCSR_C_MASKINTS_Pos      3U                                            /*!< Core
1657:/Users/reza.kalfane/Workspaces/Daisy/DaisyExamples/libDaisy/Drivers/CMSIS/Include/core_cm7.h **** #define CoreDebug_DHCSR_C_MASKINTS_Msk     (1UL << CoreDebug_DHCSR_C_MASKINTS_Pos)        /*!< Core
1658:/Users/reza.kalfane/Workspaces/Daisy/DaisyExamples/libDaisy/Drivers/CMSIS/Include/core_cm7.h **** 
1659:/Users/reza.kalfane/Workspaces/Daisy/DaisyExamples/libDaisy/Drivers/CMSIS/Include/core_cm7.h **** #define CoreDebug_DHCSR_C_STEP_Pos          2U                                            /*!< Core
1660:/Users/reza.kalfane/Workspaces/Daisy/DaisyExamples/libDaisy/Drivers/CMSIS/Include/core_cm7.h **** #define CoreDebug_DHCSR_C_STEP_Msk         (1UL << CoreDebug_DHCSR_C_STEP_Pos)            /*!< Core
1661:/Users/reza.kalfane/Workspaces/Daisy/DaisyExamples/libDaisy/Drivers/CMSIS/Include/core_cm7.h **** 
1662:/Users/reza.kalfane/Workspaces/Daisy/DaisyExamples/libDaisy/Drivers/CMSIS/Include/core_cm7.h **** #define CoreDebug_DHCSR_C_HALT_Pos          1U                                            /*!< Core
1663:/Users/reza.kalfane/Workspaces/Daisy/DaisyExamples/libDaisy/Drivers/CMSIS/Include/core_cm7.h **** #define CoreDebug_DHCSR_C_HALT_Msk         (1UL << CoreDebug_DHCSR_C_HALT_Pos)            /*!< Core
1664:/Users/reza.kalfane/Workspaces/Daisy/DaisyExamples/libDaisy/Drivers/CMSIS/Include/core_cm7.h **** 
1665:/Users/reza.kalfane/Workspaces/Daisy/DaisyExamples/libDaisy/Drivers/CMSIS/Include/core_cm7.h **** #define CoreDebug_DHCSR_C_DEBUGEN_Pos       0U                                            /*!< Core
1666:/Users/reza.kalfane/Workspaces/Daisy/DaisyExamples/libDaisy/Drivers/CMSIS/Include/core_cm7.h **** #define CoreDebug_DHCSR_C_DEBUGEN_Msk      (1UL /*<< CoreDebug_DHCSR_C_DEBUGEN_Pos*/)     /*!< Core
1667:/Users/reza.kalfane/Workspaces/Daisy/DaisyExamples/libDaisy/Drivers/CMSIS/Include/core_cm7.h **** 
1668:/Users/reza.kalfane/Workspaces/Daisy/DaisyExamples/libDaisy/Drivers/CMSIS/Include/core_cm7.h **** /* Debug Core Register Selector Register Definitions */
1669:/Users/reza.kalfane/Workspaces/Daisy/DaisyExamples/libDaisy/Drivers/CMSIS/Include/core_cm7.h **** #define CoreDebug_DCRSR_REGWnR_Pos         16U                                            /*!< Core
1670:/Users/reza.kalfane/Workspaces/Daisy/DaisyExamples/libDaisy/Drivers/CMSIS/Include/core_cm7.h **** #define CoreDebug_DCRSR_REGWnR_Msk         (1UL << CoreDebug_DCRSR_REGWnR_Pos)            /*!< Core
ARM GAS  /tmp/claude-502/ccFotbfS.s 			page 92


1671:/Users/reza.kalfane/Workspaces/Daisy/DaisyExamples/libDaisy/Drivers/CMSIS/Include/core_cm7.h **** 
1672:/Users/reza.kalfane/Workspaces/Daisy/DaisyExamples/libDaisy/Drivers/CMSIS/Include/core_cm7.h **** #define CoreDebug_DCRSR_REGSEL_Pos          0U                                            /*!< Core
1673:/Users/reza.kalfane/Workspaces/Daisy/DaisyExamples/libDaisy/Drivers/CMSIS/Include/core_cm7.h **** #define CoreDebug_DCRSR_REGSEL_Msk         (0x1FUL /*<< CoreDebug_DCRSR_REGSEL_Pos*/)     /*!< Core
1674:/Users/reza.kalfane/Workspaces/Daisy/DaisyExamples/libDaisy/Drivers/CMSIS/Include/core_cm7.h **** 
1675:/Users/reza.kalfane/Workspaces/Daisy/DaisyExamples/libDaisy/Drivers/CMSIS/Include/core_cm7.h **** /* Debug Exception and Monitor Control Register Definitions */
1676:/Users/reza.kalfane/Workspaces/Daisy/DaisyExamples/libDaisy/Drivers/CMSIS/Include/core_cm7.h **** #define CoreDebug_DEMCR_TRCENA_Pos         24U                                            /*!< Core
1677:/Users/reza.kalfane/Workspaces/Daisy/DaisyExamples/libDaisy/Drivers/CMSIS/Include/core_cm7.h **** #define CoreDebug_DEMCR_TRCENA_Msk         (1UL << CoreDebug_DEMCR_TRCENA_Pos)            /*!< Core
1678:/Users/reza.kalfane/Workspaces/Daisy/DaisyExamples/libDaisy/Drivers/CMSIS/Include/core_cm7.h **** 
1679:/Users/reza.kalfane/Workspaces/Daisy/DaisyExamples/libDaisy/Drivers/CMSIS/Include/core_cm7.h **** #define CoreDebug_DEMCR_MON_REQ_Pos        19U                                            /*!< Core
1680:/Users/reza.kalfane/Workspaces/Daisy/DaisyExamples/libDaisy/Drivers/CMSIS/Include/core_cm7.h **** #define CoreDebug_DEMCR_MON_REQ_Msk        (1UL << CoreDebug_DEMCR_MON_REQ_Pos)           /*!< Core
1681:/Users/reza.kalfane/Workspaces/Daisy/DaisyExamples/libDaisy/Drivers/CMSIS/Include/core_cm7.h **** 
1682:/Users/reza.kalfane/Workspaces/Daisy/DaisyExamples/libDaisy/Drivers/CMSIS/Include/core_cm7.h **** #define CoreDebug_DEMCR_MON_STEP_Pos       18U                                            /*!< Core
1683:/Users/reza.kalfane/Workspaces/Daisy/DaisyExamples/libDaisy/Drivers/CMSIS/Include/core_cm7.h **** #define CoreDebug_DEMCR_MON_STEP_Msk       (1UL << CoreDebug_DEMCR_MON_STEP_Pos)          /*!< Core
1684:/Users/reza.kalfane/Workspaces/Daisy/DaisyExamples/libDaisy/Drivers/CMSIS/Include/core_cm7.h **** 
1685:/Users/reza.kalfane/Workspaces/Daisy/DaisyExamples/libDaisy/Drivers/CMSIS/Include/core_cm7.h **** #define CoreDebug_DEMCR_MON_PEND_Pos       17U                                            /*!< Core
1686:/Users/reza.kalfane/Workspaces/Daisy/DaisyExamples/libDaisy/Drivers/CMSIS/Include/core_cm7.h **** #define CoreDebug_DEMCR_MON_PEND_Msk       (1UL << CoreDebug_DEMCR_MON_PEND_Pos)          /*!< Core
1687:/Users/reza.kalfane/Workspaces/Daisy/DaisyExamples/libDaisy/Drivers/CMSIS/Include/core_cm7.h **** 
1688:/Users/reza.kalfane/Workspaces/Daisy/DaisyExamples/libDaisy/Drivers/CMSIS/Include/core_cm7.h **** #define CoreDebug_DEMCR_MON_EN_Pos         16U                                            /*!< Core
1689:/Users/reza.kalfane/Workspaces/Daisy/DaisyExamples/libDaisy/Drivers/CMSIS/Include/core_cm7.h **** #define CoreDebug_DEMCR_MON_EN_Msk         (1UL << CoreDebug_DEMCR_MON_EN_Pos)            /*!< Core
1690:/Users/reza.kalfane/Workspaces/Daisy/DaisyExamples/libDaisy/Drivers/CMSIS/Include/core_cm7.h **** 
1691:/Users/reza.kalfane/Workspaces/Daisy/DaisyExamples/libDaisy/Drivers/CMSIS/Include/core_cm7.h **** #define CoreDebug_DEMCR_VC_HARDERR_Pos     10U                                            /*!< Core
1692:/Users/reza.kalfane/Workspaces/Daisy/DaisyExamples/libDaisy/Drivers/CMSIS/Include/core_cm7.h **** #define CoreDebug_DEMCR_VC_HARDERR_Msk     (1UL << CoreDebug_DEMCR_VC_HARDERR_Pos)        /*!< Core
1693:/Users/reza.kalfane/Workspaces/Daisy/DaisyExamples/libDaisy/Drivers/CMSIS/Include/core_cm7.h **** 
1694:/Users/reza.kalfane/Workspaces/Daisy/DaisyExamples/libDaisy/Drivers/CMSIS/Include/core_cm7.h **** #define CoreDebug_DEMCR_VC_INTERR_Pos       9U                                            /*!< Core
1695:/Users/reza.kalfane/Workspaces/Daisy/DaisyExamples/libDaisy/Drivers/CMSIS/Include/core_cm7.h **** #define CoreDebug_DEMCR_VC_INTERR_Msk      (1UL << CoreDebug_DEMCR_VC_INTERR_Pos)         /*!< Core
1696:/Users/reza.kalfane/Workspaces/Daisy/DaisyExamples/libDaisy/Drivers/CMSIS/Include/core_cm7.h **** 
1697:/Users/reza.kalfane/Workspaces/Daisy/DaisyExamples/libDaisy/Drivers/CMSIS/Include/core_cm7.h **** #define CoreDebug_DEMCR_VC_BUSERR_Pos       8U                                            /*!< Core
1698:/Users/reza.kalfane/Workspaces/Daisy/DaisyExamples/libDaisy/Drivers/CMSIS/Include/core_cm7.h **** #define CoreDebug_DEMCR_VC_BUSERR_Msk      (1UL << CoreDebug_DEMCR_VC_BUSERR_Pos)         /*!< Core
1699:/Users/reza.kalfane/Workspaces/Daisy/DaisyExamples/libDaisy/Drivers/CMSIS/Include/core_cm7.h **** 
1700:/Users/reza.kalfane/Workspaces/Daisy/DaisyExamples/libDaisy/Drivers/CMSIS/Include/core_cm7.h **** #define CoreDebug_DEMCR_VC_STATERR_Pos      7U                                            /*!< Core
1701:/Users/reza.kalfane/Workspaces/Daisy/DaisyExamples/libDaisy/Drivers/CMSIS/Include/core_cm7.h **** #define CoreDebug_DEMCR_VC_STATERR_Msk     (1UL << CoreDebug_DEMCR_VC_STATERR_Pos)        /*!< Core
1702:/Users/reza.kalfane/Workspaces/Daisy/DaisyExamples/libDaisy/Drivers/CMSIS/Include/core_cm7.h **** 
1703:/Users/reza.kalfane/Workspaces/Daisy/DaisyExamples/libDaisy/Drivers/CMSIS/Include/core_cm7.h **** #define CoreDebug_DEMCR_VC_CHKERR_Pos       6U                                            /*!< Core
1704:/Users/reza.kalfane/Workspaces/Daisy/DaisyExamples/libDaisy/Drivers/CMSIS/Include/core_cm7.h **** #define CoreDebug_DEMCR_VC_CHKERR_Msk      (1UL << CoreDebug_DEMCR_VC_CHKERR_Pos)         /*!< Core
1705:/Users/reza.kalfane/Workspaces/Daisy/DaisyExamples/libDaisy/Drivers/CMSIS/Include/core_cm7.h **** 
1706:/Users/reza.kalfane/Workspaces/Daisy/DaisyExamples/libDaisy/Drivers/CMSIS/Include/core_cm7.h **** #define CoreDebug_DEMCR_VC_NOCPERR_Pos      5U                                            /*!< Core
1707:/Users/reza.kalfane/Workspaces/Daisy/DaisyExamples/libDaisy/Drivers/CMSIS/Include/core_cm7.h **** #define CoreDebug_DEMCR_VC_NOCPERR_Msk     (1UL << CoreDebug_DEMCR_VC_NOCPERR_Pos)        /*!< Core
1708:/Users/reza.kalfane/Workspaces/Daisy/DaisyExamples/libDaisy/Drivers/CMSIS/Include/core_cm7.h **** 
1709:/Users/reza.kalfane/Workspaces/Daisy/DaisyExamples/libDaisy/Drivers/CMSIS/Include/core_cm7.h **** #define CoreDebug_DEMCR_VC_MMERR_Pos        4U                                            /*!< Core
1710:/Users/reza.kalfane/Workspaces/Daisy/DaisyExamples/libDaisy/Drivers/CMSIS/Include/core_cm7.h **** #define CoreDebug_DEMCR_VC_MMERR_Msk       (1UL << CoreDebug_DEMCR_VC_MMERR_Pos)          /*!< Core
1711:/Users/reza.kalfane/Workspaces/Daisy/DaisyExamples/libDaisy/Drivers/CMSIS/Include/core_cm7.h **** 
1712:/Users/reza.kalfane/Workspaces/Daisy/DaisyExamples/libDaisy/Drivers/CMSIS/Include/core_cm7.h **** #define CoreDebug_DEMCR_VC_CORERESET_Pos    0U                                            /*!< Core
1713:/Users/reza.kalfane/Workspaces/Daisy/DaisyExamples/libDaisy/Drivers/CMSIS/Include/core_cm7.h **** #define CoreDebug_DEMCR_VC_CORERESET_Msk   (1UL /*<< CoreDebug_DEMCR_VC_CORERESET_Pos*/)  /*!< Core
1714:/Users/reza.kalfane/Workspaces/Daisy/DaisyExamples/libDaisy/Drivers/CMSIS/Include/core_cm7.h **** 
1715:/Users/reza.kalfane/Workspaces/Daisy/DaisyExamples/libDaisy/Drivers/CMSIS/Include/core_cm7.h **** /*@} end of group CMSIS_CoreDebug */
1716:/Users/reza.kalfane/Workspaces/Daisy/DaisyExamples/libDaisy/Drivers/CMSIS/Include/core_cm7.h **** 
1717:/Users/reza.kalfane/Workspaces/Daisy/DaisyExamples/libDaisy/Drivers/CMSIS/Include/core_cm7.h **** 
1718:/Users/reza.kalfane/Workspaces/Daisy/DaisyExamples/libDaisy/Drivers/CMSIS/Include/core_cm7.h **** /**
1719:/Users/reza.kalfane/Workspaces/Daisy/DaisyExamples/libDaisy/Drivers/CMSIS/Include/core_cm7.h ****   \ingroup    CMSIS_core_register
1720:/Users/reza.kalfane/Workspaces/Daisy/DaisyExamples/libDaisy/Drivers/CMSIS/Include/core_cm7.h ****   \defgroup   CMSIS_core_bitfield     Core register bit field macros
1721:/Users/reza.kalfane/Workspaces/Daisy/DaisyExamples/libDaisy/Drivers/CMSIS/Include/core_cm7.h ****   \brief      Macros for use with bit field definitions (xxx_Pos, xxx_Msk).
1722:/Users/reza.kalfane/Workspaces/Daisy/DaisyExamples/libDaisy/Drivers/CMSIS/Include/core_cm7.h ****   @{
1723:/Users/reza.kalfane/Workspaces/Daisy/DaisyExamples/libDaisy/Drivers/CMSIS/Include/core_cm7.h ****  */
1724:/Users/reza.kalfane/Workspaces/Daisy/DaisyExamples/libDaisy/Drivers/CMSIS/Include/core_cm7.h **** 
1725:/Users/reza.kalfane/Workspaces/Daisy/DaisyExamples/libDaisy/Drivers/CMSIS/Include/core_cm7.h **** /**
1726:/Users/reza.kalfane/Workspaces/Daisy/DaisyExamples/libDaisy/Drivers/CMSIS/Include/core_cm7.h ****   \brief   Mask and shift a bit field value for use in a register bit range.
1727:/Users/reza.kalfane/Workspaces/Daisy/DaisyExamples/libDaisy/Drivers/CMSIS/Include/core_cm7.h ****   \param[in] field  Name of the register bit field.
ARM GAS  /tmp/claude-502/ccFotbfS.s 			page 93


1728:/Users/reza.kalfane/Workspaces/Daisy/DaisyExamples/libDaisy/Drivers/CMSIS/Include/core_cm7.h ****   \param[in] value  Value of the bit field. This parameter is interpreted as an uint32_t type.
1729:/Users/reza.kalfane/Workspaces/Daisy/DaisyExamples/libDaisy/Drivers/CMSIS/Include/core_cm7.h ****   \return           Masked and shifted value.
1730:/Users/reza.kalfane/Workspaces/Daisy/DaisyExamples/libDaisy/Drivers/CMSIS/Include/core_cm7.h **** */
1731:/Users/reza.kalfane/Workspaces/Daisy/DaisyExamples/libDaisy/Drivers/CMSIS/Include/core_cm7.h **** #define _VAL2FLD(field, value)    (((uint32_t)(value) << field ## _Pos) & field ## _Msk)
1732:/Users/reza.kalfane/Workspaces/Daisy/DaisyExamples/libDaisy/Drivers/CMSIS/Include/core_cm7.h **** 
1733:/Users/reza.kalfane/Workspaces/Daisy/DaisyExamples/libDaisy/Drivers/CMSIS/Include/core_cm7.h **** /**
1734:/Users/reza.kalfane/Workspaces/Daisy/DaisyExamples/libDaisy/Drivers/CMSIS/Include/core_cm7.h ****   \brief     Mask and shift a register value to extract a bit filed value.
1735:/Users/reza.kalfane/Workspaces/Daisy/DaisyExamples/libDaisy/Drivers/CMSIS/Include/core_cm7.h ****   \param[in] field  Name of the register bit field.
1736:/Users/reza.kalfane/Workspaces/Daisy/DaisyExamples/libDaisy/Drivers/CMSIS/Include/core_cm7.h ****   \param[in] value  Value of register. This parameter is interpreted as an uint32_t type.
1737:/Users/reza.kalfane/Workspaces/Daisy/DaisyExamples/libDaisy/Drivers/CMSIS/Include/core_cm7.h ****   \return           Masked and shifted bit field value.
1738:/Users/reza.kalfane/Workspaces/Daisy/DaisyExamples/libDaisy/Drivers/CMSIS/Include/core_cm7.h **** */
1739:/Users/reza.kalfane/Workspaces/Daisy/DaisyExamples/libDaisy/Drivers/CMSIS/Include/core_cm7.h **** #define _FLD2VAL(field, value)    (((uint32_t)(value) & field ## _Msk) >> field ## _Pos)
1740:/Users/reza.kalfane/Workspaces/Daisy/DaisyExamples/libDaisy/Drivers/CMSIS/Include/core_cm7.h **** 
1741:/Users/reza.kalfane/Workspaces/Daisy/DaisyExamples/libDaisy/Drivers/CMSIS/Include/core_cm7.h **** /*@} end of group CMSIS_core_bitfield */
1742:/Users/reza.kalfane/Workspaces/Daisy/DaisyExamples/libDaisy/Drivers/CMSIS/Include/core_cm7.h **** 
1743:/Users/reza.kalfane/Workspaces/Daisy/DaisyExamples/libDaisy/Drivers/CMSIS/Include/core_cm7.h **** 
1744:/Users/reza.kalfane/Workspaces/Daisy/DaisyExamples/libDaisy/Drivers/CMSIS/Include/core_cm7.h **** /**
1745:/Users/reza.kalfane/Workspaces/Daisy/DaisyExamples/libDaisy/Drivers/CMSIS/Include/core_cm7.h ****   \ingroup    CMSIS_core_register
1746:/Users/reza.kalfane/Workspaces/Daisy/DaisyExamples/libDaisy/Drivers/CMSIS/Include/core_cm7.h ****   \defgroup   CMSIS_core_base     Core Definitions
1747:/Users/reza.kalfane/Workspaces/Daisy/DaisyExamples/libDaisy/Drivers/CMSIS/Include/core_cm7.h ****   \brief      Definitions for base addresses, unions, and structures.
1748:/Users/reza.kalfane/Workspaces/Daisy/DaisyExamples/libDaisy/Drivers/CMSIS/Include/core_cm7.h ****   @{
1749:/Users/reza.kalfane/Workspaces/Daisy/DaisyExamples/libDaisy/Drivers/CMSIS/Include/core_cm7.h ****  */
1750:/Users/reza.kalfane/Workspaces/Daisy/DaisyExamples/libDaisy/Drivers/CMSIS/Include/core_cm7.h **** 
1751:/Users/reza.kalfane/Workspaces/Daisy/DaisyExamples/libDaisy/Drivers/CMSIS/Include/core_cm7.h **** /* Memory mapping of Core Hardware */
1752:/Users/reza.kalfane/Workspaces/Daisy/DaisyExamples/libDaisy/Drivers/CMSIS/Include/core_cm7.h **** #define SCS_BASE            (0xE000E000UL)                            /*!< System Control Space Bas
1753:/Users/reza.kalfane/Workspaces/Daisy/DaisyExamples/libDaisy/Drivers/CMSIS/Include/core_cm7.h **** #define ITM_BASE            (0xE0000000UL)                            /*!< ITM Base Address */
1754:/Users/reza.kalfane/Workspaces/Daisy/DaisyExamples/libDaisy/Drivers/CMSIS/Include/core_cm7.h **** #define DWT_BASE            (0xE0001000UL)                            /*!< DWT Base Address */
1755:/Users/reza.kalfane/Workspaces/Daisy/DaisyExamples/libDaisy/Drivers/CMSIS/Include/core_cm7.h **** #define TPI_BASE            (0xE0040000UL)                            /*!< TPI Base Address */
1756:/Users/reza.kalfane/Workspaces/Daisy/DaisyExamples/libDaisy/Drivers/CMSIS/Include/core_cm7.h **** #define CoreDebug_BASE      (0xE000EDF0UL)                            /*!< Core Debug Base Address 
1757:/Users/reza.kalfane/Workspaces/Daisy/DaisyExamples/libDaisy/Drivers/CMSIS/Include/core_cm7.h **** #define SysTick_BASE        (SCS_BASE +  0x0010UL)                    /*!< SysTick Base Address */
1758:/Users/reza.kalfane/Workspaces/Daisy/DaisyExamples/libDaisy/Drivers/CMSIS/Include/core_cm7.h **** #define NVIC_BASE           (SCS_BASE +  0x0100UL)                    /*!< NVIC Base Address */
1759:/Users/reza.kalfane/Workspaces/Daisy/DaisyExamples/libDaisy/Drivers/CMSIS/Include/core_cm7.h **** #define SCB_BASE            (SCS_BASE +  0x0D00UL)                    /*!< System Control Block Bas
1760:/Users/reza.kalfane/Workspaces/Daisy/DaisyExamples/libDaisy/Drivers/CMSIS/Include/core_cm7.h **** 
1761:/Users/reza.kalfane/Workspaces/Daisy/DaisyExamples/libDaisy/Drivers/CMSIS/Include/core_cm7.h **** #define SCnSCB              ((SCnSCB_Type    *)     SCS_BASE      )   /*!< System control Register 
1762:/Users/reza.kalfane/Workspaces/Daisy/DaisyExamples/libDaisy/Drivers/CMSIS/Include/core_cm7.h **** #define SCB                 ((SCB_Type       *)     SCB_BASE      )   /*!< SCB configuration struct
1763:/Users/reza.kalfane/Workspaces/Daisy/DaisyExamples/libDaisy/Drivers/CMSIS/Include/core_cm7.h **** #define SysTick             ((SysTick_Type   *)     SysTick_BASE  )   /*!< SysTick configuration st
1764:/Users/reza.kalfane/Workspaces/Daisy/DaisyExamples/libDaisy/Drivers/CMSIS/Include/core_cm7.h **** #define NVIC                ((NVIC_Type      *)     NVIC_BASE     )   /*!< NVIC configuration struc
1765:/Users/reza.kalfane/Workspaces/Daisy/DaisyExamples/libDaisy/Drivers/CMSIS/Include/core_cm7.h **** #define ITM                 ((ITM_Type       *)     ITM_BASE      )   /*!< ITM configuration struct
1766:/Users/reza.kalfane/Workspaces/Daisy/DaisyExamples/libDaisy/Drivers/CMSIS/Include/core_cm7.h **** #define DWT                 ((DWT_Type       *)     DWT_BASE      )   /*!< DWT configuration struct
1767:/Users/reza.kalfane/Workspaces/Daisy/DaisyExamples/libDaisy/Drivers/CMSIS/Include/core_cm7.h **** #define TPI                 ((TPI_Type       *)     TPI_BASE      )   /*!< TPI configuration struct
1768:/Users/reza.kalfane/Workspaces/Daisy/DaisyExamples/libDaisy/Drivers/CMSIS/Include/core_cm7.h **** #define CoreDebug           ((CoreDebug_Type *)     CoreDebug_BASE)   /*!< Core Debug configuration
1769:/Users/reza.kalfane/Workspaces/Daisy/DaisyExamples/libDaisy/Drivers/CMSIS/Include/core_cm7.h **** 
1770:/Users/reza.kalfane/Workspaces/Daisy/DaisyExamples/libDaisy/Drivers/CMSIS/Include/core_cm7.h **** #if defined (__MPU_PRESENT) && (__MPU_PRESENT == 1U)
1771:/Users/reza.kalfane/Workspaces/Daisy/DaisyExamples/libDaisy/Drivers/CMSIS/Include/core_cm7.h ****   #define MPU_BASE          (SCS_BASE +  0x0D90UL)                    /*!< Memory Protection Unit *
1772:/Users/reza.kalfane/Workspaces/Daisy/DaisyExamples/libDaisy/Drivers/CMSIS/Include/core_cm7.h ****   #define MPU               ((MPU_Type       *)     MPU_BASE      )   /*!< Memory Protection Unit *
1773:/Users/reza.kalfane/Workspaces/Daisy/DaisyExamples/libDaisy/Drivers/CMSIS/Include/core_cm7.h **** #endif
1774:/Users/reza.kalfane/Workspaces/Daisy/DaisyExamples/libDaisy/Drivers/CMSIS/Include/core_cm7.h **** 
1775:/Users/reza.kalfane/Workspaces/Daisy/DaisyExamples/libDaisy/Drivers/CMSIS/Include/core_cm7.h **** #define FPU_BASE            (SCS_BASE +  0x0F30UL)                    /*!< Floating Point Unit */
1776:/Users/reza.kalfane/Workspaces/Daisy/DaisyExamples/libDaisy/Drivers/CMSIS/Include/core_cm7.h **** #define FPU                 ((FPU_Type       *)     FPU_BASE      )   /*!< Floating Point Unit */
1777:/Users/reza.kalfane/Workspaces/Daisy/DaisyExamples/libDaisy/Drivers/CMSIS/Include/core_cm7.h **** 
1778:/Users/reza.kalfane/Workspaces/Daisy/DaisyExamples/libDaisy/Drivers/CMSIS/Include/core_cm7.h **** /*@} */
1779:/Users/reza.kalfane/Workspaces/Daisy/DaisyExamples/libDaisy/Drivers/CMSIS/Include/core_cm7.h **** 
1780:/Users/reza.kalfane/Workspaces/Daisy/DaisyExamples/libDaisy/Drivers/CMSIS/Include/core_cm7.h **** 
1781:/Users/reza.kalfane/Workspaces/Daisy/DaisyExamples/libDaisy/Drivers/CMSIS/Include/core_cm7.h **** 
1782:/Users/reza.kalfane/Workspaces/Daisy/DaisyExamples/libDaisy/Drivers/CMSIS/Include/core_cm7.h **** /*******************************************************************************
1783:/Users/reza.kalfane/Workspaces/Daisy/DaisyExamples/libDaisy/Drivers/CMSIS/Include/core_cm7.h ****  *                Hardware Abstraction Layer
1784:/Users/reza.kalfane/Workspaces/Daisy/DaisyExamples/libDaisy/Drivers/CMSIS/Include/core_cm7.h ****   Core Function Interface contains:
ARM GAS  /tmp/claude-502/ccFotbfS.s 			page 94


1785:/Users/reza.kalfane/Workspaces/Daisy/DaisyExamples/libDaisy/Drivers/CMSIS/Include/core_cm7.h ****   - Core NVIC Functions
1786:/Users/reza.kalfane/Workspaces/Daisy/DaisyExamples/libDaisy/Drivers/CMSIS/Include/core_cm7.h ****   - Core SysTick Functions
1787:/Users/reza.kalfane/Workspaces/Daisy/DaisyExamples/libDaisy/Drivers/CMSIS/Include/core_cm7.h ****   - Core Debug Functions
1788:/Users/reza.kalfane/Workspaces/Daisy/DaisyExamples/libDaisy/Drivers/CMSIS/Include/core_cm7.h ****   - Core Register Access Functions
1789:/Users/reza.kalfane/Workspaces/Daisy/DaisyExamples/libDaisy/Drivers/CMSIS/Include/core_cm7.h ****  ******************************************************************************/
1790:/Users/reza.kalfane/Workspaces/Daisy/DaisyExamples/libDaisy/Drivers/CMSIS/Include/core_cm7.h **** /**
1791:/Users/reza.kalfane/Workspaces/Daisy/DaisyExamples/libDaisy/Drivers/CMSIS/Include/core_cm7.h ****   \defgroup CMSIS_Core_FunctionInterface Functions and Instructions Reference
1792:/Users/reza.kalfane/Workspaces/Daisy/DaisyExamples/libDaisy/Drivers/CMSIS/Include/core_cm7.h **** */
1793:/Users/reza.kalfane/Workspaces/Daisy/DaisyExamples/libDaisy/Drivers/CMSIS/Include/core_cm7.h **** 
1794:/Users/reza.kalfane/Workspaces/Daisy/DaisyExamples/libDaisy/Drivers/CMSIS/Include/core_cm7.h **** 
1795:/Users/reza.kalfane/Workspaces/Daisy/DaisyExamples/libDaisy/Drivers/CMSIS/Include/core_cm7.h **** 
1796:/Users/reza.kalfane/Workspaces/Daisy/DaisyExamples/libDaisy/Drivers/CMSIS/Include/core_cm7.h **** /* ##########################   NVIC functions  #################################### */
1797:/Users/reza.kalfane/Workspaces/Daisy/DaisyExamples/libDaisy/Drivers/CMSIS/Include/core_cm7.h **** /**
1798:/Users/reza.kalfane/Workspaces/Daisy/DaisyExamples/libDaisy/Drivers/CMSIS/Include/core_cm7.h ****   \ingroup  CMSIS_Core_FunctionInterface
1799:/Users/reza.kalfane/Workspaces/Daisy/DaisyExamples/libDaisy/Drivers/CMSIS/Include/core_cm7.h ****   \defgroup CMSIS_Core_NVICFunctions NVIC Functions
1800:/Users/reza.kalfane/Workspaces/Daisy/DaisyExamples/libDaisy/Drivers/CMSIS/Include/core_cm7.h ****   \brief    Functions that manage interrupts and exceptions via the NVIC.
1801:/Users/reza.kalfane/Workspaces/Daisy/DaisyExamples/libDaisy/Drivers/CMSIS/Include/core_cm7.h ****   @{
1802:/Users/reza.kalfane/Workspaces/Daisy/DaisyExamples/libDaisy/Drivers/CMSIS/Include/core_cm7.h ****  */
1803:/Users/reza.kalfane/Workspaces/Daisy/DaisyExamples/libDaisy/Drivers/CMSIS/Include/core_cm7.h **** 
1804:/Users/reza.kalfane/Workspaces/Daisy/DaisyExamples/libDaisy/Drivers/CMSIS/Include/core_cm7.h **** #ifndef CMSIS_NVIC_VIRTUAL
1805:/Users/reza.kalfane/Workspaces/Daisy/DaisyExamples/libDaisy/Drivers/CMSIS/Include/core_cm7.h ****   #define NVIC_SetPriorityGrouping    __NVIC_SetPriorityGrouping
1806:/Users/reza.kalfane/Workspaces/Daisy/DaisyExamples/libDaisy/Drivers/CMSIS/Include/core_cm7.h ****   #define NVIC_GetPriorityGrouping    __NVIC_GetPriorityGrouping
1807:/Users/reza.kalfane/Workspaces/Daisy/DaisyExamples/libDaisy/Drivers/CMSIS/Include/core_cm7.h ****   #define NVIC_EnableIRQ              __NVIC_EnableIRQ
1808:/Users/reza.kalfane/Workspaces/Daisy/DaisyExamples/libDaisy/Drivers/CMSIS/Include/core_cm7.h ****   #define NVIC_GetEnableIRQ           __NVIC_GetEnableIRQ
1809:/Users/reza.kalfane/Workspaces/Daisy/DaisyExamples/libDaisy/Drivers/CMSIS/Include/core_cm7.h ****   #define NVIC_DisableIRQ             __NVIC_DisableIRQ
1810:/Users/reza.kalfane/Workspaces/Daisy/DaisyExamples/libDaisy/Drivers/CMSIS/Include/core_cm7.h ****   #define NVIC_GetPendingIRQ          __NVIC_GetPendingIRQ
1811:/Users/reza.kalfane/Workspaces/Daisy/DaisyExamples/libDaisy/Drivers/CMSIS/Include/core_cm7.h ****   #define NVIC_SetPendingIRQ          __NVIC_SetPendingIRQ
1812:/Users/reza.kalfane/Workspaces/Daisy/DaisyExamples/libDaisy/Drivers/CMSIS/Include/core_cm7.h ****   #define NVIC_ClearPendingIRQ        __NVIC_ClearPendingIRQ
1813:/Users/reza.kalfane/Workspaces/Daisy/DaisyExamples/libDaisy/Drivers/CMSIS/Include/core_cm7.h ****   #define NVIC_GetActive              __NVIC_GetActive
1814:/Users/reza.kalfane/Workspaces/Daisy/DaisyExamples/libDaisy/Drivers/CMSIS/Include/core_cm7.h ****   #define NVIC_SetPriority            __NVIC_SetPriority
1815:/Users/reza.kalfane/Workspaces/Daisy/DaisyExamples/libDaisy/Drivers/CMSIS/Include/core_cm7.h ****   #define NVIC_GetPriority            __NVIC_GetPriority
1816:/Users/reza.kalfane/Workspaces/Daisy/DaisyExamples/libDaisy/Drivers/CMSIS/Include/core_cm7.h **** #endif /* CMSIS_NVIC_VIRTUAL */
1817:/Users/reza.kalfane/Workspaces/Daisy/DaisyExamples/libDaisy/Drivers/CMSIS/Include/core_cm7.h **** 
1818:/Users/reza.kalfane/Workspaces/Daisy/DaisyExamples/libDaisy/Drivers/CMSIS/Include/core_cm7.h **** #ifndef CMSIS_VECTAB_VIRTUAL
1819:/Users/reza.kalfane/Workspaces/Daisy/DaisyExamples/libDaisy/Drivers/CMSIS/Include/core_cm7.h ****   #define NVIC_SetVector              __NVIC_SetVector
1820:/Users/reza.kalfane/Workspaces/Daisy/DaisyExamples/libDaisy/Drivers/CMSIS/Include/core_cm7.h ****   #define NVIC_GetVector              __NVIC_GetVector
1821:/Users/reza.kalfane/Workspaces/Daisy/DaisyExamples/libDaisy/Drivers/CMSIS/Include/core_cm7.h **** #endif  /* (CMSIS_VECTAB_VIRTUAL) */
1822:/Users/reza.kalfane/Workspaces/Daisy/DaisyExamples/libDaisy/Drivers/CMSIS/Include/core_cm7.h **** 
1823:/Users/reza.kalfane/Workspaces/Daisy/DaisyExamples/libDaisy/Drivers/CMSIS/Include/core_cm7.h **** #define NVIC_USER_IRQ_OFFSET          16
1824:/Users/reza.kalfane/Workspaces/Daisy/DaisyExamples/libDaisy/Drivers/CMSIS/Include/core_cm7.h **** 
1825:/Users/reza.kalfane/Workspaces/Daisy/DaisyExamples/libDaisy/Drivers/CMSIS/Include/core_cm7.h **** 
1826:/Users/reza.kalfane/Workspaces/Daisy/DaisyExamples/libDaisy/Drivers/CMSIS/Include/core_cm7.h **** 
1827:/Users/reza.kalfane/Workspaces/Daisy/DaisyExamples/libDaisy/Drivers/CMSIS/Include/core_cm7.h **** /**
1828:/Users/reza.kalfane/Workspaces/Daisy/DaisyExamples/libDaisy/Drivers/CMSIS/Include/core_cm7.h ****   \brief   Set Priority Grouping
1829:/Users/reza.kalfane/Workspaces/Daisy/DaisyExamples/libDaisy/Drivers/CMSIS/Include/core_cm7.h ****   \details Sets the priority grouping field using the required unlock sequence.
1830:/Users/reza.kalfane/Workspaces/Daisy/DaisyExamples/libDaisy/Drivers/CMSIS/Include/core_cm7.h ****            The parameter PriorityGroup is assigned to the field SCB->AIRCR [10:8] PRIGROUP field.
1831:/Users/reza.kalfane/Workspaces/Daisy/DaisyExamples/libDaisy/Drivers/CMSIS/Include/core_cm7.h ****            Only values from 0..7 are used.
1832:/Users/reza.kalfane/Workspaces/Daisy/DaisyExamples/libDaisy/Drivers/CMSIS/Include/core_cm7.h ****            In case of a conflict between priority grouping and available
1833:/Users/reza.kalfane/Workspaces/Daisy/DaisyExamples/libDaisy/Drivers/CMSIS/Include/core_cm7.h ****            priority bits (__NVIC_PRIO_BITS), the smallest possible priority group is set.
1834:/Users/reza.kalfane/Workspaces/Daisy/DaisyExamples/libDaisy/Drivers/CMSIS/Include/core_cm7.h ****   \param [in]      PriorityGroup  Priority grouping field.
1835:/Users/reza.kalfane/Workspaces/Daisy/DaisyExamples/libDaisy/Drivers/CMSIS/Include/core_cm7.h ****  */
1836:/Users/reza.kalfane/Workspaces/Daisy/DaisyExamples/libDaisy/Drivers/CMSIS/Include/core_cm7.h **** __STATIC_INLINE void __NVIC_SetPriorityGrouping(uint32_t PriorityGroup)
1837:/Users/reza.kalfane/Workspaces/Daisy/DaisyExamples/libDaisy/Drivers/CMSIS/Include/core_cm7.h **** {
1838:/Users/reza.kalfane/Workspaces/Daisy/DaisyExamples/libDaisy/Drivers/CMSIS/Include/core_cm7.h ****   uint32_t reg_value;
1839:/Users/reza.kalfane/Workspaces/Daisy/DaisyExamples/libDaisy/Drivers/CMSIS/Include/core_cm7.h ****   uint32_t PriorityGroupTmp = (PriorityGroup & (uint32_t)0x07UL);             /* only values 0..7 a
1840:/Users/reza.kalfane/Workspaces/Daisy/DaisyExamples/libDaisy/Drivers/CMSIS/Include/core_cm7.h **** 
1841:/Users/reza.kalfane/Workspaces/Daisy/DaisyExamples/libDaisy/Drivers/CMSIS/Include/core_cm7.h ****   reg_value  =  SCB->AIRCR;                                                   /* read old register 
ARM GAS  /tmp/claude-502/ccFotbfS.s 			page 95


1842:/Users/reza.kalfane/Workspaces/Daisy/DaisyExamples/libDaisy/Drivers/CMSIS/Include/core_cm7.h ****   reg_value &= ~((uint32_t)(SCB_AIRCR_VECTKEY_Msk | SCB_AIRCR_PRIGROUP_Msk)); /* clear bits to chan
1843:/Users/reza.kalfane/Workspaces/Daisy/DaisyExamples/libDaisy/Drivers/CMSIS/Include/core_cm7.h ****   reg_value  =  (reg_value                                   |
1844:/Users/reza.kalfane/Workspaces/Daisy/DaisyExamples/libDaisy/Drivers/CMSIS/Include/core_cm7.h ****                 ((uint32_t)0x5FAUL << SCB_AIRCR_VECTKEY_Pos) |
1845:/Users/reza.kalfane/Workspaces/Daisy/DaisyExamples/libDaisy/Drivers/CMSIS/Include/core_cm7.h ****                 (PriorityGroupTmp << 8U)                      );              /* Insert write key a
1846:/Users/reza.kalfane/Workspaces/Daisy/DaisyExamples/libDaisy/Drivers/CMSIS/Include/core_cm7.h ****   SCB->AIRCR =  reg_value;
1847:/Users/reza.kalfane/Workspaces/Daisy/DaisyExamples/libDaisy/Drivers/CMSIS/Include/core_cm7.h **** }
1848:/Users/reza.kalfane/Workspaces/Daisy/DaisyExamples/libDaisy/Drivers/CMSIS/Include/core_cm7.h **** 
1849:/Users/reza.kalfane/Workspaces/Daisy/DaisyExamples/libDaisy/Drivers/CMSIS/Include/core_cm7.h **** 
1850:/Users/reza.kalfane/Workspaces/Daisy/DaisyExamples/libDaisy/Drivers/CMSIS/Include/core_cm7.h **** /**
1851:/Users/reza.kalfane/Workspaces/Daisy/DaisyExamples/libDaisy/Drivers/CMSIS/Include/core_cm7.h ****   \brief   Get Priority Grouping
1852:/Users/reza.kalfane/Workspaces/Daisy/DaisyExamples/libDaisy/Drivers/CMSIS/Include/core_cm7.h ****   \details Reads the priority grouping field from the NVIC Interrupt Controller.
1853:/Users/reza.kalfane/Workspaces/Daisy/DaisyExamples/libDaisy/Drivers/CMSIS/Include/core_cm7.h ****   \return                Priority grouping field (SCB->AIRCR [10:8] PRIGROUP field).
1854:/Users/reza.kalfane/Workspaces/Daisy/DaisyExamples/libDaisy/Drivers/CMSIS/Include/core_cm7.h ****  */
1855:/Users/reza.kalfane/Workspaces/Daisy/DaisyExamples/libDaisy/Drivers/CMSIS/Include/core_cm7.h **** __STATIC_INLINE uint32_t __NVIC_GetPriorityGrouping(void)
1856:/Users/reza.kalfane/Workspaces/Daisy/DaisyExamples/libDaisy/Drivers/CMSIS/Include/core_cm7.h **** {
1857:/Users/reza.kalfane/Workspaces/Daisy/DaisyExamples/libDaisy/Drivers/CMSIS/Include/core_cm7.h ****   return ((uint32_t)((SCB->AIRCR & SCB_AIRCR_PRIGROUP_Msk) >> SCB_AIRCR_PRIGROUP_Pos));
1858:/Users/reza.kalfane/Workspaces/Daisy/DaisyExamples/libDaisy/Drivers/CMSIS/Include/core_cm7.h **** }
1859:/Users/reza.kalfane/Workspaces/Daisy/DaisyExamples/libDaisy/Drivers/CMSIS/Include/core_cm7.h **** 
1860:/Users/reza.kalfane/Workspaces/Daisy/DaisyExamples/libDaisy/Drivers/CMSIS/Include/core_cm7.h **** 
1861:/Users/reza.kalfane/Workspaces/Daisy/DaisyExamples/libDaisy/Drivers/CMSIS/Include/core_cm7.h **** /**
1862:/Users/reza.kalfane/Workspaces/Daisy/DaisyExamples/libDaisy/Drivers/CMSIS/Include/core_cm7.h ****   \brief   Enable Interrupt
1863:/Users/reza.kalfane/Workspaces/Daisy/DaisyExamples/libDaisy/Drivers/CMSIS/Include/core_cm7.h ****   \details Enables a device specific interrupt in the NVIC interrupt controller.
1864:/Users/reza.kalfane/Workspaces/Daisy/DaisyExamples/libDaisy/Drivers/CMSIS/Include/core_cm7.h ****   \param [in]      IRQn  Device specific interrupt number.
1865:/Users/reza.kalfane/Workspaces/Daisy/DaisyExamples/libDaisy/Drivers/CMSIS/Include/core_cm7.h ****   \note    IRQn must not be negative.
1866:/Users/reza.kalfane/Workspaces/Daisy/DaisyExamples/libDaisy/Drivers/CMSIS/Include/core_cm7.h ****  */
1867:/Users/reza.kalfane/Workspaces/Daisy/DaisyExamples/libDaisy/Drivers/CMSIS/Include/core_cm7.h **** __STATIC_INLINE void __NVIC_EnableIRQ(IRQn_Type IRQn)
 1587              		.loc 5 1867 22 is_stmt 1 view .LVU514
 1588              	.LBB321:
1868:/Users/reza.kalfane/Workspaces/Daisy/DaisyExamples/libDaisy/Drivers/CMSIS/Include/core_cm7.h **** {
1869:/Users/reza.kalfane/Workspaces/Daisy/DaisyExamples/libDaisy/Drivers/CMSIS/Include/core_cm7.h ****   if ((int32_t)(IRQn) >= 0)
 1589              		.loc 5 1869 3 view .LVU515
 1590              		.loc 5 1869 6 is_stmt 0 view .LVU516
 1591 000a 002B     		cmp	r3, #0
 1592 000c 08DB     		blt	.L132
1870:/Users/reza.kalfane/Workspaces/Daisy/DaisyExamples/libDaisy/Drivers/CMSIS/Include/core_cm7.h ****   {
1871:/Users/reza.kalfane/Workspaces/Daisy/DaisyExamples/libDaisy/Drivers/CMSIS/Include/core_cm7.h ****     NVIC->ISER[(((uint32_t)(int32_t)IRQn) >> 5UL)] = (uint32_t)(1UL << (((uint32_t)(int32_t)IRQn) &
 1593              		.loc 5 1871 5 is_stmt 1 view .LVU517
 1594              		.loc 5 1871 99 is_stmt 0 view .LVU518
 1595 000e 02F01F02 		and	r2, r2, #31
 1596              		.loc 5 1871 54 view .LVU519
 1597 0012 0121     		movs	r1, #1
 1598              		.loc 5 1871 43 view .LVU520
 1599 0014 5B09     		lsrs	r3, r3, #5
 1600              	.LVL110:
 1601              		.loc 5 1871 52 view .LVU521
 1602 0016 0448     		ldr	r0, .L134+4
 1603              	.LVL111:
 1604              		.loc 5 1871 54 view .LVU522
 1605 0018 01FA02F2 		lsl	r2, r1, r2
 1606              		.loc 5 1871 52 view .LVU523
 1607 001c 40F82320 		str	r2, [r0, r3, lsl #2]
 1608              	.LVL112:
 1609              	.L132:
 1610              		.loc 5 1871 52 view .LVU524
 1611              	.LBE321:
 1612              	.LBE320:
 1613              	.LBE319:
ARM GAS  /tmp/claude-502/ccFotbfS.s 			page 96


 1614              	.LBE318:
 635:lib/tinyusb/src/portable/synopsys/dwc2/dcd_dwc2.c **** 
 1615              		.loc 1 635 1 view .LVU525
 1616 0020 7047     		bx	lr
 1617              	.L135:
 1618 0022 00BF     		.align	2
 1619              	.L134:
 1620 0024 00000000 		.word	.LANCHOR0
 1621 0028 00E100E0 		.word	-536813312
 1622              		.cfi_endproc
 1623              	.LFE404:
 1625              		.section	.text.dcd_int_disable,"ax",%progbits
 1626              		.align	1
 1627              		.p2align 2,,3
 1628              		.global	dcd_int_disable
 1629              		.syntax unified
 1630              		.thumb
 1631              		.thumb_func
 1633              	dcd_int_disable:
 1634              	.LVL113:
 1635              	.LFB405:
 637:lib/tinyusb/src/portable/synopsys/dwc2/dcd_dwc2.c ****   dwc2_dcd_int_disable(rhport);
 1636              		.loc 1 637 38 is_stmt 1 view -0
 1637              		.cfi_startproc
 1638              		@ args = 0, pretend = 0, frame = 0
 1639              		@ frame_needed = 0, uses_anonymous_args = 0
 1640              		@ link register save eliminated.
 638:lib/tinyusb/src/portable/synopsys/dwc2/dcd_dwc2.c **** }
 1641              		.loc 1 638 3 view .LVU527
 1642              	.LBB330:
 1643              	.LBI330:
 131:lib/tinyusb/src/portable/synopsys/dwc2/dwc2_stm32.h ****   NVIC_DisableIRQ((IRQn_Type) _dwc2_controller[rhport].irqnum);
 1644              		.loc 4 131 42 view .LVU528
 1645              	.LBB331:
 132:lib/tinyusb/src/portable/synopsys/dwc2/dwc2_stm32.h **** }
 1646              		.loc 4 132 3 view .LVU529
 132:lib/tinyusb/src/portable/synopsys/dwc2/dwc2_stm32.h **** }
 1647              		.loc 4 132 55 is_stmt 0 view .LVU530
 1648 0000 0A4B     		ldr	r3, .L138
 1649 0002 03EB0010 		add	r0, r3, r0, lsl #4
 1650              	.LVL114:
 132:lib/tinyusb/src/portable/synopsys/dwc2/dwc2_stm32.h **** }
 1651              		.loc 4 132 55 view .LVU531
 1652 0006 4268     		ldr	r2, [r0, #4]
 132:lib/tinyusb/src/portable/synopsys/dwc2/dwc2_stm32.h **** }
 1653              		.loc 4 132 3 view .LVU532
 1654 0008 13B2     		sxth	r3, r2
 1655              	.LVL115:
 1656              	.LBB332:
 1657              	.LBI332:
1872:/Users/reza.kalfane/Workspaces/Daisy/DaisyExamples/libDaisy/Drivers/CMSIS/Include/core_cm7.h ****   }
1873:/Users/reza.kalfane/Workspaces/Daisy/DaisyExamples/libDaisy/Drivers/CMSIS/Include/core_cm7.h **** }
1874:/Users/reza.kalfane/Workspaces/Daisy/DaisyExamples/libDaisy/Drivers/CMSIS/Include/core_cm7.h **** 
1875:/Users/reza.kalfane/Workspaces/Daisy/DaisyExamples/libDaisy/Drivers/CMSIS/Include/core_cm7.h **** 
1876:/Users/reza.kalfane/Workspaces/Daisy/DaisyExamples/libDaisy/Drivers/CMSIS/Include/core_cm7.h **** /**
1877:/Users/reza.kalfane/Workspaces/Daisy/DaisyExamples/libDaisy/Drivers/CMSIS/Include/core_cm7.h ****   \brief   Get Interrupt Enable status
1878:/Users/reza.kalfane/Workspaces/Daisy/DaisyExamples/libDaisy/Drivers/CMSIS/Include/core_cm7.h ****   \details Returns a device specific interrupt enable status from the NVIC interrupt controller.
ARM GAS  /tmp/claude-502/ccFotbfS.s 			page 97


1879:/Users/reza.kalfane/Workspaces/Daisy/DaisyExamples/libDaisy/Drivers/CMSIS/Include/core_cm7.h ****   \param [in]      IRQn  Device specific interrupt number.
1880:/Users/reza.kalfane/Workspaces/Daisy/DaisyExamples/libDaisy/Drivers/CMSIS/Include/core_cm7.h ****   \return             0  Interrupt is not enabled.
1881:/Users/reza.kalfane/Workspaces/Daisy/DaisyExamples/libDaisy/Drivers/CMSIS/Include/core_cm7.h ****   \return             1  Interrupt is enabled.
1882:/Users/reza.kalfane/Workspaces/Daisy/DaisyExamples/libDaisy/Drivers/CMSIS/Include/core_cm7.h ****   \note    IRQn must not be negative.
1883:/Users/reza.kalfane/Workspaces/Daisy/DaisyExamples/libDaisy/Drivers/CMSIS/Include/core_cm7.h ****  */
1884:/Users/reza.kalfane/Workspaces/Daisy/DaisyExamples/libDaisy/Drivers/CMSIS/Include/core_cm7.h **** __STATIC_INLINE uint32_t __NVIC_GetEnableIRQ(IRQn_Type IRQn)
1885:/Users/reza.kalfane/Workspaces/Daisy/DaisyExamples/libDaisy/Drivers/CMSIS/Include/core_cm7.h **** {
1886:/Users/reza.kalfane/Workspaces/Daisy/DaisyExamples/libDaisy/Drivers/CMSIS/Include/core_cm7.h ****   if ((int32_t)(IRQn) >= 0)
1887:/Users/reza.kalfane/Workspaces/Daisy/DaisyExamples/libDaisy/Drivers/CMSIS/Include/core_cm7.h ****   {
1888:/Users/reza.kalfane/Workspaces/Daisy/DaisyExamples/libDaisy/Drivers/CMSIS/Include/core_cm7.h ****     return((uint32_t)(((NVIC->ISER[(((uint32_t)(int32_t)IRQn) >> 5UL)] & (1UL << (((uint32_t)(int32
1889:/Users/reza.kalfane/Workspaces/Daisy/DaisyExamples/libDaisy/Drivers/CMSIS/Include/core_cm7.h ****   }
1890:/Users/reza.kalfane/Workspaces/Daisy/DaisyExamples/libDaisy/Drivers/CMSIS/Include/core_cm7.h ****   else
1891:/Users/reza.kalfane/Workspaces/Daisy/DaisyExamples/libDaisy/Drivers/CMSIS/Include/core_cm7.h ****   {
1892:/Users/reza.kalfane/Workspaces/Daisy/DaisyExamples/libDaisy/Drivers/CMSIS/Include/core_cm7.h ****     return(0U);
1893:/Users/reza.kalfane/Workspaces/Daisy/DaisyExamples/libDaisy/Drivers/CMSIS/Include/core_cm7.h ****   }
1894:/Users/reza.kalfane/Workspaces/Daisy/DaisyExamples/libDaisy/Drivers/CMSIS/Include/core_cm7.h **** }
1895:/Users/reza.kalfane/Workspaces/Daisy/DaisyExamples/libDaisy/Drivers/CMSIS/Include/core_cm7.h **** 
1896:/Users/reza.kalfane/Workspaces/Daisy/DaisyExamples/libDaisy/Drivers/CMSIS/Include/core_cm7.h **** 
1897:/Users/reza.kalfane/Workspaces/Daisy/DaisyExamples/libDaisy/Drivers/CMSIS/Include/core_cm7.h **** /**
1898:/Users/reza.kalfane/Workspaces/Daisy/DaisyExamples/libDaisy/Drivers/CMSIS/Include/core_cm7.h ****   \brief   Disable Interrupt
1899:/Users/reza.kalfane/Workspaces/Daisy/DaisyExamples/libDaisy/Drivers/CMSIS/Include/core_cm7.h ****   \details Disables a device specific interrupt in the NVIC interrupt controller.
1900:/Users/reza.kalfane/Workspaces/Daisy/DaisyExamples/libDaisy/Drivers/CMSIS/Include/core_cm7.h ****   \param [in]      IRQn  Device specific interrupt number.
1901:/Users/reza.kalfane/Workspaces/Daisy/DaisyExamples/libDaisy/Drivers/CMSIS/Include/core_cm7.h ****   \note    IRQn must not be negative.
1902:/Users/reza.kalfane/Workspaces/Daisy/DaisyExamples/libDaisy/Drivers/CMSIS/Include/core_cm7.h ****  */
1903:/Users/reza.kalfane/Workspaces/Daisy/DaisyExamples/libDaisy/Drivers/CMSIS/Include/core_cm7.h **** __STATIC_INLINE void __NVIC_DisableIRQ(IRQn_Type IRQn)
 1658              		.loc 5 1903 22 is_stmt 1 view .LVU533
 1659              	.LBB333:
1904:/Users/reza.kalfane/Workspaces/Daisy/DaisyExamples/libDaisy/Drivers/CMSIS/Include/core_cm7.h **** {
1905:/Users/reza.kalfane/Workspaces/Daisy/DaisyExamples/libDaisy/Drivers/CMSIS/Include/core_cm7.h ****   if ((int32_t)(IRQn) >= 0)
 1660              		.loc 5 1905 3 view .LVU534
 1661              		.loc 5 1905 6 is_stmt 0 view .LVU535
 1662 000a 002B     		cmp	r3, #0
 1663 000c 0DDB     		blt	.L136
1906:/Users/reza.kalfane/Workspaces/Daisy/DaisyExamples/libDaisy/Drivers/CMSIS/Include/core_cm7.h ****   {
1907:/Users/reza.kalfane/Workspaces/Daisy/DaisyExamples/libDaisy/Drivers/CMSIS/Include/core_cm7.h ****     NVIC->ICER[(((uint32_t)(int32_t)IRQn) >> 5UL)] = (uint32_t)(1UL << (((uint32_t)(int32_t)IRQn) &
 1664              		.loc 5 1907 5 is_stmt 1 view .LVU536
 1665              		.loc 5 1907 54 is_stmt 0 view .LVU537
 1666 000e 0121     		movs	r1, #1
 1667              		.loc 5 1907 43 view .LVU538
 1668 0010 5B09     		lsrs	r3, r3, #5
 1669              	.LVL116:
 1670              		.loc 5 1907 99 view .LVU539
 1671 0012 02F01F02 		and	r2, r2, #31
 1672              	.LVL117:
 1673              		.loc 5 1907 52 view .LVU540
 1674 0016 0648     		ldr	r0, .L138+4
 1675              	.LVL118:
 1676              		.loc 5 1907 52 view .LVU541
 1677 0018 2033     		adds	r3, r3, #32
 1678              		.loc 5 1907 54 view .LVU542
 1679 001a 01FA02F2 		lsl	r2, r1, r2
 1680              		.loc 5 1907 52 view .LVU543
 1681 001e 40F82320 		str	r2, [r0, r3, lsl #2]
1908:/Users/reza.kalfane/Workspaces/Daisy/DaisyExamples/libDaisy/Drivers/CMSIS/Include/core_cm7.h ****     __DSB();
 1682              		.loc 5 1908 5 is_stmt 1 view .LVU544
 1683              	.LBB334:
 1684              	.LBI334:
ARM GAS  /tmp/claude-502/ccFotbfS.s 			page 98


 1685              		.file 6 "/Users/reza.kalfane/Workspaces/Daisy/DaisyExamples/libDaisy/Drivers/CMSIS/Include/cmsis_g
   1:/Users/reza.kalfane/Workspaces/Daisy/DaisyExamples/libDaisy/Drivers/CMSIS/Include/cmsis_gcc.h **** /**************************************************************************//**
   2:/Users/reza.kalfane/Workspaces/Daisy/DaisyExamples/libDaisy/Drivers/CMSIS/Include/cmsis_gcc.h ****  * @file     cmsis_gcc.h
   3:/Users/reza.kalfane/Workspaces/Daisy/DaisyExamples/libDaisy/Drivers/CMSIS/Include/cmsis_gcc.h ****  * @brief    CMSIS compiler GCC header file
   4:/Users/reza.kalfane/Workspaces/Daisy/DaisyExamples/libDaisy/Drivers/CMSIS/Include/cmsis_gcc.h ****  * @version  V5.0.1
   5:/Users/reza.kalfane/Workspaces/Daisy/DaisyExamples/libDaisy/Drivers/CMSIS/Include/cmsis_gcc.h ****  * @date     02. February 2017
   6:/Users/reza.kalfane/Workspaces/Daisy/DaisyExamples/libDaisy/Drivers/CMSIS/Include/cmsis_gcc.h ****  ******************************************************************************/
   7:/Users/reza.kalfane/Workspaces/Daisy/DaisyExamples/libDaisy/Drivers/CMSIS/Include/cmsis_gcc.h **** /*
   8:/Users/reza.kalfane/Workspaces/Daisy/DaisyExamples/libDaisy/Drivers/CMSIS/Include/cmsis_gcc.h ****  * Copyright (c) 2009-2017 ARM Limited. All rights reserved.
   9:/Users/reza.kalfane/Workspaces/Daisy/DaisyExamples/libDaisy/Drivers/CMSIS/Include/cmsis_gcc.h ****  *
  10:/Users/reza.kalfane/Workspaces/Daisy/DaisyExamples/libDaisy/Drivers/CMSIS/Include/cmsis_gcc.h ****  * SPDX-License-Identifier: Apache-2.0
  11:/Users/reza.kalfane/Workspaces/Daisy/DaisyExamples/libDaisy/Drivers/CMSIS/Include/cmsis_gcc.h ****  *
  12:/Users/reza.kalfane/Workspaces/Daisy/DaisyExamples/libDaisy/Drivers/CMSIS/Include/cmsis_gcc.h ****  * Licensed under the Apache License, Version 2.0 (the License); you may
  13:/Users/reza.kalfane/Workspaces/Daisy/DaisyExamples/libDaisy/Drivers/CMSIS/Include/cmsis_gcc.h ****  * not use this file except in compliance with the License.
  14:/Users/reza.kalfane/Workspaces/Daisy/DaisyExamples/libDaisy/Drivers/CMSIS/Include/cmsis_gcc.h ****  * You may obtain a copy of the License at
  15:/Users/reza.kalfane/Workspaces/Daisy/DaisyExamples/libDaisy/Drivers/CMSIS/Include/cmsis_gcc.h ****  *
  16:/Users/reza.kalfane/Workspaces/Daisy/DaisyExamples/libDaisy/Drivers/CMSIS/Include/cmsis_gcc.h ****  * www.apache.org/licenses/LICENSE-2.0
  17:/Users/reza.kalfane/Workspaces/Daisy/DaisyExamples/libDaisy/Drivers/CMSIS/Include/cmsis_gcc.h ****  *
  18:/Users/reza.kalfane/Workspaces/Daisy/DaisyExamples/libDaisy/Drivers/CMSIS/Include/cmsis_gcc.h ****  * Unless required by applicable law or agreed to in writing, software
  19:/Users/reza.kalfane/Workspaces/Daisy/DaisyExamples/libDaisy/Drivers/CMSIS/Include/cmsis_gcc.h ****  * distributed under the License is distributed on an AS IS BASIS, WITHOUT
  20:/Users/reza.kalfane/Workspaces/Daisy/DaisyExamples/libDaisy/Drivers/CMSIS/Include/cmsis_gcc.h ****  * WARRANTIES OR CONDITIONS OF ANY KIND, either express or implied.
  21:/Users/reza.kalfane/Workspaces/Daisy/DaisyExamples/libDaisy/Drivers/CMSIS/Include/cmsis_gcc.h ****  * See the License for the specific language governing permissions and
  22:/Users/reza.kalfane/Workspaces/Daisy/DaisyExamples/libDaisy/Drivers/CMSIS/Include/cmsis_gcc.h ****  * limitations under the License.
  23:/Users/reza.kalfane/Workspaces/Daisy/DaisyExamples/libDaisy/Drivers/CMSIS/Include/cmsis_gcc.h ****  */
  24:/Users/reza.kalfane/Workspaces/Daisy/DaisyExamples/libDaisy/Drivers/CMSIS/Include/cmsis_gcc.h **** 
  25:/Users/reza.kalfane/Workspaces/Daisy/DaisyExamples/libDaisy/Drivers/CMSIS/Include/cmsis_gcc.h **** #ifndef __CMSIS_GCC_H
  26:/Users/reza.kalfane/Workspaces/Daisy/DaisyExamples/libDaisy/Drivers/CMSIS/Include/cmsis_gcc.h **** #define __CMSIS_GCC_H
  27:/Users/reza.kalfane/Workspaces/Daisy/DaisyExamples/libDaisy/Drivers/CMSIS/Include/cmsis_gcc.h **** 
  28:/Users/reza.kalfane/Workspaces/Daisy/DaisyExamples/libDaisy/Drivers/CMSIS/Include/cmsis_gcc.h **** /* ignore some GCC warnings */
  29:/Users/reza.kalfane/Workspaces/Daisy/DaisyExamples/libDaisy/Drivers/CMSIS/Include/cmsis_gcc.h **** #pragma GCC diagnostic push
  30:/Users/reza.kalfane/Workspaces/Daisy/DaisyExamples/libDaisy/Drivers/CMSIS/Include/cmsis_gcc.h **** #pragma GCC diagnostic ignored "-Wsign-conversion"
  31:/Users/reza.kalfane/Workspaces/Daisy/DaisyExamples/libDaisy/Drivers/CMSIS/Include/cmsis_gcc.h **** #pragma GCC diagnostic ignored "-Wconversion"
  32:/Users/reza.kalfane/Workspaces/Daisy/DaisyExamples/libDaisy/Drivers/CMSIS/Include/cmsis_gcc.h **** #pragma GCC diagnostic ignored "-Wunused-parameter"
  33:/Users/reza.kalfane/Workspaces/Daisy/DaisyExamples/libDaisy/Drivers/CMSIS/Include/cmsis_gcc.h **** 
  34:/Users/reza.kalfane/Workspaces/Daisy/DaisyExamples/libDaisy/Drivers/CMSIS/Include/cmsis_gcc.h **** /* CMSIS compiler specific defines */
  35:/Users/reza.kalfane/Workspaces/Daisy/DaisyExamples/libDaisy/Drivers/CMSIS/Include/cmsis_gcc.h **** #ifndef   __ASM
  36:/Users/reza.kalfane/Workspaces/Daisy/DaisyExamples/libDaisy/Drivers/CMSIS/Include/cmsis_gcc.h ****   #define __ASM                     __asm
  37:/Users/reza.kalfane/Workspaces/Daisy/DaisyExamples/libDaisy/Drivers/CMSIS/Include/cmsis_gcc.h **** #endif
  38:/Users/reza.kalfane/Workspaces/Daisy/DaisyExamples/libDaisy/Drivers/CMSIS/Include/cmsis_gcc.h **** #ifndef   __INLINE
  39:/Users/reza.kalfane/Workspaces/Daisy/DaisyExamples/libDaisy/Drivers/CMSIS/Include/cmsis_gcc.h ****   #define __INLINE                  inline
  40:/Users/reza.kalfane/Workspaces/Daisy/DaisyExamples/libDaisy/Drivers/CMSIS/Include/cmsis_gcc.h **** #endif
  41:/Users/reza.kalfane/Workspaces/Daisy/DaisyExamples/libDaisy/Drivers/CMSIS/Include/cmsis_gcc.h **** #ifndef   __STATIC_INLINE
  42:/Users/reza.kalfane/Workspaces/Daisy/DaisyExamples/libDaisy/Drivers/CMSIS/Include/cmsis_gcc.h ****   #define __STATIC_INLINE           static inline
  43:/Users/reza.kalfane/Workspaces/Daisy/DaisyExamples/libDaisy/Drivers/CMSIS/Include/cmsis_gcc.h **** #endif
  44:/Users/reza.kalfane/Workspaces/Daisy/DaisyExamples/libDaisy/Drivers/CMSIS/Include/cmsis_gcc.h **** #ifndef   __NO_RETURN
  45:/Users/reza.kalfane/Workspaces/Daisy/DaisyExamples/libDaisy/Drivers/CMSIS/Include/cmsis_gcc.h ****   #define __NO_RETURN               __attribute__((noreturn))
  46:/Users/reza.kalfane/Workspaces/Daisy/DaisyExamples/libDaisy/Drivers/CMSIS/Include/cmsis_gcc.h **** #endif
  47:/Users/reza.kalfane/Workspaces/Daisy/DaisyExamples/libDaisy/Drivers/CMSIS/Include/cmsis_gcc.h **** #ifndef   __USED
  48:/Users/reza.kalfane/Workspaces/Daisy/DaisyExamples/libDaisy/Drivers/CMSIS/Include/cmsis_gcc.h ****   #define __USED                    __attribute__((used))
  49:/Users/reza.kalfane/Workspaces/Daisy/DaisyExamples/libDaisy/Drivers/CMSIS/Include/cmsis_gcc.h **** #endif
  50:/Users/reza.kalfane/Workspaces/Daisy/DaisyExamples/libDaisy/Drivers/CMSIS/Include/cmsis_gcc.h **** #ifndef   __WEAK
  51:/Users/reza.kalfane/Workspaces/Daisy/DaisyExamples/libDaisy/Drivers/CMSIS/Include/cmsis_gcc.h ****   #define __WEAK                    __attribute__((weak))
  52:/Users/reza.kalfane/Workspaces/Daisy/DaisyExamples/libDaisy/Drivers/CMSIS/Include/cmsis_gcc.h **** #endif
  53:/Users/reza.kalfane/Workspaces/Daisy/DaisyExamples/libDaisy/Drivers/CMSIS/Include/cmsis_gcc.h **** #ifndef   __UNALIGNED_UINT32
  54:/Users/reza.kalfane/Workspaces/Daisy/DaisyExamples/libDaisy/Drivers/CMSIS/Include/cmsis_gcc.h **** #pragma GCC diagnostic push
  55:/Users/reza.kalfane/Workspaces/Daisy/DaisyExamples/libDaisy/Drivers/CMSIS/Include/cmsis_gcc.h **** #pragma GCC diagnostic ignored "-Wpacked"
  56:/Users/reza.kalfane/Workspaces/Daisy/DaisyExamples/libDaisy/Drivers/CMSIS/Include/cmsis_gcc.h **** #pragma GCC diagnostic ignored "-Wattributes"
ARM GAS  /tmp/claude-502/ccFotbfS.s 			page 99


  57:/Users/reza.kalfane/Workspaces/Daisy/DaisyExamples/libDaisy/Drivers/CMSIS/Include/cmsis_gcc.h ****   struct __attribute__((packed)) T_UINT32 { uint32_t v; };
  58:/Users/reza.kalfane/Workspaces/Daisy/DaisyExamples/libDaisy/Drivers/CMSIS/Include/cmsis_gcc.h **** #pragma GCC diagnostic pop
  59:/Users/reza.kalfane/Workspaces/Daisy/DaisyExamples/libDaisy/Drivers/CMSIS/Include/cmsis_gcc.h ****   #define __UNALIGNED_UINT32(x)     (((struct T_UINT32 *)(x))->v)
  60:/Users/reza.kalfane/Workspaces/Daisy/DaisyExamples/libDaisy/Drivers/CMSIS/Include/cmsis_gcc.h **** #endif
  61:/Users/reza.kalfane/Workspaces/Daisy/DaisyExamples/libDaisy/Drivers/CMSIS/Include/cmsis_gcc.h **** #ifndef   __ALIGNED
  62:/Users/reza.kalfane/Workspaces/Daisy/DaisyExamples/libDaisy/Drivers/CMSIS/Include/cmsis_gcc.h ****   #define __ALIGNED(x)              __attribute__((aligned(x)))
  63:/Users/reza.kalfane/Workspaces/Daisy/DaisyExamples/libDaisy/Drivers/CMSIS/Include/cmsis_gcc.h **** #endif
  64:/Users/reza.kalfane/Workspaces/Daisy/DaisyExamples/libDaisy/Drivers/CMSIS/Include/cmsis_gcc.h **** #ifndef   __PACKED
  65:/Users/reza.kalfane/Workspaces/Daisy/DaisyExamples/libDaisy/Drivers/CMSIS/Include/cmsis_gcc.h ****   #define __PACKED                  __attribute__((packed, aligned(1)))
  66:/Users/reza.kalfane/Workspaces/Daisy/DaisyExamples/libDaisy/Drivers/CMSIS/Include/cmsis_gcc.h **** #endif
  67:/Users/reza.kalfane/Workspaces/Daisy/DaisyExamples/libDaisy/Drivers/CMSIS/Include/cmsis_gcc.h **** #ifndef   __PACKED_STRUCT
  68:/Users/reza.kalfane/Workspaces/Daisy/DaisyExamples/libDaisy/Drivers/CMSIS/Include/cmsis_gcc.h ****   #define __PACKED_STRUCT           struct __attribute__((packed, aligned(1)))
  69:/Users/reza.kalfane/Workspaces/Daisy/DaisyExamples/libDaisy/Drivers/CMSIS/Include/cmsis_gcc.h **** #endif
  70:/Users/reza.kalfane/Workspaces/Daisy/DaisyExamples/libDaisy/Drivers/CMSIS/Include/cmsis_gcc.h **** 
  71:/Users/reza.kalfane/Workspaces/Daisy/DaisyExamples/libDaisy/Drivers/CMSIS/Include/cmsis_gcc.h **** 
  72:/Users/reza.kalfane/Workspaces/Daisy/DaisyExamples/libDaisy/Drivers/CMSIS/Include/cmsis_gcc.h **** /* ###########################  Core Function Access  ########################### */
  73:/Users/reza.kalfane/Workspaces/Daisy/DaisyExamples/libDaisy/Drivers/CMSIS/Include/cmsis_gcc.h **** /** \ingroup  CMSIS_Core_FunctionInterface
  74:/Users/reza.kalfane/Workspaces/Daisy/DaisyExamples/libDaisy/Drivers/CMSIS/Include/cmsis_gcc.h ****     \defgroup CMSIS_Core_RegAccFunctions CMSIS Core Register Access Functions
  75:/Users/reza.kalfane/Workspaces/Daisy/DaisyExamples/libDaisy/Drivers/CMSIS/Include/cmsis_gcc.h ****   @{
  76:/Users/reza.kalfane/Workspaces/Daisy/DaisyExamples/libDaisy/Drivers/CMSIS/Include/cmsis_gcc.h ****  */
  77:/Users/reza.kalfane/Workspaces/Daisy/DaisyExamples/libDaisy/Drivers/CMSIS/Include/cmsis_gcc.h **** 
  78:/Users/reza.kalfane/Workspaces/Daisy/DaisyExamples/libDaisy/Drivers/CMSIS/Include/cmsis_gcc.h **** /**
  79:/Users/reza.kalfane/Workspaces/Daisy/DaisyExamples/libDaisy/Drivers/CMSIS/Include/cmsis_gcc.h ****   \brief   Enable IRQ Interrupts
  80:/Users/reza.kalfane/Workspaces/Daisy/DaisyExamples/libDaisy/Drivers/CMSIS/Include/cmsis_gcc.h ****   \details Enables IRQ interrupts by clearing the I-bit in the CPSR.
  81:/Users/reza.kalfane/Workspaces/Daisy/DaisyExamples/libDaisy/Drivers/CMSIS/Include/cmsis_gcc.h ****            Can only be executed in Privileged modes.
  82:/Users/reza.kalfane/Workspaces/Daisy/DaisyExamples/libDaisy/Drivers/CMSIS/Include/cmsis_gcc.h ****  */
  83:/Users/reza.kalfane/Workspaces/Daisy/DaisyExamples/libDaisy/Drivers/CMSIS/Include/cmsis_gcc.h **** __attribute__((always_inline)) __STATIC_INLINE void __enable_irq(void)
  84:/Users/reza.kalfane/Workspaces/Daisy/DaisyExamples/libDaisy/Drivers/CMSIS/Include/cmsis_gcc.h **** {
  85:/Users/reza.kalfane/Workspaces/Daisy/DaisyExamples/libDaisy/Drivers/CMSIS/Include/cmsis_gcc.h ****   __ASM volatile ("cpsie i" : : : "memory");
  86:/Users/reza.kalfane/Workspaces/Daisy/DaisyExamples/libDaisy/Drivers/CMSIS/Include/cmsis_gcc.h **** }
  87:/Users/reza.kalfane/Workspaces/Daisy/DaisyExamples/libDaisy/Drivers/CMSIS/Include/cmsis_gcc.h **** 
  88:/Users/reza.kalfane/Workspaces/Daisy/DaisyExamples/libDaisy/Drivers/CMSIS/Include/cmsis_gcc.h **** 
  89:/Users/reza.kalfane/Workspaces/Daisy/DaisyExamples/libDaisy/Drivers/CMSIS/Include/cmsis_gcc.h **** /**
  90:/Users/reza.kalfane/Workspaces/Daisy/DaisyExamples/libDaisy/Drivers/CMSIS/Include/cmsis_gcc.h ****   \brief   Disable IRQ Interrupts
  91:/Users/reza.kalfane/Workspaces/Daisy/DaisyExamples/libDaisy/Drivers/CMSIS/Include/cmsis_gcc.h ****   \details Disables IRQ interrupts by setting the I-bit in the CPSR.
  92:/Users/reza.kalfane/Workspaces/Daisy/DaisyExamples/libDaisy/Drivers/CMSIS/Include/cmsis_gcc.h ****            Can only be executed in Privileged modes.
  93:/Users/reza.kalfane/Workspaces/Daisy/DaisyExamples/libDaisy/Drivers/CMSIS/Include/cmsis_gcc.h ****  */
  94:/Users/reza.kalfane/Workspaces/Daisy/DaisyExamples/libDaisy/Drivers/CMSIS/Include/cmsis_gcc.h **** __attribute__((always_inline)) __STATIC_INLINE void __disable_irq(void)
  95:/Users/reza.kalfane/Workspaces/Daisy/DaisyExamples/libDaisy/Drivers/CMSIS/Include/cmsis_gcc.h **** {
  96:/Users/reza.kalfane/Workspaces/Daisy/DaisyExamples/libDaisy/Drivers/CMSIS/Include/cmsis_gcc.h ****   __ASM volatile ("cpsid i" : : : "memory");
  97:/Users/reza.kalfane/Workspaces/Daisy/DaisyExamples/libDaisy/Drivers/CMSIS/Include/cmsis_gcc.h **** }
  98:/Users/reza.kalfane/Workspaces/Daisy/DaisyExamples/libDaisy/Drivers/CMSIS/Include/cmsis_gcc.h **** 
  99:/Users/reza.kalfane/Workspaces/Daisy/DaisyExamples/libDaisy/Drivers/CMSIS/Include/cmsis_gcc.h **** 
 100:/Users/reza.kalfane/Workspaces/Daisy/DaisyExamples/libDaisy/Drivers/CMSIS/Include/cmsis_gcc.h **** /**
 101:/Users/reza.kalfane/Workspaces/Daisy/DaisyExamples/libDaisy/Drivers/CMSIS/Include/cmsis_gcc.h ****   \brief   Get Control Register
 102:/Users/reza.kalfane/Workspaces/Daisy/DaisyExamples/libDaisy/Drivers/CMSIS/Include/cmsis_gcc.h ****   \details Returns the content of the Control Register.
 103:/Users/reza.kalfane/Workspaces/Daisy/DaisyExamples/libDaisy/Drivers/CMSIS/Include/cmsis_gcc.h ****   \return               Control Register value
 104:/Users/reza.kalfane/Workspaces/Daisy/DaisyExamples/libDaisy/Drivers/CMSIS/Include/cmsis_gcc.h ****  */
 105:/Users/reza.kalfane/Workspaces/Daisy/DaisyExamples/libDaisy/Drivers/CMSIS/Include/cmsis_gcc.h **** __attribute__((always_inline)) __STATIC_INLINE uint32_t __get_CONTROL(void)
 106:/Users/reza.kalfane/Workspaces/Daisy/DaisyExamples/libDaisy/Drivers/CMSIS/Include/cmsis_gcc.h **** {
 107:/Users/reza.kalfane/Workspaces/Daisy/DaisyExamples/libDaisy/Drivers/CMSIS/Include/cmsis_gcc.h ****   uint32_t result;
 108:/Users/reza.kalfane/Workspaces/Daisy/DaisyExamples/libDaisy/Drivers/CMSIS/Include/cmsis_gcc.h **** 
 109:/Users/reza.kalfane/Workspaces/Daisy/DaisyExamples/libDaisy/Drivers/CMSIS/Include/cmsis_gcc.h ****   __ASM volatile ("MRS %0, control" : "=r" (result) );
 110:/Users/reza.kalfane/Workspaces/Daisy/DaisyExamples/libDaisy/Drivers/CMSIS/Include/cmsis_gcc.h ****   return(result);
 111:/Users/reza.kalfane/Workspaces/Daisy/DaisyExamples/libDaisy/Drivers/CMSIS/Include/cmsis_gcc.h **** }
 112:/Users/reza.kalfane/Workspaces/Daisy/DaisyExamples/libDaisy/Drivers/CMSIS/Include/cmsis_gcc.h **** 
 113:/Users/reza.kalfane/Workspaces/Daisy/DaisyExamples/libDaisy/Drivers/CMSIS/Include/cmsis_gcc.h **** 
ARM GAS  /tmp/claude-502/ccFotbfS.s 			page 100


 114:/Users/reza.kalfane/Workspaces/Daisy/DaisyExamples/libDaisy/Drivers/CMSIS/Include/cmsis_gcc.h **** #if (defined (__ARM_FEATURE_CMSE ) && (__ARM_FEATURE_CMSE == 3))
 115:/Users/reza.kalfane/Workspaces/Daisy/DaisyExamples/libDaisy/Drivers/CMSIS/Include/cmsis_gcc.h **** /**
 116:/Users/reza.kalfane/Workspaces/Daisy/DaisyExamples/libDaisy/Drivers/CMSIS/Include/cmsis_gcc.h ****   \brief   Get Control Register (non-secure)
 117:/Users/reza.kalfane/Workspaces/Daisy/DaisyExamples/libDaisy/Drivers/CMSIS/Include/cmsis_gcc.h ****   \details Returns the content of the non-secure Control Register when in secure mode.
 118:/Users/reza.kalfane/Workspaces/Daisy/DaisyExamples/libDaisy/Drivers/CMSIS/Include/cmsis_gcc.h ****   \return               non-secure Control Register value
 119:/Users/reza.kalfane/Workspaces/Daisy/DaisyExamples/libDaisy/Drivers/CMSIS/Include/cmsis_gcc.h ****  */
 120:/Users/reza.kalfane/Workspaces/Daisy/DaisyExamples/libDaisy/Drivers/CMSIS/Include/cmsis_gcc.h **** __attribute__((always_inline)) __STATIC_INLINE uint32_t __TZ_get_CONTROL_NS(void)
 121:/Users/reza.kalfane/Workspaces/Daisy/DaisyExamples/libDaisy/Drivers/CMSIS/Include/cmsis_gcc.h **** {
 122:/Users/reza.kalfane/Workspaces/Daisy/DaisyExamples/libDaisy/Drivers/CMSIS/Include/cmsis_gcc.h ****   uint32_t result;
 123:/Users/reza.kalfane/Workspaces/Daisy/DaisyExamples/libDaisy/Drivers/CMSIS/Include/cmsis_gcc.h **** 
 124:/Users/reza.kalfane/Workspaces/Daisy/DaisyExamples/libDaisy/Drivers/CMSIS/Include/cmsis_gcc.h ****   __ASM volatile ("MRS %0, control_ns" : "=r" (result) );
 125:/Users/reza.kalfane/Workspaces/Daisy/DaisyExamples/libDaisy/Drivers/CMSIS/Include/cmsis_gcc.h ****   return(result);
 126:/Users/reza.kalfane/Workspaces/Daisy/DaisyExamples/libDaisy/Drivers/CMSIS/Include/cmsis_gcc.h **** }
 127:/Users/reza.kalfane/Workspaces/Daisy/DaisyExamples/libDaisy/Drivers/CMSIS/Include/cmsis_gcc.h **** #endif
 128:/Users/reza.kalfane/Workspaces/Daisy/DaisyExamples/libDaisy/Drivers/CMSIS/Include/cmsis_gcc.h **** 
 129:/Users/reza.kalfane/Workspaces/Daisy/DaisyExamples/libDaisy/Drivers/CMSIS/Include/cmsis_gcc.h **** 
 130:/Users/reza.kalfane/Workspaces/Daisy/DaisyExamples/libDaisy/Drivers/CMSIS/Include/cmsis_gcc.h **** /**
 131:/Users/reza.kalfane/Workspaces/Daisy/DaisyExamples/libDaisy/Drivers/CMSIS/Include/cmsis_gcc.h ****   \brief   Set Control Register
 132:/Users/reza.kalfane/Workspaces/Daisy/DaisyExamples/libDaisy/Drivers/CMSIS/Include/cmsis_gcc.h ****   \details Writes the given value to the Control Register.
 133:/Users/reza.kalfane/Workspaces/Daisy/DaisyExamples/libDaisy/Drivers/CMSIS/Include/cmsis_gcc.h ****   \param [in]    control  Control Register value to set
 134:/Users/reza.kalfane/Workspaces/Daisy/DaisyExamples/libDaisy/Drivers/CMSIS/Include/cmsis_gcc.h ****  */
 135:/Users/reza.kalfane/Workspaces/Daisy/DaisyExamples/libDaisy/Drivers/CMSIS/Include/cmsis_gcc.h **** __attribute__((always_inline)) __STATIC_INLINE void __set_CONTROL(uint32_t control)
 136:/Users/reza.kalfane/Workspaces/Daisy/DaisyExamples/libDaisy/Drivers/CMSIS/Include/cmsis_gcc.h **** {
 137:/Users/reza.kalfane/Workspaces/Daisy/DaisyExamples/libDaisy/Drivers/CMSIS/Include/cmsis_gcc.h ****   __ASM volatile ("MSR control, %0" : : "r" (control) : "memory");
 138:/Users/reza.kalfane/Workspaces/Daisy/DaisyExamples/libDaisy/Drivers/CMSIS/Include/cmsis_gcc.h **** }
 139:/Users/reza.kalfane/Workspaces/Daisy/DaisyExamples/libDaisy/Drivers/CMSIS/Include/cmsis_gcc.h **** 
 140:/Users/reza.kalfane/Workspaces/Daisy/DaisyExamples/libDaisy/Drivers/CMSIS/Include/cmsis_gcc.h **** 
 141:/Users/reza.kalfane/Workspaces/Daisy/DaisyExamples/libDaisy/Drivers/CMSIS/Include/cmsis_gcc.h **** #if (defined (__ARM_FEATURE_CMSE ) && (__ARM_FEATURE_CMSE == 3))
 142:/Users/reza.kalfane/Workspaces/Daisy/DaisyExamples/libDaisy/Drivers/CMSIS/Include/cmsis_gcc.h **** /**
 143:/Users/reza.kalfane/Workspaces/Daisy/DaisyExamples/libDaisy/Drivers/CMSIS/Include/cmsis_gcc.h ****   \brief   Set Control Register (non-secure)
 144:/Users/reza.kalfane/Workspaces/Daisy/DaisyExamples/libDaisy/Drivers/CMSIS/Include/cmsis_gcc.h ****   \details Writes the given value to the non-secure Control Register when in secure state.
 145:/Users/reza.kalfane/Workspaces/Daisy/DaisyExamples/libDaisy/Drivers/CMSIS/Include/cmsis_gcc.h ****   \param [in]    control  Control Register value to set
 146:/Users/reza.kalfane/Workspaces/Daisy/DaisyExamples/libDaisy/Drivers/CMSIS/Include/cmsis_gcc.h ****  */
 147:/Users/reza.kalfane/Workspaces/Daisy/DaisyExamples/libDaisy/Drivers/CMSIS/Include/cmsis_gcc.h **** __attribute__((always_inline)) __STATIC_INLINE void __TZ_set_CONTROL_NS(uint32_t control)
 148:/Users/reza.kalfane/Workspaces/Daisy/DaisyExamples/libDaisy/Drivers/CMSIS/Include/cmsis_gcc.h **** {
 149:/Users/reza.kalfane/Workspaces/Daisy/DaisyExamples/libDaisy/Drivers/CMSIS/Include/cmsis_gcc.h ****   __ASM volatile ("MSR control_ns, %0" : : "r" (control) : "memory");
 150:/Users/reza.kalfane/Workspaces/Daisy/DaisyExamples/libDaisy/Drivers/CMSIS/Include/cmsis_gcc.h **** }
 151:/Users/reza.kalfane/Workspaces/Daisy/DaisyExamples/libDaisy/Drivers/CMSIS/Include/cmsis_gcc.h **** #endif
 152:/Users/reza.kalfane/Workspaces/Daisy/DaisyExamples/libDaisy/Drivers/CMSIS/Include/cmsis_gcc.h **** 
 153:/Users/reza.kalfane/Workspaces/Daisy/DaisyExamples/libDaisy/Drivers/CMSIS/Include/cmsis_gcc.h **** 
 154:/Users/reza.kalfane/Workspaces/Daisy/DaisyExamples/libDaisy/Drivers/CMSIS/Include/cmsis_gcc.h **** /**
 155:/Users/reza.kalfane/Workspaces/Daisy/DaisyExamples/libDaisy/Drivers/CMSIS/Include/cmsis_gcc.h ****   \brief   Get IPSR Register
 156:/Users/reza.kalfane/Workspaces/Daisy/DaisyExamples/libDaisy/Drivers/CMSIS/Include/cmsis_gcc.h ****   \details Returns the content of the IPSR Register.
 157:/Users/reza.kalfane/Workspaces/Daisy/DaisyExamples/libDaisy/Drivers/CMSIS/Include/cmsis_gcc.h ****   \return               IPSR Register value
 158:/Users/reza.kalfane/Workspaces/Daisy/DaisyExamples/libDaisy/Drivers/CMSIS/Include/cmsis_gcc.h ****  */
 159:/Users/reza.kalfane/Workspaces/Daisy/DaisyExamples/libDaisy/Drivers/CMSIS/Include/cmsis_gcc.h **** __attribute__((always_inline)) __STATIC_INLINE uint32_t __get_IPSR(void)
 160:/Users/reza.kalfane/Workspaces/Daisy/DaisyExamples/libDaisy/Drivers/CMSIS/Include/cmsis_gcc.h **** {
 161:/Users/reza.kalfane/Workspaces/Daisy/DaisyExamples/libDaisy/Drivers/CMSIS/Include/cmsis_gcc.h ****   uint32_t result;
 162:/Users/reza.kalfane/Workspaces/Daisy/DaisyExamples/libDaisy/Drivers/CMSIS/Include/cmsis_gcc.h **** 
 163:/Users/reza.kalfane/Workspaces/Daisy/DaisyExamples/libDaisy/Drivers/CMSIS/Include/cmsis_gcc.h ****   __ASM volatile ("MRS %0, ipsr" : "=r" (result) );
 164:/Users/reza.kalfane/Workspaces/Daisy/DaisyExamples/libDaisy/Drivers/CMSIS/Include/cmsis_gcc.h ****   return(result);
 165:/Users/reza.kalfane/Workspaces/Daisy/DaisyExamples/libDaisy/Drivers/CMSIS/Include/cmsis_gcc.h **** }
 166:/Users/reza.kalfane/Workspaces/Daisy/DaisyExamples/libDaisy/Drivers/CMSIS/Include/cmsis_gcc.h **** 
 167:/Users/reza.kalfane/Workspaces/Daisy/DaisyExamples/libDaisy/Drivers/CMSIS/Include/cmsis_gcc.h **** 
 168:/Users/reza.kalfane/Workspaces/Daisy/DaisyExamples/libDaisy/Drivers/CMSIS/Include/cmsis_gcc.h **** /**
 169:/Users/reza.kalfane/Workspaces/Daisy/DaisyExamples/libDaisy/Drivers/CMSIS/Include/cmsis_gcc.h ****   \brief   Get APSR Register
 170:/Users/reza.kalfane/Workspaces/Daisy/DaisyExamples/libDaisy/Drivers/CMSIS/Include/cmsis_gcc.h ****   \details Returns the content of the APSR Register.
ARM GAS  /tmp/claude-502/ccFotbfS.s 			page 101


 171:/Users/reza.kalfane/Workspaces/Daisy/DaisyExamples/libDaisy/Drivers/CMSIS/Include/cmsis_gcc.h ****   \return               APSR Register value
 172:/Users/reza.kalfane/Workspaces/Daisy/DaisyExamples/libDaisy/Drivers/CMSIS/Include/cmsis_gcc.h ****  */
 173:/Users/reza.kalfane/Workspaces/Daisy/DaisyExamples/libDaisy/Drivers/CMSIS/Include/cmsis_gcc.h **** __attribute__((always_inline)) __STATIC_INLINE uint32_t __get_APSR(void)
 174:/Users/reza.kalfane/Workspaces/Daisy/DaisyExamples/libDaisy/Drivers/CMSIS/Include/cmsis_gcc.h **** {
 175:/Users/reza.kalfane/Workspaces/Daisy/DaisyExamples/libDaisy/Drivers/CMSIS/Include/cmsis_gcc.h ****   uint32_t result;
 176:/Users/reza.kalfane/Workspaces/Daisy/DaisyExamples/libDaisy/Drivers/CMSIS/Include/cmsis_gcc.h **** 
 177:/Users/reza.kalfane/Workspaces/Daisy/DaisyExamples/libDaisy/Drivers/CMSIS/Include/cmsis_gcc.h ****   __ASM volatile ("MRS %0, apsr" : "=r" (result) );
 178:/Users/reza.kalfane/Workspaces/Daisy/DaisyExamples/libDaisy/Drivers/CMSIS/Include/cmsis_gcc.h ****   return(result);
 179:/Users/reza.kalfane/Workspaces/Daisy/DaisyExamples/libDaisy/Drivers/CMSIS/Include/cmsis_gcc.h **** }
 180:/Users/reza.kalfane/Workspaces/Daisy/DaisyExamples/libDaisy/Drivers/CMSIS/Include/cmsis_gcc.h **** 
 181:/Users/reza.kalfane/Workspaces/Daisy/DaisyExamples/libDaisy/Drivers/CMSIS/Include/cmsis_gcc.h **** 
 182:/Users/reza.kalfane/Workspaces/Daisy/DaisyExamples/libDaisy/Drivers/CMSIS/Include/cmsis_gcc.h **** /**
 183:/Users/reza.kalfane/Workspaces/Daisy/DaisyExamples/libDaisy/Drivers/CMSIS/Include/cmsis_gcc.h ****   \brief   Get xPSR Register
 184:/Users/reza.kalfane/Workspaces/Daisy/DaisyExamples/libDaisy/Drivers/CMSIS/Include/cmsis_gcc.h ****   \details Returns the content of the xPSR Register.
 185:/Users/reza.kalfane/Workspaces/Daisy/DaisyExamples/libDaisy/Drivers/CMSIS/Include/cmsis_gcc.h ****   \return               xPSR Register value
 186:/Users/reza.kalfane/Workspaces/Daisy/DaisyExamples/libDaisy/Drivers/CMSIS/Include/cmsis_gcc.h ****  */
 187:/Users/reza.kalfane/Workspaces/Daisy/DaisyExamples/libDaisy/Drivers/CMSIS/Include/cmsis_gcc.h **** __attribute__((always_inline)) __STATIC_INLINE uint32_t __get_xPSR(void)
 188:/Users/reza.kalfane/Workspaces/Daisy/DaisyExamples/libDaisy/Drivers/CMSIS/Include/cmsis_gcc.h **** {
 189:/Users/reza.kalfane/Workspaces/Daisy/DaisyExamples/libDaisy/Drivers/CMSIS/Include/cmsis_gcc.h ****   uint32_t result;
 190:/Users/reza.kalfane/Workspaces/Daisy/DaisyExamples/libDaisy/Drivers/CMSIS/Include/cmsis_gcc.h **** 
 191:/Users/reza.kalfane/Workspaces/Daisy/DaisyExamples/libDaisy/Drivers/CMSIS/Include/cmsis_gcc.h ****   __ASM volatile ("MRS %0, xpsr" : "=r" (result) );
 192:/Users/reza.kalfane/Workspaces/Daisy/DaisyExamples/libDaisy/Drivers/CMSIS/Include/cmsis_gcc.h ****   return(result);
 193:/Users/reza.kalfane/Workspaces/Daisy/DaisyExamples/libDaisy/Drivers/CMSIS/Include/cmsis_gcc.h **** }
 194:/Users/reza.kalfane/Workspaces/Daisy/DaisyExamples/libDaisy/Drivers/CMSIS/Include/cmsis_gcc.h **** 
 195:/Users/reza.kalfane/Workspaces/Daisy/DaisyExamples/libDaisy/Drivers/CMSIS/Include/cmsis_gcc.h **** 
 196:/Users/reza.kalfane/Workspaces/Daisy/DaisyExamples/libDaisy/Drivers/CMSIS/Include/cmsis_gcc.h **** /**
 197:/Users/reza.kalfane/Workspaces/Daisy/DaisyExamples/libDaisy/Drivers/CMSIS/Include/cmsis_gcc.h ****   \brief   Get Process Stack Pointer
 198:/Users/reza.kalfane/Workspaces/Daisy/DaisyExamples/libDaisy/Drivers/CMSIS/Include/cmsis_gcc.h ****   \details Returns the current value of the Process Stack Pointer (PSP).
 199:/Users/reza.kalfane/Workspaces/Daisy/DaisyExamples/libDaisy/Drivers/CMSIS/Include/cmsis_gcc.h ****   \return               PSP Register value
 200:/Users/reza.kalfane/Workspaces/Daisy/DaisyExamples/libDaisy/Drivers/CMSIS/Include/cmsis_gcc.h ****  */
 201:/Users/reza.kalfane/Workspaces/Daisy/DaisyExamples/libDaisy/Drivers/CMSIS/Include/cmsis_gcc.h **** __attribute__((always_inline)) __STATIC_INLINE uint32_t __get_PSP(void)
 202:/Users/reza.kalfane/Workspaces/Daisy/DaisyExamples/libDaisy/Drivers/CMSIS/Include/cmsis_gcc.h **** {
 203:/Users/reza.kalfane/Workspaces/Daisy/DaisyExamples/libDaisy/Drivers/CMSIS/Include/cmsis_gcc.h ****   register uint32_t result;
 204:/Users/reza.kalfane/Workspaces/Daisy/DaisyExamples/libDaisy/Drivers/CMSIS/Include/cmsis_gcc.h **** 
 205:/Users/reza.kalfane/Workspaces/Daisy/DaisyExamples/libDaisy/Drivers/CMSIS/Include/cmsis_gcc.h ****   __ASM volatile ("MRS %0, psp"  : "=r" (result) );
 206:/Users/reza.kalfane/Workspaces/Daisy/DaisyExamples/libDaisy/Drivers/CMSIS/Include/cmsis_gcc.h ****   return(result);
 207:/Users/reza.kalfane/Workspaces/Daisy/DaisyExamples/libDaisy/Drivers/CMSIS/Include/cmsis_gcc.h **** }
 208:/Users/reza.kalfane/Workspaces/Daisy/DaisyExamples/libDaisy/Drivers/CMSIS/Include/cmsis_gcc.h **** 
 209:/Users/reza.kalfane/Workspaces/Daisy/DaisyExamples/libDaisy/Drivers/CMSIS/Include/cmsis_gcc.h **** 
 210:/Users/reza.kalfane/Workspaces/Daisy/DaisyExamples/libDaisy/Drivers/CMSIS/Include/cmsis_gcc.h **** #if (defined (__ARM_FEATURE_CMSE ) && (__ARM_FEATURE_CMSE == 3))
 211:/Users/reza.kalfane/Workspaces/Daisy/DaisyExamples/libDaisy/Drivers/CMSIS/Include/cmsis_gcc.h **** /**
 212:/Users/reza.kalfane/Workspaces/Daisy/DaisyExamples/libDaisy/Drivers/CMSIS/Include/cmsis_gcc.h ****   \brief   Get Process Stack Pointer (non-secure)
 213:/Users/reza.kalfane/Workspaces/Daisy/DaisyExamples/libDaisy/Drivers/CMSIS/Include/cmsis_gcc.h ****   \details Returns the current value of the non-secure Process Stack Pointer (PSP) when in secure s
 214:/Users/reza.kalfane/Workspaces/Daisy/DaisyExamples/libDaisy/Drivers/CMSIS/Include/cmsis_gcc.h ****   \return               PSP Register value
 215:/Users/reza.kalfane/Workspaces/Daisy/DaisyExamples/libDaisy/Drivers/CMSIS/Include/cmsis_gcc.h ****  */
 216:/Users/reza.kalfane/Workspaces/Daisy/DaisyExamples/libDaisy/Drivers/CMSIS/Include/cmsis_gcc.h **** __attribute__((always_inline)) __STATIC_INLINE uint32_t __TZ_get_PSP_NS(void)
 217:/Users/reza.kalfane/Workspaces/Daisy/DaisyExamples/libDaisy/Drivers/CMSIS/Include/cmsis_gcc.h **** {
 218:/Users/reza.kalfane/Workspaces/Daisy/DaisyExamples/libDaisy/Drivers/CMSIS/Include/cmsis_gcc.h ****   register uint32_t result;
 219:/Users/reza.kalfane/Workspaces/Daisy/DaisyExamples/libDaisy/Drivers/CMSIS/Include/cmsis_gcc.h **** 
 220:/Users/reza.kalfane/Workspaces/Daisy/DaisyExamples/libDaisy/Drivers/CMSIS/Include/cmsis_gcc.h ****   __ASM volatile ("MRS %0, psp_ns"  : "=r" (result) );
 221:/Users/reza.kalfane/Workspaces/Daisy/DaisyExamples/libDaisy/Drivers/CMSIS/Include/cmsis_gcc.h ****   return(result);
 222:/Users/reza.kalfane/Workspaces/Daisy/DaisyExamples/libDaisy/Drivers/CMSIS/Include/cmsis_gcc.h **** }
 223:/Users/reza.kalfane/Workspaces/Daisy/DaisyExamples/libDaisy/Drivers/CMSIS/Include/cmsis_gcc.h **** #endif
 224:/Users/reza.kalfane/Workspaces/Daisy/DaisyExamples/libDaisy/Drivers/CMSIS/Include/cmsis_gcc.h **** 
 225:/Users/reza.kalfane/Workspaces/Daisy/DaisyExamples/libDaisy/Drivers/CMSIS/Include/cmsis_gcc.h **** 
 226:/Users/reza.kalfane/Workspaces/Daisy/DaisyExamples/libDaisy/Drivers/CMSIS/Include/cmsis_gcc.h **** /**
 227:/Users/reza.kalfane/Workspaces/Daisy/DaisyExamples/libDaisy/Drivers/CMSIS/Include/cmsis_gcc.h ****   \brief   Set Process Stack Pointer
ARM GAS  /tmp/claude-502/ccFotbfS.s 			page 102


 228:/Users/reza.kalfane/Workspaces/Daisy/DaisyExamples/libDaisy/Drivers/CMSIS/Include/cmsis_gcc.h ****   \details Assigns the given value to the Process Stack Pointer (PSP).
 229:/Users/reza.kalfane/Workspaces/Daisy/DaisyExamples/libDaisy/Drivers/CMSIS/Include/cmsis_gcc.h ****   \param [in]    topOfProcStack  Process Stack Pointer value to set
 230:/Users/reza.kalfane/Workspaces/Daisy/DaisyExamples/libDaisy/Drivers/CMSIS/Include/cmsis_gcc.h ****  */
 231:/Users/reza.kalfane/Workspaces/Daisy/DaisyExamples/libDaisy/Drivers/CMSIS/Include/cmsis_gcc.h **** __attribute__((always_inline)) __STATIC_INLINE void __set_PSP(uint32_t topOfProcStack)
 232:/Users/reza.kalfane/Workspaces/Daisy/DaisyExamples/libDaisy/Drivers/CMSIS/Include/cmsis_gcc.h **** {
 233:/Users/reza.kalfane/Workspaces/Daisy/DaisyExamples/libDaisy/Drivers/CMSIS/Include/cmsis_gcc.h ****   __ASM volatile ("MSR psp, %0" : : "r" (topOfProcStack) : );
 234:/Users/reza.kalfane/Workspaces/Daisy/DaisyExamples/libDaisy/Drivers/CMSIS/Include/cmsis_gcc.h **** }
 235:/Users/reza.kalfane/Workspaces/Daisy/DaisyExamples/libDaisy/Drivers/CMSIS/Include/cmsis_gcc.h **** 
 236:/Users/reza.kalfane/Workspaces/Daisy/DaisyExamples/libDaisy/Drivers/CMSIS/Include/cmsis_gcc.h **** 
 237:/Users/reza.kalfane/Workspaces/Daisy/DaisyExamples/libDaisy/Drivers/CMSIS/Include/cmsis_gcc.h **** #if (defined (__ARM_FEATURE_CMSE ) && (__ARM_FEATURE_CMSE == 3))
 238:/Users/reza.kalfane/Workspaces/Daisy/DaisyExamples/libDaisy/Drivers/CMSIS/Include/cmsis_gcc.h **** /**
 239:/Users/reza.kalfane/Workspaces/Daisy/DaisyExamples/libDaisy/Drivers/CMSIS/Include/cmsis_gcc.h ****   \brief   Set Process Stack Pointer (non-secure)
 240:/Users/reza.kalfane/Workspaces/Daisy/DaisyExamples/libDaisy/Drivers/CMSIS/Include/cmsis_gcc.h ****   \details Assigns the given value to the non-secure Process Stack Pointer (PSP) when in secure sta
 241:/Users/reza.kalfane/Workspaces/Daisy/DaisyExamples/libDaisy/Drivers/CMSIS/Include/cmsis_gcc.h ****   \param [in]    topOfProcStack  Process Stack Pointer value to set
 242:/Users/reza.kalfane/Workspaces/Daisy/DaisyExamples/libDaisy/Drivers/CMSIS/Include/cmsis_gcc.h ****  */
 243:/Users/reza.kalfane/Workspaces/Daisy/DaisyExamples/libDaisy/Drivers/CMSIS/Include/cmsis_gcc.h **** __attribute__((always_inline)) __STATIC_INLINE void __TZ_set_PSP_NS(uint32_t topOfProcStack)
 244:/Users/reza.kalfane/Workspaces/Daisy/DaisyExamples/libDaisy/Drivers/CMSIS/Include/cmsis_gcc.h **** {
 245:/Users/reza.kalfane/Workspaces/Daisy/DaisyExamples/libDaisy/Drivers/CMSIS/Include/cmsis_gcc.h ****   __ASM volatile ("MSR psp_ns, %0" : : "r" (topOfProcStack) : );
 246:/Users/reza.kalfane/Workspaces/Daisy/DaisyExamples/libDaisy/Drivers/CMSIS/Include/cmsis_gcc.h **** }
 247:/Users/reza.kalfane/Workspaces/Daisy/DaisyExamples/libDaisy/Drivers/CMSIS/Include/cmsis_gcc.h **** #endif
 248:/Users/reza.kalfane/Workspaces/Daisy/DaisyExamples/libDaisy/Drivers/CMSIS/Include/cmsis_gcc.h **** 
 249:/Users/reza.kalfane/Workspaces/Daisy/DaisyExamples/libDaisy/Drivers/CMSIS/Include/cmsis_gcc.h **** 
 250:/Users/reza.kalfane/Workspaces/Daisy/DaisyExamples/libDaisy/Drivers/CMSIS/Include/cmsis_gcc.h **** /**
 251:/Users/reza.kalfane/Workspaces/Daisy/DaisyExamples/libDaisy/Drivers/CMSIS/Include/cmsis_gcc.h ****   \brief   Get Main Stack Pointer
 252:/Users/reza.kalfane/Workspaces/Daisy/DaisyExamples/libDaisy/Drivers/CMSIS/Include/cmsis_gcc.h ****   \details Returns the current value of the Main Stack Pointer (MSP).
 253:/Users/reza.kalfane/Workspaces/Daisy/DaisyExamples/libDaisy/Drivers/CMSIS/Include/cmsis_gcc.h ****   \return               MSP Register value
 254:/Users/reza.kalfane/Workspaces/Daisy/DaisyExamples/libDaisy/Drivers/CMSIS/Include/cmsis_gcc.h ****  */
 255:/Users/reza.kalfane/Workspaces/Daisy/DaisyExamples/libDaisy/Drivers/CMSIS/Include/cmsis_gcc.h **** __attribute__((always_inline)) __STATIC_INLINE uint32_t __get_MSP(void)
 256:/Users/reza.kalfane/Workspaces/Daisy/DaisyExamples/libDaisy/Drivers/CMSIS/Include/cmsis_gcc.h **** {
 257:/Users/reza.kalfane/Workspaces/Daisy/DaisyExamples/libDaisy/Drivers/CMSIS/Include/cmsis_gcc.h ****   register uint32_t result;
 258:/Users/reza.kalfane/Workspaces/Daisy/DaisyExamples/libDaisy/Drivers/CMSIS/Include/cmsis_gcc.h **** 
 259:/Users/reza.kalfane/Workspaces/Daisy/DaisyExamples/libDaisy/Drivers/CMSIS/Include/cmsis_gcc.h ****   __ASM volatile ("MRS %0, msp" : "=r" (result) );
 260:/Users/reza.kalfane/Workspaces/Daisy/DaisyExamples/libDaisy/Drivers/CMSIS/Include/cmsis_gcc.h ****   return(result);
 261:/Users/reza.kalfane/Workspaces/Daisy/DaisyExamples/libDaisy/Drivers/CMSIS/Include/cmsis_gcc.h **** }
 262:/Users/reza.kalfane/Workspaces/Daisy/DaisyExamples/libDaisy/Drivers/CMSIS/Include/cmsis_gcc.h **** 
 263:/Users/reza.kalfane/Workspaces/Daisy/DaisyExamples/libDaisy/Drivers/CMSIS/Include/cmsis_gcc.h **** 
 264:/Users/reza.kalfane/Workspaces/Daisy/DaisyExamples/libDaisy/Drivers/CMSIS/Include/cmsis_gcc.h **** #if (defined (__ARM_FEATURE_CMSE ) && (__ARM_FEATURE_CMSE == 3))
 265:/Users/reza.kalfane/Workspaces/Daisy/DaisyExamples/libDaisy/Drivers/CMSIS/Include/cmsis_gcc.h **** /**
 266:/Users/reza.kalfane/Workspaces/Daisy/DaisyExamples/libDaisy/Drivers/CMSIS/Include/cmsis_gcc.h ****   \brief   Get Main Stack Pointer (non-secure)
 267:/Users/reza.kalfane/Workspaces/Daisy/DaisyExamples/libDaisy/Drivers/CMSIS/Include/cmsis_gcc.h ****   \details Returns the current value of the non-secure Main Stack Pointer (MSP) when in secure stat
 268:/Users/reza.kalfane/Workspaces/Daisy/DaisyExamples/libDaisy/Drivers/CMSIS/Include/cmsis_gcc.h ****   \return               MSP Register value
 269:/Users/reza.kalfane/Workspaces/Daisy/DaisyExamples/libDaisy/Drivers/CMSIS/Include/cmsis_gcc.h ****  */
 270:/Users/reza.kalfane/Workspaces/Daisy/DaisyExamples/libDaisy/Drivers/CMSIS/Include/cmsis_gcc.h **** __attribute__((always_inline)) __STATIC_INLINE uint32_t __TZ_get_MSP_NS(void)
 271:/Users/reza.kalfane/Workspaces/Daisy/DaisyExamples/libDaisy/Drivers/CMSIS/Include/cmsis_gcc.h **** {
 272:/Users/reza.kalfane/Workspaces/Daisy/DaisyExamples/libDaisy/Drivers/CMSIS/Include/cmsis_gcc.h ****   register uint32_t result;
 273:/Users/reza.kalfane/Workspaces/Daisy/DaisyExamples/libDaisy/Drivers/CMSIS/Include/cmsis_gcc.h **** 
 274:/Users/reza.kalfane/Workspaces/Daisy/DaisyExamples/libDaisy/Drivers/CMSIS/Include/cmsis_gcc.h ****   __ASM volatile ("MRS %0, msp_ns" : "=r" (result) );
 275:/Users/reza.kalfane/Workspaces/Daisy/DaisyExamples/libDaisy/Drivers/CMSIS/Include/cmsis_gcc.h ****   return(result);
 276:/Users/reza.kalfane/Workspaces/Daisy/DaisyExamples/libDaisy/Drivers/CMSIS/Include/cmsis_gcc.h **** }
 277:/Users/reza.kalfane/Workspaces/Daisy/DaisyExamples/libDaisy/Drivers/CMSIS/Include/cmsis_gcc.h **** #endif
 278:/Users/reza.kalfane/Workspaces/Daisy/DaisyExamples/libDaisy/Drivers/CMSIS/Include/cmsis_gcc.h **** 
 279:/Users/reza.kalfane/Workspaces/Daisy/DaisyExamples/libDaisy/Drivers/CMSIS/Include/cmsis_gcc.h **** 
 280:/Users/reza.kalfane/Workspaces/Daisy/DaisyExamples/libDaisy/Drivers/CMSIS/Include/cmsis_gcc.h **** /**
 281:/Users/reza.kalfane/Workspaces/Daisy/DaisyExamples/libDaisy/Drivers/CMSIS/Include/cmsis_gcc.h ****   \brief   Set Main Stack Pointer
 282:/Users/reza.kalfane/Workspaces/Daisy/DaisyExamples/libDaisy/Drivers/CMSIS/Include/cmsis_gcc.h ****   \details Assigns the given value to the Main Stack Pointer (MSP).
 283:/Users/reza.kalfane/Workspaces/Daisy/DaisyExamples/libDaisy/Drivers/CMSIS/Include/cmsis_gcc.h ****   \param [in]    topOfMainStack  Main Stack Pointer value to set
 284:/Users/reza.kalfane/Workspaces/Daisy/DaisyExamples/libDaisy/Drivers/CMSIS/Include/cmsis_gcc.h ****  */
ARM GAS  /tmp/claude-502/ccFotbfS.s 			page 103


 285:/Users/reza.kalfane/Workspaces/Daisy/DaisyExamples/libDaisy/Drivers/CMSIS/Include/cmsis_gcc.h **** __attribute__((always_inline)) __STATIC_INLINE void __set_MSP(uint32_t topOfMainStack)
 286:/Users/reza.kalfane/Workspaces/Daisy/DaisyExamples/libDaisy/Drivers/CMSIS/Include/cmsis_gcc.h **** {
 287:/Users/reza.kalfane/Workspaces/Daisy/DaisyExamples/libDaisy/Drivers/CMSIS/Include/cmsis_gcc.h ****   __ASM volatile ("MSR msp, %0" : : "r" (topOfMainStack) : );
 288:/Users/reza.kalfane/Workspaces/Daisy/DaisyExamples/libDaisy/Drivers/CMSIS/Include/cmsis_gcc.h **** }
 289:/Users/reza.kalfane/Workspaces/Daisy/DaisyExamples/libDaisy/Drivers/CMSIS/Include/cmsis_gcc.h **** 
 290:/Users/reza.kalfane/Workspaces/Daisy/DaisyExamples/libDaisy/Drivers/CMSIS/Include/cmsis_gcc.h **** 
 291:/Users/reza.kalfane/Workspaces/Daisy/DaisyExamples/libDaisy/Drivers/CMSIS/Include/cmsis_gcc.h **** #if (defined (__ARM_FEATURE_CMSE ) && (__ARM_FEATURE_CMSE == 3))
 292:/Users/reza.kalfane/Workspaces/Daisy/DaisyExamples/libDaisy/Drivers/CMSIS/Include/cmsis_gcc.h **** /**
 293:/Users/reza.kalfane/Workspaces/Daisy/DaisyExamples/libDaisy/Drivers/CMSIS/Include/cmsis_gcc.h ****   \brief   Set Main Stack Pointer (non-secure)
 294:/Users/reza.kalfane/Workspaces/Daisy/DaisyExamples/libDaisy/Drivers/CMSIS/Include/cmsis_gcc.h ****   \details Assigns the given value to the non-secure Main Stack Pointer (MSP) when in secure state.
 295:/Users/reza.kalfane/Workspaces/Daisy/DaisyExamples/libDaisy/Drivers/CMSIS/Include/cmsis_gcc.h ****   \param [in]    topOfMainStack  Main Stack Pointer value to set
 296:/Users/reza.kalfane/Workspaces/Daisy/DaisyExamples/libDaisy/Drivers/CMSIS/Include/cmsis_gcc.h ****  */
 297:/Users/reza.kalfane/Workspaces/Daisy/DaisyExamples/libDaisy/Drivers/CMSIS/Include/cmsis_gcc.h **** __attribute__((always_inline)) __STATIC_INLINE void __TZ_set_MSP_NS(uint32_t topOfMainStack)
 298:/Users/reza.kalfane/Workspaces/Daisy/DaisyExamples/libDaisy/Drivers/CMSIS/Include/cmsis_gcc.h **** {
 299:/Users/reza.kalfane/Workspaces/Daisy/DaisyExamples/libDaisy/Drivers/CMSIS/Include/cmsis_gcc.h ****   __ASM volatile ("MSR msp_ns, %0" : : "r" (topOfMainStack) : );
 300:/Users/reza.kalfane/Workspaces/Daisy/DaisyExamples/libDaisy/Drivers/CMSIS/Include/cmsis_gcc.h **** }
 301:/Users/reza.kalfane/Workspaces/Daisy/DaisyExamples/libDaisy/Drivers/CMSIS/Include/cmsis_gcc.h **** #endif
 302:/Users/reza.kalfane/Workspaces/Daisy/DaisyExamples/libDaisy/Drivers/CMSIS/Include/cmsis_gcc.h **** 
 303:/Users/reza.kalfane/Workspaces/Daisy/DaisyExamples/libDaisy/Drivers/CMSIS/Include/cmsis_gcc.h **** 
 304:/Users/reza.kalfane/Workspaces/Daisy/DaisyExamples/libDaisy/Drivers/CMSIS/Include/cmsis_gcc.h **** /**
 305:/Users/reza.kalfane/Workspaces/Daisy/DaisyExamples/libDaisy/Drivers/CMSIS/Include/cmsis_gcc.h ****   \brief   Get Priority Mask
 306:/Users/reza.kalfane/Workspaces/Daisy/DaisyExamples/libDaisy/Drivers/CMSIS/Include/cmsis_gcc.h ****   \details Returns the current state of the priority mask bit from the Priority Mask Register.
 307:/Users/reza.kalfane/Workspaces/Daisy/DaisyExamples/libDaisy/Drivers/CMSIS/Include/cmsis_gcc.h ****   \return               Priority Mask value
 308:/Users/reza.kalfane/Workspaces/Daisy/DaisyExamples/libDaisy/Drivers/CMSIS/Include/cmsis_gcc.h ****  */
 309:/Users/reza.kalfane/Workspaces/Daisy/DaisyExamples/libDaisy/Drivers/CMSIS/Include/cmsis_gcc.h **** __attribute__((always_inline)) __STATIC_INLINE uint32_t __get_PRIMASK(void)
 310:/Users/reza.kalfane/Workspaces/Daisy/DaisyExamples/libDaisy/Drivers/CMSIS/Include/cmsis_gcc.h **** {
 311:/Users/reza.kalfane/Workspaces/Daisy/DaisyExamples/libDaisy/Drivers/CMSIS/Include/cmsis_gcc.h ****   uint32_t result;
 312:/Users/reza.kalfane/Workspaces/Daisy/DaisyExamples/libDaisy/Drivers/CMSIS/Include/cmsis_gcc.h **** 
 313:/Users/reza.kalfane/Workspaces/Daisy/DaisyExamples/libDaisy/Drivers/CMSIS/Include/cmsis_gcc.h ****   __ASM volatile ("MRS %0, primask" : "=r" (result) );
 314:/Users/reza.kalfane/Workspaces/Daisy/DaisyExamples/libDaisy/Drivers/CMSIS/Include/cmsis_gcc.h ****   return(result);
 315:/Users/reza.kalfane/Workspaces/Daisy/DaisyExamples/libDaisy/Drivers/CMSIS/Include/cmsis_gcc.h **** }
 316:/Users/reza.kalfane/Workspaces/Daisy/DaisyExamples/libDaisy/Drivers/CMSIS/Include/cmsis_gcc.h **** 
 317:/Users/reza.kalfane/Workspaces/Daisy/DaisyExamples/libDaisy/Drivers/CMSIS/Include/cmsis_gcc.h **** 
 318:/Users/reza.kalfane/Workspaces/Daisy/DaisyExamples/libDaisy/Drivers/CMSIS/Include/cmsis_gcc.h **** #if (defined (__ARM_FEATURE_CMSE ) && (__ARM_FEATURE_CMSE == 3))
 319:/Users/reza.kalfane/Workspaces/Daisy/DaisyExamples/libDaisy/Drivers/CMSIS/Include/cmsis_gcc.h **** /**
 320:/Users/reza.kalfane/Workspaces/Daisy/DaisyExamples/libDaisy/Drivers/CMSIS/Include/cmsis_gcc.h ****   \brief   Get Priority Mask (non-secure)
 321:/Users/reza.kalfane/Workspaces/Daisy/DaisyExamples/libDaisy/Drivers/CMSIS/Include/cmsis_gcc.h ****   \details Returns the current state of the non-secure priority mask bit from the Priority Mask Reg
 322:/Users/reza.kalfane/Workspaces/Daisy/DaisyExamples/libDaisy/Drivers/CMSIS/Include/cmsis_gcc.h ****   \return               Priority Mask value
 323:/Users/reza.kalfane/Workspaces/Daisy/DaisyExamples/libDaisy/Drivers/CMSIS/Include/cmsis_gcc.h ****  */
 324:/Users/reza.kalfane/Workspaces/Daisy/DaisyExamples/libDaisy/Drivers/CMSIS/Include/cmsis_gcc.h **** __attribute__((always_inline)) __STATIC_INLINE uint32_t __TZ_get_PRIMASK_NS(void)
 325:/Users/reza.kalfane/Workspaces/Daisy/DaisyExamples/libDaisy/Drivers/CMSIS/Include/cmsis_gcc.h **** {
 326:/Users/reza.kalfane/Workspaces/Daisy/DaisyExamples/libDaisy/Drivers/CMSIS/Include/cmsis_gcc.h ****   uint32_t result;
 327:/Users/reza.kalfane/Workspaces/Daisy/DaisyExamples/libDaisy/Drivers/CMSIS/Include/cmsis_gcc.h **** 
 328:/Users/reza.kalfane/Workspaces/Daisy/DaisyExamples/libDaisy/Drivers/CMSIS/Include/cmsis_gcc.h ****   __ASM volatile ("MRS %0, primask_ns" : "=r" (result) );
 329:/Users/reza.kalfane/Workspaces/Daisy/DaisyExamples/libDaisy/Drivers/CMSIS/Include/cmsis_gcc.h ****   return(result);
 330:/Users/reza.kalfane/Workspaces/Daisy/DaisyExamples/libDaisy/Drivers/CMSIS/Include/cmsis_gcc.h **** }
 331:/Users/reza.kalfane/Workspaces/Daisy/DaisyExamples/libDaisy/Drivers/CMSIS/Include/cmsis_gcc.h **** #endif
 332:/Users/reza.kalfane/Workspaces/Daisy/DaisyExamples/libDaisy/Drivers/CMSIS/Include/cmsis_gcc.h **** 
 333:/Users/reza.kalfane/Workspaces/Daisy/DaisyExamples/libDaisy/Drivers/CMSIS/Include/cmsis_gcc.h **** 
 334:/Users/reza.kalfane/Workspaces/Daisy/DaisyExamples/libDaisy/Drivers/CMSIS/Include/cmsis_gcc.h **** /**
 335:/Users/reza.kalfane/Workspaces/Daisy/DaisyExamples/libDaisy/Drivers/CMSIS/Include/cmsis_gcc.h ****   \brief   Set Priority Mask
 336:/Users/reza.kalfane/Workspaces/Daisy/DaisyExamples/libDaisy/Drivers/CMSIS/Include/cmsis_gcc.h ****   \details Assigns the given value to the Priority Mask Register.
 337:/Users/reza.kalfane/Workspaces/Daisy/DaisyExamples/libDaisy/Drivers/CMSIS/Include/cmsis_gcc.h ****   \param [in]    priMask  Priority Mask
 338:/Users/reza.kalfane/Workspaces/Daisy/DaisyExamples/libDaisy/Drivers/CMSIS/Include/cmsis_gcc.h ****  */
 339:/Users/reza.kalfane/Workspaces/Daisy/DaisyExamples/libDaisy/Drivers/CMSIS/Include/cmsis_gcc.h **** __attribute__((always_inline)) __STATIC_INLINE void __set_PRIMASK(uint32_t priMask)
 340:/Users/reza.kalfane/Workspaces/Daisy/DaisyExamples/libDaisy/Drivers/CMSIS/Include/cmsis_gcc.h **** {
 341:/Users/reza.kalfane/Workspaces/Daisy/DaisyExamples/libDaisy/Drivers/CMSIS/Include/cmsis_gcc.h ****   __ASM volatile ("MSR primask, %0" : : "r" (priMask) : "memory");
ARM GAS  /tmp/claude-502/ccFotbfS.s 			page 104


 342:/Users/reza.kalfane/Workspaces/Daisy/DaisyExamples/libDaisy/Drivers/CMSIS/Include/cmsis_gcc.h **** }
 343:/Users/reza.kalfane/Workspaces/Daisy/DaisyExamples/libDaisy/Drivers/CMSIS/Include/cmsis_gcc.h **** 
 344:/Users/reza.kalfane/Workspaces/Daisy/DaisyExamples/libDaisy/Drivers/CMSIS/Include/cmsis_gcc.h **** 
 345:/Users/reza.kalfane/Workspaces/Daisy/DaisyExamples/libDaisy/Drivers/CMSIS/Include/cmsis_gcc.h **** #if (defined (__ARM_FEATURE_CMSE ) && (__ARM_FEATURE_CMSE == 3))
 346:/Users/reza.kalfane/Workspaces/Daisy/DaisyExamples/libDaisy/Drivers/CMSIS/Include/cmsis_gcc.h **** /**
 347:/Users/reza.kalfane/Workspaces/Daisy/DaisyExamples/libDaisy/Drivers/CMSIS/Include/cmsis_gcc.h ****   \brief   Set Priority Mask (non-secure)
 348:/Users/reza.kalfane/Workspaces/Daisy/DaisyExamples/libDaisy/Drivers/CMSIS/Include/cmsis_gcc.h ****   \details Assigns the given value to the non-secure Priority Mask Register when in secure state.
 349:/Users/reza.kalfane/Workspaces/Daisy/DaisyExamples/libDaisy/Drivers/CMSIS/Include/cmsis_gcc.h ****   \param [in]    priMask  Priority Mask
 350:/Users/reza.kalfane/Workspaces/Daisy/DaisyExamples/libDaisy/Drivers/CMSIS/Include/cmsis_gcc.h ****  */
 351:/Users/reza.kalfane/Workspaces/Daisy/DaisyExamples/libDaisy/Drivers/CMSIS/Include/cmsis_gcc.h **** __attribute__((always_inline)) __STATIC_INLINE void __TZ_set_PRIMASK_NS(uint32_t priMask)
 352:/Users/reza.kalfane/Workspaces/Daisy/DaisyExamples/libDaisy/Drivers/CMSIS/Include/cmsis_gcc.h **** {
 353:/Users/reza.kalfane/Workspaces/Daisy/DaisyExamples/libDaisy/Drivers/CMSIS/Include/cmsis_gcc.h ****   __ASM volatile ("MSR primask_ns, %0" : : "r" (priMask) : "memory");
 354:/Users/reza.kalfane/Workspaces/Daisy/DaisyExamples/libDaisy/Drivers/CMSIS/Include/cmsis_gcc.h **** }
 355:/Users/reza.kalfane/Workspaces/Daisy/DaisyExamples/libDaisy/Drivers/CMSIS/Include/cmsis_gcc.h **** #endif
 356:/Users/reza.kalfane/Workspaces/Daisy/DaisyExamples/libDaisy/Drivers/CMSIS/Include/cmsis_gcc.h **** 
 357:/Users/reza.kalfane/Workspaces/Daisy/DaisyExamples/libDaisy/Drivers/CMSIS/Include/cmsis_gcc.h **** 
 358:/Users/reza.kalfane/Workspaces/Daisy/DaisyExamples/libDaisy/Drivers/CMSIS/Include/cmsis_gcc.h **** #if ((defined (__ARM_ARCH_7M__      ) && (__ARM_ARCH_7M__      == 1)) || \
 359:/Users/reza.kalfane/Workspaces/Daisy/DaisyExamples/libDaisy/Drivers/CMSIS/Include/cmsis_gcc.h ****      (defined (__ARM_ARCH_7EM__     ) && (__ARM_ARCH_7EM__     == 1)) || \
 360:/Users/reza.kalfane/Workspaces/Daisy/DaisyExamples/libDaisy/Drivers/CMSIS/Include/cmsis_gcc.h ****      (defined (__ARM_ARCH_8M_MAIN__ ) && (__ARM_ARCH_8M_MAIN__ == 1))    )
 361:/Users/reza.kalfane/Workspaces/Daisy/DaisyExamples/libDaisy/Drivers/CMSIS/Include/cmsis_gcc.h **** /**
 362:/Users/reza.kalfane/Workspaces/Daisy/DaisyExamples/libDaisy/Drivers/CMSIS/Include/cmsis_gcc.h ****   \brief   Enable FIQ
 363:/Users/reza.kalfane/Workspaces/Daisy/DaisyExamples/libDaisy/Drivers/CMSIS/Include/cmsis_gcc.h ****   \details Enables FIQ interrupts by clearing the F-bit in the CPSR.
 364:/Users/reza.kalfane/Workspaces/Daisy/DaisyExamples/libDaisy/Drivers/CMSIS/Include/cmsis_gcc.h ****            Can only be executed in Privileged modes.
 365:/Users/reza.kalfane/Workspaces/Daisy/DaisyExamples/libDaisy/Drivers/CMSIS/Include/cmsis_gcc.h ****  */
 366:/Users/reza.kalfane/Workspaces/Daisy/DaisyExamples/libDaisy/Drivers/CMSIS/Include/cmsis_gcc.h **** __attribute__((always_inline)) __STATIC_INLINE void __enable_fault_irq(void)
 367:/Users/reza.kalfane/Workspaces/Daisy/DaisyExamples/libDaisy/Drivers/CMSIS/Include/cmsis_gcc.h **** {
 368:/Users/reza.kalfane/Workspaces/Daisy/DaisyExamples/libDaisy/Drivers/CMSIS/Include/cmsis_gcc.h ****   __ASM volatile ("cpsie f" : : : "memory");
 369:/Users/reza.kalfane/Workspaces/Daisy/DaisyExamples/libDaisy/Drivers/CMSIS/Include/cmsis_gcc.h **** }
 370:/Users/reza.kalfane/Workspaces/Daisy/DaisyExamples/libDaisy/Drivers/CMSIS/Include/cmsis_gcc.h **** 
 371:/Users/reza.kalfane/Workspaces/Daisy/DaisyExamples/libDaisy/Drivers/CMSIS/Include/cmsis_gcc.h **** 
 372:/Users/reza.kalfane/Workspaces/Daisy/DaisyExamples/libDaisy/Drivers/CMSIS/Include/cmsis_gcc.h **** /**
 373:/Users/reza.kalfane/Workspaces/Daisy/DaisyExamples/libDaisy/Drivers/CMSIS/Include/cmsis_gcc.h ****   \brief   Disable FIQ
 374:/Users/reza.kalfane/Workspaces/Daisy/DaisyExamples/libDaisy/Drivers/CMSIS/Include/cmsis_gcc.h ****   \details Disables FIQ interrupts by setting the F-bit in the CPSR.
 375:/Users/reza.kalfane/Workspaces/Daisy/DaisyExamples/libDaisy/Drivers/CMSIS/Include/cmsis_gcc.h ****            Can only be executed in Privileged modes.
 376:/Users/reza.kalfane/Workspaces/Daisy/DaisyExamples/libDaisy/Drivers/CMSIS/Include/cmsis_gcc.h ****  */
 377:/Users/reza.kalfane/Workspaces/Daisy/DaisyExamples/libDaisy/Drivers/CMSIS/Include/cmsis_gcc.h **** __attribute__((always_inline)) __STATIC_INLINE void __disable_fault_irq(void)
 378:/Users/reza.kalfane/Workspaces/Daisy/DaisyExamples/libDaisy/Drivers/CMSIS/Include/cmsis_gcc.h **** {
 379:/Users/reza.kalfane/Workspaces/Daisy/DaisyExamples/libDaisy/Drivers/CMSIS/Include/cmsis_gcc.h ****   __ASM volatile ("cpsid f" : : : "memory");
 380:/Users/reza.kalfane/Workspaces/Daisy/DaisyExamples/libDaisy/Drivers/CMSIS/Include/cmsis_gcc.h **** }
 381:/Users/reza.kalfane/Workspaces/Daisy/DaisyExamples/libDaisy/Drivers/CMSIS/Include/cmsis_gcc.h **** 
 382:/Users/reza.kalfane/Workspaces/Daisy/DaisyExamples/libDaisy/Drivers/CMSIS/Include/cmsis_gcc.h **** 
 383:/Users/reza.kalfane/Workspaces/Daisy/DaisyExamples/libDaisy/Drivers/CMSIS/Include/cmsis_gcc.h **** /**
 384:/Users/reza.kalfane/Workspaces/Daisy/DaisyExamples/libDaisy/Drivers/CMSIS/Include/cmsis_gcc.h ****   \brief   Get Base Priority
 385:/Users/reza.kalfane/Workspaces/Daisy/DaisyExamples/libDaisy/Drivers/CMSIS/Include/cmsis_gcc.h ****   \details Returns the current value of the Base Priority register.
 386:/Users/reza.kalfane/Workspaces/Daisy/DaisyExamples/libDaisy/Drivers/CMSIS/Include/cmsis_gcc.h ****   \return               Base Priority register value
 387:/Users/reza.kalfane/Workspaces/Daisy/DaisyExamples/libDaisy/Drivers/CMSIS/Include/cmsis_gcc.h ****  */
 388:/Users/reza.kalfane/Workspaces/Daisy/DaisyExamples/libDaisy/Drivers/CMSIS/Include/cmsis_gcc.h **** __attribute__((always_inline)) __STATIC_INLINE uint32_t __get_BASEPRI(void)
 389:/Users/reza.kalfane/Workspaces/Daisy/DaisyExamples/libDaisy/Drivers/CMSIS/Include/cmsis_gcc.h **** {
 390:/Users/reza.kalfane/Workspaces/Daisy/DaisyExamples/libDaisy/Drivers/CMSIS/Include/cmsis_gcc.h ****   uint32_t result;
 391:/Users/reza.kalfane/Workspaces/Daisy/DaisyExamples/libDaisy/Drivers/CMSIS/Include/cmsis_gcc.h **** 
 392:/Users/reza.kalfane/Workspaces/Daisy/DaisyExamples/libDaisy/Drivers/CMSIS/Include/cmsis_gcc.h ****   __ASM volatile ("MRS %0, basepri" : "=r" (result) );
 393:/Users/reza.kalfane/Workspaces/Daisy/DaisyExamples/libDaisy/Drivers/CMSIS/Include/cmsis_gcc.h ****   return(result);
 394:/Users/reza.kalfane/Workspaces/Daisy/DaisyExamples/libDaisy/Drivers/CMSIS/Include/cmsis_gcc.h **** }
 395:/Users/reza.kalfane/Workspaces/Daisy/DaisyExamples/libDaisy/Drivers/CMSIS/Include/cmsis_gcc.h **** 
 396:/Users/reza.kalfane/Workspaces/Daisy/DaisyExamples/libDaisy/Drivers/CMSIS/Include/cmsis_gcc.h **** 
 397:/Users/reza.kalfane/Workspaces/Daisy/DaisyExamples/libDaisy/Drivers/CMSIS/Include/cmsis_gcc.h **** #if (defined (__ARM_FEATURE_CMSE ) && (__ARM_FEATURE_CMSE == 3))
 398:/Users/reza.kalfane/Workspaces/Daisy/DaisyExamples/libDaisy/Drivers/CMSIS/Include/cmsis_gcc.h **** /**
ARM GAS  /tmp/claude-502/ccFotbfS.s 			page 105


 399:/Users/reza.kalfane/Workspaces/Daisy/DaisyExamples/libDaisy/Drivers/CMSIS/Include/cmsis_gcc.h ****   \brief   Get Base Priority (non-secure)
 400:/Users/reza.kalfane/Workspaces/Daisy/DaisyExamples/libDaisy/Drivers/CMSIS/Include/cmsis_gcc.h ****   \details Returns the current value of the non-secure Base Priority register when in secure state.
 401:/Users/reza.kalfane/Workspaces/Daisy/DaisyExamples/libDaisy/Drivers/CMSIS/Include/cmsis_gcc.h ****   \return               Base Priority register value
 402:/Users/reza.kalfane/Workspaces/Daisy/DaisyExamples/libDaisy/Drivers/CMSIS/Include/cmsis_gcc.h ****  */
 403:/Users/reza.kalfane/Workspaces/Daisy/DaisyExamples/libDaisy/Drivers/CMSIS/Include/cmsis_gcc.h **** __attribute__((always_inline)) __STATIC_INLINE uint32_t __TZ_get_BASEPRI_NS(void)
 404:/Users/reza.kalfane/Workspaces/Daisy/DaisyExamples/libDaisy/Drivers/CMSIS/Include/cmsis_gcc.h **** {
 405:/Users/reza.kalfane/Workspaces/Daisy/DaisyExamples/libDaisy/Drivers/CMSIS/Include/cmsis_gcc.h ****   uint32_t result;
 406:/Users/reza.kalfane/Workspaces/Daisy/DaisyExamples/libDaisy/Drivers/CMSIS/Include/cmsis_gcc.h **** 
 407:/Users/reza.kalfane/Workspaces/Daisy/DaisyExamples/libDaisy/Drivers/CMSIS/Include/cmsis_gcc.h ****   __ASM volatile ("MRS %0, basepri_ns" : "=r" (result) );
 408:/Users/reza.kalfane/Workspaces/Daisy/DaisyExamples/libDaisy/Drivers/CMSIS/Include/cmsis_gcc.h ****   return(result);
 409:/Users/reza.kalfane/Workspaces/Daisy/DaisyExamples/libDaisy/Drivers/CMSIS/Include/cmsis_gcc.h **** }
 410:/Users/reza.kalfane/Workspaces/Daisy/DaisyExamples/libDaisy/Drivers/CMSIS/Include/cmsis_gcc.h **** #endif
 411:/Users/reza.kalfane/Workspaces/Daisy/DaisyExamples/libDaisy/Drivers/CMSIS/Include/cmsis_gcc.h **** 
 412:/Users/reza.kalfane/Workspaces/Daisy/DaisyExamples/libDaisy/Drivers/CMSIS/Include/cmsis_gcc.h **** 
 413:/Users/reza.kalfane/Workspaces/Daisy/DaisyExamples/libDaisy/Drivers/CMSIS/Include/cmsis_gcc.h **** /**
 414:/Users/reza.kalfane/Workspaces/Daisy/DaisyExamples/libDaisy/Drivers/CMSIS/Include/cmsis_gcc.h ****   \brief   Set Base Priority
 415:/Users/reza.kalfane/Workspaces/Daisy/DaisyExamples/libDaisy/Drivers/CMSIS/Include/cmsis_gcc.h ****   \details Assigns the given value to the Base Priority register.
 416:/Users/reza.kalfane/Workspaces/Daisy/DaisyExamples/libDaisy/Drivers/CMSIS/Include/cmsis_gcc.h ****   \param [in]    basePri  Base Priority value to set
 417:/Users/reza.kalfane/Workspaces/Daisy/DaisyExamples/libDaisy/Drivers/CMSIS/Include/cmsis_gcc.h ****  */
 418:/Users/reza.kalfane/Workspaces/Daisy/DaisyExamples/libDaisy/Drivers/CMSIS/Include/cmsis_gcc.h **** __attribute__((always_inline)) __STATIC_INLINE void __set_BASEPRI(uint32_t basePri)
 419:/Users/reza.kalfane/Workspaces/Daisy/DaisyExamples/libDaisy/Drivers/CMSIS/Include/cmsis_gcc.h **** {
 420:/Users/reza.kalfane/Workspaces/Daisy/DaisyExamples/libDaisy/Drivers/CMSIS/Include/cmsis_gcc.h ****   __ASM volatile ("MSR basepri, %0" : : "r" (basePri) : "memory");
 421:/Users/reza.kalfane/Workspaces/Daisy/DaisyExamples/libDaisy/Drivers/CMSIS/Include/cmsis_gcc.h **** }
 422:/Users/reza.kalfane/Workspaces/Daisy/DaisyExamples/libDaisy/Drivers/CMSIS/Include/cmsis_gcc.h **** 
 423:/Users/reza.kalfane/Workspaces/Daisy/DaisyExamples/libDaisy/Drivers/CMSIS/Include/cmsis_gcc.h **** 
 424:/Users/reza.kalfane/Workspaces/Daisy/DaisyExamples/libDaisy/Drivers/CMSIS/Include/cmsis_gcc.h **** #if (defined (__ARM_FEATURE_CMSE ) && (__ARM_FEATURE_CMSE == 3))
 425:/Users/reza.kalfane/Workspaces/Daisy/DaisyExamples/libDaisy/Drivers/CMSIS/Include/cmsis_gcc.h **** /**
 426:/Users/reza.kalfane/Workspaces/Daisy/DaisyExamples/libDaisy/Drivers/CMSIS/Include/cmsis_gcc.h ****   \brief   Set Base Priority (non-secure)
 427:/Users/reza.kalfane/Workspaces/Daisy/DaisyExamples/libDaisy/Drivers/CMSIS/Include/cmsis_gcc.h ****   \details Assigns the given value to the non-secure Base Priority register when in secure state.
 428:/Users/reza.kalfane/Workspaces/Daisy/DaisyExamples/libDaisy/Drivers/CMSIS/Include/cmsis_gcc.h ****   \param [in]    basePri  Base Priority value to set
 429:/Users/reza.kalfane/Workspaces/Daisy/DaisyExamples/libDaisy/Drivers/CMSIS/Include/cmsis_gcc.h ****  */
 430:/Users/reza.kalfane/Workspaces/Daisy/DaisyExamples/libDaisy/Drivers/CMSIS/Include/cmsis_gcc.h **** __attribute__((always_inline)) __STATIC_INLINE void __TZ_set_BASEPRI_NS(uint32_t basePri)
 431:/Users/reza.kalfane/Workspaces/Daisy/DaisyExamples/libDaisy/Drivers/CMSIS/Include/cmsis_gcc.h **** {
 432:/Users/reza.kalfane/Workspaces/Daisy/DaisyExamples/libDaisy/Drivers/CMSIS/Include/cmsis_gcc.h ****   __ASM volatile ("MSR basepri_ns, %0" : : "r" (basePri) : "memory");
 433:/Users/reza.kalfane/Workspaces/Daisy/DaisyExamples/libDaisy/Drivers/CMSIS/Include/cmsis_gcc.h **** }
 434:/Users/reza.kalfane/Workspaces/Daisy/DaisyExamples/libDaisy/Drivers/CMSIS/Include/cmsis_gcc.h **** #endif
 435:/Users/reza.kalfane/Workspaces/Daisy/DaisyExamples/libDaisy/Drivers/CMSIS/Include/cmsis_gcc.h **** 
 436:/Users/reza.kalfane/Workspaces/Daisy/DaisyExamples/libDaisy/Drivers/CMSIS/Include/cmsis_gcc.h **** 
 437:/Users/reza.kalfane/Workspaces/Daisy/DaisyExamples/libDaisy/Drivers/CMSIS/Include/cmsis_gcc.h **** /**
 438:/Users/reza.kalfane/Workspaces/Daisy/DaisyExamples/libDaisy/Drivers/CMSIS/Include/cmsis_gcc.h ****   \brief   Set Base Priority with condition
 439:/Users/reza.kalfane/Workspaces/Daisy/DaisyExamples/libDaisy/Drivers/CMSIS/Include/cmsis_gcc.h ****   \details Assigns the given value to the Base Priority register only if BASEPRI masking is disable
 440:/Users/reza.kalfane/Workspaces/Daisy/DaisyExamples/libDaisy/Drivers/CMSIS/Include/cmsis_gcc.h ****            or the new value increases the BASEPRI priority level.
 441:/Users/reza.kalfane/Workspaces/Daisy/DaisyExamples/libDaisy/Drivers/CMSIS/Include/cmsis_gcc.h ****   \param [in]    basePri  Base Priority value to set
 442:/Users/reza.kalfane/Workspaces/Daisy/DaisyExamples/libDaisy/Drivers/CMSIS/Include/cmsis_gcc.h ****  */
 443:/Users/reza.kalfane/Workspaces/Daisy/DaisyExamples/libDaisy/Drivers/CMSIS/Include/cmsis_gcc.h **** __attribute__((always_inline)) __STATIC_INLINE void __set_BASEPRI_MAX(uint32_t basePri)
 444:/Users/reza.kalfane/Workspaces/Daisy/DaisyExamples/libDaisy/Drivers/CMSIS/Include/cmsis_gcc.h **** {
 445:/Users/reza.kalfane/Workspaces/Daisy/DaisyExamples/libDaisy/Drivers/CMSIS/Include/cmsis_gcc.h ****   __ASM volatile ("MSR basepri_max, %0" : : "r" (basePri) : "memory");
 446:/Users/reza.kalfane/Workspaces/Daisy/DaisyExamples/libDaisy/Drivers/CMSIS/Include/cmsis_gcc.h **** }
 447:/Users/reza.kalfane/Workspaces/Daisy/DaisyExamples/libDaisy/Drivers/CMSIS/Include/cmsis_gcc.h **** 
 448:/Users/reza.kalfane/Workspaces/Daisy/DaisyExamples/libDaisy/Drivers/CMSIS/Include/cmsis_gcc.h **** 
 449:/Users/reza.kalfane/Workspaces/Daisy/DaisyExamples/libDaisy/Drivers/CMSIS/Include/cmsis_gcc.h **** /**
 450:/Users/reza.kalfane/Workspaces/Daisy/DaisyExamples/libDaisy/Drivers/CMSIS/Include/cmsis_gcc.h ****   \brief   Get Fault Mask
 451:/Users/reza.kalfane/Workspaces/Daisy/DaisyExamples/libDaisy/Drivers/CMSIS/Include/cmsis_gcc.h ****   \details Returns the current value of the Fault Mask register.
 452:/Users/reza.kalfane/Workspaces/Daisy/DaisyExamples/libDaisy/Drivers/CMSIS/Include/cmsis_gcc.h ****   \return               Fault Mask register value
 453:/Users/reza.kalfane/Workspaces/Daisy/DaisyExamples/libDaisy/Drivers/CMSIS/Include/cmsis_gcc.h ****  */
 454:/Users/reza.kalfane/Workspaces/Daisy/DaisyExamples/libDaisy/Drivers/CMSIS/Include/cmsis_gcc.h **** __attribute__((always_inline)) __STATIC_INLINE uint32_t __get_FAULTMASK(void)
 455:/Users/reza.kalfane/Workspaces/Daisy/DaisyExamples/libDaisy/Drivers/CMSIS/Include/cmsis_gcc.h **** {
ARM GAS  /tmp/claude-502/ccFotbfS.s 			page 106


 456:/Users/reza.kalfane/Workspaces/Daisy/DaisyExamples/libDaisy/Drivers/CMSIS/Include/cmsis_gcc.h ****   uint32_t result;
 457:/Users/reza.kalfane/Workspaces/Daisy/DaisyExamples/libDaisy/Drivers/CMSIS/Include/cmsis_gcc.h **** 
 458:/Users/reza.kalfane/Workspaces/Daisy/DaisyExamples/libDaisy/Drivers/CMSIS/Include/cmsis_gcc.h ****   __ASM volatile ("MRS %0, faultmask" : "=r" (result) );
 459:/Users/reza.kalfane/Workspaces/Daisy/DaisyExamples/libDaisy/Drivers/CMSIS/Include/cmsis_gcc.h ****   return(result);
 460:/Users/reza.kalfane/Workspaces/Daisy/DaisyExamples/libDaisy/Drivers/CMSIS/Include/cmsis_gcc.h **** }
 461:/Users/reza.kalfane/Workspaces/Daisy/DaisyExamples/libDaisy/Drivers/CMSIS/Include/cmsis_gcc.h **** 
 462:/Users/reza.kalfane/Workspaces/Daisy/DaisyExamples/libDaisy/Drivers/CMSIS/Include/cmsis_gcc.h **** 
 463:/Users/reza.kalfane/Workspaces/Daisy/DaisyExamples/libDaisy/Drivers/CMSIS/Include/cmsis_gcc.h **** #if (defined (__ARM_FEATURE_CMSE ) && (__ARM_FEATURE_CMSE == 3))
 464:/Users/reza.kalfane/Workspaces/Daisy/DaisyExamples/libDaisy/Drivers/CMSIS/Include/cmsis_gcc.h **** /**
 465:/Users/reza.kalfane/Workspaces/Daisy/DaisyExamples/libDaisy/Drivers/CMSIS/Include/cmsis_gcc.h ****   \brief   Get Fault Mask (non-secure)
 466:/Users/reza.kalfane/Workspaces/Daisy/DaisyExamples/libDaisy/Drivers/CMSIS/Include/cmsis_gcc.h ****   \details Returns the current value of the non-secure Fault Mask register when in secure state.
 467:/Users/reza.kalfane/Workspaces/Daisy/DaisyExamples/libDaisy/Drivers/CMSIS/Include/cmsis_gcc.h ****   \return               Fault Mask register value
 468:/Users/reza.kalfane/Workspaces/Daisy/DaisyExamples/libDaisy/Drivers/CMSIS/Include/cmsis_gcc.h ****  */
 469:/Users/reza.kalfane/Workspaces/Daisy/DaisyExamples/libDaisy/Drivers/CMSIS/Include/cmsis_gcc.h **** __attribute__((always_inline)) __STATIC_INLINE uint32_t __TZ_get_FAULTMASK_NS(void)
 470:/Users/reza.kalfane/Workspaces/Daisy/DaisyExamples/libDaisy/Drivers/CMSIS/Include/cmsis_gcc.h **** {
 471:/Users/reza.kalfane/Workspaces/Daisy/DaisyExamples/libDaisy/Drivers/CMSIS/Include/cmsis_gcc.h ****   uint32_t result;
 472:/Users/reza.kalfane/Workspaces/Daisy/DaisyExamples/libDaisy/Drivers/CMSIS/Include/cmsis_gcc.h **** 
 473:/Users/reza.kalfane/Workspaces/Daisy/DaisyExamples/libDaisy/Drivers/CMSIS/Include/cmsis_gcc.h ****   __ASM volatile ("MRS %0, faultmask_ns" : "=r" (result) );
 474:/Users/reza.kalfane/Workspaces/Daisy/DaisyExamples/libDaisy/Drivers/CMSIS/Include/cmsis_gcc.h ****   return(result);
 475:/Users/reza.kalfane/Workspaces/Daisy/DaisyExamples/libDaisy/Drivers/CMSIS/Include/cmsis_gcc.h **** }
 476:/Users/reza.kalfane/Workspaces/Daisy/DaisyExamples/libDaisy/Drivers/CMSIS/Include/cmsis_gcc.h **** #endif
 477:/Users/reza.kalfane/Workspaces/Daisy/DaisyExamples/libDaisy/Drivers/CMSIS/Include/cmsis_gcc.h **** 
 478:/Users/reza.kalfane/Workspaces/Daisy/DaisyExamples/libDaisy/Drivers/CMSIS/Include/cmsis_gcc.h **** 
 479:/Users/reza.kalfane/Workspaces/Daisy/DaisyExamples/libDaisy/Drivers/CMSIS/Include/cmsis_gcc.h **** /**
 480:/Users/reza.kalfane/Workspaces/Daisy/DaisyExamples/libDaisy/Drivers/CMSIS/Include/cmsis_gcc.h ****   \brief   Set Fault Mask
 481:/Users/reza.kalfane/Workspaces/Daisy/DaisyExamples/libDaisy/Drivers/CMSIS/Include/cmsis_gcc.h ****   \details Assigns the given value to the Fault Mask register.
 482:/Users/reza.kalfane/Workspaces/Daisy/DaisyExamples/libDaisy/Drivers/CMSIS/Include/cmsis_gcc.h ****   \param [in]    faultMask  Fault Mask value to set
 483:/Users/reza.kalfane/Workspaces/Daisy/DaisyExamples/libDaisy/Drivers/CMSIS/Include/cmsis_gcc.h ****  */
 484:/Users/reza.kalfane/Workspaces/Daisy/DaisyExamples/libDaisy/Drivers/CMSIS/Include/cmsis_gcc.h **** __attribute__((always_inline)) __STATIC_INLINE void __set_FAULTMASK(uint32_t faultMask)
 485:/Users/reza.kalfane/Workspaces/Daisy/DaisyExamples/libDaisy/Drivers/CMSIS/Include/cmsis_gcc.h **** {
 486:/Users/reza.kalfane/Workspaces/Daisy/DaisyExamples/libDaisy/Drivers/CMSIS/Include/cmsis_gcc.h ****   __ASM volatile ("MSR faultmask, %0" : : "r" (faultMask) : "memory");
 487:/Users/reza.kalfane/Workspaces/Daisy/DaisyExamples/libDaisy/Drivers/CMSIS/Include/cmsis_gcc.h **** }
 488:/Users/reza.kalfane/Workspaces/Daisy/DaisyExamples/libDaisy/Drivers/CMSIS/Include/cmsis_gcc.h **** 
 489:/Users/reza.kalfane/Workspaces/Daisy/DaisyExamples/libDaisy/Drivers/CMSIS/Include/cmsis_gcc.h **** 
 490:/Users/reza.kalfane/Workspaces/Daisy/DaisyExamples/libDaisy/Drivers/CMSIS/Include/cmsis_gcc.h **** #if (defined (__ARM_FEATURE_CMSE ) && (__ARM_FEATURE_CMSE == 3))
 491:/Users/reza.kalfane/Workspaces/Daisy/DaisyExamples/libDaisy/Drivers/CMSIS/Include/cmsis_gcc.h **** /**
 492:/Users/reza.kalfane/Workspaces/Daisy/DaisyExamples/libDaisy/Drivers/CMSIS/Include/cmsis_gcc.h ****   \brief   Set Fault Mask (non-secure)
 493:/Users/reza.kalfane/Workspaces/Daisy/DaisyExamples/libDaisy/Drivers/CMSIS/Include/cmsis_gcc.h ****   \details Assigns the given value to the non-secure Fault Mask register when in secure state.
 494:/Users/reza.kalfane/Workspaces/Daisy/DaisyExamples/libDaisy/Drivers/CMSIS/Include/cmsis_gcc.h ****   \param [in]    faultMask  Fault Mask value to set
 495:/Users/reza.kalfane/Workspaces/Daisy/DaisyExamples/libDaisy/Drivers/CMSIS/Include/cmsis_gcc.h ****  */
 496:/Users/reza.kalfane/Workspaces/Daisy/DaisyExamples/libDaisy/Drivers/CMSIS/Include/cmsis_gcc.h **** __attribute__((always_inline)) __STATIC_INLINE void __TZ_set_FAULTMASK_NS(uint32_t faultMask)
 497:/Users/reza.kalfane/Workspaces/Daisy/DaisyExamples/libDaisy/Drivers/CMSIS/Include/cmsis_gcc.h **** {
 498:/Users/reza.kalfane/Workspaces/Daisy/DaisyExamples/libDaisy/Drivers/CMSIS/Include/cmsis_gcc.h ****   __ASM volatile ("MSR faultmask_ns, %0" : : "r" (faultMask) : "memory");
 499:/Users/reza.kalfane/Workspaces/Daisy/DaisyExamples/libDaisy/Drivers/CMSIS/Include/cmsis_gcc.h **** }
 500:/Users/reza.kalfane/Workspaces/Daisy/DaisyExamples/libDaisy/Drivers/CMSIS/Include/cmsis_gcc.h **** #endif
 501:/Users/reza.kalfane/Workspaces/Daisy/DaisyExamples/libDaisy/Drivers/CMSIS/Include/cmsis_gcc.h **** 
 502:/Users/reza.kalfane/Workspaces/Daisy/DaisyExamples/libDaisy/Drivers/CMSIS/Include/cmsis_gcc.h **** #endif /* ((defined (__ARM_ARCH_7M__      ) && (__ARM_ARCH_7M__      == 1)) || \
 503:/Users/reza.kalfane/Workspaces/Daisy/DaisyExamples/libDaisy/Drivers/CMSIS/Include/cmsis_gcc.h ****            (defined (__ARM_ARCH_7EM__     ) && (__ARM_ARCH_7EM__     == 1)) || \
 504:/Users/reza.kalfane/Workspaces/Daisy/DaisyExamples/libDaisy/Drivers/CMSIS/Include/cmsis_gcc.h ****            (defined (__ARM_ARCH_8M_MAIN__ ) && (__ARM_ARCH_8M_MAIN__ == 1))    ) */
 505:/Users/reza.kalfane/Workspaces/Daisy/DaisyExamples/libDaisy/Drivers/CMSIS/Include/cmsis_gcc.h **** 
 506:/Users/reza.kalfane/Workspaces/Daisy/DaisyExamples/libDaisy/Drivers/CMSIS/Include/cmsis_gcc.h **** 
 507:/Users/reza.kalfane/Workspaces/Daisy/DaisyExamples/libDaisy/Drivers/CMSIS/Include/cmsis_gcc.h **** #if ((defined (__ARM_ARCH_8M_MAIN__ ) && (__ARM_ARCH_8M_MAIN__ == 1)) || \
 508:/Users/reza.kalfane/Workspaces/Daisy/DaisyExamples/libDaisy/Drivers/CMSIS/Include/cmsis_gcc.h ****      (defined (__ARM_ARCH_8M_BASE__ ) && (__ARM_ARCH_8M_BASE__ == 1))    )
 509:/Users/reza.kalfane/Workspaces/Daisy/DaisyExamples/libDaisy/Drivers/CMSIS/Include/cmsis_gcc.h **** 
 510:/Users/reza.kalfane/Workspaces/Daisy/DaisyExamples/libDaisy/Drivers/CMSIS/Include/cmsis_gcc.h **** /**
 511:/Users/reza.kalfane/Workspaces/Daisy/DaisyExamples/libDaisy/Drivers/CMSIS/Include/cmsis_gcc.h ****   \brief   Get Process Stack Pointer Limit
 512:/Users/reza.kalfane/Workspaces/Daisy/DaisyExamples/libDaisy/Drivers/CMSIS/Include/cmsis_gcc.h ****   \details Returns the current value of the Process Stack Pointer Limit (PSPLIM).
ARM GAS  /tmp/claude-502/ccFotbfS.s 			page 107


 513:/Users/reza.kalfane/Workspaces/Daisy/DaisyExamples/libDaisy/Drivers/CMSIS/Include/cmsis_gcc.h ****   \return               PSPLIM Register value
 514:/Users/reza.kalfane/Workspaces/Daisy/DaisyExamples/libDaisy/Drivers/CMSIS/Include/cmsis_gcc.h ****  */
 515:/Users/reza.kalfane/Workspaces/Daisy/DaisyExamples/libDaisy/Drivers/CMSIS/Include/cmsis_gcc.h **** __attribute__((always_inline)) __STATIC_INLINE uint32_t __get_PSPLIM(void)
 516:/Users/reza.kalfane/Workspaces/Daisy/DaisyExamples/libDaisy/Drivers/CMSIS/Include/cmsis_gcc.h **** {
 517:/Users/reza.kalfane/Workspaces/Daisy/DaisyExamples/libDaisy/Drivers/CMSIS/Include/cmsis_gcc.h ****   register uint32_t result;
 518:/Users/reza.kalfane/Workspaces/Daisy/DaisyExamples/libDaisy/Drivers/CMSIS/Include/cmsis_gcc.h **** 
 519:/Users/reza.kalfane/Workspaces/Daisy/DaisyExamples/libDaisy/Drivers/CMSIS/Include/cmsis_gcc.h ****   __ASM volatile ("MRS %0, psplim"  : "=r" (result) );
 520:/Users/reza.kalfane/Workspaces/Daisy/DaisyExamples/libDaisy/Drivers/CMSIS/Include/cmsis_gcc.h ****   return(result);
 521:/Users/reza.kalfane/Workspaces/Daisy/DaisyExamples/libDaisy/Drivers/CMSIS/Include/cmsis_gcc.h **** }
 522:/Users/reza.kalfane/Workspaces/Daisy/DaisyExamples/libDaisy/Drivers/CMSIS/Include/cmsis_gcc.h **** 
 523:/Users/reza.kalfane/Workspaces/Daisy/DaisyExamples/libDaisy/Drivers/CMSIS/Include/cmsis_gcc.h **** 
 524:/Users/reza.kalfane/Workspaces/Daisy/DaisyExamples/libDaisy/Drivers/CMSIS/Include/cmsis_gcc.h **** #if ((defined (__ARM_FEATURE_CMSE  ) && (__ARM_FEATURE_CMSE   == 3)) && \
 525:/Users/reza.kalfane/Workspaces/Daisy/DaisyExamples/libDaisy/Drivers/CMSIS/Include/cmsis_gcc.h ****      (defined (__ARM_ARCH_8M_MAIN__) && (__ARM_ARCH_8M_MAIN__ == 1))    )
 526:/Users/reza.kalfane/Workspaces/Daisy/DaisyExamples/libDaisy/Drivers/CMSIS/Include/cmsis_gcc.h **** /**
 527:/Users/reza.kalfane/Workspaces/Daisy/DaisyExamples/libDaisy/Drivers/CMSIS/Include/cmsis_gcc.h ****   \brief   Get Process Stack Pointer Limit (non-secure)
 528:/Users/reza.kalfane/Workspaces/Daisy/DaisyExamples/libDaisy/Drivers/CMSIS/Include/cmsis_gcc.h ****   \details Returns the current value of the non-secure Process Stack Pointer Limit (PSPLIM) when in
 529:/Users/reza.kalfane/Workspaces/Daisy/DaisyExamples/libDaisy/Drivers/CMSIS/Include/cmsis_gcc.h ****   \return               PSPLIM Register value
 530:/Users/reza.kalfane/Workspaces/Daisy/DaisyExamples/libDaisy/Drivers/CMSIS/Include/cmsis_gcc.h ****  */
 531:/Users/reza.kalfane/Workspaces/Daisy/DaisyExamples/libDaisy/Drivers/CMSIS/Include/cmsis_gcc.h **** __attribute__((always_inline)) __STATIC_INLINE uint32_t __TZ_get_PSPLIM_NS(void)
 532:/Users/reza.kalfane/Workspaces/Daisy/DaisyExamples/libDaisy/Drivers/CMSIS/Include/cmsis_gcc.h **** {
 533:/Users/reza.kalfane/Workspaces/Daisy/DaisyExamples/libDaisy/Drivers/CMSIS/Include/cmsis_gcc.h ****   register uint32_t result;
 534:/Users/reza.kalfane/Workspaces/Daisy/DaisyExamples/libDaisy/Drivers/CMSIS/Include/cmsis_gcc.h **** 
 535:/Users/reza.kalfane/Workspaces/Daisy/DaisyExamples/libDaisy/Drivers/CMSIS/Include/cmsis_gcc.h ****   __ASM volatile ("MRS %0, psplim_ns"  : "=r" (result) );
 536:/Users/reza.kalfane/Workspaces/Daisy/DaisyExamples/libDaisy/Drivers/CMSIS/Include/cmsis_gcc.h ****   return(result);
 537:/Users/reza.kalfane/Workspaces/Daisy/DaisyExamples/libDaisy/Drivers/CMSIS/Include/cmsis_gcc.h **** }
 538:/Users/reza.kalfane/Workspaces/Daisy/DaisyExamples/libDaisy/Drivers/CMSIS/Include/cmsis_gcc.h **** #endif
 539:/Users/reza.kalfane/Workspaces/Daisy/DaisyExamples/libDaisy/Drivers/CMSIS/Include/cmsis_gcc.h **** 
 540:/Users/reza.kalfane/Workspaces/Daisy/DaisyExamples/libDaisy/Drivers/CMSIS/Include/cmsis_gcc.h **** 
 541:/Users/reza.kalfane/Workspaces/Daisy/DaisyExamples/libDaisy/Drivers/CMSIS/Include/cmsis_gcc.h **** /**
 542:/Users/reza.kalfane/Workspaces/Daisy/DaisyExamples/libDaisy/Drivers/CMSIS/Include/cmsis_gcc.h ****   \brief   Set Process Stack Pointer Limit
 543:/Users/reza.kalfane/Workspaces/Daisy/DaisyExamples/libDaisy/Drivers/CMSIS/Include/cmsis_gcc.h ****   \details Assigns the given value to the Process Stack Pointer Limit (PSPLIM).
 544:/Users/reza.kalfane/Workspaces/Daisy/DaisyExamples/libDaisy/Drivers/CMSIS/Include/cmsis_gcc.h ****   \param [in]    ProcStackPtrLimit  Process Stack Pointer Limit value to set
 545:/Users/reza.kalfane/Workspaces/Daisy/DaisyExamples/libDaisy/Drivers/CMSIS/Include/cmsis_gcc.h ****  */
 546:/Users/reza.kalfane/Workspaces/Daisy/DaisyExamples/libDaisy/Drivers/CMSIS/Include/cmsis_gcc.h **** __attribute__((always_inline)) __STATIC_INLINE void __set_PSPLIM(uint32_t ProcStackPtrLimit)
 547:/Users/reza.kalfane/Workspaces/Daisy/DaisyExamples/libDaisy/Drivers/CMSIS/Include/cmsis_gcc.h **** {
 548:/Users/reza.kalfane/Workspaces/Daisy/DaisyExamples/libDaisy/Drivers/CMSIS/Include/cmsis_gcc.h ****   __ASM volatile ("MSR psplim, %0" : : "r" (ProcStackPtrLimit));
 549:/Users/reza.kalfane/Workspaces/Daisy/DaisyExamples/libDaisy/Drivers/CMSIS/Include/cmsis_gcc.h **** }
 550:/Users/reza.kalfane/Workspaces/Daisy/DaisyExamples/libDaisy/Drivers/CMSIS/Include/cmsis_gcc.h **** 
 551:/Users/reza.kalfane/Workspaces/Daisy/DaisyExamples/libDaisy/Drivers/CMSIS/Include/cmsis_gcc.h **** 
 552:/Users/reza.kalfane/Workspaces/Daisy/DaisyExamples/libDaisy/Drivers/CMSIS/Include/cmsis_gcc.h **** #if ((defined (__ARM_FEATURE_CMSE  ) && (__ARM_FEATURE_CMSE   == 3)) && \
 553:/Users/reza.kalfane/Workspaces/Daisy/DaisyExamples/libDaisy/Drivers/CMSIS/Include/cmsis_gcc.h ****      (defined (__ARM_ARCH_8M_MAIN__) && (__ARM_ARCH_8M_MAIN__ == 1))    )
 554:/Users/reza.kalfane/Workspaces/Daisy/DaisyExamples/libDaisy/Drivers/CMSIS/Include/cmsis_gcc.h **** /**
 555:/Users/reza.kalfane/Workspaces/Daisy/DaisyExamples/libDaisy/Drivers/CMSIS/Include/cmsis_gcc.h ****   \brief   Set Process Stack Pointer (non-secure)
 556:/Users/reza.kalfane/Workspaces/Daisy/DaisyExamples/libDaisy/Drivers/CMSIS/Include/cmsis_gcc.h ****   \details Assigns the given value to the non-secure Process Stack Pointer Limit (PSPLIM) when in s
 557:/Users/reza.kalfane/Workspaces/Daisy/DaisyExamples/libDaisy/Drivers/CMSIS/Include/cmsis_gcc.h ****   \param [in]    ProcStackPtrLimit  Process Stack Pointer Limit value to set
 558:/Users/reza.kalfane/Workspaces/Daisy/DaisyExamples/libDaisy/Drivers/CMSIS/Include/cmsis_gcc.h ****  */
 559:/Users/reza.kalfane/Workspaces/Daisy/DaisyExamples/libDaisy/Drivers/CMSIS/Include/cmsis_gcc.h **** __attribute__((always_inline)) __STATIC_INLINE void __TZ_set_PSPLIM_NS(uint32_t ProcStackPtrLimit)
 560:/Users/reza.kalfane/Workspaces/Daisy/DaisyExamples/libDaisy/Drivers/CMSIS/Include/cmsis_gcc.h **** {
 561:/Users/reza.kalfane/Workspaces/Daisy/DaisyExamples/libDaisy/Drivers/CMSIS/Include/cmsis_gcc.h ****   __ASM volatile ("MSR psplim_ns, %0\n" : : "r" (ProcStackPtrLimit));
 562:/Users/reza.kalfane/Workspaces/Daisy/DaisyExamples/libDaisy/Drivers/CMSIS/Include/cmsis_gcc.h **** }
 563:/Users/reza.kalfane/Workspaces/Daisy/DaisyExamples/libDaisy/Drivers/CMSIS/Include/cmsis_gcc.h **** #endif
 564:/Users/reza.kalfane/Workspaces/Daisy/DaisyExamples/libDaisy/Drivers/CMSIS/Include/cmsis_gcc.h **** 
 565:/Users/reza.kalfane/Workspaces/Daisy/DaisyExamples/libDaisy/Drivers/CMSIS/Include/cmsis_gcc.h **** 
 566:/Users/reza.kalfane/Workspaces/Daisy/DaisyExamples/libDaisy/Drivers/CMSIS/Include/cmsis_gcc.h **** /**
 567:/Users/reza.kalfane/Workspaces/Daisy/DaisyExamples/libDaisy/Drivers/CMSIS/Include/cmsis_gcc.h ****   \brief   Get Main Stack Pointer Limit
 568:/Users/reza.kalfane/Workspaces/Daisy/DaisyExamples/libDaisy/Drivers/CMSIS/Include/cmsis_gcc.h ****   \details Returns the current value of the Main Stack Pointer Limit (MSPLIM).
 569:/Users/reza.kalfane/Workspaces/Daisy/DaisyExamples/libDaisy/Drivers/CMSIS/Include/cmsis_gcc.h ****   \return               MSPLIM Register value
ARM GAS  /tmp/claude-502/ccFotbfS.s 			page 108


 570:/Users/reza.kalfane/Workspaces/Daisy/DaisyExamples/libDaisy/Drivers/CMSIS/Include/cmsis_gcc.h ****  */
 571:/Users/reza.kalfane/Workspaces/Daisy/DaisyExamples/libDaisy/Drivers/CMSIS/Include/cmsis_gcc.h **** __attribute__((always_inline)) __STATIC_INLINE uint32_t __get_MSPLIM(void)
 572:/Users/reza.kalfane/Workspaces/Daisy/DaisyExamples/libDaisy/Drivers/CMSIS/Include/cmsis_gcc.h **** {
 573:/Users/reza.kalfane/Workspaces/Daisy/DaisyExamples/libDaisy/Drivers/CMSIS/Include/cmsis_gcc.h ****   register uint32_t result;
 574:/Users/reza.kalfane/Workspaces/Daisy/DaisyExamples/libDaisy/Drivers/CMSIS/Include/cmsis_gcc.h **** 
 575:/Users/reza.kalfane/Workspaces/Daisy/DaisyExamples/libDaisy/Drivers/CMSIS/Include/cmsis_gcc.h ****   __ASM volatile ("MRS %0, msplim" : "=r" (result) );
 576:/Users/reza.kalfane/Workspaces/Daisy/DaisyExamples/libDaisy/Drivers/CMSIS/Include/cmsis_gcc.h **** 
 577:/Users/reza.kalfane/Workspaces/Daisy/DaisyExamples/libDaisy/Drivers/CMSIS/Include/cmsis_gcc.h ****   return(result);
 578:/Users/reza.kalfane/Workspaces/Daisy/DaisyExamples/libDaisy/Drivers/CMSIS/Include/cmsis_gcc.h **** }
 579:/Users/reza.kalfane/Workspaces/Daisy/DaisyExamples/libDaisy/Drivers/CMSIS/Include/cmsis_gcc.h **** 
 580:/Users/reza.kalfane/Workspaces/Daisy/DaisyExamples/libDaisy/Drivers/CMSIS/Include/cmsis_gcc.h **** 
 581:/Users/reza.kalfane/Workspaces/Daisy/DaisyExamples/libDaisy/Drivers/CMSIS/Include/cmsis_gcc.h **** #if ((defined (__ARM_FEATURE_CMSE  ) && (__ARM_FEATURE_CMSE   == 3)) && \
 582:/Users/reza.kalfane/Workspaces/Daisy/DaisyExamples/libDaisy/Drivers/CMSIS/Include/cmsis_gcc.h ****      (defined (__ARM_ARCH_8M_MAIN__) && (__ARM_ARCH_8M_MAIN__ == 1))    )
 583:/Users/reza.kalfane/Workspaces/Daisy/DaisyExamples/libDaisy/Drivers/CMSIS/Include/cmsis_gcc.h **** /**
 584:/Users/reza.kalfane/Workspaces/Daisy/DaisyExamples/libDaisy/Drivers/CMSIS/Include/cmsis_gcc.h ****   \brief   Get Main Stack Pointer Limit (non-secure)
 585:/Users/reza.kalfane/Workspaces/Daisy/DaisyExamples/libDaisy/Drivers/CMSIS/Include/cmsis_gcc.h ****   \details Returns the current value of the non-secure Main Stack Pointer Limit(MSPLIM) when in sec
 586:/Users/reza.kalfane/Workspaces/Daisy/DaisyExamples/libDaisy/Drivers/CMSIS/Include/cmsis_gcc.h ****   \return               MSPLIM Register value
 587:/Users/reza.kalfane/Workspaces/Daisy/DaisyExamples/libDaisy/Drivers/CMSIS/Include/cmsis_gcc.h ****  */
 588:/Users/reza.kalfane/Workspaces/Daisy/DaisyExamples/libDaisy/Drivers/CMSIS/Include/cmsis_gcc.h **** __attribute__((always_inline)) __STATIC_INLINE uint32_t __TZ_get_MSPLIM_NS(void)
 589:/Users/reza.kalfane/Workspaces/Daisy/DaisyExamples/libDaisy/Drivers/CMSIS/Include/cmsis_gcc.h **** {
 590:/Users/reza.kalfane/Workspaces/Daisy/DaisyExamples/libDaisy/Drivers/CMSIS/Include/cmsis_gcc.h ****   register uint32_t result;
 591:/Users/reza.kalfane/Workspaces/Daisy/DaisyExamples/libDaisy/Drivers/CMSIS/Include/cmsis_gcc.h **** 
 592:/Users/reza.kalfane/Workspaces/Daisy/DaisyExamples/libDaisy/Drivers/CMSIS/Include/cmsis_gcc.h ****   __ASM volatile ("MRS %0, msplim_ns" : "=r" (result) );
 593:/Users/reza.kalfane/Workspaces/Daisy/DaisyExamples/libDaisy/Drivers/CMSIS/Include/cmsis_gcc.h ****   return(result);
 594:/Users/reza.kalfane/Workspaces/Daisy/DaisyExamples/libDaisy/Drivers/CMSIS/Include/cmsis_gcc.h **** }
 595:/Users/reza.kalfane/Workspaces/Daisy/DaisyExamples/libDaisy/Drivers/CMSIS/Include/cmsis_gcc.h **** #endif
 596:/Users/reza.kalfane/Workspaces/Daisy/DaisyExamples/libDaisy/Drivers/CMSIS/Include/cmsis_gcc.h **** 
 597:/Users/reza.kalfane/Workspaces/Daisy/DaisyExamples/libDaisy/Drivers/CMSIS/Include/cmsis_gcc.h **** 
 598:/Users/reza.kalfane/Workspaces/Daisy/DaisyExamples/libDaisy/Drivers/CMSIS/Include/cmsis_gcc.h **** /**
 599:/Users/reza.kalfane/Workspaces/Daisy/DaisyExamples/libDaisy/Drivers/CMSIS/Include/cmsis_gcc.h ****   \brief   Set Main Stack Pointer Limit
 600:/Users/reza.kalfane/Workspaces/Daisy/DaisyExamples/libDaisy/Drivers/CMSIS/Include/cmsis_gcc.h ****   \details Assigns the given value to the Main Stack Pointer Limit (MSPLIM).
 601:/Users/reza.kalfane/Workspaces/Daisy/DaisyExamples/libDaisy/Drivers/CMSIS/Include/cmsis_gcc.h ****   \param [in]    MainStackPtrLimit  Main Stack Pointer Limit value to set
 602:/Users/reza.kalfane/Workspaces/Daisy/DaisyExamples/libDaisy/Drivers/CMSIS/Include/cmsis_gcc.h ****  */
 603:/Users/reza.kalfane/Workspaces/Daisy/DaisyExamples/libDaisy/Drivers/CMSIS/Include/cmsis_gcc.h **** __attribute__((always_inline)) __STATIC_INLINE void __set_MSPLIM(uint32_t MainStackPtrLimit)
 604:/Users/reza.kalfane/Workspaces/Daisy/DaisyExamples/libDaisy/Drivers/CMSIS/Include/cmsis_gcc.h **** {
 605:/Users/reza.kalfane/Workspaces/Daisy/DaisyExamples/libDaisy/Drivers/CMSIS/Include/cmsis_gcc.h ****   __ASM volatile ("MSR msplim, %0" : : "r" (MainStackPtrLimit));
 606:/Users/reza.kalfane/Workspaces/Daisy/DaisyExamples/libDaisy/Drivers/CMSIS/Include/cmsis_gcc.h **** }
 607:/Users/reza.kalfane/Workspaces/Daisy/DaisyExamples/libDaisy/Drivers/CMSIS/Include/cmsis_gcc.h **** 
 608:/Users/reza.kalfane/Workspaces/Daisy/DaisyExamples/libDaisy/Drivers/CMSIS/Include/cmsis_gcc.h **** 
 609:/Users/reza.kalfane/Workspaces/Daisy/DaisyExamples/libDaisy/Drivers/CMSIS/Include/cmsis_gcc.h **** #if ((defined (__ARM_FEATURE_CMSE  ) && (__ARM_FEATURE_CMSE   == 3)) && \
 610:/Users/reza.kalfane/Workspaces/Daisy/DaisyExamples/libDaisy/Drivers/CMSIS/Include/cmsis_gcc.h ****      (defined (__ARM_ARCH_8M_MAIN__) && (__ARM_ARCH_8M_MAIN__ == 1))    )
 611:/Users/reza.kalfane/Workspaces/Daisy/DaisyExamples/libDaisy/Drivers/CMSIS/Include/cmsis_gcc.h **** /**
 612:/Users/reza.kalfane/Workspaces/Daisy/DaisyExamples/libDaisy/Drivers/CMSIS/Include/cmsis_gcc.h ****   \brief   Set Main Stack Pointer Limit (non-secure)
 613:/Users/reza.kalfane/Workspaces/Daisy/DaisyExamples/libDaisy/Drivers/CMSIS/Include/cmsis_gcc.h ****   \details Assigns the given value to the non-secure Main Stack Pointer Limit (MSPLIM) when in secu
 614:/Users/reza.kalfane/Workspaces/Daisy/DaisyExamples/libDaisy/Drivers/CMSIS/Include/cmsis_gcc.h ****   \param [in]    MainStackPtrLimit  Main Stack Pointer value to set
 615:/Users/reza.kalfane/Workspaces/Daisy/DaisyExamples/libDaisy/Drivers/CMSIS/Include/cmsis_gcc.h ****  */
 616:/Users/reza.kalfane/Workspaces/Daisy/DaisyExamples/libDaisy/Drivers/CMSIS/Include/cmsis_gcc.h **** __attribute__((always_inline)) __STATIC_INLINE void __TZ_set_MSPLIM_NS(uint32_t MainStackPtrLimit)
 617:/Users/reza.kalfane/Workspaces/Daisy/DaisyExamples/libDaisy/Drivers/CMSIS/Include/cmsis_gcc.h **** {
 618:/Users/reza.kalfane/Workspaces/Daisy/DaisyExamples/libDaisy/Drivers/CMSIS/Include/cmsis_gcc.h ****   __ASM volatile ("MSR msplim_ns, %0" : : "r" (MainStackPtrLimit));
 619:/Users/reza.kalfane/Workspaces/Daisy/DaisyExamples/libDaisy/Drivers/CMSIS/Include/cmsis_gcc.h **** }
 620:/Users/reza.kalfane/Workspaces/Daisy/DaisyExamples/libDaisy/Drivers/CMSIS/Include/cmsis_gcc.h **** #endif
 621:/Users/reza.kalfane/Workspaces/Daisy/DaisyExamples/libDaisy/Drivers/CMSIS/Include/cmsis_gcc.h **** 
 622:/Users/reza.kalfane/Workspaces/Daisy/DaisyExamples/libDaisy/Drivers/CMSIS/Include/cmsis_gcc.h **** #endif /* ((defined (__ARM_ARCH_8M_MAIN__ ) && (__ARM_ARCH_8M_MAIN__ == 1)) || \
 623:/Users/reza.kalfane/Workspaces/Daisy/DaisyExamples/libDaisy/Drivers/CMSIS/Include/cmsis_gcc.h ****            (defined (__ARM_ARCH_8M_BASE__ ) && (__ARM_ARCH_8M_BASE__ == 1))    ) */
 624:/Users/reza.kalfane/Workspaces/Daisy/DaisyExamples/libDaisy/Drivers/CMSIS/Include/cmsis_gcc.h **** 
 625:/Users/reza.kalfane/Workspaces/Daisy/DaisyExamples/libDaisy/Drivers/CMSIS/Include/cmsis_gcc.h **** 
 626:/Users/reza.kalfane/Workspaces/Daisy/DaisyExamples/libDaisy/Drivers/CMSIS/Include/cmsis_gcc.h **** #if ((defined (__ARM_ARCH_7EM__     ) && (__ARM_ARCH_7EM__     == 1)) || \
ARM GAS  /tmp/claude-502/ccFotbfS.s 			page 109


 627:/Users/reza.kalfane/Workspaces/Daisy/DaisyExamples/libDaisy/Drivers/CMSIS/Include/cmsis_gcc.h ****      (defined (__ARM_ARCH_8M_MAIN__ ) && (__ARM_ARCH_8M_MAIN__ == 1))    )
 628:/Users/reza.kalfane/Workspaces/Daisy/DaisyExamples/libDaisy/Drivers/CMSIS/Include/cmsis_gcc.h **** 
 629:/Users/reza.kalfane/Workspaces/Daisy/DaisyExamples/libDaisy/Drivers/CMSIS/Include/cmsis_gcc.h **** /**
 630:/Users/reza.kalfane/Workspaces/Daisy/DaisyExamples/libDaisy/Drivers/CMSIS/Include/cmsis_gcc.h ****   \brief   Get FPSCR
 631:/Users/reza.kalfane/Workspaces/Daisy/DaisyExamples/libDaisy/Drivers/CMSIS/Include/cmsis_gcc.h ****   \details Returns the current value of the Floating Point Status/Control register.
 632:/Users/reza.kalfane/Workspaces/Daisy/DaisyExamples/libDaisy/Drivers/CMSIS/Include/cmsis_gcc.h ****   \return               Floating Point Status/Control register value
 633:/Users/reza.kalfane/Workspaces/Daisy/DaisyExamples/libDaisy/Drivers/CMSIS/Include/cmsis_gcc.h ****  */
 634:/Users/reza.kalfane/Workspaces/Daisy/DaisyExamples/libDaisy/Drivers/CMSIS/Include/cmsis_gcc.h **** __attribute__((always_inline)) __STATIC_INLINE uint32_t __get_FPSCR(void)
 635:/Users/reza.kalfane/Workspaces/Daisy/DaisyExamples/libDaisy/Drivers/CMSIS/Include/cmsis_gcc.h **** {
 636:/Users/reza.kalfane/Workspaces/Daisy/DaisyExamples/libDaisy/Drivers/CMSIS/Include/cmsis_gcc.h **** #if ((defined (__FPU_PRESENT) && (__FPU_PRESENT == 1U)) && \
 637:/Users/reza.kalfane/Workspaces/Daisy/DaisyExamples/libDaisy/Drivers/CMSIS/Include/cmsis_gcc.h ****      (defined (__FPU_USED   ) && (__FPU_USED    == 1U))     )
 638:/Users/reza.kalfane/Workspaces/Daisy/DaisyExamples/libDaisy/Drivers/CMSIS/Include/cmsis_gcc.h ****   uint32_t result;
 639:/Users/reza.kalfane/Workspaces/Daisy/DaisyExamples/libDaisy/Drivers/CMSIS/Include/cmsis_gcc.h **** 
 640:/Users/reza.kalfane/Workspaces/Daisy/DaisyExamples/libDaisy/Drivers/CMSIS/Include/cmsis_gcc.h ****   __ASM volatile ("VMRS %0, fpscr" : "=r" (result) );
 641:/Users/reza.kalfane/Workspaces/Daisy/DaisyExamples/libDaisy/Drivers/CMSIS/Include/cmsis_gcc.h ****   return(result);
 642:/Users/reza.kalfane/Workspaces/Daisy/DaisyExamples/libDaisy/Drivers/CMSIS/Include/cmsis_gcc.h **** #else
 643:/Users/reza.kalfane/Workspaces/Daisy/DaisyExamples/libDaisy/Drivers/CMSIS/Include/cmsis_gcc.h ****    return(0U);
 644:/Users/reza.kalfane/Workspaces/Daisy/DaisyExamples/libDaisy/Drivers/CMSIS/Include/cmsis_gcc.h **** #endif
 645:/Users/reza.kalfane/Workspaces/Daisy/DaisyExamples/libDaisy/Drivers/CMSIS/Include/cmsis_gcc.h **** }
 646:/Users/reza.kalfane/Workspaces/Daisy/DaisyExamples/libDaisy/Drivers/CMSIS/Include/cmsis_gcc.h **** 
 647:/Users/reza.kalfane/Workspaces/Daisy/DaisyExamples/libDaisy/Drivers/CMSIS/Include/cmsis_gcc.h **** 
 648:/Users/reza.kalfane/Workspaces/Daisy/DaisyExamples/libDaisy/Drivers/CMSIS/Include/cmsis_gcc.h **** /**
 649:/Users/reza.kalfane/Workspaces/Daisy/DaisyExamples/libDaisy/Drivers/CMSIS/Include/cmsis_gcc.h ****   \brief   Set FPSCR
 650:/Users/reza.kalfane/Workspaces/Daisy/DaisyExamples/libDaisy/Drivers/CMSIS/Include/cmsis_gcc.h ****   \details Assigns the given value to the Floating Point Status/Control register.
 651:/Users/reza.kalfane/Workspaces/Daisy/DaisyExamples/libDaisy/Drivers/CMSIS/Include/cmsis_gcc.h ****   \param [in]    fpscr  Floating Point Status/Control value to set
 652:/Users/reza.kalfane/Workspaces/Daisy/DaisyExamples/libDaisy/Drivers/CMSIS/Include/cmsis_gcc.h ****  */
 653:/Users/reza.kalfane/Workspaces/Daisy/DaisyExamples/libDaisy/Drivers/CMSIS/Include/cmsis_gcc.h **** __attribute__((always_inline)) __STATIC_INLINE void __set_FPSCR(uint32_t fpscr)
 654:/Users/reza.kalfane/Workspaces/Daisy/DaisyExamples/libDaisy/Drivers/CMSIS/Include/cmsis_gcc.h **** {
 655:/Users/reza.kalfane/Workspaces/Daisy/DaisyExamples/libDaisy/Drivers/CMSIS/Include/cmsis_gcc.h **** #if ((defined (__FPU_PRESENT) && (__FPU_PRESENT == 1U)) && \
 656:/Users/reza.kalfane/Workspaces/Daisy/DaisyExamples/libDaisy/Drivers/CMSIS/Include/cmsis_gcc.h ****      (defined (__FPU_USED   ) && (__FPU_USED    == 1U))     )
 657:/Users/reza.kalfane/Workspaces/Daisy/DaisyExamples/libDaisy/Drivers/CMSIS/Include/cmsis_gcc.h ****   __ASM volatile ("VMSR fpscr, %0" : : "r" (fpscr) : "vfpcc", "memory");
 658:/Users/reza.kalfane/Workspaces/Daisy/DaisyExamples/libDaisy/Drivers/CMSIS/Include/cmsis_gcc.h **** #else
 659:/Users/reza.kalfane/Workspaces/Daisy/DaisyExamples/libDaisy/Drivers/CMSIS/Include/cmsis_gcc.h ****   (void)fpscr;
 660:/Users/reza.kalfane/Workspaces/Daisy/DaisyExamples/libDaisy/Drivers/CMSIS/Include/cmsis_gcc.h **** #endif
 661:/Users/reza.kalfane/Workspaces/Daisy/DaisyExamples/libDaisy/Drivers/CMSIS/Include/cmsis_gcc.h **** }
 662:/Users/reza.kalfane/Workspaces/Daisy/DaisyExamples/libDaisy/Drivers/CMSIS/Include/cmsis_gcc.h **** 
 663:/Users/reza.kalfane/Workspaces/Daisy/DaisyExamples/libDaisy/Drivers/CMSIS/Include/cmsis_gcc.h **** #endif /* ((defined (__ARM_ARCH_7EM__     ) && (__ARM_ARCH_7EM__     == 1)) || \
 664:/Users/reza.kalfane/Workspaces/Daisy/DaisyExamples/libDaisy/Drivers/CMSIS/Include/cmsis_gcc.h ****            (defined (__ARM_ARCH_8M_MAIN__ ) && (__ARM_ARCH_8M_MAIN__ == 1))    ) */
 665:/Users/reza.kalfane/Workspaces/Daisy/DaisyExamples/libDaisy/Drivers/CMSIS/Include/cmsis_gcc.h **** 
 666:/Users/reza.kalfane/Workspaces/Daisy/DaisyExamples/libDaisy/Drivers/CMSIS/Include/cmsis_gcc.h **** 
 667:/Users/reza.kalfane/Workspaces/Daisy/DaisyExamples/libDaisy/Drivers/CMSIS/Include/cmsis_gcc.h **** 
 668:/Users/reza.kalfane/Workspaces/Daisy/DaisyExamples/libDaisy/Drivers/CMSIS/Include/cmsis_gcc.h **** /*@} end of CMSIS_Core_RegAccFunctions */
 669:/Users/reza.kalfane/Workspaces/Daisy/DaisyExamples/libDaisy/Drivers/CMSIS/Include/cmsis_gcc.h **** 
 670:/Users/reza.kalfane/Workspaces/Daisy/DaisyExamples/libDaisy/Drivers/CMSIS/Include/cmsis_gcc.h **** 
 671:/Users/reza.kalfane/Workspaces/Daisy/DaisyExamples/libDaisy/Drivers/CMSIS/Include/cmsis_gcc.h **** /* ##########################  Core Instruction Access  ######################### */
 672:/Users/reza.kalfane/Workspaces/Daisy/DaisyExamples/libDaisy/Drivers/CMSIS/Include/cmsis_gcc.h **** /** \defgroup CMSIS_Core_InstructionInterface CMSIS Core Instruction Interface
 673:/Users/reza.kalfane/Workspaces/Daisy/DaisyExamples/libDaisy/Drivers/CMSIS/Include/cmsis_gcc.h ****   Access to dedicated instructions
 674:/Users/reza.kalfane/Workspaces/Daisy/DaisyExamples/libDaisy/Drivers/CMSIS/Include/cmsis_gcc.h ****   @{
 675:/Users/reza.kalfane/Workspaces/Daisy/DaisyExamples/libDaisy/Drivers/CMSIS/Include/cmsis_gcc.h **** */
 676:/Users/reza.kalfane/Workspaces/Daisy/DaisyExamples/libDaisy/Drivers/CMSIS/Include/cmsis_gcc.h **** 
 677:/Users/reza.kalfane/Workspaces/Daisy/DaisyExamples/libDaisy/Drivers/CMSIS/Include/cmsis_gcc.h **** /* Define macros for porting to both thumb1 and thumb2.
 678:/Users/reza.kalfane/Workspaces/Daisy/DaisyExamples/libDaisy/Drivers/CMSIS/Include/cmsis_gcc.h ****  * For thumb1, use low register (r0-r7), specified by constraint "l"
 679:/Users/reza.kalfane/Workspaces/Daisy/DaisyExamples/libDaisy/Drivers/CMSIS/Include/cmsis_gcc.h ****  * Otherwise, use general registers, specified by constraint "r" */
 680:/Users/reza.kalfane/Workspaces/Daisy/DaisyExamples/libDaisy/Drivers/CMSIS/Include/cmsis_gcc.h **** #if defined (__thumb__) && !defined (__thumb2__)
 681:/Users/reza.kalfane/Workspaces/Daisy/DaisyExamples/libDaisy/Drivers/CMSIS/Include/cmsis_gcc.h **** #define __CMSIS_GCC_OUT_REG(r) "=l" (r)
 682:/Users/reza.kalfane/Workspaces/Daisy/DaisyExamples/libDaisy/Drivers/CMSIS/Include/cmsis_gcc.h **** #define __CMSIS_GCC_RW_REG(r) "+l" (r)
 683:/Users/reza.kalfane/Workspaces/Daisy/DaisyExamples/libDaisy/Drivers/CMSIS/Include/cmsis_gcc.h **** #define __CMSIS_GCC_USE_REG(r) "l" (r)
ARM GAS  /tmp/claude-502/ccFotbfS.s 			page 110


 684:/Users/reza.kalfane/Workspaces/Daisy/DaisyExamples/libDaisy/Drivers/CMSIS/Include/cmsis_gcc.h **** #else
 685:/Users/reza.kalfane/Workspaces/Daisy/DaisyExamples/libDaisy/Drivers/CMSIS/Include/cmsis_gcc.h **** #define __CMSIS_GCC_OUT_REG(r) "=r" (r)
 686:/Users/reza.kalfane/Workspaces/Daisy/DaisyExamples/libDaisy/Drivers/CMSIS/Include/cmsis_gcc.h **** #define __CMSIS_GCC_RW_REG(r) "+r" (r)
 687:/Users/reza.kalfane/Workspaces/Daisy/DaisyExamples/libDaisy/Drivers/CMSIS/Include/cmsis_gcc.h **** #define __CMSIS_GCC_USE_REG(r) "r" (r)
 688:/Users/reza.kalfane/Workspaces/Daisy/DaisyExamples/libDaisy/Drivers/CMSIS/Include/cmsis_gcc.h **** #endif
 689:/Users/reza.kalfane/Workspaces/Daisy/DaisyExamples/libDaisy/Drivers/CMSIS/Include/cmsis_gcc.h **** 
 690:/Users/reza.kalfane/Workspaces/Daisy/DaisyExamples/libDaisy/Drivers/CMSIS/Include/cmsis_gcc.h **** /**
 691:/Users/reza.kalfane/Workspaces/Daisy/DaisyExamples/libDaisy/Drivers/CMSIS/Include/cmsis_gcc.h ****   \brief   No Operation
 692:/Users/reza.kalfane/Workspaces/Daisy/DaisyExamples/libDaisy/Drivers/CMSIS/Include/cmsis_gcc.h ****   \details No Operation does nothing. This instruction can be used for code alignment purposes.
 693:/Users/reza.kalfane/Workspaces/Daisy/DaisyExamples/libDaisy/Drivers/CMSIS/Include/cmsis_gcc.h ****  */
 694:/Users/reza.kalfane/Workspaces/Daisy/DaisyExamples/libDaisy/Drivers/CMSIS/Include/cmsis_gcc.h **** //__attribute__((always_inline)) __STATIC_INLINE void __NOP(void)
 695:/Users/reza.kalfane/Workspaces/Daisy/DaisyExamples/libDaisy/Drivers/CMSIS/Include/cmsis_gcc.h **** //{
 696:/Users/reza.kalfane/Workspaces/Daisy/DaisyExamples/libDaisy/Drivers/CMSIS/Include/cmsis_gcc.h **** //  __ASM volatile ("nop");
 697:/Users/reza.kalfane/Workspaces/Daisy/DaisyExamples/libDaisy/Drivers/CMSIS/Include/cmsis_gcc.h **** //}
 698:/Users/reza.kalfane/Workspaces/Daisy/DaisyExamples/libDaisy/Drivers/CMSIS/Include/cmsis_gcc.h **** #define __NOP()                             __ASM volatile ("nop")       /* This implementation gen
 699:/Users/reza.kalfane/Workspaces/Daisy/DaisyExamples/libDaisy/Drivers/CMSIS/Include/cmsis_gcc.h **** 
 700:/Users/reza.kalfane/Workspaces/Daisy/DaisyExamples/libDaisy/Drivers/CMSIS/Include/cmsis_gcc.h **** /**
 701:/Users/reza.kalfane/Workspaces/Daisy/DaisyExamples/libDaisy/Drivers/CMSIS/Include/cmsis_gcc.h ****   \brief   Wait For Interrupt
 702:/Users/reza.kalfane/Workspaces/Daisy/DaisyExamples/libDaisy/Drivers/CMSIS/Include/cmsis_gcc.h ****   \details Wait For Interrupt is a hint instruction that suspends execution until one of a number o
 703:/Users/reza.kalfane/Workspaces/Daisy/DaisyExamples/libDaisy/Drivers/CMSIS/Include/cmsis_gcc.h ****  */
 704:/Users/reza.kalfane/Workspaces/Daisy/DaisyExamples/libDaisy/Drivers/CMSIS/Include/cmsis_gcc.h **** //__attribute__((always_inline)) __STATIC_INLINE void __WFI(void)
 705:/Users/reza.kalfane/Workspaces/Daisy/DaisyExamples/libDaisy/Drivers/CMSIS/Include/cmsis_gcc.h **** //{
 706:/Users/reza.kalfane/Workspaces/Daisy/DaisyExamples/libDaisy/Drivers/CMSIS/Include/cmsis_gcc.h **** //  __ASM volatile ("wfi");
 707:/Users/reza.kalfane/Workspaces/Daisy/DaisyExamples/libDaisy/Drivers/CMSIS/Include/cmsis_gcc.h **** //}
 708:/Users/reza.kalfane/Workspaces/Daisy/DaisyExamples/libDaisy/Drivers/CMSIS/Include/cmsis_gcc.h **** #define __WFI()                             __ASM volatile ("wfi")       /* This implementation gen
 709:/Users/reza.kalfane/Workspaces/Daisy/DaisyExamples/libDaisy/Drivers/CMSIS/Include/cmsis_gcc.h **** 
 710:/Users/reza.kalfane/Workspaces/Daisy/DaisyExamples/libDaisy/Drivers/CMSIS/Include/cmsis_gcc.h **** 
 711:/Users/reza.kalfane/Workspaces/Daisy/DaisyExamples/libDaisy/Drivers/CMSIS/Include/cmsis_gcc.h **** /**
 712:/Users/reza.kalfane/Workspaces/Daisy/DaisyExamples/libDaisy/Drivers/CMSIS/Include/cmsis_gcc.h ****   \brief   Wait For Event
 713:/Users/reza.kalfane/Workspaces/Daisy/DaisyExamples/libDaisy/Drivers/CMSIS/Include/cmsis_gcc.h ****   \details Wait For Event is a hint instruction that permits the processor to enter
 714:/Users/reza.kalfane/Workspaces/Daisy/DaisyExamples/libDaisy/Drivers/CMSIS/Include/cmsis_gcc.h ****            a low-power state until one of a number of events occurs.
 715:/Users/reza.kalfane/Workspaces/Daisy/DaisyExamples/libDaisy/Drivers/CMSIS/Include/cmsis_gcc.h ****  */
 716:/Users/reza.kalfane/Workspaces/Daisy/DaisyExamples/libDaisy/Drivers/CMSIS/Include/cmsis_gcc.h **** //__attribute__((always_inline)) __STATIC_INLINE void __WFE(void)
 717:/Users/reza.kalfane/Workspaces/Daisy/DaisyExamples/libDaisy/Drivers/CMSIS/Include/cmsis_gcc.h **** //{
 718:/Users/reza.kalfane/Workspaces/Daisy/DaisyExamples/libDaisy/Drivers/CMSIS/Include/cmsis_gcc.h **** //  __ASM volatile ("wfe");
 719:/Users/reza.kalfane/Workspaces/Daisy/DaisyExamples/libDaisy/Drivers/CMSIS/Include/cmsis_gcc.h **** //}
 720:/Users/reza.kalfane/Workspaces/Daisy/DaisyExamples/libDaisy/Drivers/CMSIS/Include/cmsis_gcc.h **** #define __WFE()                             __ASM volatile ("wfe")       /* This implementation gen
 721:/Users/reza.kalfane/Workspaces/Daisy/DaisyExamples/libDaisy/Drivers/CMSIS/Include/cmsis_gcc.h **** 
 722:/Users/reza.kalfane/Workspaces/Daisy/DaisyExamples/libDaisy/Drivers/CMSIS/Include/cmsis_gcc.h **** 
 723:/Users/reza.kalfane/Workspaces/Daisy/DaisyExamples/libDaisy/Drivers/CMSIS/Include/cmsis_gcc.h **** /**
 724:/Users/reza.kalfane/Workspaces/Daisy/DaisyExamples/libDaisy/Drivers/CMSIS/Include/cmsis_gcc.h ****   \brief   Send Event
 725:/Users/reza.kalfane/Workspaces/Daisy/DaisyExamples/libDaisy/Drivers/CMSIS/Include/cmsis_gcc.h ****   \details Send Event is a hint instruction. It causes an event to be signaled to the CPU.
 726:/Users/reza.kalfane/Workspaces/Daisy/DaisyExamples/libDaisy/Drivers/CMSIS/Include/cmsis_gcc.h ****  */
 727:/Users/reza.kalfane/Workspaces/Daisy/DaisyExamples/libDaisy/Drivers/CMSIS/Include/cmsis_gcc.h **** //__attribute__((always_inline)) __STATIC_INLINE void __SEV(void)
 728:/Users/reza.kalfane/Workspaces/Daisy/DaisyExamples/libDaisy/Drivers/CMSIS/Include/cmsis_gcc.h **** //{
 729:/Users/reza.kalfane/Workspaces/Daisy/DaisyExamples/libDaisy/Drivers/CMSIS/Include/cmsis_gcc.h **** //  __ASM volatile ("sev");
 730:/Users/reza.kalfane/Workspaces/Daisy/DaisyExamples/libDaisy/Drivers/CMSIS/Include/cmsis_gcc.h **** //}
 731:/Users/reza.kalfane/Workspaces/Daisy/DaisyExamples/libDaisy/Drivers/CMSIS/Include/cmsis_gcc.h **** #define __SEV()                             __ASM volatile ("sev")       /* This implementation gen
 732:/Users/reza.kalfane/Workspaces/Daisy/DaisyExamples/libDaisy/Drivers/CMSIS/Include/cmsis_gcc.h **** 
 733:/Users/reza.kalfane/Workspaces/Daisy/DaisyExamples/libDaisy/Drivers/CMSIS/Include/cmsis_gcc.h **** 
 734:/Users/reza.kalfane/Workspaces/Daisy/DaisyExamples/libDaisy/Drivers/CMSIS/Include/cmsis_gcc.h **** /**
 735:/Users/reza.kalfane/Workspaces/Daisy/DaisyExamples/libDaisy/Drivers/CMSIS/Include/cmsis_gcc.h ****   \brief   Instruction Synchronization Barrier
 736:/Users/reza.kalfane/Workspaces/Daisy/DaisyExamples/libDaisy/Drivers/CMSIS/Include/cmsis_gcc.h ****   \details Instruction Synchronization Barrier flushes the pipeline in the processor,
 737:/Users/reza.kalfane/Workspaces/Daisy/DaisyExamples/libDaisy/Drivers/CMSIS/Include/cmsis_gcc.h ****            so that all instructions following the ISB are fetched from cache or memory,
 738:/Users/reza.kalfane/Workspaces/Daisy/DaisyExamples/libDaisy/Drivers/CMSIS/Include/cmsis_gcc.h ****            after the instruction has been completed.
 739:/Users/reza.kalfane/Workspaces/Daisy/DaisyExamples/libDaisy/Drivers/CMSIS/Include/cmsis_gcc.h ****  */
 740:/Users/reza.kalfane/Workspaces/Daisy/DaisyExamples/libDaisy/Drivers/CMSIS/Include/cmsis_gcc.h **** __attribute__((always_inline)) __STATIC_INLINE void __ISB(void)
ARM GAS  /tmp/claude-502/ccFotbfS.s 			page 111


 741:/Users/reza.kalfane/Workspaces/Daisy/DaisyExamples/libDaisy/Drivers/CMSIS/Include/cmsis_gcc.h **** {
 742:/Users/reza.kalfane/Workspaces/Daisy/DaisyExamples/libDaisy/Drivers/CMSIS/Include/cmsis_gcc.h ****   __ASM volatile ("isb 0xF":::"memory");
 743:/Users/reza.kalfane/Workspaces/Daisy/DaisyExamples/libDaisy/Drivers/CMSIS/Include/cmsis_gcc.h **** }
 744:/Users/reza.kalfane/Workspaces/Daisy/DaisyExamples/libDaisy/Drivers/CMSIS/Include/cmsis_gcc.h **** 
 745:/Users/reza.kalfane/Workspaces/Daisy/DaisyExamples/libDaisy/Drivers/CMSIS/Include/cmsis_gcc.h **** 
 746:/Users/reza.kalfane/Workspaces/Daisy/DaisyExamples/libDaisy/Drivers/CMSIS/Include/cmsis_gcc.h **** /**
 747:/Users/reza.kalfane/Workspaces/Daisy/DaisyExamples/libDaisy/Drivers/CMSIS/Include/cmsis_gcc.h ****   \brief   Data Synchronization Barrier
 748:/Users/reza.kalfane/Workspaces/Daisy/DaisyExamples/libDaisy/Drivers/CMSIS/Include/cmsis_gcc.h ****   \details Acts as a special kind of Data Memory Barrier.
 749:/Users/reza.kalfane/Workspaces/Daisy/DaisyExamples/libDaisy/Drivers/CMSIS/Include/cmsis_gcc.h ****            It completes when all explicit memory accesses before this instruction complete.
 750:/Users/reza.kalfane/Workspaces/Daisy/DaisyExamples/libDaisy/Drivers/CMSIS/Include/cmsis_gcc.h ****  */
 751:/Users/reza.kalfane/Workspaces/Daisy/DaisyExamples/libDaisy/Drivers/CMSIS/Include/cmsis_gcc.h **** __attribute__((always_inline)) __STATIC_INLINE void __DSB(void)
 1686              		.loc 6 751 53 view .LVU545
 1687              	.LBB335:
 752:/Users/reza.kalfane/Workspaces/Daisy/DaisyExamples/libDaisy/Drivers/CMSIS/Include/cmsis_gcc.h **** {
 753:/Users/reza.kalfane/Workspaces/Daisy/DaisyExamples/libDaisy/Drivers/CMSIS/Include/cmsis_gcc.h ****   __ASM volatile ("dsb 0xF":::"memory");
 1688              		.loc 6 753 3 view .LVU546
 1689              		.syntax unified
 1690              	@ 753 "/Users/reza.kalfane/Workspaces/Daisy/DaisyExamples/libDaisy/Drivers/CMSIS/Include/cmsis_gcc.
 1691 0022 BFF34F8F 		dsb 0xF
 1692              	@ 0 "" 2
 1693              		.thumb
 1694              		.syntax unified
 1695              	.LBE335:
 1696              	.LBE334:
1909:/Users/reza.kalfane/Workspaces/Daisy/DaisyExamples/libDaisy/Drivers/CMSIS/Include/core_cm7.h ****     __ISB();
 1697              		.loc 5 1909 5 view .LVU547
 1698              	.LBB336:
 1699              	.LBI336:
 740:/Users/reza.kalfane/Workspaces/Daisy/DaisyExamples/libDaisy/Drivers/CMSIS/Include/cmsis_gcc.h **** {
 1700              		.loc 6 740 53 view .LVU548
 1701              	.LBB337:
 742:/Users/reza.kalfane/Workspaces/Daisy/DaisyExamples/libDaisy/Drivers/CMSIS/Include/cmsis_gcc.h **** }
 1702              		.loc 6 742 3 view .LVU549
 1703              		.syntax unified
 1704              	@ 742 "/Users/reza.kalfane/Workspaces/Daisy/DaisyExamples/libDaisy/Drivers/CMSIS/Include/cmsis_gcc.
 1705 0026 BFF36F8F 		isb 0xF
 1706              	@ 0 "" 2
 1707              	.LVL119:
 1708              		.thumb
 1709              		.syntax unified
 1710              	.L136:
 742:/Users/reza.kalfane/Workspaces/Daisy/DaisyExamples/libDaisy/Drivers/CMSIS/Include/cmsis_gcc.h **** }
 1711              		.loc 6 742 3 is_stmt 0 view .LVU550
 1712              	.LBE337:
 1713              	.LBE336:
 1714              	.LBE333:
 1715              	.LBE332:
 1716              	.LBE331:
 1717              	.LBE330:
 639:lib/tinyusb/src/portable/synopsys/dwc2/dcd_dwc2.c **** 
 1718              		.loc 1 639 1 view .LVU551
 1719 002a 7047     		bx	lr
 1720              	.L139:
 1721              		.align	2
 1722              	.L138:
 1723 002c 00000000 		.word	.LANCHOR0
 1724 0030 00E100E0 		.word	-536813312
ARM GAS  /tmp/claude-502/ccFotbfS.s 			page 112


 1725              		.cfi_endproc
 1726              	.LFE405:
 1728              		.section	.text.dcd_set_address,"ax",%progbits
 1729              		.align	1
 1730              		.p2align 2,,3
 1731              		.global	dcd_set_address
 1732              		.syntax unified
 1733              		.thumb
 1734              		.thumb_func
 1736              	dcd_set_address:
 1737              	.LVL120:
 1738              	.LFB406:
 641:lib/tinyusb/src/portable/synopsys/dwc2/dcd_dwc2.c ****   dwc2_regs_t* dwc2 = DWC2_REG(rhport);
 1739              		.loc 1 641 56 is_stmt 1 view -0
 1740              		.cfi_startproc
 1741              		@ args = 0, pretend = 0, frame = 0
 1742              		@ frame_needed = 0, uses_anonymous_args = 0
 642:lib/tinyusb/src/portable/synopsys/dwc2/dcd_dwc2.c ****   dwc2->dcfg = (dwc2->dcfg & ~DCFG_DAD_Msk) | (dev_addr << DCFG_DAD_Pos);
 1743              		.loc 1 642 3 view .LVU553
 641:lib/tinyusb/src/portable/synopsys/dwc2/dcd_dwc2.c ****   dwc2_regs_t* dwc2 = DWC2_REG(rhport);
 1744              		.loc 1 641 56 is_stmt 0 view .LVU554
 1745 0000 30B5     		push	{r4, r5, lr}
 1746              		.cfi_def_cfa_offset 12
 1747              		.cfi_offset 4, -12
 1748              		.cfi_offset 5, -8
 1749              		.cfi_offset 14, -4
 642:lib/tinyusb/src/portable/synopsys/dwc2/dcd_dwc2.c ****   dwc2->dcfg = (dwc2->dcfg & ~DCFG_DAD_Msk) | (dev_addr << DCFG_DAD_Pos);
 1750              		.loc 1 642 23 view .LVU555
 1751 0002 0401     		lsls	r4, r0, #4
 1752 0004 0C4D     		ldr	r5, .L142
 1753              	.LBB345:
 1754              	.LBB346:
 699:lib/tinyusb/src/portable/synopsys/dwc2/dcd_dwc2.c **** }
 700:lib/tinyusb/src/portable/synopsys/dwc2/dcd_dwc2.c **** 
 701:lib/tinyusb/src/portable/synopsys/dwc2/dcd_dwc2.c **** // Be advised: audio, video and possibly other iso-ep classes use dcd_sof_enable() to enable/disabl
 702:lib/tinyusb/src/portable/synopsys/dwc2/dcd_dwc2.c **** void dcd_sof_enable(uint8_t rhport, bool en) {
 703:lib/tinyusb/src/portable/synopsys/dwc2/dcd_dwc2.c ****   (void) rhport;
 704:lib/tinyusb/src/portable/synopsys/dwc2/dcd_dwc2.c ****   dwc2_regs_t* dwc2 = DWC2_REG(rhport);
 705:lib/tinyusb/src/portable/synopsys/dwc2/dcd_dwc2.c **** 
 706:lib/tinyusb/src/portable/synopsys/dwc2/dcd_dwc2.c ****   _sof_en = en;
 707:lib/tinyusb/src/portable/synopsys/dwc2/dcd_dwc2.c **** 
 708:lib/tinyusb/src/portable/synopsys/dwc2/dcd_dwc2.c ****   if (en) {
 709:lib/tinyusb/src/portable/synopsys/dwc2/dcd_dwc2.c ****     dwc2->gintsts = GINTSTS_SOF;
 710:lib/tinyusb/src/portable/synopsys/dwc2/dcd_dwc2.c ****     dwc2->gintmsk |= GINTMSK_SOFM;
 711:lib/tinyusb/src/portable/synopsys/dwc2/dcd_dwc2.c ****   } else {
 712:lib/tinyusb/src/portable/synopsys/dwc2/dcd_dwc2.c ****     dwc2->gintmsk &= ~GINTMSK_SOFM;
 713:lib/tinyusb/src/portable/synopsys/dwc2/dcd_dwc2.c ****   }
 714:lib/tinyusb/src/portable/synopsys/dwc2/dcd_dwc2.c **** }
 715:lib/tinyusb/src/portable/synopsys/dwc2/dcd_dwc2.c **** 
 716:lib/tinyusb/src/portable/synopsys/dwc2/dcd_dwc2.c **** /*------------------------------------------------------------------*/
 717:lib/tinyusb/src/portable/synopsys/dwc2/dcd_dwc2.c **** /* DCD Endpoint port
 718:lib/tinyusb/src/portable/synopsys/dwc2/dcd_dwc2.c ****  *------------------------------------------------------------------*/
 719:lib/tinyusb/src/portable/synopsys/dwc2/dcd_dwc2.c **** 
 720:lib/tinyusb/src/portable/synopsys/dwc2/dcd_dwc2.c **** bool dcd_edpt_open(uint8_t rhport, tusb_desc_endpoint_t const* desc_edpt) {
 721:lib/tinyusb/src/portable/synopsys/dwc2/dcd_dwc2.c ****   TU_ASSERT(fifo_alloc(rhport, desc_edpt->bEndpointAddress, tu_edpt_packet_size(desc_edpt)));
 722:lib/tinyusb/src/portable/synopsys/dwc2/dcd_dwc2.c ****   edpt_activate(rhport, desc_edpt);
 723:lib/tinyusb/src/portable/synopsys/dwc2/dcd_dwc2.c ****   return true;
ARM GAS  /tmp/claude-502/ccFotbfS.s 			page 113


 724:lib/tinyusb/src/portable/synopsys/dwc2/dcd_dwc2.c **** }
 725:lib/tinyusb/src/portable/synopsys/dwc2/dcd_dwc2.c **** 
 726:lib/tinyusb/src/portable/synopsys/dwc2/dcd_dwc2.c **** // Close all non-control endpoints, cancel all pending transfers if any.
 727:lib/tinyusb/src/portable/synopsys/dwc2/dcd_dwc2.c **** void dcd_edpt_close_all(uint8_t rhport) {
 728:lib/tinyusb/src/portable/synopsys/dwc2/dcd_dwc2.c ****   dwc2_regs_t* dwc2 = DWC2_REG(rhport);
 729:lib/tinyusb/src/portable/synopsys/dwc2/dcd_dwc2.c ****   uint8_t const ep_count = _dwc2_controller[rhport].ep_count;
 730:lib/tinyusb/src/portable/synopsys/dwc2/dcd_dwc2.c **** 
 731:lib/tinyusb/src/portable/synopsys/dwc2/dcd_dwc2.c ****   // Disable non-control interrupt
 732:lib/tinyusb/src/portable/synopsys/dwc2/dcd_dwc2.c ****   dwc2->daintmsk = (1 << DAINTMSK_OEPM_Pos) | (1 << DAINTMSK_IEPM_Pos);
 733:lib/tinyusb/src/portable/synopsys/dwc2/dcd_dwc2.c **** 
 734:lib/tinyusb/src/portable/synopsys/dwc2/dcd_dwc2.c ****   for (uint8_t n = 1; n < ep_count; n++) {
 735:lib/tinyusb/src/portable/synopsys/dwc2/dcd_dwc2.c ****     // disable OUT endpoint
 736:lib/tinyusb/src/portable/synopsys/dwc2/dcd_dwc2.c ****     if (dwc2->epout[n].doepctl & DOEPCTL_EPENA) {
 737:lib/tinyusb/src/portable/synopsys/dwc2/dcd_dwc2.c ****       dwc2->epout[n].doepctl |= DOEPCTL_SNAK | DOEPCTL_EPDIS;
 738:lib/tinyusb/src/portable/synopsys/dwc2/dcd_dwc2.c ****     }
 739:lib/tinyusb/src/portable/synopsys/dwc2/dcd_dwc2.c ****     xfer_status[n][TUSB_DIR_OUT].max_size = 0;
 740:lib/tinyusb/src/portable/synopsys/dwc2/dcd_dwc2.c **** 
 741:lib/tinyusb/src/portable/synopsys/dwc2/dcd_dwc2.c ****     // disable IN endpoint
 742:lib/tinyusb/src/portable/synopsys/dwc2/dcd_dwc2.c ****     if (dwc2->epin[n].diepctl & DIEPCTL_EPENA) {
 743:lib/tinyusb/src/portable/synopsys/dwc2/dcd_dwc2.c ****       dwc2->epin[n].diepctl |= DIEPCTL_SNAK | DIEPCTL_EPDIS;
 744:lib/tinyusb/src/portable/synopsys/dwc2/dcd_dwc2.c ****     }
 745:lib/tinyusb/src/portable/synopsys/dwc2/dcd_dwc2.c ****     xfer_status[n][TUSB_DIR_IN].max_size = 0;
 746:lib/tinyusb/src/portable/synopsys/dwc2/dcd_dwc2.c ****   }
 747:lib/tinyusb/src/portable/synopsys/dwc2/dcd_dwc2.c **** 
 748:lib/tinyusb/src/portable/synopsys/dwc2/dcd_dwc2.c ****   // reset allocated fifo OUT
 749:lib/tinyusb/src/portable/synopsys/dwc2/dcd_dwc2.c ****   dwc2->grxfsiz = calc_grxfsiz(64, ep_count);
 750:lib/tinyusb/src/portable/synopsys/dwc2/dcd_dwc2.c ****   // reset allocated fifo IN
 751:lib/tinyusb/src/portable/synopsys/dwc2/dcd_dwc2.c ****   _allocated_fifo_words_tx = 16;
 752:lib/tinyusb/src/portable/synopsys/dwc2/dcd_dwc2.c **** 
 753:lib/tinyusb/src/portable/synopsys/dwc2/dcd_dwc2.c ****   fifo_flush_tx(dwc2, 0x10); // all tx fifo
 754:lib/tinyusb/src/portable/synopsys/dwc2/dcd_dwc2.c ****   fifo_flush_rx(dwc2);
 755:lib/tinyusb/src/portable/synopsys/dwc2/dcd_dwc2.c **** }
 756:lib/tinyusb/src/portable/synopsys/dwc2/dcd_dwc2.c **** 
 757:lib/tinyusb/src/portable/synopsys/dwc2/dcd_dwc2.c **** bool dcd_edpt_iso_alloc(uint8_t rhport, uint8_t ep_addr, uint16_t largest_packet_size) {
 758:lib/tinyusb/src/portable/synopsys/dwc2/dcd_dwc2.c ****   TU_ASSERT(fifo_alloc(rhport, ep_addr, largest_packet_size));
 759:lib/tinyusb/src/portable/synopsys/dwc2/dcd_dwc2.c ****   return true;
 760:lib/tinyusb/src/portable/synopsys/dwc2/dcd_dwc2.c **** }
 761:lib/tinyusb/src/portable/synopsys/dwc2/dcd_dwc2.c **** 
 762:lib/tinyusb/src/portable/synopsys/dwc2/dcd_dwc2.c **** bool dcd_edpt_iso_activate(uint8_t rhport,  tusb_desc_endpoint_t const * p_endpoint_desc) {
 763:lib/tinyusb/src/portable/synopsys/dwc2/dcd_dwc2.c ****   // Disable EP to clear potential incomplete transfers
 764:lib/tinyusb/src/portable/synopsys/dwc2/dcd_dwc2.c ****   edpt_disable(rhport, p_endpoint_desc->bEndpointAddress, false);
 765:lib/tinyusb/src/portable/synopsys/dwc2/dcd_dwc2.c **** 
 766:lib/tinyusb/src/portable/synopsys/dwc2/dcd_dwc2.c ****   edpt_activate(rhport, p_endpoint_desc);
 767:lib/tinyusb/src/portable/synopsys/dwc2/dcd_dwc2.c **** 
 768:lib/tinyusb/src/portable/synopsys/dwc2/dcd_dwc2.c ****   return true;
 769:lib/tinyusb/src/portable/synopsys/dwc2/dcd_dwc2.c **** }
 770:lib/tinyusb/src/portable/synopsys/dwc2/dcd_dwc2.c **** 
 771:lib/tinyusb/src/portable/synopsys/dwc2/dcd_dwc2.c **** bool dcd_edpt_xfer(uint8_t rhport, uint8_t ep_addr, uint8_t* buffer, uint16_t total_bytes) {
 772:lib/tinyusb/src/portable/synopsys/dwc2/dcd_dwc2.c ****   uint8_t const epnum = tu_edpt_number(ep_addr);
 773:lib/tinyusb/src/portable/synopsys/dwc2/dcd_dwc2.c ****   uint8_t const dir = tu_edpt_dir(ep_addr);
 774:lib/tinyusb/src/portable/synopsys/dwc2/dcd_dwc2.c **** 
 775:lib/tinyusb/src/portable/synopsys/dwc2/dcd_dwc2.c ****   xfer_ctl_t* xfer = XFER_CTL_BASE(epnum, dir);
 776:lib/tinyusb/src/portable/synopsys/dwc2/dcd_dwc2.c ****   xfer->buffer = buffer;
 1755              		.loc 1 776 16 view .LVU556
 1756 0006 0022     		movs	r2, #0
 1757 0008 0C4B     		ldr	r3, .L142+4
 1758              	.LBE346:
ARM GAS  /tmp/claude-502/ccFotbfS.s 			page 114


 1759              	.LBE345:
 642:lib/tinyusb/src/portable/synopsys/dwc2/dcd_dwc2.c ****   dwc2->dcfg = (dwc2->dcfg & ~DCFG_DAD_Msk) | (dev_addr << DCFG_DAD_Pos);
 1760              		.loc 1 642 16 view .LVU557
 1761 000a 2D59     		ldr	r5, [r5, r4]
 1762              	.LVL121:
 643:lib/tinyusb/src/portable/synopsys/dwc2/dcd_dwc2.c **** 
 1763              		.loc 1 643 3 is_stmt 1 view .LVU558
 641:lib/tinyusb/src/portable/synopsys/dwc2/dcd_dwc2.c ****   dwc2_regs_t* dwc2 = DWC2_REG(rhport);
 1764              		.loc 1 641 56 is_stmt 0 view .LVU559
 1765 000c 83B0     		sub	sp, sp, #12
 1766              		.cfi_def_cfa_offset 24
 1767              	.LBB354:
 1768              	.LBB347:
 777:lib/tinyusb/src/portable/synopsys/dwc2/dcd_dwc2.c ****   xfer->ff = NULL;
 778:lib/tinyusb/src/portable/synopsys/dwc2/dcd_dwc2.c ****   xfer->total_len = total_bytes;
 1769              		.loc 1 778 19 view .LVU560
 1770 000e 1A83     		strh	r2, [r3, #24]	@ movhi
 1771              	.LBE347:
 1772              	.LBE354:
 643:lib/tinyusb/src/portable/synopsys/dwc2/dcd_dwc2.c **** 
 1773              		.loc 1 643 21 view .LVU561
 1774 0010 D5F80048 		ldr	r4, [r5, #2048]
 1775              	.LBB355:
 1776              	.LBB348:
 777:lib/tinyusb/src/portable/synopsys/dwc2/dcd_dwc2.c ****   xfer->ff = NULL;
 1777              		.loc 1 777 12 view .LVU562
 1778 0014 C3E90422 		strd	r2, r2, [r3, #16]
 1779              	.LBE348:
 1780              	.LBE355:
 643:lib/tinyusb/src/portable/synopsys/dwc2/dcd_dwc2.c **** 
 1781              		.loc 1 643 28 view .LVU563
 1782 0018 24F4FE6C 		bic	ip, r4, #2032
 1783              	.LBB356:
 1784              	.LBB349:
 779:lib/tinyusb/src/portable/synopsys/dwc2/dcd_dwc2.c **** 
 780:lib/tinyusb/src/portable/synopsys/dwc2/dcd_dwc2.c ****   // EP0 can only handle one packet
 781:lib/tinyusb/src/portable/synopsys/dwc2/dcd_dwc2.c ****   if (epnum == 0) {
 782:lib/tinyusb/src/portable/synopsys/dwc2/dcd_dwc2.c ****     ep0_pending[dir] = total_bytes;
 1785              		.loc 1 782 22 view .LVU564
 1786 001c 084B     		ldr	r3, .L142+8
 1787              	.LBE349:
 1788              	.LBE356:
 643:lib/tinyusb/src/portable/synopsys/dwc2/dcd_dwc2.c **** 
 1789              		.loc 1 643 45 view .LVU565
 1790 001e 4CEA0111 		orr	r1, ip, r1, lsl #4
 1791              	.LVL122:
 1792              	.LBB357:
 1793              	.LBB350:
 1794              		.loc 1 782 22 view .LVU566
 1795 0022 5A80     		strh	r2, [r3, #2]	@ movhi
 783:lib/tinyusb/src/portable/synopsys/dwc2/dcd_dwc2.c **** 
 784:lib/tinyusb/src/portable/synopsys/dwc2/dcd_dwc2.c ****     // Schedule the first transaction for EP0 transfer
 785:lib/tinyusb/src/portable/synopsys/dwc2/dcd_dwc2.c ****     edpt_schedule_packets(rhport, epnum, dir, 1, ep0_pending[dir]);
 1796              		.loc 1 785 5 view .LVU567
 1797 0024 0123     		movs	r3, #1
 1798              	.LBE350:
 1799              	.LBE357:
ARM GAS  /tmp/claude-502/ccFotbfS.s 			page 115


 643:lib/tinyusb/src/portable/synopsys/dwc2/dcd_dwc2.c **** 
 1800              		.loc 1 643 14 view .LVU568
 1801 0026 C5F80018 		str	r1, [r5, #2048]
 646:lib/tinyusb/src/portable/synopsys/dwc2/dcd_dwc2.c **** }
 1802              		.loc 1 646 3 is_stmt 1 view .LVU569
 1803              	.LVL123:
 497:lib/tinyusb/src/common/tusb_types.h **** }
 1804              		.loc 2 497 3 view .LVU570
 1805              	.LBB358:
 1806              	.LBI345:
 771:lib/tinyusb/src/portable/synopsys/dwc2/dcd_dwc2.c ****   uint8_t const epnum = tu_edpt_number(ep_addr);
 1807              		.loc 1 771 6 view .LVU571
 1808              	.LBB351:
 772:lib/tinyusb/src/portable/synopsys/dwc2/dcd_dwc2.c ****   uint8_t const dir = tu_edpt_dir(ep_addr);
 1809              		.loc 1 772 3 view .LVU572
 772:lib/tinyusb/src/portable/synopsys/dwc2/dcd_dwc2.c ****   uint8_t const dir = tu_edpt_dir(ep_addr);
 1810              		.loc 1 772 3 is_stmt 0 view .LVU573
 1811              	.LBE351:
 1812              	.LBE358:
 493:lib/tinyusb/src/common/tusb_types.h **** }
 1813              		.loc 2 493 3 is_stmt 1 view .LVU574
 1814              	.LBB359:
 1815              	.LBB352:
 773:lib/tinyusb/src/portable/synopsys/dwc2/dcd_dwc2.c **** 
 1816              		.loc 1 773 3 view .LVU575
 773:lib/tinyusb/src/portable/synopsys/dwc2/dcd_dwc2.c **** 
 1817              		.loc 1 773 3 is_stmt 0 view .LVU576
 1818              	.LBE352:
 1819              	.LBE359:
 488:lib/tinyusb/src/common/tusb_types.h **** }
 1820              		.loc 2 488 3 is_stmt 1 view .LVU577
 1821              	.LBB360:
 1822              	.LBB353:
 775:lib/tinyusb/src/portable/synopsys/dwc2/dcd_dwc2.c ****   xfer->buffer = buffer;
 1823              		.loc 1 775 3 view .LVU578
 776:lib/tinyusb/src/portable/synopsys/dwc2/dcd_dwc2.c ****   xfer->ff = NULL;
 1824              		.loc 1 776 3 view .LVU579
 777:lib/tinyusb/src/portable/synopsys/dwc2/dcd_dwc2.c ****   xfer->total_len = total_bytes;
 1825              		.loc 1 777 3 view .LVU580
 778:lib/tinyusb/src/portable/synopsys/dwc2/dcd_dwc2.c **** 
 1826              		.loc 1 778 3 view .LVU581
 781:lib/tinyusb/src/portable/synopsys/dwc2/dcd_dwc2.c ****     ep0_pending[dir] = total_bytes;
 1827              		.loc 1 781 3 view .LVU582
 782:lib/tinyusb/src/portable/synopsys/dwc2/dcd_dwc2.c **** 
 1828              		.loc 1 782 5 view .LVU583
 1829              		.loc 1 785 5 view .LVU584
 1830 002a 1146     		mov	r1, r2
 1831 002c 0092     		str	r2, [sp]
 1832 002e 1A46     		mov	r2, r3
 1833 0030 FFF7FEFF 		bl	edpt_schedule_packets
 1834              	.LVL124:
 786:lib/tinyusb/src/portable/synopsys/dwc2/dcd_dwc2.c ****   } else {
 787:lib/tinyusb/src/portable/synopsys/dwc2/dcd_dwc2.c ****     uint16_t num_packets = (total_bytes / xfer->max_size);
 788:lib/tinyusb/src/portable/synopsys/dwc2/dcd_dwc2.c ****     uint16_t const short_packet_size = total_bytes % xfer->max_size;
 789:lib/tinyusb/src/portable/synopsys/dwc2/dcd_dwc2.c **** 
 790:lib/tinyusb/src/portable/synopsys/dwc2/dcd_dwc2.c ****     // Zero-size packet is special case.
 791:lib/tinyusb/src/portable/synopsys/dwc2/dcd_dwc2.c ****     if ((short_packet_size > 0) || (total_bytes == 0)) num_packets++;
ARM GAS  /tmp/claude-502/ccFotbfS.s 			page 116


 792:lib/tinyusb/src/portable/synopsys/dwc2/dcd_dwc2.c **** 
 793:lib/tinyusb/src/portable/synopsys/dwc2/dcd_dwc2.c ****     // Schedule packets to be sent within interrupt
 794:lib/tinyusb/src/portable/synopsys/dwc2/dcd_dwc2.c ****     edpt_schedule_packets(rhport, epnum, dir, num_packets, total_bytes);
 795:lib/tinyusb/src/portable/synopsys/dwc2/dcd_dwc2.c ****   }
 796:lib/tinyusb/src/portable/synopsys/dwc2/dcd_dwc2.c **** 
 797:lib/tinyusb/src/portable/synopsys/dwc2/dcd_dwc2.c ****   return true;
 1835              		.loc 1 797 3 view .LVU585
 1836              		.loc 1 797 3 is_stmt 0 view .LVU586
 1837              	.LBE353:
 1838              	.LBE360:
 647:lib/tinyusb/src/portable/synopsys/dwc2/dcd_dwc2.c **** 
 1839              		.loc 1 647 1 view .LVU587
 1840 0034 03B0     		add	sp, sp, #12
 1841              		.cfi_def_cfa_offset 12
 1842              		@ sp needed
 1843 0036 30BD     		pop	{r4, r5, pc}
 1844              	.LVL125:
 1845              	.L143:
 647:lib/tinyusb/src/portable/synopsys/dwc2/dcd_dwc2.c **** 
 1846              		.loc 1 647 1 view .LVU588
 1847              		.align	2
 1848              	.L142:
 1849 0038 00000000 		.word	.LANCHOR0
 1850 003c 00000000 		.word	.LANCHOR2
 1851 0040 00000000 		.word	.LANCHOR3
 1852              		.cfi_endproc
 1853              	.LFE406:
 1855              		.section	.text.dcd_remote_wakeup,"ax",%progbits
 1856              		.align	1
 1857              		.p2align 2,,3
 1858              		.global	dcd_remote_wakeup
 1859              		.syntax unified
 1860              		.thumb
 1861              		.thumb_func
 1863              	dcd_remote_wakeup:
 1864              	.LVL126:
 1865              	.LFB407:
 649:lib/tinyusb/src/portable/synopsys/dwc2/dcd_dwc2.c ****   (void) rhport;
 1866              		.loc 1 649 40 is_stmt 1 view -0
 1867              		.cfi_startproc
 1868              		@ args = 0, pretend = 0, frame = 0
 1869              		@ frame_needed = 0, uses_anonymous_args = 0
 1870              		@ link register save eliminated.
 650:lib/tinyusb/src/portable/synopsys/dwc2/dcd_dwc2.c **** 
 1871              		.loc 1 650 3 view .LVU590
 652:lib/tinyusb/src/portable/synopsys/dwc2/dcd_dwc2.c **** 
 1872              		.loc 1 652 3 view .LVU591
 1873              	.LBB361:
 1874              	.LBB362:
 137:lib/tinyusb/src/portable/synopsys/dwc2/dwc2_stm32.h ****   while (count--) __NOP();
 1875              		.loc 4 137 36 is_stmt 0 view .LVU592
 1876 0000 1149     		ldr	r1, .L149
 1877              	.LBE362:
 1878              	.LBE361:
 652:lib/tinyusb/src/portable/synopsys/dwc2/dcd_dwc2.c **** 
 1879              		.loc 1 652 23 view .LVU593
 1880 0002 0001     		lsls	r0, r0, #4
ARM GAS  /tmp/claude-502/ccFotbfS.s 			page 117


 1881              	.LVL127:
 652:lib/tinyusb/src/portable/synopsys/dwc2/dcd_dwc2.c **** 
 1882              		.loc 1 652 23 view .LVU594
 1883 0004 114A     		ldr	r2, .L149+4
 1884              	.LBB368:
 1885              	.LBB363:
 137:lib/tinyusb/src/portable/synopsys/dwc2/dwc2_stm32.h ****   while (count--) __NOP();
 1886              		.loc 4 137 12 view .LVU595
 1887 0006 124B     		ldr	r3, .L149+8
 1888              	.LBE363:
 1889              	.LBE368:
 652:lib/tinyusb/src/portable/synopsys/dwc2/dcd_dwc2.c **** 
 1890              		.loc 1 652 16 view .LVU596
 1891 0008 1258     		ldr	r2, [r2, r0]
 1892              	.LVL128:
 655:lib/tinyusb/src/portable/synopsys/dwc2/dcd_dwc2.c **** 
 1893              		.loc 1 655 3 is_stmt 1 view .LVU597
 649:lib/tinyusb/src/portable/synopsys/dwc2/dcd_dwc2.c ****   (void) rhport;
 1894              		.loc 1 649 40 is_stmt 0 view .LVU598
 1895 000a 30B4     		push	{r4, r5}
 1896              		.cfi_def_cfa_offset 8
 1897              		.cfi_offset 4, -8
 1898              		.cfi_offset 5, -4
 1899              	.LBB369:
 1900              	.LBB364:
 137:lib/tinyusb/src/portable/synopsys/dwc2/dwc2_stm32.h ****   while (count--) __NOP();
 1901              		.loc 4 137 36 view .LVU599
 1902 000c 0C68     		ldr	r4, [r1]
 1903              	.LBE364:
 1904              	.LBE369:
 658:lib/tinyusb/src/portable/synopsys/dwc2/dcd_dwc2.c ****   dwc2->gintmsk |= GINTMSK_SOFM;
 1905              		.loc 1 658 17 view .LVU600
 1906 000e 0825     		movs	r5, #8
 1907              	.LBB370:
 1908              	.LBB365:
 137:lib/tinyusb/src/portable/synopsys/dwc2/dwc2_stm32.h ****   while (count--) __NOP();
 1909              		.loc 4 137 12 view .LVU601
 1910 0010 A3FB0413 		umull	r1, r3, r3, r4
 1911              	.LBE365:
 1912              	.LBE370:
 655:lib/tinyusb/src/portable/synopsys/dwc2/dcd_dwc2.c **** 
 1913              		.loc 1 655 14 view .LVU602
 1914 0014 D2F80418 		ldr	r1, [r2, #2052]
 1915              	.LBB371:
 1916              	.LBB366:
 138:lib/tinyusb/src/portable/synopsys/dwc2/dwc2_stm32.h **** }
 1917              		.loc 4 138 9 view .LVU603
 1918 0018 B4F57A7F 		cmp	r4, #1000
 1919              	.LBE366:
 1920              	.LBE371:
 655:lib/tinyusb/src/portable/synopsys/dwc2/dcd_dwc2.c **** 
 1921              		.loc 1 655 14 view .LVU604
 1922 001c 41F00101 		orr	r1, r1, #1
 1923 0020 C2F80418 		str	r1, [r2, #2052]
 658:lib/tinyusb/src/portable/synopsys/dwc2/dcd_dwc2.c ****   dwc2->gintmsk |= GINTMSK_SOFM;
 1924              		.loc 1 658 3 is_stmt 1 view .LVU605
 658:lib/tinyusb/src/portable/synopsys/dwc2/dcd_dwc2.c ****   dwc2->gintmsk |= GINTMSK_SOFM;
ARM GAS  /tmp/claude-502/ccFotbfS.s 			page 118


 1925              		.loc 1 658 17 is_stmt 0 view .LVU606
 1926 0024 5561     		str	r5, [r2, #20]
 659:lib/tinyusb/src/portable/synopsys/dwc2/dcd_dwc2.c **** 
 1927              		.loc 1 659 3 is_stmt 1 view .LVU607
 659:lib/tinyusb/src/portable/synopsys/dwc2/dcd_dwc2.c **** 
 1928              		.loc 1 659 17 is_stmt 0 view .LVU608
 1929 0026 9169     		ldr	r1, [r2, #24]
 1930 0028 41EA0501 		orr	r1, r1, r5
 1931 002c 9161     		str	r1, [r2, #24]
 662:lib/tinyusb/src/portable/synopsys/dwc2/dcd_dwc2.c **** 
 1932              		.loc 1 662 3 is_stmt 1 view .LVU609
 1933              	.LBB372:
 1934              	.LBI361:
 135:lib/tinyusb/src/portable/synopsys/dwc2/dwc2_stm32.h ****   // try to delay for 1 ms
 1935              		.loc 4 135 42 view .LVU610
 1936              	.LBB367:
 137:lib/tinyusb/src/portable/synopsys/dwc2/dwc2_stm32.h ****   while (count--) __NOP();
 1937              		.loc 4 137 3 view .LVU611
 1938              	.LVL129:
 138:lib/tinyusb/src/portable/synopsys/dwc2/dwc2_stm32.h **** }
 1939              		.loc 4 138 3 view .LVU612
 138:lib/tinyusb/src/portable/synopsys/dwc2/dwc2_stm32.h **** }
 1940              		.loc 4 138 9 view .LVU613
 138:lib/tinyusb/src/portable/synopsys/dwc2/dwc2_stm32.h **** }
 1941              		.loc 4 138 9 is_stmt 0 view .LVU614
 1942 002e 03D3     		bcc	.L145
 1943 0030 9B09     		lsrs	r3, r3, #6
 1944              	.LVL130:
 1945              	.L146:
 138:lib/tinyusb/src/portable/synopsys/dwc2/dwc2_stm32.h **** }
 1946              		.loc 4 138 19 is_stmt 1 view .LVU615
 1947              		.syntax unified
 1948              	@ 138 "lib/tinyusb/src/portable/synopsys/dwc2/dwc2_stm32.h" 1
 1949 0032 00BF     		nop
 1950              	@ 0 "" 2
 138:lib/tinyusb/src/portable/synopsys/dwc2/dwc2_stm32.h **** }
 1951              		.loc 4 138 9 view .LVU616
 1952              	.LVL131:
 138:lib/tinyusb/src/portable/synopsys/dwc2/dwc2_stm32.h **** }
 1953              		.loc 4 138 9 is_stmt 0 view .LVU617
 1954              		.thumb
 1955              		.syntax unified
 1956 0034 013B     		subs	r3, r3, #1
 1957              	.LVL132:
 138:lib/tinyusb/src/portable/synopsys/dwc2/dwc2_stm32.h **** }
 1958              		.loc 4 138 9 view .LVU618
 1959 0036 FCD1     		bne	.L146
 1960              	.LVL133:
 1961              	.L145:
 138:lib/tinyusb/src/portable/synopsys/dwc2/dwc2_stm32.h **** }
 1962              		.loc 4 138 9 view .LVU619
 1963              	.LBE367:
 1964              	.LBE372:
 664:lib/tinyusb/src/portable/synopsys/dwc2/dcd_dwc2.c **** }
 1965              		.loc 1 664 3 is_stmt 1 view .LVU620
 664:lib/tinyusb/src/portable/synopsys/dwc2/dcd_dwc2.c **** }
 1966              		.loc 1 664 14 is_stmt 0 view .LVU621
ARM GAS  /tmp/claude-502/ccFotbfS.s 			page 119


 1967 0038 D2F80438 		ldr	r3, [r2, #2052]
 1968 003c 23F00103 		bic	r3, r3, #1
 665:lib/tinyusb/src/portable/synopsys/dwc2/dcd_dwc2.c **** 
 1969              		.loc 1 665 1 view .LVU622
 1970 0040 30BC     		pop	{r4, r5}
 1971              		.cfi_restore 5
 1972              		.cfi_restore 4
 1973              		.cfi_def_cfa_offset 0
 664:lib/tinyusb/src/portable/synopsys/dwc2/dcd_dwc2.c **** }
 1974              		.loc 1 664 14 view .LVU623
 1975 0042 C2F80438 		str	r3, [r2, #2052]
 665:lib/tinyusb/src/portable/synopsys/dwc2/dcd_dwc2.c **** 
 1976              		.loc 1 665 1 view .LVU624
 1977 0046 7047     		bx	lr
 1978              	.L150:
 1979              		.align	2
 1980              	.L149:
 1981 0048 00000000 		.word	SystemCoreClock
 1982 004c 00000000 		.word	.LANCHOR0
 1983 0050 D34D6210 		.word	274877907
 1984              		.cfi_endproc
 1985              	.LFE407:
 1987              		.section	.text.dcd_connect,"ax",%progbits
 1988              		.align	1
 1989              		.p2align 2,,3
 1990              		.global	dcd_connect
 1991              		.syntax unified
 1992              		.thumb
 1993              		.thumb_func
 1995              	dcd_connect:
 1996              	.LVL134:
 1997              	.LFB408:
 667:lib/tinyusb/src/portable/synopsys/dwc2/dcd_dwc2.c ****   (void) rhport;
 1998              		.loc 1 667 34 is_stmt 1 view -0
 1999              		.cfi_startproc
 2000              		@ args = 0, pretend = 0, frame = 0
 2001              		@ frame_needed = 0, uses_anonymous_args = 0
 2002              		@ link register save eliminated.
 668:lib/tinyusb/src/portable/synopsys/dwc2/dcd_dwc2.c ****   dwc2_regs_t* dwc2 = DWC2_REG(rhport);
 2003              		.loc 1 668 3 view .LVU626
 669:lib/tinyusb/src/portable/synopsys/dwc2/dcd_dwc2.c **** 
 2004              		.loc 1 669 3 view .LVU627
 669:lib/tinyusb/src/portable/synopsys/dwc2/dcd_dwc2.c **** 
 2005              		.loc 1 669 23 is_stmt 0 view .LVU628
 2006 0000 044B     		ldr	r3, .L152
 2007 0002 0001     		lsls	r0, r0, #4
 2008              	.LVL135:
 669:lib/tinyusb/src/portable/synopsys/dwc2/dcd_dwc2.c **** 
 2009              		.loc 1 669 16 view .LVU629
 2010 0004 1A58     		ldr	r2, [r3, r0]
 2011              	.LVL136:
 681:lib/tinyusb/src/portable/synopsys/dwc2/dcd_dwc2.c **** }
 2012              		.loc 1 681 3 is_stmt 1 view .LVU630
 681:lib/tinyusb/src/portable/synopsys/dwc2/dcd_dwc2.c **** }
 2013              		.loc 1 681 14 is_stmt 0 view .LVU631
 2014 0006 D2F80438 		ldr	r3, [r2, #2052]
 2015 000a 23F00203 		bic	r3, r3, #2
ARM GAS  /tmp/claude-502/ccFotbfS.s 			page 120


 2016 000e C2F80438 		str	r3, [r2, #2052]
 682:lib/tinyusb/src/portable/synopsys/dwc2/dcd_dwc2.c **** 
 2017              		.loc 1 682 1 view .LVU632
 2018 0012 7047     		bx	lr
 2019              	.L153:
 2020              		.align	2
 2021              	.L152:
 2022 0014 00000000 		.word	.LANCHOR0
 2023              		.cfi_endproc
 2024              	.LFE408:
 2026              		.section	.text.dcd_disconnect,"ax",%progbits
 2027              		.align	1
 2028              		.p2align 2,,3
 2029              		.global	dcd_disconnect
 2030              		.syntax unified
 2031              		.thumb
 2032              		.thumb_func
 2034              	dcd_disconnect:
 2035              	.LVL137:
 2036              	.LFB409:
 684:lib/tinyusb/src/portable/synopsys/dwc2/dcd_dwc2.c ****   (void) rhport;
 2037              		.loc 1 684 37 is_stmt 1 view -0
 2038              		.cfi_startproc
 2039              		@ args = 0, pretend = 0, frame = 0
 2040              		@ frame_needed = 0, uses_anonymous_args = 0
 2041              		@ link register save eliminated.
 685:lib/tinyusb/src/portable/synopsys/dwc2/dcd_dwc2.c ****   dwc2_regs_t* dwc2 = DWC2_REG(rhport);
 2042              		.loc 1 685 3 view .LVU634
 686:lib/tinyusb/src/portable/synopsys/dwc2/dcd_dwc2.c **** 
 2043              		.loc 1 686 3 view .LVU635
 686:lib/tinyusb/src/portable/synopsys/dwc2/dcd_dwc2.c **** 
 2044              		.loc 1 686 23 is_stmt 0 view .LVU636
 2045 0000 044B     		ldr	r3, .L155
 2046 0002 0001     		lsls	r0, r0, #4
 2047              	.LVL138:
 686:lib/tinyusb/src/portable/synopsys/dwc2/dcd_dwc2.c **** 
 2048              		.loc 1 686 16 view .LVU637
 2049 0004 1A58     		ldr	r2, [r3, r0]
 2050              	.LVL139:
 698:lib/tinyusb/src/portable/synopsys/dwc2/dcd_dwc2.c **** }
 2051              		.loc 1 698 3 is_stmt 1 view .LVU638
 698:lib/tinyusb/src/portable/synopsys/dwc2/dcd_dwc2.c **** }
 2052              		.loc 1 698 14 is_stmt 0 view .LVU639
 2053 0006 D2F80438 		ldr	r3, [r2, #2052]
 2054 000a 43F00203 		orr	r3, r3, #2
 2055 000e C2F80438 		str	r3, [r2, #2052]
 699:lib/tinyusb/src/portable/synopsys/dwc2/dcd_dwc2.c **** 
 2056              		.loc 1 699 1 view .LVU640
 2057 0012 7047     		bx	lr
 2058              	.L156:
 2059              		.align	2
 2060              	.L155:
 2061 0014 00000000 		.word	.LANCHOR0
 2062              		.cfi_endproc
 2063              	.LFE409:
 2065              		.section	.text.dcd_sof_enable,"ax",%progbits
 2066              		.align	1
ARM GAS  /tmp/claude-502/ccFotbfS.s 			page 121


 2067              		.p2align 2,,3
 2068              		.global	dcd_sof_enable
 2069              		.syntax unified
 2070              		.thumb
 2071              		.thumb_func
 2073              	dcd_sof_enable:
 2074              	.LVL140:
 2075              	.LFB410:
 702:lib/tinyusb/src/portable/synopsys/dwc2/dcd_dwc2.c ****   (void) rhport;
 2076              		.loc 1 702 46 is_stmt 1 view -0
 2077              		.cfi_startproc
 2078              		@ args = 0, pretend = 0, frame = 0
 2079              		@ frame_needed = 0, uses_anonymous_args = 0
 2080              		@ link register save eliminated.
 703:lib/tinyusb/src/portable/synopsys/dwc2/dcd_dwc2.c ****   dwc2_regs_t* dwc2 = DWC2_REG(rhport);
 2081              		.loc 1 703 3 view .LVU642
 704:lib/tinyusb/src/portable/synopsys/dwc2/dcd_dwc2.c **** 
 2082              		.loc 1 704 3 view .LVU643
 704:lib/tinyusb/src/portable/synopsys/dwc2/dcd_dwc2.c **** 
 2083              		.loc 1 704 23 is_stmt 0 view .LVU644
 2084 0000 084B     		ldr	r3, .L160
 2085 0002 0001     		lsls	r0, r0, #4
 2086              	.LVL141:
 706:lib/tinyusb/src/portable/synopsys/dwc2/dcd_dwc2.c **** 
 2087              		.loc 1 706 11 view .LVU645
 2088 0004 084A     		ldr	r2, .L160+4
 704:lib/tinyusb/src/portable/synopsys/dwc2/dcd_dwc2.c **** 
 2089              		.loc 1 704 16 view .LVU646
 2090 0006 1B58     		ldr	r3, [r3, r0]
 2091              	.LVL142:
 706:lib/tinyusb/src/portable/synopsys/dwc2/dcd_dwc2.c **** 
 2092              		.loc 1 706 3 is_stmt 1 view .LVU647
 708:lib/tinyusb/src/portable/synopsys/dwc2/dcd_dwc2.c ****     dwc2->gintsts = GINTSTS_SOF;
 2093              		.loc 1 708 3 view .LVU648
 706:lib/tinyusb/src/portable/synopsys/dwc2/dcd_dwc2.c **** 
 2094              		.loc 1 706 11 is_stmt 0 view .LVU649
 2095 0008 1170     		strb	r1, [r2]
 708:lib/tinyusb/src/portable/synopsys/dwc2/dcd_dwc2.c ****     dwc2->gintsts = GINTSTS_SOF;
 2096              		.loc 1 708 6 view .LVU650
 2097 000a 31B1     		cbz	r1, .L158
 709:lib/tinyusb/src/portable/synopsys/dwc2/dcd_dwc2.c ****     dwc2->gintmsk |= GINTMSK_SOFM;
 2098              		.loc 1 709 5 is_stmt 1 view .LVU651
 709:lib/tinyusb/src/portable/synopsys/dwc2/dcd_dwc2.c ****     dwc2->gintmsk |= GINTMSK_SOFM;
 2099              		.loc 1 709 19 is_stmt 0 view .LVU652
 2100 000c 0822     		movs	r2, #8
 2101 000e 5A61     		str	r2, [r3, #20]
 710:lib/tinyusb/src/portable/synopsys/dwc2/dcd_dwc2.c ****   } else {
 2102              		.loc 1 710 5 is_stmt 1 view .LVU653
 710:lib/tinyusb/src/portable/synopsys/dwc2/dcd_dwc2.c ****   } else {
 2103              		.loc 1 710 19 is_stmt 0 view .LVU654
 2104 0010 9A69     		ldr	r2, [r3, #24]
 2105 0012 42F00802 		orr	r2, r2, #8
 2106 0016 9A61     		str	r2, [r3, #24]
 2107 0018 7047     		bx	lr
 2108              	.L158:
 712:lib/tinyusb/src/portable/synopsys/dwc2/dcd_dwc2.c ****   }
 2109              		.loc 1 712 5 is_stmt 1 view .LVU655
ARM GAS  /tmp/claude-502/ccFotbfS.s 			page 122


 712:lib/tinyusb/src/portable/synopsys/dwc2/dcd_dwc2.c ****   }
 2110              		.loc 1 712 19 is_stmt 0 view .LVU656
 2111 001a 9A69     		ldr	r2, [r3, #24]
 2112 001c 22F00802 		bic	r2, r2, #8
 2113 0020 9A61     		str	r2, [r3, #24]
 714:lib/tinyusb/src/portable/synopsys/dwc2/dcd_dwc2.c **** 
 2114              		.loc 1 714 1 view .LVU657
 2115 0022 7047     		bx	lr
 2116              	.L161:
 2117              		.align	2
 2118              	.L160:
 2119 0024 00000000 		.word	.LANCHOR0
 2120 0028 00000000 		.word	.LANCHOR4
 2121              		.cfi_endproc
 2122              	.LFE410:
 2124              		.section	.text.dcd_edpt_open,"ax",%progbits
 2125              		.align	1
 2126              		.p2align 2,,3
 2127              		.global	dcd_edpt_open
 2128              		.syntax unified
 2129              		.thumb
 2130              		.thumb_func
 2132              	dcd_edpt_open:
 2133              	.LVL143:
 2134              	.LFB411:
 720:lib/tinyusb/src/portable/synopsys/dwc2/dcd_dwc2.c ****   TU_ASSERT(fifo_alloc(rhport, desc_edpt->bEndpointAddress, tu_edpt_packet_size(desc_edpt)));
 2135              		.loc 1 720 75 is_stmt 1 view -0
 2136              		.cfi_startproc
 2137              		@ args = 0, pretend = 0, frame = 0
 2138              		@ frame_needed = 0, uses_anonymous_args = 0
 721:lib/tinyusb/src/portable/synopsys/dwc2/dcd_dwc2.c ****   edpt_activate(rhport, desc_edpt);
 2139              		.loc 1 721 3 view .LVU659
 721:lib/tinyusb/src/portable/synopsys/dwc2/dcd_dwc2.c ****   edpt_activate(rhport, desc_edpt);
 2140              		.loc 1 721 3 view .LVU660
 720:lib/tinyusb/src/portable/synopsys/dwc2/dcd_dwc2.c ****   TU_ASSERT(fifo_alloc(rhport, desc_edpt->bEndpointAddress, tu_edpt_packet_size(desc_edpt)));
 2141              		.loc 1 720 75 is_stmt 0 view .LVU661
 2142 0000 70B5     		push	{r4, r5, r6, lr}
 2143              		.cfi_def_cfa_offset 16
 2144              		.cfi_offset 4, -16
 2145              		.cfi_offset 5, -12
 2146              		.cfi_offset 6, -8
 2147              		.cfi_offset 14, -4
 2148              	.LBB373:
 2149              	.LBB374:
 2150              		.loc 2 501 10 view .LVU662
 2151 0002 8A88     		ldrh	r2, [r1, #4]	@ unaligned
 2152              	.LBE374:
 2153              	.LBE373:
 720:lib/tinyusb/src/portable/synopsys/dwc2/dcd_dwc2.c ****   TU_ASSERT(fifo_alloc(rhport, desc_edpt->bEndpointAddress, tu_edpt_packet_size(desc_edpt)));
 2154              		.loc 1 720 75 view .LVU663
 2155 0004 0C46     		mov	r4, r1
 2156              	.LVL144:
 2157              	.LBB376:
 2158              	.LBI373:
 500:lib/tinyusb/src/common/tusb_types.h ****   return tu_le16toh(desc_ep->wMaxPacketSize) & 0x7FF;
 2159              		.loc 2 500 46 is_stmt 1 view .LVU664
 2160              	.LBB375:
ARM GAS  /tmp/claude-502/ccFotbfS.s 			page 123


 2161              		.loc 2 501 3 view .LVU665
 2162              		.loc 2 501 3 is_stmt 0 view .LVU666
 2163              	.LBE375:
 2164              	.LBE376:
 721:lib/tinyusb/src/portable/synopsys/dwc2/dcd_dwc2.c ****   edpt_activate(rhport, desc_edpt);
 2165              		.loc 1 721 3 view .LVU667
 2166 0006 8978     		ldrb	r1, [r1, #2]	@ zero_extendqisi2
 2167              	.LVL145:
 720:lib/tinyusb/src/portable/synopsys/dwc2/dcd_dwc2.c ****   TU_ASSERT(fifo_alloc(rhport, desc_edpt->bEndpointAddress, tu_edpt_packet_size(desc_edpt)));
 2168              		.loc 1 720 75 view .LVU668
 2169 0008 0646     		mov	r6, r0
 721:lib/tinyusb/src/portable/synopsys/dwc2/dcd_dwc2.c ****   edpt_activate(rhport, desc_edpt);
 2170              		.loc 1 721 3 view .LVU669
 2171 000a C2F30A02 		ubfx	r2, r2, #0, #11
 2172 000e FFF7FEFF 		bl	fifo_alloc
 2173              	.LVL146:
 721:lib/tinyusb/src/portable/synopsys/dwc2/dcd_dwc2.c ****   edpt_activate(rhport, desc_edpt);
 2174              		.loc 1 721 3 view .LVU670
 2175 0012 0546     		mov	r5, r0
 2176 0014 40B9     		cbnz	r0, .L163
 721:lib/tinyusb/src/portable/synopsys/dwc2/dcd_dwc2.c ****   edpt_activate(rhport, desc_edpt);
 2177              		.loc 1 721 3 is_stmt 1 discriminator 1 view .LVU671
 721:lib/tinyusb/src/portable/synopsys/dwc2/dcd_dwc2.c ****   edpt_activate(rhport, desc_edpt);
 2178              		.loc 1 721 3 discriminator 1 view .LVU672
 721:lib/tinyusb/src/portable/synopsys/dwc2/dcd_dwc2.c ****   edpt_activate(rhport, desc_edpt);
 2179              		.loc 1 721 3 discriminator 1 view .LVU673
 721:lib/tinyusb/src/portable/synopsys/dwc2/dcd_dwc2.c ****   edpt_activate(rhport, desc_edpt);
 2180              		.loc 1 721 3 discriminator 1 view .LVU674
 2181              	.LBB377:
 721:lib/tinyusb/src/portable/synopsys/dwc2/dcd_dwc2.c ****   edpt_activate(rhport, desc_edpt);
 2182              		.loc 1 721 3 discriminator 1 view .LVU675
 2183              	.LVL147:
 721:lib/tinyusb/src/portable/synopsys/dwc2/dcd_dwc2.c ****   edpt_activate(rhport, desc_edpt);
 2184              		.loc 1 721 3 discriminator 1 view .LVU676
 2185 0016 4FF0E023 		mov	r3, #-536813568
 2186 001a D3F8F03D 		ldr	r3, [r3, #3568]
 2187 001e DB07     		lsls	r3, r3, #31
 2188 0020 00D5     		bpl	.L164
 721:lib/tinyusb/src/portable/synopsys/dwc2/dcd_dwc2.c ****   edpt_activate(rhport, desc_edpt);
 2189              		.loc 1 721 3 discriminator 3 view .LVU677
 2190              		.syntax unified
 2191              	@ 721 "lib/tinyusb/src/portable/synopsys/dwc2/dcd_dwc2.c" 1
 2192 0022 00BE     		BKPT #0
 2193              	
 2194              	@ 0 "" 2
 2195              		.thumb
 2196              		.syntax unified
 2197              	.L164:
 2198              	.LBE377:
 724:lib/tinyusb/src/portable/synopsys/dwc2/dcd_dwc2.c **** 
 2199              		.loc 1 724 1 is_stmt 0 view .LVU678
 2200 0024 2846     		mov	r0, r5
 2201 0026 70BD     		pop	{r4, r5, r6, pc}
 2202              	.LVL148:
 2203              	.L163:
 721:lib/tinyusb/src/portable/synopsys/dwc2/dcd_dwc2.c ****   edpt_activate(rhport, desc_edpt);
 2204              		.loc 1 721 3 is_stmt 1 discriminator 2 view .LVU679
ARM GAS  /tmp/claude-502/ccFotbfS.s 			page 124


 722:lib/tinyusb/src/portable/synopsys/dwc2/dcd_dwc2.c ****   return true;
 2205              		.loc 1 722 3 discriminator 2 view .LVU680
 2206 0028 3046     		mov	r0, r6
 2207 002a 2146     		mov	r1, r4
 2208 002c FFF7FEFF 		bl	edpt_activate
 2209              	.LVL149:
 723:lib/tinyusb/src/portable/synopsys/dwc2/dcd_dwc2.c **** }
 2210              		.loc 1 723 3 discriminator 2 view .LVU681
 724:lib/tinyusb/src/portable/synopsys/dwc2/dcd_dwc2.c **** 
 2211              		.loc 1 724 1 is_stmt 0 discriminator 2 view .LVU682
 2212 0030 2846     		mov	r0, r5
 2213 0032 70BD     		pop	{r4, r5, r6, pc}
 724:lib/tinyusb/src/portable/synopsys/dwc2/dcd_dwc2.c **** 
 2214              		.loc 1 724 1 discriminator 2 view .LVU683
 2215              		.cfi_endproc
 2216              	.LFE411:
 2218              		.section	.text.dcd_edpt_close_all,"ax",%progbits
 2219              		.align	1
 2220              		.p2align 2,,3
 2221              		.global	dcd_edpt_close_all
 2222              		.syntax unified
 2223              		.thumb
 2224              		.thumb_func
 2226              	dcd_edpt_close_all:
 2227              	.LVL150:
 2228              	.LFB412:
 727:lib/tinyusb/src/portable/synopsys/dwc2/dcd_dwc2.c ****   dwc2_regs_t* dwc2 = DWC2_REG(rhport);
 2229              		.loc 1 727 41 is_stmt 1 view -0
 2230              		.cfi_startproc
 2231              		@ args = 0, pretend = 0, frame = 0
 2232              		@ frame_needed = 0, uses_anonymous_args = 0
 728:lib/tinyusb/src/portable/synopsys/dwc2/dcd_dwc2.c ****   uint8_t const ep_count = _dwc2_controller[rhport].ep_count;
 2233              		.loc 1 728 3 view .LVU685
 728:lib/tinyusb/src/portable/synopsys/dwc2/dcd_dwc2.c ****   uint8_t const ep_count = _dwc2_controller[rhport].ep_count;
 2234              		.loc 1 728 23 is_stmt 0 view .LVU686
 2235 0000 234A     		ldr	r2, .L180
 732:lib/tinyusb/src/portable/synopsys/dwc2/dcd_dwc2.c **** 
 2236              		.loc 1 732 18 view .LVU687
 2237 0002 4FF00111 		mov	r1, #65537
 728:lib/tinyusb/src/portable/synopsys/dwc2/dcd_dwc2.c ****   uint8_t const ep_count = _dwc2_controller[rhport].ep_count;
 2238              		.loc 1 728 23 view .LVU688
 2239 0006 02EB0013 		add	r3, r2, r0, lsl #4
 727:lib/tinyusb/src/portable/synopsys/dwc2/dcd_dwc2.c ****   dwc2_regs_t* dwc2 = DWC2_REG(rhport);
 2240              		.loc 1 727 41 view .LVU689
 2241 000a 30B5     		push	{r4, r5, lr}
 2242              		.cfi_def_cfa_offset 12
 2243              		.cfi_offset 4, -12
 2244              		.cfi_offset 5, -8
 2245              		.cfi_offset 14, -4
 729:lib/tinyusb/src/portable/synopsys/dwc2/dcd_dwc2.c **** 
 2246              		.loc 1 729 17 view .LVU690
 2247 000c 93F808C0 		ldrb	ip, [r3, #8]	@ zero_extendqisi2
 728:lib/tinyusb/src/portable/synopsys/dwc2/dcd_dwc2.c ****   uint8_t const ep_count = _dwc2_controller[rhport].ep_count;
 2248              		.loc 1 728 23 view .LVU691
 2249 0010 0401     		lsls	r4, r0, #4
 2250              	.LBB378:
 734:lib/tinyusb/src/portable/synopsys/dwc2/dcd_dwc2.c ****     // disable OUT endpoint
ARM GAS  /tmp/claude-502/ccFotbfS.s 			page 125


 2251              		.loc 1 734 3 view .LVU692
 2252 0012 BCF1010F 		cmp	ip, #1
 2253              	.LBE378:
 728:lib/tinyusb/src/portable/synopsys/dwc2/dcd_dwc2.c ****   uint8_t const ep_count = _dwc2_controller[rhport].ep_count;
 2254              		.loc 1 728 16 view .LVU693
 2255 0016 1059     		ldr	r0, [r2, r4]
 2256              	.LVL151:
 729:lib/tinyusb/src/portable/synopsys/dwc2/dcd_dwc2.c **** 
 2257              		.loc 1 729 3 is_stmt 1 view .LVU694
 732:lib/tinyusb/src/portable/synopsys/dwc2/dcd_dwc2.c **** 
 2258              		.loc 1 732 3 view .LVU695
 732:lib/tinyusb/src/portable/synopsys/dwc2/dcd_dwc2.c **** 
 2259              		.loc 1 732 18 is_stmt 0 view .LVU696
 2260 0018 C0F81C18 		str	r1, [r0, #2076]
 734:lib/tinyusb/src/portable/synopsys/dwc2/dcd_dwc2.c ****     // disable OUT endpoint
 2261              		.loc 1 734 3 is_stmt 1 view .LVU697
 2262              	.LBB379:
 734:lib/tinyusb/src/portable/synopsys/dwc2/dcd_dwc2.c ****     // disable OUT endpoint
 2263              		.loc 1 734 8 view .LVU698
 2264              	.LVL152:
 734:lib/tinyusb/src/portable/synopsys/dwc2/dcd_dwc2.c ****     // disable OUT endpoint
 2265              		.loc 1 734 23 view .LVU699
 734:lib/tinyusb/src/portable/synopsys/dwc2/dcd_dwc2.c ****     // disable OUT endpoint
 2266              		.loc 1 734 3 is_stmt 0 view .LVU700
 2267 001c 23D9     		bls	.L170
 2268 001e 1D49     		ldr	r1, .L180+4
 2269 0020 0122     		movs	r2, #1
 739:lib/tinyusb/src/portable/synopsys/dwc2/dcd_dwc2.c **** 
 2270              		.loc 1 739 43 view .LVU701
 2271 0022 4FF0000E 		mov	lr, #0
 2272              	.LVL153:
 2273              	.L173:
 736:lib/tinyusb/src/portable/synopsys/dwc2/dcd_dwc2.c ****       dwc2->epout[n].doepctl |= DOEPCTL_SNAK | DOEPCTL_EPDIS;
 2274              		.loc 1 736 5 is_stmt 1 view .LVU702
 737:lib/tinyusb/src/portable/synopsys/dwc2/dcd_dwc2.c ****     }
 2275              		.loc 1 737 7 view .LVU703
 739:lib/tinyusb/src/portable/synopsys/dwc2/dcd_dwc2.c **** 
 2276              		.loc 1 739 5 view .LVU704
 743:lib/tinyusb/src/portable/synopsys/dwc2/dcd_dwc2.c ****     }
 2277              		.loc 1 743 7 view .LVU705
 745:lib/tinyusb/src/portable/synopsys/dwc2/dcd_dwc2.c ****   }
 2278              		.loc 1 745 5 view .LVU706
 2279 0026 00EB4213 		add	r3, r0, r2, lsl #5
 734:lib/tinyusb/src/portable/synopsys/dwc2/dcd_dwc2.c ****     // disable OUT endpoint
 2280              		.loc 1 734 3 is_stmt 0 view .LVU707
 2281 002a 0132     		adds	r2, r2, #1
 2282              	.LVL154:
 736:lib/tinyusb/src/portable/synopsys/dwc2/dcd_dwc2.c ****       dwc2->epout[n].doepctl |= DOEPCTL_SNAK | DOEPCTL_EPDIS;
 2283              		.loc 1 736 23 view .LVU708
 2284 002c D3F8005B 		ldr	r5, [r3, #2816]
 734:lib/tinyusb/src/portable/synopsys/dwc2/dcd_dwc2.c ****     // disable OUT endpoint
 2285              		.loc 1 734 3 view .LVU709
 2286 0030 D4B2     		uxtb	r4, r2
 736:lib/tinyusb/src/portable/synopsys/dwc2/dcd_dwc2.c ****       dwc2->epout[n].doepctl |= DOEPCTL_SNAK | DOEPCTL_EPDIS;
 2287              		.loc 1 736 8 view .LVU710
 2288 0032 002D     		cmp	r5, #0
 2289 0034 05DA     		bge	.L171
ARM GAS  /tmp/claude-502/ccFotbfS.s 			page 126


 737:lib/tinyusb/src/portable/synopsys/dwc2/dcd_dwc2.c ****     }
 2290              		.loc 1 737 30 view .LVU711
 2291 0036 D3F8005B 		ldr	r5, [r3, #2816]
 2292 003a 45F09045 		orr	r5, r5, #1207959552
 2293 003e C3F8005B 		str	r5, [r3, #2816]
 2294              	.L171:
 742:lib/tinyusb/src/portable/synopsys/dwc2/dcd_dwc2.c ****       dwc2->epin[n].diepctl |= DIEPCTL_SNAK | DIEPCTL_EPDIS;
 2295              		.loc 1 742 22 view .LVU712
 2296 0042 D3F80059 		ldr	r5, [r3, #2304]
 739:lib/tinyusb/src/portable/synopsys/dwc2/dcd_dwc2.c **** 
 2297              		.loc 1 739 43 view .LVU713
 2298 0046 A1F82AE0 		strh	lr, [r1, #42]	@ movhi
 742:lib/tinyusb/src/portable/synopsys/dwc2/dcd_dwc2.c ****       dwc2->epin[n].diepctl |= DIEPCTL_SNAK | DIEPCTL_EPDIS;
 2299              		.loc 1 742 5 is_stmt 1 view .LVU714
 742:lib/tinyusb/src/portable/synopsys/dwc2/dcd_dwc2.c ****       dwc2->epin[n].diepctl |= DIEPCTL_SNAK | DIEPCTL_EPDIS;
 2300              		.loc 1 742 8 is_stmt 0 view .LVU715
 2301 004a 002D     		cmp	r5, #0
 2302 004c 05DA     		bge	.L172
 743:lib/tinyusb/src/portable/synopsys/dwc2/dcd_dwc2.c ****     }
 2303              		.loc 1 743 29 view .LVU716
 2304 004e D3F80059 		ldr	r5, [r3, #2304]
 2305 0052 45F09045 		orr	r5, r5, #1207959552
 2306 0056 C3F80059 		str	r5, [r3, #2304]
 2307              	.L172:
 734:lib/tinyusb/src/portable/synopsys/dwc2/dcd_dwc2.c ****     // disable OUT endpoint
 2308              		.loc 1 734 3 discriminator 2 view .LVU717
 2309 005a A445     		cmp	ip, r4
 745:lib/tinyusb/src/portable/synopsys/dwc2/dcd_dwc2.c ****   }
 2310              		.loc 1 745 42 discriminator 2 view .LVU718
 2311 005c A1F83AE0 		strh	lr, [r1, #58]	@ movhi
 734:lib/tinyusb/src/portable/synopsys/dwc2/dcd_dwc2.c ****     // disable OUT endpoint
 2312              		.loc 1 734 37 is_stmt 1 discriminator 2 view .LVU719
 734:lib/tinyusb/src/portable/synopsys/dwc2/dcd_dwc2.c ****     // disable OUT endpoint
 2313              		.loc 1 734 23 discriminator 2 view .LVU720
 734:lib/tinyusb/src/portable/synopsys/dwc2/dcd_dwc2.c ****     // disable OUT endpoint
 2314              		.loc 1 734 3 is_stmt 0 discriminator 2 view .LVU721
 2315 0060 01F12001 		add	r1, r1, #32
 2316 0064 DFD8     		bhi	.L173
 2317              	.L170:
 734:lib/tinyusb/src/portable/synopsys/dwc2/dcd_dwc2.c ****     // disable OUT endpoint
 2318              		.loc 1 734 3 discriminator 2 view .LVU722
 2319              	.LBE379:
 749:lib/tinyusb/src/portable/synopsys/dwc2/dcd_dwc2.c ****   // reset allocated fifo IN
 2320              		.loc 1 749 3 is_stmt 1 view .LVU723
 2321              	.LVL155:
 2322              	.LBB380:
 2323              	.LBI380:
 111:lib/tinyusb/src/portable/synopsys/dwc2/dcd_dwc2.c ****   return 15 + 2 * (max_ep_size / 4) + 2 * ep_count;
 2324              		.loc 1 111 24 view .LVU724
 2325              	.LBB381:
 112:lib/tinyusb/src/portable/synopsys/dwc2/dcd_dwc2.c **** }
 2326              		.loc 1 112 3 view .LVU725
 112:lib/tinyusb/src/portable/synopsys/dwc2/dcd_dwc2.c **** }
 2327              		.loc 1 112 37 is_stmt 0 view .LVU726
 2328 0066 0CF11003 		add	r3, ip, #16
 2329              	.LBE381:
 2330              	.LBE380:
ARM GAS  /tmp/claude-502/ccFotbfS.s 			page 127


 751:lib/tinyusb/src/portable/synopsys/dwc2/dcd_dwc2.c **** 
 2331              		.loc 1 751 28 view .LVU727
 2332 006a 0B49     		ldr	r1, .L180+8
 2333 006c 1024     		movs	r4, #16
 2334              	.LBB384:
 2335              	.LBB385:
 117:lib/tinyusb/src/portable/synopsys/dwc2/dcd_dwc2.c ****   while (dwc2->grstctl & GRSTCTL_TXFFLSH_Msk) {}
 2336              		.loc 1 117 17 view .LVU728
 2337 006e 4FF48462 		mov	r2, #1056
 2338              	.LBE385:
 2339              	.LBE384:
 2340              	.LBB387:
 2341              	.LBB382:
 112:lib/tinyusb/src/portable/synopsys/dwc2/dcd_dwc2.c **** }
 2342              		.loc 1 112 37 view .LVU729
 2343 0072 DBB2     		uxtb	r3, r3
 2344              	.LBE382:
 2345              	.LBE387:
 751:lib/tinyusb/src/portable/synopsys/dwc2/dcd_dwc2.c **** 
 2346              		.loc 1 751 28 view .LVU730
 2347 0074 0C80     		strh	r4, [r1]	@ movhi
 2348              	.LBB388:
 2349              	.LBB383:
 112:lib/tinyusb/src/portable/synopsys/dwc2/dcd_dwc2.c **** }
 2350              		.loc 1 112 37 view .LVU731
 2351 0076 5B00     		lsls	r3, r3, #1
 2352              	.LBE383:
 2353              	.LBE388:
 749:lib/tinyusb/src/portable/synopsys/dwc2/dcd_dwc2.c ****   // reset allocated fifo IN
 2354              		.loc 1 749 19 view .LVU732
 2355 0078 0F33     		adds	r3, r3, #15
 749:lib/tinyusb/src/portable/synopsys/dwc2/dcd_dwc2.c ****   // reset allocated fifo IN
 2356              		.loc 1 749 17 view .LVU733
 2357 007a 4362     		str	r3, [r0, #36]
 751:lib/tinyusb/src/portable/synopsys/dwc2/dcd_dwc2.c **** 
 2358              		.loc 1 751 3 is_stmt 1 view .LVU734
 753:lib/tinyusb/src/portable/synopsys/dwc2/dcd_dwc2.c ****   fifo_flush_rx(dwc2);
 2359              		.loc 1 753 3 view .LVU735
 2360              	.LVL156:
 2361              	.LBB389:
 2362              	.LBI384:
 115:lib/tinyusb/src/portable/synopsys/dwc2/dcd_dwc2.c ****   // flush TX fifo and wait for it cleared
 2363              		.loc 1 115 42 view .LVU736
 2364              	.LBB386:
 117:lib/tinyusb/src/portable/synopsys/dwc2/dcd_dwc2.c ****   while (dwc2->grstctl & GRSTCTL_TXFFLSH_Msk) {}
 2365              		.loc 1 117 3 view .LVU737
 117:lib/tinyusb/src/portable/synopsys/dwc2/dcd_dwc2.c ****   while (dwc2->grstctl & GRSTCTL_TXFFLSH_Msk) {}
 2366              		.loc 1 117 17 is_stmt 0 view .LVU738
 2367 007c 0261     		str	r2, [r0, #16]
 118:lib/tinyusb/src/portable/synopsys/dwc2/dcd_dwc2.c **** }
 2368              		.loc 1 118 3 is_stmt 1 view .LVU739
 2369              	.L174:
 118:lib/tinyusb/src/portable/synopsys/dwc2/dcd_dwc2.c **** }
 2370              		.loc 1 118 48 view .LVU740
 118:lib/tinyusb/src/portable/synopsys/dwc2/dcd_dwc2.c **** }
 2371              		.loc 1 118 9 view .LVU741
 118:lib/tinyusb/src/portable/synopsys/dwc2/dcd_dwc2.c **** }
ARM GAS  /tmp/claude-502/ccFotbfS.s 			page 128


 2372              		.loc 1 118 14 is_stmt 0 view .LVU742
 2373 007e 0369     		ldr	r3, [r0, #16]
 118:lib/tinyusb/src/portable/synopsys/dwc2/dcd_dwc2.c **** }
 2374              		.loc 1 118 9 view .LVU743
 2375 0080 9A06     		lsls	r2, r3, #26
 2376 0082 FCD4     		bmi	.L174
 2377              	.LVL157:
 118:lib/tinyusb/src/portable/synopsys/dwc2/dcd_dwc2.c **** }
 2378              		.loc 1 118 9 view .LVU744
 2379              	.LBE386:
 2380              	.LBE389:
 754:lib/tinyusb/src/portable/synopsys/dwc2/dcd_dwc2.c **** }
 2381              		.loc 1 754 3 is_stmt 1 view .LVU745
 2382              	.LBB390:
 2383              	.LBI390:
 120:lib/tinyusb/src/portable/synopsys/dwc2/dcd_dwc2.c ****   // flush RX fifo and wait for it cleared
 2384              		.loc 1 120 42 view .LVU746
 2385              	.LBB391:
 122:lib/tinyusb/src/portable/synopsys/dwc2/dcd_dwc2.c ****   while (dwc2->grstctl & GRSTCTL_RXFFLSH_Msk) {}
 2386              		.loc 1 122 3 view .LVU747
 122:lib/tinyusb/src/portable/synopsys/dwc2/dcd_dwc2.c ****   while (dwc2->grstctl & GRSTCTL_RXFFLSH_Msk) {}
 2387              		.loc 1 122 17 is_stmt 0 view .LVU748
 2388 0084 1023     		movs	r3, #16
 2389 0086 0361     		str	r3, [r0, #16]
 123:lib/tinyusb/src/portable/synopsys/dwc2/dcd_dwc2.c **** }
 2390              		.loc 1 123 3 is_stmt 1 view .LVU749
 2391              	.L175:
 123:lib/tinyusb/src/portable/synopsys/dwc2/dcd_dwc2.c **** }
 2392              		.loc 1 123 48 view .LVU750
 123:lib/tinyusb/src/portable/synopsys/dwc2/dcd_dwc2.c **** }
 2393              		.loc 1 123 9 view .LVU751
 123:lib/tinyusb/src/portable/synopsys/dwc2/dcd_dwc2.c **** }
 2394              		.loc 1 123 14 is_stmt 0 view .LVU752
 2395 0088 0369     		ldr	r3, [r0, #16]
 123:lib/tinyusb/src/portable/synopsys/dwc2/dcd_dwc2.c **** }
 2396              		.loc 1 123 9 view .LVU753
 2397 008a DB06     		lsls	r3, r3, #27
 2398 008c FCD4     		bmi	.L175
 2399              	.LBE391:
 2400              	.LBE390:
 755:lib/tinyusb/src/portable/synopsys/dwc2/dcd_dwc2.c **** 
 2401              		.loc 1 755 1 view .LVU754
 2402 008e 30BD     		pop	{r4, r5, pc}
 2403              	.L181:
 2404              		.align	2
 2405              	.L180:
 2406 0090 00000000 		.word	.LANCHOR0
 2407 0094 00000000 		.word	.LANCHOR2
 2408 0098 00000000 		.word	.LANCHOR1
 2409              		.cfi_endproc
 2410              	.LFE412:
 2412              		.section	.text.dcd_edpt_iso_alloc,"ax",%progbits
 2413              		.align	1
 2414              		.p2align 2,,3
 2415              		.global	dcd_edpt_iso_alloc
 2416              		.syntax unified
 2417              		.thumb
ARM GAS  /tmp/claude-502/ccFotbfS.s 			page 129


 2418              		.thumb_func
 2420              	dcd_edpt_iso_alloc:
 2421              	.LVL158:
 2422              	.LFB413:
 757:lib/tinyusb/src/portable/synopsys/dwc2/dcd_dwc2.c ****   TU_ASSERT(fifo_alloc(rhport, ep_addr, largest_packet_size));
 2423              		.loc 1 757 88 is_stmt 1 view -0
 2424              		.cfi_startproc
 2425              		@ args = 0, pretend = 0, frame = 0
 2426              		@ frame_needed = 0, uses_anonymous_args = 0
 758:lib/tinyusb/src/portable/synopsys/dwc2/dcd_dwc2.c ****   return true;
 2427              		.loc 1 758 3 view .LVU756
 758:lib/tinyusb/src/portable/synopsys/dwc2/dcd_dwc2.c ****   return true;
 2428              		.loc 1 758 3 view .LVU757
 757:lib/tinyusb/src/portable/synopsys/dwc2/dcd_dwc2.c ****   TU_ASSERT(fifo_alloc(rhport, ep_addr, largest_packet_size));
 2429              		.loc 1 757 88 is_stmt 0 view .LVU758
 2430 0000 08B5     		push	{r3, lr}
 2431              		.cfi_def_cfa_offset 8
 2432              		.cfi_offset 3, -8
 2433              		.cfi_offset 14, -4
 758:lib/tinyusb/src/portable/synopsys/dwc2/dcd_dwc2.c ****   return true;
 2434              		.loc 1 758 3 view .LVU759
 2435 0002 FFF7FEFF 		bl	fifo_alloc
 2436              	.LVL159:
 758:lib/tinyusb/src/portable/synopsys/dwc2/dcd_dwc2.c ****   return true;
 2437              		.loc 1 758 3 view .LVU760
 2438 0006 00B1     		cbz	r0, .L188
 2439              	.L183:
 760:lib/tinyusb/src/portable/synopsys/dwc2/dcd_dwc2.c **** 
 2440              		.loc 1 760 1 view .LVU761
 2441 0008 08BD     		pop	{r3, pc}
 2442              	.L188:
 758:lib/tinyusb/src/portable/synopsys/dwc2/dcd_dwc2.c ****   return true;
 2443              		.loc 1 758 3 is_stmt 1 discriminator 1 view .LVU762
 758:lib/tinyusb/src/portable/synopsys/dwc2/dcd_dwc2.c ****   return true;
 2444              		.loc 1 758 3 discriminator 1 view .LVU763
 758:lib/tinyusb/src/portable/synopsys/dwc2/dcd_dwc2.c ****   return true;
 2445              		.loc 1 758 3 discriminator 1 view .LVU764
 758:lib/tinyusb/src/portable/synopsys/dwc2/dcd_dwc2.c ****   return true;
 2446              		.loc 1 758 3 discriminator 1 view .LVU765
 2447              	.LBB392:
 758:lib/tinyusb/src/portable/synopsys/dwc2/dcd_dwc2.c ****   return true;
 2448              		.loc 1 758 3 discriminator 1 view .LVU766
 2449              	.LVL160:
 758:lib/tinyusb/src/portable/synopsys/dwc2/dcd_dwc2.c ****   return true;
 2450              		.loc 1 758 3 discriminator 1 view .LVU767
 2451 000a 4FF0E023 		mov	r3, #-536813568
 2452 000e D3F8F03D 		ldr	r3, [r3, #3568]
 2453 0012 DB07     		lsls	r3, r3, #31
 2454 0014 F8D5     		bpl	.L183
 758:lib/tinyusb/src/portable/synopsys/dwc2/dcd_dwc2.c ****   return true;
 2455              		.loc 1 758 3 discriminator 3 view .LVU768
 2456              		.syntax unified
 2457              	@ 758 "lib/tinyusb/src/portable/synopsys/dwc2/dcd_dwc2.c" 1
 2458 0016 00BE     		BKPT #0
 2459              	
 2460              	@ 0 "" 2
 2461              		.thumb
ARM GAS  /tmp/claude-502/ccFotbfS.s 			page 130


 2462              		.syntax unified
 2463              	.LBE392:
 760:lib/tinyusb/src/portable/synopsys/dwc2/dcd_dwc2.c **** 
 2464              		.loc 1 760 1 is_stmt 0 discriminator 3 view .LVU769
 2465 0018 08BD     		pop	{r3, pc}
 2466              		.cfi_endproc
 2467              	.LFE413:
 2469 001a 00BF     		.section	.text.dcd_edpt_iso_activate,"ax",%progbits
 2470              		.align	1
 2471              		.p2align 2,,3
 2472              		.global	dcd_edpt_iso_activate
 2473              		.syntax unified
 2474              		.thumb
 2475              		.thumb_func
 2477              	dcd_edpt_iso_activate:
 2478              	.LVL161:
 2479              	.LFB414:
 762:lib/tinyusb/src/portable/synopsys/dwc2/dcd_dwc2.c ****   // Disable EP to clear potential incomplete transfers
 2480              		.loc 1 762 91 is_stmt 1 view -0
 2481              		.cfi_startproc
 2482              		@ args = 0, pretend = 0, frame = 0
 2483              		@ frame_needed = 0, uses_anonymous_args = 0
 764:lib/tinyusb/src/portable/synopsys/dwc2/dcd_dwc2.c **** 
 2484              		.loc 1 764 3 view .LVU771
 762:lib/tinyusb/src/portable/synopsys/dwc2/dcd_dwc2.c ****   // Disable EP to clear potential incomplete transfers
 2485              		.loc 1 762 91 is_stmt 0 view .LVU772
 2486 0000 38B5     		push	{r3, r4, r5, lr}
 2487              		.cfi_def_cfa_offset 16
 2488              		.cfi_offset 3, -16
 2489              		.cfi_offset 4, -12
 2490              		.cfi_offset 5, -8
 2491              		.cfi_offset 14, -4
 762:lib/tinyusb/src/portable/synopsys/dwc2/dcd_dwc2.c ****   // Disable EP to clear potential incomplete transfers
 2492              		.loc 1 762 91 view .LVU773
 2493 0002 0C46     		mov	r4, r1
 2494 0004 0546     		mov	r5, r0
 764:lib/tinyusb/src/portable/synopsys/dwc2/dcd_dwc2.c **** 
 2495              		.loc 1 764 3 view .LVU774
 2496 0006 0022     		movs	r2, #0
 2497 0008 8978     		ldrb	r1, [r1, #2]	@ zero_extendqisi2
 2498              	.LVL162:
 764:lib/tinyusb/src/portable/synopsys/dwc2/dcd_dwc2.c **** 
 2499              		.loc 1 764 3 view .LVU775
 2500 000a FFF7FEFF 		bl	edpt_disable
 2501              	.LVL163:
 766:lib/tinyusb/src/portable/synopsys/dwc2/dcd_dwc2.c **** 
 2502              		.loc 1 766 3 is_stmt 1 view .LVU776
 2503 000e 2846     		mov	r0, r5
 2504 0010 2146     		mov	r1, r4
 2505 0012 FFF7FEFF 		bl	edpt_activate
 2506              	.LVL164:
 768:lib/tinyusb/src/portable/synopsys/dwc2/dcd_dwc2.c **** }
 2507              		.loc 1 768 3 view .LVU777
 769:lib/tinyusb/src/portable/synopsys/dwc2/dcd_dwc2.c **** 
 2508              		.loc 1 769 1 is_stmt 0 view .LVU778
 2509 0016 0120     		movs	r0, #1
 2510 0018 38BD     		pop	{r3, r4, r5, pc}
ARM GAS  /tmp/claude-502/ccFotbfS.s 			page 131


 769:lib/tinyusb/src/portable/synopsys/dwc2/dcd_dwc2.c **** 
 2511              		.loc 1 769 1 view .LVU779
 2512              		.cfi_endproc
 2513              	.LFE414:
 2515 001a 00BF     		.section	.text.dcd_edpt_xfer,"ax",%progbits
 2516              		.align	1
 2517              		.p2align 2,,3
 2518              		.global	dcd_edpt_xfer
 2519              		.syntax unified
 2520              		.thumb
 2521              		.thumb_func
 2523              	dcd_edpt_xfer:
 2524              	.LVL165:
 2525              	.LFB415:
 771:lib/tinyusb/src/portable/synopsys/dwc2/dcd_dwc2.c ****   uint8_t const epnum = tu_edpt_number(ep_addr);
 2526              		.loc 1 771 92 is_stmt 1 view -0
 2527              		.cfi_startproc
 2528              		@ args = 0, pretend = 0, frame = 0
 2529              		@ frame_needed = 0, uses_anonymous_args = 0
 772:lib/tinyusb/src/portable/synopsys/dwc2/dcd_dwc2.c ****   uint8_t const dir = tu_edpt_dir(ep_addr);
 2530              		.loc 1 772 3 view .LVU781
 2531              	.LBB393:
 2532              	.LBI393:
 492:lib/tinyusb/src/common/tusb_types.h ****   return (uint8_t)(addr & (~TUSB_DIR_IN_MASK));
 2533              		.loc 2 492 45 view .LVU782
 2534              	.LBB394:
 493:lib/tinyusb/src/common/tusb_types.h **** }
 2535              		.loc 2 493 3 view .LVU783
 2536              	.LBE394:
 2537              	.LBE393:
 771:lib/tinyusb/src/portable/synopsys/dwc2/dcd_dwc2.c ****   uint8_t const epnum = tu_edpt_number(ep_addr);
 2538              		.loc 1 771 92 is_stmt 0 view .LVU784
 2539 0000 2DE9F041 		push	{r4, r5, r6, r7, r8, lr}
 2540              		.cfi_def_cfa_offset 24
 2541              		.cfi_offset 4, -24
 2542              		.cfi_offset 5, -20
 2543              		.cfi_offset 6, -16
 2544              		.cfi_offset 7, -12
 2545              		.cfi_offset 8, -8
 2546              		.cfi_offset 14, -4
 2547              	.LBB396:
 2548              	.LBB395:
 493:lib/tinyusb/src/common/tusb_types.h **** }
 2549              		.loc 2 493 10 view .LVU785
 2550 0004 01F07F05 		and	r5, r1, #127
 2551              	.LVL166:
 493:lib/tinyusb/src/common/tusb_types.h **** }
 2552              		.loc 2 493 10 view .LVU786
 2553              	.LBE395:
 2554              	.LBE396:
 773:lib/tinyusb/src/portable/synopsys/dwc2/dcd_dwc2.c **** 
 2555              		.loc 1 773 3 is_stmt 1 view .LVU787
 2556              	.LBB397:
 2557              	.LBI397:
 487:lib/tinyusb/src/common/tusb_types.h ****   return (addr & TUSB_DIR_IN_MASK) ? TUSB_DIR_IN : TUSB_DIR_OUT;
 2558              		.loc 2 487 48 view .LVU788
 2559              	.LBB398:
ARM GAS  /tmp/claude-502/ccFotbfS.s 			page 132


 488:lib/tinyusb/src/common/tusb_types.h **** }
 2560              		.loc 2 488 3 view .LVU789
 2561              	.LBE398:
 2562              	.LBE397:
 771:lib/tinyusb/src/portable/synopsys/dwc2/dcd_dwc2.c ****   uint8_t const epnum = tu_edpt_number(ep_addr);
 2563              		.loc 1 771 92 is_stmt 0 view .LVU790
 2564 0008 1C46     		mov	r4, r3
 776:lib/tinyusb/src/portable/synopsys/dwc2/dcd_dwc2.c ****   xfer->ff = NULL;
 2565              		.loc 1 776 16 view .LVU791
 2566 000a 1A4F     		ldr	r7, .L202
 777:lib/tinyusb/src/portable/synopsys/dwc2/dcd_dwc2.c ****   xfer->total_len = total_bytes;
 2567              		.loc 1 777 12 view .LVU792
 2568 000c 4FF00008 		mov	r8, #0
 776:lib/tinyusb/src/portable/synopsys/dwc2/dcd_dwc2.c ****   xfer->ff = NULL;
 2569              		.loc 1 776 16 view .LVU793
 2570 0010 4FEA450C 		lsl	ip, r5, #1
 771:lib/tinyusb/src/portable/synopsys/dwc2/dcd_dwc2.c ****   uint8_t const epnum = tu_edpt_number(ep_addr);
 2571              		.loc 1 771 92 view .LVU794
 2572 0014 82B0     		sub	sp, sp, #8
 2573              		.cfi_def_cfa_offset 32
 2574              	.LBB400:
 2575              	.LBB399:
 488:lib/tinyusb/src/common/tusb_types.h **** }
 2576              		.loc 2 488 50 view .LVU795
 2577 0016 CE09     		lsrs	r6, r1, #7
 2578              	.LVL167:
 488:lib/tinyusb/src/common/tusb_types.h **** }
 2579              		.loc 2 488 50 view .LVU796
 2580              	.LBE399:
 2581              	.LBE400:
 775:lib/tinyusb/src/portable/synopsys/dwc2/dcd_dwc2.c ****   xfer->buffer = buffer;
 2582              		.loc 1 775 3 is_stmt 1 view .LVU797
 776:lib/tinyusb/src/portable/synopsys/dwc2/dcd_dwc2.c ****   xfer->ff = NULL;
 2583              		.loc 1 776 3 view .LVU798
 776:lib/tinyusb/src/portable/synopsys/dwc2/dcd_dwc2.c ****   xfer->ff = NULL;
 2584              		.loc 1 776 16 is_stmt 0 view .LVU799
 2585 0018 0CEBD113 		add	r3, ip, r1, lsr #7
 2586              	.LVL168:
 776:lib/tinyusb/src/portable/synopsys/dwc2/dcd_dwc2.c ****   xfer->ff = NULL;
 2587              		.loc 1 776 16 view .LVU800
 2588 001c 07EB0311 		add	r1, r7, r3, lsl #4
 2589              	.LVL169:
 776:lib/tinyusb/src/portable/synopsys/dwc2/dcd_dwc2.c ****   xfer->ff = NULL;
 2590              		.loc 1 776 16 view .LVU801
 2591 0020 1B01     		lsls	r3, r3, #4
 777:lib/tinyusb/src/portable/synopsys/dwc2/dcd_dwc2.c ****   xfer->total_len = total_bytes;
 2592              		.loc 1 777 12 view .LVU802
 2593 0022 C1F80480 		str	r8, [r1, #4]
 776:lib/tinyusb/src/portable/synopsys/dwc2/dcd_dwc2.c ****   xfer->ff = NULL;
 2594              		.loc 1 776 16 view .LVU803
 2595 0026 FA50     		str	r2, [r7, r3]
 777:lib/tinyusb/src/portable/synopsys/dwc2/dcd_dwc2.c ****   xfer->total_len = total_bytes;
 2596              		.loc 1 777 3 is_stmt 1 view .LVU804
 778:lib/tinyusb/src/portable/synopsys/dwc2/dcd_dwc2.c **** 
 2597              		.loc 1 778 3 view .LVU805
 778:lib/tinyusb/src/portable/synopsys/dwc2/dcd_dwc2.c **** 
 2598              		.loc 1 778 19 is_stmt 0 view .LVU806
ARM GAS  /tmp/claude-502/ccFotbfS.s 			page 133


 2599 0028 0C81     		strh	r4, [r1, #8]	@ movhi
 781:lib/tinyusb/src/portable/synopsys/dwc2/dcd_dwc2.c ****     ep0_pending[dir] = total_bytes;
 2600              		.loc 1 781 3 is_stmt 1 view .LVU807
 781:lib/tinyusb/src/portable/synopsys/dwc2/dcd_dwc2.c ****     ep0_pending[dir] = total_bytes;
 2601              		.loc 1 781 6 is_stmt 0 view .LVU808
 2602 002a B5B1     		cbz	r5, .L201
 2603              	.LBB401:
 787:lib/tinyusb/src/portable/synopsys/dwc2/dcd_dwc2.c ****     uint16_t const short_packet_size = total_bytes % xfer->max_size;
 2604              		.loc 1 787 5 is_stmt 1 view .LVU809
 787:lib/tinyusb/src/portable/synopsys/dwc2/dcd_dwc2.c ****     uint16_t const short_packet_size = total_bytes % xfer->max_size;
 2605              		.loc 1 787 47 is_stmt 0 view .LVU810
 2606 002c 4A89     		ldrh	r2, [r1, #10]
 2607              	.LVL170:
 787:lib/tinyusb/src/portable/synopsys/dwc2/dcd_dwc2.c ****     uint16_t const short_packet_size = total_bytes % xfer->max_size;
 2608              		.loc 1 787 47 view .LVU811
 2609 002e 8646     		mov	lr, r0
 787:lib/tinyusb/src/portable/synopsys/dwc2/dcd_dwc2.c ****     uint16_t const short_packet_size = total_bytes % xfer->max_size;
 2610              		.loc 1 787 14 view .LVU812
 2611 0030 B4FBF2F3 		udiv	r3, r4, r2
 788:lib/tinyusb/src/portable/synopsys/dwc2/dcd_dwc2.c **** 
 2612              		.loc 1 788 20 view .LVU813
 2613 0034 02FB1342 		mls	r2, r2, r3, r4
 787:lib/tinyusb/src/portable/synopsys/dwc2/dcd_dwc2.c ****     uint16_t const short_packet_size = total_bytes % xfer->max_size;
 2614              		.loc 1 787 14 view .LVU814
 2615 0038 9BB2     		uxth	r3, r3
 2616              	.LVL171:
 788:lib/tinyusb/src/portable/synopsys/dwc2/dcd_dwc2.c **** 
 2617              		.loc 1 788 5 is_stmt 1 view .LVU815
 791:lib/tinyusb/src/portable/synopsys/dwc2/dcd_dwc2.c **** 
 2618              		.loc 1 791 5 view .LVU816
 791:lib/tinyusb/src/portable/synopsys/dwc2/dcd_dwc2.c **** 
 2619              		.loc 1 791 28 is_stmt 0 view .LVU817
 2620 003a 92B2     		uxth	r2, r2
 791:lib/tinyusb/src/portable/synopsys/dwc2/dcd_dwc2.c **** 
 2621              		.loc 1 791 8 view .LVU818
 2622 003c 52B9     		cbnz	r2, .L196
 2623 003e 4CB1     		cbz	r4, .L196
 2624              	.L194:
 794:lib/tinyusb/src/portable/synopsys/dwc2/dcd_dwc2.c ****   }
 2625              		.loc 1 794 5 is_stmt 1 view .LVU819
 2626 0040 7046     		mov	r0, lr
 2627              	.LVL172:
 794:lib/tinyusb/src/portable/synopsys/dwc2/dcd_dwc2.c ****   }
 2628              		.loc 1 794 5 is_stmt 0 view .LVU820
 2629 0042 3246     		mov	r2, r6
 2630 0044 2946     		mov	r1, r5
 2631              	.LVL173:
 794:lib/tinyusb/src/portable/synopsys/dwc2/dcd_dwc2.c ****   }
 2632              		.loc 1 794 5 view .LVU821
 2633 0046 0094     		str	r4, [sp]
 2634 0048 FFF7FEFF 		bl	edpt_schedule_packets
 2635              	.LVL174:
 794:lib/tinyusb/src/portable/synopsys/dwc2/dcd_dwc2.c ****   }
 2636              		.loc 1 794 5 view .LVU822
 2637              	.LBE401:
 2638              		.loc 1 797 3 is_stmt 1 view .LVU823
 798:lib/tinyusb/src/portable/synopsys/dwc2/dcd_dwc2.c **** }
ARM GAS  /tmp/claude-502/ccFotbfS.s 			page 134


 2639              		.loc 1 798 1 is_stmt 0 view .LVU824
 2640 004c 0120     		movs	r0, #1
 2641 004e 02B0     		add	sp, sp, #8
 2642              		.cfi_remember_state
 2643              		.cfi_def_cfa_offset 24
 2644              		@ sp needed
 2645 0050 BDE8F081 		pop	{r4, r5, r6, r7, r8, pc}
 2646              	.LVL175:
 2647              	.L196:
 2648              		.cfi_restore_state
 2649              	.LBB402:
 791:lib/tinyusb/src/portable/synopsys/dwc2/dcd_dwc2.c **** 
 2650              		.loc 1 791 56 is_stmt 1 discriminator 1 view .LVU825
 791:lib/tinyusb/src/portable/synopsys/dwc2/dcd_dwc2.c **** 
 2651              		.loc 1 791 67 is_stmt 0 discriminator 1 view .LVU826
 2652 0054 0133     		adds	r3, r3, #1
 2653              	.LVL176:
 791:lib/tinyusb/src/portable/synopsys/dwc2/dcd_dwc2.c **** 
 2654              		.loc 1 791 67 discriminator 1 view .LVU827
 2655 0056 9BB2     		uxth	r3, r3
 2656              	.LVL177:
 791:lib/tinyusb/src/portable/synopsys/dwc2/dcd_dwc2.c **** 
 2657              		.loc 1 791 67 discriminator 1 view .LVU828
 2658 0058 F2E7     		b	.L194
 2659              	.LVL178:
 2660              	.L201:
 791:lib/tinyusb/src/portable/synopsys/dwc2/dcd_dwc2.c **** 
 2661              		.loc 1 791 67 discriminator 1 view .LVU829
 2662              	.LBE402:
 782:lib/tinyusb/src/portable/synopsys/dwc2/dcd_dwc2.c **** 
 2663              		.loc 1 782 5 is_stmt 1 view .LVU830
 782:lib/tinyusb/src/portable/synopsys/dwc2/dcd_dwc2.c **** 
 2664              		.loc 1 782 22 is_stmt 0 view .LVU831
 2665 005a 074B     		ldr	r3, .L202+4
 785:lib/tinyusb/src/portable/synopsys/dwc2/dcd_dwc2.c ****   } else {
 2666              		.loc 1 785 5 view .LVU832
 2667 005c 2946     		mov	r1, r5
 2668 005e 0094     		str	r4, [sp]
 2669 0060 3246     		mov	r2, r6
 2670              	.LVL179:
 782:lib/tinyusb/src/portable/synopsys/dwc2/dcd_dwc2.c **** 
 2671              		.loc 1 782 22 view .LVU833
 2672 0062 23F81640 		strh	r4, [r3, r6, lsl #1]	@ movhi
 785:lib/tinyusb/src/portable/synopsys/dwc2/dcd_dwc2.c ****   } else {
 2673              		.loc 1 785 5 is_stmt 1 view .LVU834
 2674 0066 0123     		movs	r3, #1
 2675 0068 FFF7FEFF 		bl	edpt_schedule_packets
 2676              	.LVL180:
 797:lib/tinyusb/src/portable/synopsys/dwc2/dcd_dwc2.c **** }
 2677              		.loc 1 797 3 view .LVU835
 2678              		.loc 1 798 1 is_stmt 0 view .LVU836
 2679 006c 0120     		movs	r0, #1
 2680 006e 02B0     		add	sp, sp, #8
 2681              		.cfi_def_cfa_offset 24
 2682              		@ sp needed
 2683 0070 BDE8F081 		pop	{r4, r5, r6, r7, r8, pc}
 2684              	.LVL181:
ARM GAS  /tmp/claude-502/ccFotbfS.s 			page 135


 2685              	.L203:
 2686              		.loc 1 798 1 view .LVU837
 2687              		.align	2
 2688              	.L202:
 2689 0074 00000000 		.word	.LANCHOR2
 2690 0078 00000000 		.word	.LANCHOR3
 2691              		.cfi_endproc
 2692              	.LFE415:
 2694              		.section	.text.dcd_edpt_xfer_fifo,"ax",%progbits
 2695              		.align	1
 2696              		.p2align 2,,3
 2697              		.weak	dcd_edpt_xfer_fifo
 2698              		.syntax unified
 2699              		.thumb
 2700              		.thumb_func
 2702              	dcd_edpt_xfer_fifo:
 2703              	.LVL182:
 2704              	.LFB416:
 799:lib/tinyusb/src/portable/synopsys/dwc2/dcd_dwc2.c **** 
 800:lib/tinyusb/src/portable/synopsys/dwc2/dcd_dwc2.c **** // The number of bytes has to be given explicitly to allow more flexible control of how many
 801:lib/tinyusb/src/portable/synopsys/dwc2/dcd_dwc2.c **** // bytes should be written and second to keep the return value free to give back a boolean
 802:lib/tinyusb/src/portable/synopsys/dwc2/dcd_dwc2.c **** // success message. If total_bytes is too big, the FIFO will copy only what is available
 803:lib/tinyusb/src/portable/synopsys/dwc2/dcd_dwc2.c **** // into the USB buffer!
 804:lib/tinyusb/src/portable/synopsys/dwc2/dcd_dwc2.c **** bool dcd_edpt_xfer_fifo(uint8_t rhport, uint8_t ep_addr, tu_fifo_t* ff, uint16_t total_bytes) {
 2705              		.loc 1 804 95 is_stmt 1 view -0
 2706              		.cfi_startproc
 2707              		@ args = 0, pretend = 0, frame = 0
 2708              		@ frame_needed = 0, uses_anonymous_args = 0
 805:lib/tinyusb/src/portable/synopsys/dwc2/dcd_dwc2.c ****   // USB buffers always work in bytes so to avoid unnecessary divisions we demand item_size = 1
 806:lib/tinyusb/src/portable/synopsys/dwc2/dcd_dwc2.c ****   TU_ASSERT(ff->item_size == 1);
 2709              		.loc 1 806 3 view .LVU839
 2710              		.loc 1 806 3 view .LVU840
 804:lib/tinyusb/src/portable/synopsys/dwc2/dcd_dwc2.c ****   // USB buffers always work in bytes so to avoid unnecessary divisions we demand item_size = 1
 2711              		.loc 1 804 95 is_stmt 0 view .LVU841
 2712 0000 F0B5     		push	{r4, r5, r6, r7, lr}
 2713              		.cfi_def_cfa_offset 20
 2714              		.cfi_offset 4, -20
 2715              		.cfi_offset 5, -16
 2716              		.cfi_offset 6, -12
 2717              		.cfi_offset 7, -8
 2718              		.cfi_offset 14, -4
 2719 0002 1C46     		mov	r4, r3
 2720              		.loc 1 806 3 view .LVU842
 2721 0004 D388     		ldrh	r3, [r2, #6]
 2722              	.LVL183:
 804:lib/tinyusb/src/portable/synopsys/dwc2/dcd_dwc2.c ****   // USB buffers always work in bytes so to avoid unnecessary divisions we demand item_size = 1
 2723              		.loc 1 804 95 view .LVU843
 2724 0006 83B0     		sub	sp, sp, #12
 2725              		.cfi_def_cfa_offset 32
 2726              		.loc 1 806 3 view .LVU844
 2727 0008 C3F30E03 		ubfx	r3, r3, #0, #15
 2728 000c 012B     		cmp	r3, #1
 2729 000e 0AD0     		beq	.L205
 2730              		.loc 1 806 3 is_stmt 1 discriminator 1 view .LVU845
 2731              		.loc 1 806 3 discriminator 1 view .LVU846
 2732              		.loc 1 806 3 discriminator 1 view .LVU847
 2733              		.loc 1 806 3 discriminator 1 view .LVU848
ARM GAS  /tmp/claude-502/ccFotbfS.s 			page 136


 2734              	.LBB403:
 2735              		.loc 1 806 3 discriminator 1 view .LVU849
 2736              	.LVL184:
 2737              		.loc 1 806 3 discriminator 1 view .LVU850
 2738 0010 4FF0E023 		mov	r3, #-536813568
 2739 0014 D3F8F00D 		ldr	r0, [r3, #3568]
 2740              	.LVL185:
 2741              		.loc 1 806 3 is_stmt 0 discriminator 1 view .LVU851
 2742 0018 10F00100 		ands	r0, r0, #1
 2743 001c 01D0     		beq	.L206
 2744              		.loc 1 806 3 is_stmt 1 discriminator 3 view .LVU852
 2745              		.syntax unified
 2746              	@ 806 "lib/tinyusb/src/portable/synopsys/dwc2/dcd_dwc2.c" 1
 2747 001e 00BE     		BKPT #0
 2748              	
 2749              	@ 0 "" 2
 2750              		.thumb
 2751              		.syntax unified
 2752              	.LBE403:
 2753 0020 0020     		movs	r0, #0
 2754              	.L206:
 807:lib/tinyusb/src/portable/synopsys/dwc2/dcd_dwc2.c **** 
 808:lib/tinyusb/src/portable/synopsys/dwc2/dcd_dwc2.c ****   uint8_t const epnum = tu_edpt_number(ep_addr);
 809:lib/tinyusb/src/portable/synopsys/dwc2/dcd_dwc2.c ****   uint8_t const dir = tu_edpt_dir(ep_addr);
 810:lib/tinyusb/src/portable/synopsys/dwc2/dcd_dwc2.c **** 
 811:lib/tinyusb/src/portable/synopsys/dwc2/dcd_dwc2.c ****   xfer_ctl_t* xfer = XFER_CTL_BASE(epnum, dir);
 812:lib/tinyusb/src/portable/synopsys/dwc2/dcd_dwc2.c ****   xfer->buffer = NULL;
 813:lib/tinyusb/src/portable/synopsys/dwc2/dcd_dwc2.c ****   xfer->ff = ff;
 814:lib/tinyusb/src/portable/synopsys/dwc2/dcd_dwc2.c ****   xfer->total_len = total_bytes;
 815:lib/tinyusb/src/portable/synopsys/dwc2/dcd_dwc2.c **** 
 816:lib/tinyusb/src/portable/synopsys/dwc2/dcd_dwc2.c ****   uint16_t num_packets = (total_bytes / xfer->max_size);
 817:lib/tinyusb/src/portable/synopsys/dwc2/dcd_dwc2.c ****   uint16_t const short_packet_size = total_bytes % xfer->max_size;
 818:lib/tinyusb/src/portable/synopsys/dwc2/dcd_dwc2.c **** 
 819:lib/tinyusb/src/portable/synopsys/dwc2/dcd_dwc2.c ****   // Zero-size packet is special case.
 820:lib/tinyusb/src/portable/synopsys/dwc2/dcd_dwc2.c ****   if (short_packet_size > 0 || (total_bytes == 0)) num_packets++;
 821:lib/tinyusb/src/portable/synopsys/dwc2/dcd_dwc2.c **** 
 822:lib/tinyusb/src/portable/synopsys/dwc2/dcd_dwc2.c ****   // Schedule packets to be sent within interrupt
 823:lib/tinyusb/src/portable/synopsys/dwc2/dcd_dwc2.c ****   edpt_schedule_packets(rhport, epnum, dir, num_packets, total_bytes);
 824:lib/tinyusb/src/portable/synopsys/dwc2/dcd_dwc2.c **** 
 825:lib/tinyusb/src/portable/synopsys/dwc2/dcd_dwc2.c ****   return true;
 826:lib/tinyusb/src/portable/synopsys/dwc2/dcd_dwc2.c **** }
 2755              		.loc 1 826 1 is_stmt 0 view .LVU853
 2756 0022 03B0     		add	sp, sp, #12
 2757              		.cfi_remember_state
 2758              		.cfi_def_cfa_offset 20
 2759              		@ sp needed
 2760 0024 F0BD     		pop	{r4, r5, r6, r7, pc}
 2761              	.LVL186:
 2762              	.L205:
 2763              		.cfi_restore_state
 806:lib/tinyusb/src/portable/synopsys/dwc2/dcd_dwc2.c **** 
 2764              		.loc 1 806 3 is_stmt 1 view .LVU854
 808:lib/tinyusb/src/portable/synopsys/dwc2/dcd_dwc2.c ****   uint8_t const dir = tu_edpt_dir(ep_addr);
 2765              		.loc 1 808 3 view .LVU855
 2766              	.LBB404:
 2767              	.LBI404:
 492:lib/tinyusb/src/common/tusb_types.h ****   return (uint8_t)(addr & (~TUSB_DIR_IN_MASK));
ARM GAS  /tmp/claude-502/ccFotbfS.s 			page 137


 2768              		.loc 2 492 45 view .LVU856
 2769              	.LBB405:
 493:lib/tinyusb/src/common/tusb_types.h **** }
 2770              		.loc 2 493 3 view .LVU857
 493:lib/tinyusb/src/common/tusb_types.h **** }
 2771              		.loc 2 493 10 is_stmt 0 view .LVU858
 2772 0026 01F07F0C 		and	ip, r1, #127
 2773              	.LVL187:
 493:lib/tinyusb/src/common/tusb_types.h **** }
 2774              		.loc 2 493 10 view .LVU859
 2775              	.LBE405:
 2776              	.LBE404:
 809:lib/tinyusb/src/portable/synopsys/dwc2/dcd_dwc2.c **** 
 2777              		.loc 1 809 3 is_stmt 1 view .LVU860
 2778              	.LBB406:
 2779              	.LBI406:
 487:lib/tinyusb/src/common/tusb_types.h ****   return (addr & TUSB_DIR_IN_MASK) ? TUSB_DIR_IN : TUSB_DIR_OUT;
 2780              		.loc 2 487 48 view .LVU861
 2781              	.LBB407:
 488:lib/tinyusb/src/common/tusb_types.h **** }
 2782              		.loc 2 488 3 view .LVU862
 2783              	.LBE407:
 2784              	.LBE406:
 812:lib/tinyusb/src/portable/synopsys/dwc2/dcd_dwc2.c ****   xfer->ff = ff;
 2785              		.loc 1 812 16 is_stmt 0 view .LVU863
 2786 002a 124E     		ldr	r6, .L215
 2787 002c 1546     		mov	r5, r2
 2788              	.LBB409:
 2789              	.LBB408:
 488:lib/tinyusb/src/common/tusb_types.h **** }
 2790              		.loc 2 488 50 view .LVU864
 2791 002e CA09     		lsrs	r2, r1, #7
 2792              	.LVL188:
 488:lib/tinyusb/src/common/tusb_types.h **** }
 2793              		.loc 2 488 50 view .LVU865
 2794              	.LBE408:
 2795              	.LBE409:
 811:lib/tinyusb/src/portable/synopsys/dwc2/dcd_dwc2.c ****   xfer->buffer = NULL;
 2796              		.loc 1 811 3 is_stmt 1 view .LVU866
 812:lib/tinyusb/src/portable/synopsys/dwc2/dcd_dwc2.c ****   xfer->ff = ff;
 2797              		.loc 1 812 3 view .LVU867
 812:lib/tinyusb/src/portable/synopsys/dwc2/dcd_dwc2.c ****   xfer->ff = ff;
 2798              		.loc 1 812 16 is_stmt 0 view .LVU868
 2799 0030 4FEA4C03 		lsl	r3, ip, #1
 2800 0034 0027     		movs	r7, #0
 2801 0036 03EBD113 		add	r3, r3, r1, lsr #7
 2802 003a 06EB031E 		add	lr, r6, r3, lsl #4
 2803 003e 1901     		lsls	r1, r3, #4
 2804              	.LVL189:
 813:lib/tinyusb/src/portable/synopsys/dwc2/dcd_dwc2.c ****   xfer->total_len = total_bytes;
 2805              		.loc 1 813 12 view .LVU869
 2806 0040 CEF80450 		str	r5, [lr, #4]
 816:lib/tinyusb/src/portable/synopsys/dwc2/dcd_dwc2.c ****   uint16_t const short_packet_size = total_bytes % xfer->max_size;
 2807              		.loc 1 816 45 view .LVU870
 2808 0044 BEF80A50 		ldrh	r5, [lr, #10]
 2809              	.LVL190:
 812:lib/tinyusb/src/portable/synopsys/dwc2/dcd_dwc2.c ****   xfer->ff = ff;
ARM GAS  /tmp/claude-502/ccFotbfS.s 			page 138


 2810              		.loc 1 812 16 view .LVU871
 2811 0048 7750     		str	r7, [r6, r1]
 813:lib/tinyusb/src/portable/synopsys/dwc2/dcd_dwc2.c ****   xfer->total_len = total_bytes;
 2812              		.loc 1 813 3 is_stmt 1 view .LVU872
 814:lib/tinyusb/src/portable/synopsys/dwc2/dcd_dwc2.c **** 
 2813              		.loc 1 814 3 view .LVU873
 814:lib/tinyusb/src/portable/synopsys/dwc2/dcd_dwc2.c **** 
 2814              		.loc 1 814 19 is_stmt 0 view .LVU874
 2815 004a AEF80840 		strh	r4, [lr, #8]	@ movhi
 816:lib/tinyusb/src/portable/synopsys/dwc2/dcd_dwc2.c ****   uint16_t const short_packet_size = total_bytes % xfer->max_size;
 2816              		.loc 1 816 3 is_stmt 1 view .LVU875
 816:lib/tinyusb/src/portable/synopsys/dwc2/dcd_dwc2.c ****   uint16_t const short_packet_size = total_bytes % xfer->max_size;
 2817              		.loc 1 816 12 is_stmt 0 view .LVU876
 2818 004e B4FBF5F3 		udiv	r3, r4, r5
 817:lib/tinyusb/src/portable/synopsys/dwc2/dcd_dwc2.c **** 
 2819              		.loc 1 817 18 view .LVU877
 2820 0052 05FB1345 		mls	r5, r5, r3, r4
 816:lib/tinyusb/src/portable/synopsys/dwc2/dcd_dwc2.c ****   uint16_t const short_packet_size = total_bytes % xfer->max_size;
 2821              		.loc 1 816 12 view .LVU878
 2822 0056 9BB2     		uxth	r3, r3
 2823              	.LVL191:
 817:lib/tinyusb/src/portable/synopsys/dwc2/dcd_dwc2.c **** 
 2824              		.loc 1 817 3 is_stmt 1 view .LVU879
 820:lib/tinyusb/src/portable/synopsys/dwc2/dcd_dwc2.c **** 
 2825              		.loc 1 820 3 view .LVU880
 820:lib/tinyusb/src/portable/synopsys/dwc2/dcd_dwc2.c **** 
 2826              		.loc 1 820 25 is_stmt 0 view .LVU881
 2827 0058 ADB2     		uxth	r5, r5
 820:lib/tinyusb/src/portable/synopsys/dwc2/dcd_dwc2.c **** 
 2828              		.loc 1 820 6 view .LVU882
 2829 005a 3DB9     		cbnz	r5, .L210
 820:lib/tinyusb/src/portable/synopsys/dwc2/dcd_dwc2.c **** 
 2830              		.loc 1 820 6 view .LVU883
 2831 005c 34B1     		cbz	r4, .L210
 2832              	.L207:
 823:lib/tinyusb/src/portable/synopsys/dwc2/dcd_dwc2.c **** 
 2833              		.loc 1 823 3 is_stmt 1 view .LVU884
 2834 005e 6146     		mov	r1, ip
 2835 0060 0094     		str	r4, [sp]
 2836 0062 FFF7FEFF 		bl	edpt_schedule_packets
 2837              	.LVL192:
 825:lib/tinyusb/src/portable/synopsys/dwc2/dcd_dwc2.c **** }
 2838              		.loc 1 825 3 view .LVU885
 825:lib/tinyusb/src/portable/synopsys/dwc2/dcd_dwc2.c **** }
 2839              		.loc 1 825 10 is_stmt 0 view .LVU886
 2840 0066 0120     		movs	r0, #1
 2841              		.loc 1 826 1 view .LVU887
 2842 0068 03B0     		add	sp, sp, #12
 2843              		.cfi_remember_state
 2844              		.cfi_def_cfa_offset 20
 2845              		@ sp needed
 2846 006a F0BD     		pop	{r4, r5, r6, r7, pc}
 2847              	.LVL193:
 2848              	.L210:
 2849              		.cfi_restore_state
 820:lib/tinyusb/src/portable/synopsys/dwc2/dcd_dwc2.c **** 
 2850              		.loc 1 820 52 is_stmt 1 discriminator 1 view .LVU888
ARM GAS  /tmp/claude-502/ccFotbfS.s 			page 139


 820:lib/tinyusb/src/portable/synopsys/dwc2/dcd_dwc2.c **** 
 2851              		.loc 1 820 63 is_stmt 0 discriminator 1 view .LVU889
 2852 006c 0133     		adds	r3, r3, #1
 2853              	.LVL194:
 820:lib/tinyusb/src/portable/synopsys/dwc2/dcd_dwc2.c **** 
 2854              		.loc 1 820 63 discriminator 1 view .LVU890
 2855 006e 9BB2     		uxth	r3, r3
 2856              	.LVL195:
 820:lib/tinyusb/src/portable/synopsys/dwc2/dcd_dwc2.c **** 
 2857              		.loc 1 820 63 discriminator 1 view .LVU891
 2858 0070 F5E7     		b	.L207
 2859              	.L216:
 2860 0072 00BF     		.align	2
 2861              	.L215:
 2862 0074 00000000 		.word	.LANCHOR2
 2863              		.cfi_endproc
 2864              	.LFE416:
 2866              		.section	.text.dcd_edpt_close,"ax",%progbits
 2867              		.align	1
 2868              		.p2align 2,,3
 2869              		.global	dcd_edpt_close
 2870              		.syntax unified
 2871              		.thumb
 2872              		.thumb_func
 2874              	dcd_edpt_close:
 2875              	.LVL196:
 2876              	.LFB417:
 827:lib/tinyusb/src/portable/synopsys/dwc2/dcd_dwc2.c **** 
 828:lib/tinyusb/src/portable/synopsys/dwc2/dcd_dwc2.c **** void dcd_edpt_close(uint8_t rhport, uint8_t ep_addr) {
 2877              		.loc 1 828 54 is_stmt 1 view -0
 2878              		.cfi_startproc
 2879              		@ args = 0, pretend = 0, frame = 0
 2880              		@ frame_needed = 0, uses_anonymous_args = 0
 2881              		@ link register save eliminated.
 829:lib/tinyusb/src/portable/synopsys/dwc2/dcd_dwc2.c ****   edpt_disable(rhport, ep_addr, false);
 2882              		.loc 1 829 3 view .LVU893
 2883 0000 0022     		movs	r2, #0
 2884 0002 FFF7FEBF 		b	edpt_disable
 2885              	.LVL197:
 2886              		.loc 1 829 3 is_stmt 0 view .LVU894
 2887              		.cfi_endproc
 2888              	.LFE417:
 2890 0006 00BF     		.section	.text.dcd_edpt_stall,"ax",%progbits
 2891              		.align	1
 2892              		.p2align 2,,3
 2893              		.global	dcd_edpt_stall
 2894              		.syntax unified
 2895              		.thumb
 2896              		.thumb_func
 2898              	dcd_edpt_stall:
 2899              	.LVL198:
 2900              	.LFB418:
 830:lib/tinyusb/src/portable/synopsys/dwc2/dcd_dwc2.c **** }
 831:lib/tinyusb/src/portable/synopsys/dwc2/dcd_dwc2.c **** 
 832:lib/tinyusb/src/portable/synopsys/dwc2/dcd_dwc2.c **** void dcd_edpt_stall(uint8_t rhport, uint8_t ep_addr) {
 2901              		.loc 1 832 54 is_stmt 1 view -0
 2902              		.cfi_startproc
ARM GAS  /tmp/claude-502/ccFotbfS.s 			page 140


 2903              		@ args = 0, pretend = 0, frame = 0
 2904              		@ frame_needed = 0, uses_anonymous_args = 0
 2905              		@ link register save eliminated.
 833:lib/tinyusb/src/portable/synopsys/dwc2/dcd_dwc2.c ****   edpt_disable(rhport, ep_addr, true);
 2906              		.loc 1 833 3 view .LVU896
 2907 0000 0122     		movs	r2, #1
 2908 0002 FFF7FEBF 		b	edpt_disable
 2909              	.LVL199:
 2910              		.loc 1 833 3 is_stmt 0 view .LVU897
 2911              		.cfi_endproc
 2912              	.LFE418:
 2914 0006 00BF     		.section	.text.dcd_edpt_clear_stall,"ax",%progbits
 2915              		.align	1
 2916              		.p2align 2,,3
 2917              		.global	dcd_edpt_clear_stall
 2918              		.syntax unified
 2919              		.thumb
 2920              		.thumb_func
 2922              	dcd_edpt_clear_stall:
 2923              	.LVL200:
 2924              	.LFB419:
 834:lib/tinyusb/src/portable/synopsys/dwc2/dcd_dwc2.c **** }
 835:lib/tinyusb/src/portable/synopsys/dwc2/dcd_dwc2.c **** 
 836:lib/tinyusb/src/portable/synopsys/dwc2/dcd_dwc2.c **** void dcd_edpt_clear_stall(uint8_t rhport, uint8_t ep_addr) {
 2925              		.loc 1 836 60 is_stmt 1 view -0
 2926              		.cfi_startproc
 2927              		@ args = 0, pretend = 0, frame = 0
 2928              		@ frame_needed = 0, uses_anonymous_args = 0
 2929              		@ link register save eliminated.
 837:lib/tinyusb/src/portable/synopsys/dwc2/dcd_dwc2.c ****   (void) rhport;
 2930              		.loc 1 837 3 view .LVU899
 838:lib/tinyusb/src/portable/synopsys/dwc2/dcd_dwc2.c **** 
 839:lib/tinyusb/src/portable/synopsys/dwc2/dcd_dwc2.c ****   dwc2_regs_t* dwc2 = DWC2_REG(rhport);
 2931              		.loc 1 839 3 view .LVU900
 2932              		.loc 1 839 23 is_stmt 0 view .LVU901
 2933 0000 114B     		ldr	r3, .L223
 2934 0002 0001     		lsls	r0, r0, #4
 2935              	.LVL201:
 2936              	.LBB410:
 2937              	.LBB411:
 493:lib/tinyusb/src/common/tusb_types.h **** }
 2938              		.loc 2 493 10 view .LVU902
 2939 0004 01F07F02 		and	r2, r1, #127
 2940              	.LBE411:
 2941              	.LBE410:
 840:lib/tinyusb/src/portable/synopsys/dwc2/dcd_dwc2.c **** 
 841:lib/tinyusb/src/portable/synopsys/dwc2/dcd_dwc2.c ****   uint8_t const epnum = tu_edpt_number(ep_addr);
 842:lib/tinyusb/src/portable/synopsys/dwc2/dcd_dwc2.c ****   uint8_t const dir = tu_edpt_dir(ep_addr);
 843:lib/tinyusb/src/portable/synopsys/dwc2/dcd_dwc2.c **** 
 844:lib/tinyusb/src/portable/synopsys/dwc2/dcd_dwc2.c ****   // Clear stall and reset data toggle
 845:lib/tinyusb/src/portable/synopsys/dwc2/dcd_dwc2.c ****   if (dir == TUSB_DIR_IN) {
 2942              		.loc 1 845 6 view .LVU903
 2943 0008 C909     		lsrs	r1, r1, #7
 2944              	.LVL202:
 839:lib/tinyusb/src/portable/synopsys/dwc2/dcd_dwc2.c **** 
 2945              		.loc 1 839 16 view .LVU904
 2946 000a 1B58     		ldr	r3, [r3, r0]
ARM GAS  /tmp/claude-502/ccFotbfS.s 			page 141


 2947              	.LVL203:
 841:lib/tinyusb/src/portable/synopsys/dwc2/dcd_dwc2.c ****   uint8_t const dir = tu_edpt_dir(ep_addr);
 2948              		.loc 1 841 3 is_stmt 1 view .LVU905
 2949              	.LBB413:
 2950              	.LBI410:
 492:lib/tinyusb/src/common/tusb_types.h ****   return (uint8_t)(addr & (~TUSB_DIR_IN_MASK));
 2951              		.loc 2 492 45 view .LVU906
 2952              	.LBB412:
 493:lib/tinyusb/src/common/tusb_types.h **** }
 2953              		.loc 2 493 3 view .LVU907
 493:lib/tinyusb/src/common/tusb_types.h **** }
 2954              		.loc 2 493 3 is_stmt 0 view .LVU908
 2955              	.LBE412:
 2956              	.LBE413:
 842:lib/tinyusb/src/portable/synopsys/dwc2/dcd_dwc2.c **** 
 2957              		.loc 1 842 3 is_stmt 1 view .LVU909
 2958              	.LBB414:
 2959              	.LBI414:
 487:lib/tinyusb/src/common/tusb_types.h ****   return (addr & TUSB_DIR_IN_MASK) ? TUSB_DIR_IN : TUSB_DIR_OUT;
 2960              		.loc 2 487 48 view .LVU910
 2961              	.LBB415:
 488:lib/tinyusb/src/common/tusb_types.h **** }
 2962              		.loc 2 488 3 view .LVU911
 2963              	.LBE415:
 2964              	.LBE414:
 2965              		.loc 1 845 3 view .LVU912
 2966 000c 03EB4213 		add	r3, r3, r2, lsl #5
 2967              	.LVL204:
 2968              		.loc 1 845 6 is_stmt 0 view .LVU913
 2969 0010 0CD1     		bne	.L222
 846:lib/tinyusb/src/portable/synopsys/dwc2/dcd_dwc2.c ****     dwc2->epin[epnum].diepctl &= ~DIEPCTL_STALL;
 847:lib/tinyusb/src/portable/synopsys/dwc2/dcd_dwc2.c ****     dwc2->epin[epnum].diepctl |= DIEPCTL_SD0PID_SEVNFRM;
 848:lib/tinyusb/src/portable/synopsys/dwc2/dcd_dwc2.c ****   } else {
 849:lib/tinyusb/src/portable/synopsys/dwc2/dcd_dwc2.c ****     dwc2->epout[epnum].doepctl &= ~DOEPCTL_STALL;
 2970              		.loc 1 849 5 is_stmt 1 view .LVU914
 2971              		.loc 1 849 32 is_stmt 0 view .LVU915
 2972 0012 D3F8002B 		ldr	r2, [r3, #2816]
 2973              	.LVL205:
 2974              		.loc 1 849 32 view .LVU916
 2975 0016 22F40012 		bic	r2, r2, #2097152
 2976 001a C3F8002B 		str	r2, [r3, #2816]
 850:lib/tinyusb/src/portable/synopsys/dwc2/dcd_dwc2.c ****     dwc2->epout[epnum].doepctl |= DOEPCTL_SD0PID_SEVNFRM;
 2977              		.loc 1 850 5 is_stmt 1 view .LVU917
 2978              		.loc 1 850 32 is_stmt 0 view .LVU918
 2979 001e D3F8002B 		ldr	r2, [r3, #2816]
 2980 0022 42F08052 		orr	r2, r2, #268435456
 2981 0026 C3F8002B 		str	r2, [r3, #2816]
 851:lib/tinyusb/src/portable/synopsys/dwc2/dcd_dwc2.c ****   }
 852:lib/tinyusb/src/portable/synopsys/dwc2/dcd_dwc2.c **** }
 2982              		.loc 1 852 1 view .LVU919
 2983 002a 7047     		bx	lr
 2984              	.LVL206:
 2985              	.L222:
 846:lib/tinyusb/src/portable/synopsys/dwc2/dcd_dwc2.c ****     dwc2->epin[epnum].diepctl |= DIEPCTL_SD0PID_SEVNFRM;
 2986              		.loc 1 846 5 is_stmt 1 view .LVU920
 846:lib/tinyusb/src/portable/synopsys/dwc2/dcd_dwc2.c ****     dwc2->epin[epnum].diepctl |= DIEPCTL_SD0PID_SEVNFRM;
 2987              		.loc 1 846 31 is_stmt 0 view .LVU921
ARM GAS  /tmp/claude-502/ccFotbfS.s 			page 142


 2988 002c D3F80029 		ldr	r2, [r3, #2304]
 2989              	.LVL207:
 846:lib/tinyusb/src/portable/synopsys/dwc2/dcd_dwc2.c ****     dwc2->epin[epnum].diepctl |= DIEPCTL_SD0PID_SEVNFRM;
 2990              		.loc 1 846 31 view .LVU922
 2991 0030 22F40012 		bic	r2, r2, #2097152
 2992 0034 C3F80029 		str	r2, [r3, #2304]
 847:lib/tinyusb/src/portable/synopsys/dwc2/dcd_dwc2.c ****   } else {
 2993              		.loc 1 847 5 is_stmt 1 view .LVU923
 847:lib/tinyusb/src/portable/synopsys/dwc2/dcd_dwc2.c ****   } else {
 2994              		.loc 1 847 31 is_stmt 0 view .LVU924
 2995 0038 D3F80029 		ldr	r2, [r3, #2304]
 2996 003c 42F08052 		orr	r2, r2, #268435456
 2997 0040 C3F80029 		str	r2, [r3, #2304]
 2998 0044 7047     		bx	lr
 2999              	.L224:
 3000 0046 00BF     		.align	2
 3001              	.L223:
 3002 0048 00000000 		.word	.LANCHOR0
 3003              		.cfi_endproc
 3004              	.LFE419:
 3006              		.section	.text.dcd_int_handler,"ax",%progbits
 3007              		.align	1
 3008              		.p2align 2,,3
 3009              		.global	dcd_int_handler
 3010              		.syntax unified
 3011              		.thumb
 3012              		.thumb_func
 3014              	dcd_int_handler:
 3015              	.LVL208:
 3016              	.LFB425:
 853:lib/tinyusb/src/portable/synopsys/dwc2/dcd_dwc2.c **** 
 854:lib/tinyusb/src/portable/synopsys/dwc2/dcd_dwc2.c **** /*------------------------------------------------------------------*/
 855:lib/tinyusb/src/portable/synopsys/dwc2/dcd_dwc2.c **** 
 856:lib/tinyusb/src/portable/synopsys/dwc2/dcd_dwc2.c **** // Read a single data packet from receive FIFO
 857:lib/tinyusb/src/portable/synopsys/dwc2/dcd_dwc2.c **** static void read_fifo_packet(uint8_t rhport, uint8_t* dst, uint16_t len) {
 858:lib/tinyusb/src/portable/synopsys/dwc2/dcd_dwc2.c ****   (void) rhport;
 859:lib/tinyusb/src/portable/synopsys/dwc2/dcd_dwc2.c **** 
 860:lib/tinyusb/src/portable/synopsys/dwc2/dcd_dwc2.c ****   dwc2_regs_t* dwc2 = DWC2_REG(rhport);
 861:lib/tinyusb/src/portable/synopsys/dwc2/dcd_dwc2.c ****   volatile const uint32_t* rx_fifo = dwc2->fifo[0];
 862:lib/tinyusb/src/portable/synopsys/dwc2/dcd_dwc2.c **** 
 863:lib/tinyusb/src/portable/synopsys/dwc2/dcd_dwc2.c ****   // Reading full available 32 bit words from fifo
 864:lib/tinyusb/src/portable/synopsys/dwc2/dcd_dwc2.c ****   uint16_t full_words = len >> 2;
 865:lib/tinyusb/src/portable/synopsys/dwc2/dcd_dwc2.c ****   while (full_words--) {
 866:lib/tinyusb/src/portable/synopsys/dwc2/dcd_dwc2.c ****     tu_unaligned_write32(dst, *rx_fifo);
 867:lib/tinyusb/src/portable/synopsys/dwc2/dcd_dwc2.c ****     dst += 4;
 868:lib/tinyusb/src/portable/synopsys/dwc2/dcd_dwc2.c ****   }
 869:lib/tinyusb/src/portable/synopsys/dwc2/dcd_dwc2.c **** 
 870:lib/tinyusb/src/portable/synopsys/dwc2/dcd_dwc2.c ****   // Read the remaining 1-3 bytes from fifo
 871:lib/tinyusb/src/portable/synopsys/dwc2/dcd_dwc2.c ****   uint8_t const bytes_rem = len & 0x03;
 872:lib/tinyusb/src/portable/synopsys/dwc2/dcd_dwc2.c ****   if (bytes_rem != 0) {
 873:lib/tinyusb/src/portable/synopsys/dwc2/dcd_dwc2.c ****     uint32_t const tmp = *rx_fifo;
 874:lib/tinyusb/src/portable/synopsys/dwc2/dcd_dwc2.c ****     dst[0] = tu_u32_byte0(tmp);
 875:lib/tinyusb/src/portable/synopsys/dwc2/dcd_dwc2.c ****     if (bytes_rem > 1) dst[1] = tu_u32_byte1(tmp);
 876:lib/tinyusb/src/portable/synopsys/dwc2/dcd_dwc2.c ****     if (bytes_rem > 2) dst[2] = tu_u32_byte2(tmp);
 877:lib/tinyusb/src/portable/synopsys/dwc2/dcd_dwc2.c ****   }
 878:lib/tinyusb/src/portable/synopsys/dwc2/dcd_dwc2.c **** }
 879:lib/tinyusb/src/portable/synopsys/dwc2/dcd_dwc2.c **** 
ARM GAS  /tmp/claude-502/ccFotbfS.s 			page 143


 880:lib/tinyusb/src/portable/synopsys/dwc2/dcd_dwc2.c **** // Write a single data packet to EPIN FIFO
 881:lib/tinyusb/src/portable/synopsys/dwc2/dcd_dwc2.c **** static void write_fifo_packet(uint8_t rhport, uint8_t fifo_num, uint8_t const* src, uint16_t len) {
 882:lib/tinyusb/src/portable/synopsys/dwc2/dcd_dwc2.c ****   (void) rhport;
 883:lib/tinyusb/src/portable/synopsys/dwc2/dcd_dwc2.c **** 
 884:lib/tinyusb/src/portable/synopsys/dwc2/dcd_dwc2.c ****   dwc2_regs_t* dwc2 = DWC2_REG(rhport);
 885:lib/tinyusb/src/portable/synopsys/dwc2/dcd_dwc2.c ****   volatile uint32_t* tx_fifo = dwc2->fifo[fifo_num];
 886:lib/tinyusb/src/portable/synopsys/dwc2/dcd_dwc2.c **** 
 887:lib/tinyusb/src/portable/synopsys/dwc2/dcd_dwc2.c ****   // Pushing full available 32 bit words to fifo
 888:lib/tinyusb/src/portable/synopsys/dwc2/dcd_dwc2.c ****   uint16_t full_words = len >> 2;
 889:lib/tinyusb/src/portable/synopsys/dwc2/dcd_dwc2.c ****   while (full_words--) {
 890:lib/tinyusb/src/portable/synopsys/dwc2/dcd_dwc2.c ****     *tx_fifo = tu_unaligned_read32(src);
 891:lib/tinyusb/src/portable/synopsys/dwc2/dcd_dwc2.c ****     src += 4;
 892:lib/tinyusb/src/portable/synopsys/dwc2/dcd_dwc2.c ****   }
 893:lib/tinyusb/src/portable/synopsys/dwc2/dcd_dwc2.c **** 
 894:lib/tinyusb/src/portable/synopsys/dwc2/dcd_dwc2.c ****   // Write the remaining 1-3 bytes into fifo
 895:lib/tinyusb/src/portable/synopsys/dwc2/dcd_dwc2.c ****   uint8_t const bytes_rem = len & 0x03;
 896:lib/tinyusb/src/portable/synopsys/dwc2/dcd_dwc2.c ****   if (bytes_rem) {
 897:lib/tinyusb/src/portable/synopsys/dwc2/dcd_dwc2.c ****     uint32_t tmp_word = src[0];
 898:lib/tinyusb/src/portable/synopsys/dwc2/dcd_dwc2.c ****     if (bytes_rem > 1) tmp_word |= (src[1] << 8);
 899:lib/tinyusb/src/portable/synopsys/dwc2/dcd_dwc2.c ****     if (bytes_rem > 2) tmp_word |= (src[2] << 16);
 900:lib/tinyusb/src/portable/synopsys/dwc2/dcd_dwc2.c **** 
 901:lib/tinyusb/src/portable/synopsys/dwc2/dcd_dwc2.c ****     *tx_fifo = tmp_word;
 902:lib/tinyusb/src/portable/synopsys/dwc2/dcd_dwc2.c ****   }
 903:lib/tinyusb/src/portable/synopsys/dwc2/dcd_dwc2.c **** }
 904:lib/tinyusb/src/portable/synopsys/dwc2/dcd_dwc2.c **** 
 905:lib/tinyusb/src/portable/synopsys/dwc2/dcd_dwc2.c **** static void handle_rxflvl_irq(uint8_t rhport) {
 906:lib/tinyusb/src/portable/synopsys/dwc2/dcd_dwc2.c ****   dwc2_regs_t* dwc2 = DWC2_REG(rhport);
 907:lib/tinyusb/src/portable/synopsys/dwc2/dcd_dwc2.c ****   volatile uint32_t const* rx_fifo = dwc2->fifo[0];
 908:lib/tinyusb/src/portable/synopsys/dwc2/dcd_dwc2.c **** 
 909:lib/tinyusb/src/portable/synopsys/dwc2/dcd_dwc2.c ****   // Pop control word off FIFO
 910:lib/tinyusb/src/portable/synopsys/dwc2/dcd_dwc2.c ****   uint32_t const ctl_word = dwc2->grxstsp;
 911:lib/tinyusb/src/portable/synopsys/dwc2/dcd_dwc2.c ****   uint8_t const pktsts = (ctl_word & GRXSTSP_PKTSTS_Msk) >> GRXSTSP_PKTSTS_Pos;
 912:lib/tinyusb/src/portable/synopsys/dwc2/dcd_dwc2.c ****   uint8_t const epnum = (ctl_word & GRXSTSP_EPNUM_Msk) >> GRXSTSP_EPNUM_Pos;
 913:lib/tinyusb/src/portable/synopsys/dwc2/dcd_dwc2.c ****   uint16_t const bcnt = (ctl_word & GRXSTSP_BCNT_Msk) >> GRXSTSP_BCNT_Pos;
 914:lib/tinyusb/src/portable/synopsys/dwc2/dcd_dwc2.c **** 
 915:lib/tinyusb/src/portable/synopsys/dwc2/dcd_dwc2.c ****   dwc2_epout_t* epout = &dwc2->epout[epnum];
 916:lib/tinyusb/src/portable/synopsys/dwc2/dcd_dwc2.c **** 
 917:lib/tinyusb/src/portable/synopsys/dwc2/dcd_dwc2.c **** //#if CFG_TUSB_DEBUG >= DWC2_DEBUG
 918:lib/tinyusb/src/portable/synopsys/dwc2/dcd_dwc2.c **** //  const char * pktsts_str[] =
 919:lib/tinyusb/src/portable/synopsys/dwc2/dcd_dwc2.c **** //  {
 920:lib/tinyusb/src/portable/synopsys/dwc2/dcd_dwc2.c **** //    "ASSERT", "Global NAK (ISR)", "Out Data Received", "Out Transfer Complete (ISR)",
 921:lib/tinyusb/src/portable/synopsys/dwc2/dcd_dwc2.c **** //    "Setup Complete (ISR)", "ASSERT", "Setup Data Received"
 922:lib/tinyusb/src/portable/synopsys/dwc2/dcd_dwc2.c **** //  };
 923:lib/tinyusb/src/portable/synopsys/dwc2/dcd_dwc2.c **** //  TU_LOG_LOCATION();
 924:lib/tinyusb/src/portable/synopsys/dwc2/dcd_dwc2.c **** //  TU_LOG(DWC2_DEBUG, "  EP %02X, Byte Count %u, %s\r\n", epnum, bcnt, pktsts_str[pktsts]);
 925:lib/tinyusb/src/portable/synopsys/dwc2/dcd_dwc2.c **** //  TU_LOG(DWC2_DEBUG, "  daint = %08lX, doepint = %04X\r\n", (unsigned long) dwc2->daint, (unsigne
 926:lib/tinyusb/src/portable/synopsys/dwc2/dcd_dwc2.c **** //#endif
 927:lib/tinyusb/src/portable/synopsys/dwc2/dcd_dwc2.c **** 
 928:lib/tinyusb/src/portable/synopsys/dwc2/dcd_dwc2.c ****   switch (pktsts) {
 929:lib/tinyusb/src/portable/synopsys/dwc2/dcd_dwc2.c ****     // Global OUT NAK: do nothing
 930:lib/tinyusb/src/portable/synopsys/dwc2/dcd_dwc2.c ****     case GRXSTS_PKTSTS_GLOBALOUTNAK:
 931:lib/tinyusb/src/portable/synopsys/dwc2/dcd_dwc2.c ****       break;
 932:lib/tinyusb/src/portable/synopsys/dwc2/dcd_dwc2.c **** 
 933:lib/tinyusb/src/portable/synopsys/dwc2/dcd_dwc2.c ****     case GRXSTS_PKTSTS_SETUPRX:
 934:lib/tinyusb/src/portable/synopsys/dwc2/dcd_dwc2.c ****       // Setup packet received
 935:lib/tinyusb/src/portable/synopsys/dwc2/dcd_dwc2.c **** 
 936:lib/tinyusb/src/portable/synopsys/dwc2/dcd_dwc2.c ****       // We can receive up to three setup packets in succession, but
ARM GAS  /tmp/claude-502/ccFotbfS.s 			page 144


 937:lib/tinyusb/src/portable/synopsys/dwc2/dcd_dwc2.c ****       // only the last one is valid.
 938:lib/tinyusb/src/portable/synopsys/dwc2/dcd_dwc2.c ****       _setup_packet[0] = (*rx_fifo);
 939:lib/tinyusb/src/portable/synopsys/dwc2/dcd_dwc2.c ****       _setup_packet[1] = (*rx_fifo);
 940:lib/tinyusb/src/portable/synopsys/dwc2/dcd_dwc2.c ****       break;
 941:lib/tinyusb/src/portable/synopsys/dwc2/dcd_dwc2.c **** 
 942:lib/tinyusb/src/portable/synopsys/dwc2/dcd_dwc2.c ****     case GRXSTS_PKTSTS_SETUPDONE:
 943:lib/tinyusb/src/portable/synopsys/dwc2/dcd_dwc2.c ****       // Setup packet done (Interrupt)
 944:lib/tinyusb/src/portable/synopsys/dwc2/dcd_dwc2.c ****       epout->doeptsiz |= (3 << DOEPTSIZ_STUPCNT_Pos);
 945:lib/tinyusb/src/portable/synopsys/dwc2/dcd_dwc2.c ****       break;
 946:lib/tinyusb/src/portable/synopsys/dwc2/dcd_dwc2.c **** 
 947:lib/tinyusb/src/portable/synopsys/dwc2/dcd_dwc2.c ****     case GRXSTS_PKTSTS_OUTRX: {
 948:lib/tinyusb/src/portable/synopsys/dwc2/dcd_dwc2.c ****       // Out packet received
 949:lib/tinyusb/src/portable/synopsys/dwc2/dcd_dwc2.c ****       xfer_ctl_t* xfer = XFER_CTL_BASE(epnum, TUSB_DIR_OUT);
 950:lib/tinyusb/src/portable/synopsys/dwc2/dcd_dwc2.c **** 
 951:lib/tinyusb/src/portable/synopsys/dwc2/dcd_dwc2.c ****       // Read packet off RxFIFO
 952:lib/tinyusb/src/portable/synopsys/dwc2/dcd_dwc2.c ****       if (xfer->ff) {
 953:lib/tinyusb/src/portable/synopsys/dwc2/dcd_dwc2.c ****         // Ring buffer
 954:lib/tinyusb/src/portable/synopsys/dwc2/dcd_dwc2.c ****         tu_fifo_write_n_const_addr_full_words(xfer->ff, (const void*) (uintptr_t) rx_fifo, bcnt);
 955:lib/tinyusb/src/portable/synopsys/dwc2/dcd_dwc2.c ****       } else {
 956:lib/tinyusb/src/portable/synopsys/dwc2/dcd_dwc2.c ****         // Linear buffer
 957:lib/tinyusb/src/portable/synopsys/dwc2/dcd_dwc2.c ****         read_fifo_packet(rhport, xfer->buffer, bcnt);
 958:lib/tinyusb/src/portable/synopsys/dwc2/dcd_dwc2.c **** 
 959:lib/tinyusb/src/portable/synopsys/dwc2/dcd_dwc2.c ****         // Increment pointer to xfer data
 960:lib/tinyusb/src/portable/synopsys/dwc2/dcd_dwc2.c ****         xfer->buffer += bcnt;
 961:lib/tinyusb/src/portable/synopsys/dwc2/dcd_dwc2.c ****       }
 962:lib/tinyusb/src/portable/synopsys/dwc2/dcd_dwc2.c **** 
 963:lib/tinyusb/src/portable/synopsys/dwc2/dcd_dwc2.c ****       // Truncate transfer length in case of short packet
 964:lib/tinyusb/src/portable/synopsys/dwc2/dcd_dwc2.c ****       if (bcnt < xfer->max_size) {
 965:lib/tinyusb/src/portable/synopsys/dwc2/dcd_dwc2.c ****         xfer->total_len -= (epout->doeptsiz & DOEPTSIZ_XFRSIZ_Msk) >> DOEPTSIZ_XFRSIZ_Pos;
 966:lib/tinyusb/src/portable/synopsys/dwc2/dcd_dwc2.c ****         if (epnum == 0) {
 967:lib/tinyusb/src/portable/synopsys/dwc2/dcd_dwc2.c ****           xfer->total_len -= ep0_pending[TUSB_DIR_OUT];
 968:lib/tinyusb/src/portable/synopsys/dwc2/dcd_dwc2.c ****           ep0_pending[TUSB_DIR_OUT] = 0;
 969:lib/tinyusb/src/portable/synopsys/dwc2/dcd_dwc2.c ****         }
 970:lib/tinyusb/src/portable/synopsys/dwc2/dcd_dwc2.c ****       }
 971:lib/tinyusb/src/portable/synopsys/dwc2/dcd_dwc2.c ****     }
 972:lib/tinyusb/src/portable/synopsys/dwc2/dcd_dwc2.c ****       break;
 973:lib/tinyusb/src/portable/synopsys/dwc2/dcd_dwc2.c **** 
 974:lib/tinyusb/src/portable/synopsys/dwc2/dcd_dwc2.c ****       // Out packet done (Interrupt)
 975:lib/tinyusb/src/portable/synopsys/dwc2/dcd_dwc2.c ****     case GRXSTS_PKTSTS_OUTDONE:
 976:lib/tinyusb/src/portable/synopsys/dwc2/dcd_dwc2.c ****       // Occurred on STM32L47 with dwc2 version 3.10a but not found on other version like 2.80a or 
 977:lib/tinyusb/src/portable/synopsys/dwc2/dcd_dwc2.c ****       // May (or not) be 3.10a specific feature/bug or depending on MCU configuration
 978:lib/tinyusb/src/portable/synopsys/dwc2/dcd_dwc2.c ****       // XFRC complete is additionally generated when
 979:lib/tinyusb/src/portable/synopsys/dwc2/dcd_dwc2.c ****       // - setup packet is received
 980:lib/tinyusb/src/portable/synopsys/dwc2/dcd_dwc2.c ****       // - complete the data stage of control write is complete
 981:lib/tinyusb/src/portable/synopsys/dwc2/dcd_dwc2.c ****       if ((epnum == 0) && (bcnt == 0) && (dwc2->gsnpsid >= DWC2_CORE_REV_3_00a)) {
 982:lib/tinyusb/src/portable/synopsys/dwc2/dcd_dwc2.c ****         uint32_t doepint = epout->doepint;
 983:lib/tinyusb/src/portable/synopsys/dwc2/dcd_dwc2.c **** 
 984:lib/tinyusb/src/portable/synopsys/dwc2/dcd_dwc2.c ****         if (doepint & (DOEPINT_STPKTRX | DOEPINT_OTEPSPR)) {
 985:lib/tinyusb/src/portable/synopsys/dwc2/dcd_dwc2.c ****           // skip this "no-data" transfer complete event
 986:lib/tinyusb/src/portable/synopsys/dwc2/dcd_dwc2.c ****           // Note: STPKTRX will be clear later by setup received handler
 987:lib/tinyusb/src/portable/synopsys/dwc2/dcd_dwc2.c ****           uint32_t clear_flags = DOEPINT_XFRC;
 988:lib/tinyusb/src/portable/synopsys/dwc2/dcd_dwc2.c **** 
 989:lib/tinyusb/src/portable/synopsys/dwc2/dcd_dwc2.c ****           if (doepint & DOEPINT_OTEPSPR) clear_flags |= DOEPINT_OTEPSPR;
 990:lib/tinyusb/src/portable/synopsys/dwc2/dcd_dwc2.c **** 
 991:lib/tinyusb/src/portable/synopsys/dwc2/dcd_dwc2.c ****           epout->doepint = clear_flags;
 992:lib/tinyusb/src/portable/synopsys/dwc2/dcd_dwc2.c **** 
 993:lib/tinyusb/src/portable/synopsys/dwc2/dcd_dwc2.c ****           // TU_LOG(DWC2_DEBUG, "  FIX extra transfer complete on setup/data compete\r\n");
ARM GAS  /tmp/claude-502/ccFotbfS.s 			page 145


 994:lib/tinyusb/src/portable/synopsys/dwc2/dcd_dwc2.c ****         }
 995:lib/tinyusb/src/portable/synopsys/dwc2/dcd_dwc2.c ****       }
 996:lib/tinyusb/src/portable/synopsys/dwc2/dcd_dwc2.c ****       break;
 997:lib/tinyusb/src/portable/synopsys/dwc2/dcd_dwc2.c **** 
 998:lib/tinyusb/src/portable/synopsys/dwc2/dcd_dwc2.c ****     default:    // Invalid
 999:lib/tinyusb/src/portable/synopsys/dwc2/dcd_dwc2.c ****       TU_BREAKPOINT();
1000:lib/tinyusb/src/portable/synopsys/dwc2/dcd_dwc2.c ****       break;
1001:lib/tinyusb/src/portable/synopsys/dwc2/dcd_dwc2.c ****   }
1002:lib/tinyusb/src/portable/synopsys/dwc2/dcd_dwc2.c **** }
1003:lib/tinyusb/src/portable/synopsys/dwc2/dcd_dwc2.c **** 
1004:lib/tinyusb/src/portable/synopsys/dwc2/dcd_dwc2.c **** static void handle_epout_irq(uint8_t rhport) {
1005:lib/tinyusb/src/portable/synopsys/dwc2/dcd_dwc2.c ****   dwc2_regs_t* dwc2 = DWC2_REG(rhport);
1006:lib/tinyusb/src/portable/synopsys/dwc2/dcd_dwc2.c ****   uint8_t const ep_count = _dwc2_controller[rhport].ep_count;
1007:lib/tinyusb/src/portable/synopsys/dwc2/dcd_dwc2.c **** 
1008:lib/tinyusb/src/portable/synopsys/dwc2/dcd_dwc2.c ****   // DAINT for a given EP clears when DOEPINTx is cleared.
1009:lib/tinyusb/src/portable/synopsys/dwc2/dcd_dwc2.c ****   // OEPINT will be cleared when DAINT's out bits are cleared.
1010:lib/tinyusb/src/portable/synopsys/dwc2/dcd_dwc2.c ****   for (uint8_t n = 0; n < ep_count; n++) {
1011:lib/tinyusb/src/portable/synopsys/dwc2/dcd_dwc2.c ****     if (dwc2->daint & TU_BIT(DAINT_OEPINT_Pos + n)) {
1012:lib/tinyusb/src/portable/synopsys/dwc2/dcd_dwc2.c ****       dwc2_epout_t* epout = &dwc2->epout[n];
1013:lib/tinyusb/src/portable/synopsys/dwc2/dcd_dwc2.c **** 
1014:lib/tinyusb/src/portable/synopsys/dwc2/dcd_dwc2.c ****       uint32_t const doepint = epout->doepint;
1015:lib/tinyusb/src/portable/synopsys/dwc2/dcd_dwc2.c **** 
1016:lib/tinyusb/src/portable/synopsys/dwc2/dcd_dwc2.c ****       // SETUP packet Setup Phase done.
1017:lib/tinyusb/src/portable/synopsys/dwc2/dcd_dwc2.c ****       if (doepint & DOEPINT_STUP) {
1018:lib/tinyusb/src/portable/synopsys/dwc2/dcd_dwc2.c ****         uint32_t clear_flag = DOEPINT_STUP;
1019:lib/tinyusb/src/portable/synopsys/dwc2/dcd_dwc2.c **** 
1020:lib/tinyusb/src/portable/synopsys/dwc2/dcd_dwc2.c ****         // STPKTRX is only available for version from 3_00a
1021:lib/tinyusb/src/portable/synopsys/dwc2/dcd_dwc2.c ****         if ((doepint & DOEPINT_STPKTRX) && (dwc2->gsnpsid >= DWC2_CORE_REV_3_00a)) {
1022:lib/tinyusb/src/portable/synopsys/dwc2/dcd_dwc2.c ****           clear_flag |= DOEPINT_STPKTRX;
1023:lib/tinyusb/src/portable/synopsys/dwc2/dcd_dwc2.c ****         }
1024:lib/tinyusb/src/portable/synopsys/dwc2/dcd_dwc2.c **** 
1025:lib/tinyusb/src/portable/synopsys/dwc2/dcd_dwc2.c ****         epout->doepint = clear_flag;
1026:lib/tinyusb/src/portable/synopsys/dwc2/dcd_dwc2.c ****         dcd_event_setup_received(rhport, (uint8_t*) _setup_packet, true);
1027:lib/tinyusb/src/portable/synopsys/dwc2/dcd_dwc2.c ****       }
1028:lib/tinyusb/src/portable/synopsys/dwc2/dcd_dwc2.c **** 
1029:lib/tinyusb/src/portable/synopsys/dwc2/dcd_dwc2.c ****       // OUT XFER complete
1030:lib/tinyusb/src/portable/synopsys/dwc2/dcd_dwc2.c ****       if (epout->doepint & DOEPINT_XFRC) {
1031:lib/tinyusb/src/portable/synopsys/dwc2/dcd_dwc2.c ****         epout->doepint = DOEPINT_XFRC;
1032:lib/tinyusb/src/portable/synopsys/dwc2/dcd_dwc2.c **** 
1033:lib/tinyusb/src/portable/synopsys/dwc2/dcd_dwc2.c ****         xfer_ctl_t* xfer = XFER_CTL_BASE(n, TUSB_DIR_OUT);
1034:lib/tinyusb/src/portable/synopsys/dwc2/dcd_dwc2.c **** 
1035:lib/tinyusb/src/portable/synopsys/dwc2/dcd_dwc2.c ****         // EP0 can only handle one packet
1036:lib/tinyusb/src/portable/synopsys/dwc2/dcd_dwc2.c ****         if ((n == 0) && ep0_pending[TUSB_DIR_OUT]) {
1037:lib/tinyusb/src/portable/synopsys/dwc2/dcd_dwc2.c ****           // Schedule another packet to be received.
1038:lib/tinyusb/src/portable/synopsys/dwc2/dcd_dwc2.c ****           edpt_schedule_packets(rhport, n, TUSB_DIR_OUT, 1, ep0_pending[TUSB_DIR_OUT]);
1039:lib/tinyusb/src/portable/synopsys/dwc2/dcd_dwc2.c ****         } else {
1040:lib/tinyusb/src/portable/synopsys/dwc2/dcd_dwc2.c ****           dcd_event_xfer_complete(rhport, n, xfer->total_len, XFER_RESULT_SUCCESS, true);
1041:lib/tinyusb/src/portable/synopsys/dwc2/dcd_dwc2.c ****         }
1042:lib/tinyusb/src/portable/synopsys/dwc2/dcd_dwc2.c ****       }
1043:lib/tinyusb/src/portable/synopsys/dwc2/dcd_dwc2.c ****     }
1044:lib/tinyusb/src/portable/synopsys/dwc2/dcd_dwc2.c ****   }
1045:lib/tinyusb/src/portable/synopsys/dwc2/dcd_dwc2.c **** }
1046:lib/tinyusb/src/portable/synopsys/dwc2/dcd_dwc2.c **** 
1047:lib/tinyusb/src/portable/synopsys/dwc2/dcd_dwc2.c **** static void handle_epin_irq(uint8_t rhport) {
1048:lib/tinyusb/src/portable/synopsys/dwc2/dcd_dwc2.c ****   dwc2_regs_t* dwc2 = DWC2_REG(rhport);
1049:lib/tinyusb/src/portable/synopsys/dwc2/dcd_dwc2.c ****   uint8_t const ep_count = _dwc2_controller[rhport].ep_count;
1050:lib/tinyusb/src/portable/synopsys/dwc2/dcd_dwc2.c ****   dwc2_epin_t* epin = dwc2->epin;
ARM GAS  /tmp/claude-502/ccFotbfS.s 			page 146


1051:lib/tinyusb/src/portable/synopsys/dwc2/dcd_dwc2.c **** 
1052:lib/tinyusb/src/portable/synopsys/dwc2/dcd_dwc2.c ****   // DAINT for a given EP clears when DIEPINTx is cleared.
1053:lib/tinyusb/src/portable/synopsys/dwc2/dcd_dwc2.c ****   // IEPINT will be cleared when DAINT's out bits are cleared.
1054:lib/tinyusb/src/portable/synopsys/dwc2/dcd_dwc2.c ****   for (uint8_t n = 0; n < ep_count; n++) {
1055:lib/tinyusb/src/portable/synopsys/dwc2/dcd_dwc2.c ****     if (dwc2->daint & TU_BIT(DAINT_IEPINT_Pos + n)) {
1056:lib/tinyusb/src/portable/synopsys/dwc2/dcd_dwc2.c ****       // IN XFER complete (entire xfer).
1057:lib/tinyusb/src/portable/synopsys/dwc2/dcd_dwc2.c ****       xfer_ctl_t* xfer = XFER_CTL_BASE(n, TUSB_DIR_IN);
1058:lib/tinyusb/src/portable/synopsys/dwc2/dcd_dwc2.c **** 
1059:lib/tinyusb/src/portable/synopsys/dwc2/dcd_dwc2.c ****       if (epin[n].diepint & DIEPINT_XFRC) {
1060:lib/tinyusb/src/portable/synopsys/dwc2/dcd_dwc2.c ****         epin[n].diepint = DIEPINT_XFRC;
1061:lib/tinyusb/src/portable/synopsys/dwc2/dcd_dwc2.c **** 
1062:lib/tinyusb/src/portable/synopsys/dwc2/dcd_dwc2.c ****         // EP0 can only handle one packet
1063:lib/tinyusb/src/portable/synopsys/dwc2/dcd_dwc2.c ****         if ((n == 0) && ep0_pending[TUSB_DIR_IN]) {
1064:lib/tinyusb/src/portable/synopsys/dwc2/dcd_dwc2.c ****           // Schedule another packet to be transmitted.
1065:lib/tinyusb/src/portable/synopsys/dwc2/dcd_dwc2.c ****           edpt_schedule_packets(rhport, n, TUSB_DIR_IN, 1, ep0_pending[TUSB_DIR_IN]);
1066:lib/tinyusb/src/portable/synopsys/dwc2/dcd_dwc2.c ****         } else {
1067:lib/tinyusb/src/portable/synopsys/dwc2/dcd_dwc2.c ****           dcd_event_xfer_complete(rhport, n | TUSB_DIR_IN_MASK, xfer->total_len, XFER_RESULT_SUCCES
1068:lib/tinyusb/src/portable/synopsys/dwc2/dcd_dwc2.c ****         }
1069:lib/tinyusb/src/portable/synopsys/dwc2/dcd_dwc2.c ****       }
1070:lib/tinyusb/src/portable/synopsys/dwc2/dcd_dwc2.c **** 
1071:lib/tinyusb/src/portable/synopsys/dwc2/dcd_dwc2.c ****       // XFER FIFO empty
1072:lib/tinyusb/src/portable/synopsys/dwc2/dcd_dwc2.c ****       if ((epin[n].diepint & DIEPINT_TXFE) && (dwc2->diepempmsk & (1 << n))) {
1073:lib/tinyusb/src/portable/synopsys/dwc2/dcd_dwc2.c ****         // diepint's TXFE bit is read-only, software cannot clear it.
1074:lib/tinyusb/src/portable/synopsys/dwc2/dcd_dwc2.c ****         // It will only be cleared by hardware when written bytes is more than
1075:lib/tinyusb/src/portable/synopsys/dwc2/dcd_dwc2.c ****         // - 64 bytes or
1076:lib/tinyusb/src/portable/synopsys/dwc2/dcd_dwc2.c ****         // - Half of TX FIFO size (configured by DIEPTXF)
1077:lib/tinyusb/src/portable/synopsys/dwc2/dcd_dwc2.c **** 
1078:lib/tinyusb/src/portable/synopsys/dwc2/dcd_dwc2.c ****         uint16_t remaining_packets = (epin[n].dieptsiz & DIEPTSIZ_PKTCNT_Msk) >> DIEPTSIZ_PKTCNT_Po
1079:lib/tinyusb/src/portable/synopsys/dwc2/dcd_dwc2.c **** 
1080:lib/tinyusb/src/portable/synopsys/dwc2/dcd_dwc2.c ****         // Process every single packet (only whole packets can be written to fifo)
1081:lib/tinyusb/src/portable/synopsys/dwc2/dcd_dwc2.c ****         for (uint16_t i = 0; i < remaining_packets; i++) {
1082:lib/tinyusb/src/portable/synopsys/dwc2/dcd_dwc2.c ****           uint16_t const remaining_bytes = (epin[n].dieptsiz & DIEPTSIZ_XFRSIZ_Msk) >> DIEPTSIZ_XFR
1083:lib/tinyusb/src/portable/synopsys/dwc2/dcd_dwc2.c **** 
1084:lib/tinyusb/src/portable/synopsys/dwc2/dcd_dwc2.c ****           // Packet can not be larger than ep max size
1085:lib/tinyusb/src/portable/synopsys/dwc2/dcd_dwc2.c ****           uint16_t const packet_size = tu_min16(remaining_bytes, xfer->max_size);
1086:lib/tinyusb/src/portable/synopsys/dwc2/dcd_dwc2.c **** 
1087:lib/tinyusb/src/portable/synopsys/dwc2/dcd_dwc2.c ****           // It's only possible to write full packets into FIFO. Therefore DTXFSTS register of curr
1088:lib/tinyusb/src/portable/synopsys/dwc2/dcd_dwc2.c ****           // EP has to be checked if the buffer can take another WHOLE packet
1089:lib/tinyusb/src/portable/synopsys/dwc2/dcd_dwc2.c ****           if (packet_size > ((epin[n].dtxfsts & DTXFSTS_INEPTFSAV_Msk) << 2)) break;
1090:lib/tinyusb/src/portable/synopsys/dwc2/dcd_dwc2.c **** 
1091:lib/tinyusb/src/portable/synopsys/dwc2/dcd_dwc2.c ****           // Push packet to Tx-FIFO
1092:lib/tinyusb/src/portable/synopsys/dwc2/dcd_dwc2.c ****           if (xfer->ff) {
1093:lib/tinyusb/src/portable/synopsys/dwc2/dcd_dwc2.c ****             volatile uint32_t* tx_fifo = dwc2->fifo[n];
1094:lib/tinyusb/src/portable/synopsys/dwc2/dcd_dwc2.c ****             tu_fifo_read_n_const_addr_full_words(xfer->ff, (void*) (uintptr_t) tx_fifo, packet_size
1095:lib/tinyusb/src/portable/synopsys/dwc2/dcd_dwc2.c ****           } else {
1096:lib/tinyusb/src/portable/synopsys/dwc2/dcd_dwc2.c ****             write_fifo_packet(rhport, n, xfer->buffer, packet_size);
1097:lib/tinyusb/src/portable/synopsys/dwc2/dcd_dwc2.c **** 
1098:lib/tinyusb/src/portable/synopsys/dwc2/dcd_dwc2.c ****             // Increment pointer to xfer data
1099:lib/tinyusb/src/portable/synopsys/dwc2/dcd_dwc2.c ****             xfer->buffer += packet_size;
1100:lib/tinyusb/src/portable/synopsys/dwc2/dcd_dwc2.c ****           }
1101:lib/tinyusb/src/portable/synopsys/dwc2/dcd_dwc2.c ****         }
1102:lib/tinyusb/src/portable/synopsys/dwc2/dcd_dwc2.c **** 
1103:lib/tinyusb/src/portable/synopsys/dwc2/dcd_dwc2.c ****         // Turn off TXFE if all bytes are written.
1104:lib/tinyusb/src/portable/synopsys/dwc2/dcd_dwc2.c ****         if (((epin[n].dieptsiz & DIEPTSIZ_XFRSIZ_Msk) >> DIEPTSIZ_XFRSIZ_Pos) == 0) {
1105:lib/tinyusb/src/portable/synopsys/dwc2/dcd_dwc2.c ****           dwc2->diepempmsk &= ~(1 << n);
1106:lib/tinyusb/src/portable/synopsys/dwc2/dcd_dwc2.c ****         }
1107:lib/tinyusb/src/portable/synopsys/dwc2/dcd_dwc2.c ****       }
ARM GAS  /tmp/claude-502/ccFotbfS.s 			page 147


1108:lib/tinyusb/src/portable/synopsys/dwc2/dcd_dwc2.c ****     }
1109:lib/tinyusb/src/portable/synopsys/dwc2/dcd_dwc2.c ****   }
1110:lib/tinyusb/src/portable/synopsys/dwc2/dcd_dwc2.c **** }
1111:lib/tinyusb/src/portable/synopsys/dwc2/dcd_dwc2.c **** 
1112:lib/tinyusb/src/portable/synopsys/dwc2/dcd_dwc2.c **** void dcd_int_handler(uint8_t rhport) {
 3017              		.loc 1 1112 38 is_stmt 1 view -0
 3018              		.cfi_startproc
 3019              		@ args = 0, pretend = 0, frame = 24
 3020              		@ frame_needed = 0, uses_anonymous_args = 0
1113:lib/tinyusb/src/portable/synopsys/dwc2/dcd_dwc2.c ****   dwc2_regs_t* dwc2 = DWC2_REG(rhport);
 3021              		.loc 1 1113 3 view .LVU926
1112:lib/tinyusb/src/portable/synopsys/dwc2/dcd_dwc2.c ****   dwc2_regs_t* dwc2 = DWC2_REG(rhport);
 3022              		.loc 1 1112 38 is_stmt 0 view .LVU927
 3023 0000 2DE9F04F 		push	{r4, r5, r6, r7, r8, r9, r10, fp, lr}
 3024              		.cfi_def_cfa_offset 36
 3025              		.cfi_offset 4, -36
 3026              		.cfi_offset 5, -32
 3027              		.cfi_offset 6, -28
 3028              		.cfi_offset 7, -24
 3029              		.cfi_offset 8, -20
 3030              		.cfi_offset 9, -16
 3031              		.cfi_offset 10, -12
 3032              		.cfi_offset 11, -8
 3033              		.cfi_offset 14, -4
 3034              		.loc 1 1113 23 view .LVU928
 3035 0004 944E     		ldr	r6, .L397
 3036 0006 4FEA001A 		lsl	r10, r0, #4
1112:lib/tinyusb/src/portable/synopsys/dwc2/dcd_dwc2.c ****   dwc2_regs_t* dwc2 = DWC2_REG(rhport);
 3037              		.loc 1 1112 38 view .LVU929
 3038 000a 89B0     		sub	sp, sp, #36
 3039              		.cfi_def_cfa_offset 72
 3040              		.loc 1 1113 23 view .LVU930
 3041 000c 56F80A40 		ldr	r4, [r6, r10]
 3042 0010 06EB0012 		add	r2, r6, r0, lsl #4
1112:lib/tinyusb/src/portable/synopsys/dwc2/dcd_dwc2.c ****   dwc2_regs_t* dwc2 = DWC2_REG(rhport);
 3043              		.loc 1 1112 38 view .LVU931
 3044 0014 0290     		str	r0, [sp, #8]
1114:lib/tinyusb/src/portable/synopsys/dwc2/dcd_dwc2.c **** 
1115:lib/tinyusb/src/portable/synopsys/dwc2/dcd_dwc2.c ****   uint32_t const int_mask = dwc2->gintmsk;
 3045              		.loc 1 1115 18 view .LVU932
 3046 0016 A369     		ldr	r3, [r4, #24]
1113:lib/tinyusb/src/portable/synopsys/dwc2/dcd_dwc2.c **** 
 3047              		.loc 1 1113 16 view .LVU933
 3048 0018 A346     		mov	fp, r4
1116:lib/tinyusb/src/portable/synopsys/dwc2/dcd_dwc2.c ****   uint32_t const int_status = dwc2->gintsts & int_mask;
 3049              		.loc 1 1116 35 view .LVU934
 3050 001a 6769     		ldr	r7, [r4, #20]
 3051              	.LVL209:
1115:lib/tinyusb/src/portable/synopsys/dwc2/dcd_dwc2.c ****   uint32_t const int_status = dwc2->gintsts & int_mask;
 3052              		.loc 1 1115 3 is_stmt 1 view .LVU935
 3053              		.loc 1 1116 3 view .LVU936
 3054              		.loc 1 1116 18 is_stmt 0 view .LVU937
 3055 001c 1F40     		ands	r7, r7, r3
 3056              	.LVL210:
1117:lib/tinyusb/src/portable/synopsys/dwc2/dcd_dwc2.c **** 
1118:lib/tinyusb/src/portable/synopsys/dwc2/dcd_dwc2.c ****   if (int_status & GINTSTS_USBRST) {
 3057              		.loc 1 1118 3 is_stmt 1 view .LVU938
ARM GAS  /tmp/claude-502/ccFotbfS.s 			page 148


 3058              		.loc 1 1118 6 is_stmt 0 view .LVU939
 3059 001e F904     		lsls	r1, r7, #19
 3060 0020 00F12681 		bmi	.L383
 3061              	.LVL211:
 3062              	.L226:
1119:lib/tinyusb/src/portable/synopsys/dwc2/dcd_dwc2.c ****     // USBRST is start of reset.
1120:lib/tinyusb/src/portable/synopsys/dwc2/dcd_dwc2.c ****     dwc2->gintsts = GINTSTS_USBRST;
1121:lib/tinyusb/src/portable/synopsys/dwc2/dcd_dwc2.c ****     bus_reset(rhport);
1122:lib/tinyusb/src/portable/synopsys/dwc2/dcd_dwc2.c ****   }
1123:lib/tinyusb/src/portable/synopsys/dwc2/dcd_dwc2.c **** 
1124:lib/tinyusb/src/portable/synopsys/dwc2/dcd_dwc2.c ****   if (int_status & GINTSTS_ENUMDNE) {
 3063              		.loc 1 1124 3 is_stmt 1 view .LVU940
 3064              		.loc 1 1124 6 is_stmt 0 view .LVU941
 3065 0024 B804     		lsls	r0, r7, #18
 3066 0026 1ED5     		bpl	.L233
 3067              	.LBB483:
1125:lib/tinyusb/src/portable/synopsys/dwc2/dcd_dwc2.c ****     // ENUMDNE is the end of reset where speed of the link is detected
1126:lib/tinyusb/src/portable/synopsys/dwc2/dcd_dwc2.c ****     dwc2->gintsts = GINTSTS_ENUMDNE;
 3068              		.loc 1 1126 5 is_stmt 1 view .LVU942
 3069              		.loc 1 1126 19 is_stmt 0 view .LVU943
 3070 0028 4FF40053 		mov	r3, #8192
 3071 002c 6361     		str	r3, [r4, #20]
1127:lib/tinyusb/src/portable/synopsys/dwc2/dcd_dwc2.c **** 
1128:lib/tinyusb/src/portable/synopsys/dwc2/dcd_dwc2.c ****     tusb_speed_t speed;
 3072              		.loc 1 1128 5 is_stmt 1 view .LVU944
1129:lib/tinyusb/src/portable/synopsys/dwc2/dcd_dwc2.c ****     switch ((dwc2->dsts & DSTS_ENUMSPD_Msk) >> DSTS_ENUMSPD_Pos) {
 3073              		.loc 1 1129 5 view .LVU945
 3074              		.loc 1 1129 18 is_stmt 0 view .LVU946
 3075 002e D4F80828 		ldr	r2, [r4, #2056]
 3076              		.loc 1 1129 5 view .LVU947
 3077 0032 12F0060F 		tst	r2, #6
 3078              		.loc 1 1129 45 view .LVU948
 3079 0036 C2F34103 		ubfx	r3, r2, #1, #2
 3080              		.loc 1 1129 5 view .LVU949
 3081 003a 00F04182 		beq	.L294
1130:lib/tinyusb/src/portable/synopsys/dwc2/dcd_dwc2.c ****       case DSTS_ENUMSPD_HS:
1131:lib/tinyusb/src/portable/synopsys/dwc2/dcd_dwc2.c ****         speed = TUSB_SPEED_HIGH;
1132:lib/tinyusb/src/portable/synopsys/dwc2/dcd_dwc2.c ****         break;
1133:lib/tinyusb/src/portable/synopsys/dwc2/dcd_dwc2.c **** 
1134:lib/tinyusb/src/portable/synopsys/dwc2/dcd_dwc2.c ****       case DSTS_ENUMSPD_LS:
1135:lib/tinyusb/src/portable/synopsys/dwc2/dcd_dwc2.c ****         speed = TUSB_SPEED_LOW;
1136:lib/tinyusb/src/portable/synopsys/dwc2/dcd_dwc2.c ****         break;
1137:lib/tinyusb/src/portable/synopsys/dwc2/dcd_dwc2.c **** 
1138:lib/tinyusb/src/portable/synopsys/dwc2/dcd_dwc2.c ****       case DSTS_ENUMSPD_FS_HSPHY:
1139:lib/tinyusb/src/portable/synopsys/dwc2/dcd_dwc2.c ****       case DSTS_ENUMSPD_FS:
1140:lib/tinyusb/src/portable/synopsys/dwc2/dcd_dwc2.c ****       default:
1141:lib/tinyusb/src/portable/synopsys/dwc2/dcd_dwc2.c ****         speed = TUSB_SPEED_FULL;
 3082              		.loc 1 1141 15 view .LVU950
 3083 003e A3F10203 		sub	r3, #2
 3084 0042 B3FA83F3 		clz	r3, r3
 3085 0046 5B09     		lsrs	r3, r3, #5
 3086              	.L234:
 3087              	.LVL212:
1142:lib/tinyusb/src/portable/synopsys/dwc2/dcd_dwc2.c ****         break;
1143:lib/tinyusb/src/portable/synopsys/dwc2/dcd_dwc2.c ****     }
1144:lib/tinyusb/src/portable/synopsys/dwc2/dcd_dwc2.c **** 
1145:lib/tinyusb/src/portable/synopsys/dwc2/dcd_dwc2.c ****     // TODO must update GUSBCFG_TRDT according to link speed
ARM GAS  /tmp/claude-502/ccFotbfS.s 			page 149


1146:lib/tinyusb/src/portable/synopsys/dwc2/dcd_dwc2.c **** 
1147:lib/tinyusb/src/portable/synopsys/dwc2/dcd_dwc2.c ****     dcd_event_bus_reset(rhport, speed, true);
 3088              		.loc 1 1147 5 is_stmt 1 view .LVU951
 3089              	.LBB484:
 3090              	.LBI484:
 3091              		.file 7 "lib/tinyusb/src/device/dcd.h"
   1:lib/tinyusb/src/device/dcd.h **** /*
   2:lib/tinyusb/src/device/dcd.h ****  * The MIT License (MIT)
   3:lib/tinyusb/src/device/dcd.h ****  *
   4:lib/tinyusb/src/device/dcd.h ****  * Copyright (c) 2019 Ha Thach (tinyusb.org)
   5:lib/tinyusb/src/device/dcd.h ****  *
   6:lib/tinyusb/src/device/dcd.h ****  * Permission is hereby granted, free of charge, to any person obtaining a copy
   7:lib/tinyusb/src/device/dcd.h ****  * of this software and associated documentation files (the "Software"), to deal
   8:lib/tinyusb/src/device/dcd.h ****  * in the Software without restriction, including without limitation the rights
   9:lib/tinyusb/src/device/dcd.h ****  * to use, copy, modify, merge, publish, distribute, sublicense, and/or sell
  10:lib/tinyusb/src/device/dcd.h ****  * copies of the Software, and to permit persons to whom the Software is
  11:lib/tinyusb/src/device/dcd.h ****  * furnished to do so, subject to the following conditions:
  12:lib/tinyusb/src/device/dcd.h ****  *
  13:lib/tinyusb/src/device/dcd.h ****  * The above copyright notice and this permission notice shall be included in
  14:lib/tinyusb/src/device/dcd.h ****  * all copies or substantial portions of the Software.
  15:lib/tinyusb/src/device/dcd.h ****  *
  16:lib/tinyusb/src/device/dcd.h ****  * THE SOFTWARE IS PROVIDED "AS IS", WITHOUT WARRANTY OF ANY KIND, EXPRESS OR
  17:lib/tinyusb/src/device/dcd.h ****  * IMPLIED, INCLUDING BUT NOT LIMITED TO THE WARRANTIES OF MERCHANTABILITY,
  18:lib/tinyusb/src/device/dcd.h ****  * FITNESS FOR A PARTICULAR PURPOSE AND NONINFRINGEMENT. IN NO EVENT SHALL THE
  19:lib/tinyusb/src/device/dcd.h ****  * AUTHORS OR COPYRIGHT HOLDERS BE LIABLE FOR ANY CLAIM, DAMAGES OR OTHER
  20:lib/tinyusb/src/device/dcd.h ****  * LIABILITY, WHETHER IN AN ACTION OF CONTRACT, TORT OR OTHERWISE, ARISING FROM,
  21:lib/tinyusb/src/device/dcd.h ****  * OUT OF OR IN CONNECTION WITH THE SOFTWARE OR THE USE OR OTHER DEALINGS IN
  22:lib/tinyusb/src/device/dcd.h ****  * THE SOFTWARE.
  23:lib/tinyusb/src/device/dcd.h ****  *
  24:lib/tinyusb/src/device/dcd.h ****  * This file is part of the TinyUSB stack.
  25:lib/tinyusb/src/device/dcd.h ****  */
  26:lib/tinyusb/src/device/dcd.h **** 
  27:lib/tinyusb/src/device/dcd.h **** #ifndef TUSB_DCD_H_
  28:lib/tinyusb/src/device/dcd.h **** #define TUSB_DCD_H_
  29:lib/tinyusb/src/device/dcd.h **** 
  30:lib/tinyusb/src/device/dcd.h **** #include "common/tusb_common.h"
  31:lib/tinyusb/src/device/dcd.h **** #include "osal/osal.h"
  32:lib/tinyusb/src/device/dcd.h **** #include "common/tusb_fifo.h"
  33:lib/tinyusb/src/device/dcd.h **** 
  34:lib/tinyusb/src/device/dcd.h **** #ifdef __cplusplus
  35:lib/tinyusb/src/device/dcd.h ****  extern "C" {
  36:lib/tinyusb/src/device/dcd.h **** #endif
  37:lib/tinyusb/src/device/dcd.h **** 
  38:lib/tinyusb/src/device/dcd.h **** //--------------------------------------------------------------------+
  39:lib/tinyusb/src/device/dcd.h **** // MACRO CONSTANT TYPEDEF PROTYPES
  40:lib/tinyusb/src/device/dcd.h **** //--------------------------------------------------------------------+
  41:lib/tinyusb/src/device/dcd.h **** 
  42:lib/tinyusb/src/device/dcd.h **** typedef enum {
  43:lib/tinyusb/src/device/dcd.h ****   DCD_EVENT_INVALID = 0,    // 0
  44:lib/tinyusb/src/device/dcd.h ****   DCD_EVENT_BUS_RESET,      // 1
  45:lib/tinyusb/src/device/dcd.h ****   DCD_EVENT_UNPLUGGED,      // 2
  46:lib/tinyusb/src/device/dcd.h ****   DCD_EVENT_SOF,            // 3
  47:lib/tinyusb/src/device/dcd.h ****   DCD_EVENT_SUSPEND,        // 4 TODO LPM Sleep L1 support
  48:lib/tinyusb/src/device/dcd.h ****   DCD_EVENT_RESUME,         // 5
  49:lib/tinyusb/src/device/dcd.h ****   DCD_EVENT_SETUP_RECEIVED, // 6
  50:lib/tinyusb/src/device/dcd.h ****   DCD_EVENT_XFER_COMPLETE,  // 7
  51:lib/tinyusb/src/device/dcd.h ****   USBD_EVENT_FUNC_CALL,     // 8 Not an DCD event, just a convenient way to defer ISR function
ARM GAS  /tmp/claude-502/ccFotbfS.s 			page 150


  52:lib/tinyusb/src/device/dcd.h ****   DCD_EVENT_COUNT
  53:lib/tinyusb/src/device/dcd.h **** } dcd_eventid_t;
  54:lib/tinyusb/src/device/dcd.h **** 
  55:lib/tinyusb/src/device/dcd.h **** typedef struct TU_ATTR_ALIGNED(4) {
  56:lib/tinyusb/src/device/dcd.h ****   uint8_t rhport;
  57:lib/tinyusb/src/device/dcd.h ****   uint8_t event_id;
  58:lib/tinyusb/src/device/dcd.h **** 
  59:lib/tinyusb/src/device/dcd.h ****   union {
  60:lib/tinyusb/src/device/dcd.h ****     // BUS RESET
  61:lib/tinyusb/src/device/dcd.h ****     struct {
  62:lib/tinyusb/src/device/dcd.h ****       tusb_speed_t speed;
  63:lib/tinyusb/src/device/dcd.h ****     } bus_reset;
  64:lib/tinyusb/src/device/dcd.h **** 
  65:lib/tinyusb/src/device/dcd.h ****     // SOF
  66:lib/tinyusb/src/device/dcd.h ****     struct {
  67:lib/tinyusb/src/device/dcd.h ****       uint32_t frame_count;
  68:lib/tinyusb/src/device/dcd.h ****     }sof;
  69:lib/tinyusb/src/device/dcd.h **** 
  70:lib/tinyusb/src/device/dcd.h ****     // SETUP_RECEIVED
  71:lib/tinyusb/src/device/dcd.h ****     tusb_control_request_t setup_received;
  72:lib/tinyusb/src/device/dcd.h **** 
  73:lib/tinyusb/src/device/dcd.h ****     // XFER_COMPLETE
  74:lib/tinyusb/src/device/dcd.h ****     struct {
  75:lib/tinyusb/src/device/dcd.h ****       uint8_t  ep_addr;
  76:lib/tinyusb/src/device/dcd.h ****       uint8_t  result;
  77:lib/tinyusb/src/device/dcd.h ****       uint32_t len;
  78:lib/tinyusb/src/device/dcd.h ****     }xfer_complete;
  79:lib/tinyusb/src/device/dcd.h **** 
  80:lib/tinyusb/src/device/dcd.h ****     // FUNC_CALL
  81:lib/tinyusb/src/device/dcd.h ****     struct {
  82:lib/tinyusb/src/device/dcd.h ****       void (*func) (void*);
  83:lib/tinyusb/src/device/dcd.h ****       void* param;
  84:lib/tinyusb/src/device/dcd.h ****     }func_call;
  85:lib/tinyusb/src/device/dcd.h ****   };
  86:lib/tinyusb/src/device/dcd.h **** } dcd_event_t;
  87:lib/tinyusb/src/device/dcd.h **** 
  88:lib/tinyusb/src/device/dcd.h **** //TU_VERIFY_STATIC(sizeof(dcd_event_t) <= 12, "size is not correct");
  89:lib/tinyusb/src/device/dcd.h **** 
  90:lib/tinyusb/src/device/dcd.h **** //--------------------------------------------------------------------+
  91:lib/tinyusb/src/device/dcd.h **** // Memory API
  92:lib/tinyusb/src/device/dcd.h **** //--------------------------------------------------------------------+
  93:lib/tinyusb/src/device/dcd.h **** 
  94:lib/tinyusb/src/device/dcd.h **** // clean/flush data cache: write cache -> memory.
  95:lib/tinyusb/src/device/dcd.h **** // Required before an DMA TX transfer to make sure data is in memory
  96:lib/tinyusb/src/device/dcd.h **** void dcd_dcache_clean(void const* addr, uint32_t data_size) TU_ATTR_WEAK;
  97:lib/tinyusb/src/device/dcd.h **** 
  98:lib/tinyusb/src/device/dcd.h **** // invalidate data cache: mark cache as invalid, next read will read from memory
  99:lib/tinyusb/src/device/dcd.h **** // Required BOTH before and after an DMA RX transfer
 100:lib/tinyusb/src/device/dcd.h **** void dcd_dcache_invalidate(void const* addr, uint32_t data_size) TU_ATTR_WEAK;
 101:lib/tinyusb/src/device/dcd.h **** 
 102:lib/tinyusb/src/device/dcd.h **** // clean and invalidate data cache
 103:lib/tinyusb/src/device/dcd.h **** // Required before an DMA transfer where memory is both read/write by DMA
 104:lib/tinyusb/src/device/dcd.h **** void dcd_dcache_clean_invalidate(void const* addr, uint32_t data_size) TU_ATTR_WEAK;
 105:lib/tinyusb/src/device/dcd.h **** 
 106:lib/tinyusb/src/device/dcd.h **** //--------------------------------------------------------------------+
 107:lib/tinyusb/src/device/dcd.h **** // Controller API
 108:lib/tinyusb/src/device/dcd.h **** //--------------------------------------------------------------------+
ARM GAS  /tmp/claude-502/ccFotbfS.s 			page 151


 109:lib/tinyusb/src/device/dcd.h **** 
 110:lib/tinyusb/src/device/dcd.h **** // Initialize controller to device mode
 111:lib/tinyusb/src/device/dcd.h **** void dcd_init(uint8_t rhport);
 112:lib/tinyusb/src/device/dcd.h **** 
 113:lib/tinyusb/src/device/dcd.h **** // Deinitialize controller, unset device mode.
 114:lib/tinyusb/src/device/dcd.h **** bool dcd_deinit(uint8_t rhport);
 115:lib/tinyusb/src/device/dcd.h **** 
 116:lib/tinyusb/src/device/dcd.h **** // Interrupt Handler
 117:lib/tinyusb/src/device/dcd.h **** void dcd_int_handler(uint8_t rhport);
 118:lib/tinyusb/src/device/dcd.h **** 
 119:lib/tinyusb/src/device/dcd.h **** // Enable device interrupt
 120:lib/tinyusb/src/device/dcd.h **** void dcd_int_enable (uint8_t rhport);
 121:lib/tinyusb/src/device/dcd.h **** 
 122:lib/tinyusb/src/device/dcd.h **** // Disable device interrupt
 123:lib/tinyusb/src/device/dcd.h **** void dcd_int_disable(uint8_t rhport);
 124:lib/tinyusb/src/device/dcd.h **** 
 125:lib/tinyusb/src/device/dcd.h **** // Receive Set Address request, mcu port must also include status IN response
 126:lib/tinyusb/src/device/dcd.h **** void dcd_set_address(uint8_t rhport, uint8_t dev_addr);
 127:lib/tinyusb/src/device/dcd.h **** 
 128:lib/tinyusb/src/device/dcd.h **** // Wake up host
 129:lib/tinyusb/src/device/dcd.h **** void dcd_remote_wakeup(uint8_t rhport);
 130:lib/tinyusb/src/device/dcd.h **** 
 131:lib/tinyusb/src/device/dcd.h **** // Connect by enabling internal pull-up resistor on D+/D-
 132:lib/tinyusb/src/device/dcd.h **** void dcd_connect(uint8_t rhport);
 133:lib/tinyusb/src/device/dcd.h **** 
 134:lib/tinyusb/src/device/dcd.h **** // Disconnect by disabling internal pull-up resistor on D+/D-
 135:lib/tinyusb/src/device/dcd.h **** void dcd_disconnect(uint8_t rhport);
 136:lib/tinyusb/src/device/dcd.h **** 
 137:lib/tinyusb/src/device/dcd.h **** // Enable/Disable Start-of-frame interrupt. Default is disabled
 138:lib/tinyusb/src/device/dcd.h **** void dcd_sof_enable(uint8_t rhport, bool en);
 139:lib/tinyusb/src/device/dcd.h **** 
 140:lib/tinyusb/src/device/dcd.h **** #if CFG_TUD_TEST_MODE
 141:lib/tinyusb/src/device/dcd.h **** // Put device into a test mode (needs power cycle to quit)
 142:lib/tinyusb/src/device/dcd.h **** void dcd_enter_test_mode(uint8_t rhport, tusb_feature_test_mode_t test_selector);
 143:lib/tinyusb/src/device/dcd.h **** #endif
 144:lib/tinyusb/src/device/dcd.h **** //--------------------------------------------------------------------+
 145:lib/tinyusb/src/device/dcd.h **** // Endpoint API
 146:lib/tinyusb/src/device/dcd.h **** //--------------------------------------------------------------------+
 147:lib/tinyusb/src/device/dcd.h **** 
 148:lib/tinyusb/src/device/dcd.h **** // Invoked when a control transfer's status stage is complete.
 149:lib/tinyusb/src/device/dcd.h **** // May help DCD to prepare for next control transfer, this API is optional.
 150:lib/tinyusb/src/device/dcd.h **** void dcd_edpt0_status_complete(uint8_t rhport, tusb_control_request_t const * request);
 151:lib/tinyusb/src/device/dcd.h **** 
 152:lib/tinyusb/src/device/dcd.h **** // Configure endpoint's registers according to descriptor
 153:lib/tinyusb/src/device/dcd.h **** bool dcd_edpt_open            (uint8_t rhport, tusb_desc_endpoint_t const * desc_ep);
 154:lib/tinyusb/src/device/dcd.h **** 
 155:lib/tinyusb/src/device/dcd.h **** // Close all non-control endpoints, cancel all pending transfers if any.
 156:lib/tinyusb/src/device/dcd.h **** // Invoked when switching from a non-zero Configuration by SET_CONFIGURE therefore
 157:lib/tinyusb/src/device/dcd.h **** // required for multiple configuration support.
 158:lib/tinyusb/src/device/dcd.h **** void dcd_edpt_close_all       (uint8_t rhport);
 159:lib/tinyusb/src/device/dcd.h **** 
 160:lib/tinyusb/src/device/dcd.h **** // Submit a transfer, When complete dcd_event_xfer_complete() is invoked to notify the stack
 161:lib/tinyusb/src/device/dcd.h **** bool dcd_edpt_xfer            (uint8_t rhport, uint8_t ep_addr, uint8_t * buffer, uint16_t total_by
 162:lib/tinyusb/src/device/dcd.h **** 
 163:lib/tinyusb/src/device/dcd.h **** // Submit an transfer using fifo, When complete dcd_event_xfer_complete() is invoked to notify the 
 164:lib/tinyusb/src/device/dcd.h **** // This API is optional, may be useful for register-based for transferring data.
 165:lib/tinyusb/src/device/dcd.h **** bool dcd_edpt_xfer_fifo       (uint8_t rhport, uint8_t ep_addr, tu_fifo_t * ff, uint16_t total_byte
ARM GAS  /tmp/claude-502/ccFotbfS.s 			page 152


 166:lib/tinyusb/src/device/dcd.h **** 
 167:lib/tinyusb/src/device/dcd.h **** // Stall endpoint, any queuing transfer should be removed from endpoint
 168:lib/tinyusb/src/device/dcd.h **** void dcd_edpt_stall           (uint8_t rhport, uint8_t ep_addr);
 169:lib/tinyusb/src/device/dcd.h **** 
 170:lib/tinyusb/src/device/dcd.h **** // clear stall, data toggle is also reset to DATA0
 171:lib/tinyusb/src/device/dcd.h **** // This API never calls with control endpoints, since it is auto cleared when receiving setup packe
 172:lib/tinyusb/src/device/dcd.h **** void dcd_edpt_clear_stall     (uint8_t rhport, uint8_t ep_addr);
 173:lib/tinyusb/src/device/dcd.h **** 
 174:lib/tinyusb/src/device/dcd.h **** #ifdef TUP_DCD_EDPT_ISO_ALLOC
 175:lib/tinyusb/src/device/dcd.h **** // Allocate packet buffer used by ISO endpoints
 176:lib/tinyusb/src/device/dcd.h **** // Some MCU need manual packet buffer allocation, we allocate the largest size to avoid clustering
 177:lib/tinyusb/src/device/dcd.h **** bool dcd_edpt_iso_alloc(uint8_t rhport, uint8_t ep_addr, uint16_t largest_packet_size);
 178:lib/tinyusb/src/device/dcd.h **** 
 179:lib/tinyusb/src/device/dcd.h **** // Configure and enable an ISO endpoint according to descriptor
 180:lib/tinyusb/src/device/dcd.h **** bool dcd_edpt_iso_activate(uint8_t rhport, tusb_desc_endpoint_t const * desc_ep);
 181:lib/tinyusb/src/device/dcd.h **** 
 182:lib/tinyusb/src/device/dcd.h **** #else
 183:lib/tinyusb/src/device/dcd.h **** // Close an endpoint.
 184:lib/tinyusb/src/device/dcd.h **** void dcd_edpt_close(uint8_t rhport, uint8_t ep_addr);
 185:lib/tinyusb/src/device/dcd.h **** 
 186:lib/tinyusb/src/device/dcd.h **** #endif
 187:lib/tinyusb/src/device/dcd.h **** 
 188:lib/tinyusb/src/device/dcd.h **** //--------------------------------------------------------------------+
 189:lib/tinyusb/src/device/dcd.h **** // Event API (implemented by stack)
 190:lib/tinyusb/src/device/dcd.h **** //--------------------------------------------------------------------+
 191:lib/tinyusb/src/device/dcd.h **** 
 192:lib/tinyusb/src/device/dcd.h **** // Called by DCD to notify device stack
 193:lib/tinyusb/src/device/dcd.h **** extern void dcd_event_handler(dcd_event_t const * event, bool in_isr);
 194:lib/tinyusb/src/device/dcd.h **** 
 195:lib/tinyusb/src/device/dcd.h **** // helper to send bus signal event
 196:lib/tinyusb/src/device/dcd.h **** TU_ATTR_ALWAYS_INLINE static inline void dcd_event_bus_signal (uint8_t rhport, dcd_eventid_t eid, b
 197:lib/tinyusb/src/device/dcd.h ****   dcd_event_t event = { .rhport = rhport, .event_id = eid };
 198:lib/tinyusb/src/device/dcd.h ****   dcd_event_handler(&event, in_isr);
 199:lib/tinyusb/src/device/dcd.h **** }
 200:lib/tinyusb/src/device/dcd.h **** 
 201:lib/tinyusb/src/device/dcd.h **** // helper to send bus reset event
 202:lib/tinyusb/src/device/dcd.h **** TU_ATTR_ALWAYS_INLINE static inline  void dcd_event_bus_reset (uint8_t rhport, tusb_speed_t speed, 
 3092              		.loc 7 202 43 view .LVU952
 3093              	.LBB485:
 203:lib/tinyusb/src/device/dcd.h ****   dcd_event_t event = { .rhport = rhport, .event_id = DCD_EVENT_BUS_RESET };
 3094              		.loc 7 203 3 view .LVU953
 3095              		.loc 7 203 15 is_stmt 0 view .LVU954
 3096 0048 0022     		movs	r2, #0
 3097 004a 0121     		movs	r1, #1
 204:lib/tinyusb/src/device/dcd.h ****   event.bus_reset.speed = speed;
 205:lib/tinyusb/src/device/dcd.h ****   dcd_event_handler(&event, in_isr);
 3098              		.loc 7 205 3 view .LVU955
 3099 004c 05A8     		add	r0, sp, #20
 203:lib/tinyusb/src/device/dcd.h ****   dcd_event_t event = { .rhport = rhport, .event_id = DCD_EVENT_BUS_RESET };
 3100              		.loc 7 203 15 view .LVU956
 3101 004e 0792     		str	r2, [sp, #28]
 3102 0050 CDE90522 		strd	r2, r2, [sp, #20]
 204:lib/tinyusb/src/device/dcd.h ****   event.bus_reset.speed = speed;
 3103              		.loc 7 204 25 view .LVU957
 3104 0054 8DF81830 		strb	r3, [sp, #24]
 203:lib/tinyusb/src/device/dcd.h ****   dcd_event_t event = { .rhport = rhport, .event_id = DCD_EVENT_BUS_RESET };
 3105              		.loc 7 203 15 view .LVU958
ARM GAS  /tmp/claude-502/ccFotbfS.s 			page 153


 3106 0058 029B     		ldr	r3, [sp, #8]
 3107              	.LVL213:
 203:lib/tinyusb/src/device/dcd.h ****   dcd_event_t event = { .rhport = rhport, .event_id = DCD_EVENT_BUS_RESET };
 3108              		.loc 7 203 15 view .LVU959
 3109 005a 8DF81510 		strb	r1, [sp, #21]
 204:lib/tinyusb/src/device/dcd.h ****   event.bus_reset.speed = speed;
 3110              		.loc 7 204 3 is_stmt 1 view .LVU960
 3111              		.loc 7 205 3 view .LVU961
 203:lib/tinyusb/src/device/dcd.h ****   dcd_event_t event = { .rhport = rhport, .event_id = DCD_EVENT_BUS_RESET };
 3112              		.loc 7 203 15 is_stmt 0 view .LVU962
 3113 005e 8DF81430 		strb	r3, [sp, #20]
 3114              		.loc 7 205 3 view .LVU963
 3115 0062 FFF7FEFF 		bl	dcd_event_handler
 3116              	.LVL214:
 3117              	.L233:
 3118              		.loc 7 205 3 view .LVU964
 3119              	.LBE485:
 3120              	.LBE484:
 3121              	.LBE483:
1148:lib/tinyusb/src/portable/synopsys/dwc2/dcd_dwc2.c ****   }
1149:lib/tinyusb/src/portable/synopsys/dwc2/dcd_dwc2.c **** 
1150:lib/tinyusb/src/portable/synopsys/dwc2/dcd_dwc2.c ****   if (int_status & GINTSTS_USBSUSP) {
 3122              		.loc 1 1150 3 is_stmt 1 view .LVU965
 3123              		.loc 1 1150 6 is_stmt 0 view .LVU966
 3124 0066 3905     		lsls	r1, r7, #20
 3125 0068 00F1D181 		bmi	.L384
1151:lib/tinyusb/src/portable/synopsys/dwc2/dcd_dwc2.c ****     dwc2->gintsts = GINTSTS_USBSUSP;
1152:lib/tinyusb/src/portable/synopsys/dwc2/dcd_dwc2.c ****     dcd_event_bus_signal(rhport, DCD_EVENT_SUSPEND, true);
1153:lib/tinyusb/src/portable/synopsys/dwc2/dcd_dwc2.c ****   }
1154:lib/tinyusb/src/portable/synopsys/dwc2/dcd_dwc2.c **** 
1155:lib/tinyusb/src/portable/synopsys/dwc2/dcd_dwc2.c ****   if (int_status & GINTSTS_WKUINT) {
 3126              		.loc 1 1155 3 is_stmt 1 view .LVU967
 3127              		.loc 1 1155 6 is_stmt 0 view .LVU968
 3128 006c 002F     		cmp	r7, #0
 3129 006e C0F2E281 		blt	.L385
 3130              	.L236:
1156:lib/tinyusb/src/portable/synopsys/dwc2/dcd_dwc2.c ****     dwc2->gintsts = GINTSTS_WKUINT;
1157:lib/tinyusb/src/portable/synopsys/dwc2/dcd_dwc2.c ****     dcd_event_bus_signal(rhport, DCD_EVENT_RESUME, true);
1158:lib/tinyusb/src/portable/synopsys/dwc2/dcd_dwc2.c ****   }
1159:lib/tinyusb/src/portable/synopsys/dwc2/dcd_dwc2.c **** 
1160:lib/tinyusb/src/portable/synopsys/dwc2/dcd_dwc2.c ****   // TODO check GINTSTS_DISCINT for disconnect detection
1161:lib/tinyusb/src/portable/synopsys/dwc2/dcd_dwc2.c ****   // if(int_status & GINTSTS_DISCINT)
1162:lib/tinyusb/src/portable/synopsys/dwc2/dcd_dwc2.c **** 
1163:lib/tinyusb/src/portable/synopsys/dwc2/dcd_dwc2.c ****   if (int_status & GINTSTS_OTGINT) {
 3131              		.loc 1 1163 3 is_stmt 1 view .LVU969
 3132              		.loc 1 1163 6 is_stmt 0 view .LVU970
 3133 0072 7A07     		lsls	r2, r7, #29
 3134 0074 04D5     		bpl	.L237
 3135              	.LBB486:
1164:lib/tinyusb/src/portable/synopsys/dwc2/dcd_dwc2.c ****     // OTG INT bit is read-only
1165:lib/tinyusb/src/portable/synopsys/dwc2/dcd_dwc2.c ****     uint32_t const otg_int = dwc2->gotgint;
 3136              		.loc 1 1165 5 is_stmt 1 view .LVU971
 3137              		.loc 1 1165 20 is_stmt 0 view .LVU972
 3138 0076 6568     		ldr	r5, [r4, #4]
 3139              	.LVL215:
1166:lib/tinyusb/src/portable/synopsys/dwc2/dcd_dwc2.c **** 
1167:lib/tinyusb/src/portable/synopsys/dwc2/dcd_dwc2.c ****     if (otg_int & GOTGINT_SEDET) {
ARM GAS  /tmp/claude-502/ccFotbfS.s 			page 154


 3140              		.loc 1 1167 5 is_stmt 1 view .LVU973
 3141              		.loc 1 1167 8 is_stmt 0 view .LVU974
 3142 0078 6B07     		lsls	r3, r5, #29
 3143 007a 00F12382 		bmi	.L386
 3144              	.L238:
1168:lib/tinyusb/src/portable/synopsys/dwc2/dcd_dwc2.c ****       dcd_event_bus_signal(rhport, DCD_EVENT_UNPLUGGED, true);
1169:lib/tinyusb/src/portable/synopsys/dwc2/dcd_dwc2.c ****     }
1170:lib/tinyusb/src/portable/synopsys/dwc2/dcd_dwc2.c **** 
1171:lib/tinyusb/src/portable/synopsys/dwc2/dcd_dwc2.c ****     dwc2->gotgint = otg_int;
 3145              		.loc 1 1171 5 is_stmt 1 view .LVU975
 3146              		.loc 1 1171 19 is_stmt 0 view .LVU976
 3147 007e 6560     		str	r5, [r4, #4]
 3148              	.LVL216:
 3149              	.L237:
 3150              		.loc 1 1171 19 view .LVU977
 3151              	.LBE486:
1172:lib/tinyusb/src/portable/synopsys/dwc2/dcd_dwc2.c ****   }
1173:lib/tinyusb/src/portable/synopsys/dwc2/dcd_dwc2.c **** 
1174:lib/tinyusb/src/portable/synopsys/dwc2/dcd_dwc2.c ****   if(int_status & GINTSTS_SOF) {
 3152              		.loc 1 1174 3 is_stmt 1 view .LVU978
 3153              		.loc 1 1174 5 is_stmt 0 view .LVU979
 3154 0080 3807     		lsls	r0, r7, #28
 3155 0082 18D5     		bpl	.L239
 3156              	.LBB489:
1175:lib/tinyusb/src/portable/synopsys/dwc2/dcd_dwc2.c ****     dwc2->gintsts = GINTSTS_SOF;
 3157              		.loc 1 1175 5 is_stmt 1 view .LVU980
 3158              		.loc 1 1175 19 is_stmt 0 view .LVU981
 3159 0084 0823     		movs	r3, #8
 3160 0086 6361     		str	r3, [r4, #20]
1176:lib/tinyusb/src/portable/synopsys/dwc2/dcd_dwc2.c ****     const uint32_t frame = (dwc2->dsts & DSTS_FNSOF) >> DSTS_FNSOF_Pos;
 3161              		.loc 1 1176 5 is_stmt 1 view .LVU982
1177:lib/tinyusb/src/portable/synopsys/dwc2/dcd_dwc2.c **** 
1178:lib/tinyusb/src/portable/synopsys/dwc2/dcd_dwc2.c ****     // Disable SOF interrupt if SOF was not explicitly enabled since SOF was used for remote wakeup
1179:lib/tinyusb/src/portable/synopsys/dwc2/dcd_dwc2.c ****     if (!_sof_en) {
 3162              		.loc 1 1179 9 is_stmt 0 view .LVU983
 3163 0088 744B     		ldr	r3, .L397+4
 3164              		.loc 1 1179 8 view .LVU984
 3165 008a 1A78     		ldrb	r2, [r3]	@ zero_extendqisi2
1176:lib/tinyusb/src/portable/synopsys/dwc2/dcd_dwc2.c ****     const uint32_t frame = (dwc2->dsts & DSTS_FNSOF) >> DSTS_FNSOF_Pos;
 3166              		.loc 1 1176 33 view .LVU985
 3167 008c D4F80838 		ldr	r3, [r4, #2056]
1176:lib/tinyusb/src/portable/synopsys/dwc2/dcd_dwc2.c ****     const uint32_t frame = (dwc2->dsts & DSTS_FNSOF) >> DSTS_FNSOF_Pos;
 3168              		.loc 1 1176 20 view .LVU986
 3169 0090 C3F30D23 		ubfx	r3, r3, #8, #14
 3170              	.LVL217:
 3171              		.loc 1 1179 5 is_stmt 1 view .LVU987
 3172              		.loc 1 1179 8 is_stmt 0 view .LVU988
 3173 0094 002A     		cmp	r2, #0
 3174 0096 00F08D80 		beq	.L387
 3175              	.L240:
1180:lib/tinyusb/src/portable/synopsys/dwc2/dcd_dwc2.c ****       dwc2->gintmsk &= ~GINTMSK_SOFM;
1181:lib/tinyusb/src/portable/synopsys/dwc2/dcd_dwc2.c ****     }
1182:lib/tinyusb/src/portable/synopsys/dwc2/dcd_dwc2.c **** 
1183:lib/tinyusb/src/portable/synopsys/dwc2/dcd_dwc2.c ****     dcd_event_sof(rhport, frame, true);
 3176              		.loc 1 1183 5 is_stmt 1 view .LVU989
 3177              	.LVL218:
 3178              	.LBB490:
ARM GAS  /tmp/claude-502/ccFotbfS.s 			page 155


 3179              	.LBI490:
 206:lib/tinyusb/src/device/dcd.h **** }
 207:lib/tinyusb/src/device/dcd.h **** 
 208:lib/tinyusb/src/device/dcd.h **** // helper to send setup received
 209:lib/tinyusb/src/device/dcd.h **** TU_ATTR_ALWAYS_INLINE static inline void dcd_event_setup_received(uint8_t rhport, uint8_t const * s
 210:lib/tinyusb/src/device/dcd.h ****   dcd_event_t event = { .rhport = rhport, .event_id = DCD_EVENT_SETUP_RECEIVED };
 211:lib/tinyusb/src/device/dcd.h ****   memcpy(&event.setup_received, setup, sizeof(tusb_control_request_t));
 212:lib/tinyusb/src/device/dcd.h **** 
 213:lib/tinyusb/src/device/dcd.h ****   dcd_event_handler(&event, in_isr);
 214:lib/tinyusb/src/device/dcd.h **** }
 215:lib/tinyusb/src/device/dcd.h **** 
 216:lib/tinyusb/src/device/dcd.h **** // helper to send transfer complete event
 217:lib/tinyusb/src/device/dcd.h **** TU_ATTR_ALWAYS_INLINE static inline void dcd_event_xfer_complete (uint8_t rhport, uint8_t ep_addr, 
 218:lib/tinyusb/src/device/dcd.h ****   dcd_event_t event = { .rhport = rhport, .event_id = DCD_EVENT_XFER_COMPLETE };
 219:lib/tinyusb/src/device/dcd.h **** 
 220:lib/tinyusb/src/device/dcd.h ****   event.xfer_complete.ep_addr = ep_addr;
 221:lib/tinyusb/src/device/dcd.h ****   event.xfer_complete.len     = xferred_bytes;
 222:lib/tinyusb/src/device/dcd.h ****   event.xfer_complete.result  = result;
 223:lib/tinyusb/src/device/dcd.h **** 
 224:lib/tinyusb/src/device/dcd.h ****   dcd_event_handler(&event, in_isr);
 225:lib/tinyusb/src/device/dcd.h **** }
 226:lib/tinyusb/src/device/dcd.h **** 
 227:lib/tinyusb/src/device/dcd.h **** TU_ATTR_ALWAYS_INLINE static inline void dcd_event_sof(uint8_t rhport, uint32_t frame_count, bool i
 3180              		.loc 7 227 42 view .LVU990
 3181              	.LBB491:
 228:lib/tinyusb/src/device/dcd.h ****   dcd_event_t event = { .rhport = rhport, .event_id = DCD_EVENT_SOF };
 3182              		.loc 7 228 3 view .LVU991
 229:lib/tinyusb/src/device/dcd.h ****   event.sof.frame_count = frame_count;
 3183              		.loc 7 229 25 is_stmt 0 view .LVU992
 3184 009a 0693     		str	r3, [sp, #24]
 228:lib/tinyusb/src/device/dcd.h ****   dcd_event_t event = { .rhport = rhport, .event_id = DCD_EVENT_SOF };
 3185              		.loc 7 228 15 view .LVU993
 3186 009c 0023     		movs	r3, #0
 3187              	.LVL219:
 230:lib/tinyusb/src/device/dcd.h ****   dcd_event_handler(&event, in_isr);
 3188              		.loc 7 230 3 view .LVU994
 3189 009e 05A8     		add	r0, sp, #20
 3190 00a0 0121     		movs	r1, #1
 228:lib/tinyusb/src/device/dcd.h ****   dcd_event_t event = { .rhport = rhport, .event_id = DCD_EVENT_SOF };
 3191              		.loc 7 228 15 view .LVU995
 3192 00a2 0593     		str	r3, [sp, #20]
 3193 00a4 0793     		str	r3, [sp, #28]
 3194 00a6 029B     		ldr	r3, [sp, #8]
 3195 00a8 8DF81430 		strb	r3, [sp, #20]
 3196 00ac 0323     		movs	r3, #3
 3197 00ae 8DF81530 		strb	r3, [sp, #21]
 229:lib/tinyusb/src/device/dcd.h ****   event.sof.frame_count = frame_count;
 3198              		.loc 7 229 3 is_stmt 1 view .LVU996
 3199              		.loc 7 230 3 view .LVU997
 3200 00b2 FFF7FEFF 		bl	dcd_event_handler
 3201              	.LVL220:
 3202              	.L239:
 3203              		.loc 7 230 3 is_stmt 0 view .LVU998
 3204              	.LBE491:
 3205              	.LBE490:
 3206              	.LBE489:
1184:lib/tinyusb/src/portable/synopsys/dwc2/dcd_dwc2.c ****   }
ARM GAS  /tmp/claude-502/ccFotbfS.s 			page 156


1185:lib/tinyusb/src/portable/synopsys/dwc2/dcd_dwc2.c **** 
1186:lib/tinyusb/src/portable/synopsys/dwc2/dcd_dwc2.c ****   // RxFIFO non-empty interrupt handling.
1187:lib/tinyusb/src/portable/synopsys/dwc2/dcd_dwc2.c ****   if (int_status & GINTSTS_RXFLVL) {
 3207              		.loc 1 1187 3 is_stmt 1 view .LVU999
 3208              		.loc 1 1187 6 is_stmt 0 view .LVU1000
 3209 00b6 F906     		lsls	r1, r7, #27
 3210 00b8 33D5     		bpl	.L241
1188:lib/tinyusb/src/portable/synopsys/dwc2/dcd_dwc2.c ****     // RXFLVL bit is read-only
1189:lib/tinyusb/src/portable/synopsys/dwc2/dcd_dwc2.c **** 
1190:lib/tinyusb/src/portable/synopsys/dwc2/dcd_dwc2.c ****     // Mask out RXFLVL while reading data from FIFO
1191:lib/tinyusb/src/portable/synopsys/dwc2/dcd_dwc2.c ****     dwc2->gintmsk &= ~GINTMSK_RXFLVLM;
 3211              		.loc 1 1191 5 is_stmt 1 view .LVU1001
 3212              		.loc 1 1191 19 is_stmt 0 view .LVU1002
 3213 00ba A369     		ldr	r3, [r4, #24]
 3214 00bc 23F01003 		bic	r3, r3, #16
 3215 00c0 A361     		str	r3, [r4, #24]
 3216              	.LBB492:
 3217              	.LBB493:
 3218              	.LBB494:
 952:lib/tinyusb/src/portable/synopsys/dwc2/dcd_dwc2.c ****         // Ring buffer
 3219              		.loc 1 952 15 view .LVU1003
 3220 00c2 674B     		ldr	r3, .L397+8
 3221              	.LVL221:
 3222              	.L260:
 952:lib/tinyusb/src/portable/synopsys/dwc2/dcd_dwc2.c ****         // Ring buffer
 3223              		.loc 1 952 15 view .LVU1004
 3224              	.LBE494:
 3225              	.LBE493:
 3226              	.LBE492:
1192:lib/tinyusb/src/portable/synopsys/dwc2/dcd_dwc2.c **** 
1193:lib/tinyusb/src/portable/synopsys/dwc2/dcd_dwc2.c ****     // Loop until all available packets were handled
1194:lib/tinyusb/src/portable/synopsys/dwc2/dcd_dwc2.c ****     do {
 3227              		.loc 1 1194 5 is_stmt 1 discriminator 1 view .LVU1005
1195:lib/tinyusb/src/portable/synopsys/dwc2/dcd_dwc2.c ****       handle_rxflvl_irq(rhport);
 3228              		.loc 1 1195 7 discriminator 1 view .LVU1006
 3229              	.LBB521:
 3230              	.LBI492:
 905:lib/tinyusb/src/portable/synopsys/dwc2/dcd_dwc2.c ****   dwc2_regs_t* dwc2 = DWC2_REG(rhport);
 3231              		.loc 1 905 13 discriminator 1 view .LVU1007
 3232              	.LBB516:
 906:lib/tinyusb/src/portable/synopsys/dwc2/dcd_dwc2.c ****   volatile uint32_t const* rx_fifo = dwc2->fifo[0];
 3233              		.loc 1 906 3 discriminator 1 view .LVU1008
 907:lib/tinyusb/src/portable/synopsys/dwc2/dcd_dwc2.c **** 
 3234              		.loc 1 907 3 discriminator 1 view .LVU1009
 910:lib/tinyusb/src/portable/synopsys/dwc2/dcd_dwc2.c ****   uint8_t const pktsts = (ctl_word & GRXSTSP_PKTSTS_Msk) >> GRXSTSP_PKTSTS_Pos;
 3235              		.loc 1 910 3 discriminator 1 view .LVU1010
 910:lib/tinyusb/src/portable/synopsys/dwc2/dcd_dwc2.c ****   uint8_t const pktsts = (ctl_word & GRXSTSP_PKTSTS_Msk) >> GRXSTSP_PKTSTS_Pos;
 3236              		.loc 1 910 18 is_stmt 0 discriminator 1 view .LVU1011
 3237 00c4 216A     		ldr	r1, [r4, #32]
 3238              	.LVL222:
 911:lib/tinyusb/src/portable/synopsys/dwc2/dcd_dwc2.c ****   uint8_t const epnum = (ctl_word & GRXSTSP_EPNUM_Msk) >> GRXSTSP_EPNUM_Pos;
 3239              		.loc 1 911 3 is_stmt 1 discriminator 1 view .LVU1012
 912:lib/tinyusb/src/portable/synopsys/dwc2/dcd_dwc2.c ****   uint16_t const bcnt = (ctl_word & GRXSTSP_BCNT_Msk) >> GRXSTSP_BCNT_Pos;
 3240              		.loc 1 912 3 discriminator 1 view .LVU1013
 912:lib/tinyusb/src/portable/synopsys/dwc2/dcd_dwc2.c ****   uint16_t const bcnt = (ctl_word & GRXSTSP_BCNT_Msk) >> GRXSTSP_BCNT_Pos;
 3241              		.loc 1 912 17 is_stmt 0 discriminator 1 view .LVU1014
 3242 00c6 01F00F05 		and	r5, r1, #15
ARM GAS  /tmp/claude-502/ccFotbfS.s 			page 157


 3243              	.LVL223:
 913:lib/tinyusb/src/portable/synopsys/dwc2/dcd_dwc2.c **** 
 3244              		.loc 1 913 3 is_stmt 1 discriminator 1 view .LVU1015
 913:lib/tinyusb/src/portable/synopsys/dwc2/dcd_dwc2.c **** 
 3245              		.loc 1 913 18 is_stmt 0 discriminator 1 view .LVU1016
 3246 00ca C1F30A18 		ubfx	r8, r1, #4, #11
 3247              	.LVL224:
 915:lib/tinyusb/src/portable/synopsys/dwc2/dcd_dwc2.c **** 
 3248              		.loc 1 915 3 is_stmt 1 discriminator 1 view .LVU1017
 928:lib/tinyusb/src/portable/synopsys/dwc2/dcd_dwc2.c ****     // Global OUT NAK: do nothing
 3249              		.loc 1 928 3 discriminator 1 view .LVU1018
 3250 00ce C1F34341 		ubfx	r1, r1, #17, #4
 3251              	.LVL225:
 928:lib/tinyusb/src/portable/synopsys/dwc2/dcd_dwc2.c ****     // Global OUT NAK: do nothing
 3252              		.loc 1 928 3 is_stmt 0 discriminator 1 view .LVU1019
 3253 00d2 0139     		subs	r1, r1, #1
 3254 00d4 0529     		cmp	r1, #5
 3255 00d6 65D8     		bhi	.L242
 3256 00d8 DFE801F0 		tbb	[pc, r1]
 3257              	.L244:
 3258 00dc 0A       		.byte	(.L248-.L244)/2
 3259 00dd 42       		.byte	(.L247-.L244)/2
 3260 00de 2B       		.byte	(.L246-.L244)/2
 3261 00df 11       		.byte	(.L245-.L244)/2
 3262 00e0 64       		.byte	(.L242-.L244)/2
 3263 00e1 03       		.byte	(.L243-.L244)/2
 3264              		.p2align 1
 3265              	.L243:
 938:lib/tinyusb/src/portable/synopsys/dwc2/dcd_dwc2.c ****       _setup_packet[1] = (*rx_fifo);
 3266              		.loc 1 938 7 is_stmt 1 view .LVU1020
 938:lib/tinyusb/src/portable/synopsys/dwc2/dcd_dwc2.c ****       _setup_packet[1] = (*rx_fifo);
 3267              		.loc 1 938 27 is_stmt 0 view .LVU1021
 3268 00e2 04F58054 		add	r4, r4, #4096
 3269              	.LVL226:
 938:lib/tinyusb/src/portable/synopsys/dwc2/dcd_dwc2.c ****       _setup_packet[1] = (*rx_fifo);
 3270              		.loc 1 938 24 view .LVU1022
 3271 00e6 5F4A     		ldr	r2, .L397+12
 938:lib/tinyusb/src/portable/synopsys/dwc2/dcd_dwc2.c ****       _setup_packet[1] = (*rx_fifo);
 3272              		.loc 1 938 27 view .LVU1023
 3273 00e8 2168     		ldr	r1, [r4]
 938:lib/tinyusb/src/portable/synopsys/dwc2/dcd_dwc2.c ****       _setup_packet[1] = (*rx_fifo);
 3274              		.loc 1 938 24 view .LVU1024
 3275 00ea 1160     		str	r1, [r2]
 939:lib/tinyusb/src/portable/synopsys/dwc2/dcd_dwc2.c ****       break;
 3276              		.loc 1 939 7 is_stmt 1 view .LVU1025
 939:lib/tinyusb/src/portable/synopsys/dwc2/dcd_dwc2.c ****       break;
 3277              		.loc 1 939 27 is_stmt 0 view .LVU1026
 3278 00ec 2168     		ldr	r1, [r4]
 939:lib/tinyusb/src/portable/synopsys/dwc2/dcd_dwc2.c ****       break;
 3279              		.loc 1 939 24 view .LVU1027
 3280 00ee 5160     		str	r1, [r2, #4]
 940:lib/tinyusb/src/portable/synopsys/dwc2/dcd_dwc2.c **** 
 3281              		.loc 1 940 7 is_stmt 1 view .LVU1028
 3282              	.LVL227:
 3283              	.L248:
 940:lib/tinyusb/src/portable/synopsys/dwc2/dcd_dwc2.c **** 
 3284              		.loc 1 940 7 is_stmt 0 view .LVU1029
ARM GAS  /tmp/claude-502/ccFotbfS.s 			page 158


 3285              	.LBE516:
 3286              	.LBE521:
1196:lib/tinyusb/src/portable/synopsys/dwc2/dcd_dwc2.c ****     } while(dwc2->gintsts & GINTSTS_RXFLVL);
 3287              		.loc 1 1196 12 is_stmt 1 view .LVU1030
 3288              		.loc 1 1196 17 is_stmt 0 view .LVU1031
 3289 00f0 DBF81420 		ldr	r2, [fp, #20]
 3290              		.loc 1 1196 5 view .LVU1032
 3291 00f4 D506     		lsls	r5, r2, #27
 3292              		.loc 1 1196 5 view .LVU1033
 3293 00f6 0ED5     		bpl	.L259
 3294              	.L388:
 3295              	.LBB522:
 3296              	.LBB517:
 906:lib/tinyusb/src/portable/synopsys/dwc2/dcd_dwc2.c ****   volatile uint32_t const* rx_fifo = dwc2->fifo[0];
 3297              		.loc 1 906 23 view .LVU1034
 3298 00f8 56F80A40 		ldr	r4, [r6, r10]
 3299 00fc E2E7     		b	.L260
 3300              	.LVL228:
 3301              	.L245:
 944:lib/tinyusb/src/portable/synopsys/dwc2/dcd_dwc2.c ****       break;
 3302              		.loc 1 944 7 is_stmt 1 view .LVU1035
 944:lib/tinyusb/src/portable/synopsys/dwc2/dcd_dwc2.c ****       break;
 3303              		.loc 1 944 23 is_stmt 0 view .LVU1036
 3304 00fe 04EB4514 		add	r4, r4, r5, lsl #5
 3305              	.LVL229:
 944:lib/tinyusb/src/portable/synopsys/dwc2/dcd_dwc2.c ****       break;
 3306              		.loc 1 944 23 view .LVU1037
 3307 0102 D4F8102B 		ldr	r2, [r4, #2832]
 3308 0106 42F0C042 		orr	r2, r2, #1610612736
 3309 010a C4F8102B 		str	r2, [r4, #2832]
 945:lib/tinyusb/src/portable/synopsys/dwc2/dcd_dwc2.c **** 
 3310              		.loc 1 945 7 is_stmt 1 view .LVU1038
 3311              	.LVL230:
 945:lib/tinyusb/src/portable/synopsys/dwc2/dcd_dwc2.c **** 
 3312              		.loc 1 945 7 is_stmt 0 view .LVU1039
 3313              	.LBE517:
 3314              	.LBE522:
 3315              		.loc 1 1196 12 is_stmt 1 view .LVU1040
 3316              		.loc 1 1196 17 is_stmt 0 view .LVU1041
 3317 010e DBF81420 		ldr	r2, [fp, #20]
 3318              		.loc 1 1196 5 view .LVU1042
 3319 0112 D506     		lsls	r5, r2, #27
 3320              		.loc 1 1196 5 view .LVU1043
 3321 0114 F0D4     		bmi	.L388
 3322              	.L259:
1197:lib/tinyusb/src/portable/synopsys/dwc2/dcd_dwc2.c **** 
1198:lib/tinyusb/src/portable/synopsys/dwc2/dcd_dwc2.c ****     dwc2->gintmsk |= GINTMSK_RXFLVLM;
 3323              		.loc 1 1198 5 is_stmt 1 view .LVU1044
 3324              		.loc 1 1198 19 is_stmt 0 view .LVU1045
 3325 0116 DBF81830 		ldr	r3, [fp, #24]
 3326 011a 43F01003 		orr	r3, r3, #16
 3327 011e CBF81830 		str	r3, [fp, #24]
 3328              	.L241:
1199:lib/tinyusb/src/portable/synopsys/dwc2/dcd_dwc2.c ****   }
1200:lib/tinyusb/src/portable/synopsys/dwc2/dcd_dwc2.c **** 
1201:lib/tinyusb/src/portable/synopsys/dwc2/dcd_dwc2.c ****   // OUT endpoint interrupt handling.
1202:lib/tinyusb/src/portable/synopsys/dwc2/dcd_dwc2.c ****   if (int_status & GINTSTS_OEPINT) {
ARM GAS  /tmp/claude-502/ccFotbfS.s 			page 159


 3329              		.loc 1 1202 3 is_stmt 1 view .LVU1046
 3330              		.loc 1 1202 6 is_stmt 0 view .LVU1047
 3331 0122 3C03     		lsls	r4, r7, #12
 3332 0124 00F10F81 		bmi	.L389
1203:lib/tinyusb/src/portable/synopsys/dwc2/dcd_dwc2.c ****     // OEPINT is read-only, clear using DOEPINTn
1204:lib/tinyusb/src/portable/synopsys/dwc2/dcd_dwc2.c ****     handle_epout_irq(rhport);
1205:lib/tinyusb/src/portable/synopsys/dwc2/dcd_dwc2.c ****   }
1206:lib/tinyusb/src/portable/synopsys/dwc2/dcd_dwc2.c **** 
1207:lib/tinyusb/src/portable/synopsys/dwc2/dcd_dwc2.c ****   // IN endpoint interrupt handling.
1208:lib/tinyusb/src/portable/synopsys/dwc2/dcd_dwc2.c ****   if (int_status & GINTSTS_IEPINT) {
 3333              		.loc 1 1208 3 is_stmt 1 view .LVU1048
 3334              		.loc 1 1208 6 is_stmt 0 view .LVU1049
 3335 0128 7C03     		lsls	r4, r7, #13
 3336 012a 48D4     		bmi	.L390
 3337              	.LVL231:
 3338              	.L225:
1209:lib/tinyusb/src/portable/synopsys/dwc2/dcd_dwc2.c ****     // IEPINT bit read-only, clear using DIEPINTn
1210:lib/tinyusb/src/portable/synopsys/dwc2/dcd_dwc2.c ****     handle_epin_irq(rhport);
1211:lib/tinyusb/src/portable/synopsys/dwc2/dcd_dwc2.c ****   }
1212:lib/tinyusb/src/portable/synopsys/dwc2/dcd_dwc2.c **** 
1213:lib/tinyusb/src/portable/synopsys/dwc2/dcd_dwc2.c ****   //  // Check for Incomplete isochronous IN transfer
1214:lib/tinyusb/src/portable/synopsys/dwc2/dcd_dwc2.c ****   //  if(int_status & GINTSTS_IISOIXFR) {
1215:lib/tinyusb/src/portable/synopsys/dwc2/dcd_dwc2.c ****   //    printf("      IISOIXFR!\r\n");
1216:lib/tinyusb/src/portable/synopsys/dwc2/dcd_dwc2.c ****   ////    TU_LOG(DWC2_DEBUG, "      IISOIXFR!\r\n");
1217:lib/tinyusb/src/portable/synopsys/dwc2/dcd_dwc2.c ****   //  }
1218:lib/tinyusb/src/portable/synopsys/dwc2/dcd_dwc2.c **** }
 3339              		.loc 1 1218 1 view .LVU1050
 3340 012c 09B0     		add	sp, sp, #36
 3341              		.cfi_remember_state
 3342              		.cfi_def_cfa_offset 36
 3343              		@ sp needed
 3344 012e BDE8F08F 		pop	{r4, r5, r6, r7, r8, r9, r10, fp, pc}
 3345              	.LVL232:
 3346              	.L246:
 3347              		.cfi_restore_state
 3348              	.LBB523:
 3349              	.LBB518:
 981:lib/tinyusb/src/portable/synopsys/dwc2/dcd_dwc2.c ****         uint32_t doepint = epout->doepint;
 3350              		.loc 1 981 7 is_stmt 1 view .LVU1051
 981:lib/tinyusb/src/portable/synopsys/dwc2/dcd_dwc2.c ****         uint32_t doepint = epout->doepint;
 3351              		.loc 1 981 10 is_stmt 0 view .LVU1052
 3352 0132 002D     		cmp	r5, #0
 3353 0134 DCD1     		bne	.L248
 3354 0136 B8F1000F 		cmp	r8, #0
 3355 013a D9D1     		bne	.L248
 981:lib/tinyusb/src/portable/synopsys/dwc2/dcd_dwc2.c ****         uint32_t doepint = epout->doepint;
 3356              		.loc 1 981 47 view .LVU1053
 3357 013c 226C     		ldr	r2, [r4, #64]
 981:lib/tinyusb/src/portable/synopsys/dwc2/dcd_dwc2.c ****         uint32_t doepint = epout->doepint;
 3358              		.loc 1 981 39 view .LVU1054
 3359 013e 4A49     		ldr	r1, .L397+16
 3360 0140 8A42     		cmp	r2, r1
 3361 0142 D5D9     		bls	.L248
 3362              	.LBB510:
 982:lib/tinyusb/src/portable/synopsys/dwc2/dcd_dwc2.c **** 
 3363              		.loc 1 982 9 is_stmt 1 view .LVU1055
 982:lib/tinyusb/src/portable/synopsys/dwc2/dcd_dwc2.c **** 
ARM GAS  /tmp/claude-502/ccFotbfS.s 			page 160


 3364              		.loc 1 982 18 is_stmt 0 view .LVU1056
 3365 0144 D4F8082B 		ldr	r2, [r4, #2824]
 3366              	.LVL233:
 984:lib/tinyusb/src/portable/synopsys/dwc2/dcd_dwc2.c ****           // skip this "no-data" transfer complete event
 3367              		.loc 1 984 9 is_stmt 1 view .LVU1057
 984:lib/tinyusb/src/portable/synopsys/dwc2/dcd_dwc2.c ****           // skip this "no-data" transfer complete event
 3368              		.loc 1 984 21 is_stmt 0 view .LVU1058
 3369 0148 48F22001 		movw	r1, #32800
 984:lib/tinyusb/src/portable/synopsys/dwc2/dcd_dwc2.c ****           // skip this "no-data" transfer complete event
 3370              		.loc 1 984 12 view .LVU1059
 3371 014c 0A42     		tst	r2, r1
 3372 014e CFD0     		beq	.L248
 3373              	.LBB511:
 987:lib/tinyusb/src/portable/synopsys/dwc2/dcd_dwc2.c **** 
 3374              		.loc 1 987 11 is_stmt 1 view .LVU1060
 3375              	.LVL234:
 989:lib/tinyusb/src/portable/synopsys/dwc2/dcd_dwc2.c **** 
 3376              		.loc 1 989 11 view .LVU1061
 989:lib/tinyusb/src/portable/synopsys/dwc2/dcd_dwc2.c **** 
 3377              		.loc 1 989 54 is_stmt 0 view .LVU1062
 3378 0150 12F0200F 		tst	r2, #32
 3379 0154 0CBF     		ite	eq
 3380 0156 0122     		moveq	r2, #1
 3381              	.LVL235:
 989:lib/tinyusb/src/portable/synopsys/dwc2/dcd_dwc2.c **** 
 3382              		.loc 1 989 54 view .LVU1063
 3383 0158 2122     		movne	r2, #33
 3384              	.LVL236:
 991:lib/tinyusb/src/portable/synopsys/dwc2/dcd_dwc2.c **** 
 3385              		.loc 1 991 11 is_stmt 1 view .LVU1064
 991:lib/tinyusb/src/portable/synopsys/dwc2/dcd_dwc2.c **** 
 3386              		.loc 1 991 26 is_stmt 0 view .LVU1065
 3387 015a C4F8082B 		str	r2, [r4, #2824]
 3388 015e C7E7     		b	.L248
 3389              	.LVL237:
 3390              	.L247:
 991:lib/tinyusb/src/portable/synopsys/dwc2/dcd_dwc2.c **** 
 3391              		.loc 1 991 26 view .LVU1066
 3392              	.LBE511:
 3393              	.LBE510:
 3394              	.LBB512:
 949:lib/tinyusb/src/portable/synopsys/dwc2/dcd_dwc2.c **** 
 3395              		.loc 1 949 7 is_stmt 1 view .LVU1067
 952:lib/tinyusb/src/portable/synopsys/dwc2/dcd_dwc2.c ****         // Ring buffer
 3396              		.loc 1 952 7 view .LVU1068
 952:lib/tinyusb/src/portable/synopsys/dwc2/dcd_dwc2.c ****         // Ring buffer
 3397              		.loc 1 952 15 is_stmt 0 view .LVU1069
 3398 0160 03EB4512 		add	r2, r3, r5, lsl #5
 3399 0164 4FEA4519 		lsl	r9, r5, #5
 3400 0168 5068     		ldr	r0, [r2, #4]
 952:lib/tinyusb/src/portable/synopsys/dwc2/dcd_dwc2.c ****         // Ring buffer
 3401              		.loc 1 952 10 view .LVU1070
 3402 016a 0028     		cmp	r0, #0
 3403 016c 00F07C81 		beq	.L249
 954:lib/tinyusb/src/portable/synopsys/dwc2/dcd_dwc2.c ****       } else {
 3404              		.loc 1 954 9 is_stmt 1 view .LVU1071
 3405 0170 4246     		mov	r2, r8
ARM GAS  /tmp/claude-502/ccFotbfS.s 			page 161


 3406 0172 04F58051 		add	r1, r4, #4096
 3407 0176 FFF7FEFF 		bl	tu_fifo_write_n_const_addr_full_words
 3408              	.LVL238:
 3409 017a 394B     		ldr	r3, .L397+8
 3410              	.L250:
 964:lib/tinyusb/src/portable/synopsys/dwc2/dcd_dwc2.c ****         xfer->total_len -= (epout->doeptsiz & DOEPTSIZ_XFRSIZ_Msk) >> DOEPTSIZ_XFRSIZ_Pos;
 3411              		.loc 1 964 7 view .LVU1072
 964:lib/tinyusb/src/portable/synopsys/dwc2/dcd_dwc2.c ****         xfer->total_len -= (epout->doeptsiz & DOEPTSIZ_XFRSIZ_Msk) >> DOEPTSIZ_XFRSIZ_Pos;
 3412              		.loc 1 964 22 is_stmt 0 view .LVU1073
 3413 017c 03EB0901 		add	r1, r3, r9
 964:lib/tinyusb/src/portable/synopsys/dwc2/dcd_dwc2.c ****         xfer->total_len -= (epout->doeptsiz & DOEPTSIZ_XFRSIZ_Msk) >> DOEPTSIZ_XFRSIZ_Pos;
 3414              		.loc 1 964 10 view .LVU1074
 3415 0180 4A89     		ldrh	r2, [r1, #10]
 3416 0182 4245     		cmp	r2, r8
 3417 0184 B4D9     		bls	.L248
 965:lib/tinyusb/src/portable/synopsys/dwc2/dcd_dwc2.c ****         if (epnum == 0) {
 3418              		.loc 1 965 9 is_stmt 1 view .LVU1075
 965:lib/tinyusb/src/portable/synopsys/dwc2/dcd_dwc2.c ****         if (epnum == 0) {
 3419              		.loc 1 965 34 is_stmt 0 view .LVU1076
 3420 0186 4C44     		add	r4, r4, r9
 3421              	.LVL239:
 965:lib/tinyusb/src/portable/synopsys/dwc2/dcd_dwc2.c ****         if (epnum == 0) {
 3422              		.loc 1 965 25 view .LVU1077
 3423 0188 0A89     		ldrh	r2, [r1, #8]
 965:lib/tinyusb/src/portable/synopsys/dwc2/dcd_dwc2.c ****         if (epnum == 0) {
 3424              		.loc 1 965 34 view .LVU1078
 3425 018a D4F8100B 		ldr	r0, [r4, #2832]
 965:lib/tinyusb/src/portable/synopsys/dwc2/dcd_dwc2.c ****         if (epnum == 0) {
 3426              		.loc 1 965 25 view .LVU1079
 3427 018e 121A     		subs	r2, r2, r0
 3428 0190 92B2     		uxth	r2, r2
 3429 0192 0A81     		strh	r2, [r1, #8]	@ movhi
 966:lib/tinyusb/src/portable/synopsys/dwc2/dcd_dwc2.c ****           xfer->total_len -= ep0_pending[TUSB_DIR_OUT];
 3430              		.loc 1 966 9 is_stmt 1 view .LVU1080
 966:lib/tinyusb/src/portable/synopsys/dwc2/dcd_dwc2.c ****           xfer->total_len -= ep0_pending[TUSB_DIR_OUT];
 3431              		.loc 1 966 12 is_stmt 0 view .LVU1081
 3432 0194 002D     		cmp	r5, #0
 3433 0196 ABD1     		bne	.L248
 967:lib/tinyusb/src/portable/synopsys/dwc2/dcd_dwc2.c ****           ep0_pending[TUSB_DIR_OUT] = 0;
 3434              		.loc 1 967 11 is_stmt 1 view .LVU1082
 967:lib/tinyusb/src/portable/synopsys/dwc2/dcd_dwc2.c ****           ep0_pending[TUSB_DIR_OUT] = 0;
 3435              		.loc 1 967 27 is_stmt 0 view .LVU1083
 3436 0198 3448     		ldr	r0, .L397+20
 3437 019a 0188     		ldrh	r1, [r0]
 968:lib/tinyusb/src/portable/synopsys/dwc2/dcd_dwc2.c ****         }
 3438              		.loc 1 968 37 view .LVU1084
 3439 019c 0580     		strh	r5, [r0]	@ movhi
 967:lib/tinyusb/src/portable/synopsys/dwc2/dcd_dwc2.c ****           ep0_pending[TUSB_DIR_OUT] = 0;
 3440              		.loc 1 967 27 view .LVU1085
 3441 019e 521A     		subs	r2, r2, r1
 3442 01a0 1A81     		strh	r2, [r3, #8]	@ movhi
 968:lib/tinyusb/src/portable/synopsys/dwc2/dcd_dwc2.c ****         }
 3443              		.loc 1 968 11 is_stmt 1 view .LVU1086
 3444 01a2 A5E7     		b	.L248
 3445              	.LVL240:
 3446              	.L242:
 968:lib/tinyusb/src/portable/synopsys/dwc2/dcd_dwc2.c ****         }
ARM GAS  /tmp/claude-502/ccFotbfS.s 			page 162


 3447              		.loc 1 968 11 is_stmt 0 view .LVU1087
 3448              	.LBE512:
 999:lib/tinyusb/src/portable/synopsys/dwc2/dcd_dwc2.c ****       break;
 3449              		.loc 1 999 7 is_stmt 1 view .LVU1088
 3450              	.LBB513:
 999:lib/tinyusb/src/portable/synopsys/dwc2/dcd_dwc2.c ****       break;
 3451              		.loc 1 999 7 view .LVU1089
 999:lib/tinyusb/src/portable/synopsys/dwc2/dcd_dwc2.c ****       break;
 3452              		.loc 1 999 7 view .LVU1090
 3453 01a4 4FF0E022 		mov	r2, #-536813568
 3454 01a8 D2F8F02D 		ldr	r2, [r2, #3568]
 3455 01ac D207     		lsls	r2, r2, #31
 3456 01ae 9FD5     		bpl	.L248
 999:lib/tinyusb/src/portable/synopsys/dwc2/dcd_dwc2.c ****       break;
 3457              		.loc 1 999 7 view .LVU1091
 3458              		.syntax unified
 3459              	@ 999 "lib/tinyusb/src/portable/synopsys/dwc2/dcd_dwc2.c" 1
 3460 01b0 00BE     		BKPT #0
 3461              	
 3462              	@ 0 "" 2
 3463              		.thumb
 3464              		.syntax unified
 3465 01b2 9DE7     		b	.L248
 3466              	.LVL241:
 3467              	.L387:
 999:lib/tinyusb/src/portable/synopsys/dwc2/dcd_dwc2.c ****       break;
 3468              		.loc 1 999 7 is_stmt 0 view .LVU1092
 3469              	.LBE513:
 3470              	.LBE518:
 3471              	.LBE523:
 3472              	.LBB524:
1180:lib/tinyusb/src/portable/synopsys/dwc2/dcd_dwc2.c ****     }
 3473              		.loc 1 1180 7 is_stmt 1 view .LVU1093
1180:lib/tinyusb/src/portable/synopsys/dwc2/dcd_dwc2.c ****     }
 3474              		.loc 1 1180 21 is_stmt 0 view .LVU1094
 3475 01b4 A269     		ldr	r2, [r4, #24]
 3476 01b6 22F00802 		bic	r2, r2, #8
 3477 01ba A261     		str	r2, [r4, #24]
 3478 01bc 6DE7     		b	.L240
 3479              	.LVL242:
 3480              	.L390:
1180:lib/tinyusb/src/portable/synopsys/dwc2/dcd_dwc2.c ****     }
 3481              		.loc 1 1180 21 view .LVU1095
 3482              	.LBE524:
1210:lib/tinyusb/src/portable/synopsys/dwc2/dcd_dwc2.c ****   }
 3483              		.loc 1 1210 5 is_stmt 1 view .LVU1096
 3484              	.LBB525:
 3485              	.LBI525:
1047:lib/tinyusb/src/portable/synopsys/dwc2/dcd_dwc2.c ****   dwc2_regs_t* dwc2 = DWC2_REG(rhport);
 3486              		.loc 1 1047 13 view .LVU1097
 3487              	.LBB526:
1048:lib/tinyusb/src/portable/synopsys/dwc2/dcd_dwc2.c ****   uint8_t const ep_count = _dwc2_controller[rhport].ep_count;
 3488              		.loc 1 1048 3 view .LVU1098
1048:lib/tinyusb/src/portable/synopsys/dwc2/dcd_dwc2.c ****   uint8_t const ep_count = _dwc2_controller[rhport].ep_count;
 3489              		.loc 1 1048 23 is_stmt 0 view .LVU1099
 3490 01be 06EB0A03 		add	r3, r6, r10
1048:lib/tinyusb/src/portable/synopsys/dwc2/dcd_dwc2.c ****   uint8_t const ep_count = _dwc2_controller[rhport].ep_count;
ARM GAS  /tmp/claude-502/ccFotbfS.s 			page 163


 3491              		.loc 1 1048 16 view .LVU1100
 3492 01c2 56F80A60 		ldr	r6, [r6, r10]
 3493              	.LVL243:
1049:lib/tinyusb/src/portable/synopsys/dwc2/dcd_dwc2.c ****   dwc2_epin_t* epin = dwc2->epin;
 3494              		.loc 1 1049 3 is_stmt 1 view .LVU1101
1049:lib/tinyusb/src/portable/synopsys/dwc2/dcd_dwc2.c ****   dwc2_epin_t* epin = dwc2->epin;
 3495              		.loc 1 1049 17 is_stmt 0 view .LVU1102
 3496 01c6 93F808A0 		ldrb	r10, [r3, #8]	@ zero_extendqisi2
 3497              	.LVL244:
1050:lib/tinyusb/src/portable/synopsys/dwc2/dcd_dwc2.c **** 
 3498              		.loc 1 1050 3 is_stmt 1 view .LVU1103
1050:lib/tinyusb/src/portable/synopsys/dwc2/dcd_dwc2.c **** 
 3499              		.loc 1 1050 16 is_stmt 0 view .LVU1104
 3500 01ca 06F51064 		add	r4, r6, #2304
 3501              	.LVL245:
1054:lib/tinyusb/src/portable/synopsys/dwc2/dcd_dwc2.c ****     if (dwc2->daint & TU_BIT(DAINT_IEPINT_Pos + n)) {
 3502              		.loc 1 1054 3 is_stmt 1 view .LVU1105
 3503              	.LBB527:
1054:lib/tinyusb/src/portable/synopsys/dwc2/dcd_dwc2.c ****     if (dwc2->daint & TU_BIT(DAINT_IEPINT_Pos + n)) {
 3504              		.loc 1 1054 8 view .LVU1106
1054:lib/tinyusb/src/portable/synopsys/dwc2/dcd_dwc2.c ****     if (dwc2->daint & TU_BIT(DAINT_IEPINT_Pos + n)) {
 3505              		.loc 1 1054 23 view .LVU1107
1054:lib/tinyusb/src/portable/synopsys/dwc2/dcd_dwc2.c ****     if (dwc2->daint & TU_BIT(DAINT_IEPINT_Pos + n)) {
 3506              		.loc 1 1054 3 is_stmt 0 view .LVU1108
 3507 01ce BAF1000F 		cmp	r10, #0
 3508 01d2 ABD0     		beq	.L225
 3509              	.LVL246:
 3510              	.L291:
1054:lib/tinyusb/src/portable/synopsys/dwc2/dcd_dwc2.c ****     if (dwc2->daint & TU_BIT(DAINT_IEPINT_Pos + n)) {
 3511              		.loc 1 1054 3 view .LVU1109
 3512              	.LBE527:
 3513              	.LBE526:
 3514              	.LBE525:
 3515              	.LBB570:
 3516              	.LBB571:
 3517              	.LBB572:
 3518              	.LBB573:
 3519              	.LBB574:
1022:lib/tinyusb/src/portable/synopsys/dwc2/dcd_dwc2.c ****         }
 3520              		.loc 1 1022 22 view .LVU1110
 3521 01d4 0025     		movs	r5, #0
 3522 01d6 DFF88880 		ldr	r8, .L397+8
 3523 01da 06F58057 		add	r7, r6, #4096
 3524 01de 2A46     		mov	r2, r5
 3525              	.LVL247:
 3526              	.L290:
1022:lib/tinyusb/src/portable/synopsys/dwc2/dcd_dwc2.c ****         }
 3527              		.loc 1 1022 22 view .LVU1111
 3528              	.LBE574:
 3529              	.LBE573:
 3530              	.LBE572:
 3531              	.LBE571:
 3532              	.LBE570:
 3533              	.LBB598:
 3534              	.LBB566:
 3535              	.LBB562:
1055:lib/tinyusb/src/portable/synopsys/dwc2/dcd_dwc2.c ****       // IN XFER complete (entire xfer).
ARM GAS  /tmp/claude-502/ccFotbfS.s 			page 164


 3536              		.loc 1 1055 5 is_stmt 1 view .LVU1112
1055:lib/tinyusb/src/portable/synopsys/dwc2/dcd_dwc2.c ****       // IN XFER complete (entire xfer).
 3537              		.loc 1 1055 13 is_stmt 0 view .LVU1113
 3538 01e0 D6F81838 		ldr	r3, [r6, #2072]
1055:lib/tinyusb/src/portable/synopsys/dwc2/dcd_dwc2.c ****       // IN XFER complete (entire xfer).
 3539              		.loc 1 1055 9 view .LVU1114
 3540 01e4 EB40     		lsrs	r3, r3, r5
1055:lib/tinyusb/src/portable/synopsys/dwc2/dcd_dwc2.c ****       // IN XFER complete (entire xfer).
 3541              		.loc 1 1055 8 view .LVU1115
 3542 01e6 D807     		lsls	r0, r3, #31
 3543 01e8 29D5     		bpl	.L274
 3544              	.LBB528:
1057:lib/tinyusb/src/portable/synopsys/dwc2/dcd_dwc2.c **** 
 3545              		.loc 1 1057 7 is_stmt 1 view .LVU1116
 3546              	.LVL248:
1059:lib/tinyusb/src/portable/synopsys/dwc2/dcd_dwc2.c ****         epin[n].diepint = DIEPINT_XFRC;
 3547              		.loc 1 1059 7 view .LVU1117
1059:lib/tinyusb/src/portable/synopsys/dwc2/dcd_dwc2.c ****         epin[n].diepint = DIEPINT_XFRC;
 3548              		.loc 1 1059 18 is_stmt 0 view .LVU1118
 3549 01ea A368     		ldr	r3, [r4, #8]
1059:lib/tinyusb/src/portable/synopsys/dwc2/dcd_dwc2.c ****         epin[n].diepint = DIEPINT_XFRC;
 3550              		.loc 1 1059 10 view .LVU1119
 3551 01ec D907     		lsls	r1, r3, #31
 3552 01ee 1BD5     		bpl	.L275
1060:lib/tinyusb/src/portable/synopsys/dwc2/dcd_dwc2.c **** 
 3553              		.loc 1 1060 9 is_stmt 1 view .LVU1120
1060:lib/tinyusb/src/portable/synopsys/dwc2/dcd_dwc2.c **** 
 3554              		.loc 1 1060 25 is_stmt 0 view .LVU1121
 3555 01f0 0123     		movs	r3, #1
 3556 01f2 A360     		str	r3, [r4, #8]
1063:lib/tinyusb/src/portable/synopsys/dwc2/dcd_dwc2.c ****           // Schedule another packet to be transmitted.
 3557              		.loc 1 1063 9 is_stmt 1 view .LVU1122
1063:lib/tinyusb/src/portable/synopsys/dwc2/dcd_dwc2.c ****           // Schedule another packet to be transmitted.
 3558              		.loc 1 1063 12 is_stmt 0 view .LVU1123
 3559 01f4 25B9     		cbnz	r5, .L276
1063:lib/tinyusb/src/portable/synopsys/dwc2/dcd_dwc2.c ****           // Schedule another packet to be transmitted.
 3560              		.loc 1 1063 36 view .LVU1124
 3561 01f6 1D4B     		ldr	r3, .L397+20
 3562 01f8 5B88     		ldrh	r3, [r3, #2]
1063:lib/tinyusb/src/portable/synopsys/dwc2/dcd_dwc2.c ****           // Schedule another packet to be transmitted.
 3563              		.loc 1 1063 22 view .LVU1125
 3564 01fa 002B     		cmp	r3, #0
 3565 01fc 40F0D081 		bne	.L391
 3566              	.L276:
1067:lib/tinyusb/src/portable/synopsys/dwc2/dcd_dwc2.c ****         }
 3567              		.loc 1 1067 11 is_stmt 1 view .LVU1126
 3568              	.LBB529:
 3569              	.LBB530:
 218:lib/tinyusb/src/device/dcd.h **** 
 3570              		.loc 7 218 15 is_stmt 0 view .LVU1127
 3571 0200 0023     		movs	r3, #0
 3572              	.LBE530:
 3573              	.LBE529:
1067:lib/tinyusb/src/portable/synopsys/dwc2/dcd_dwc2.c ****         }
 3574              		.loc 1 1067 11 view .LVU1128
 3575 0202 62F07F02 		orn	r2, r2, #127
 3576              	.LBB533:
ARM GAS  /tmp/claude-502/ccFotbfS.s 			page 165


 3577              	.LBB531:
 224:lib/tinyusb/src/device/dcd.h **** }
 3578              		.loc 7 224 3 view .LVU1129
 3579 0206 05A8     		add	r0, sp, #20
 3580 0208 0121     		movs	r1, #1
 218:lib/tinyusb/src/device/dcd.h **** 
 3581              		.loc 7 218 15 view .LVU1130
 3582 020a CDE90533 		strd	r3, r3, [sp, #20]
 3583 020e 029B     		ldr	r3, [sp, #8]
 220:lib/tinyusb/src/device/dcd.h ****   event.xfer_complete.len     = xferred_bytes;
 3584              		.loc 7 220 31 view .LVU1131
 3585 0210 8DF81820 		strb	r2, [sp, #24]
 218:lib/tinyusb/src/device/dcd.h **** 
 3586              		.loc 7 218 15 view .LVU1132
 3587 0214 8DF81430 		strb	r3, [sp, #20]
 3588              	.LBE531:
 3589              	.LBE533:
1067:lib/tinyusb/src/portable/synopsys/dwc2/dcd_dwc2.c ****         }
 3590              		.loc 1 1067 11 view .LVU1133
 3591 0218 B8F81830 		ldrh	r3, [r8, #24]
 3592              	.LVL249:
 3593              	.LBB534:
 3594              	.LBI529:
 217:lib/tinyusb/src/device/dcd.h ****   dcd_event_t event = { .rhport = rhport, .event_id = DCD_EVENT_XFER_COMPLETE };
 3595              		.loc 7 217 42 is_stmt 1 view .LVU1134
 3596              	.LBB532:
 218:lib/tinyusb/src/device/dcd.h **** 
 3597              		.loc 7 218 3 view .LVU1135
 221:lib/tinyusb/src/device/dcd.h ****   event.xfer_complete.result  = result;
 3598              		.loc 7 221 31 is_stmt 0 view .LVU1136
 3599 021c 0793     		str	r3, [sp, #28]
 218:lib/tinyusb/src/device/dcd.h **** 
 3600              		.loc 7 218 15 view .LVU1137
 3601 021e 0723     		movs	r3, #7
 3602              	.LVL250:
 218:lib/tinyusb/src/device/dcd.h **** 
 3603              		.loc 7 218 15 view .LVU1138
 3604 0220 8DF81530 		strb	r3, [sp, #21]
 220:lib/tinyusb/src/device/dcd.h ****   event.xfer_complete.len     = xferred_bytes;
 3605              		.loc 7 220 3 is_stmt 1 view .LVU1139
 221:lib/tinyusb/src/device/dcd.h ****   event.xfer_complete.result  = result;
 3606              		.loc 7 221 3 view .LVU1140
 222:lib/tinyusb/src/device/dcd.h **** 
 3607              		.loc 7 222 3 view .LVU1141
 224:lib/tinyusb/src/device/dcd.h **** }
 3608              		.loc 7 224 3 view .LVU1142
 3609 0224 FFF7FEFF 		bl	dcd_event_handler
 3610              	.LVL251:
 3611              	.L275:
 224:lib/tinyusb/src/device/dcd.h **** }
 3612              		.loc 7 224 3 is_stmt 0 view .LVU1143
 3613              	.LBE532:
 3614              	.LBE534:
1072:lib/tinyusb/src/portable/synopsys/dwc2/dcd_dwc2.c ****         // diepint's TXFE bit is read-only, software cannot clear it.
 3615              		.loc 1 1072 7 is_stmt 1 view .LVU1144
1072:lib/tinyusb/src/portable/synopsys/dwc2/dcd_dwc2.c ****         // diepint's TXFE bit is read-only, software cannot clear it.
 3616              		.loc 1 1072 19 is_stmt 0 view .LVU1145
ARM GAS  /tmp/claude-502/ccFotbfS.s 			page 166


 3617 0228 A368     		ldr	r3, [r4, #8]
1072:lib/tinyusb/src/portable/synopsys/dwc2/dcd_dwc2.c ****         // diepint's TXFE bit is read-only, software cannot clear it.
 3618              		.loc 1 1072 10 view .LVU1146
 3619 022a 1A06     		lsls	r2, r3, #24
 3620 022c 07D5     		bpl	.L274
1072:lib/tinyusb/src/portable/synopsys/dwc2/dcd_dwc2.c ****         // diepint's TXFE bit is read-only, software cannot clear it.
 3621              		.loc 1 1072 70 view .LVU1147
 3622 022e 0122     		movs	r2, #1
1072:lib/tinyusb/src/portable/synopsys/dwc2/dcd_dwc2.c ****         // diepint's TXFE bit is read-only, software cannot clear it.
 3623              		.loc 1 1072 52 view .LVU1148
 3624 0230 D6F83438 		ldr	r3, [r6, #2100]
1072:lib/tinyusb/src/portable/synopsys/dwc2/dcd_dwc2.c ****         // diepint's TXFE bit is read-only, software cannot clear it.
 3625              		.loc 1 1072 70 view .LVU1149
 3626 0234 AA40     		lsls	r2, r2, r5
1072:lib/tinyusb/src/portable/synopsys/dwc2/dcd_dwc2.c ****         // diepint's TXFE bit is read-only, software cannot clear it.
 3627              		.loc 1 1072 44 view .LVU1150
 3628 0236 1A42     		tst	r2, r3
1072:lib/tinyusb/src/portable/synopsys/dwc2/dcd_dwc2.c ****         // diepint's TXFE bit is read-only, software cannot clear it.
 3629              		.loc 1 1072 70 view .LVU1151
 3630 0238 0392     		str	r2, [sp, #12]
1072:lib/tinyusb/src/portable/synopsys/dwc2/dcd_dwc2.c ****         // diepint's TXFE bit is read-only, software cannot clear it.
 3631              		.loc 1 1072 44 view .LVU1152
 3632 023a 40F05281 		bne	.L392
 3633              	.LVL252:
 3634              	.L274:
1072:lib/tinyusb/src/portable/synopsys/dwc2/dcd_dwc2.c ****         // diepint's TXFE bit is read-only, software cannot clear it.
 3635              		.loc 1 1072 44 view .LVU1153
 3636              	.LBE528:
1054:lib/tinyusb/src/portable/synopsys/dwc2/dcd_dwc2.c ****     if (dwc2->daint & TU_BIT(DAINT_IEPINT_Pos + n)) {
 3637              		.loc 1 1054 37 is_stmt 1 view .LVU1154
1054:lib/tinyusb/src/portable/synopsys/dwc2/dcd_dwc2.c ****     if (dwc2->daint & TU_BIT(DAINT_IEPINT_Pos + n)) {
 3638              		.loc 1 1054 23 view .LVU1155
1054:lib/tinyusb/src/portable/synopsys/dwc2/dcd_dwc2.c ****     if (dwc2->daint & TU_BIT(DAINT_IEPINT_Pos + n)) {
 3639              		.loc 1 1054 3 is_stmt 0 view .LVU1156
 3640 023e 0135     		adds	r5, r5, #1
 3641              	.LVL253:
1054:lib/tinyusb/src/portable/synopsys/dwc2/dcd_dwc2.c ****     if (dwc2->daint & TU_BIT(DAINT_IEPINT_Pos + n)) {
 3642              		.loc 1 1054 3 view .LVU1157
 3643 0240 2034     		adds	r4, r4, #32
 3644 0242 08F12008 		add	r8, r8, #32
 3645 0246 07F58057 		add	r7, r7, #4096
 3646 024a EAB2     		uxtb	r2, r5
 3647 024c 5245     		cmp	r2, r10
 3648 024e C7D3     		bcc	.L290
 3649              	.LBE562:
 3650              	.LBE566:
 3651              	.LBE598:
 3652              		.loc 1 1218 1 view .LVU1158
 3653 0250 09B0     		add	sp, sp, #36
 3654              		.cfi_remember_state
 3655              		.cfi_def_cfa_offset 36
 3656              		@ sp needed
 3657 0252 BDE8F08F 		pop	{r4, r5, r6, r7, r8, r9, r10, fp, pc}
 3658              	.LVL254:
 3659              	.L398:
 3660              		.loc 1 1218 1 view .LVU1159
 3661 0256 00BF     		.align	2
ARM GAS  /tmp/claude-502/ccFotbfS.s 			page 167


 3662              	.L397:
 3663 0258 00000000 		.word	.LANCHOR0
 3664 025c 00000000 		.word	.LANCHOR4
 3665 0260 00000000 		.word	.LANCHOR2
 3666 0264 00000000 		.word	.LANCHOR5
 3667 0268 0930544F 		.word	1330917385
 3668 026c 00000000 		.word	.LANCHOR3
 3669              	.LVL255:
 3670              	.L383:
 3671              		.cfi_restore_state
1120:lib/tinyusb/src/portable/synopsys/dwc2/dcd_dwc2.c ****     bus_reset(rhport);
 3672              		.loc 1 1120 5 is_stmt 1 view .LVU1160
1120:lib/tinyusb/src/portable/synopsys/dwc2/dcd_dwc2.c ****     bus_reset(rhport);
 3673              		.loc 1 1120 19 is_stmt 0 view .LVU1161
 3674 0270 4FF48053 		mov	r3, #4096
 3675              	.LVL256:
 3676              	.LBB599:
 3677              	.LBB600:
 269:lib/tinyusb/src/portable/synopsys/dwc2/dcd_dwc2.c **** 
 3678              		.loc 1 269 17 view .LVU1162
 3679 0274 157A     		ldrb	r5, [r2, #8]	@ zero_extendqisi2
 271:lib/tinyusb/src/portable/synopsys/dwc2/dcd_dwc2.c **** 
 3680              		.loc 1 271 3 view .LVU1163
 3681 0276 0021     		movs	r1, #0
 3682 0278 4FF49072 		mov	r2, #288
 3683              	.LBE600:
 3684              	.LBE599:
1120:lib/tinyusb/src/portable/synopsys/dwc2/dcd_dwc2.c ****     bus_reset(rhport);
 3685              		.loc 1 1120 19 view .LVU1164
 3686 027c 6361     		str	r3, [r4, #20]
1121:lib/tinyusb/src/portable/synopsys/dwc2/dcd_dwc2.c ****   }
 3687              		.loc 1 1121 5 is_stmt 1 view .LVU1165
 3688              	.LVL257:
 3689              	.LBB616:
 3690              	.LBI599:
 267:lib/tinyusb/src/portable/synopsys/dwc2/dcd_dwc2.c ****   dwc2_regs_t* dwc2 = DWC2_REG(rhport);
 3691              		.loc 1 267 13 view .LVU1166
 3692              	.LBB615:
 268:lib/tinyusb/src/portable/synopsys/dwc2/dcd_dwc2.c ****   uint8_t const ep_count = _dwc2_controller[rhport].ep_count;
 3693              		.loc 1 268 3 view .LVU1167
 269:lib/tinyusb/src/portable/synopsys/dwc2/dcd_dwc2.c **** 
 3694              		.loc 1 269 3 view .LVU1168
 271:lib/tinyusb/src/portable/synopsys/dwc2/dcd_dwc2.c **** 
 3695              		.loc 1 271 3 view .LVU1169
 3696 027e BA48     		ldr	r0, .L399
 3697              	.LVL258:
 271:lib/tinyusb/src/portable/synopsys/dwc2/dcd_dwc2.c **** 
 3698              		.loc 1 271 3 is_stmt 0 view .LVU1170
 3699 0280 FFF7FEFF 		bl	memset
 3700              	.LVL259:
 273:lib/tinyusb/src/portable/synopsys/dwc2/dcd_dwc2.c **** 
 3701              		.loc 1 273 3 is_stmt 1 view .LVU1171
 276:lib/tinyusb/src/portable/synopsys/dwc2/dcd_dwc2.c **** 
 3702              		.loc 1 276 14 is_stmt 0 view .LVU1172
 3703 0284 D4F80038 		ldr	r3, [r4, #2048]
 273:lib/tinyusb/src/portable/synopsys/dwc2/dcd_dwc2.c **** 
 3704              		.loc 1 273 11 view .LVU1173
ARM GAS  /tmp/claude-502/ccFotbfS.s 			page 168


 3705 0288 B84A     		ldr	r2, .L399+4
 276:lib/tinyusb/src/portable/synopsys/dwc2/dcd_dwc2.c **** 
 3706              		.loc 1 276 14 view .LVU1174
 3707 028a 23F4FE63 		bic	r3, r3, #2032
 3708 028e C4F80038 		str	r3, [r4, #2048]
 273:lib/tinyusb/src/portable/synopsys/dwc2/dcd_dwc2.c **** 
 3709              		.loc 1 273 11 view .LVU1175
 3710 0292 0023     		movs	r3, #0
 3711 0294 1370     		strb	r3, [r2]
 276:lib/tinyusb/src/portable/synopsys/dwc2/dcd_dwc2.c **** 
 3712              		.loc 1 276 3 is_stmt 1 view .LVU1176
 279:lib/tinyusb/src/portable/synopsys/dwc2/dcd_dwc2.c ****     dwc2->epout[n].doepctl |= DOEPCTL_SNAK;
 3713              		.loc 1 279 3 view .LVU1177
 3714              	.LBB601:
 279:lib/tinyusb/src/portable/synopsys/dwc2/dcd_dwc2.c ****     dwc2->epout[n].doepctl |= DOEPCTL_SNAK;
 3715              		.loc 1 279 8 view .LVU1178
 3716              	.LVL260:
 279:lib/tinyusb/src/portable/synopsys/dwc2/dcd_dwc2.c ****     dwc2->epout[n].doepctl |= DOEPCTL_SNAK;
 3717              		.loc 1 279 23 view .LVU1179
 279:lib/tinyusb/src/portable/synopsys/dwc2/dcd_dwc2.c ****     dwc2->epout[n].doepctl |= DOEPCTL_SNAK;
 3718              		.loc 1 279 3 is_stmt 0 view .LVU1180
 3719 0296 E5B1     		cbz	r5, .L231
 3720              	.LVL261:
 3721              	.L227:
 280:lib/tinyusb/src/portable/synopsys/dwc2/dcd_dwc2.c ****   }
 3722              		.loc 1 280 5 is_stmt 1 view .LVU1181
 3723 0298 04EB4311 		add	r1, r4, r3, lsl #5
 279:lib/tinyusb/src/portable/synopsys/dwc2/dcd_dwc2.c ****     dwc2->epout[n].doepctl |= DOEPCTL_SNAK;
 3724              		.loc 1 279 3 is_stmt 0 view .LVU1182
 3725 029c 0133     		adds	r3, r3, #1
 3726              	.LVL262:
 280:lib/tinyusb/src/portable/synopsys/dwc2/dcd_dwc2.c ****   }
 3727              		.loc 1 280 28 view .LVU1183
 3728 029e D1F8002B 		ldr	r2, [r1, #2816]
 279:lib/tinyusb/src/portable/synopsys/dwc2/dcd_dwc2.c ****     dwc2->epout[n].doepctl |= DOEPCTL_SNAK;
 3729              		.loc 1 279 3 view .LVU1184
 3730 02a2 D8B2     		uxtb	r0, r3
 280:lib/tinyusb/src/portable/synopsys/dwc2/dcd_dwc2.c ****   }
 3731              		.loc 1 280 28 view .LVU1185
 3732 02a4 42F00062 		orr	r2, r2, #134217728
 279:lib/tinyusb/src/portable/synopsys/dwc2/dcd_dwc2.c ****     dwc2->epout[n].doepctl |= DOEPCTL_SNAK;
 3733              		.loc 1 279 3 view .LVU1186
 3734 02a8 8542     		cmp	r5, r0
 280:lib/tinyusb/src/portable/synopsys/dwc2/dcd_dwc2.c ****   }
 3735              		.loc 1 280 28 view .LVU1187
 3736 02aa C1F8002B 		str	r2, [r1, #2816]
 279:lib/tinyusb/src/portable/synopsys/dwc2/dcd_dwc2.c ****     dwc2->epout[n].doepctl |= DOEPCTL_SNAK;
 3737              		.loc 1 279 37 is_stmt 1 view .LVU1188
 279:lib/tinyusb/src/portable/synopsys/dwc2/dcd_dwc2.c ****     dwc2->epout[n].doepctl |= DOEPCTL_SNAK;
 3738              		.loc 1 279 23 view .LVU1189
 279:lib/tinyusb/src/portable/synopsys/dwc2/dcd_dwc2.c ****     dwc2->epout[n].doepctl |= DOEPCTL_SNAK;
 3739              		.loc 1 279 3 is_stmt 0 view .LVU1190
 3740 02ae F3D8     		bhi	.L227
 3741 02b0 0023     		movs	r3, #0
 3742              	.L230:
 3743              	.LVL263:
 279:lib/tinyusb/src/portable/synopsys/dwc2/dcd_dwc2.c ****     dwc2->epout[n].doepctl |= DOEPCTL_SNAK;
ARM GAS  /tmp/claude-502/ccFotbfS.s 			page 169


 3744              		.loc 1 279 3 view .LVU1191
 3745              	.LBE601:
 3746              	.LBB602:
 285:lib/tinyusb/src/portable/synopsys/dwc2/dcd_dwc2.c ****       dwc2->epin[n].diepctl |= DIEPCTL_SNAK | DIEPCTL_EPDIS;
 3747              		.loc 1 285 5 is_stmt 1 view .LVU1192
 286:lib/tinyusb/src/portable/synopsys/dwc2/dcd_dwc2.c ****     }
 3748              		.loc 1 286 7 view .LVU1193
 284:lib/tinyusb/src/portable/synopsys/dwc2/dcd_dwc2.c ****     if (dwc2->epin[n].diepctl & DIEPCTL_EPENA) {
 3749              		.loc 1 284 37 view .LVU1194
 284:lib/tinyusb/src/portable/synopsys/dwc2/dcd_dwc2.c ****     if (dwc2->epin[n].diepctl & DIEPCTL_EPENA) {
 3750              		.loc 1 284 23 view .LVU1195
 3751 02b2 04EB4312 		add	r2, r4, r3, lsl #5
 284:lib/tinyusb/src/portable/synopsys/dwc2/dcd_dwc2.c ****     if (dwc2->epin[n].diepctl & DIEPCTL_EPENA) {
 3752              		.loc 1 284 3 is_stmt 0 view .LVU1196
 3753 02b6 0133     		adds	r3, r3, #1
 3754              	.LVL264:
 285:lib/tinyusb/src/portable/synopsys/dwc2/dcd_dwc2.c ****       dwc2->epin[n].diepctl |= DIEPCTL_SNAK | DIEPCTL_EPDIS;
 3755              		.loc 1 285 22 view .LVU1197
 3756 02b8 D2F80009 		ldr	r0, [r2, #2304]
 284:lib/tinyusb/src/portable/synopsys/dwc2/dcd_dwc2.c ****     if (dwc2->epin[n].diepctl & DIEPCTL_EPENA) {
 3757              		.loc 1 284 3 view .LVU1198
 3758 02bc D9B2     		uxtb	r1, r3
 285:lib/tinyusb/src/portable/synopsys/dwc2/dcd_dwc2.c ****       dwc2->epin[n].diepctl |= DIEPCTL_SNAK | DIEPCTL_EPDIS;
 3759              		.loc 1 285 8 view .LVU1199
 3760 02be 0028     		cmp	r0, #0
 3761 02c0 05DA     		bge	.L229
 286:lib/tinyusb/src/portable/synopsys/dwc2/dcd_dwc2.c ****     }
 3762              		.loc 1 286 29 view .LVU1200
 3763 02c2 D2F80009 		ldr	r0, [r2, #2304]
 3764 02c6 40F09040 		orr	r0, r0, #1207959552
 3765 02ca C2F80009 		str	r0, [r2, #2304]
 3766              	.L229:
 284:lib/tinyusb/src/portable/synopsys/dwc2/dcd_dwc2.c ****     if (dwc2->epin[n].diepctl & DIEPCTL_EPENA) {
 3767              		.loc 1 284 3 view .LVU1201
 3768 02ce 8D42     		cmp	r5, r1
 3769 02d0 EFD8     		bhi	.L230
 3770              	.L231:
 284:lib/tinyusb/src/portable/synopsys/dwc2/dcd_dwc2.c ****     if (dwc2->epin[n].diepctl & DIEPCTL_EPENA) {
 3771              		.loc 1 284 3 view .LVU1202
 3772              	.LBE602:
 290:lib/tinyusb/src/portable/synopsys/dwc2/dcd_dwc2.c ****   fifo_flush_rx(dwc2);
 3773              		.loc 1 290 3 is_stmt 1 view .LVU1203
 3774              	.LVL265:
 3775              	.LBB603:
 3776              	.LBI603:
 115:lib/tinyusb/src/portable/synopsys/dwc2/dcd_dwc2.c ****   // flush TX fifo and wait for it cleared
 3777              		.loc 1 115 42 view .LVU1204
 3778              	.LBB604:
 117:lib/tinyusb/src/portable/synopsys/dwc2/dcd_dwc2.c ****   while (dwc2->grstctl & GRSTCTL_TXFFLSH_Msk) {}
 3779              		.loc 1 117 3 view .LVU1205
 117:lib/tinyusb/src/portable/synopsys/dwc2/dcd_dwc2.c ****   while (dwc2->grstctl & GRSTCTL_TXFFLSH_Msk) {}
 3780              		.loc 1 117 17 is_stmt 0 view .LVU1206
 3781 02d2 4FF48463 		mov	r3, #1056
 3782 02d6 2361     		str	r3, [r4, #16]
 118:lib/tinyusb/src/portable/synopsys/dwc2/dcd_dwc2.c **** }
 3783              		.loc 1 118 3 is_stmt 1 view .LVU1207
 3784              	.L228:
ARM GAS  /tmp/claude-502/ccFotbfS.s 			page 170


 118:lib/tinyusb/src/portable/synopsys/dwc2/dcd_dwc2.c **** }
 3785              		.loc 1 118 48 view .LVU1208
 118:lib/tinyusb/src/portable/synopsys/dwc2/dcd_dwc2.c **** }
 3786              		.loc 1 118 9 view .LVU1209
 118:lib/tinyusb/src/portable/synopsys/dwc2/dcd_dwc2.c **** }
 3787              		.loc 1 118 14 is_stmt 0 view .LVU1210
 3788 02d8 2369     		ldr	r3, [r4, #16]
 118:lib/tinyusb/src/portable/synopsys/dwc2/dcd_dwc2.c **** }
 3789              		.loc 1 118 9 view .LVU1211
 3790 02da 9A06     		lsls	r2, r3, #26
 3791 02dc FCD4     		bmi	.L228
 3792              	.LVL266:
 118:lib/tinyusb/src/portable/synopsys/dwc2/dcd_dwc2.c **** }
 3793              		.loc 1 118 9 view .LVU1212
 3794              	.LBE604:
 3795              	.LBE603:
 291:lib/tinyusb/src/portable/synopsys/dwc2/dcd_dwc2.c **** 
 3796              		.loc 1 291 3 is_stmt 1 view .LVU1213
 3797              	.LBB605:
 3798              	.LBI605:
 120:lib/tinyusb/src/portable/synopsys/dwc2/dcd_dwc2.c ****   // flush RX fifo and wait for it cleared
 3799              		.loc 1 120 42 view .LVU1214
 3800              	.LBB606:
 122:lib/tinyusb/src/portable/synopsys/dwc2/dcd_dwc2.c ****   while (dwc2->grstctl & GRSTCTL_RXFFLSH_Msk) {}
 3801              		.loc 1 122 3 view .LVU1215
 122:lib/tinyusb/src/portable/synopsys/dwc2/dcd_dwc2.c ****   while (dwc2->grstctl & GRSTCTL_RXFFLSH_Msk) {}
 3802              		.loc 1 122 17 is_stmt 0 view .LVU1216
 3803 02de 1023     		movs	r3, #16
 3804 02e0 2361     		str	r3, [r4, #16]
 123:lib/tinyusb/src/portable/synopsys/dwc2/dcd_dwc2.c **** }
 3805              		.loc 1 123 3 is_stmt 1 view .LVU1217
 3806              	.L232:
 123:lib/tinyusb/src/portable/synopsys/dwc2/dcd_dwc2.c **** }
 3807              		.loc 1 123 48 view .LVU1218
 123:lib/tinyusb/src/portable/synopsys/dwc2/dcd_dwc2.c **** }
 3808              		.loc 1 123 9 view .LVU1219
 123:lib/tinyusb/src/portable/synopsys/dwc2/dcd_dwc2.c **** }
 3809              		.loc 1 123 14 is_stmt 0 view .LVU1220
 3810 02e2 2369     		ldr	r3, [r4, #16]
 123:lib/tinyusb/src/portable/synopsys/dwc2/dcd_dwc2.c **** }
 3811              		.loc 1 123 9 view .LVU1221
 3812 02e4 DB06     		lsls	r3, r3, #27
 3813 02e6 FCD4     		bmi	.L232
 3814              	.LVL267:
 123:lib/tinyusb/src/portable/synopsys/dwc2/dcd_dwc2.c **** }
 3815              		.loc 1 123 9 view .LVU1222
 3816              	.LBE606:
 3817              	.LBE605:
 294:lib/tinyusb/src/portable/synopsys/dwc2/dcd_dwc2.c ****   dwc2->doepmsk = DOEPMSK_STUPM | DOEPMSK_XFRCM;
 3818              		.loc 1 294 3 is_stmt 1 view .LVU1223
 355:lib/tinyusb/src/portable/synopsys/dwc2/dcd_dwc2.c **** 
 3819              		.loc 1 355 74 is_stmt 0 view .LVU1224
 3820 02e8 06EB0A02 		add	r2, r6, r10
 3821              	.LBB607:
 3822              	.LBB608:
 112:lib/tinyusb/src/portable/synopsys/dwc2/dcd_dwc2.c **** }
 3823              		.loc 1 112 37 view .LVU1225
ARM GAS  /tmp/claude-502/ccFotbfS.s 			page 171


 3824 02ec 05F11003 		add	r3, r5, #16
 3825              	.LBE608:
 3826              	.LBE607:
 295:lib/tinyusb/src/portable/synopsys/dwc2/dcd_dwc2.c ****   dwc2->diepmsk = DIEPMSK_TOM | DIEPMSK_XFRCM;
 3827              		.loc 1 295 17 view .LVU1226
 3828 02f0 0921     		movs	r1, #9
 294:lib/tinyusb/src/portable/synopsys/dwc2/dcd_dwc2.c ****   dwc2->doepmsk = DOEPMSK_STUPM | DOEPMSK_XFRCM;
 3829              		.loc 1 294 18 view .LVU1227
 3830 02f2 4FF00110 		mov	r0, #65537
 355:lib/tinyusb/src/portable/synopsys/dwc2/dcd_dwc2.c **** 
 3831              		.loc 1 355 88 view .LVU1228
 3832 02f6 D268     		ldr	r2, [r2, #12]
 3833              	.LBB612:
 3834              	.LBB609:
 112:lib/tinyusb/src/portable/synopsys/dwc2/dcd_dwc2.c **** }
 3835              		.loc 1 112 37 view .LVU1229
 3836 02f8 DBB2     		uxtb	r3, r3
 3837              	.LBE609:
 3838              	.LBE612:
 294:lib/tinyusb/src/portable/synopsys/dwc2/dcd_dwc2.c ****   dwc2->doepmsk = DOEPMSK_STUPM | DOEPMSK_XFRCM;
 3839              		.loc 1 294 18 view .LVU1230
 3840 02fa C4F81C08 		str	r0, [r4, #2076]
 295:lib/tinyusb/src/portable/synopsys/dwc2/dcd_dwc2.c ****   dwc2->diepmsk = DIEPMSK_TOM | DIEPMSK_XFRCM;
 3841              		.loc 1 295 3 is_stmt 1 view .LVU1231
 355:lib/tinyusb/src/portable/synopsys/dwc2/dcd_dwc2.c **** 
 3842              		.loc 1 355 88 is_stmt 0 view .LVU1232
 3843 02fe 9208     		lsrs	r2, r2, #2
 295:lib/tinyusb/src/portable/synopsys/dwc2/dcd_dwc2.c ****   dwc2->diepmsk = DIEPMSK_TOM | DIEPMSK_XFRCM;
 3844              		.loc 1 295 17 view .LVU1233
 3845 0300 C4F81418 		str	r1, [r4, #2068]
 296:lib/tinyusb/src/portable/synopsys/dwc2/dcd_dwc2.c **** 
 3846              		.loc 1 296 3 is_stmt 1 view .LVU1234
 3847              	.LBB613:
 3848              	.LBB610:
 112:lib/tinyusb/src/portable/synopsys/dwc2/dcd_dwc2.c **** }
 3849              		.loc 1 112 37 is_stmt 0 view .LVU1235
 3850 0304 5B00     		lsls	r3, r3, #1
 3851              	.LBE610:
 3852              	.LBE613:
 296:lib/tinyusb/src/portable/synopsys/dwc2/dcd_dwc2.c **** 
 3853              		.loc 1 296 17 view .LVU1236
 3854 0306 C4F81018 		str	r1, [r4, #2064]
 349:lib/tinyusb/src/portable/synopsys/dwc2/dcd_dwc2.c **** 
 3855              		.loc 1 349 3 is_stmt 1 view .LVU1237
 3856              	.LVL268:
 3857              	.LBB614:
 3858              	.LBI607:
 111:lib/tinyusb/src/portable/synopsys/dwc2/dcd_dwc2.c ****   return 15 + 2 * (max_ep_size / 4) + 2 * ep_count;
 3859              		.loc 1 111 24 view .LVU1238
 3860              	.LBB611:
 112:lib/tinyusb/src/portable/synopsys/dwc2/dcd_dwc2.c **** }
 3861              		.loc 1 112 3 view .LVU1239
 112:lib/tinyusb/src/portable/synopsys/dwc2/dcd_dwc2.c **** }
 3862              		.loc 1 112 3 is_stmt 0 view .LVU1240
 3863              	.LBE611:
 3864              	.LBE614:
 355:lib/tinyusb/src/portable/synopsys/dwc2/dcd_dwc2.c **** 
ARM GAS  /tmp/claude-502/ccFotbfS.s 			page 172


 3865              		.loc 1 355 92 view .LVU1241
 3866 030a 103A     		subs	r2, r2, #16
 359:lib/tinyusb/src/portable/synopsys/dwc2/dcd_dwc2.c ****   xfer_status[0][TUSB_DIR_IN].max_size = 64;
 3867              		.loc 1 359 41 view .LVU1242
 3868 030c 4021     		movs	r1, #64
 349:lib/tinyusb/src/portable/synopsys/dwc2/dcd_dwc2.c **** 
 3869              		.loc 1 349 19 view .LVU1243
 3870 030e 0F33     		adds	r3, r3, #15
 355:lib/tinyusb/src/portable/synopsys/dwc2/dcd_dwc2.c **** 
 3871              		.loc 1 355 47 view .LVU1244
 3872 0310 42F48012 		orr	r2, r2, #1048576
 349:lib/tinyusb/src/portable/synopsys/dwc2/dcd_dwc2.c **** 
 3873              		.loc 1 349 17 view .LVU1245
 3874 0314 6362     		str	r3, [r4, #36]
 352:lib/tinyusb/src/portable/synopsys/dwc2/dcd_dwc2.c **** 
 3875              		.loc 1 352 3 is_stmt 1 view .LVU1246
 355:lib/tinyusb/src/portable/synopsys/dwc2/dcd_dwc2.c **** 
 3876              		.loc 1 355 18 is_stmt 0 view .LVU1247
 3877 0316 A262     		str	r2, [r4, #40]
 358:lib/tinyusb/src/portable/synopsys/dwc2/dcd_dwc2.c ****   xfer_status[0][TUSB_DIR_OUT].max_size = 64;
 3878              		.loc 1 358 25 view .LVU1248
 3879 0318 D4F80039 		ldr	r3, [r4, #2304]
 359:lib/tinyusb/src/portable/synopsys/dwc2/dcd_dwc2.c ****   xfer_status[0][TUSB_DIR_IN].max_size = 64;
 3880              		.loc 1 359 41 view .LVU1249
 3881 031c 924A     		ldr	r2, .L399
 358:lib/tinyusb/src/portable/synopsys/dwc2/dcd_dwc2.c ****   xfer_status[0][TUSB_DIR_OUT].max_size = 64;
 3882              		.loc 1 358 25 view .LVU1250
 3883 031e 23F00303 		bic	r3, r3, #3
 359:lib/tinyusb/src/portable/synopsys/dwc2/dcd_dwc2.c ****   xfer_status[0][TUSB_DIR_IN].max_size = 64;
 3884              		.loc 1 359 41 view .LVU1251
 3885 0322 5181     		strh	r1, [r2, #10]	@ movhi
 358:lib/tinyusb/src/portable/synopsys/dwc2/dcd_dwc2.c ****   xfer_status[0][TUSB_DIR_OUT].max_size = 64;
 3886              		.loc 1 358 25 view .LVU1252
 3887 0324 C4F80039 		str	r3, [r4, #2304]
 362:lib/tinyusb/src/portable/synopsys/dwc2/dcd_dwc2.c **** 
 3888              		.loc 1 362 27 view .LVU1253
 3889 0328 D4F8103B 		ldr	r3, [r4, #2832]
 3890 032c 43F0C043 		orr	r3, r3, #1610612736
 3891 0330 C4F8103B 		str	r3, [r4, #2832]
 364:lib/tinyusb/src/portable/synopsys/dwc2/dcd_dwc2.c **** }
 3892              		.loc 1 364 17 view .LVU1254
 3893 0334 A369     		ldr	r3, [r4, #24]
 360:lib/tinyusb/src/portable/synopsys/dwc2/dcd_dwc2.c **** 
 3894              		.loc 1 360 40 view .LVU1255
 3895 0336 5183     		strh	r1, [r2, #26]	@ movhi
 352:lib/tinyusb/src/portable/synopsys/dwc2/dcd_dwc2.c **** 
 3896              		.loc 1 352 28 view .LVU1256
 3897 0338 1022     		movs	r2, #16
 364:lib/tinyusb/src/portable/synopsys/dwc2/dcd_dwc2.c **** }
 3898              		.loc 1 364 17 view .LVU1257
 3899 033a 43F44023 		orr	r3, r3, #786432
 3900 033e A361     		str	r3, [r4, #24]
 352:lib/tinyusb/src/portable/synopsys/dwc2/dcd_dwc2.c **** 
 3901              		.loc 1 352 28 view .LVU1258
 3902 0340 8B4B     		ldr	r3, .L399+8
 3903 0342 1A80     		strh	r2, [r3]	@ movhi
 355:lib/tinyusb/src/portable/synopsys/dwc2/dcd_dwc2.c **** 
ARM GAS  /tmp/claude-502/ccFotbfS.s 			page 173


 3904              		.loc 1 355 3 is_stmt 1 view .LVU1259
 358:lib/tinyusb/src/portable/synopsys/dwc2/dcd_dwc2.c ****   xfer_status[0][TUSB_DIR_OUT].max_size = 64;
 3905              		.loc 1 358 3 view .LVU1260
 359:lib/tinyusb/src/portable/synopsys/dwc2/dcd_dwc2.c ****   xfer_status[0][TUSB_DIR_IN].max_size = 64;
 3906              		.loc 1 359 3 view .LVU1261
 360:lib/tinyusb/src/portable/synopsys/dwc2/dcd_dwc2.c **** 
 3907              		.loc 1 360 3 view .LVU1262
 362:lib/tinyusb/src/portable/synopsys/dwc2/dcd_dwc2.c **** 
 3908              		.loc 1 362 3 view .LVU1263
 364:lib/tinyusb/src/portable/synopsys/dwc2/dcd_dwc2.c **** }
 3909              		.loc 1 364 3 view .LVU1264
 365:lib/tinyusb/src/portable/synopsys/dwc2/dcd_dwc2.c **** 
 3910              		.loc 1 365 1 is_stmt 0 view .LVU1265
 3911 0344 6EE6     		b	.L226
 3912              	.LVL269:
 3913              	.L389:
 365:lib/tinyusb/src/portable/synopsys/dwc2/dcd_dwc2.c **** 
 3914              		.loc 1 365 1 view .LVU1266
 3915              	.LBE615:
 3916              	.LBE616:
1204:lib/tinyusb/src/portable/synopsys/dwc2/dcd_dwc2.c ****   }
 3917              		.loc 1 1204 5 is_stmt 1 view .LVU1267
 3918              	.LBB617:
 3919              	.LBI570:
1004:lib/tinyusb/src/portable/synopsys/dwc2/dcd_dwc2.c ****   dwc2_regs_t* dwc2 = DWC2_REG(rhport);
 3920              		.loc 1 1004 13 view .LVU1268
 3921              	.LBB595:
1005:lib/tinyusb/src/portable/synopsys/dwc2/dcd_dwc2.c ****   uint8_t const ep_count = _dwc2_controller[rhport].ep_count;
 3922              		.loc 1 1005 3 view .LVU1269
1005:lib/tinyusb/src/portable/synopsys/dwc2/dcd_dwc2.c ****   uint8_t const ep_count = _dwc2_controller[rhport].ep_count;
 3923              		.loc 1 1005 23 is_stmt 0 view .LVU1270
 3924 0346 06EB0A03 		add	r3, r6, r10
1005:lib/tinyusb/src/portable/synopsys/dwc2/dcd_dwc2.c ****   uint8_t const ep_count = _dwc2_controller[rhport].ep_count;
 3925              		.loc 1 1005 16 view .LVU1271
 3926 034a 56F80A60 		ldr	r6, [r6, r10]
 3927              	.LVL270:
1006:lib/tinyusb/src/portable/synopsys/dwc2/dcd_dwc2.c **** 
 3928              		.loc 1 1006 3 is_stmt 1 view .LVU1272
1006:lib/tinyusb/src/portable/synopsys/dwc2/dcd_dwc2.c **** 
 3929              		.loc 1 1006 17 is_stmt 0 view .LVU1273
 3930 034e 93F808A0 		ldrb	r10, [r3, #8]	@ zero_extendqisi2
 3931              	.LVL271:
1010:lib/tinyusb/src/portable/synopsys/dwc2/dcd_dwc2.c ****     if (dwc2->daint & TU_BIT(DAINT_OEPINT_Pos + n)) {
 3932              		.loc 1 1010 3 is_stmt 1 view .LVU1274
 3933              	.LBB592:
1010:lib/tinyusb/src/portable/synopsys/dwc2/dcd_dwc2.c ****     if (dwc2->daint & TU_BIT(DAINT_OEPINT_Pos + n)) {
 3934              		.loc 1 1010 8 view .LVU1275
1010:lib/tinyusb/src/portable/synopsys/dwc2/dcd_dwc2.c ****     if (dwc2->daint & TU_BIT(DAINT_OEPINT_Pos + n)) {
 3935              		.loc 1 1010 23 view .LVU1276
1010:lib/tinyusb/src/portable/synopsys/dwc2/dcd_dwc2.c ****     if (dwc2->daint & TU_BIT(DAINT_OEPINT_Pos + n)) {
 3936              		.loc 1 1010 3 is_stmt 0 view .LVU1277
 3937 0352 BAF1000F 		cmp	r10, #0
 3938 0356 3FF4E9AE 		beq	.L225
 3939 035a 0024     		movs	r4, #0
 3940 035c 824D     		ldr	r5, .L399
 3941              	.LBB589:
 3942              	.LBB581:
ARM GAS  /tmp/claude-502/ccFotbfS.s 			page 174


 3943              	.LBB575:
 3944              	.LBB576:
 211:lib/tinyusb/src/device/dcd.h **** 
 3945              		.loc 7 211 3 view .LVU1278
 3946 035e DFF82082 		ldr	r8, .L399+24
 3947 0362 A146     		mov	r9, r4
 3948              	.LBE576:
 3949              	.LBE575:
1021:lib/tinyusb/src/portable/synopsys/dwc2/dcd_dwc2.c ****           clear_flag |= DOEPINT_STPKTRX;
 3950              		.loc 1 1021 41 view .LVU1279
 3951 0364 DDF808B0 		ldr	fp, [sp, #8]
 3952              	.LVL272:
1021:lib/tinyusb/src/portable/synopsys/dwc2/dcd_dwc2.c ****           clear_flag |= DOEPINT_STPKTRX;
 3953              		.loc 1 1021 41 view .LVU1280
 3954 0368 0397     		str	r7, [sp, #12]
 3955 036a 3EE0     		b	.L269
 3956              	.LVL273:
 3957              	.L395:
1021:lib/tinyusb/src/portable/synopsys/dwc2/dcd_dwc2.c ****           clear_flag |= DOEPINT_STPKTRX;
 3958              		.loc 1 1021 49 view .LVU1281
 3959 036c 316C     		ldr	r1, [r6, #64]
1022:lib/tinyusb/src/portable/synopsys/dwc2/dcd_dwc2.c ****         }
 3960              		.loc 1 1022 22 view .LVU1282
 3961 036e 48F20802 		movw	r2, #32776
 3962              	.LVL274:
1022:lib/tinyusb/src/portable/synopsys/dwc2/dcd_dwc2.c ****         }
 3963              		.loc 1 1022 22 view .LVU1283
 3964 0372 804B     		ldr	r3, .L399+12
 3965 0374 9942     		cmp	r1, r3
 3966 0376 98BF     		it	ls
 3967 0378 0822     		movls	r2, #8
 3968              	.L266:
 3969              	.LVL275:
1025:lib/tinyusb/src/portable/synopsys/dwc2/dcd_dwc2.c ****         dcd_event_setup_received(rhport, (uint8_t*) _setup_packet, true);
 3970              		.loc 1 1025 9 is_stmt 1 view .LVU1284
1025:lib/tinyusb/src/portable/synopsys/dwc2/dcd_dwc2.c ****         dcd_event_setup_received(rhport, (uint8_t*) _setup_packet, true);
 3971              		.loc 1 1025 24 is_stmt 0 view .LVU1285
 3972 037a F119     		adds	r1, r6, r7
 3973              	.LBB579:
 3974              	.LBB577:
 211:lib/tinyusb/src/device/dcd.h **** 
 3975              		.loc 7 211 3 view .LVU1286
 3976 037c 08AB     		add	r3, sp, #32
 3977              	.LBE577:
 3978              	.LBE579:
1025:lib/tinyusb/src/portable/synopsys/dwc2/dcd_dwc2.c ****         dcd_event_setup_received(rhport, (uint8_t*) _setup_packet, true);
 3979              		.loc 1 1025 24 view .LVU1287
 3980 037e C1F8082B 		str	r2, [r1, #2824]
1026:lib/tinyusb/src/portable/synopsys/dwc2/dcd_dwc2.c ****       }
 3981              		.loc 1 1026 9 is_stmt 1 view .LVU1288
 3982              	.LVL276:
 3983              	.LBB580:
 3984              	.LBI575:
 209:lib/tinyusb/src/device/dcd.h ****   dcd_event_t event = { .rhport = rhport, .event_id = DCD_EVENT_SETUP_RECEIVED };
 3985              		.loc 7 209 42 view .LVU1289
 3986              	.LBB578:
 210:lib/tinyusb/src/device/dcd.h ****   memcpy(&event.setup_received, setup, sizeof(tusb_control_request_t));
ARM GAS  /tmp/claude-502/ccFotbfS.s 			page 175


 3987              		.loc 7 210 3 view .LVU1290
 210:lib/tinyusb/src/device/dcd.h ****   memcpy(&event.setup_received, setup, sizeof(tusb_control_request_t));
 3988              		.loc 7 210 15 is_stmt 0 view .LVU1291
 3989 0382 0022     		movs	r2, #0
 3990              	.LVL277:
 210:lib/tinyusb/src/device/dcd.h ****   memcpy(&event.setup_received, setup, sizeof(tusb_control_request_t));
 3991              		.loc 7 210 15 view .LVU1292
 3992 0384 8DF814B0 		strb	fp, [sp, #20]
 3993              	.LVL278:
 210:lib/tinyusb/src/device/dcd.h ****   memcpy(&event.setup_received, setup, sizeof(tusb_control_request_t));
 3994              		.loc 7 210 15 view .LVU1293
 3995 0388 ADF81620 		strh	r2, [sp, #22]	@ movhi
 3996 038c 0622     		movs	r2, #6
 211:lib/tinyusb/src/device/dcd.h **** 
 3997              		.loc 7 211 3 view .LVU1294
 3998 038e 98E80300 		ldm	r8, {r0, r1}
 210:lib/tinyusb/src/device/dcd.h ****   memcpy(&event.setup_received, setup, sizeof(tusb_control_request_t));
 3999              		.loc 7 210 15 view .LVU1295
 4000 0392 8DF81520 		strb	r2, [sp, #21]
 211:lib/tinyusb/src/device/dcd.h **** 
 4001              		.loc 7 211 3 is_stmt 1 view .LVU1296
 4002 0396 03E90300 		stmdb	r3, {r0, r1}
 213:lib/tinyusb/src/device/dcd.h **** }
 4003              		.loc 7 213 3 view .LVU1297
 4004 039a 0121     		movs	r1, #1
 4005 039c 05A8     		add	r0, sp, #20
 4006 039e FFF7FEFF 		bl	dcd_event_handler
 4007              	.LVL279:
 4008              	.L265:
 213:lib/tinyusb/src/device/dcd.h **** }
 4009              		.loc 7 213 3 is_stmt 0 view .LVU1298
 4010              	.LBE578:
 4011              	.LBE580:
 4012              	.LBE581:
1030:lib/tinyusb/src/portable/synopsys/dwc2/dcd_dwc2.c ****         epout->doepint = DOEPINT_XFRC;
 4013              		.loc 1 1030 7 is_stmt 1 view .LVU1299
1030:lib/tinyusb/src/portable/synopsys/dwc2/dcd_dwc2.c ****         epout->doepint = DOEPINT_XFRC;
 4014              		.loc 1 1030 16 is_stmt 0 view .LVU1300
 4015 03a2 F219     		adds	r2, r6, r7
 4016 03a4 D2F8083B 		ldr	r3, [r2, #2824]
1030:lib/tinyusb/src/portable/synopsys/dwc2/dcd_dwc2.c ****         epout->doepint = DOEPINT_XFRC;
 4017              		.loc 1 1030 10 view .LVU1301
 4018 03a8 DF07     		lsls	r7, r3, #31
 4019 03aa 18D5     		bpl	.L264
 4020              	.LBB582:
1031:lib/tinyusb/src/portable/synopsys/dwc2/dcd_dwc2.c **** 
 4021              		.loc 1 1031 9 is_stmt 1 view .LVU1302
1031:lib/tinyusb/src/portable/synopsys/dwc2/dcd_dwc2.c **** 
 4022              		.loc 1 1031 24 is_stmt 0 view .LVU1303
 4023 03ac 0123     		movs	r3, #1
 4024 03ae C2F8083B 		str	r3, [r2, #2824]
1033:lib/tinyusb/src/portable/synopsys/dwc2/dcd_dwc2.c **** 
 4025              		.loc 1 1033 9 is_stmt 1 view .LVU1304
 4026              	.LVL280:
1036:lib/tinyusb/src/portable/synopsys/dwc2/dcd_dwc2.c ****           // Schedule another packet to be received.
 4027              		.loc 1 1036 9 view .LVU1305
1036:lib/tinyusb/src/portable/synopsys/dwc2/dcd_dwc2.c ****           // Schedule another packet to be received.
ARM GAS  /tmp/claude-502/ccFotbfS.s 			page 176


 4028              		.loc 1 1036 12 is_stmt 0 view .LVU1306
 4029 03b2 24B9     		cbnz	r4, .L268
1036:lib/tinyusb/src/portable/synopsys/dwc2/dcd_dwc2.c ****           // Schedule another packet to be received.
 4030              		.loc 1 1036 36 view .LVU1307
 4031 03b4 704A     		ldr	r2, .L399+16
 4032 03b6 1288     		ldrh	r2, [r2]
1036:lib/tinyusb/src/portable/synopsys/dwc2/dcd_dwc2.c ****           // Schedule another packet to be received.
 4033              		.loc 1 1036 22 view .LVU1308
 4034 03b8 002A     		cmp	r2, #0
 4035 03ba 40F0F980 		bne	.L393
 4036              	.L268:
1040:lib/tinyusb/src/portable/synopsys/dwc2/dcd_dwc2.c ****         }
 4037              		.loc 1 1040 11 is_stmt 1 view .LVU1309
 4038              	.LBB583:
 4039              	.LBB584:
 218:lib/tinyusb/src/device/dcd.h **** 
 4040              		.loc 7 218 15 is_stmt 0 view .LVU1310
 4041 03be 0023     		movs	r3, #0
 224:lib/tinyusb/src/device/dcd.h **** }
 4042              		.loc 7 224 3 view .LVU1311
 4043 03c0 05A8     		add	r0, sp, #20
 4044 03c2 0121     		movs	r1, #1
 218:lib/tinyusb/src/device/dcd.h **** 
 4045              		.loc 7 218 15 view .LVU1312
 4046 03c4 CDE90533 		strd	r3, r3, [sp, #20]
 4047              	.LBE584:
 4048              	.LBE583:
1040:lib/tinyusb/src/portable/synopsys/dwc2/dcd_dwc2.c ****         }
 4049              		.loc 1 1040 11 view .LVU1313
 4050 03c8 2B89     		ldrh	r3, [r5, #8]
 4051              	.LVL281:
 4052              	.LBB586:
 4053              	.LBI583:
 217:lib/tinyusb/src/device/dcd.h ****   dcd_event_t event = { .rhport = rhport, .event_id = DCD_EVENT_XFER_COMPLETE };
 4054              		.loc 7 217 42 is_stmt 1 view .LVU1314
 4055              	.LBB585:
 218:lib/tinyusb/src/device/dcd.h **** 
 4056              		.loc 7 218 3 view .LVU1315
 220:lib/tinyusb/src/device/dcd.h ****   event.xfer_complete.len     = xferred_bytes;
 4057              		.loc 7 220 31 is_stmt 0 view .LVU1316
 4058 03ca 8DF81890 		strb	r9, [sp, #24]
 221:lib/tinyusb/src/device/dcd.h ****   event.xfer_complete.result  = result;
 4059              		.loc 7 221 31 view .LVU1317
 4060 03ce 0793     		str	r3, [sp, #28]
 218:lib/tinyusb/src/device/dcd.h **** 
 4061              		.loc 7 218 15 view .LVU1318
 4062 03d0 0723     		movs	r3, #7
 4063              	.LVL282:
 218:lib/tinyusb/src/device/dcd.h **** 
 4064              		.loc 7 218 15 view .LVU1319
 4065 03d2 8DF814B0 		strb	fp, [sp, #20]
 4066 03d6 8DF81530 		strb	r3, [sp, #21]
 220:lib/tinyusb/src/device/dcd.h ****   event.xfer_complete.len     = xferred_bytes;
 4067              		.loc 7 220 3 is_stmt 1 view .LVU1320
 221:lib/tinyusb/src/device/dcd.h ****   event.xfer_complete.result  = result;
 4068              		.loc 7 221 3 view .LVU1321
 222:lib/tinyusb/src/device/dcd.h **** 
ARM GAS  /tmp/claude-502/ccFotbfS.s 			page 177


 4069              		.loc 7 222 3 view .LVU1322
 224:lib/tinyusb/src/device/dcd.h **** }
 4070              		.loc 7 224 3 view .LVU1323
 4071 03da FFF7FEFF 		bl	dcd_event_handler
 4072              	.LVL283:
 4073              	.L264:
 224:lib/tinyusb/src/device/dcd.h **** }
 4074              		.loc 7 224 3 is_stmt 0 view .LVU1324
 4075              	.LBE585:
 4076              	.LBE586:
 4077              	.LBE582:
 4078              	.LBE589:
1010:lib/tinyusb/src/portable/synopsys/dwc2/dcd_dwc2.c ****     if (dwc2->daint & TU_BIT(DAINT_OEPINT_Pos + n)) {
 4079              		.loc 1 1010 37 is_stmt 1 view .LVU1325
1010:lib/tinyusb/src/portable/synopsys/dwc2/dcd_dwc2.c ****     if (dwc2->daint & TU_BIT(DAINT_OEPINT_Pos + n)) {
 4080              		.loc 1 1010 23 view .LVU1326
1010:lib/tinyusb/src/portable/synopsys/dwc2/dcd_dwc2.c ****     if (dwc2->daint & TU_BIT(DAINT_OEPINT_Pos + n)) {
 4081              		.loc 1 1010 3 is_stmt 0 view .LVU1327
 4082 03de 0134     		adds	r4, r4, #1
 4083              	.LVL284:
1010:lib/tinyusb/src/portable/synopsys/dwc2/dcd_dwc2.c ****     if (dwc2->daint & TU_BIT(DAINT_OEPINT_Pos + n)) {
 4084              		.loc 1 1010 3 view .LVU1328
 4085 03e0 2035     		adds	r5, r5, #32
 4086 03e2 5FFA84F9 		uxtb	r9, r4
 4087 03e6 CA45     		cmp	r10, r9
 4088 03e8 37D9     		bls	.L394
 4089              	.L269:
1011:lib/tinyusb/src/portable/synopsys/dwc2/dcd_dwc2.c ****       dwc2_epout_t* epout = &dwc2->epout[n];
 4090              		.loc 1 1011 5 is_stmt 1 view .LVU1329
1011:lib/tinyusb/src/portable/synopsys/dwc2/dcd_dwc2.c ****       dwc2_epout_t* epout = &dwc2->epout[n];
 4091              		.loc 1 1011 13 is_stmt 0 view .LVU1330
 4092 03ea D6F81838 		ldr	r3, [r6, #2072]
1011:lib/tinyusb/src/portable/synopsys/dwc2/dcd_dwc2.c ****       dwc2_epout_t* epout = &dwc2->epout[n];
 4093              		.loc 1 1011 9 view .LVU1331
 4094 03ee 04F11002 		add	r2, r4, #16
 4095 03f2 D340     		lsrs	r3, r3, r2
1011:lib/tinyusb/src/portable/synopsys/dwc2/dcd_dwc2.c ****       dwc2_epout_t* epout = &dwc2->epout[n];
 4096              		.loc 1 1011 8 view .LVU1332
 4097 03f4 D807     		lsls	r0, r3, #31
 4098 03f6 F2D5     		bpl	.L264
 4099              	.LBB590:
1012:lib/tinyusb/src/portable/synopsys/dwc2/dcd_dwc2.c **** 
 4100              		.loc 1 1012 7 is_stmt 1 view .LVU1333
 4101              	.LVL285:
1014:lib/tinyusb/src/portable/synopsys/dwc2/dcd_dwc2.c **** 
 4102              		.loc 1 1014 7 view .LVU1334
1014:lib/tinyusb/src/portable/synopsys/dwc2/dcd_dwc2.c **** 
 4103              		.loc 1 1014 22 is_stmt 0 view .LVU1335
 4104 03f8 06EB4413 		add	r3, r6, r4, lsl #5
 4105 03fc 6701     		lsls	r7, r4, #5
 4106 03fe D3F8082B 		ldr	r2, [r3, #2824]
 4107              	.LVL286:
1017:lib/tinyusb/src/portable/synopsys/dwc2/dcd_dwc2.c ****         uint32_t clear_flag = DOEPINT_STUP;
 4108              		.loc 1 1017 7 is_stmt 1 view .LVU1336
1017:lib/tinyusb/src/portable/synopsys/dwc2/dcd_dwc2.c ****         uint32_t clear_flag = DOEPINT_STUP;
 4109              		.loc 1 1017 10 is_stmt 0 view .LVU1337
 4110 0402 1107     		lsls	r1, r2, #28
ARM GAS  /tmp/claude-502/ccFotbfS.s 			page 178


 4111 0404 CDD5     		bpl	.L265
 4112              	.LBB587:
1018:lib/tinyusb/src/portable/synopsys/dwc2/dcd_dwc2.c **** 
 4113              		.loc 1 1018 9 is_stmt 1 view .LVU1338
 4114              	.LVL287:
1021:lib/tinyusb/src/portable/synopsys/dwc2/dcd_dwc2.c ****           clear_flag |= DOEPINT_STPKTRX;
 4115              		.loc 1 1021 9 view .LVU1339
1021:lib/tinyusb/src/portable/synopsys/dwc2/dcd_dwc2.c ****           clear_flag |= DOEPINT_STPKTRX;
 4116              		.loc 1 1021 12 is_stmt 0 view .LVU1340
 4117 0406 1304     		lsls	r3, r2, #16
 4118 0408 B0D4     		bmi	.L395
1018:lib/tinyusb/src/portable/synopsys/dwc2/dcd_dwc2.c **** 
 4119              		.loc 1 1018 18 view .LVU1341
 4120 040a 0822     		movs	r2, #8
 4121              	.LVL288:
1018:lib/tinyusb/src/portable/synopsys/dwc2/dcd_dwc2.c **** 
 4122              		.loc 1 1018 18 view .LVU1342
 4123 040c B5E7     		b	.L266
 4124              	.LVL289:
 4125              	.L384:
1018:lib/tinyusb/src/portable/synopsys/dwc2/dcd_dwc2.c **** 
 4126              		.loc 1 1018 18 view .LVU1343
 4127              	.LBE587:
 4128              	.LBE590:
 4129              	.LBE592:
 4130              	.LBE595:
 4131              	.LBE617:
1151:lib/tinyusb/src/portable/synopsys/dwc2/dcd_dwc2.c ****     dcd_event_bus_signal(rhport, DCD_EVENT_SUSPEND, true);
 4132              		.loc 1 1151 5 is_stmt 1 view .LVU1344
1151:lib/tinyusb/src/portable/synopsys/dwc2/dcd_dwc2.c ****     dcd_event_bus_signal(rhport, DCD_EVENT_SUSPEND, true);
 4133              		.loc 1 1151 19 is_stmt 0 view .LVU1345
 4134 040e 4FF40063 		mov	r3, #2048
 4135              	.LBB618:
 4136              	.LBB619:
 198:lib/tinyusb/src/device/dcd.h **** }
 4137              		.loc 7 198 3 view .LVU1346
 4138 0412 05A8     		add	r0, sp, #20
 4139 0414 0121     		movs	r1, #1
 4140              	.LBE619:
 4141              	.LBE618:
1151:lib/tinyusb/src/portable/synopsys/dwc2/dcd_dwc2.c ****     dcd_event_bus_signal(rhport, DCD_EVENT_SUSPEND, true);
 4142              		.loc 1 1151 19 view .LVU1347
 4143 0416 6361     		str	r3, [r4, #20]
1152:lib/tinyusb/src/portable/synopsys/dwc2/dcd_dwc2.c ****   }
 4144              		.loc 1 1152 5 is_stmt 1 view .LVU1348
 4145              	.LVL290:
 4146              	.LBB621:
 4147              	.LBI618:
 196:lib/tinyusb/src/device/dcd.h ****   dcd_event_t event = { .rhport = rhport, .event_id = eid };
 4148              		.loc 7 196 42 view .LVU1349
 4149              	.LBB620:
 197:lib/tinyusb/src/device/dcd.h ****   dcd_event_handler(&event, in_isr);
 4150              		.loc 7 197 3 view .LVU1350
 197:lib/tinyusb/src/device/dcd.h ****   dcd_event_handler(&event, in_isr);
 4151              		.loc 7 197 15 is_stmt 0 view .LVU1351
 4152 0418 0023     		movs	r3, #0
 4153 041a CDE90533 		strd	r3, r3, [sp, #20]
ARM GAS  /tmp/claude-502/ccFotbfS.s 			page 179


 4154 041e 0793     		str	r3, [sp, #28]
 4155 0420 029B     		ldr	r3, [sp, #8]
 4156 0422 8DF81430 		strb	r3, [sp, #20]
 4157 0426 0423     		movs	r3, #4
 4158 0428 8DF81530 		strb	r3, [sp, #21]
 198:lib/tinyusb/src/device/dcd.h **** }
 4159              		.loc 7 198 3 is_stmt 1 view .LVU1352
 4160 042c FFF7FEFF 		bl	dcd_event_handler
 4161              	.LVL291:
 198:lib/tinyusb/src/device/dcd.h **** }
 4162              		.loc 7 198 3 is_stmt 0 view .LVU1353
 4163              	.LBE620:
 4164              	.LBE621:
1155:lib/tinyusb/src/portable/synopsys/dwc2/dcd_dwc2.c ****     dwc2->gintsts = GINTSTS_WKUINT;
 4165              		.loc 1 1155 3 is_stmt 1 view .LVU1354
1155:lib/tinyusb/src/portable/synopsys/dwc2/dcd_dwc2.c ****     dwc2->gintsts = GINTSTS_WKUINT;
 4166              		.loc 1 1155 6 is_stmt 0 view .LVU1355
 4167 0430 002F     		cmp	r7, #0
 4168 0432 BFF61EAE 		bge	.L236
 4169              	.L385:
1156:lib/tinyusb/src/portable/synopsys/dwc2/dcd_dwc2.c ****     dcd_event_bus_signal(rhport, DCD_EVENT_RESUME, true);
 4170              		.loc 1 1156 5 is_stmt 1 view .LVU1356
1156:lib/tinyusb/src/portable/synopsys/dwc2/dcd_dwc2.c ****     dcd_event_bus_signal(rhport, DCD_EVENT_RESUME, true);
 4171              		.loc 1 1156 19 is_stmt 0 view .LVU1357
 4172 0436 4FF00043 		mov	r3, #-2147483648
 4173              	.LBB622:
 4174              	.LBB623:
 198:lib/tinyusb/src/device/dcd.h **** }
 4175              		.loc 7 198 3 view .LVU1358
 4176 043a 05A8     		add	r0, sp, #20
 4177 043c 0121     		movs	r1, #1
 4178              	.LBE623:
 4179              	.LBE622:
1156:lib/tinyusb/src/portable/synopsys/dwc2/dcd_dwc2.c ****     dcd_event_bus_signal(rhport, DCD_EVENT_RESUME, true);
 4180              		.loc 1 1156 19 view .LVU1359
 4181 043e 6361     		str	r3, [r4, #20]
1157:lib/tinyusb/src/portable/synopsys/dwc2/dcd_dwc2.c ****   }
 4182              		.loc 1 1157 5 is_stmt 1 view .LVU1360
 4183              	.LVL292:
 4184              	.LBB625:
 4185              	.LBI622:
 196:lib/tinyusb/src/device/dcd.h ****   dcd_event_t event = { .rhport = rhport, .event_id = eid };
 4186              		.loc 7 196 42 view .LVU1361
 4187              	.LBB624:
 197:lib/tinyusb/src/device/dcd.h ****   dcd_event_handler(&event, in_isr);
 4188              		.loc 7 197 3 view .LVU1362
 197:lib/tinyusb/src/device/dcd.h ****   dcd_event_handler(&event, in_isr);
 4189              		.loc 7 197 15 is_stmt 0 view .LVU1363
 4190 0440 0023     		movs	r3, #0
 4191 0442 CDE90533 		strd	r3, r3, [sp, #20]
 4192 0446 0793     		str	r3, [sp, #28]
 4193 0448 029B     		ldr	r3, [sp, #8]
 4194 044a 8DF81430 		strb	r3, [sp, #20]
 4195 044e 0523     		movs	r3, #5
 4196 0450 8DF81530 		strb	r3, [sp, #21]
 198:lib/tinyusb/src/device/dcd.h **** }
 4197              		.loc 7 198 3 is_stmt 1 view .LVU1364
ARM GAS  /tmp/claude-502/ccFotbfS.s 			page 180


 4198 0454 FFF7FEFF 		bl	dcd_event_handler
 4199              	.LVL293:
 199:lib/tinyusb/src/device/dcd.h **** 
 4200              		.loc 7 199 1 is_stmt 0 view .LVU1365
 4201 0458 0BE6     		b	.L236
 4202              	.LVL294:
 4203              	.L394:
 199:lib/tinyusb/src/device/dcd.h **** 
 4204              		.loc 7 199 1 view .LVU1366
 4205              	.LBE624:
 4206              	.LBE625:
1208:lib/tinyusb/src/portable/synopsys/dwc2/dcd_dwc2.c ****     // IEPINT bit read-only, clear using DIEPINTn
 4207              		.loc 1 1208 3 is_stmt 1 view .LVU1367
 4208              	.LBB626:
 4209              	.LBB596:
 4210              	.LBB593:
 4211 045a 039F     		ldr	r7, [sp, #12]
 4212              	.LBE593:
 4213              	.LBE596:
 4214              	.LBE626:
1208:lib/tinyusb/src/portable/synopsys/dwc2/dcd_dwc2.c ****     // IEPINT bit read-only, clear using DIEPINTn
 4215              		.loc 1 1208 6 is_stmt 0 view .LVU1368
 4216 045c 7B03     		lsls	r3, r7, #13
 4217 045e 7FF565AE 		bpl	.L225
1210:lib/tinyusb/src/portable/synopsys/dwc2/dcd_dwc2.c ****   }
 4218              		.loc 1 1210 5 is_stmt 1 view .LVU1369
 4219              	.LVL295:
 4220              	.LBB627:
1047:lib/tinyusb/src/portable/synopsys/dwc2/dcd_dwc2.c ****   dwc2_regs_t* dwc2 = DWC2_REG(rhport);
 4221              		.loc 1 1047 13 view .LVU1370
 4222              	.LBB567:
1048:lib/tinyusb/src/portable/synopsys/dwc2/dcd_dwc2.c ****   uint8_t const ep_count = _dwc2_controller[rhport].ep_count;
 4223              		.loc 1 1048 3 view .LVU1371
1049:lib/tinyusb/src/portable/synopsys/dwc2/dcd_dwc2.c ****   dwc2_epin_t* epin = dwc2->epin;
 4224              		.loc 1 1049 3 view .LVU1372
1050:lib/tinyusb/src/portable/synopsys/dwc2/dcd_dwc2.c **** 
 4225              		.loc 1 1050 3 view .LVU1373
1050:lib/tinyusb/src/portable/synopsys/dwc2/dcd_dwc2.c **** 
 4226              		.loc 1 1050 16 is_stmt 0 view .LVU1374
 4227 0462 06F51064 		add	r4, r6, #2304
 4228              	.LVL296:
1054:lib/tinyusb/src/portable/synopsys/dwc2/dcd_dwc2.c ****     if (dwc2->daint & TU_BIT(DAINT_IEPINT_Pos + n)) {
 4229              		.loc 1 1054 3 is_stmt 1 view .LVU1375
 4230              	.LBB563:
1054:lib/tinyusb/src/portable/synopsys/dwc2/dcd_dwc2.c ****     if (dwc2->daint & TU_BIT(DAINT_IEPINT_Pos + n)) {
 4231              		.loc 1 1054 8 view .LVU1376
1054:lib/tinyusb/src/portable/synopsys/dwc2/dcd_dwc2.c ****     if (dwc2->daint & TU_BIT(DAINT_IEPINT_Pos + n)) {
 4232              		.loc 1 1054 23 view .LVU1377
 4233 0466 B5E6     		b	.L291
 4234              	.LVL297:
 4235              	.L249:
1054:lib/tinyusb/src/portable/synopsys/dwc2/dcd_dwc2.c ****     if (dwc2->daint & TU_BIT(DAINT_IEPINT_Pos + n)) {
 4236              		.loc 1 1054 23 is_stmt 0 view .LVU1378
 4237              	.LBE563:
 4238              	.LBE567:
 4239              	.LBE627:
 4240              	.LBB628:
ARM GAS  /tmp/claude-502/ccFotbfS.s 			page 181


 4241              	.LBB519:
 4242              	.LBB514:
 957:lib/tinyusb/src/portable/synopsys/dwc2/dcd_dwc2.c **** 
 4243              		.loc 1 957 9 is_stmt 1 view .LVU1379
 4244              	.LBB495:
 4245              	.LBB496:
 865:lib/tinyusb/src/portable/synopsys/dwc2/dcd_dwc2.c ****     tu_unaligned_write32(dst, *rx_fifo);
 4246              		.loc 1 865 9 is_stmt 0 view .LVU1380
 4247 0468 5FEA9800 		lsrs	r0, r8, #2
 4248              	.LBE496:
 4249              	.LBE495:
 957:lib/tinyusb/src/portable/synopsys/dwc2/dcd_dwc2.c **** 
 4250              		.loc 1 957 9 view .LVU1381
 4251 046c 53F809E0 		ldr	lr, [r3, r9]
 4252              	.LVL298:
 4253              	.LBB508:
 4254              	.LBI495:
 857:lib/tinyusb/src/portable/synopsys/dwc2/dcd_dwc2.c ****   (void) rhport;
 4255              		.loc 1 857 13 is_stmt 1 view .LVU1382
 4256              	.LBB506:
 858:lib/tinyusb/src/portable/synopsys/dwc2/dcd_dwc2.c **** 
 4257              		.loc 1 858 3 view .LVU1383
 860:lib/tinyusb/src/portable/synopsys/dwc2/dcd_dwc2.c ****   volatile const uint32_t* rx_fifo = dwc2->fifo[0];
 4258              		.loc 1 860 3 view .LVU1384
 861:lib/tinyusb/src/portable/synopsys/dwc2/dcd_dwc2.c **** 
 4259              		.loc 1 861 3 view .LVU1385
 864:lib/tinyusb/src/portable/synopsys/dwc2/dcd_dwc2.c ****   while (full_words--) {
 4260              		.loc 1 864 3 view .LVU1386
 865:lib/tinyusb/src/portable/synopsys/dwc2/dcd_dwc2.c ****     tu_unaligned_write32(dst, *rx_fifo);
 4261              		.loc 1 865 3 view .LVU1387
 865:lib/tinyusb/src/portable/synopsys/dwc2/dcd_dwc2.c ****     tu_unaligned_write32(dst, *rx_fifo);
 4262              		.loc 1 865 9 view .LVU1388
 865:lib/tinyusb/src/portable/synopsys/dwc2/dcd_dwc2.c ****     tu_unaligned_write32(dst, *rx_fifo);
 4263              		.loc 1 865 9 is_stmt 0 view .LVU1389
 4264 0470 00F0A780 		beq	.L295
 4265 0474 0EEB8000 		add	r0, lr, r0, lsl #2
 4266 0478 7246     		mov	r2, lr
 4267 047a 04F5805C 		add	ip, r4, #4096
 4268              	.LVL299:
 4269              	.L252:
 866:lib/tinyusb/src/portable/synopsys/dwc2/dcd_dwc2.c ****     dst += 4;
 4270              		.loc 1 866 5 is_stmt 1 view .LVU1390
 4271 047e DCF80010 		ldr	r1, [ip]
 4272              	.LVL300:
 4273              	.LBB497:
 4274              	.LBI497:
 176:lib/tinyusb/src/common/tusb_common.h **** 
 177:lib/tinyusb/src/common/tusb_common.h **** // log2 of a value is its MSB's position
 178:lib/tinyusb/src/common/tusb_common.h **** // TODO use clz TODO remove
 179:lib/tinyusb/src/common/tusb_common.h **** static inline uint8_t tu_log2(uint32_t value)
 180:lib/tinyusb/src/common/tusb_common.h **** {
 181:lib/tinyusb/src/common/tusb_common.h ****   uint8_t result = 0;
 182:lib/tinyusb/src/common/tusb_common.h ****   while (value >>= 1) { result++; }
 183:lib/tinyusb/src/common/tusb_common.h ****   return result;
 184:lib/tinyusb/src/common/tusb_common.h **** }
 185:lib/tinyusb/src/common/tusb_common.h **** 
 186:lib/tinyusb/src/common/tusb_common.h **** //static inline uint8_t tu_log2(uint32_t value)
ARM GAS  /tmp/claude-502/ccFotbfS.s 			page 182


 187:lib/tinyusb/src/common/tusb_common.h **** //{
 188:lib/tinyusb/src/common/tusb_common.h **** //   return sizeof(uint32_t) * CHAR_BIT - __builtin_clz(x) - 1;
 189:lib/tinyusb/src/common/tusb_common.h **** //}
 190:lib/tinyusb/src/common/tusb_common.h **** 
 191:lib/tinyusb/src/common/tusb_common.h **** static inline bool tu_is_power_of_two(uint32_t value)
 192:lib/tinyusb/src/common/tusb_common.h **** {
 193:lib/tinyusb/src/common/tusb_common.h ****    return (value != 0) && ((value & (value - 1)) == 0);
 194:lib/tinyusb/src/common/tusb_common.h **** }
 195:lib/tinyusb/src/common/tusb_common.h **** 
 196:lib/tinyusb/src/common/tusb_common.h **** //------------- Unaligned Access -------------//
 197:lib/tinyusb/src/common/tusb_common.h **** #if TUP_ARCH_STRICT_ALIGN
 198:lib/tinyusb/src/common/tusb_common.h **** 
 199:lib/tinyusb/src/common/tusb_common.h **** // Rely on compiler to generate correct code for unaligned access
 200:lib/tinyusb/src/common/tusb_common.h **** typedef struct { uint16_t val; } TU_ATTR_PACKED tu_unaligned_uint16_t;
 201:lib/tinyusb/src/common/tusb_common.h **** typedef struct { uint32_t val; } TU_ATTR_PACKED tu_unaligned_uint32_t;
 202:lib/tinyusb/src/common/tusb_common.h **** 
 203:lib/tinyusb/src/common/tusb_common.h **** TU_ATTR_ALWAYS_INLINE static inline uint32_t tu_unaligned_read32(const void* mem)
 204:lib/tinyusb/src/common/tusb_common.h **** {
 205:lib/tinyusb/src/common/tusb_common.h ****   tu_unaligned_uint32_t const* ua32 = (tu_unaligned_uint32_t const*) mem;
 206:lib/tinyusb/src/common/tusb_common.h ****   return ua32->val;
 207:lib/tinyusb/src/common/tusb_common.h **** }
 208:lib/tinyusb/src/common/tusb_common.h **** 
 209:lib/tinyusb/src/common/tusb_common.h **** TU_ATTR_ALWAYS_INLINE static inline void tu_unaligned_write32(void* mem, uint32_t value)
 210:lib/tinyusb/src/common/tusb_common.h **** {
 211:lib/tinyusb/src/common/tusb_common.h ****   tu_unaligned_uint32_t* ua32 = (tu_unaligned_uint32_t*) mem;
 212:lib/tinyusb/src/common/tusb_common.h ****   ua32->val = value;
 213:lib/tinyusb/src/common/tusb_common.h **** }
 214:lib/tinyusb/src/common/tusb_common.h **** 
 215:lib/tinyusb/src/common/tusb_common.h **** TU_ATTR_ALWAYS_INLINE static inline uint16_t tu_unaligned_read16(const void* mem)
 216:lib/tinyusb/src/common/tusb_common.h **** {
 217:lib/tinyusb/src/common/tusb_common.h ****   tu_unaligned_uint16_t const* ua16 = (tu_unaligned_uint16_t const*) mem;
 218:lib/tinyusb/src/common/tusb_common.h ****   return ua16->val;
 219:lib/tinyusb/src/common/tusb_common.h **** }
 220:lib/tinyusb/src/common/tusb_common.h **** 
 221:lib/tinyusb/src/common/tusb_common.h **** TU_ATTR_ALWAYS_INLINE static inline void tu_unaligned_write16(void* mem, uint16_t value)
 222:lib/tinyusb/src/common/tusb_common.h **** {
 223:lib/tinyusb/src/common/tusb_common.h ****   tu_unaligned_uint16_t* ua16 = (tu_unaligned_uint16_t*) mem;
 224:lib/tinyusb/src/common/tusb_common.h ****   ua16->val = value;
 225:lib/tinyusb/src/common/tusb_common.h **** }
 226:lib/tinyusb/src/common/tusb_common.h **** 
 227:lib/tinyusb/src/common/tusb_common.h **** #elif TUP_MCU_STRICT_ALIGN
 228:lib/tinyusb/src/common/tusb_common.h **** 
 229:lib/tinyusb/src/common/tusb_common.h **** // MCU such as LPC_IP3511 Highspeed cannot access unaligned memory on USB_RAM although it is ARM M4
 230:lib/tinyusb/src/common/tusb_common.h **** // We have to manually pick up bytes since tu_unaligned_uint32_t will still generate unaligned code
 231:lib/tinyusb/src/common/tusb_common.h **** // NOTE: volatile cast to memory to prevent compiler to optimize and generate unaligned code
 232:lib/tinyusb/src/common/tusb_common.h **** // TODO Big Endian may need minor changes
 233:lib/tinyusb/src/common/tusb_common.h **** TU_ATTR_ALWAYS_INLINE static inline uint32_t tu_unaligned_read32(const void* mem)
 234:lib/tinyusb/src/common/tusb_common.h **** {
 235:lib/tinyusb/src/common/tusb_common.h ****   volatile uint8_t const* buf8 = (uint8_t const*) mem;
 236:lib/tinyusb/src/common/tusb_common.h ****   return tu_u32(buf8[3], buf8[2], buf8[1], buf8[0]);
 237:lib/tinyusb/src/common/tusb_common.h **** }
 238:lib/tinyusb/src/common/tusb_common.h **** 
 239:lib/tinyusb/src/common/tusb_common.h **** TU_ATTR_ALWAYS_INLINE static inline void tu_unaligned_write32(void* mem, uint32_t value)
 240:lib/tinyusb/src/common/tusb_common.h **** {
 241:lib/tinyusb/src/common/tusb_common.h ****   volatile uint8_t* buf8 = (uint8_t*) mem;
 242:lib/tinyusb/src/common/tusb_common.h ****   buf8[0] = tu_u32_byte0(value);
 243:lib/tinyusb/src/common/tusb_common.h ****   buf8[1] = tu_u32_byte1(value);
ARM GAS  /tmp/claude-502/ccFotbfS.s 			page 183


 244:lib/tinyusb/src/common/tusb_common.h ****   buf8[2] = tu_u32_byte2(value);
 245:lib/tinyusb/src/common/tusb_common.h ****   buf8[3] = tu_u32_byte3(value);
 246:lib/tinyusb/src/common/tusb_common.h **** }
 247:lib/tinyusb/src/common/tusb_common.h **** 
 248:lib/tinyusb/src/common/tusb_common.h **** TU_ATTR_ALWAYS_INLINE static inline uint16_t tu_unaligned_read16(const void* mem)
 249:lib/tinyusb/src/common/tusb_common.h **** {
 250:lib/tinyusb/src/common/tusb_common.h ****   volatile uint8_t const* buf8 = (uint8_t const*) mem;
 251:lib/tinyusb/src/common/tusb_common.h ****   return tu_u16(buf8[1], buf8[0]);
 252:lib/tinyusb/src/common/tusb_common.h **** }
 253:lib/tinyusb/src/common/tusb_common.h **** 
 254:lib/tinyusb/src/common/tusb_common.h **** TU_ATTR_ALWAYS_INLINE static inline void tu_unaligned_write16(void* mem, uint16_t value)
 255:lib/tinyusb/src/common/tusb_common.h **** {
 256:lib/tinyusb/src/common/tusb_common.h ****   volatile uint8_t* buf8 = (uint8_t*) mem;
 257:lib/tinyusb/src/common/tusb_common.h ****   buf8[0] = tu_u16_low(value);
 258:lib/tinyusb/src/common/tusb_common.h ****   buf8[1] = tu_u16_high(value);
 259:lib/tinyusb/src/common/tusb_common.h **** }
 260:lib/tinyusb/src/common/tusb_common.h **** 
 261:lib/tinyusb/src/common/tusb_common.h **** 
 262:lib/tinyusb/src/common/tusb_common.h **** #else
 263:lib/tinyusb/src/common/tusb_common.h **** 
 264:lib/tinyusb/src/common/tusb_common.h **** // MCU that could access unaligned memory natively
 265:lib/tinyusb/src/common/tusb_common.h **** TU_ATTR_ALWAYS_INLINE static inline uint32_t tu_unaligned_read32(const void *mem) {
 266:lib/tinyusb/src/common/tusb_common.h ****   return *((uint32_t const *) mem);
 267:lib/tinyusb/src/common/tusb_common.h **** }
 268:lib/tinyusb/src/common/tusb_common.h **** 
 269:lib/tinyusb/src/common/tusb_common.h **** TU_ATTR_ALWAYS_INLINE static inline uint16_t tu_unaligned_read16(const void *mem) {
 270:lib/tinyusb/src/common/tusb_common.h ****   return *((uint16_t const *) mem);
 271:lib/tinyusb/src/common/tusb_common.h **** }
 272:lib/tinyusb/src/common/tusb_common.h **** 
 273:lib/tinyusb/src/common/tusb_common.h **** TU_ATTR_ALWAYS_INLINE static inline void tu_unaligned_write32(void *mem, uint32_t value) {
 4275              		.loc 3 273 42 view .LVU1391
 4276              	.LBB498:
 274:lib/tinyusb/src/common/tusb_common.h ****   *((uint32_t *) mem) = value;
 4277              		.loc 3 274 3 view .LVU1392
 4278              		.loc 3 274 23 is_stmt 0 view .LVU1393
 4279 0482 42F8041B 		str	r1, [r2], #4
 4280              	.LVL301:
 4281              		.loc 3 274 23 view .LVU1394
 4282              	.LBE498:
 4283              	.LBE497:
 867:lib/tinyusb/src/portable/synopsys/dwc2/dcd_dwc2.c ****   }
 4284              		.loc 1 867 5 is_stmt 1 view .LVU1395
 865:lib/tinyusb/src/portable/synopsys/dwc2/dcd_dwc2.c ****     tu_unaligned_write32(dst, *rx_fifo);
 4285              		.loc 1 865 9 view .LVU1396
 4286 0486 9042     		cmp	r0, r2
 4287 0488 F9D1     		bne	.L252
 4288              	.LVL302:
 4289              	.L251:
 871:lib/tinyusb/src/portable/synopsys/dwc2/dcd_dwc2.c ****   if (bytes_rem != 0) {
 4290              		.loc 1 871 3 view .LVU1397
 872:lib/tinyusb/src/portable/synopsys/dwc2/dcd_dwc2.c ****     uint32_t const tmp = *rx_fifo;
 4291              		.loc 1 872 3 view .LVU1398
 872:lib/tinyusb/src/portable/synopsys/dwc2/dcd_dwc2.c ****     uint32_t const tmp = *rx_fifo;
 4292              		.loc 1 872 6 is_stmt 0 view .LVU1399
 4293 048a 18F00301 		ands	r1, r8, #3
 871:lib/tinyusb/src/portable/synopsys/dwc2/dcd_dwc2.c ****   if (bytes_rem != 0) {
 4294              		.loc 1 871 33 view .LVU1400
ARM GAS  /tmp/claude-502/ccFotbfS.s 			page 184


 4295 048e 5FFA88FC 		uxtb	ip, r8
 872:lib/tinyusb/src/portable/synopsys/dwc2/dcd_dwc2.c ****     uint32_t const tmp = *rx_fifo;
 4296              		.loc 1 872 6 view .LVU1401
 4297 0492 10D0     		beq	.L253
 4298              	.LBB499:
 873:lib/tinyusb/src/portable/synopsys/dwc2/dcd_dwc2.c ****     dst[0] = tu_u32_byte0(tmp);
 4299              		.loc 1 873 5 is_stmt 1 view .LVU1402
 873:lib/tinyusb/src/portable/synopsys/dwc2/dcd_dwc2.c ****     dst[0] = tu_u32_byte0(tmp);
 4300              		.loc 1 873 20 is_stmt 0 view .LVU1403
 4301 0494 04F58052 		add	r2, r4, #4096
 875:lib/tinyusb/src/portable/synopsys/dwc2/dcd_dwc2.c ****     if (bytes_rem > 2) dst[2] = tu_u32_byte2(tmp);
 4302              		.loc 1 875 8 view .LVU1404
 4303 0498 1CF0020F 		tst	ip, #2
 873:lib/tinyusb/src/portable/synopsys/dwc2/dcd_dwc2.c ****     dst[0] = tu_u32_byte0(tmp);
 4304              		.loc 1 873 20 view .LVU1405
 4305 049c 1268     		ldr	r2, [r2]
 4306              	.LVL303:
 874:lib/tinyusb/src/portable/synopsys/dwc2/dcd_dwc2.c ****     if (bytes_rem > 1) dst[1] = tu_u32_byte1(tmp);
 4307              		.loc 1 874 5 is_stmt 1 view .LVU1406
 4308              	.LBB500:
 4309              	.LBI500:
 136:lib/tinyusb/src/common/tusb_common.h **** 
 4310              		.loc 3 136 45 view .LVU1407
 4311              	.LBB501:
 136:lib/tinyusb/src/common/tusb_common.h **** 
 4312              		.loc 3 136 75 view .LVU1408
 136:lib/tinyusb/src/common/tusb_common.h **** 
 4313              		.loc 3 136 82 is_stmt 0 view .LVU1409
 4314 049e 0270     		strb	r2, [r0]
 4315              	.LBE501:
 4316              	.LBE500:
 875:lib/tinyusb/src/portable/synopsys/dwc2/dcd_dwc2.c ****     if (bytes_rem > 2) dst[2] = tu_u32_byte2(tmp);
 4317              		.loc 1 875 5 is_stmt 1 view .LVU1410
 875:lib/tinyusb/src/portable/synopsys/dwc2/dcd_dwc2.c ****     if (bytes_rem > 2) dst[2] = tu_u32_byte2(tmp);
 4318              		.loc 1 875 8 is_stmt 0 view .LVU1411
 4319 04a0 03D0     		beq	.L254
 875:lib/tinyusb/src/portable/synopsys/dwc2/dcd_dwc2.c ****     if (bytes_rem > 2) dst[2] = tu_u32_byte2(tmp);
 4320              		.loc 1 875 24 is_stmt 1 view .LVU1412
 4321              	.LVL304:
 4322              	.LBB502:
 4323              	.LBI502:
 135:lib/tinyusb/src/common/tusb_common.h **** TU_ATTR_ALWAYS_INLINE static inline uint8_t tu_u32_byte0(uint32_t ui32) { return TU_U32_BYTE0(ui32)
 4324              		.loc 3 135 45 view .LVU1413
 4325              	.LBB503:
 135:lib/tinyusb/src/common/tusb_common.h **** TU_ATTR_ALWAYS_INLINE static inline uint8_t tu_u32_byte0(uint32_t ui32) { return TU_U32_BYTE0(ui32)
 4326              		.loc 3 135 75 view .LVU1414
 135:lib/tinyusb/src/common/tusb_common.h **** TU_ATTR_ALWAYS_INLINE static inline uint8_t tu_u32_byte0(uint32_t ui32) { return TU_U32_BYTE0(ui32)
 4327              		.loc 3 135 82 is_stmt 0 view .LVU1415
 4328 04a2 4FEA122C 		lsr	ip, r2, #8
 4329 04a6 80F801C0 		strb	ip, [r0, #1]
 4330              	.L254:
 4331              	.LBE503:
 4332              	.LBE502:
 876:lib/tinyusb/src/portable/synopsys/dwc2/dcd_dwc2.c ****   }
 4333              		.loc 1 876 5 is_stmt 1 view .LVU1416
 876:lib/tinyusb/src/portable/synopsys/dwc2/dcd_dwc2.c ****   }
 4334              		.loc 1 876 8 is_stmt 0 view .LVU1417
ARM GAS  /tmp/claude-502/ccFotbfS.s 			page 185


 4335 04aa 0329     		cmp	r1, #3
 876:lib/tinyusb/src/portable/synopsys/dwc2/dcd_dwc2.c ****   }
 4336              		.loc 1 876 24 is_stmt 1 view .LVU1418
 4337              	.LVL305:
 4338              	.LBB504:
 4339              	.LBI504:
 134:lib/tinyusb/src/common/tusb_common.h **** TU_ATTR_ALWAYS_INLINE static inline uint8_t tu_u32_byte1(uint32_t ui32) { return TU_U32_BYTE1(ui32)
 4340              		.loc 3 134 45 view .LVU1419
 4341              	.LBB505:
 134:lib/tinyusb/src/common/tusb_common.h **** TU_ATTR_ALWAYS_INLINE static inline uint8_t tu_u32_byte1(uint32_t ui32) { return TU_U32_BYTE1(ui32)
 4342              		.loc 3 134 75 view .LVU1420
 134:lib/tinyusb/src/common/tusb_common.h **** TU_ATTR_ALWAYS_INLINE static inline uint8_t tu_u32_byte1(uint32_t ui32) { return TU_U32_BYTE1(ui32)
 4343              		.loc 3 134 82 is_stmt 0 view .LVU1421
 4344 04ac 04BF     		itt	eq
 4345 04ae 120C     		lsreq	r2, r2, #16
 4346              	.LVL306:
 134:lib/tinyusb/src/common/tusb_common.h **** TU_ATTR_ALWAYS_INLINE static inline uint8_t tu_u32_byte1(uint32_t ui32) { return TU_U32_BYTE1(ui32)
 4347              		.loc 3 134 82 view .LVU1422
 4348 04b0 8270     		strbeq	r2, [r0, #2]
 4349              	.LBE505:
 4350              	.LBE504:
 4351              	.LBE499:
 4352              	.LBE506:
 4353              	.LBE508:
 960:lib/tinyusb/src/portable/synopsys/dwc2/dcd_dwc2.c ****       }
 4354              		.loc 1 960 22 view .LVU1423
 4355 04b2 53F809E0 		ldr	lr, [r3, r9]
 4356              	.L253:
 4357              	.LVL307:
 960:lib/tinyusb/src/portable/synopsys/dwc2/dcd_dwc2.c ****       }
 4358              		.loc 1 960 9 is_stmt 1 view .LVU1424
 960:lib/tinyusb/src/portable/synopsys/dwc2/dcd_dwc2.c ****       }
 4359              		.loc 1 960 22 is_stmt 0 view .LVU1425
 4360 04b6 0EEB0802 		add	r2, lr, r8
 4361 04ba 43F80920 		str	r2, [r3, r9]
 4362 04be 5DE6     		b	.L250
 4363              	.LVL308:
 4364              	.L294:
 960:lib/tinyusb/src/portable/synopsys/dwc2/dcd_dwc2.c ****       }
 4365              		.loc 1 960 22 view .LVU1426
 4366              	.LBE514:
 4367              	.LBE519:
 4368              	.LBE628:
 4369              	.LBB629:
1131:lib/tinyusb/src/portable/synopsys/dwc2/dcd_dwc2.c ****         break;
 4370              		.loc 1 1131 15 view .LVU1427
 4371 04c0 0223     		movs	r3, #2
 4372 04c2 C1E5     		b	.L234
 4373              	.LVL309:
 4374              	.L386:
1131:lib/tinyusb/src/portable/synopsys/dwc2/dcd_dwc2.c ****         break;
 4375              		.loc 1 1131 15 view .LVU1428
 4376              	.LBE629:
 4377              	.LBB630:
1168:lib/tinyusb/src/portable/synopsys/dwc2/dcd_dwc2.c ****     }
 4378              		.loc 1 1168 7 is_stmt 1 view .LVU1429
 4379              	.LBB487:
ARM GAS  /tmp/claude-502/ccFotbfS.s 			page 186


 4380              	.LBI487:
 196:lib/tinyusb/src/device/dcd.h ****   dcd_event_t event = { .rhport = rhport, .event_id = eid };
 4381              		.loc 7 196 42 view .LVU1430
 4382              	.LBB488:
 197:lib/tinyusb/src/device/dcd.h ****   dcd_event_handler(&event, in_isr);
 4383              		.loc 7 197 3 view .LVU1431
 197:lib/tinyusb/src/device/dcd.h ****   dcd_event_handler(&event, in_isr);
 4384              		.loc 7 197 15 is_stmt 0 view .LVU1432
 4385 04c4 0023     		movs	r3, #0
 198:lib/tinyusb/src/device/dcd.h **** }
 4386              		.loc 7 198 3 view .LVU1433
 4387 04c6 05A8     		add	r0, sp, #20
 4388 04c8 0121     		movs	r1, #1
 197:lib/tinyusb/src/device/dcd.h ****   dcd_event_handler(&event, in_isr);
 4389              		.loc 7 197 15 view .LVU1434
 4390 04ca 0793     		str	r3, [sp, #28]
 4391 04cc CDE90533 		strd	r3, r3, [sp, #20]
 4392 04d0 029B     		ldr	r3, [sp, #8]
 4393 04d2 8DF81430 		strb	r3, [sp, #20]
 4394 04d6 0223     		movs	r3, #2
 4395 04d8 8DF81530 		strb	r3, [sp, #21]
 198:lib/tinyusb/src/device/dcd.h **** }
 4396              		.loc 7 198 3 is_stmt 1 view .LVU1435
 4397 04dc FFF7FEFF 		bl	dcd_event_handler
 4398              	.LVL310:
 199:lib/tinyusb/src/device/dcd.h **** 
 4399              		.loc 7 199 1 is_stmt 0 view .LVU1436
 4400 04e0 CDE5     		b	.L238
 4401              	.LVL311:
 4402              	.L392:
 199:lib/tinyusb/src/device/dcd.h **** 
 4403              		.loc 7 199 1 view .LVU1437
 4404              	.LBE488:
 4405              	.LBE487:
 4406              	.LBE630:
 4407              	.LBB631:
 4408              	.LBB568:
 4409              	.LBB564:
 4410              	.LBB560:
 4411              	.LBB535:
1078:lib/tinyusb/src/portable/synopsys/dwc2/dcd_dwc2.c **** 
 4412              		.loc 1 1078 9 is_stmt 1 view .LVU1438
1078:lib/tinyusb/src/portable/synopsys/dwc2/dcd_dwc2.c **** 
 4413              		.loc 1 1078 46 is_stmt 0 view .LVU1439
 4414 04e2 2369     		ldr	r3, [r4, #16]
1078:lib/tinyusb/src/portable/synopsys/dwc2/dcd_dwc2.c **** 
 4415              		.loc 1 1078 18 view .LVU1440
 4416 04e4 C3F3C949 		ubfx	r9, r3, #19, #10
 4417              	.LVL312:
1081:lib/tinyusb/src/portable/synopsys/dwc2/dcd_dwc2.c ****           uint16_t const remaining_bytes = (epin[n].dieptsiz & DIEPTSIZ_XFRSIZ_Msk) >> DIEPTSIZ_XFR
 4418              		.loc 1 1081 9 is_stmt 1 view .LVU1441
 4419              	.LBB536:
1081:lib/tinyusb/src/portable/synopsys/dwc2/dcd_dwc2.c ****           uint16_t const remaining_bytes = (epin[n].dieptsiz & DIEPTSIZ_XFRSIZ_Msk) >> DIEPTSIZ_XFR
 4420              		.loc 1 1081 14 view .LVU1442
1081:lib/tinyusb/src/portable/synopsys/dwc2/dcd_dwc2.c ****           uint16_t const remaining_bytes = (epin[n].dieptsiz & DIEPTSIZ_XFRSIZ_Msk) >> DIEPTSIZ_XFR
 4421              		.loc 1 1081 30 view .LVU1443
1081:lib/tinyusb/src/portable/synopsys/dwc2/dcd_dwc2.c ****           uint16_t const remaining_bytes = (epin[n].dieptsiz & DIEPTSIZ_XFRSIZ_Msk) >> DIEPTSIZ_XFR
ARM GAS  /tmp/claude-502/ccFotbfS.s 			page 187


 4422              		.loc 1 1081 9 is_stmt 0 view .LVU1444
 4423 04e8 B9F1000F 		cmp	r9, #0
 4424 04ec 4AD0     		beq	.L280
 4425              	.LBB537:
 4426              	.LBB538:
 4427              	.LBB539:
 885:lib/tinyusb/src/portable/synopsys/dwc2/dcd_dwc2.c **** 
 4428              		.loc 1 885 22 view .LVU1445
 4429 04ee 4FF0000B 		mov	fp, #0
 4430 04f2 08E0     		b	.L289
 4431              	.LVL313:
 4432              	.L396:
 885:lib/tinyusb/src/portable/synopsys/dwc2/dcd_dwc2.c **** 
 4433              		.loc 1 885 22 view .LVU1446
 4434              	.LBE539:
 4435              	.LBE538:
 4436              	.LBB546:
1093:lib/tinyusb/src/portable/synopsys/dwc2/dcd_dwc2.c ****             tu_fifo_read_n_const_addr_full_words(xfer->ff, (void*) (uintptr_t) tx_fifo, packet_size
 4437              		.loc 1 1093 13 is_stmt 1 view .LVU1447
1094:lib/tinyusb/src/portable/synopsys/dwc2/dcd_dwc2.c ****           } else {
 4438              		.loc 1 1094 13 view .LVU1448
 4439 04f4 3946     		mov	r1, r7
 4440 04f6 FFF7FEFF 		bl	tu_fifo_read_n_const_addr_full_words
 4441              	.LVL314:
 4442              	.L282:
1094:lib/tinyusb/src/portable/synopsys/dwc2/dcd_dwc2.c ****           } else {
 4443              		.loc 1 1094 13 is_stmt 0 view .LVU1449
 4444              	.LBE546:
 4445              	.LBE537:
1081:lib/tinyusb/src/portable/synopsys/dwc2/dcd_dwc2.c ****           uint16_t const remaining_bytes = (epin[n].dieptsiz & DIEPTSIZ_XFRSIZ_Msk) >> DIEPTSIZ_XFR
 4446              		.loc 1 1081 53 is_stmt 1 view .LVU1450
1081:lib/tinyusb/src/portable/synopsys/dwc2/dcd_dwc2.c ****           uint16_t const remaining_bytes = (epin[n].dieptsiz & DIEPTSIZ_XFRSIZ_Msk) >> DIEPTSIZ_XFR
 4447              		.loc 1 1081 30 view .LVU1451
1081:lib/tinyusb/src/portable/synopsys/dwc2/dcd_dwc2.c ****           uint16_t const remaining_bytes = (epin[n].dieptsiz & DIEPTSIZ_XFRSIZ_Msk) >> DIEPTSIZ_XFR
 4448              		.loc 1 1081 9 is_stmt 0 view .LVU1452
 4449 04fa 0BF1010B 		add	fp, fp, #1
 4450              	.LVL315:
1081:lib/tinyusb/src/portable/synopsys/dwc2/dcd_dwc2.c ****           uint16_t const remaining_bytes = (epin[n].dieptsiz & DIEPTSIZ_XFRSIZ_Msk) >> DIEPTSIZ_XFR
 4451              		.loc 1 1081 9 view .LVU1453
 4452 04fe 1FFA8BF3 		uxth	r3, fp
 4453 0502 9945     		cmp	r9, r3
 4454 0504 3ED9     		bls	.L280
 4455              	.L289:
 4456              	.LVL316:
 4457              	.LBB556:
1082:lib/tinyusb/src/portable/synopsys/dwc2/dcd_dwc2.c **** 
 4458              		.loc 1 1082 11 is_stmt 1 view .LVU1454
1082:lib/tinyusb/src/portable/synopsys/dwc2/dcd_dwc2.c **** 
 4459              		.loc 1 1082 52 is_stmt 0 view .LVU1455
 4460 0506 2269     		ldr	r2, [r4, #16]
 4461              	.LVL317:
1085:lib/tinyusb/src/portable/synopsys/dwc2/dcd_dwc2.c **** 
 4462              		.loc 1 1085 11 is_stmt 1 view .LVU1456
 4463              	.LBB547:
 4464              	.LBI547:
 151:lib/tinyusb/src/common/tusb_common.h **** TU_ATTR_ALWAYS_INLINE static inline uint32_t tu_min32 (uint32_t x, uint32_t y) { return (x < y) ? x
 4465              		.loc 3 151 46 view .LVU1457
ARM GAS  /tmp/claude-502/ccFotbfS.s 			page 188


 4466              	.LBB548:
 151:lib/tinyusb/src/common/tusb_common.h **** TU_ATTR_ALWAYS_INLINE static inline uint32_t tu_min32 (uint32_t x, uint32_t y) { return (x < y) ? x
 4467              		.loc 3 151 82 view .LVU1458
 4468              	.LBE548:
 4469              	.LBE547:
1089:lib/tinyusb/src/portable/synopsys/dwc2/dcd_dwc2.c **** 
 4470              		.loc 1 1089 72 is_stmt 0 view .LVU1459
 4471 0508 1C49     		ldr	r1, .L399+20
1089:lib/tinyusb/src/portable/synopsys/dwc2/dcd_dwc2.c **** 
 4472              		.loc 1 1089 38 view .LVU1460
 4473 050a A369     		ldr	r3, [r4, #24]
 4474              	.LBB551:
 4475              	.LBB549:
 151:lib/tinyusb/src/common/tusb_common.h **** TU_ATTR_ALWAYS_INLINE static inline uint32_t tu_min32 (uint32_t x, uint32_t y) { return (x < y) ? x
 4476              		.loc 3 151 101 view .LVU1461
 4477 050c 92B2     		uxth	r2, r2
 151:lib/tinyusb/src/common/tusb_common.h **** TU_ATTR_ALWAYS_INLINE static inline uint32_t tu_min32 (uint32_t x, uint32_t y) { return (x < y) ? x
 4478              		.loc 3 151 101 view .LVU1462
 4479              	.LBE549:
 4480              	.LBE551:
1089:lib/tinyusb/src/portable/synopsys/dwc2/dcd_dwc2.c **** 
 4481              		.loc 1 1089 72 view .LVU1463
 4482 050e 01EA8303 		and	r3, r1, r3, lsl #2
 4483              	.LBB552:
 4484              	.LBB550:
 151:lib/tinyusb/src/common/tusb_common.h **** TU_ATTR_ALWAYS_INLINE static inline uint32_t tu_min32 (uint32_t x, uint32_t y) { return (x < y) ? x
 4485              		.loc 3 151 101 view .LVU1464
 4486 0512 B8F81A10 		ldrh	r1, [r8, #26]
 4487 0516 8A42     		cmp	r2, r1
 4488 0518 28BF     		it	cs
 4489 051a 0A46     		movcs	r2, r1
 4490              	.LVL318:
 151:lib/tinyusb/src/common/tusb_common.h **** TU_ATTR_ALWAYS_INLINE static inline uint32_t tu_min32 (uint32_t x, uint32_t y) { return (x < y) ? x
 4491              		.loc 3 151 101 view .LVU1465
 4492              	.LBE550:
 4493              	.LBE552:
1089:lib/tinyusb/src/portable/synopsys/dwc2/dcd_dwc2.c **** 
 4494              		.loc 1 1089 11 is_stmt 1 view .LVU1466
1089:lib/tinyusb/src/portable/synopsys/dwc2/dcd_dwc2.c **** 
 4495              		.loc 1 1089 14 is_stmt 0 view .LVU1467
 4496 051c 9A42     		cmp	r2, r3
 4497 051e 31D8     		bhi	.L280
1092:lib/tinyusb/src/portable/synopsys/dwc2/dcd_dwc2.c ****             volatile uint32_t* tx_fifo = dwc2->fifo[n];
 4498              		.loc 1 1092 11 is_stmt 1 view .LVU1468
1092:lib/tinyusb/src/portable/synopsys/dwc2/dcd_dwc2.c ****             volatile uint32_t* tx_fifo = dwc2->fifo[n];
 4499              		.loc 1 1092 19 is_stmt 0 view .LVU1469
 4500 0520 D8F81400 		ldr	r0, [r8, #20]
1092:lib/tinyusb/src/portable/synopsys/dwc2/dcd_dwc2.c ****             volatile uint32_t* tx_fifo = dwc2->fifo[n];
 4501              		.loc 1 1092 14 view .LVU1470
 4502 0524 0028     		cmp	r0, #0
 4503 0526 E5D1     		bne	.L396
1096:lib/tinyusb/src/portable/synopsys/dwc2/dcd_dwc2.c **** 
 4504              		.loc 1 1096 13 is_stmt 1 view .LVU1471
 4505              	.LBB553:
 4506              	.LBB543:
 889:lib/tinyusb/src/portable/synopsys/dwc2/dcd_dwc2.c ****     *tx_fifo = tu_unaligned_read32(src);
 4507              		.loc 1 889 9 is_stmt 0 view .LVU1472
ARM GAS  /tmp/claude-502/ccFotbfS.s 			page 189


 4508 0528 9008     		lsrs	r0, r2, #2
 4509              	.LBE543:
 4510              	.LBE553:
1096:lib/tinyusb/src/portable/synopsys/dwc2/dcd_dwc2.c **** 
 4511              		.loc 1 1096 46 view .LVU1473
 4512 052a D8F810C0 		ldr	ip, [r8, #16]
 4513              	.LVL319:
 4514              	.LBB554:
 4515              	.LBI538:
 881:lib/tinyusb/src/portable/synopsys/dwc2/dcd_dwc2.c ****   (void) rhport;
 4516              		.loc 1 881 13 is_stmt 1 view .LVU1474
 4517              	.LBB544:
 882:lib/tinyusb/src/portable/synopsys/dwc2/dcd_dwc2.c **** 
 4518              		.loc 1 882 3 view .LVU1475
 884:lib/tinyusb/src/portable/synopsys/dwc2/dcd_dwc2.c ****   volatile uint32_t* tx_fifo = dwc2->fifo[fifo_num];
 4519              		.loc 1 884 3 view .LVU1476
 885:lib/tinyusb/src/portable/synopsys/dwc2/dcd_dwc2.c **** 
 4520              		.loc 1 885 3 view .LVU1477
 888:lib/tinyusb/src/portable/synopsys/dwc2/dcd_dwc2.c ****   while (full_words--) {
 4521              		.loc 1 888 3 view .LVU1478
 889:lib/tinyusb/src/portable/synopsys/dwc2/dcd_dwc2.c ****     *tx_fifo = tu_unaligned_read32(src);
 4522              		.loc 1 889 3 view .LVU1479
 889:lib/tinyusb/src/portable/synopsys/dwc2/dcd_dwc2.c ****     *tx_fifo = tu_unaligned_read32(src);
 4523              		.loc 1 889 9 view .LVU1480
 889:lib/tinyusb/src/portable/synopsys/dwc2/dcd_dwc2.c ****     *tx_fifo = tu_unaligned_read32(src);
 4524              		.loc 1 889 9 is_stmt 0 view .LVU1481
 4525 052e 46D0     		beq	.L299
 4526 0530 0CEB8000 		add	r0, ip, r0, lsl #2
 4527 0534 6346     		mov	r3, ip
 4528              	.LVL320:
 4529              	.L284:
 890:lib/tinyusb/src/portable/synopsys/dwc2/dcd_dwc2.c ****     src += 4;
 4530              		.loc 1 890 5 is_stmt 1 view .LVU1482
 4531              	.LBB540:
 4532              	.LBI540:
 265:lib/tinyusb/src/common/tusb_common.h ****   return *((uint32_t const *) mem);
 4533              		.loc 3 265 46 view .LVU1483
 4534              	.LBB541:
 266:lib/tinyusb/src/common/tusb_common.h **** }
 4535              		.loc 3 266 3 view .LVU1484
 266:lib/tinyusb/src/common/tusb_common.h **** }
 4536              		.loc 3 266 10 is_stmt 0 view .LVU1485
 4537 0536 53F8041B 		ldr	r1, [r3], #4
 4538              	.LVL321:
 266:lib/tinyusb/src/common/tusb_common.h **** }
 4539              		.loc 3 266 10 view .LVU1486
 4540              	.LBE541:
 4541              	.LBE540:
 889:lib/tinyusb/src/portable/synopsys/dwc2/dcd_dwc2.c ****     *tx_fifo = tu_unaligned_read32(src);
 4542              		.loc 1 889 9 view .LVU1487
 4543 053a 8342     		cmp	r3, r0
 890:lib/tinyusb/src/portable/synopsys/dwc2/dcd_dwc2.c ****     src += 4;
 4544              		.loc 1 890 14 view .LVU1488
 4545 053c 3960     		str	r1, [r7]
 891:lib/tinyusb/src/portable/synopsys/dwc2/dcd_dwc2.c ****   }
 4546              		.loc 1 891 5 is_stmt 1 view .LVU1489
 4547              	.LVL322:
ARM GAS  /tmp/claude-502/ccFotbfS.s 			page 190


 889:lib/tinyusb/src/portable/synopsys/dwc2/dcd_dwc2.c ****     *tx_fifo = tu_unaligned_read32(src);
 4548              		.loc 1 889 9 view .LVU1490
 4549 053e FAD1     		bne	.L284
 4550              	.LVL323:
 4551              	.L283:
 895:lib/tinyusb/src/portable/synopsys/dwc2/dcd_dwc2.c ****   if (bytes_rem) {
 4552              		.loc 1 895 3 view .LVU1491
 896:lib/tinyusb/src/portable/synopsys/dwc2/dcd_dwc2.c ****     uint32_t tmp_word = src[0];
 4553              		.loc 1 896 3 view .LVU1492
 896:lib/tinyusb/src/portable/synopsys/dwc2/dcd_dwc2.c ****     uint32_t tmp_word = src[0];
 4554              		.loc 1 896 6 is_stmt 0 view .LVU1493
 4555 0540 12F00301 		ands	r1, r2, #3
 895:lib/tinyusb/src/portable/synopsys/dwc2/dcd_dwc2.c ****   if (bytes_rem) {
 4556              		.loc 1 895 33 view .LVU1494
 4557 0544 5FFA82FE 		uxtb	lr, r2
 896:lib/tinyusb/src/portable/synopsys/dwc2/dcd_dwc2.c ****     uint32_t tmp_word = src[0];
 4558              		.loc 1 896 6 view .LVU1495
 4559 0548 0AD0     		beq	.L285
 4560              	.LBB542:
 897:lib/tinyusb/src/portable/synopsys/dwc2/dcd_dwc2.c ****     if (bytes_rem > 1) tmp_word |= (src[1] << 8);
 4561              		.loc 1 897 5 is_stmt 1 view .LVU1496
 898:lib/tinyusb/src/portable/synopsys/dwc2/dcd_dwc2.c ****     if (bytes_rem > 2) tmp_word |= (src[2] << 16);
 4562              		.loc 1 898 8 is_stmt 0 view .LVU1497
 4563 054a 1EF0020F 		tst	lr, #2
 897:lib/tinyusb/src/portable/synopsys/dwc2/dcd_dwc2.c ****     if (bytes_rem > 1) tmp_word |= (src[1] << 8);
 4564              		.loc 1 897 28 view .LVU1498
 4565 054e 0378     		ldrb	r3, [r0]	@ zero_extendqisi2
 4566              	.LVL324:
 898:lib/tinyusb/src/portable/synopsys/dwc2/dcd_dwc2.c ****     if (bytes_rem > 2) tmp_word |= (src[2] << 16);
 4567              		.loc 1 898 5 is_stmt 1 view .LVU1499
 898:lib/tinyusb/src/portable/synopsys/dwc2/dcd_dwc2.c ****     if (bytes_rem > 2) tmp_word |= (src[2] << 16);
 4568              		.loc 1 898 24 view .LVU1500
 898:lib/tinyusb/src/portable/synopsys/dwc2/dcd_dwc2.c ****     if (bytes_rem > 2) tmp_word |= (src[2] << 16);
 4569              		.loc 1 898 33 is_stmt 0 view .LVU1501
 4570 0550 18BF     		it	ne
 4571 0552 0388     		ldrhne	r3, [r0]	@ unaligned
 4572              	.LVL325:
 899:lib/tinyusb/src/portable/synopsys/dwc2/dcd_dwc2.c **** 
 4573              		.loc 1 899 5 is_stmt 1 view .LVU1502
 899:lib/tinyusb/src/portable/synopsys/dwc2/dcd_dwc2.c **** 
 4574              		.loc 1 899 8 is_stmt 0 view .LVU1503
 4575 0554 0329     		cmp	r1, #3
 4576 0556 02D1     		bne	.L288
 899:lib/tinyusb/src/portable/synopsys/dwc2/dcd_dwc2.c **** 
 4577              		.loc 1 899 24 is_stmt 1 view .LVU1504
 899:lib/tinyusb/src/portable/synopsys/dwc2/dcd_dwc2.c **** 
 4578              		.loc 1 899 40 is_stmt 0 view .LVU1505
 4579 0558 8178     		ldrb	r1, [r0, #2]	@ zero_extendqisi2
 899:lib/tinyusb/src/portable/synopsys/dwc2/dcd_dwc2.c **** 
 4580              		.loc 1 899 33 view .LVU1506
 4581 055a 43EA0143 		orr	r3, r3, r1, lsl #16
 4582              	.LVL326:
 4583              	.L288:
 901:lib/tinyusb/src/portable/synopsys/dwc2/dcd_dwc2.c ****   }
 4584              		.loc 1 901 5 is_stmt 1 view .LVU1507
 901:lib/tinyusb/src/portable/synopsys/dwc2/dcd_dwc2.c ****   }
 4585              		.loc 1 901 14 is_stmt 0 view .LVU1508
ARM GAS  /tmp/claude-502/ccFotbfS.s 			page 191


 4586 055e 3B60     		str	r3, [r7]
 4587              	.LVL327:
 4588              	.L285:
 901:lib/tinyusb/src/portable/synopsys/dwc2/dcd_dwc2.c ****   }
 4589              		.loc 1 901 14 view .LVU1509
 4590              	.LBE542:
 4591              	.LBE544:
 4592              	.LBE554:
1099:lib/tinyusb/src/portable/synopsys/dwc2/dcd_dwc2.c ****           }
 4593              		.loc 1 1099 13 is_stmt 1 view .LVU1510
1099:lib/tinyusb/src/portable/synopsys/dwc2/dcd_dwc2.c ****           }
 4594              		.loc 1 1099 26 is_stmt 0 view .LVU1511
 4595 0560 6244     		add	r2, r2, ip
 4596              	.LVL328:
1099:lib/tinyusb/src/portable/synopsys/dwc2/dcd_dwc2.c ****           }
 4597              		.loc 1 1099 26 view .LVU1512
 4598 0562 C8F81020 		str	r2, [r8, #16]
 4599 0566 C8E7     		b	.L282
 4600              	.L400:
 4601              		.align	2
 4602              	.L399:
 4603 0568 00000000 		.word	.LANCHOR2
 4604 056c 00000000 		.word	.LANCHOR4
 4605 0570 00000000 		.word	.LANCHOR1
 4606 0574 0930544F 		.word	1330917385
 4607 0578 00000000 		.word	.LANCHOR3
 4608 057c FCFF0300 		.word	262140
 4609 0580 00000000 		.word	.LANCHOR5
 4610              	.LVL329:
 4611              	.L280:
1099:lib/tinyusb/src/portable/synopsys/dwc2/dcd_dwc2.c ****           }
 4612              		.loc 1 1099 26 view .LVU1513
 4613              	.LBE556:
 4614              	.LBE536:
1104:lib/tinyusb/src/portable/synopsys/dwc2/dcd_dwc2.c ****           dwc2->diepempmsk &= ~(1 << n);
 4615              		.loc 1 1104 9 is_stmt 1 view .LVU1514
1104:lib/tinyusb/src/portable/synopsys/dwc2/dcd_dwc2.c ****           dwc2->diepempmsk &= ~(1 << n);
 4616              		.loc 1 1104 22 is_stmt 0 view .LVU1515
 4617 0584 2369     		ldr	r3, [r4, #16]
1104:lib/tinyusb/src/portable/synopsys/dwc2/dcd_dwc2.c ****           dwc2->diepempmsk &= ~(1 << n);
 4618              		.loc 1 1104 55 view .LVU1516
 4619 0586 C3F31203 		ubfx	r3, r3, #0, #19
1104:lib/tinyusb/src/portable/synopsys/dwc2/dcd_dwc2.c ****           dwc2->diepempmsk &= ~(1 << n);
 4620              		.loc 1 1104 12 view .LVU1517
 4621 058a 002B     		cmp	r3, #0
 4622 058c 7FF457AE 		bne	.L274
1105:lib/tinyusb/src/portable/synopsys/dwc2/dcd_dwc2.c ****         }
 4623              		.loc 1 1105 11 is_stmt 1 view .LVU1518
1105:lib/tinyusb/src/portable/synopsys/dwc2/dcd_dwc2.c ****         }
 4624              		.loc 1 1105 28 is_stmt 0 view .LVU1519
 4625 0590 D6F83438 		ldr	r3, [r6, #2100]
 4626 0594 039A     		ldr	r2, [sp, #12]
 4627 0596 23EA0203 		bic	r3, r3, r2
 4628 059a C6F83438 		str	r3, [r6, #2100]
 4629 059e 4EE6     		b	.L274
 4630              	.LVL330:
 4631              	.L391:
ARM GAS  /tmp/claude-502/ccFotbfS.s 			page 192


1105:lib/tinyusb/src/portable/synopsys/dwc2/dcd_dwc2.c ****         }
 4632              		.loc 1 1105 28 view .LVU1520
 4633              	.LBE535:
1065:lib/tinyusb/src/portable/synopsys/dwc2/dcd_dwc2.c ****         } else {
 4634              		.loc 1 1065 11 is_stmt 1 view .LVU1521
 4635 05a0 0093     		str	r3, [sp]
 4636 05a2 0123     		movs	r3, #1
 4637 05a4 2946     		mov	r1, r5
 4638 05a6 0298     		ldr	r0, [sp, #8]
 4639 05a8 1A46     		mov	r2, r3
 4640 05aa FFF7FEFF 		bl	edpt_schedule_packets
 4641              	.LVL331:
 4642 05ae 3BE6     		b	.L275
 4643              	.LVL332:
 4644              	.L393:
1065:lib/tinyusb/src/portable/synopsys/dwc2/dcd_dwc2.c ****         } else {
 4645              		.loc 1 1065 11 is_stmt 0 view .LVU1522
 4646              	.LBE560:
 4647              	.LBE564:
 4648              	.LBE568:
 4649              	.LBE631:
 4650              	.LBB632:
 4651              	.LBB597:
 4652              	.LBB594:
 4653              	.LBB591:
 4654              	.LBB588:
1038:lib/tinyusb/src/portable/synopsys/dwc2/dcd_dwc2.c ****         } else {
 4655              		.loc 1 1038 11 is_stmt 1 view .LVU1523
 4656 05b0 0092     		str	r2, [sp]
 4657 05b2 2146     		mov	r1, r4
 4658 05b4 2246     		mov	r2, r4
 4659 05b6 5846     		mov	r0, fp
 4660 05b8 FFF7FEFF 		bl	edpt_schedule_packets
 4661              	.LVL333:
 4662 05bc 0FE7     		b	.L264
 4663              	.LVL334:
 4664              	.L299:
1038:lib/tinyusb/src/portable/synopsys/dwc2/dcd_dwc2.c ****         } else {
 4665              		.loc 1 1038 11 is_stmt 0 view .LVU1524
 4666              	.LBE588:
 4667              	.LBE591:
 4668              	.LBE594:
 4669              	.LBE597:
 4670              	.LBE632:
 4671              	.LBB633:
 4672              	.LBB569:
 4673              	.LBB565:
 4674              	.LBB561:
 4675              	.LBB559:
 4676              	.LBB558:
 4677              	.LBB557:
 4678              	.LBB555:
 4679              	.LBB545:
 889:lib/tinyusb/src/portable/synopsys/dwc2/dcd_dwc2.c ****     *tx_fifo = tu_unaligned_read32(src);
 4680              		.loc 1 889 9 view .LVU1525
 4681 05be 6046     		mov	r0, ip
 4682 05c0 BEE7     		b	.L283
ARM GAS  /tmp/claude-502/ccFotbfS.s 			page 193


 4683              	.LVL335:
 4684              	.L295:
 889:lib/tinyusb/src/portable/synopsys/dwc2/dcd_dwc2.c ****     *tx_fifo = tu_unaligned_read32(src);
 4685              		.loc 1 889 9 view .LVU1526
 4686              	.LBE545:
 4687              	.LBE555:
 4688              	.LBE557:
 4689              	.LBE558:
 4690              	.LBE559:
 4691              	.LBE561:
 4692              	.LBE565:
 4693              	.LBE569:
 4694              	.LBE633:
 4695              	.LBB634:
 4696              	.LBB520:
 4697              	.LBB515:
 4698              	.LBB509:
 4699              	.LBB507:
 865:lib/tinyusb/src/portable/synopsys/dwc2/dcd_dwc2.c ****     tu_unaligned_write32(dst, *rx_fifo);
 4700              		.loc 1 865 9 view .LVU1527
 4701 05c2 7046     		mov	r0, lr
 4702 05c4 61E7     		b	.L251
 4703              	.LBE507:
 4704              	.LBE509:
 4705              	.LBE515:
 4706              	.LBE520:
 4707              	.LBE634:
 4708              		.cfi_endproc
 4709              	.LFE425:
 4711 05c6 00BF     		.section	.bss._allocated_fifo_words_tx,"aw",%nobits
 4712              		.align	1
 4713              		.set	.LANCHOR1,. + 0
 4716              	_allocated_fifo_words_tx:
 4717 0000 0000     		.space	2
 4718              		.section	.bss._setup_packet,"aw",%nobits
 4719              		.align	2
 4720              		.set	.LANCHOR5,. + 0
 4723              	_setup_packet:
 4724 0000 00000000 		.space	8
 4724      00000000 
 4725              		.section	.bss._sof_en,"aw",%nobits
 4726              		.set	.LANCHOR4,. + 0
 4729              	_sof_en:
 4730 0000 00       		.space	1
 4731              		.section	.bss.ep0_pending,"aw",%nobits
 4732              		.align	2
 4733              		.set	.LANCHOR3,. + 0
 4736              	ep0_pending:
 4737 0000 00000000 		.space	4
 4738              		.section	.bss.xfer_status,"aw",%nobits
 4739              		.align	2
 4740              		.set	.LANCHOR2,. + 0
 4743              	xfer_status:
 4744 0000 00000000 		.space	288
 4744      00000000 
 4744      00000000 
 4744      00000000 
ARM GAS  /tmp/claude-502/ccFotbfS.s 			page 194


 4744      00000000 
 4745              		.section	.rodata._dwc2_controller,"a"
 4746              		.align	2
 4747              		.set	.LANCHOR0,. + 0
 4750              	_dwc2_controller:
 4751 0000 00000840 		.word	1074266112
 4752 0004 65000000 		.word	101
 4753 0008 09       		.byte	9
 4754 0009 000000   		.space	3
 4755 000c 00100000 		.word	4096
 4756 0010 00000440 		.word	1074003968
 4757 0014 4D000000 		.word	77
 4758 0018 09       		.byte	9
 4759 0019 000000   		.space	3
 4760 001c 00100000 		.word	4096
 4761              		.text
 4762              	.Letext0:
 4763              		.file 8 "/Users/reza.kalfane/Workspaces/Daisy/DaisyExamples/libDaisy/Drivers/CMSIS/Device/ST/STM32
 4764              		.file 9 "/Library/DaisyToolchain/0.2.0/arm/arm-none-eabi/include/machine/_default_types.h"
 4765              		.file 10 "/Library/DaisyToolchain/0.2.0/arm/arm-none-eabi/include/sys/_stdint.h"
 4766              		.file 11 "lib/tinyusb/src/common/tusb_fifo.h"
 4767              		.file 12 "lib/tinyusb/src/portable/synopsys/dwc2/dwc2_type.h"
 4768              		.file 13 "/Users/reza.kalfane/Workspaces/Daisy/DaisyExamples/libDaisy/Drivers/CMSIS/Device/ST/STM3
 4769              		.file 14 "<built-in>"
ARM GAS  /tmp/claude-502/ccFotbfS.s 			page 195


DEFINED SYMBOLS
                            *ABS*:0000000000000000 dcd_dwc2.c
/tmp/claude-502/ccFotbfS.s:19     .text.fifo_alloc:0000000000000000 $t
/tmp/claude-502/ccFotbfS.s:25     .text.fifo_alloc:0000000000000000 fifo_alloc
/tmp/claude-502/ccFotbfS.s:254    .text.fifo_alloc:000000000000009c $d
/tmp/claude-502/ccFotbfS.s:260    .text.edpt_activate:0000000000000000 $t
/tmp/claude-502/ccFotbfS.s:266    .text.edpt_activate:0000000000000000 edpt_activate
/tmp/claude-502/ccFotbfS.s:423    .text.edpt_activate:000000000000008c $d
/tmp/claude-502/ccFotbfS.s:429    .text.edpt_disable:0000000000000000 $t
/tmp/claude-502/ccFotbfS.s:435    .text.edpt_disable:0000000000000000 edpt_disable
/tmp/claude-502/ccFotbfS.s:681    .text.edpt_disable:00000000000000c8 $d
/tmp/claude-502/ccFotbfS.s:688    .text.edpt_schedule_packets:0000000000000000 $t
/tmp/claude-502/ccFotbfS.s:694    .text.edpt_schedule_packets:0000000000000000 edpt_schedule_packets
/tmp/claude-502/ccFotbfS.s:931    .text.edpt_schedule_packets:00000000000000fc $d
/tmp/claude-502/ccFotbfS.s:939    .text.dcd_init:0000000000000000 $t
/tmp/claude-502/ccFotbfS.s:946    .text.dcd_init:0000000000000000 dcd_init
/tmp/claude-502/ccFotbfS.s:1529   .text.dcd_init:00000000000001c8 $d
/tmp/claude-502/ccFotbfS.s:1554   .text.dcd_int_enable:0000000000000000 $t
/tmp/claude-502/ccFotbfS.s:1561   .text.dcd_int_enable:0000000000000000 dcd_int_enable
/tmp/claude-502/ccFotbfS.s:1620   .text.dcd_int_enable:0000000000000024 $d
/tmp/claude-502/ccFotbfS.s:1626   .text.dcd_int_disable:0000000000000000 $t
/tmp/claude-502/ccFotbfS.s:1633   .text.dcd_int_disable:0000000000000000 dcd_int_disable
/tmp/claude-502/ccFotbfS.s:1723   .text.dcd_int_disable:000000000000002c $d
/tmp/claude-502/ccFotbfS.s:1729   .text.dcd_set_address:0000000000000000 $t
/tmp/claude-502/ccFotbfS.s:1736   .text.dcd_set_address:0000000000000000 dcd_set_address
/tmp/claude-502/ccFotbfS.s:1849   .text.dcd_set_address:0000000000000038 $d
/tmp/claude-502/ccFotbfS.s:1856   .text.dcd_remote_wakeup:0000000000000000 $t
/tmp/claude-502/ccFotbfS.s:1863   .text.dcd_remote_wakeup:0000000000000000 dcd_remote_wakeup
/tmp/claude-502/ccFotbfS.s:1981   .text.dcd_remote_wakeup:0000000000000048 $d
/tmp/claude-502/ccFotbfS.s:1988   .text.dcd_connect:0000000000000000 $t
/tmp/claude-502/ccFotbfS.s:1995   .text.dcd_connect:0000000000000000 dcd_connect
/tmp/claude-502/ccFotbfS.s:2022   .text.dcd_connect:0000000000000014 $d
/tmp/claude-502/ccFotbfS.s:2027   .text.dcd_disconnect:0000000000000000 $t
/tmp/claude-502/ccFotbfS.s:2034   .text.dcd_disconnect:0000000000000000 dcd_disconnect
/tmp/claude-502/ccFotbfS.s:2061   .text.dcd_disconnect:0000000000000014 $d
/tmp/claude-502/ccFotbfS.s:2066   .text.dcd_sof_enable:0000000000000000 $t
/tmp/claude-502/ccFotbfS.s:2073   .text.dcd_sof_enable:0000000000000000 dcd_sof_enable
/tmp/claude-502/ccFotbfS.s:2119   .text.dcd_sof_enable:0000000000000024 $d
/tmp/claude-502/ccFotbfS.s:2125   .text.dcd_edpt_open:0000000000000000 $t
/tmp/claude-502/ccFotbfS.s:2132   .text.dcd_edpt_open:0000000000000000 dcd_edpt_open
/tmp/claude-502/ccFotbfS.s:2219   .text.dcd_edpt_close_all:0000000000000000 $t
/tmp/claude-502/ccFotbfS.s:2226   .text.dcd_edpt_close_all:0000000000000000 dcd_edpt_close_all
/tmp/claude-502/ccFotbfS.s:2406   .text.dcd_edpt_close_all:0000000000000090 $d
/tmp/claude-502/ccFotbfS.s:2413   .text.dcd_edpt_iso_alloc:0000000000000000 $t
/tmp/claude-502/ccFotbfS.s:2420   .text.dcd_edpt_iso_alloc:0000000000000000 dcd_edpt_iso_alloc
/tmp/claude-502/ccFotbfS.s:2470   .text.dcd_edpt_iso_activate:0000000000000000 $t
/tmp/claude-502/ccFotbfS.s:2477   .text.dcd_edpt_iso_activate:0000000000000000 dcd_edpt_iso_activate
/tmp/claude-502/ccFotbfS.s:2516   .text.dcd_edpt_xfer:0000000000000000 $t
/tmp/claude-502/ccFotbfS.s:2523   .text.dcd_edpt_xfer:0000000000000000 dcd_edpt_xfer
/tmp/claude-502/ccFotbfS.s:2689   .text.dcd_edpt_xfer:0000000000000074 $d
/tmp/claude-502/ccFotbfS.s:2695   .text.dcd_edpt_xfer_fifo:0000000000000000 $t
/tmp/claude-502/ccFotbfS.s:2702   .text.dcd_edpt_xfer_fifo:0000000000000000 dcd_edpt_xfer_fifo
/tmp/claude-502/ccFotbfS.s:2862   .text.dcd_edpt_xfer_fifo:0000000000000074 $d
/tmp/claude-502/ccFotbfS.s:2867   .text.dcd_edpt_close:0000000000000000 $t
/tmp/claude-502/ccFotbfS.s:2874   .text.dcd_edpt_close:0000000000000000 dcd_edpt_close
/tmp/claude-502/ccFotbfS.s:2891   .text.dcd_edpt_stall:0000000000000000 $t
/tmp/claude-502/ccFotbfS.s:2898   .text.dcd_edpt_stall:0000000000000000 dcd_edpt_stall
ARM GAS  /tmp/claude-502/ccFotbfS.s 			page 196


/tmp/claude-502/ccFotbfS.s:2915   .text.dcd_edpt_clear_stall:0000000000000000 $t
/tmp/claude-502/ccFotbfS.s:2922   .text.dcd_edpt_clear_stall:0000000000000000 dcd_edpt_clear_stall
/tmp/claude-502/ccFotbfS.s:3002   .text.dcd_edpt_clear_stall:0000000000000048 $d
/tmp/claude-502/ccFotbfS.s:3007   .text.dcd_int_handler:0000000000000000 $t
/tmp/claude-502/ccFotbfS.s:3014   .text.dcd_int_handler:0000000000000000 dcd_int_handler
/tmp/claude-502/ccFotbfS.s:3258   .text.dcd_int_handler:00000000000000dc $d
/tmp/claude-502/ccFotbfS.s:3264   .text.dcd_int_handler:00000000000000e2 $t
/tmp/claude-502/ccFotbfS.s:3663   .text.dcd_int_handler:0000000000000258 $d
/tmp/claude-502/ccFotbfS.s:3674   .text.dcd_int_handler:0000000000000270 $t
/tmp/claude-502/ccFotbfS.s:4603   .text.dcd_int_handler:0000000000000568 $d
/tmp/claude-502/ccFotbfS.s:4617   .text.dcd_int_handler:0000000000000584 $t
/tmp/claude-502/ccFotbfS.s:4712   .bss._allocated_fifo_words_tx:0000000000000000 $d
/tmp/claude-502/ccFotbfS.s:4716   .bss._allocated_fifo_words_tx:0000000000000000 _allocated_fifo_words_tx
/tmp/claude-502/ccFotbfS.s:4719   .bss._setup_packet:0000000000000000 $d
/tmp/claude-502/ccFotbfS.s:4723   .bss._setup_packet:0000000000000000 _setup_packet
/tmp/claude-502/ccFotbfS.s:4729   .bss._sof_en:0000000000000000 _sof_en
/tmp/claude-502/ccFotbfS.s:4730   .bss._sof_en:0000000000000000 $d
/tmp/claude-502/ccFotbfS.s:4732   .bss.ep0_pending:0000000000000000 $d
/tmp/claude-502/ccFotbfS.s:4736   .bss.ep0_pending:0000000000000000 ep0_pending
/tmp/claude-502/ccFotbfS.s:4739   .bss.xfer_status:0000000000000000 $d
/tmp/claude-502/ccFotbfS.s:4743   .bss.xfer_status:0000000000000000 xfer_status
/tmp/claude-502/ccFotbfS.s:4746   .rodata._dwc2_controller:0000000000000000 $d
/tmp/claude-502/ccFotbfS.s:4750   .rodata._dwc2_controller:0000000000000000 _dwc2_controller

UNDEFINED SYMBOLS
SystemCoreClock
dcd_event_handler
tu_fifo_write_n_const_addr_full_words
memset
tu_fifo_read_n_const_addr_full_words
