ARM GAS  /tmp/claude-502/ccFotbfS.s 			page 1


   1              		.cpu cortex-m7
   2              		.arch armv7e-m
   3              		.fpu fpv5-d16
   4              		.eabi_attribute 28, 1
   5              		.eabi_attribute 20, 1
   6              		.eabi_attribute 21, 1
   7              		.eabi_attribute 23, 3
   8              		.eabi_attribute 24, 1
   9              		.eabi_attribute 25, 1
  10              		.eabi_attribute 26, 1
  11              		.eabi_attribute 30, 2
  12              		.eabi_attribute 34, 1
  13              		.eabi_attribute 18, 4
  14              		.file	"dcd_dwc2.c"
  15              		.text
  16              	.Ltext0:
  17              		.cfi_sections	.debug_frame
  18              		.section	.text.fifo_alloc,"ax",%progbits
  19              		.align	1
  20              		.p2align 2,,3
  21              		.syntax unified
  22              		.thumb
  23              		.thumb_func
  25              	fifo_alloc:
  26              	.LVL0:
  27              	.LFB393:
  28              		.file 1 "lib/tinyusb/src/portable/synopsys/dwc2/dcd_dwc2.c"
   1:lib/tinyusb/src/portable/synopsys/dwc2/dcd_dwc2.c **** /*
   2:lib/tinyusb/src/portable/synopsys/dwc2/dcd_dwc2.c ****  * The MIT License (MIT)
   3:lib/tinyusb/src/portable/synopsys/dwc2/dcd_dwc2.c ****  *
   4:lib/tinyusb/src/portable/synopsys/dwc2/dcd_dwc2.c ****  * Copyright (c) 2019 William D. Jones
   5:lib/tinyusb/src/portable/synopsys/dwc2/dcd_dwc2.c ****  * Copyright (c) 2019 Ha Thach (tinyusb.org)
   6:lib/tinyusb/src/portable/synopsys/dwc2/dcd_dwc2.c ****  * Copyright (c) 2020 Jan Duempelmann
   7:lib/tinyusb/src/portable/synopsys/dwc2/dcd_dwc2.c ****  * Copyright (c) 2020 Reinhard Panhuber
   8:lib/tinyusb/src/portable/synopsys/dwc2/dcd_dwc2.c ****  *
   9:lib/tinyusb/src/portable/synopsys/dwc2/dcd_dwc2.c ****  * Permission is hereby granted, free of charge, to any person obtaining a copy
  10:lib/tinyusb/src/portable/synopsys/dwc2/dcd_dwc2.c ****  * of this software and associated documentation files (the "Software"), to deal
  11:lib/tinyusb/src/portable/synopsys/dwc2/dcd_dwc2.c ****  * in the Software without restriction, including without limitation the rights
  12:lib/tinyusb/src/portable/synopsys/dwc2/dcd_dwc2.c ****  * to use, copy, modify, merge, publish, distribute, sublicense, and/or sell
  13:lib/tinyusb/src/portable/synopsys/dwc2/dcd_dwc2.c ****  * copies of the Software, and to permit persons to whom the Software is
  14:lib/tinyusb/src/portable/synopsys/dwc2/dcd_dwc2.c ****  * furnished to do so, subject to the following conditions:
  15:lib/tinyusb/src/portable/synopsys/dwc2/dcd_dwc2.c ****  *
  16:lib/tinyusb/src/portable/synopsys/dwc2/dcd_dwc2.c ****  * The above copyright notice and this permission notice shall be included in
  17:lib/tinyusb/src/portable/synopsys/dwc2/dcd_dwc2.c ****  * all copies or substantial portions of the Software.
  18:lib/tinyusb/src/portable/synopsys/dwc2/dcd_dwc2.c ****  *
  19:lib/tinyusb/src/portable/synopsys/dwc2/dcd_dwc2.c ****  * THE SOFTWARE IS PROVIDED "AS IS", WITHOUT WARRANTY OF ANY KIND, EXPRESS OR
  20:lib/tinyusb/src/portable/synopsys/dwc2/dcd_dwc2.c ****  * IMPLIED, INCLUDING BUT NOT LIMITED TO THE WARRANTIES OF MERCHANTABILITY,
  21:lib/tinyusb/src/portable/synopsys/dwc2/dcd_dwc2.c ****  * FITNESS FOR A PARTICULAR PURPOSE AND NONINFRINGEMENT. IN NO EVENT SHALL THE
  22:lib/tinyusb/src/portable/synopsys/dwc2/dcd_dwc2.c ****  * AUTHORS OR COPYRIGHT HOLDERS BE LIABLE FOR ANY CLAIM, DAMAGES OR OTHER
  23:lib/tinyusb/src/portable/synopsys/dwc2/dcd_dwc2.c ****  * LIABILITY, WHETHER IN AN ACTION OF CONTRACT, TORT OR OTHERWISE, ARISING FROM,
  24:lib/tinyusb/src/portable/synopsys/dwc2/dcd_dwc2.c ****  * OUT OF OR IN CONNECTION WITH THE SOFTWARE OR THE USE OR OTHER DEALINGS IN
  25:lib/tinyusb/src/portable/synopsys/dwc2/dcd_dwc2.c ****  * THE SOFTWARE.
  26:lib/tinyusb/src/portable/synopsys/dwc2/dcd_dwc2.c ****  *
  27:lib/tinyusb/src/portable/synopsys/dwc2/dcd_dwc2.c ****  * This file is part of the TinyUSB stack.
  28:lib/tinyusb/src/portable/synopsys/dwc2/dcd_dwc2.c ****  */
  29:lib/tinyusb/src/portable/synopsys/dwc2/dcd_dwc2.c **** 
  30:lib/tinyusb/src/portable/synopsys/dwc2/dcd_dwc2.c **** #include "tusb_option.h"
ARM GAS  /tmp/claude-502/ccFotbfS.s 			page 2


  31:lib/tinyusb/src/portable/synopsys/dwc2/dcd_dwc2.c **** 
  32:lib/tinyusb/src/portable/synopsys/dwc2/dcd_dwc2.c **** #if CFG_TUD_ENABLED && defined(TUP_USBIP_DWC2)
  33:lib/tinyusb/src/portable/synopsys/dwc2/dcd_dwc2.c **** 
  34:lib/tinyusb/src/portable/synopsys/dwc2/dcd_dwc2.c **** #include "device/dcd.h"
  35:lib/tinyusb/src/portable/synopsys/dwc2/dcd_dwc2.c **** #include "dwc2_type.h"
  36:lib/tinyusb/src/portable/synopsys/dwc2/dcd_dwc2.c **** 
  37:lib/tinyusb/src/portable/synopsys/dwc2/dcd_dwc2.c **** // Following symbols must be defined by port header
  38:lib/tinyusb/src/portable/synopsys/dwc2/dcd_dwc2.c **** // - _dwc2_controller[]: array of controllers
  39:lib/tinyusb/src/portable/synopsys/dwc2/dcd_dwc2.c **** // - DWC2_EP_MAX: largest EP counts of all controllers
  40:lib/tinyusb/src/portable/synopsys/dwc2/dcd_dwc2.c **** // - dwc2_phy_init/dwc2_phy_update: phy init called before and after core reset
  41:lib/tinyusb/src/portable/synopsys/dwc2/dcd_dwc2.c **** // - dwc2_dcd_int_enable/dwc2_dcd_int_disable
  42:lib/tinyusb/src/portable/synopsys/dwc2/dcd_dwc2.c **** // - dwc2_remote_wakeup_delay
  43:lib/tinyusb/src/portable/synopsys/dwc2/dcd_dwc2.c **** 
  44:lib/tinyusb/src/portable/synopsys/dwc2/dcd_dwc2.c **** #if defined(TUP_USBIP_DWC2_STM32)
  45:lib/tinyusb/src/portable/synopsys/dwc2/dcd_dwc2.c ****   #include "dwc2_stm32.h"
  46:lib/tinyusb/src/portable/synopsys/dwc2/dcd_dwc2.c **** #elif defined(TUP_USBIP_DWC2_ESP32)
  47:lib/tinyusb/src/portable/synopsys/dwc2/dcd_dwc2.c ****   #include "dwc2_esp32.h"
  48:lib/tinyusb/src/portable/synopsys/dwc2/dcd_dwc2.c **** #elif TU_CHECK_MCU(OPT_MCU_GD32VF103)
  49:lib/tinyusb/src/portable/synopsys/dwc2/dcd_dwc2.c ****   #include "dwc2_gd32.h"
  50:lib/tinyusb/src/portable/synopsys/dwc2/dcd_dwc2.c **** #elif TU_CHECK_MCU(OPT_MCU_BCM2711, OPT_MCU_BCM2835, OPT_MCU_BCM2837)
  51:lib/tinyusb/src/portable/synopsys/dwc2/dcd_dwc2.c ****   #include "dwc2_bcm.h"
  52:lib/tinyusb/src/portable/synopsys/dwc2/dcd_dwc2.c **** #elif TU_CHECK_MCU(OPT_MCU_EFM32GG)
  53:lib/tinyusb/src/portable/synopsys/dwc2/dcd_dwc2.c ****   #include "dwc2_efm32.h"
  54:lib/tinyusb/src/portable/synopsys/dwc2/dcd_dwc2.c **** #elif TU_CHECK_MCU(OPT_MCU_XMC4000)
  55:lib/tinyusb/src/portable/synopsys/dwc2/dcd_dwc2.c ****   #include "dwc2_xmc.h"
  56:lib/tinyusb/src/portable/synopsys/dwc2/dcd_dwc2.c **** #else
  57:lib/tinyusb/src/portable/synopsys/dwc2/dcd_dwc2.c ****   #error "Unsupported MCUs"
  58:lib/tinyusb/src/portable/synopsys/dwc2/dcd_dwc2.c **** #endif
  59:lib/tinyusb/src/portable/synopsys/dwc2/dcd_dwc2.c **** 
  60:lib/tinyusb/src/portable/synopsys/dwc2/dcd_dwc2.c **** //--------------------------------------------------------------------+
  61:lib/tinyusb/src/portable/synopsys/dwc2/dcd_dwc2.c **** // MACRO TYPEDEF CONSTANT ENUM
  62:lib/tinyusb/src/portable/synopsys/dwc2/dcd_dwc2.c **** //--------------------------------------------------------------------+
  63:lib/tinyusb/src/portable/synopsys/dwc2/dcd_dwc2.c **** 
  64:lib/tinyusb/src/portable/synopsys/dwc2/dcd_dwc2.c **** // DWC2 registers
  65:lib/tinyusb/src/portable/synopsys/dwc2/dcd_dwc2.c **** #define DWC2_REG(_port)       ((dwc2_regs_t*) _dwc2_controller[_port].reg_base)
  66:lib/tinyusb/src/portable/synopsys/dwc2/dcd_dwc2.c **** 
  67:lib/tinyusb/src/portable/synopsys/dwc2/dcd_dwc2.c **** // Debug level for DWC2
  68:lib/tinyusb/src/portable/synopsys/dwc2/dcd_dwc2.c **** #define DWC2_DEBUG    2
  69:lib/tinyusb/src/portable/synopsys/dwc2/dcd_dwc2.c **** 
  70:lib/tinyusb/src/portable/synopsys/dwc2/dcd_dwc2.c **** #ifndef dcache_clean
  71:lib/tinyusb/src/portable/synopsys/dwc2/dcd_dwc2.c **** #define dcache_clean(_addr, _size)
  72:lib/tinyusb/src/portable/synopsys/dwc2/dcd_dwc2.c **** #endif
  73:lib/tinyusb/src/portable/synopsys/dwc2/dcd_dwc2.c **** 
  74:lib/tinyusb/src/portable/synopsys/dwc2/dcd_dwc2.c **** #ifndef dcache_invalidate
  75:lib/tinyusb/src/portable/synopsys/dwc2/dcd_dwc2.c **** #define dcache_invalidate(_addr, _size)
  76:lib/tinyusb/src/portable/synopsys/dwc2/dcd_dwc2.c **** #endif
  77:lib/tinyusb/src/portable/synopsys/dwc2/dcd_dwc2.c **** 
  78:lib/tinyusb/src/portable/synopsys/dwc2/dcd_dwc2.c **** #ifndef dcache_clean_invalidate
  79:lib/tinyusb/src/portable/synopsys/dwc2/dcd_dwc2.c **** #define dcache_clean_invalidate(_addr, _size)
  80:lib/tinyusb/src/portable/synopsys/dwc2/dcd_dwc2.c **** #endif
  81:lib/tinyusb/src/portable/synopsys/dwc2/dcd_dwc2.c **** 
  82:lib/tinyusb/src/portable/synopsys/dwc2/dcd_dwc2.c **** static TU_ATTR_ALIGNED(4) uint32_t _setup_packet[2];
  83:lib/tinyusb/src/portable/synopsys/dwc2/dcd_dwc2.c **** 
  84:lib/tinyusb/src/portable/synopsys/dwc2/dcd_dwc2.c **** typedef struct {
  85:lib/tinyusb/src/portable/synopsys/dwc2/dcd_dwc2.c ****   uint8_t* buffer;
  86:lib/tinyusb/src/portable/synopsys/dwc2/dcd_dwc2.c ****   tu_fifo_t* ff;
  87:lib/tinyusb/src/portable/synopsys/dwc2/dcd_dwc2.c ****   uint16_t total_len;
ARM GAS  /tmp/claude-502/ccFotbfS.s 			page 3


  88:lib/tinyusb/src/portable/synopsys/dwc2/dcd_dwc2.c ****   uint16_t max_size;
  89:lib/tinyusb/src/portable/synopsys/dwc2/dcd_dwc2.c ****   uint8_t interval;
  90:lib/tinyusb/src/portable/synopsys/dwc2/dcd_dwc2.c **** } xfer_ctl_t;
  91:lib/tinyusb/src/portable/synopsys/dwc2/dcd_dwc2.c **** 
  92:lib/tinyusb/src/portable/synopsys/dwc2/dcd_dwc2.c **** static xfer_ctl_t xfer_status[DWC2_EP_MAX][2];
  93:lib/tinyusb/src/portable/synopsys/dwc2/dcd_dwc2.c **** #define XFER_CTL_BASE(_ep, _dir) (&xfer_status[_ep][_dir])
  94:lib/tinyusb/src/portable/synopsys/dwc2/dcd_dwc2.c **** 
  95:lib/tinyusb/src/portable/synopsys/dwc2/dcd_dwc2.c **** // EP0 transfers are limited to 1 packet - larger sizes has to be split
  96:lib/tinyusb/src/portable/synopsys/dwc2/dcd_dwc2.c **** static uint16_t ep0_pending[2];               // Index determines direction as tusb_dir_t type
  97:lib/tinyusb/src/portable/synopsys/dwc2/dcd_dwc2.c **** 
  98:lib/tinyusb/src/portable/synopsys/dwc2/dcd_dwc2.c **** // TX FIFO RAM allocation so far in words - RX FIFO size is readily available from dwc2->grxfsiz
  99:lib/tinyusb/src/portable/synopsys/dwc2/dcd_dwc2.c **** static uint16_t _allocated_fifo_words_tx;     // TX FIFO size in words (IN EPs)
 100:lib/tinyusb/src/portable/synopsys/dwc2/dcd_dwc2.c **** 
 101:lib/tinyusb/src/portable/synopsys/dwc2/dcd_dwc2.c **** // SOF enabling flag - required for SOF to not get disabled in ISR when SOF was enabled by
 102:lib/tinyusb/src/portable/synopsys/dwc2/dcd_dwc2.c **** static bool _sof_en;
 103:lib/tinyusb/src/portable/synopsys/dwc2/dcd_dwc2.c **** 
 104:lib/tinyusb/src/portable/synopsys/dwc2/dcd_dwc2.c **** // Calculate the RX FIFO size according to minimum recommendations from reference manual
 105:lib/tinyusb/src/portable/synopsys/dwc2/dcd_dwc2.c **** // RxFIFO = (5 * number of control endpoints + 8) +
 106:lib/tinyusb/src/portable/synopsys/dwc2/dcd_dwc2.c **** //          ((largest USB packet used / 4) + 1 for status information) +
 107:lib/tinyusb/src/portable/synopsys/dwc2/dcd_dwc2.c **** //          (2 * number of OUT endpoints) + 1 for Global NAK
 108:lib/tinyusb/src/portable/synopsys/dwc2/dcd_dwc2.c **** // with number of control endpoints = 1 we have
 109:lib/tinyusb/src/portable/synopsys/dwc2/dcd_dwc2.c **** // RxFIFO = 15 + (largest USB packet used / 4) + 2 * number of OUT endpoints
 110:lib/tinyusb/src/portable/synopsys/dwc2/dcd_dwc2.c **** // we double the largest USB packet size to be able to hold up to 2 packets
 111:lib/tinyusb/src/portable/synopsys/dwc2/dcd_dwc2.c **** static inline uint16_t calc_grxfsiz(uint16_t max_ep_size, uint8_t ep_count) {
 112:lib/tinyusb/src/portable/synopsys/dwc2/dcd_dwc2.c ****   return 15 + 2 * (max_ep_size / 4) + 2 * ep_count;
 113:lib/tinyusb/src/portable/synopsys/dwc2/dcd_dwc2.c **** }
 114:lib/tinyusb/src/portable/synopsys/dwc2/dcd_dwc2.c **** 
 115:lib/tinyusb/src/portable/synopsys/dwc2/dcd_dwc2.c **** TU_ATTR_ALWAYS_INLINE static inline void fifo_flush_tx(dwc2_regs_t* dwc2, uint8_t epnum) {
 116:lib/tinyusb/src/portable/synopsys/dwc2/dcd_dwc2.c ****   // flush TX fifo and wait for it cleared
 117:lib/tinyusb/src/portable/synopsys/dwc2/dcd_dwc2.c ****   dwc2->grstctl = GRSTCTL_TXFFLSH | (epnum << GRSTCTL_TXFNUM_Pos);
 118:lib/tinyusb/src/portable/synopsys/dwc2/dcd_dwc2.c ****   while (dwc2->grstctl & GRSTCTL_TXFFLSH_Msk) {}
 119:lib/tinyusb/src/portable/synopsys/dwc2/dcd_dwc2.c **** }
 120:lib/tinyusb/src/portable/synopsys/dwc2/dcd_dwc2.c **** TU_ATTR_ALWAYS_INLINE static inline void fifo_flush_rx(dwc2_regs_t* dwc2) {
 121:lib/tinyusb/src/portable/synopsys/dwc2/dcd_dwc2.c ****   // flush RX fifo and wait for it cleared
 122:lib/tinyusb/src/portable/synopsys/dwc2/dcd_dwc2.c ****   dwc2->grstctl = GRSTCTL_RXFFLSH;
 123:lib/tinyusb/src/portable/synopsys/dwc2/dcd_dwc2.c ****   while (dwc2->grstctl & GRSTCTL_RXFFLSH_Msk) {}
 124:lib/tinyusb/src/portable/synopsys/dwc2/dcd_dwc2.c **** }
 125:lib/tinyusb/src/portable/synopsys/dwc2/dcd_dwc2.c **** 
 126:lib/tinyusb/src/portable/synopsys/dwc2/dcd_dwc2.c **** static bool fifo_alloc(uint8_t rhport, uint8_t ep_addr, uint16_t packet_size) {
  29              		.loc 1 126 79 view -0
  30              		.cfi_startproc
  31              		@ args = 0, pretend = 0, frame = 0
  32              		@ frame_needed = 0, uses_anonymous_args = 0
 127:lib/tinyusb/src/portable/synopsys/dwc2/dcd_dwc2.c ****   dwc2_regs_t* dwc2 = DWC2_REG(rhport);
  33              		.loc 1 127 3 view .LVU1
 128:lib/tinyusb/src/portable/synopsys/dwc2/dcd_dwc2.c ****   uint8_t const ep_count = _dwc2_controller[rhport].ep_count;
  34              		.loc 1 128 3 view .LVU2
  35              		.loc 1 128 17 is_stmt 0 view .LVU3
  36 0000 264B     		ldr	r3, .L19
  37              	.LBB170:
  38              	.LBB171:
  39              		.file 2 "lib/tinyusb/src/common/tusb_types.h"
   1:lib/tinyusb/src/common/tusb_types.h **** /*
   2:lib/tinyusb/src/common/tusb_types.h ****  * The MIT License (MIT)
   3:lib/tinyusb/src/common/tusb_types.h ****  *
   4:lib/tinyusb/src/common/tusb_types.h ****  * Copyright (c) 2019 Ha Thach (tinyusb.org)
   5:lib/tinyusb/src/common/tusb_types.h ****  *
ARM GAS  /tmp/claude-502/ccFotbfS.s 			page 4


   6:lib/tinyusb/src/common/tusb_types.h ****  * Permission is hereby granted, free of charge, to any person obtaining a copy
   7:lib/tinyusb/src/common/tusb_types.h ****  * of this software and associated documentation files (the "Software"), to deal
   8:lib/tinyusb/src/common/tusb_types.h ****  * in the Software without restriction, including without limitation the rights
   9:lib/tinyusb/src/common/tusb_types.h ****  * to use, copy, modify, merge, publish, distribute, sublicense, and/or sell
  10:lib/tinyusb/src/common/tusb_types.h ****  * copies of the Software, and to permit persons to whom the Software is
  11:lib/tinyusb/src/common/tusb_types.h ****  * furnished to do so, subject to the following conditions:
  12:lib/tinyusb/src/common/tusb_types.h ****  *
  13:lib/tinyusb/src/common/tusb_types.h ****  * The above copyright notice and this permission notice shall be included in
  14:lib/tinyusb/src/common/tusb_types.h ****  * all copies or substantial portions of the Software.
  15:lib/tinyusb/src/common/tusb_types.h ****  *
  16:lib/tinyusb/src/common/tusb_types.h ****  * THE SOFTWARE IS PROVIDED "AS IS", WITHOUT WARRANTY OF ANY KIND, EXPRESS OR
  17:lib/tinyusb/src/common/tusb_types.h ****  * IMPLIED, INCLUDING BUT NOT LIMITED TO THE WARRANTIES OF MERCHANTABILITY,
  18:lib/tinyusb/src/common/tusb_types.h ****  * FITNESS FOR A PARTICULAR PURPOSE AND NONINFRINGEMENT. IN NO EVENT SHALL THE
  19:lib/tinyusb/src/common/tusb_types.h ****  * AUTHORS OR COPYRIGHT HOLDERS BE LIABLE FOR ANY CLAIM, DAMAGES OR OTHER
  20:lib/tinyusb/src/common/tusb_types.h ****  * LIABILITY, WHETHER IN AN ACTION OF CONTRACT, TORT OR OTHERWISE, ARISING FROM,
  21:lib/tinyusb/src/common/tusb_types.h ****  * OUT OF OR IN CONNECTION WITH THE SOFTWARE OR THE USE OR OTHER DEALINGS IN
  22:lib/tinyusb/src/common/tusb_types.h ****  * THE SOFTWARE.
  23:lib/tinyusb/src/common/tusb_types.h ****  *
  24:lib/tinyusb/src/common/tusb_types.h ****  * This file is part of the TinyUSB stack.
  25:lib/tinyusb/src/common/tusb_types.h ****  */
  26:lib/tinyusb/src/common/tusb_types.h **** 
  27:lib/tinyusb/src/common/tusb_types.h **** #ifndef TUSB_TYPES_H_
  28:lib/tinyusb/src/common/tusb_types.h **** #define TUSB_TYPES_H_
  29:lib/tinyusb/src/common/tusb_types.h **** 
  30:lib/tinyusb/src/common/tusb_types.h **** #include <stdbool.h>
  31:lib/tinyusb/src/common/tusb_types.h **** #include <stdint.h>
  32:lib/tinyusb/src/common/tusb_types.h **** #include "tusb_compiler.h"
  33:lib/tinyusb/src/common/tusb_types.h **** 
  34:lib/tinyusb/src/common/tusb_types.h **** #ifdef __cplusplus
  35:lib/tinyusb/src/common/tusb_types.h ****  extern "C" {
  36:lib/tinyusb/src/common/tusb_types.h **** #endif
  37:lib/tinyusb/src/common/tusb_types.h **** 
  38:lib/tinyusb/src/common/tusb_types.h **** /*------------------------------------------------------------------*/
  39:lib/tinyusb/src/common/tusb_types.h **** /* CONSTANTS
  40:lib/tinyusb/src/common/tusb_types.h ****  *------------------------------------------------------------------*/
  41:lib/tinyusb/src/common/tusb_types.h **** 
  42:lib/tinyusb/src/common/tusb_types.h **** /// defined base on EHCI specs value for Endpoint Speed
  43:lib/tinyusb/src/common/tusb_types.h **** typedef enum {
  44:lib/tinyusb/src/common/tusb_types.h ****   TUSB_SPEED_FULL = 0,
  45:lib/tinyusb/src/common/tusb_types.h ****   TUSB_SPEED_LOW  = 1,
  46:lib/tinyusb/src/common/tusb_types.h ****   TUSB_SPEED_HIGH = 2,
  47:lib/tinyusb/src/common/tusb_types.h ****   TUSB_SPEED_INVALID = 0xff,
  48:lib/tinyusb/src/common/tusb_types.h **** } tusb_speed_t;
  49:lib/tinyusb/src/common/tusb_types.h **** 
  50:lib/tinyusb/src/common/tusb_types.h **** /// defined base on USB Specs Endpoint's bmAttributes
  51:lib/tinyusb/src/common/tusb_types.h **** typedef enum {
  52:lib/tinyusb/src/common/tusb_types.h ****   TUSB_XFER_CONTROL = 0 ,
  53:lib/tinyusb/src/common/tusb_types.h ****   TUSB_XFER_ISOCHRONOUS ,
  54:lib/tinyusb/src/common/tusb_types.h ****   TUSB_XFER_BULK        ,
  55:lib/tinyusb/src/common/tusb_types.h ****   TUSB_XFER_INTERRUPT
  56:lib/tinyusb/src/common/tusb_types.h **** } tusb_xfer_type_t;
  57:lib/tinyusb/src/common/tusb_types.h **** 
  58:lib/tinyusb/src/common/tusb_types.h **** typedef enum {
  59:lib/tinyusb/src/common/tusb_types.h ****   TUSB_DIR_OUT = 0,
  60:lib/tinyusb/src/common/tusb_types.h ****   TUSB_DIR_IN  = 1,
  61:lib/tinyusb/src/common/tusb_types.h **** 
  62:lib/tinyusb/src/common/tusb_types.h ****   TUSB_DIR_IN_MASK = 0x80
ARM GAS  /tmp/claude-502/ccFotbfS.s 			page 5


  63:lib/tinyusb/src/common/tusb_types.h **** } tusb_dir_t;
  64:lib/tinyusb/src/common/tusb_types.h **** 
  65:lib/tinyusb/src/common/tusb_types.h **** enum {
  66:lib/tinyusb/src/common/tusb_types.h ****   TUSB_EPSIZE_BULK_FS = 64,
  67:lib/tinyusb/src/common/tusb_types.h ****   TUSB_EPSIZE_BULK_HS = 512,
  68:lib/tinyusb/src/common/tusb_types.h **** 
  69:lib/tinyusb/src/common/tusb_types.h ****   TUSB_EPSIZE_ISO_FS_MAX = 1023,
  70:lib/tinyusb/src/common/tusb_types.h ****   TUSB_EPSIZE_ISO_HS_MAX = 1024,
  71:lib/tinyusb/src/common/tusb_types.h **** };
  72:lib/tinyusb/src/common/tusb_types.h **** 
  73:lib/tinyusb/src/common/tusb_types.h **** /// Isochronous Endpoint Attributes
  74:lib/tinyusb/src/common/tusb_types.h **** typedef enum {
  75:lib/tinyusb/src/common/tusb_types.h ****   TUSB_ISO_EP_ATT_NO_SYNC         = 0x00,
  76:lib/tinyusb/src/common/tusb_types.h ****   TUSB_ISO_EP_ATT_ASYNCHRONOUS    = 0x04,
  77:lib/tinyusb/src/common/tusb_types.h ****   TUSB_ISO_EP_ATT_ADAPTIVE        = 0x08,
  78:lib/tinyusb/src/common/tusb_types.h ****   TUSB_ISO_EP_ATT_SYNCHRONOUS     = 0x0C,
  79:lib/tinyusb/src/common/tusb_types.h ****   TUSB_ISO_EP_ATT_DATA            = 0x00, ///< Data End Point
  80:lib/tinyusb/src/common/tusb_types.h ****   TUSB_ISO_EP_ATT_EXPLICIT_FB     = 0x10, ///< Feedback End Point
  81:lib/tinyusb/src/common/tusb_types.h ****   TUSB_ISO_EP_ATT_IMPLICIT_FB     = 0x20, ///< Data endpoint that also serves as an implicit feedba
  82:lib/tinyusb/src/common/tusb_types.h **** } tusb_iso_ep_attribute_t;
  83:lib/tinyusb/src/common/tusb_types.h **** 
  84:lib/tinyusb/src/common/tusb_types.h **** /// USB Descriptor Types
  85:lib/tinyusb/src/common/tusb_types.h **** typedef enum {
  86:lib/tinyusb/src/common/tusb_types.h ****   TUSB_DESC_DEVICE                = 0x01,
  87:lib/tinyusb/src/common/tusb_types.h ****   TUSB_DESC_CONFIGURATION         = 0x02,
  88:lib/tinyusb/src/common/tusb_types.h ****   TUSB_DESC_STRING                = 0x03,
  89:lib/tinyusb/src/common/tusb_types.h ****   TUSB_DESC_INTERFACE             = 0x04,
  90:lib/tinyusb/src/common/tusb_types.h ****   TUSB_DESC_ENDPOINT              = 0x05,
  91:lib/tinyusb/src/common/tusb_types.h ****   TUSB_DESC_DEVICE_QUALIFIER      = 0x06,
  92:lib/tinyusb/src/common/tusb_types.h ****   TUSB_DESC_OTHER_SPEED_CONFIG    = 0x07,
  93:lib/tinyusb/src/common/tusb_types.h ****   TUSB_DESC_INTERFACE_POWER       = 0x08,
  94:lib/tinyusb/src/common/tusb_types.h ****   TUSB_DESC_OTG                   = 0x09,
  95:lib/tinyusb/src/common/tusb_types.h ****   TUSB_DESC_DEBUG                 = 0x0A,
  96:lib/tinyusb/src/common/tusb_types.h ****   TUSB_DESC_INTERFACE_ASSOCIATION = 0x0B,
  97:lib/tinyusb/src/common/tusb_types.h **** 
  98:lib/tinyusb/src/common/tusb_types.h ****   TUSB_DESC_BOS                   = 0x0F,
  99:lib/tinyusb/src/common/tusb_types.h ****   TUSB_DESC_DEVICE_CAPABILITY     = 0x10,
 100:lib/tinyusb/src/common/tusb_types.h **** 
 101:lib/tinyusb/src/common/tusb_types.h ****   TUSB_DESC_FUNCTIONAL            = 0x21,
 102:lib/tinyusb/src/common/tusb_types.h **** 
 103:lib/tinyusb/src/common/tusb_types.h ****   // Class Specific Descriptor
 104:lib/tinyusb/src/common/tusb_types.h ****   TUSB_DESC_CS_DEVICE             = 0x21,
 105:lib/tinyusb/src/common/tusb_types.h ****   TUSB_DESC_CS_CONFIGURATION      = 0x22,
 106:lib/tinyusb/src/common/tusb_types.h ****   TUSB_DESC_CS_STRING             = 0x23,
 107:lib/tinyusb/src/common/tusb_types.h ****   TUSB_DESC_CS_INTERFACE          = 0x24,
 108:lib/tinyusb/src/common/tusb_types.h ****   TUSB_DESC_CS_ENDPOINT           = 0x25,
 109:lib/tinyusb/src/common/tusb_types.h **** 
 110:lib/tinyusb/src/common/tusb_types.h ****   TUSB_DESC_SUPERSPEED_ENDPOINT_COMPANION     = 0x30,
 111:lib/tinyusb/src/common/tusb_types.h ****   TUSB_DESC_SUPERSPEED_ISO_ENDPOINT_COMPANION = 0x31
 112:lib/tinyusb/src/common/tusb_types.h **** } tusb_desc_type_t;
 113:lib/tinyusb/src/common/tusb_types.h **** 
 114:lib/tinyusb/src/common/tusb_types.h **** typedef enum {
 115:lib/tinyusb/src/common/tusb_types.h ****   TUSB_REQ_GET_STATUS        = 0  ,
 116:lib/tinyusb/src/common/tusb_types.h ****   TUSB_REQ_CLEAR_FEATURE     = 1  ,
 117:lib/tinyusb/src/common/tusb_types.h ****   TUSB_REQ_RESERVED          = 2  ,
 118:lib/tinyusb/src/common/tusb_types.h ****   TUSB_REQ_SET_FEATURE       = 3  ,
 119:lib/tinyusb/src/common/tusb_types.h ****   TUSB_REQ_RESERVED2         = 4  ,
ARM GAS  /tmp/claude-502/ccFotbfS.s 			page 6


 120:lib/tinyusb/src/common/tusb_types.h ****   TUSB_REQ_SET_ADDRESS       = 5  ,
 121:lib/tinyusb/src/common/tusb_types.h ****   TUSB_REQ_GET_DESCRIPTOR    = 6  ,
 122:lib/tinyusb/src/common/tusb_types.h ****   TUSB_REQ_SET_DESCRIPTOR    = 7  ,
 123:lib/tinyusb/src/common/tusb_types.h ****   TUSB_REQ_GET_CONFIGURATION = 8  ,
 124:lib/tinyusb/src/common/tusb_types.h ****   TUSB_REQ_SET_CONFIGURATION = 9  ,
 125:lib/tinyusb/src/common/tusb_types.h ****   TUSB_REQ_GET_INTERFACE     = 10 ,
 126:lib/tinyusb/src/common/tusb_types.h ****   TUSB_REQ_SET_INTERFACE     = 11 ,
 127:lib/tinyusb/src/common/tusb_types.h ****   TUSB_REQ_SYNCH_FRAME       = 12
 128:lib/tinyusb/src/common/tusb_types.h **** } tusb_request_code_t;
 129:lib/tinyusb/src/common/tusb_types.h **** 
 130:lib/tinyusb/src/common/tusb_types.h **** typedef enum {
 131:lib/tinyusb/src/common/tusb_types.h ****   TUSB_REQ_FEATURE_EDPT_HALT     = 0,
 132:lib/tinyusb/src/common/tusb_types.h ****   TUSB_REQ_FEATURE_REMOTE_WAKEUP = 1,
 133:lib/tinyusb/src/common/tusb_types.h ****   TUSB_REQ_FEATURE_TEST_MODE     = 2
 134:lib/tinyusb/src/common/tusb_types.h **** } tusb_request_feature_selector_t;
 135:lib/tinyusb/src/common/tusb_types.h **** 
 136:lib/tinyusb/src/common/tusb_types.h **** typedef enum {
 137:lib/tinyusb/src/common/tusb_types.h ****   TUSB_REQ_TYPE_STANDARD = 0,
 138:lib/tinyusb/src/common/tusb_types.h ****   TUSB_REQ_TYPE_CLASS,
 139:lib/tinyusb/src/common/tusb_types.h ****   TUSB_REQ_TYPE_VENDOR,
 140:lib/tinyusb/src/common/tusb_types.h ****   TUSB_REQ_TYPE_INVALID
 141:lib/tinyusb/src/common/tusb_types.h **** } tusb_request_type_t;
 142:lib/tinyusb/src/common/tusb_types.h **** 
 143:lib/tinyusb/src/common/tusb_types.h **** typedef enum {
 144:lib/tinyusb/src/common/tusb_types.h ****   TUSB_REQ_RCPT_DEVICE =0,
 145:lib/tinyusb/src/common/tusb_types.h ****   TUSB_REQ_RCPT_INTERFACE,
 146:lib/tinyusb/src/common/tusb_types.h ****   TUSB_REQ_RCPT_ENDPOINT,
 147:lib/tinyusb/src/common/tusb_types.h ****   TUSB_REQ_RCPT_OTHER
 148:lib/tinyusb/src/common/tusb_types.h **** } tusb_request_recipient_t;
 149:lib/tinyusb/src/common/tusb_types.h **** 
 150:lib/tinyusb/src/common/tusb_types.h **** // https://www.usb.org/defined-class-codes
 151:lib/tinyusb/src/common/tusb_types.h **** typedef enum {
 152:lib/tinyusb/src/common/tusb_types.h ****   TUSB_CLASS_UNSPECIFIED          = 0    ,
 153:lib/tinyusb/src/common/tusb_types.h ****   TUSB_CLASS_AUDIO                = 1    ,
 154:lib/tinyusb/src/common/tusb_types.h ****   TUSB_CLASS_CDC                  = 2    ,
 155:lib/tinyusb/src/common/tusb_types.h ****   TUSB_CLASS_HID                  = 3    ,
 156:lib/tinyusb/src/common/tusb_types.h ****   TUSB_CLASS_RESERVED_4           = 4    ,
 157:lib/tinyusb/src/common/tusb_types.h ****   TUSB_CLASS_PHYSICAL             = 5    ,
 158:lib/tinyusb/src/common/tusb_types.h ****   TUSB_CLASS_IMAGE                = 6    ,
 159:lib/tinyusb/src/common/tusb_types.h ****   TUSB_CLASS_PRINTER              = 7    ,
 160:lib/tinyusb/src/common/tusb_types.h ****   TUSB_CLASS_MSC                  = 8    ,
 161:lib/tinyusb/src/common/tusb_types.h ****   TUSB_CLASS_HUB                  = 9    ,
 162:lib/tinyusb/src/common/tusb_types.h ****   TUSB_CLASS_CDC_DATA             = 10   ,
 163:lib/tinyusb/src/common/tusb_types.h ****   TUSB_CLASS_SMART_CARD           = 11   ,
 164:lib/tinyusb/src/common/tusb_types.h ****   TUSB_CLASS_RESERVED_12          = 12   ,
 165:lib/tinyusb/src/common/tusb_types.h ****   TUSB_CLASS_CONTENT_SECURITY     = 13   ,
 166:lib/tinyusb/src/common/tusb_types.h ****   TUSB_CLASS_VIDEO                = 14   ,
 167:lib/tinyusb/src/common/tusb_types.h ****   TUSB_CLASS_PERSONAL_HEALTHCARE  = 15   ,
 168:lib/tinyusb/src/common/tusb_types.h ****   TUSB_CLASS_AUDIO_VIDEO          = 16   ,
 169:lib/tinyusb/src/common/tusb_types.h **** 
 170:lib/tinyusb/src/common/tusb_types.h ****   TUSB_CLASS_DIAGNOSTIC           = 0xDC ,
 171:lib/tinyusb/src/common/tusb_types.h ****   TUSB_CLASS_WIRELESS_CONTROLLER  = 0xE0 ,
 172:lib/tinyusb/src/common/tusb_types.h ****   TUSB_CLASS_MISC                 = 0xEF ,
 173:lib/tinyusb/src/common/tusb_types.h ****   TUSB_CLASS_APPLICATION_SPECIFIC = 0xFE ,
 174:lib/tinyusb/src/common/tusb_types.h ****   TUSB_CLASS_VENDOR_SPECIFIC      = 0xFF
 175:lib/tinyusb/src/common/tusb_types.h **** } tusb_class_code_t;
 176:lib/tinyusb/src/common/tusb_types.h **** 
ARM GAS  /tmp/claude-502/ccFotbfS.s 			page 7


 177:lib/tinyusb/src/common/tusb_types.h **** typedef enum
 178:lib/tinyusb/src/common/tusb_types.h **** {
 179:lib/tinyusb/src/common/tusb_types.h ****   MISC_SUBCLASS_COMMON = 2
 180:lib/tinyusb/src/common/tusb_types.h **** }misc_subclass_type_t;
 181:lib/tinyusb/src/common/tusb_types.h **** 
 182:lib/tinyusb/src/common/tusb_types.h **** typedef enum {
 183:lib/tinyusb/src/common/tusb_types.h ****   MISC_PROTOCOL_IAD = 1
 184:lib/tinyusb/src/common/tusb_types.h **** } misc_protocol_type_t;
 185:lib/tinyusb/src/common/tusb_types.h **** 
 186:lib/tinyusb/src/common/tusb_types.h **** typedef enum {
 187:lib/tinyusb/src/common/tusb_types.h ****   APP_SUBCLASS_USBTMC = 0x03,
 188:lib/tinyusb/src/common/tusb_types.h ****   APP_SUBCLASS_DFU_RUNTIME = 0x01
 189:lib/tinyusb/src/common/tusb_types.h **** } app_subclass_type_t;
 190:lib/tinyusb/src/common/tusb_types.h **** 
 191:lib/tinyusb/src/common/tusb_types.h **** typedef enum {
 192:lib/tinyusb/src/common/tusb_types.h ****   DEVICE_CAPABILITY_WIRELESS_USB               = 0x01,
 193:lib/tinyusb/src/common/tusb_types.h ****   DEVICE_CAPABILITY_USB20_EXTENSION            = 0x02,
 194:lib/tinyusb/src/common/tusb_types.h ****   DEVICE_CAPABILITY_SUPERSPEED_USB             = 0x03,
 195:lib/tinyusb/src/common/tusb_types.h ****   DEVICE_CAPABILITY_CONTAINER_id               = 0x04,
 196:lib/tinyusb/src/common/tusb_types.h ****   DEVICE_CAPABILITY_PLATFORM                   = 0x05,
 197:lib/tinyusb/src/common/tusb_types.h ****   DEVICE_CAPABILITY_POWER_DELIVERY             = 0x06,
 198:lib/tinyusb/src/common/tusb_types.h ****   DEVICE_CAPABILITY_BATTERY_INFO               = 0x07,
 199:lib/tinyusb/src/common/tusb_types.h ****   DEVICE_CAPABILITY_PD_CONSUMER_PORT           = 0x08,
 200:lib/tinyusb/src/common/tusb_types.h ****   DEVICE_CAPABILITY_PD_PROVIDER_PORT           = 0x09,
 201:lib/tinyusb/src/common/tusb_types.h ****   DEVICE_CAPABILITY_SUPERSPEED_PLUS            = 0x0A,
 202:lib/tinyusb/src/common/tusb_types.h ****   DEVICE_CAPABILITY_PRECESION_TIME_MEASUREMENT = 0x0B,
 203:lib/tinyusb/src/common/tusb_types.h ****   DEVICE_CAPABILITY_WIRELESS_USB_EXT           = 0x0C,
 204:lib/tinyusb/src/common/tusb_types.h ****   DEVICE_CAPABILITY_BILLBOARD                  = 0x0D,
 205:lib/tinyusb/src/common/tusb_types.h ****   DEVICE_CAPABILITY_AUTHENTICATION             = 0x0E,
 206:lib/tinyusb/src/common/tusb_types.h ****   DEVICE_CAPABILITY_BILLBOARD_EX               = 0x0F,
 207:lib/tinyusb/src/common/tusb_types.h ****   DEVICE_CAPABILITY_CONFIGURATION_SUMMARY      = 0x10
 208:lib/tinyusb/src/common/tusb_types.h **** } device_capability_type_t;
 209:lib/tinyusb/src/common/tusb_types.h **** 
 210:lib/tinyusb/src/common/tusb_types.h **** enum {
 211:lib/tinyusb/src/common/tusb_types.h ****   TUSB_DESC_CONFIG_ATT_REMOTE_WAKEUP = 1u << 5,
 212:lib/tinyusb/src/common/tusb_types.h ****   TUSB_DESC_CONFIG_ATT_SELF_POWERED  = 1u << 6,
 213:lib/tinyusb/src/common/tusb_types.h **** };
 214:lib/tinyusb/src/common/tusb_types.h **** 
 215:lib/tinyusb/src/common/tusb_types.h **** #define TUSB_DESC_CONFIG_POWER_MA(x)  ((x)/2)
 216:lib/tinyusb/src/common/tusb_types.h **** 
 217:lib/tinyusb/src/common/tusb_types.h **** // USB 2.0 Spec Table 9-7: Test Mode Selectors
 218:lib/tinyusb/src/common/tusb_types.h **** typedef enum {
 219:lib/tinyusb/src/common/tusb_types.h ****   TUSB_FEATURE_TEST_J = 1,
 220:lib/tinyusb/src/common/tusb_types.h ****   TUSB_FEATURE_TEST_K,
 221:lib/tinyusb/src/common/tusb_types.h ****   TUSB_FEATURE_TEST_SE0_NAK,
 222:lib/tinyusb/src/common/tusb_types.h ****   TUSB_FEATURE_TEST_PACKET,
 223:lib/tinyusb/src/common/tusb_types.h ****   TUSB_FEATURE_TEST_FORCE_ENABLE,
 224:lib/tinyusb/src/common/tusb_types.h **** } tusb_feature_test_mode_t;
 225:lib/tinyusb/src/common/tusb_types.h **** 
 226:lib/tinyusb/src/common/tusb_types.h **** //--------------------------------------------------------------------+
 227:lib/tinyusb/src/common/tusb_types.h **** //
 228:lib/tinyusb/src/common/tusb_types.h **** //--------------------------------------------------------------------+
 229:lib/tinyusb/src/common/tusb_types.h **** typedef enum {
 230:lib/tinyusb/src/common/tusb_types.h ****   XFER_RESULT_SUCCESS = 0,
 231:lib/tinyusb/src/common/tusb_types.h ****   XFER_RESULT_FAILED,
 232:lib/tinyusb/src/common/tusb_types.h ****   XFER_RESULT_STALLED,
 233:lib/tinyusb/src/common/tusb_types.h ****   XFER_RESULT_TIMEOUT,
ARM GAS  /tmp/claude-502/ccFotbfS.s 			page 8


 234:lib/tinyusb/src/common/tusb_types.h ****   XFER_RESULT_INVALID
 235:lib/tinyusb/src/common/tusb_types.h **** } xfer_result_t;
 236:lib/tinyusb/src/common/tusb_types.h **** 
 237:lib/tinyusb/src/common/tusb_types.h **** // TODO remove
 238:lib/tinyusb/src/common/tusb_types.h **** enum {
 239:lib/tinyusb/src/common/tusb_types.h ****   DESC_OFFSET_LEN  = 0,
 240:lib/tinyusb/src/common/tusb_types.h ****   DESC_OFFSET_TYPE = 1
 241:lib/tinyusb/src/common/tusb_types.h **** };
 242:lib/tinyusb/src/common/tusb_types.h **** 
 243:lib/tinyusb/src/common/tusb_types.h **** enum {
 244:lib/tinyusb/src/common/tusb_types.h ****   INTERFACE_INVALID_NUMBER = 0xff
 245:lib/tinyusb/src/common/tusb_types.h **** };
 246:lib/tinyusb/src/common/tusb_types.h **** 
 247:lib/tinyusb/src/common/tusb_types.h **** typedef enum {
 248:lib/tinyusb/src/common/tusb_types.h ****   MS_OS_20_SET_HEADER_DESCRIPTOR       = 0x00,
 249:lib/tinyusb/src/common/tusb_types.h ****   MS_OS_20_SUBSET_HEADER_CONFIGURATION = 0x01,
 250:lib/tinyusb/src/common/tusb_types.h ****   MS_OS_20_SUBSET_HEADER_FUNCTION      = 0x02,
 251:lib/tinyusb/src/common/tusb_types.h ****   MS_OS_20_FEATURE_COMPATBLE_ID        = 0x03,
 252:lib/tinyusb/src/common/tusb_types.h ****   MS_OS_20_FEATURE_REG_PROPERTY        = 0x04,
 253:lib/tinyusb/src/common/tusb_types.h ****   MS_OS_20_FEATURE_MIN_RESUME_TIME     = 0x05,
 254:lib/tinyusb/src/common/tusb_types.h ****   MS_OS_20_FEATURE_MODEL_ID            = 0x06,
 255:lib/tinyusb/src/common/tusb_types.h ****   MS_OS_20_FEATURE_CCGP_DEVICE         = 0x07,
 256:lib/tinyusb/src/common/tusb_types.h ****   MS_OS_20_FEATURE_VENDOR_REVISION     = 0x08
 257:lib/tinyusb/src/common/tusb_types.h **** } microsoft_os_20_type_t;
 258:lib/tinyusb/src/common/tusb_types.h **** 
 259:lib/tinyusb/src/common/tusb_types.h **** enum {
 260:lib/tinyusb/src/common/tusb_types.h ****   CONTROL_STAGE_IDLE,
 261:lib/tinyusb/src/common/tusb_types.h ****   CONTROL_STAGE_SETUP,
 262:lib/tinyusb/src/common/tusb_types.h ****   CONTROL_STAGE_DATA,
 263:lib/tinyusb/src/common/tusb_types.h ****   CONTROL_STAGE_ACK
 264:lib/tinyusb/src/common/tusb_types.h **** };
 265:lib/tinyusb/src/common/tusb_types.h **** 
 266:lib/tinyusb/src/common/tusb_types.h **** enum {
 267:lib/tinyusb/src/common/tusb_types.h ****   TUSB_INDEX_INVALID_8 = 0xFFu
 268:lib/tinyusb/src/common/tusb_types.h **** };
 269:lib/tinyusb/src/common/tusb_types.h **** 
 270:lib/tinyusb/src/common/tusb_types.h **** //--------------------------------------------------------------------+
 271:lib/tinyusb/src/common/tusb_types.h **** // USB Descriptors
 272:lib/tinyusb/src/common/tusb_types.h **** //--------------------------------------------------------------------+
 273:lib/tinyusb/src/common/tusb_types.h **** 
 274:lib/tinyusb/src/common/tusb_types.h **** // Start of all packed definitions for compiler without per-type packed
 275:lib/tinyusb/src/common/tusb_types.h **** TU_ATTR_PACKED_BEGIN
 276:lib/tinyusb/src/common/tusb_types.h **** TU_ATTR_BIT_FIELD_ORDER_BEGIN
 277:lib/tinyusb/src/common/tusb_types.h **** 
 278:lib/tinyusb/src/common/tusb_types.h **** /// USB Device Descriptor
 279:lib/tinyusb/src/common/tusb_types.h **** typedef struct TU_ATTR_PACKED {
 280:lib/tinyusb/src/common/tusb_types.h ****   uint8_t  bLength            ; ///< Size of this descriptor in bytes.
 281:lib/tinyusb/src/common/tusb_types.h ****   uint8_t  bDescriptorType    ; ///< DEVICE Descriptor Type.
 282:lib/tinyusb/src/common/tusb_types.h ****   uint16_t bcdUSB             ; ///< BUSB Specification Release Number in Binary-Coded Decimal (i.e
 283:lib/tinyusb/src/common/tusb_types.h **** 
 284:lib/tinyusb/src/common/tusb_types.h ****   uint8_t  bDeviceClass       ; ///< Class code (assigned by the USB-IF).
 285:lib/tinyusb/src/common/tusb_types.h ****   uint8_t  bDeviceSubClass    ; ///< Subclass code (assigned by the USB-IF).
 286:lib/tinyusb/src/common/tusb_types.h ****   uint8_t  bDeviceProtocol    ; ///< Protocol code (assigned by the USB-IF).
 287:lib/tinyusb/src/common/tusb_types.h ****   uint8_t  bMaxPacketSize0    ; ///< Maximum packet size for endpoint zero (only 8, 16, 32, or 64 a
 288:lib/tinyusb/src/common/tusb_types.h **** 
 289:lib/tinyusb/src/common/tusb_types.h ****   uint16_t idVendor           ; ///< Vendor ID (assigned by the USB-IF).
 290:lib/tinyusb/src/common/tusb_types.h ****   uint16_t idProduct          ; ///< Product ID (assigned by the manufacturer).
ARM GAS  /tmp/claude-502/ccFotbfS.s 			page 9


 291:lib/tinyusb/src/common/tusb_types.h ****   uint16_t bcdDevice          ; ///< Device release number in binary-coded decimal.
 292:lib/tinyusb/src/common/tusb_types.h ****   uint8_t  iManufacturer      ; ///< Index of string descriptor describing manufacturer.
 293:lib/tinyusb/src/common/tusb_types.h ****   uint8_t  iProduct           ; ///< Index of string descriptor describing product.
 294:lib/tinyusb/src/common/tusb_types.h ****   uint8_t  iSerialNumber      ; ///< Index of string descriptor describing the device's serial numb
 295:lib/tinyusb/src/common/tusb_types.h **** 
 296:lib/tinyusb/src/common/tusb_types.h ****   uint8_t  bNumConfigurations ; ///< Number of possible configurations.
 297:lib/tinyusb/src/common/tusb_types.h **** } tusb_desc_device_t;
 298:lib/tinyusb/src/common/tusb_types.h **** 
 299:lib/tinyusb/src/common/tusb_types.h **** TU_VERIFY_STATIC( sizeof(tusb_desc_device_t) == 18, "size is not correct");
 300:lib/tinyusb/src/common/tusb_types.h **** 
 301:lib/tinyusb/src/common/tusb_types.h **** // USB Binary Device Object Store (BOS) Descriptor
 302:lib/tinyusb/src/common/tusb_types.h **** typedef struct TU_ATTR_PACKED {
 303:lib/tinyusb/src/common/tusb_types.h ****   uint8_t  bLength         ; ///< Size of this descriptor in bytes
 304:lib/tinyusb/src/common/tusb_types.h ****   uint8_t  bDescriptorType ; ///< CONFIGURATION Descriptor Type
 305:lib/tinyusb/src/common/tusb_types.h ****   uint16_t wTotalLength    ; ///< Total length of data returned for this descriptor
 306:lib/tinyusb/src/common/tusb_types.h ****   uint8_t  bNumDeviceCaps  ; ///< Number of device capability descriptors in the BOS
 307:lib/tinyusb/src/common/tusb_types.h **** } tusb_desc_bos_t;
 308:lib/tinyusb/src/common/tusb_types.h **** 
 309:lib/tinyusb/src/common/tusb_types.h **** TU_VERIFY_STATIC( sizeof(tusb_desc_bos_t) == 5, "size is not correct");
 310:lib/tinyusb/src/common/tusb_types.h **** 
 311:lib/tinyusb/src/common/tusb_types.h **** /// USB Configuration Descriptor
 312:lib/tinyusb/src/common/tusb_types.h **** typedef struct TU_ATTR_PACKED {
 313:lib/tinyusb/src/common/tusb_types.h ****   uint8_t  bLength             ; ///< Size of this descriptor in bytes
 314:lib/tinyusb/src/common/tusb_types.h ****   uint8_t  bDescriptorType     ; ///< CONFIGURATION Descriptor Type
 315:lib/tinyusb/src/common/tusb_types.h ****   uint16_t wTotalLength        ; ///< Total length of data returned for this configuration. Include
 316:lib/tinyusb/src/common/tusb_types.h **** 
 317:lib/tinyusb/src/common/tusb_types.h ****   uint8_t  bNumInterfaces      ; ///< Number of interfaces supported by this configuration
 318:lib/tinyusb/src/common/tusb_types.h ****   uint8_t  bConfigurationValue ; ///< Value to use as an argument to the SetConfiguration() request
 319:lib/tinyusb/src/common/tusb_types.h ****   uint8_t  iConfiguration      ; ///< Index of string descriptor describing this configuration
 320:lib/tinyusb/src/common/tusb_types.h ****   uint8_t  bmAttributes        ; ///< Configuration characteristics \n D7: Reserved (set to one)\n 
 321:lib/tinyusb/src/common/tusb_types.h ****   uint8_t  bMaxPower           ; ///< Maximum power consumption of the USB device from the bus in t
 322:lib/tinyusb/src/common/tusb_types.h **** } tusb_desc_configuration_t;
 323:lib/tinyusb/src/common/tusb_types.h **** 
 324:lib/tinyusb/src/common/tusb_types.h **** TU_VERIFY_STATIC( sizeof(tusb_desc_configuration_t) == 9, "size is not correct");
 325:lib/tinyusb/src/common/tusb_types.h **** 
 326:lib/tinyusb/src/common/tusb_types.h **** /// USB Interface Descriptor
 327:lib/tinyusb/src/common/tusb_types.h **** typedef struct TU_ATTR_PACKED {
 328:lib/tinyusb/src/common/tusb_types.h ****   uint8_t  bLength            ; ///< Size of this descriptor in bytes
 329:lib/tinyusb/src/common/tusb_types.h ****   uint8_t  bDescriptorType    ; ///< INTERFACE Descriptor Type
 330:lib/tinyusb/src/common/tusb_types.h **** 
 331:lib/tinyusb/src/common/tusb_types.h ****   uint8_t  bInterfaceNumber   ; ///< Number of this interface. Zero-based value identifying the ind
 332:lib/tinyusb/src/common/tusb_types.h ****   uint8_t  bAlternateSetting  ; ///< Value used to select this alternate setting for the interface 
 333:lib/tinyusb/src/common/tusb_types.h ****   uint8_t  bNumEndpoints      ; ///< Number of endpoints used by this interface (excluding endpoint
 334:lib/tinyusb/src/common/tusb_types.h ****   uint8_t  bInterfaceClass    ; ///< Class code (assigned by the USB-IF). \li A value of zero is re
 335:lib/tinyusb/src/common/tusb_types.h ****   uint8_t  bInterfaceSubClass ; ///< Subclass code (assigned by the USB-IF). \n These codes are qua
 336:lib/tinyusb/src/common/tusb_types.h ****   uint8_t  bInterfaceProtocol ; ///< Protocol code (assigned by the USB). \n These codes are qualif
 337:lib/tinyusb/src/common/tusb_types.h ****   uint8_t  iInterface         ; ///< Index of string descriptor describing this interface
 338:lib/tinyusb/src/common/tusb_types.h **** } tusb_desc_interface_t;
 339:lib/tinyusb/src/common/tusb_types.h **** 
 340:lib/tinyusb/src/common/tusb_types.h **** TU_VERIFY_STATIC( sizeof(tusb_desc_interface_t) == 9, "size is not correct");
 341:lib/tinyusb/src/common/tusb_types.h **** 
 342:lib/tinyusb/src/common/tusb_types.h **** /// USB Endpoint Descriptor
 343:lib/tinyusb/src/common/tusb_types.h **** typedef struct TU_ATTR_PACKED {
 344:lib/tinyusb/src/common/tusb_types.h ****   uint8_t  bLength          ; // Size of this descriptor in bytes
 345:lib/tinyusb/src/common/tusb_types.h ****   uint8_t  bDescriptorType  ; // ENDPOINT Descriptor Type
 346:lib/tinyusb/src/common/tusb_types.h **** 
 347:lib/tinyusb/src/common/tusb_types.h ****   uint8_t  bEndpointAddress ; // The address of the endpoint
ARM GAS  /tmp/claude-502/ccFotbfS.s 			page 10


 348:lib/tinyusb/src/common/tusb_types.h **** 
 349:lib/tinyusb/src/common/tusb_types.h ****   struct TU_ATTR_PACKED {
 350:lib/tinyusb/src/common/tusb_types.h ****     uint8_t xfer  : 2;        // Control, ISO, Bulk, Interrupt
 351:lib/tinyusb/src/common/tusb_types.h ****     uint8_t sync  : 2;        // None, Asynchronous, Adaptive, Synchronous
 352:lib/tinyusb/src/common/tusb_types.h ****     uint8_t usage : 2;        // Data, Feedback, Implicit feedback
 353:lib/tinyusb/src/common/tusb_types.h ****     uint8_t       : 2;
 354:lib/tinyusb/src/common/tusb_types.h ****   } bmAttributes;
 355:lib/tinyusb/src/common/tusb_types.h **** 
 356:lib/tinyusb/src/common/tusb_types.h ****   uint16_t wMaxPacketSize   ; // Bit 10..0 : max packet size, bit 12..11 additional transaction per
 357:lib/tinyusb/src/common/tusb_types.h ****   uint8_t  bInterval        ; // Polling interval, in frames or microframes depending on the operat
 358:lib/tinyusb/src/common/tusb_types.h **** } tusb_desc_endpoint_t;
 359:lib/tinyusb/src/common/tusb_types.h **** 
 360:lib/tinyusb/src/common/tusb_types.h **** TU_VERIFY_STATIC( sizeof(tusb_desc_endpoint_t) == 7, "size is not correct");
 361:lib/tinyusb/src/common/tusb_types.h **** 
 362:lib/tinyusb/src/common/tusb_types.h **** /// USB Other Speed Configuration Descriptor
 363:lib/tinyusb/src/common/tusb_types.h **** typedef struct TU_ATTR_PACKED {
 364:lib/tinyusb/src/common/tusb_types.h ****   uint8_t  bLength             ; ///< Size of descriptor
 365:lib/tinyusb/src/common/tusb_types.h ****   uint8_t  bDescriptorType     ; ///< Other_speed_Configuration Type
 366:lib/tinyusb/src/common/tusb_types.h ****   uint16_t wTotalLength        ; ///< Total length of data returned
 367:lib/tinyusb/src/common/tusb_types.h **** 
 368:lib/tinyusb/src/common/tusb_types.h ****   uint8_t  bNumInterfaces      ; ///< Number of interfaces supported by this speed configuration
 369:lib/tinyusb/src/common/tusb_types.h ****   uint8_t  bConfigurationValue ; ///< Value to use to select configuration
 370:lib/tinyusb/src/common/tusb_types.h ****   uint8_t  iConfiguration      ; ///< Index of string descriptor
 371:lib/tinyusb/src/common/tusb_types.h ****   uint8_t  bmAttributes        ; ///< Same as Configuration descriptor
 372:lib/tinyusb/src/common/tusb_types.h ****   uint8_t  bMaxPower           ; ///< Same as Configuration descriptor
 373:lib/tinyusb/src/common/tusb_types.h **** } tusb_desc_other_speed_t;
 374:lib/tinyusb/src/common/tusb_types.h **** 
 375:lib/tinyusb/src/common/tusb_types.h **** /// USB Device Qualifier Descriptor
 376:lib/tinyusb/src/common/tusb_types.h **** typedef struct TU_ATTR_PACKED {
 377:lib/tinyusb/src/common/tusb_types.h ****   uint8_t  bLength            ; ///< Size of descriptor
 378:lib/tinyusb/src/common/tusb_types.h ****   uint8_t  bDescriptorType    ; ///< Device Qualifier Type
 379:lib/tinyusb/src/common/tusb_types.h ****   uint16_t bcdUSB             ; ///< USB specification version number (e.g., 0200H for V2.00)
 380:lib/tinyusb/src/common/tusb_types.h **** 
 381:lib/tinyusb/src/common/tusb_types.h ****   uint8_t  bDeviceClass       ; ///< Class Code
 382:lib/tinyusb/src/common/tusb_types.h ****   uint8_t  bDeviceSubClass    ; ///< SubClass Code
 383:lib/tinyusb/src/common/tusb_types.h ****   uint8_t  bDeviceProtocol    ; ///< Protocol Code
 384:lib/tinyusb/src/common/tusb_types.h **** 
 385:lib/tinyusb/src/common/tusb_types.h ****   uint8_t  bMaxPacketSize0    ; ///< Maximum packet size for other speed
 386:lib/tinyusb/src/common/tusb_types.h ****   uint8_t  bNumConfigurations ; ///< Number of Other-speed Configurations
 387:lib/tinyusb/src/common/tusb_types.h ****   uint8_t  bReserved          ; ///< Reserved for future use, must be zero
 388:lib/tinyusb/src/common/tusb_types.h **** } tusb_desc_device_qualifier_t;
 389:lib/tinyusb/src/common/tusb_types.h **** 
 390:lib/tinyusb/src/common/tusb_types.h **** TU_VERIFY_STATIC( sizeof(tusb_desc_device_qualifier_t) == 10, "size is not correct");
 391:lib/tinyusb/src/common/tusb_types.h **** 
 392:lib/tinyusb/src/common/tusb_types.h **** /// USB Interface Association Descriptor (IAD ECN)
 393:lib/tinyusb/src/common/tusb_types.h **** typedef struct TU_ATTR_PACKED {
 394:lib/tinyusb/src/common/tusb_types.h ****   uint8_t bLength           ; ///< Size of descriptor
 395:lib/tinyusb/src/common/tusb_types.h ****   uint8_t bDescriptorType   ; ///< Other_speed_Configuration Type
 396:lib/tinyusb/src/common/tusb_types.h **** 
 397:lib/tinyusb/src/common/tusb_types.h ****   uint8_t bFirstInterface   ; ///< Index of the first associated interface.
 398:lib/tinyusb/src/common/tusb_types.h ****   uint8_t bInterfaceCount   ; ///< Total number of associated interfaces.
 399:lib/tinyusb/src/common/tusb_types.h **** 
 400:lib/tinyusb/src/common/tusb_types.h ****   uint8_t bFunctionClass    ; ///< Interface class ID.
 401:lib/tinyusb/src/common/tusb_types.h ****   uint8_t bFunctionSubClass ; ///< Interface subclass ID.
 402:lib/tinyusb/src/common/tusb_types.h ****   uint8_t bFunctionProtocol ; ///< Interface protocol ID.
 403:lib/tinyusb/src/common/tusb_types.h **** 
 404:lib/tinyusb/src/common/tusb_types.h ****   uint8_t iFunction         ; ///< Index of the string descriptor describing the interface associat
ARM GAS  /tmp/claude-502/ccFotbfS.s 			page 11


 405:lib/tinyusb/src/common/tusb_types.h **** } tusb_desc_interface_assoc_t;
 406:lib/tinyusb/src/common/tusb_types.h **** 
 407:lib/tinyusb/src/common/tusb_types.h **** TU_VERIFY_STATIC( sizeof(tusb_desc_interface_assoc_t) == 8, "size is not correct");
 408:lib/tinyusb/src/common/tusb_types.h **** 
 409:lib/tinyusb/src/common/tusb_types.h **** // USB String Descriptor
 410:lib/tinyusb/src/common/tusb_types.h **** typedef struct TU_ATTR_PACKED {
 411:lib/tinyusb/src/common/tusb_types.h ****   uint8_t  bLength         ; ///< Size of this descriptor in bytes
 412:lib/tinyusb/src/common/tusb_types.h ****   uint8_t  bDescriptorType ; ///< Descriptor Type
 413:lib/tinyusb/src/common/tusb_types.h ****   uint16_t unicode_string[];
 414:lib/tinyusb/src/common/tusb_types.h **** } tusb_desc_string_t;
 415:lib/tinyusb/src/common/tusb_types.h **** 
 416:lib/tinyusb/src/common/tusb_types.h **** // USB Binary Device Object Store (BOS)
 417:lib/tinyusb/src/common/tusb_types.h **** typedef struct TU_ATTR_PACKED {
 418:lib/tinyusb/src/common/tusb_types.h ****   uint8_t bLength;
 419:lib/tinyusb/src/common/tusb_types.h ****   uint8_t bDescriptorType ;
 420:lib/tinyusb/src/common/tusb_types.h ****   uint8_t bDevCapabilityType;
 421:lib/tinyusb/src/common/tusb_types.h ****   uint8_t bReserved;
 422:lib/tinyusb/src/common/tusb_types.h ****   uint8_t PlatformCapabilityUUID[16];
 423:lib/tinyusb/src/common/tusb_types.h ****   uint8_t CapabilityData[];
 424:lib/tinyusb/src/common/tusb_types.h **** } tusb_desc_bos_platform_t;
 425:lib/tinyusb/src/common/tusb_types.h **** 
 426:lib/tinyusb/src/common/tusb_types.h **** // USB WebUSB URL Descriptor
 427:lib/tinyusb/src/common/tusb_types.h **** typedef struct TU_ATTR_PACKED {
 428:lib/tinyusb/src/common/tusb_types.h ****   uint8_t bLength;
 429:lib/tinyusb/src/common/tusb_types.h ****   uint8_t bDescriptorType;
 430:lib/tinyusb/src/common/tusb_types.h ****   uint8_t bScheme;
 431:lib/tinyusb/src/common/tusb_types.h ****   char    url[];
 432:lib/tinyusb/src/common/tusb_types.h **** } tusb_desc_webusb_url_t;
 433:lib/tinyusb/src/common/tusb_types.h **** 
 434:lib/tinyusb/src/common/tusb_types.h **** // DFU Functional Descriptor
 435:lib/tinyusb/src/common/tusb_types.h **** typedef struct TU_ATTR_PACKED {
 436:lib/tinyusb/src/common/tusb_types.h ****   uint8_t  bLength;
 437:lib/tinyusb/src/common/tusb_types.h ****   uint8_t  bDescriptorType;
 438:lib/tinyusb/src/common/tusb_types.h **** 
 439:lib/tinyusb/src/common/tusb_types.h ****   union {
 440:lib/tinyusb/src/common/tusb_types.h ****     struct TU_ATTR_PACKED {
 441:lib/tinyusb/src/common/tusb_types.h ****       uint8_t bitCanDnload             : 1;
 442:lib/tinyusb/src/common/tusb_types.h ****       uint8_t bitCanUpload             : 1;
 443:lib/tinyusb/src/common/tusb_types.h ****       uint8_t bitManifestationTolerant : 1;
 444:lib/tinyusb/src/common/tusb_types.h ****       uint8_t bitWillDetach            : 1;
 445:lib/tinyusb/src/common/tusb_types.h ****       uint8_t reserved                 : 4;
 446:lib/tinyusb/src/common/tusb_types.h ****     } bmAttributes;
 447:lib/tinyusb/src/common/tusb_types.h **** 
 448:lib/tinyusb/src/common/tusb_types.h ****     uint8_t bAttributes;
 449:lib/tinyusb/src/common/tusb_types.h ****   };
 450:lib/tinyusb/src/common/tusb_types.h **** 
 451:lib/tinyusb/src/common/tusb_types.h ****   uint16_t wDetachTimeOut;
 452:lib/tinyusb/src/common/tusb_types.h ****   uint16_t wTransferSize;
 453:lib/tinyusb/src/common/tusb_types.h ****   uint16_t bcdDFUVersion;
 454:lib/tinyusb/src/common/tusb_types.h **** } tusb_desc_dfu_functional_t;
 455:lib/tinyusb/src/common/tusb_types.h **** 
 456:lib/tinyusb/src/common/tusb_types.h **** //--------------------------------------------------------------------+
 457:lib/tinyusb/src/common/tusb_types.h **** //
 458:lib/tinyusb/src/common/tusb_types.h **** //--------------------------------------------------------------------+
 459:lib/tinyusb/src/common/tusb_types.h **** 
 460:lib/tinyusb/src/common/tusb_types.h **** typedef struct TU_ATTR_PACKED {
 461:lib/tinyusb/src/common/tusb_types.h ****   union {
ARM GAS  /tmp/claude-502/ccFotbfS.s 			page 12


 462:lib/tinyusb/src/common/tusb_types.h ****     struct TU_ATTR_PACKED {
 463:lib/tinyusb/src/common/tusb_types.h ****       uint8_t recipient :  5; ///< Recipient type tusb_request_recipient_t.
 464:lib/tinyusb/src/common/tusb_types.h ****       uint8_t type      :  2; ///< Request type tusb_request_type_t.
 465:lib/tinyusb/src/common/tusb_types.h ****       uint8_t direction :  1; ///< Direction type. tusb_dir_t
 466:lib/tinyusb/src/common/tusb_types.h ****     } bmRequestType_bit;
 467:lib/tinyusb/src/common/tusb_types.h **** 
 468:lib/tinyusb/src/common/tusb_types.h ****     uint8_t bmRequestType;
 469:lib/tinyusb/src/common/tusb_types.h ****   };
 470:lib/tinyusb/src/common/tusb_types.h **** 
 471:lib/tinyusb/src/common/tusb_types.h ****   uint8_t  bRequest;
 472:lib/tinyusb/src/common/tusb_types.h ****   uint16_t wValue;
 473:lib/tinyusb/src/common/tusb_types.h ****   uint16_t wIndex;
 474:lib/tinyusb/src/common/tusb_types.h ****   uint16_t wLength;
 475:lib/tinyusb/src/common/tusb_types.h **** } tusb_control_request_t;
 476:lib/tinyusb/src/common/tusb_types.h **** 
 477:lib/tinyusb/src/common/tusb_types.h **** TU_VERIFY_STATIC( sizeof(tusb_control_request_t) == 8, "size is not correct");
 478:lib/tinyusb/src/common/tusb_types.h **** 
 479:lib/tinyusb/src/common/tusb_types.h **** TU_ATTR_PACKED_END  // End of all packed definitions
 480:lib/tinyusb/src/common/tusb_types.h **** TU_ATTR_BIT_FIELD_ORDER_END
 481:lib/tinyusb/src/common/tusb_types.h **** 
 482:lib/tinyusb/src/common/tusb_types.h **** //--------------------------------------------------------------------+
 483:lib/tinyusb/src/common/tusb_types.h **** // Endpoint helper
 484:lib/tinyusb/src/common/tusb_types.h **** //--------------------------------------------------------------------+
 485:lib/tinyusb/src/common/tusb_types.h **** 
 486:lib/tinyusb/src/common/tusb_types.h **** // Get direction from Endpoint address
 487:lib/tinyusb/src/common/tusb_types.h **** TU_ATTR_ALWAYS_INLINE static inline tusb_dir_t tu_edpt_dir(uint8_t addr) {
 488:lib/tinyusb/src/common/tusb_types.h ****   return (addr & TUSB_DIR_IN_MASK) ? TUSB_DIR_IN : TUSB_DIR_OUT;
 489:lib/tinyusb/src/common/tusb_types.h **** }
 490:lib/tinyusb/src/common/tusb_types.h **** 
 491:lib/tinyusb/src/common/tusb_types.h **** // Get Endpoint number from address
 492:lib/tinyusb/src/common/tusb_types.h **** TU_ATTR_ALWAYS_INLINE static inline uint8_t tu_edpt_number(uint8_t addr) {
 493:lib/tinyusb/src/common/tusb_types.h ****   return (uint8_t)(addr & (~TUSB_DIR_IN_MASK));
  40              		.loc 2 493 10 view .LVU4
  41 0002 01F07F0C 		and	ip, r1, #127
  42              	.LBE171:
  43              	.LBE170:
 126:lib/tinyusb/src/portable/synopsys/dwc2/dcd_dwc2.c ****   dwc2_regs_t* dwc2 = DWC2_REG(rhport);
  44              		.loc 1 126 79 view .LVU5
  45 0006 70B5     		push	{r4, r5, r6, lr}
  46              		.cfi_def_cfa_offset 16
  47              		.cfi_offset 4, -16
  48              		.cfi_offset 5, -12
  49              		.cfi_offset 6, -8
  50              		.cfi_offset 14, -4
  51              		.loc 1 128 17 view .LVU6
  52 0008 0501     		lsls	r5, r0, #4
  53 000a 03EB0010 		add	r0, r3, r0, lsl #4
  54              	.LVL1:
  55              		.loc 1 128 17 view .LVU7
  56 000e 90F808E0 		ldrb	lr, [r0, #8]	@ zero_extendqisi2
  57              	.LVL2:
 129:lib/tinyusb/src/portable/synopsys/dwc2/dcd_dwc2.c ****   uint8_t const epnum = tu_edpt_number(ep_addr);
  58              		.loc 1 129 3 is_stmt 1 view .LVU8
  59              	.LBB173:
  60              	.LBI170:
 492:lib/tinyusb/src/common/tusb_types.h ****   return (uint8_t)(addr & (~TUSB_DIR_IN_MASK));
  61              		.loc 2 492 45 view .LVU9
ARM GAS  /tmp/claude-502/ccFotbfS.s 			page 13


  62              	.LBB172:
  63              		.loc 2 493 3 view .LVU10
  64              		.loc 2 493 3 is_stmt 0 view .LVU11
  65              	.LBE172:
  66              	.LBE173:
 130:lib/tinyusb/src/portable/synopsys/dwc2/dcd_dwc2.c ****   uint8_t const dir = tu_edpt_dir(ep_addr);
  67              		.loc 1 130 3 is_stmt 1 view .LVU12
  68              	.LBB174:
  69              	.LBI174:
 487:lib/tinyusb/src/common/tusb_types.h ****   return (addr & TUSB_DIR_IN_MASK) ? TUSB_DIR_IN : TUSB_DIR_OUT;
  70              		.loc 2 487 48 view .LVU13
  71              	.LBB175:
 488:lib/tinyusb/src/common/tusb_types.h **** }
  72              		.loc 2 488 3 view .LVU14
 488:lib/tinyusb/src/common/tusb_types.h **** }
  73              		.loc 2 488 3 is_stmt 0 view .LVU15
  74              	.LBE175:
  75              	.LBE174:
 131:lib/tinyusb/src/portable/synopsys/dwc2/dcd_dwc2.c **** 
 132:lib/tinyusb/src/portable/synopsys/dwc2/dcd_dwc2.c ****   TU_ASSERT(epnum < ep_count);
  76              		.loc 1 132 3 is_stmt 1 view .LVU16
  77              		.loc 1 132 3 view .LVU17
  78 0012 E645     		cmp	lr, ip
  79 0014 18D9     		bls	.L15
  80              	.LBB176:
  81              	.LBB177:
  82              		.file 3 "lib/tinyusb/src/common/tusb_common.h"
   1:lib/tinyusb/src/common/tusb_common.h **** /*
   2:lib/tinyusb/src/common/tusb_common.h ****  * The MIT License (MIT)
   3:lib/tinyusb/src/common/tusb_common.h ****  *
   4:lib/tinyusb/src/common/tusb_common.h ****  * Copyright (c) 2019 Ha Thach (tinyusb.org)
   5:lib/tinyusb/src/common/tusb_common.h ****  *
   6:lib/tinyusb/src/common/tusb_common.h ****  * Permission is hereby granted, free of charge, to any person obtaining a copy
   7:lib/tinyusb/src/common/tusb_common.h ****  * of this software and associated documentation files (the "Software"), to deal
   8:lib/tinyusb/src/common/tusb_common.h ****  * in the Software without restriction, including without limitation the rights
   9:lib/tinyusb/src/common/tusb_common.h ****  * to use, copy, modify, merge, publish, distribute, sublicense, and/or sell
  10:lib/tinyusb/src/common/tusb_common.h ****  * copies of the Software, and to permit persons to whom the Software is
  11:lib/tinyusb/src/common/tusb_common.h ****  * furnished to do so, subject to the following conditions:
  12:lib/tinyusb/src/common/tusb_common.h ****  *
  13:lib/tinyusb/src/common/tusb_common.h ****  * The above copyright notice and this permission notice shall be included in
  14:lib/tinyusb/src/common/tusb_common.h ****  * all copies or substantial portions of the Software.
  15:lib/tinyusb/src/common/tusb_common.h ****  *
  16:lib/tinyusb/src/common/tusb_common.h ****  * THE SOFTWARE IS PROVIDED "AS IS", WITHOUT WARRANTY OF ANY KIND, EXPRESS OR
  17:lib/tinyusb/src/common/tusb_common.h ****  * IMPLIED, INCLUDING BUT NOT LIMITED TO THE WARRANTIES OF MERCHANTABILITY,
  18:lib/tinyusb/src/common/tusb_common.h ****  * FITNESS FOR A PARTICULAR PURPOSE AND NONINFRINGEMENT. IN NO EVENT SHALL THE
  19:lib/tinyusb/src/common/tusb_common.h ****  * AUTHORS OR COPYRIGHT HOLDERS BE LIABLE FOR ANY CLAIM, DAMAGES OR OTHER
  20:lib/tinyusb/src/common/tusb_common.h ****  * LIABILITY, WHETHER IN AN ACTION OF CONTRACT, TORT OR OTHERWISE, ARISING FROM,
  21:lib/tinyusb/src/common/tusb_common.h ****  * OUT OF OR IN CONNECTION WITH THE SOFTWARE OR THE USE OR OTHER DEALINGS IN
  22:lib/tinyusb/src/common/tusb_common.h ****  * THE SOFTWARE.
  23:lib/tinyusb/src/common/tusb_common.h ****  *
  24:lib/tinyusb/src/common/tusb_common.h ****  * This file is part of the TinyUSB stack.
  25:lib/tinyusb/src/common/tusb_common.h ****  */
  26:lib/tinyusb/src/common/tusb_common.h **** 
  27:lib/tinyusb/src/common/tusb_common.h **** #ifndef _TUSB_COMMON_H_
  28:lib/tinyusb/src/common/tusb_common.h **** #define _TUSB_COMMON_H_
  29:lib/tinyusb/src/common/tusb_common.h **** 
  30:lib/tinyusb/src/common/tusb_common.h **** #ifdef __cplusplus
ARM GAS  /tmp/claude-502/ccFotbfS.s 			page 14


  31:lib/tinyusb/src/common/tusb_common.h ****  extern "C" {
  32:lib/tinyusb/src/common/tusb_common.h **** #endif
  33:lib/tinyusb/src/common/tusb_common.h **** 
  34:lib/tinyusb/src/common/tusb_common.h **** //--------------------------------------------------------------------+
  35:lib/tinyusb/src/common/tusb_common.h **** // Macros Helper
  36:lib/tinyusb/src/common/tusb_common.h **** //--------------------------------------------------------------------+
  37:lib/tinyusb/src/common/tusb_common.h **** #define TU_ARRAY_SIZE(_arr)   ( sizeof(_arr) / sizeof(_arr[0]) )
  38:lib/tinyusb/src/common/tusb_common.h **** #define TU_MIN(_x, _y)        ( ( (_x) < (_y) ) ? (_x) : (_y) )
  39:lib/tinyusb/src/common/tusb_common.h **** #define TU_MAX(_x, _y)        ( ( (_x) > (_y) ) ? (_x) : (_y) )
  40:lib/tinyusb/src/common/tusb_common.h **** #define TU_DIV_CEIL(n, d)     (((n) + (d) - 1) / (d))
  41:lib/tinyusb/src/common/tusb_common.h **** 
  42:lib/tinyusb/src/common/tusb_common.h **** #define TU_U16(_high, _low)   ((uint16_t) (((_high) << 8) | (_low)))
  43:lib/tinyusb/src/common/tusb_common.h **** #define TU_U16_HIGH(_u16)     ((uint8_t) (((_u16) >> 8) & 0x00ff))
  44:lib/tinyusb/src/common/tusb_common.h **** #define TU_U16_LOW(_u16)      ((uint8_t) ((_u16)       & 0x00ff))
  45:lib/tinyusb/src/common/tusb_common.h **** #define U16_TO_U8S_BE(_u16)   TU_U16_HIGH(_u16), TU_U16_LOW(_u16)
  46:lib/tinyusb/src/common/tusb_common.h **** #define U16_TO_U8S_LE(_u16)   TU_U16_LOW(_u16), TU_U16_HIGH(_u16)
  47:lib/tinyusb/src/common/tusb_common.h **** 
  48:lib/tinyusb/src/common/tusb_common.h **** #define TU_U32_BYTE3(_u32)    ((uint8_t) ((((uint32_t) _u32) >> 24) & 0x000000ff)) // MSB
  49:lib/tinyusb/src/common/tusb_common.h **** #define TU_U32_BYTE2(_u32)    ((uint8_t) ((((uint32_t) _u32) >> 16) & 0x000000ff))
  50:lib/tinyusb/src/common/tusb_common.h **** #define TU_U32_BYTE1(_u32)    ((uint8_t) ((((uint32_t) _u32) >>  8) & 0x000000ff))
  51:lib/tinyusb/src/common/tusb_common.h **** #define TU_U32_BYTE0(_u32)    ((uint8_t) (((uint32_t)  _u32)        & 0x000000ff)) // LSB
  52:lib/tinyusb/src/common/tusb_common.h **** 
  53:lib/tinyusb/src/common/tusb_common.h **** #define U32_TO_U8S_BE(_u32)   TU_U32_BYTE3(_u32), TU_U32_BYTE2(_u32), TU_U32_BYTE1(_u32), TU_U32_BY
  54:lib/tinyusb/src/common/tusb_common.h **** #define U32_TO_U8S_LE(_u32)   TU_U32_BYTE0(_u32), TU_U32_BYTE1(_u32), TU_U32_BYTE2(_u32), TU_U32_BY
  55:lib/tinyusb/src/common/tusb_common.h **** 
  56:lib/tinyusb/src/common/tusb_common.h **** #define TU_BIT(n)             (1UL << (n))
  57:lib/tinyusb/src/common/tusb_common.h **** 
  58:lib/tinyusb/src/common/tusb_common.h **** // Generate a mask with bit from high (31) to low (0) set, e.g TU_GENMASK(3, 0) = 0b1111
  59:lib/tinyusb/src/common/tusb_common.h **** #define TU_GENMASK(h, l)      ( (UINT32_MAX << (l)) & (UINT32_MAX >> (31 - (h))) )
  60:lib/tinyusb/src/common/tusb_common.h **** 
  61:lib/tinyusb/src/common/tusb_common.h **** //--------------------------------------------------------------------+
  62:lib/tinyusb/src/common/tusb_common.h **** // Includes
  63:lib/tinyusb/src/common/tusb_common.h **** //--------------------------------------------------------------------+
  64:lib/tinyusb/src/common/tusb_common.h **** 
  65:lib/tinyusb/src/common/tusb_common.h **** // Standard Headers
  66:lib/tinyusb/src/common/tusb_common.h **** #include <stdbool.h>
  67:lib/tinyusb/src/common/tusb_common.h **** #include <stdint.h>
  68:lib/tinyusb/src/common/tusb_common.h **** #include <inttypes.h>
  69:lib/tinyusb/src/common/tusb_common.h **** #include <stddef.h>
  70:lib/tinyusb/src/common/tusb_common.h **** #include <string.h>
  71:lib/tinyusb/src/common/tusb_common.h **** #include <stdio.h>
  72:lib/tinyusb/src/common/tusb_common.h **** 
  73:lib/tinyusb/src/common/tusb_common.h **** // Tinyusb Common Headers
  74:lib/tinyusb/src/common/tusb_common.h **** #include "tusb_option.h"
  75:lib/tinyusb/src/common/tusb_common.h **** #include "tusb_compiler.h"
  76:lib/tinyusb/src/common/tusb_common.h **** #include "tusb_verify.h"
  77:lib/tinyusb/src/common/tusb_common.h **** #include "tusb_types.h"
  78:lib/tinyusb/src/common/tusb_common.h **** #include "tusb_debug.h"
  79:lib/tinyusb/src/common/tusb_common.h **** 
  80:lib/tinyusb/src/common/tusb_common.h **** //--------------------------------------------------------------------+
  81:lib/tinyusb/src/common/tusb_common.h **** // Optional API implemented by application if needed
  82:lib/tinyusb/src/common/tusb_common.h **** // TODO move to a more ovious place/file
  83:lib/tinyusb/src/common/tusb_common.h **** //--------------------------------------------------------------------+
  84:lib/tinyusb/src/common/tusb_common.h **** 
  85:lib/tinyusb/src/common/tusb_common.h **** // flush data cache
  86:lib/tinyusb/src/common/tusb_common.h **** TU_ATTR_WEAK extern void tusb_app_dcache_flush(uintptr_t addr, uint32_t data_size);
  87:lib/tinyusb/src/common/tusb_common.h **** 
ARM GAS  /tmp/claude-502/ccFotbfS.s 			page 15


  88:lib/tinyusb/src/common/tusb_common.h **** // invalidate data cache
  89:lib/tinyusb/src/common/tusb_common.h **** TU_ATTR_WEAK extern void tusb_app_dcache_invalidate(uintptr_t addr, uint32_t data_size);
  90:lib/tinyusb/src/common/tusb_common.h **** 
  91:lib/tinyusb/src/common/tusb_common.h **** // Optional physical <-> virtual address translation
  92:lib/tinyusb/src/common/tusb_common.h **** TU_ATTR_WEAK extern void* tusb_app_virt_to_phys(void *virt_addr);
  93:lib/tinyusb/src/common/tusb_common.h **** TU_ATTR_WEAK extern void* tusb_app_phys_to_virt(void *phys_addr);
  94:lib/tinyusb/src/common/tusb_common.h **** 
  95:lib/tinyusb/src/common/tusb_common.h **** //--------------------------------------------------------------------+
  96:lib/tinyusb/src/common/tusb_common.h **** // Internal Inline Functions
  97:lib/tinyusb/src/common/tusb_common.h **** //--------------------------------------------------------------------+
  98:lib/tinyusb/src/common/tusb_common.h **** 
  99:lib/tinyusb/src/common/tusb_common.h **** //------------- Mem -------------//
 100:lib/tinyusb/src/common/tusb_common.h **** #define tu_memclr(buffer, size)  memset((buffer), 0, (size))
 101:lib/tinyusb/src/common/tusb_common.h **** #define tu_varclr(_var)          tu_memclr(_var, sizeof(*(_var)))
 102:lib/tinyusb/src/common/tusb_common.h **** 
 103:lib/tinyusb/src/common/tusb_common.h **** // This is a backport of memset_s from c11
 104:lib/tinyusb/src/common/tusb_common.h **** TU_ATTR_ALWAYS_INLINE static inline int tu_memset_s(void *dest, size_t destsz, int ch, size_t count
 105:lib/tinyusb/src/common/tusb_common.h ****   // TODO may check if desst and src is not NULL
 106:lib/tinyusb/src/common/tusb_common.h ****   if ( count > destsz ) {
 107:lib/tinyusb/src/common/tusb_common.h ****     return -1;
 108:lib/tinyusb/src/common/tusb_common.h ****   }
 109:lib/tinyusb/src/common/tusb_common.h ****   memset(dest, ch, count);
 110:lib/tinyusb/src/common/tusb_common.h ****   return 0;
 111:lib/tinyusb/src/common/tusb_common.h **** }
 112:lib/tinyusb/src/common/tusb_common.h **** 
 113:lib/tinyusb/src/common/tusb_common.h **** // This is a backport of memcpy_s from c11
 114:lib/tinyusb/src/common/tusb_common.h **** TU_ATTR_ALWAYS_INLINE static inline int tu_memcpy_s(void *dest, size_t destsz, const void *src, siz
 115:lib/tinyusb/src/common/tusb_common.h ****   // TODO may check if desst and src is not NULL
 116:lib/tinyusb/src/common/tusb_common.h ****   if ( count > destsz ) {
 117:lib/tinyusb/src/common/tusb_common.h ****     return -1;
 118:lib/tinyusb/src/common/tusb_common.h ****   }
 119:lib/tinyusb/src/common/tusb_common.h ****   memcpy(dest, src, count);
 120:lib/tinyusb/src/common/tusb_common.h ****   return 0;
 121:lib/tinyusb/src/common/tusb_common.h **** }
 122:lib/tinyusb/src/common/tusb_common.h **** 
 123:lib/tinyusb/src/common/tusb_common.h **** 
 124:lib/tinyusb/src/common/tusb_common.h **** //------------- Bytes -------------//
 125:lib/tinyusb/src/common/tusb_common.h **** TU_ATTR_ALWAYS_INLINE static inline uint32_t tu_u32(uint8_t b3, uint8_t b2, uint8_t b1, uint8_t b0)
 126:lib/tinyusb/src/common/tusb_common.h ****   return ( ((uint32_t) b3) << 24) | ( ((uint32_t) b2) << 16) | ( ((uint32_t) b1) << 8) | b0;
 127:lib/tinyusb/src/common/tusb_common.h **** }
 128:lib/tinyusb/src/common/tusb_common.h **** 
 129:lib/tinyusb/src/common/tusb_common.h **** TU_ATTR_ALWAYS_INLINE static inline uint16_t tu_u16(uint8_t high, uint8_t low) {
 130:lib/tinyusb/src/common/tusb_common.h ****   return (uint16_t) ((((uint16_t) high) << 8) | low);
 131:lib/tinyusb/src/common/tusb_common.h **** }
 132:lib/tinyusb/src/common/tusb_common.h **** 
 133:lib/tinyusb/src/common/tusb_common.h **** TU_ATTR_ALWAYS_INLINE static inline uint8_t tu_u32_byte3(uint32_t ui32) { return TU_U32_BYTE3(ui32)
 134:lib/tinyusb/src/common/tusb_common.h **** TU_ATTR_ALWAYS_INLINE static inline uint8_t tu_u32_byte2(uint32_t ui32) { return TU_U32_BYTE2(ui32)
 135:lib/tinyusb/src/common/tusb_common.h **** TU_ATTR_ALWAYS_INLINE static inline uint8_t tu_u32_byte1(uint32_t ui32) { return TU_U32_BYTE1(ui32)
 136:lib/tinyusb/src/common/tusb_common.h **** TU_ATTR_ALWAYS_INLINE static inline uint8_t tu_u32_byte0(uint32_t ui32) { return TU_U32_BYTE0(ui32)
 137:lib/tinyusb/src/common/tusb_common.h **** 
 138:lib/tinyusb/src/common/tusb_common.h **** TU_ATTR_ALWAYS_INLINE static inline uint16_t tu_u32_high16(uint32_t ui32) { return (uint16_t) (ui32
 139:lib/tinyusb/src/common/tusb_common.h **** TU_ATTR_ALWAYS_INLINE static inline uint16_t tu_u32_low16 (uint32_t ui32) { return (uint16_t) (ui32
 140:lib/tinyusb/src/common/tusb_common.h **** 
 141:lib/tinyusb/src/common/tusb_common.h **** TU_ATTR_ALWAYS_INLINE static inline uint8_t tu_u16_high(uint16_t ui16) { return TU_U16_HIGH(ui16); 
 142:lib/tinyusb/src/common/tusb_common.h **** TU_ATTR_ALWAYS_INLINE static inline uint8_t tu_u16_low (uint16_t ui16) { return TU_U16_LOW(ui16); }
 143:lib/tinyusb/src/common/tusb_common.h **** 
 144:lib/tinyusb/src/common/tusb_common.h **** //------------- Bits -------------//
ARM GAS  /tmp/claude-502/ccFotbfS.s 			page 16


 145:lib/tinyusb/src/common/tusb_common.h **** TU_ATTR_ALWAYS_INLINE static inline uint32_t tu_bit_set  (uint32_t value, uint8_t pos) { return val
 146:lib/tinyusb/src/common/tusb_common.h **** TU_ATTR_ALWAYS_INLINE static inline uint32_t tu_bit_clear(uint32_t value, uint8_t pos) { return val
 147:lib/tinyusb/src/common/tusb_common.h **** TU_ATTR_ALWAYS_INLINE static inline bool     tu_bit_test (uint32_t value, uint8_t pos) { return (va
 148:lib/tinyusb/src/common/tusb_common.h **** 
 149:lib/tinyusb/src/common/tusb_common.h **** //------------- Min -------------//
 150:lib/tinyusb/src/common/tusb_common.h **** TU_ATTR_ALWAYS_INLINE static inline uint8_t  tu_min8  (uint8_t  x, uint8_t y ) { return (x < y) ? x
 151:lib/tinyusb/src/common/tusb_common.h **** TU_ATTR_ALWAYS_INLINE static inline uint16_t tu_min16 (uint16_t x, uint16_t y) { return (x < y) ? x
 152:lib/tinyusb/src/common/tusb_common.h **** TU_ATTR_ALWAYS_INLINE static inline uint32_t tu_min32 (uint32_t x, uint32_t y) { return (x < y) ? x
 153:lib/tinyusb/src/common/tusb_common.h **** 
 154:lib/tinyusb/src/common/tusb_common.h **** //------------- Max -------------//
 155:lib/tinyusb/src/common/tusb_common.h **** TU_ATTR_ALWAYS_INLINE static inline uint8_t  tu_max8  (uint8_t  x, uint8_t y ) { return (x > y) ? x
 156:lib/tinyusb/src/common/tusb_common.h **** TU_ATTR_ALWAYS_INLINE static inline uint16_t tu_max16 (uint16_t x, uint16_t y) { return (x > y) ? x
 157:lib/tinyusb/src/common/tusb_common.h **** TU_ATTR_ALWAYS_INLINE static inline uint32_t tu_max32 (uint32_t x, uint32_t y) { return (x > y) ? x
 158:lib/tinyusb/src/common/tusb_common.h **** 
 159:lib/tinyusb/src/common/tusb_common.h **** //------------- Align -------------//
 160:lib/tinyusb/src/common/tusb_common.h **** TU_ATTR_ALWAYS_INLINE static inline uint32_t tu_align(uint32_t value, uint32_t alignment) {
 161:lib/tinyusb/src/common/tusb_common.h ****   return value & ((uint32_t) ~(alignment-1));
 162:lib/tinyusb/src/common/tusb_common.h **** }
 163:lib/tinyusb/src/common/tusb_common.h **** 
 164:lib/tinyusb/src/common/tusb_common.h **** TU_ATTR_ALWAYS_INLINE static inline uint32_t tu_align4  (uint32_t value) { return (value & 0xFFFFFF
 165:lib/tinyusb/src/common/tusb_common.h **** TU_ATTR_ALWAYS_INLINE static inline uint32_t tu_align8  (uint32_t value) { return (value & 0xFFFFFF
 166:lib/tinyusb/src/common/tusb_common.h **** TU_ATTR_ALWAYS_INLINE static inline uint32_t tu_align16 (uint32_t value) { return (value & 0xFFFFFF
 167:lib/tinyusb/src/common/tusb_common.h **** TU_ATTR_ALWAYS_INLINE static inline uint32_t tu_align32 (uint32_t value) { return (value & 0xFFFFFF
 168:lib/tinyusb/src/common/tusb_common.h **** TU_ATTR_ALWAYS_INLINE static inline uint32_t tu_align4k (uint32_t value) { return (value & 0xFFFFF0
 169:lib/tinyusb/src/common/tusb_common.h **** TU_ATTR_ALWAYS_INLINE static inline uint32_t tu_offset4k(uint32_t value) { return (value & 0xFFFUL)
 170:lib/tinyusb/src/common/tusb_common.h **** 
 171:lib/tinyusb/src/common/tusb_common.h **** TU_ATTR_ALWAYS_INLINE static inline bool tu_is_aligned32(uint32_t value) { return (value & 0x1FUL) 
 172:lib/tinyusb/src/common/tusb_common.h **** TU_ATTR_ALWAYS_INLINE static inline bool tu_is_aligned64(uint64_t value) { return (value & 0x3FUL) 
 173:lib/tinyusb/src/common/tusb_common.h **** 
 174:lib/tinyusb/src/common/tusb_common.h **** //------------- Mathematics -------------//
 175:lib/tinyusb/src/common/tusb_common.h **** TU_ATTR_ALWAYS_INLINE static inline uint32_t tu_div_ceil(uint32_t v, uint32_t d) { return (v + d -1
  83              		.loc 3 175 98 is_stmt 0 discriminator 2 view .LVU18
  84 0016 0332     		adds	r2, r2, #3
  85              	.LVL3:
  86              		.loc 3 175 98 discriminator 2 view .LVU19
  87              	.LBE177:
  88              	.LBE176:
 133:lib/tinyusb/src/portable/synopsys/dwc2/dcd_dwc2.c **** 
 134:lib/tinyusb/src/portable/synopsys/dwc2/dcd_dwc2.c ****   uint16_t fifo_size = tu_div_ceil(packet_size, 4);
 135:lib/tinyusb/src/portable/synopsys/dwc2/dcd_dwc2.c **** 
 136:lib/tinyusb/src/portable/synopsys/dwc2/dcd_dwc2.c ****   // "USB Data FIFOs" section in reference manual
 137:lib/tinyusb/src/portable/synopsys/dwc2/dcd_dwc2.c ****   // Peripheral FIFO architecture
 138:lib/tinyusb/src/portable/synopsys/dwc2/dcd_dwc2.c ****   //
 139:lib/tinyusb/src/portable/synopsys/dwc2/dcd_dwc2.c ****   // --------------- 320 or 1024 ( 1280 or 4096 bytes )
 140:lib/tinyusb/src/portable/synopsys/dwc2/dcd_dwc2.c ****   // | IN FIFO 0   |
 141:lib/tinyusb/src/portable/synopsys/dwc2/dcd_dwc2.c ****   // --------------- (320 or 1024) - 16
 142:lib/tinyusb/src/portable/synopsys/dwc2/dcd_dwc2.c ****   // | IN FIFO 1   |
 143:lib/tinyusb/src/portable/synopsys/dwc2/dcd_dwc2.c ****   // --------------- (320 or 1024) - 16 - x
 144:lib/tinyusb/src/portable/synopsys/dwc2/dcd_dwc2.c ****   // |   . . . .   |
 145:lib/tinyusb/src/portable/synopsys/dwc2/dcd_dwc2.c ****   // --------------- (320 or 1024) - 16 - x - y - ... - z
 146:lib/tinyusb/src/portable/synopsys/dwc2/dcd_dwc2.c ****   // | IN FIFO MAX |
 147:lib/tinyusb/src/portable/synopsys/dwc2/dcd_dwc2.c ****   // ---------------
 148:lib/tinyusb/src/portable/synopsys/dwc2/dcd_dwc2.c ****   // |    FREE     |
 149:lib/tinyusb/src/portable/synopsys/dwc2/dcd_dwc2.c ****   // --------------- GRXFSIZ
 150:lib/tinyusb/src/portable/synopsys/dwc2/dcd_dwc2.c ****   // | OUT FIFO    |
 151:lib/tinyusb/src/portable/synopsys/dwc2/dcd_dwc2.c ****   // | ( Shared )  |
 152:lib/tinyusb/src/portable/synopsys/dwc2/dcd_dwc2.c ****   // --------------- 0
ARM GAS  /tmp/claude-502/ccFotbfS.s 			page 17


 153:lib/tinyusb/src/portable/synopsys/dwc2/dcd_dwc2.c ****   //
 154:lib/tinyusb/src/portable/synopsys/dwc2/dcd_dwc2.c ****   // In FIFO is allocated by following rules:
 155:lib/tinyusb/src/portable/synopsys/dwc2/dcd_dwc2.c ****   // - IN EP 1 gets FIFO 1, IN EP "n" gets FIFO "n".
 156:lib/tinyusb/src/portable/synopsys/dwc2/dcd_dwc2.c ****   if (dir == TUSB_DIR_OUT) {
  89              		.loc 1 156 6 discriminator 2 view .LVU20
  90 0018 C909     		lsrs	r1, r1, #7
  91              	.LVL4:
 127:lib/tinyusb/src/portable/synopsys/dwc2/dcd_dwc2.c ****   uint8_t const ep_count = _dwc2_controller[rhport].ep_count;
  92              		.loc 1 127 16 discriminator 2 view .LVU21
  93 001a 5C59     		ldr	r4, [r3, r5]
 132:lib/tinyusb/src/portable/synopsys/dwc2/dcd_dwc2.c **** 
  94              		.loc 1 132 3 is_stmt 1 discriminator 2 view .LVU22
 134:lib/tinyusb/src/portable/synopsys/dwc2/dcd_dwc2.c **** 
  95              		.loc 1 134 3 discriminator 2 view .LVU23
  96              	.LVL5:
  97              	.LBB179:
  98              	.LBI176:
  99              		.loc 3 175 46 discriminator 2 view .LVU24
 100              	.LBB178:
 101              		.loc 3 175 84 discriminator 2 view .LVU25
 102              		.loc 3 175 84 is_stmt 0 discriminator 2 view .LVU26
 103              	.LBE178:
 104              	.LBE179:
 134:lib/tinyusb/src/portable/synopsys/dwc2/dcd_dwc2.c **** 
 105              		.loc 1 134 12 discriminator 2 view .LVU27
 106 001c 4FEA9202 		lsr	r2, r2, #2
 107              	.LVL6:
 108              		.loc 1 156 3 is_stmt 1 discriminator 2 view .LVU28
 109              		.loc 1 156 6 is_stmt 0 discriminator 2 view .LVU29
 110 0020 1CD1     		bne	.L4
 111              	.LBB180:
 157:lib/tinyusb/src/portable/synopsys/dwc2/dcd_dwc2.c ****     // Calculate required size of RX FIFO
 158:lib/tinyusb/src/portable/synopsys/dwc2/dcd_dwc2.c ****     uint16_t const sz = calc_grxfsiz(4 * fifo_size, ep_count);
 112              		.loc 1 158 5 is_stmt 1 view .LVU30
 113              	.LVL7:
 114              	.LBB181:
 115              	.LBI181:
 111:lib/tinyusb/src/portable/synopsys/dwc2/dcd_dwc2.c ****   return 15 + 2 * (max_ep_size / 4) + 2 * ep_count;
 116              		.loc 1 111 24 view .LVU31
 117              	.LBB182:
 112:lib/tinyusb/src/portable/synopsys/dwc2/dcd_dwc2.c **** }
 118              		.loc 1 112 3 view .LVU32
 112:lib/tinyusb/src/portable/synopsys/dwc2/dcd_dwc2.c **** }
 119              		.loc 1 112 37 is_stmt 0 view .LVU33
 120 0022 C2F30D03 		ubfx	r3, r2, #0, #14
 121              	.LBE182:
 122              	.LBE181:
 159:lib/tinyusb/src/portable/synopsys/dwc2/dcd_dwc2.c **** 
 160:lib/tinyusb/src/portable/synopsys/dwc2/dcd_dwc2.c ****     // If size_rx needs to be extended check if possible and if so enlarge it
 161:lib/tinyusb/src/portable/synopsys/dwc2/dcd_dwc2.c ****     if (dwc2->grxfsiz < sz) {
 123              		.loc 1 161 13 view .LVU34
 124 0026 626A     		ldr	r2, [r4, #36]
 125              	.LVL8:
 126              	.LBB184:
 127              	.LBB183:
 112:lib/tinyusb/src/portable/synopsys/dwc2/dcd_dwc2.c **** }
 128              		.loc 1 112 37 view .LVU35
ARM GAS  /tmp/claude-502/ccFotbfS.s 			page 18


 129 0028 7344     		add	r3, r3, lr
 130 002a 5B00     		lsls	r3, r3, #1
 131 002c 0F33     		adds	r3, r3, #15
 132 002e 9BB2     		uxth	r3, r3
 133              	.LVL9:
 112:lib/tinyusb/src/portable/synopsys/dwc2/dcd_dwc2.c **** }
 134              		.loc 1 112 37 view .LVU36
 135              	.LBE183:
 136              	.LBE184:
 137              		.loc 1 161 5 is_stmt 1 view .LVU37
 138              		.loc 1 161 8 is_stmt 0 view .LVU38
 139 0030 9A42     		cmp	r2, r3
 140 0032 2ED2     		bcs	.L9
 162:lib/tinyusb/src/portable/synopsys/dwc2/dcd_dwc2.c ****       TU_ASSERT(sz + _allocated_fifo_words_tx <= _dwc2_controller[rhport].ep_fifo_size / 4);
 141              		.loc 1 162 7 is_stmt 1 view .LVU39
 142              		.loc 1 162 7 view .LVU40
 143 0034 1A4A     		ldr	r2, .L19+4
 144 0036 C068     		ldr	r0, [r0, #12]
 145 0038 1288     		ldrh	r2, [r2]
 146 003a 1A44     		add	r2, r2, r3
 147 003c B2EB900F 		cmp	r2, r0, lsr #2
 148 0040 02D8     		bhi	.L15
 149              		.loc 1 162 7 discriminator 2 view .LVU41
 163:lib/tinyusb/src/portable/synopsys/dwc2/dcd_dwc2.c **** 
 164:lib/tinyusb/src/portable/synopsys/dwc2/dcd_dwc2.c ****       // Enlarge RX FIFO
 165:lib/tinyusb/src/portable/synopsys/dwc2/dcd_dwc2.c ****       dwc2->grxfsiz = sz;
 150              		.loc 1 165 7 discriminator 2 view .LVU42
 151              	.LBE180:
 166:lib/tinyusb/src/portable/synopsys/dwc2/dcd_dwc2.c ****     }
 167:lib/tinyusb/src/portable/synopsys/dwc2/dcd_dwc2.c ****   } else {
 168:lib/tinyusb/src/portable/synopsys/dwc2/dcd_dwc2.c ****     // Note if The TXFELVL is configured as half empty. In order
 169:lib/tinyusb/src/portable/synopsys/dwc2/dcd_dwc2.c ****     // to be able to write a packet at that point, the fifo must be twice the max_size.
 170:lib/tinyusb/src/portable/synopsys/dwc2/dcd_dwc2.c ****     if ((dwc2->gahbcfg & GAHBCFG_TXFELVL) == 0) {
 171:lib/tinyusb/src/portable/synopsys/dwc2/dcd_dwc2.c ****       fifo_size *= 2;
 172:lib/tinyusb/src/portable/synopsys/dwc2/dcd_dwc2.c ****     }
 173:lib/tinyusb/src/portable/synopsys/dwc2/dcd_dwc2.c **** 
 174:lib/tinyusb/src/portable/synopsys/dwc2/dcd_dwc2.c ****     // Check if free space is available
 175:lib/tinyusb/src/portable/synopsys/dwc2/dcd_dwc2.c ****     TU_ASSERT(_allocated_fifo_words_tx + fifo_size + dwc2->grxfsiz <= _dwc2_controller[rhport].ep_f
 176:lib/tinyusb/src/portable/synopsys/dwc2/dcd_dwc2.c ****     _allocated_fifo_words_tx += fifo_size;
 177:lib/tinyusb/src/portable/synopsys/dwc2/dcd_dwc2.c ****     TU_LOG(DWC2_DEBUG, "    Allocated %u bytes at offset %" PRIu32, fifo_size * 4,
 178:lib/tinyusb/src/portable/synopsys/dwc2/dcd_dwc2.c ****            _dwc2_controller[rhport].ep_fifo_size - _allocated_fifo_words_tx * 4);
 179:lib/tinyusb/src/portable/synopsys/dwc2/dcd_dwc2.c **** 
 180:lib/tinyusb/src/portable/synopsys/dwc2/dcd_dwc2.c ****     // DIEPTXF starts at FIFO #1.
 181:lib/tinyusb/src/portable/synopsys/dwc2/dcd_dwc2.c ****     // Both TXFD and TXSA are in unit of 32-bit words.
 182:lib/tinyusb/src/portable/synopsys/dwc2/dcd_dwc2.c ****     dwc2->dieptxf[epnum - 1] = (fifo_size << DIEPTXF_INEPTXFD_Pos) |
 183:lib/tinyusb/src/portable/synopsys/dwc2/dcd_dwc2.c ****                                (_dwc2_controller[rhport].ep_fifo_size / 4 - _allocated_fifo_words_t
 184:lib/tinyusb/src/portable/synopsys/dwc2/dcd_dwc2.c ****   }
 185:lib/tinyusb/src/portable/synopsys/dwc2/dcd_dwc2.c **** 
 186:lib/tinyusb/src/portable/synopsys/dwc2/dcd_dwc2.c ****   return true;
 152              		.loc 1 186 10 is_stmt 0 discriminator 2 view .LVU43
 153 0042 0120     		movs	r0, #1
 154              	.LBB185:
 165:lib/tinyusb/src/portable/synopsys/dwc2/dcd_dwc2.c ****     }
 155              		.loc 1 165 21 discriminator 2 view .LVU44
 156 0044 6362     		str	r3, [r4, #36]
 157              	.LVL10:
 158              	.L3:
ARM GAS  /tmp/claude-502/ccFotbfS.s 			page 19


 165:lib/tinyusb/src/portable/synopsys/dwc2/dcd_dwc2.c ****     }
 159              		.loc 1 165 21 discriminator 2 view .LVU45
 160              	.LBE185:
 187:lib/tinyusb/src/portable/synopsys/dwc2/dcd_dwc2.c **** }
 161              		.loc 1 187 1 view .LVU46
 162 0046 70BD     		pop	{r4, r5, r6, pc}
 163              	.L15:
 175:lib/tinyusb/src/portable/synopsys/dwc2/dcd_dwc2.c ****     _allocated_fifo_words_tx += fifo_size;
 164              		.loc 1 175 5 is_stmt 1 discriminator 1 view .LVU47
 175:lib/tinyusb/src/portable/synopsys/dwc2/dcd_dwc2.c ****     _allocated_fifo_words_tx += fifo_size;
 165              		.loc 1 175 5 discriminator 1 view .LVU48
 175:lib/tinyusb/src/portable/synopsys/dwc2/dcd_dwc2.c ****     _allocated_fifo_words_tx += fifo_size;
 166              		.loc 1 175 5 discriminator 1 view .LVU49
 175:lib/tinyusb/src/portable/synopsys/dwc2/dcd_dwc2.c ****     _allocated_fifo_words_tx += fifo_size;
 167              		.loc 1 175 5 discriminator 1 view .LVU50
 168              	.LBB186:
 175:lib/tinyusb/src/portable/synopsys/dwc2/dcd_dwc2.c ****     _allocated_fifo_words_tx += fifo_size;
 169              		.loc 1 175 5 discriminator 1 view .LVU51
 170              	.LVL11:
 175:lib/tinyusb/src/portable/synopsys/dwc2/dcd_dwc2.c ****     _allocated_fifo_words_tx += fifo_size;
 171              		.loc 1 175 5 discriminator 1 view .LVU52
 172 0048 4FF0E023 		mov	r3, #-536813568
 173 004c D3F8F00D 		ldr	r0, [r3, #3568]
 174 0050 10F00100 		ands	r0, r0, #1
 175 0054 F7D0     		beq	.L3
 175:lib/tinyusb/src/portable/synopsys/dwc2/dcd_dwc2.c ****     _allocated_fifo_words_tx += fifo_size;
 176              		.loc 1 175 5 discriminator 3 view .LVU53
 177              		.syntax unified
 178              	@ 175 "lib/tinyusb/src/portable/synopsys/dwc2/dcd_dwc2.c" 1
 179 0056 00BE     		BKPT #0
 180              	
 181              	@ 0 "" 2
 182              		.thumb
 183              		.syntax unified
 184              	.LBE186:
 185 0058 0020     		movs	r0, #0
 186              		.loc 1 187 1 is_stmt 0 discriminator 3 view .LVU54
 187 005a 70BD     		pop	{r4, r5, r6, pc}
 188              	.LVL12:
 189              	.L4:
 170:lib/tinyusb/src/portable/synopsys/dwc2/dcd_dwc2.c ****       fifo_size *= 2;
 190              		.loc 1 170 5 is_stmt 1 view .LVU55
 170:lib/tinyusb/src/portable/synopsys/dwc2/dcd_dwc2.c ****       fifo_size *= 2;
 191              		.loc 1 170 14 is_stmt 0 view .LVU56
 192 005c A168     		ldr	r1, [r4, #8]
 170:lib/tinyusb/src/portable/synopsys/dwc2/dcd_dwc2.c ****       fifo_size *= 2;
 193              		.loc 1 170 8 view .LVU57
 194 005e 0906     		lsls	r1, r1, #24
 195 0060 19D5     		bpl	.L18
 196              	.L6:
 175:lib/tinyusb/src/portable/synopsys/dwc2/dcd_dwc2.c ****     _allocated_fifo_words_tx += fifo_size;
 197              		.loc 1 175 5 is_stmt 1 view .LVU58
 175:lib/tinyusb/src/portable/synopsys/dwc2/dcd_dwc2.c ****     _allocated_fifo_words_tx += fifo_size;
 198              		.loc 1 175 5 view .LVU59
 199 0062 2B44     		add	r3, r3, r5
 200 0064 0E4E     		ldr	r6, .L19+4
 201 0066 606A     		ldr	r0, [r4, #36]
ARM GAS  /tmp/claude-502/ccFotbfS.s 			page 20


 202 0068 DD68     		ldr	r5, [r3, #12]
 203 006a 3388     		ldrh	r3, [r6]
 204 006c A908     		lsrs	r1, r5, #2
 205 006e 1344     		add	r3, r3, r2
 206 0070 1844     		add	r0, r0, r3
 207 0072 B0EB950F 		cmp	r0, r5, lsr #2
 208 0076 E7D8     		bhi	.L15
 175:lib/tinyusb/src/portable/synopsys/dwc2/dcd_dwc2.c ****     _allocated_fifo_words_tx += fifo_size;
 209              		.loc 1 175 5 discriminator 2 view .LVU60
 176:lib/tinyusb/src/portable/synopsys/dwc2/dcd_dwc2.c ****     TU_LOG(DWC2_DEBUG, "    Allocated %u bytes at offset %" PRIu32, fifo_size * 4,
 210              		.loc 1 176 5 discriminator 2 view .LVU61
 176:lib/tinyusb/src/portable/synopsys/dwc2/dcd_dwc2.c ****     TU_LOG(DWC2_DEBUG, "    Allocated %u bytes at offset %" PRIu32, fifo_size * 4,
 211              		.loc 1 176 30 is_stmt 0 discriminator 2 view .LVU62
 212 0078 9BB2     		uxth	r3, r3
 182:lib/tinyusb/src/portable/synopsys/dwc2/dcd_dwc2.c ****                                (_dwc2_controller[rhport].ep_fifo_size / 4 - _allocated_fifo_words_t
 213              		.loc 1 182 30 discriminator 2 view .LVU63
 214 007a 0CF13F0C 		add	ip, ip, #63
 215              	.LVL13:
 186:lib/tinyusb/src/portable/synopsys/dwc2/dcd_dwc2.c **** }
 216              		.loc 1 186 10 discriminator 2 view .LVU64
 217 007e 0120     		movs	r0, #1
 176:lib/tinyusb/src/portable/synopsys/dwc2/dcd_dwc2.c ****     TU_LOG(DWC2_DEBUG, "    Allocated %u bytes at offset %" PRIu32, fifo_size * 4,
 218              		.loc 1 176 30 discriminator 2 view .LVU65
 219 0080 3380     		strh	r3, [r6]	@ movhi
 178:lib/tinyusb/src/portable/synopsys/dwc2/dcd_dwc2.c **** 
 220              		.loc 1 178 81 is_stmt 1 discriminator 2 view .LVU66
 182:lib/tinyusb/src/portable/synopsys/dwc2/dcd_dwc2.c ****                                (_dwc2_controller[rhport].ep_fifo_size / 4 - _allocated_fifo_words_t
 221              		.loc 1 182 5 discriminator 2 view .LVU67
 183:lib/tinyusb/src/portable/synopsys/dwc2/dcd_dwc2.c ****   }
 222              		.loc 1 183 75 is_stmt 0 discriminator 2 view .LVU68
 223 0082 CB1A     		subs	r3, r1, r3
 182:lib/tinyusb/src/portable/synopsys/dwc2/dcd_dwc2.c ****                                (_dwc2_controller[rhport].ep_fifo_size / 4 - _allocated_fifo_words_t
 224              		.loc 1 182 30 discriminator 2 view .LVU69
 225 0084 04EB8C0C 		add	ip, r4, ip, lsl #2
 226              	.LVL14:
 182:lib/tinyusb/src/portable/synopsys/dwc2/dcd_dwc2.c ****                                (_dwc2_controller[rhport].ep_fifo_size / 4 - _allocated_fifo_words_t
 227              		.loc 1 182 68 discriminator 2 view .LVU70
 228 0088 43EA0242 		orr	r2, r3, r2, lsl #16
 229              	.LVL15:
 182:lib/tinyusb/src/portable/synopsys/dwc2/dcd_dwc2.c ****                                (_dwc2_controller[rhport].ep_fifo_size / 4 - _allocated_fifo_words_t
 230              		.loc 1 182 30 discriminator 2 view .LVU71
 231 008c CCF80420 		str	r2, [ip, #4]
 232              		.loc 1 187 1 discriminator 2 view .LVU72
 233 0090 70BD     		pop	{r4, r5, r6, pc}
 234              	.LVL16:
 235              	.L9:
 186:lib/tinyusb/src/portable/synopsys/dwc2/dcd_dwc2.c **** }
 236              		.loc 1 186 10 view .LVU73
 237 0092 0120     		movs	r0, #1
 238              		.loc 1 187 1 view .LVU74
 239 0094 70BD     		pop	{r4, r5, r6, pc}
 240              	.LVL17:
 241              	.L18:
 171:lib/tinyusb/src/portable/synopsys/dwc2/dcd_dwc2.c ****     }
 242              		.loc 1 171 7 is_stmt 1 view .LVU75
 171:lib/tinyusb/src/portable/synopsys/dwc2/dcd_dwc2.c ****     }
 243              		.loc 1 171 17 is_stmt 0 view .LVU76
ARM GAS  /tmp/claude-502/ccFotbfS.s 			page 21


 244 0096 5200     		lsls	r2, r2, #1
 245              	.LVL18:
 171:lib/tinyusb/src/portable/synopsys/dwc2/dcd_dwc2.c ****     }
 246              		.loc 1 171 17 view .LVU77
 247 0098 92B2     		uxth	r2, r2
 248              	.LVL19:
 171:lib/tinyusb/src/portable/synopsys/dwc2/dcd_dwc2.c ****     }
 249              		.loc 1 171 17 view .LVU78
 250 009a E2E7     		b	.L6
 251              	.L20:
 252              		.align	2
 253              	.L19:
 254 009c 00000000 		.word	.LANCHOR0
 255 00a0 00000000 		.word	.LANCHOR1
 256              		.cfi_endproc
 257              	.LFE393:
 259              		.section	.text.edpt_activate,"ax",%progbits
 260              		.align	1
 261              		.p2align 2,,3
 262              		.syntax unified
 263              		.thumb
 264              		.thumb_func
 266              	edpt_activate:
 267              	.LVL20:
 268              	.LFB394:
 188:lib/tinyusb/src/portable/synopsys/dwc2/dcd_dwc2.c **** 
 189:lib/tinyusb/src/portable/synopsys/dwc2/dcd_dwc2.c **** static void edpt_activate(uint8_t rhport, tusb_desc_endpoint_t const * p_endpoint_desc) {
 269              		.loc 1 189 89 is_stmt 1 view -0
 270              		.cfi_startproc
 271              		@ args = 0, pretend = 0, frame = 0
 272              		@ frame_needed = 0, uses_anonymous_args = 0
 190:lib/tinyusb/src/portable/synopsys/dwc2/dcd_dwc2.c ****   dwc2_regs_t* dwc2 = DWC2_REG(rhport);
 273              		.loc 1 190 3 view .LVU80
 189:lib/tinyusb/src/portable/synopsys/dwc2/dcd_dwc2.c ****   dwc2_regs_t* dwc2 = DWC2_REG(rhport);
 274              		.loc 1 189 89 is_stmt 0 view .LVU81
 275 0000 30B5     		push	{r4, r5, lr}
 276              		.cfi_def_cfa_offset 12
 277              		.cfi_offset 4, -12
 278              		.cfi_offset 5, -8
 279              		.cfi_offset 14, -4
 280              		.loc 1 190 23 view .LVU82
 281 0002 224B     		ldr	r3, .L27
 282 0004 0001     		lsls	r0, r0, #4
 283              	.LVL21:
 191:lib/tinyusb/src/portable/synopsys/dwc2/dcd_dwc2.c ****   uint8_t const epnum = tu_edpt_number(p_endpoint_desc->bEndpointAddress);
 284              		.loc 1 191 25 view .LVU83
 285 0006 91F802E0 		ldrb	lr, [r1, #2]	@ zero_extendqisi2
 190:lib/tinyusb/src/portable/synopsys/dwc2/dcd_dwc2.c ****   dwc2_regs_t* dwc2 = DWC2_REG(rhport);
 286              		.loc 1 190 16 view .LVU84
 287 000a 1D58     		ldr	r5, [r3, r0]
 288              	.LVL22:
 289              		.loc 1 191 3 is_stmt 1 view .LVU85
 290              	.LBB187:
 291              	.LBI187:
 492:lib/tinyusb/src/common/tusb_types.h ****   return (uint8_t)(addr & (~TUSB_DIR_IN_MASK));
 292              		.loc 2 492 45 view .LVU86
 293              	.LBB188:
ARM GAS  /tmp/claude-502/ccFotbfS.s 			page 22


 294              		.loc 2 493 3 view .LVU87
 295              		.loc 2 493 10 is_stmt 0 view .LVU88
 296 000c 0EF07F02 		and	r2, lr, #127
 297              	.LVL23:
 298              		.loc 2 493 10 view .LVU89
 299              	.LBE188:
 300              	.LBE187:
 192:lib/tinyusb/src/portable/synopsys/dwc2/dcd_dwc2.c ****   uint8_t const dir = tu_edpt_dir(p_endpoint_desc->bEndpointAddress);
 301              		.loc 1 192 3 is_stmt 1 view .LVU90
 302              	.LBB189:
 303              	.LBI189:
 487:lib/tinyusb/src/common/tusb_types.h ****   return (addr & TUSB_DIR_IN_MASK) ? TUSB_DIR_IN : TUSB_DIR_OUT;
 304              		.loc 2 487 48 view .LVU91
 305              	.LBB190:
 488:lib/tinyusb/src/common/tusb_types.h **** }
 306              		.loc 2 488 3 view .LVU92
 488:lib/tinyusb/src/common/tusb_types.h **** }
 307              		.loc 2 488 3 is_stmt 0 view .LVU93
 308              	.LBE190:
 309              	.LBE189:
 193:lib/tinyusb/src/portable/synopsys/dwc2/dcd_dwc2.c **** 
 194:lib/tinyusb/src/portable/synopsys/dwc2/dcd_dwc2.c ****   xfer_ctl_t* xfer = XFER_CTL_BASE(epnum, dir);
 310              		.loc 1 194 3 is_stmt 1 view .LVU94
 195:lib/tinyusb/src/portable/synopsys/dwc2/dcd_dwc2.c ****   xfer->max_size = tu_edpt_packet_size(p_endpoint_desc);
 311              		.loc 1 195 3 view .LVU95
 312              	.LBB191:
 313              	.LBI191:
 494:lib/tinyusb/src/common/tusb_types.h **** }
 495:lib/tinyusb/src/common/tusb_types.h **** 
 496:lib/tinyusb/src/common/tusb_types.h **** TU_ATTR_ALWAYS_INLINE static inline uint8_t tu_edpt_addr(uint8_t num, uint8_t dir) {
 497:lib/tinyusb/src/common/tusb_types.h ****   return (uint8_t)(num | (dir ? TUSB_DIR_IN_MASK : 0));
 498:lib/tinyusb/src/common/tusb_types.h **** }
 499:lib/tinyusb/src/common/tusb_types.h **** 
 500:lib/tinyusb/src/common/tusb_types.h **** TU_ATTR_ALWAYS_INLINE static inline uint16_t tu_edpt_packet_size(tusb_desc_endpoint_t const* desc_e
 314              		.loc 2 500 46 view .LVU96
 315              	.LBB192:
 501:lib/tinyusb/src/common/tusb_types.h ****   return tu_le16toh(desc_ep->wMaxPacketSize) & 0x7FF;
 316              		.loc 2 501 3 view .LVU97
 317              	.LBE192:
 318              	.LBE191:
 196:lib/tinyusb/src/portable/synopsys/dwc2/dcd_dwc2.c ****   xfer->interval = p_endpoint_desc->bInterval;
 197:lib/tinyusb/src/portable/synopsys/dwc2/dcd_dwc2.c **** 
 198:lib/tinyusb/src/portable/synopsys/dwc2/dcd_dwc2.c ****   // USBAEP, EPTYP, SD0PID_SEVNFRM, MPSIZ are the same for IN and OUT endpoints.
 199:lib/tinyusb/src/portable/synopsys/dwc2/dcd_dwc2.c ****   uint32_t const dxepctl = (1 << DOEPCTL_USBAEP_Pos) |
 200:lib/tinyusb/src/portable/synopsys/dwc2/dcd_dwc2.c ****                            (p_endpoint_desc->bmAttributes.xfer << DOEPCTL_EPTYP_Pos) |
 319              		.loc 1 200 58 is_stmt 0 view .LVU98
 320 0010 C878     		ldrb	r0, [r1, #3]	@ zero_extendqisi2
 321              	.LBB195:
 322              	.LBB193:
 323              		.loc 2 501 10 view .LVU99
 324 0012 8B88     		ldrh	r3, [r1, #4]	@ unaligned
 325              	.LBE193:
 326              	.LBE195:
 201:lib/tinyusb/src/portable/synopsys/dwc2/dcd_dwc2.c ****                            (p_endpoint_desc->bmAttributes.xfer != TUSB_XFER_ISOCHRONOUS ? DOEPCTL_S
 327              		.loc 1 201 114 view .LVU100
 328 0014 00F00304 		and	r4, r0, #3
 195:lib/tinyusb/src/portable/synopsys/dwc2/dcd_dwc2.c ****   xfer->interval = p_endpoint_desc->bInterval;
ARM GAS  /tmp/claude-502/ccFotbfS.s 			page 23


 329              		.loc 1 195 18 view .LVU101
 330 0018 4FEA420C 		lsl	ip, r2, #1
 331              	.LBB196:
 332              	.LBB194:
 333              		.loc 2 501 46 view .LVU102
 334 001c C3F30A03 		ubfx	r3, r3, #0, #11
 335              	.LVL24:
 336              		.loc 2 501 46 view .LVU103
 337              	.LBE194:
 338              	.LBE196:
 339              		.loc 1 201 114 view .LVU104
 340 0020 012C     		cmp	r4, #1
 200:lib/tinyusb/src/portable/synopsys/dwc2/dcd_dwc2.c ****                            (p_endpoint_desc->bmAttributes.xfer != TUSB_XFER_ISOCHRONOUS ? DOEPCTL_S
 341              		.loc 1 200 58 view .LVU105
 342 0022 2046     		mov	r0, r4
 195:lib/tinyusb/src/portable/synopsys/dwc2/dcd_dwc2.c ****   xfer->interval = p_endpoint_desc->bInterval;
 343              		.loc 1 195 18 view .LVU106
 344 0024 0CEBDE1C 		add	ip, ip, lr, lsr #7
 345 0028 194C     		ldr	r4, .L27+4
 346 002a 04EB0C1C 		add	ip, r4, ip, lsl #4
 347 002e ACF80A30 		strh	r3, [ip, #10]	@ movhi
 196:lib/tinyusb/src/portable/synopsys/dwc2/dcd_dwc2.c **** 
 348              		.loc 1 196 3 is_stmt 1 view .LVU107
 196:lib/tinyusb/src/portable/synopsys/dwc2/dcd_dwc2.c **** 
 349              		.loc 1 196 18 is_stmt 0 view .LVU108
 350 0032 8979     		ldrb	r1, [r1, #6]	@ zero_extendqisi2
 351              	.LVL25:
 196:lib/tinyusb/src/portable/synopsys/dwc2/dcd_dwc2.c **** 
 352              		.loc 1 196 18 view .LVU109
 353 0034 8CF80C10 		strb	r1, [ip, #12]
 199:lib/tinyusb/src/portable/synopsys/dwc2/dcd_dwc2.c ****                            (p_endpoint_desc->bmAttributes.xfer << DOEPCTL_EPTYP_Pos) |
 354              		.loc 1 199 3 is_stmt 1 view .LVU110
 355              		.loc 1 201 114 is_stmt 0 view .LVU111
 356 0038 14BF     		ite	ne
 357 003a 4FF08051 		movne	r1, #268435456
 358 003e 0021     		moveq	r1, #0
 359              		.loc 1 201 119 view .LVU112
 360 0040 0B43     		orrs	r3, r3, r1
 202:lib/tinyusb/src/portable/synopsys/dwc2/dcd_dwc2.c ****                            (xfer->max_size << DOEPCTL_MPSIZ_Pos);
 203:lib/tinyusb/src/portable/synopsys/dwc2/dcd_dwc2.c **** 
 204:lib/tinyusb/src/portable/synopsys/dwc2/dcd_dwc2.c ****   if (dir == TUSB_DIR_OUT) {
 361              		.loc 1 204 6 view .LVU113
 362 0042 5FEADE11 		lsrs	r1, lr, #7
 201:lib/tinyusb/src/portable/synopsys/dwc2/dcd_dwc2.c ****                            (xfer->max_size << DOEPCTL_MPSIZ_Pos);
 363              		.loc 1 201 119 view .LVU114
 364 0046 43EA8043 		orr	r3, r3, r0, lsl #18
 199:lib/tinyusb/src/portable/synopsys/dwc2/dcd_dwc2.c ****                            (p_endpoint_desc->bmAttributes.xfer << DOEPCTL_EPTYP_Pos) |
 365              		.loc 1 199 18 view .LVU115
 366 004a 43F40043 		orr	r3, r3, #32768
 367              	.LVL26:
 368              		.loc 1 204 3 is_stmt 1 view .LVU116
 369              		.loc 1 204 6 is_stmt 0 view .LVU117
 370 004e 0DD1     		bne	.L23
 205:lib/tinyusb/src/portable/synopsys/dwc2/dcd_dwc2.c ****     dwc2->epout[epnum].doepctl = dxepctl;
 371              		.loc 1 205 5 is_stmt 1 view .LVU118
 372              		.loc 1 205 32 is_stmt 0 view .LVU119
 373 0050 02F15801 		add	r1, r2, #88
ARM GAS  /tmp/claude-502/ccFotbfS.s 			page 24


 206:lib/tinyusb/src/portable/synopsys/dwc2/dcd_dwc2.c ****     dwc2->daintmsk |= TU_BIT(DAINTMSK_OEPM_Pos + epnum);
 374              		.loc 1 206 23 view .LVU120
 375 0054 02F11000 		add	r0, r2, #16
 376 0058 0122     		movs	r2, #1
 377              	.LVL27:
 205:lib/tinyusb/src/portable/synopsys/dwc2/dcd_dwc2.c ****     dwc2->epout[epnum].doepctl = dxepctl;
 378              		.loc 1 205 32 view .LVU121
 379 005a 4901     		lsls	r1, r1, #5
 380              		.loc 1 206 23 view .LVU122
 381 005c 8240     		lsls	r2, r2, r0
 205:lib/tinyusb/src/portable/synopsys/dwc2/dcd_dwc2.c ****     dwc2->epout[epnum].doepctl = dxepctl;
 382              		.loc 1 205 32 view .LVU123
 383 005e 6B50     		str	r3, [r5, r1]
 384              		.loc 1 206 5 is_stmt 1 view .LVU124
 385              		.loc 1 206 20 is_stmt 0 view .LVU125
 386 0060 D5F81C38 		ldr	r3, [r5, #2076]
 387              	.LVL28:
 388              		.loc 1 206 20 view .LVU126
 389 0064 1A43     		orrs	r2, r2, r3
 390 0066 C5F81C28 		str	r2, [r5, #2076]
 391              	.LVL29:
 207:lib/tinyusb/src/portable/synopsys/dwc2/dcd_dwc2.c ****   } else {
 208:lib/tinyusb/src/portable/synopsys/dwc2/dcd_dwc2.c ****     dwc2->epin[epnum].diepctl = dxepctl | (epnum << DIEPCTL_TXFNUM_Pos);
 209:lib/tinyusb/src/portable/synopsys/dwc2/dcd_dwc2.c ****     dwc2->daintmsk |= (1 << (DAINTMSK_IEPM_Pos + epnum));
 210:lib/tinyusb/src/portable/synopsys/dwc2/dcd_dwc2.c ****   }
 211:lib/tinyusb/src/portable/synopsys/dwc2/dcd_dwc2.c **** }
 392              		.loc 1 211 1 view .LVU127
 393 006a 30BD     		pop	{r4, r5, pc}
 394              	.LVL30:
 395              	.L23:
 208:lib/tinyusb/src/portable/synopsys/dwc2/dcd_dwc2.c ****     dwc2->daintmsk |= (1 << (DAINTMSK_IEPM_Pos + epnum));
 396              		.loc 1 208 5 is_stmt 1 view .LVU128
 208:lib/tinyusb/src/portable/synopsys/dwc2/dcd_dwc2.c ****     dwc2->daintmsk |= (1 << (DAINTMSK_IEPM_Pos + epnum));
 397              		.loc 1 208 31 is_stmt 0 view .LVU129
 398 006c 02F14800 		add	r0, r2, #72
 208:lib/tinyusb/src/portable/synopsys/dwc2/dcd_dwc2.c ****     dwc2->daintmsk |= (1 << (DAINTMSK_IEPM_Pos + epnum));
 399              		.loc 1 208 41 view .LVU130
 400 0070 43EA8253 		orr	r3, r3, r2, lsl #22
 401              	.LVL31:
 209:lib/tinyusb/src/portable/synopsys/dwc2/dcd_dwc2.c ****   }
 402              		.loc 1 209 26 view .LVU131
 403 0074 0121     		movs	r1, #1
 208:lib/tinyusb/src/portable/synopsys/dwc2/dcd_dwc2.c ****     dwc2->daintmsk |= (1 << (DAINTMSK_IEPM_Pos + epnum));
 404              		.loc 1 208 31 view .LVU132
 405 0076 4001     		lsls	r0, r0, #5
 209:lib/tinyusb/src/portable/synopsys/dwc2/dcd_dwc2.c ****   }
 406              		.loc 1 209 26 view .LVU133
 407 0078 01FA02F2 		lsl	r2, r1, r2
 408              	.LVL32:
 208:lib/tinyusb/src/portable/synopsys/dwc2/dcd_dwc2.c ****     dwc2->daintmsk |= (1 << (DAINTMSK_IEPM_Pos + epnum));
 409              		.loc 1 208 31 view .LVU134
 410 007c 2B50     		str	r3, [r5, r0]
 209:lib/tinyusb/src/portable/synopsys/dwc2/dcd_dwc2.c ****   }
 411              		.loc 1 209 5 is_stmt 1 view .LVU135
 209:lib/tinyusb/src/portable/synopsys/dwc2/dcd_dwc2.c ****   }
 412              		.loc 1 209 20 is_stmt 0 view .LVU136
 413 007e D5F81C38 		ldr	r3, [r5, #2076]
ARM GAS  /tmp/claude-502/ccFotbfS.s 			page 25


 414 0082 1A43     		orrs	r2, r2, r3
 415 0084 C5F81C28 		str	r2, [r5, #2076]
 416              		.loc 1 211 1 view .LVU137
 417 0088 30BD     		pop	{r4, r5, pc}
 418              	.LVL33:
 419              	.L28:
 420              		.loc 1 211 1 view .LVU138
 421 008a 00BF     		.align	2
 422              	.L27:
 423 008c 00000000 		.word	.LANCHOR0
 424 0090 00000000 		.word	.LANCHOR2
 425              		.cfi_endproc
 426              	.LFE394:
 428              		.section	.text.edpt_disable,"ax",%progbits
 429              		.align	1
 430              		.p2align 2,,3
 431              		.syntax unified
 432              		.thumb
 433              		.thumb_func
 435              	edpt_disable:
 436              	.LVL34:
 437              	.LFB395:
 212:lib/tinyusb/src/portable/synopsys/dwc2/dcd_dwc2.c **** 
 213:lib/tinyusb/src/portable/synopsys/dwc2/dcd_dwc2.c **** static void edpt_disable(uint8_t rhport, uint8_t ep_addr, bool stall) {
 438              		.loc 1 213 71 is_stmt 1 view -0
 439              		.cfi_startproc
 440              		@ args = 0, pretend = 0, frame = 0
 441              		@ frame_needed = 0, uses_anonymous_args = 0
 442              		@ link register save eliminated.
 214:lib/tinyusb/src/portable/synopsys/dwc2/dcd_dwc2.c ****   (void) rhport;
 443              		.loc 1 214 3 view .LVU140
 215:lib/tinyusb/src/portable/synopsys/dwc2/dcd_dwc2.c **** 
 216:lib/tinyusb/src/portable/synopsys/dwc2/dcd_dwc2.c ****   dwc2_regs_t* dwc2 = DWC2_REG(rhport);
 444              		.loc 1 216 3 view .LVU141
 445              		.loc 1 216 23 is_stmt 0 view .LVU142
 446 0000 0001     		lsls	r0, r0, #4
 447              	.LVL35:
 448              		.loc 1 216 23 view .LVU143
 449 0002 314B     		ldr	r3, .L74
 450              		.loc 1 216 16 view .LVU144
 451 0004 1B58     		ldr	r3, [r3, r0]
 452              	.LVL36:
 217:lib/tinyusb/src/portable/synopsys/dwc2/dcd_dwc2.c ****   uint8_t const epnum = tu_edpt_number(ep_addr);
 453              		.loc 1 217 3 is_stmt 1 view .LVU145
 454              	.LBB197:
 455              	.LBI197:
 492:lib/tinyusb/src/common/tusb_types.h ****   return (uint8_t)(addr & (~TUSB_DIR_IN_MASK));
 456              		.loc 2 492 45 view .LVU146
 457              	.LBB198:
 493:lib/tinyusb/src/common/tusb_types.h **** }
 458              		.loc 2 493 3 view .LVU147
 493:lib/tinyusb/src/common/tusb_types.h **** }
 459              		.loc 2 493 10 is_stmt 0 view .LVU148
 460 0006 01F07F00 		and	r0, r1, #127
 461              	.LVL37:
 493:lib/tinyusb/src/common/tusb_types.h **** }
 462              		.loc 2 493 10 view .LVU149
ARM GAS  /tmp/claude-502/ccFotbfS.s 			page 26


 463              	.LBE198:
 464              	.LBE197:
 218:lib/tinyusb/src/portable/synopsys/dwc2/dcd_dwc2.c ****   uint8_t const dir = tu_edpt_dir(ep_addr);
 465              		.loc 1 218 3 is_stmt 1 view .LVU150
 466              	.LBB199:
 467              	.LBI199:
 487:lib/tinyusb/src/common/tusb_types.h ****   return (addr & TUSB_DIR_IN_MASK) ? TUSB_DIR_IN : TUSB_DIR_OUT;
 468              		.loc 2 487 48 view .LVU151
 469              	.LBB200:
 488:lib/tinyusb/src/common/tusb_types.h **** }
 470              		.loc 2 488 3 view .LVU152
 488:lib/tinyusb/src/common/tusb_types.h **** }
 471              		.loc 2 488 3 is_stmt 0 view .LVU153
 472              	.LBE200:
 473              	.LBE199:
 219:lib/tinyusb/src/portable/synopsys/dwc2/dcd_dwc2.c **** 
 220:lib/tinyusb/src/portable/synopsys/dwc2/dcd_dwc2.c ****   if (dir == TUSB_DIR_IN) {
 474              		.loc 1 220 3 is_stmt 1 view .LVU154
 475              		.loc 1 220 6 is_stmt 0 view .LVU155
 476 000a C909     		lsrs	r1, r1, #7
 477              	.LVL38:
 478              		.loc 1 220 6 view .LVU156
 479 000c 2AD1     		bne	.L71
 480              	.LBB201:
 221:lib/tinyusb/src/portable/synopsys/dwc2/dcd_dwc2.c ****     dwc2_epin_t* epin = dwc2->epin;
 222:lib/tinyusb/src/portable/synopsys/dwc2/dcd_dwc2.c **** 
 223:lib/tinyusb/src/portable/synopsys/dwc2/dcd_dwc2.c ****     // Only disable currently enabled non-control endpoint
 224:lib/tinyusb/src/portable/synopsys/dwc2/dcd_dwc2.c ****     if ((epnum == 0) || !(epin[epnum].diepctl & DIEPCTL_EPENA)) {
 225:lib/tinyusb/src/portable/synopsys/dwc2/dcd_dwc2.c ****       epin[epnum].diepctl |= DIEPCTL_SNAK | (stall ? DIEPCTL_STALL : 0);
 226:lib/tinyusb/src/portable/synopsys/dwc2/dcd_dwc2.c ****     } else {
 227:lib/tinyusb/src/portable/synopsys/dwc2/dcd_dwc2.c ****       // Stop transmitting packets and NAK IN xfers.
 228:lib/tinyusb/src/portable/synopsys/dwc2/dcd_dwc2.c ****       epin[epnum].diepctl |= DIEPCTL_SNAK;
 229:lib/tinyusb/src/portable/synopsys/dwc2/dcd_dwc2.c ****       while ((epin[epnum].diepint & DIEPINT_INEPNE) == 0) {}
 230:lib/tinyusb/src/portable/synopsys/dwc2/dcd_dwc2.c **** 
 231:lib/tinyusb/src/portable/synopsys/dwc2/dcd_dwc2.c ****       // Disable the endpoint.
 232:lib/tinyusb/src/portable/synopsys/dwc2/dcd_dwc2.c ****       epin[epnum].diepctl |= DIEPCTL_EPDIS | (stall ? DIEPCTL_STALL : 0);
 233:lib/tinyusb/src/portable/synopsys/dwc2/dcd_dwc2.c ****       while ((epin[epnum].diepint & DIEPINT_EPDISD_Msk) == 0) {}
 234:lib/tinyusb/src/portable/synopsys/dwc2/dcd_dwc2.c **** 
 235:lib/tinyusb/src/portable/synopsys/dwc2/dcd_dwc2.c ****       epin[epnum].diepint = DIEPINT_EPDISD;
 236:lib/tinyusb/src/portable/synopsys/dwc2/dcd_dwc2.c ****     }
 237:lib/tinyusb/src/portable/synopsys/dwc2/dcd_dwc2.c **** 
 238:lib/tinyusb/src/portable/synopsys/dwc2/dcd_dwc2.c ****     // Flush the FIFO, and wait until we have confirmed it cleared.
 239:lib/tinyusb/src/portable/synopsys/dwc2/dcd_dwc2.c ****     fifo_flush_tx(dwc2, epnum);
 240:lib/tinyusb/src/portable/synopsys/dwc2/dcd_dwc2.c ****   } else {
 241:lib/tinyusb/src/portable/synopsys/dwc2/dcd_dwc2.c ****     dwc2_epout_t* epout = dwc2->epout;
 481              		.loc 1 241 5 is_stmt 1 view .LVU157
 482              		.loc 1 241 19 is_stmt 0 view .LVU158
 483 000e 03F53061 		add	r1, r3, #2816
 484              	.LVL39:
 242:lib/tinyusb/src/portable/synopsys/dwc2/dcd_dwc2.c **** 
 243:lib/tinyusb/src/portable/synopsys/dwc2/dcd_dwc2.c ****     // Only disable currently enabled non-control endpoint
 244:lib/tinyusb/src/portable/synopsys/dwc2/dcd_dwc2.c ****     if ((epnum == 0) || !(epout[epnum].doepctl & DOEPCTL_EPENA)) {
 485              		.loc 1 244 5 is_stmt 1 view .LVU159
 486              		.loc 1 244 8 is_stmt 0 view .LVU160
 487 0012 28B9     		cbnz	r0, .L72
 488              	.LVL40:
 489              	.L40:
ARM GAS  /tmp/claude-502/ccFotbfS.s 			page 27


 245:lib/tinyusb/src/portable/synopsys/dwc2/dcd_dwc2.c ****       epout[epnum].doepctl |= stall ? DOEPCTL_STALL : 0;
 490              		.loc 1 245 7 is_stmt 1 view .LVU161
 491              		.loc 1 245 28 is_stmt 0 view .LVU162
 492 0014 0B68     		ldr	r3, [r1]
 493              	.LVL41:
 494              		.loc 1 245 53 view .LVU163
 495 0016 0AB1     		cbz	r2, .L42
 496              		.loc 1 245 28 view .LVU164
 497 0018 43F40013 		orr	r3, r3, #2097152
 498              	.L42:
 499              		.loc 1 245 28 discriminator 4 view .LVU165
 500 001c 0B60     		str	r3, [r1]
 501 001e 7047     		bx	lr
 502              	.LVL42:
 503              	.L72:
 244:lib/tinyusb/src/portable/synopsys/dwc2/dcd_dwc2.c ****       epout[epnum].doepctl |= stall ? DOEPCTL_STALL : 0;
 504              		.loc 1 244 32 discriminator 1 view .LVU166
 505 0020 01EB4011 		add	r1, r1, r0, lsl #5
 506              	.LVL43:
 244:lib/tinyusb/src/portable/synopsys/dwc2/dcd_dwc2.c ****       epout[epnum].doepctl |= stall ? DOEPCTL_STALL : 0;
 507              		.loc 1 244 39 discriminator 1 view .LVU167
 508 0024 0868     		ldr	r0, [r1]
 509              	.LVL44:
 244:lib/tinyusb/src/portable/synopsys/dwc2/dcd_dwc2.c ****       epout[epnum].doepctl |= stall ? DOEPCTL_STALL : 0;
 510              		.loc 1 244 22 discriminator 1 view .LVU168
 511 0026 0028     		cmp	r0, #0
 512 0028 F4DA     		bge	.L40
 246:lib/tinyusb/src/portable/synopsys/dwc2/dcd_dwc2.c ****     } else {
 247:lib/tinyusb/src/portable/synopsys/dwc2/dcd_dwc2.c ****       // Asserting GONAK is required to STALL an OUT endpoint.
 248:lib/tinyusb/src/portable/synopsys/dwc2/dcd_dwc2.c ****       // Simpler to use polling here, we don't use the "B"OUTNAKEFF interrupt
 249:lib/tinyusb/src/portable/synopsys/dwc2/dcd_dwc2.c ****       // anyway, and it can't be cleared by user code. If this while loop never
 250:lib/tinyusb/src/portable/synopsys/dwc2/dcd_dwc2.c ****       // finishes, we have bigger problems than just the stack.
 251:lib/tinyusb/src/portable/synopsys/dwc2/dcd_dwc2.c ****       dwc2->dctl |= DCTL_SGONAK;
 513              		.loc 1 251 7 is_stmt 1 view .LVU169
 514              		.loc 1 251 18 is_stmt 0 view .LVU170
 515 002a D3F80408 		ldr	r0, [r3, #2052]
 516 002e 40F40070 		orr	r0, r0, #512
 517 0032 C3F80408 		str	r0, [r3, #2052]
 252:lib/tinyusb/src/portable/synopsys/dwc2/dcd_dwc2.c ****       while ((dwc2->gintsts & GINTSTS_BOUTNAKEFF_Msk) == 0) {}
 518              		.loc 1 252 7 is_stmt 1 view .LVU171
 519              	.L43:
 520              		.loc 1 252 62 discriminator 1 view .LVU172
 521              		.loc 1 252 13 discriminator 1 view .LVU173
 522              		.loc 1 252 19 is_stmt 0 discriminator 1 view .LVU174
 523 0036 5869     		ldr	r0, [r3, #20]
 524              		.loc 1 252 13 discriminator 1 view .LVU175
 525 0038 0006     		lsls	r0, r0, #24
 526 003a FCD5     		bpl	.L43
 253:lib/tinyusb/src/portable/synopsys/dwc2/dcd_dwc2.c **** 
 254:lib/tinyusb/src/portable/synopsys/dwc2/dcd_dwc2.c ****       // Ditto here- disable the endpoint.
 255:lib/tinyusb/src/portable/synopsys/dwc2/dcd_dwc2.c ****       epout[epnum].doepctl |= DOEPCTL_EPDIS | (stall ? DOEPCTL_STALL : 0);
 527              		.loc 1 255 7 is_stmt 1 view .LVU176
 528              		.loc 1 255 45 is_stmt 0 view .LVU177
 529 003c 002A     		cmp	r2, #0
 530 003e 2348     		ldr	r0, .L74+4
 531              		.loc 1 255 28 view .LVU178
 532 0040 0A68     		ldr	r2, [r1]
ARM GAS  /tmp/claude-502/ccFotbfS.s 			page 28


 533              	.LVL45:
 534              		.loc 1 255 45 view .LVU179
 535 0042 08BF     		it	eq
 536 0044 4FF08040 		moveq	r0, #1073741824
 537              		.loc 1 255 28 view .LVU180
 538 0048 0243     		orrs	r2, r2, r0
 539 004a 0A60     		str	r2, [r1]
 256:lib/tinyusb/src/portable/synopsys/dwc2/dcd_dwc2.c ****       while ((epout[epnum].doepint & DOEPINT_EPDISD_Msk) == 0) {}
 540              		.loc 1 256 7 is_stmt 1 view .LVU181
 541              	.L45:
 542              		.loc 1 256 65 discriminator 1 view .LVU182
 543              		.loc 1 256 13 discriminator 1 view .LVU183
 544              		.loc 1 256 27 is_stmt 0 discriminator 1 view .LVU184
 545 004c 8A68     		ldr	r2, [r1, #8]
 546              		.loc 1 256 13 discriminator 1 view .LVU185
 547 004e 9207     		lsls	r2, r2, #30
 548 0050 FCD5     		bpl	.L45
 257:lib/tinyusb/src/portable/synopsys/dwc2/dcd_dwc2.c **** 
 258:lib/tinyusb/src/portable/synopsys/dwc2/dcd_dwc2.c ****       epout[epnum].doepint = DOEPINT_EPDISD;
 549              		.loc 1 258 7 is_stmt 1 view .LVU186
 550              		.loc 1 258 28 is_stmt 0 view .LVU187
 551 0052 0222     		movs	r2, #2
 552 0054 8A60     		str	r2, [r1, #8]
 259:lib/tinyusb/src/portable/synopsys/dwc2/dcd_dwc2.c **** 
 260:lib/tinyusb/src/portable/synopsys/dwc2/dcd_dwc2.c ****       // Allow other OUT endpoints to keep receiving.
 261:lib/tinyusb/src/portable/synopsys/dwc2/dcd_dwc2.c ****       dwc2->dctl |= DCTL_CGONAK;
 553              		.loc 1 261 7 is_stmt 1 view .LVU188
 554              		.loc 1 261 18 is_stmt 0 view .LVU189
 555 0056 D3F80428 		ldr	r2, [r3, #2052]
 556 005a 42F48062 		orr	r2, r2, #1024
 557 005e C3F80428 		str	r2, [r3, #2052]
 558 0062 7047     		bx	lr
 559              	.LVL46:
 560              	.L71:
 561              		.loc 1 261 18 view .LVU190
 562              	.LBE201:
 563              	.LBB202:
 221:lib/tinyusb/src/portable/synopsys/dwc2/dcd_dwc2.c **** 
 564              		.loc 1 221 5 is_stmt 1 view .LVU191
 221:lib/tinyusb/src/portable/synopsys/dwc2/dcd_dwc2.c **** 
 565              		.loc 1 221 18 is_stmt 0 view .LVU192
 566 0064 03F51061 		add	r1, r3, #2304
 567              	.LVL47:
 224:lib/tinyusb/src/portable/synopsys/dwc2/dcd_dwc2.c ****       epin[epnum].diepctl |= DIEPCTL_SNAK | (stall ? DIEPCTL_STALL : 0);
 568              		.loc 1 224 5 is_stmt 1 view .LVU193
 569              	.LBE202:
 213:lib/tinyusb/src/portable/synopsys/dwc2/dcd_dwc2.c ****   (void) rhport;
 570              		.loc 1 213 71 is_stmt 0 view .LVU194
 571 0068 10B4     		push	{r4}
 572              		.cfi_def_cfa_offset 4
 573              		.cfi_offset 4, -4
 574              	.LBB205:
 224:lib/tinyusb/src/portable/synopsys/dwc2/dcd_dwc2.c ****       epin[epnum].diepctl |= DIEPCTL_SNAK | (stall ? DIEPCTL_STALL : 0);
 575              		.loc 1 224 8 view .LVU195
 576 006a 90B9     		cbnz	r0, .L73
 577              	.LVL48:
 578              	.L31:
ARM GAS  /tmp/claude-502/ccFotbfS.s 			page 29


 225:lib/tinyusb/src/portable/synopsys/dwc2/dcd_dwc2.c ****     } else {
 579              		.loc 1 225 7 is_stmt 1 view .LVU196
 225:lib/tinyusb/src/portable/synopsys/dwc2/dcd_dwc2.c ****     } else {
 580              		.loc 1 225 43 is_stmt 0 view .LVU197
 581 006c 002A     		cmp	r2, #0
 225:lib/tinyusb/src/portable/synopsys/dwc2/dcd_dwc2.c ****     } else {
 582              		.loc 1 225 27 view .LVU198
 583 006e 0A68     		ldr	r2, [r1]
 584              	.LVL49:
 225:lib/tinyusb/src/portable/synopsys/dwc2/dcd_dwc2.c ****     } else {
 585              		.loc 1 225 43 view .LVU199
 586 0070 14BF     		ite	ne
 587 0072 4FF00264 		movne	r4, #136314880
 588 0076 4FF00064 		moveq	r4, #134217728
 225:lib/tinyusb/src/portable/synopsys/dwc2/dcd_dwc2.c ****     } else {
 589              		.loc 1 225 27 view .LVU200
 590 007a 2243     		orrs	r2, r2, r4
 591 007c 0A60     		str	r2, [r1]
 592              	.L34:
 239:lib/tinyusb/src/portable/synopsys/dwc2/dcd_dwc2.c ****   } else {
 593              		.loc 1 239 5 is_stmt 1 view .LVU201
 594              	.LVL50:
 595              	.LBB203:
 596              	.LBI203:
 115:lib/tinyusb/src/portable/synopsys/dwc2/dcd_dwc2.c ****   // flush TX fifo and wait for it cleared
 597              		.loc 1 115 42 view .LVU202
 598              	.LBB204:
 117:lib/tinyusb/src/portable/synopsys/dwc2/dcd_dwc2.c ****   while (dwc2->grstctl & GRSTCTL_TXFFLSH_Msk) {}
 599              		.loc 1 117 3 view .LVU203
 117:lib/tinyusb/src/portable/synopsys/dwc2/dcd_dwc2.c ****   while (dwc2->grstctl & GRSTCTL_TXFFLSH_Msk) {}
 600              		.loc 1 117 44 is_stmt 0 view .LVU204
 601 007e 8001     		lsls	r0, r0, #6
 602              	.LVL51:
 117:lib/tinyusb/src/portable/synopsys/dwc2/dcd_dwc2.c ****   while (dwc2->grstctl & GRSTCTL_TXFFLSH_Msk) {}
 603              		.loc 1 117 35 view .LVU205
 604 0080 40F02000 		orr	r0, r0, #32
 117:lib/tinyusb/src/portable/synopsys/dwc2/dcd_dwc2.c ****   while (dwc2->grstctl & GRSTCTL_TXFFLSH_Msk) {}
 605              		.loc 1 117 17 view .LVU206
 606 0084 1861     		str	r0, [r3, #16]
 118:lib/tinyusb/src/portable/synopsys/dwc2/dcd_dwc2.c **** }
 607              		.loc 1 118 3 is_stmt 1 view .LVU207
 608              	.L38:
 118:lib/tinyusb/src/portable/synopsys/dwc2/dcd_dwc2.c **** }
 609              		.loc 1 118 48 view .LVU208
 118:lib/tinyusb/src/portable/synopsys/dwc2/dcd_dwc2.c **** }
 610              		.loc 1 118 9 view .LVU209
 118:lib/tinyusb/src/portable/synopsys/dwc2/dcd_dwc2.c **** }
 611              		.loc 1 118 14 is_stmt 0 view .LVU210
 612 0086 1A69     		ldr	r2, [r3, #16]
 118:lib/tinyusb/src/portable/synopsys/dwc2/dcd_dwc2.c **** }
 613              		.loc 1 118 9 view .LVU211
 614 0088 9406     		lsls	r4, r2, #26
 615 008a FCD4     		bmi	.L38
 616              	.LBE204:
 617              	.LBE203:
 618              	.LBE205:
 262:lib/tinyusb/src/portable/synopsys/dwc2/dcd_dwc2.c ****     }
ARM GAS  /tmp/claude-502/ccFotbfS.s 			page 30


 263:lib/tinyusb/src/portable/synopsys/dwc2/dcd_dwc2.c ****   }
 264:lib/tinyusb/src/portable/synopsys/dwc2/dcd_dwc2.c **** }
 619              		.loc 1 264 1 view .LVU212
 620 008c 5DF8044B 		ldr	r4, [sp], #4
 621              		.cfi_remember_state
 622              		.cfi_restore 4
 623              		.cfi_def_cfa_offset 0
 624 0090 7047     		bx	lr
 625              	.LVL52:
 626              	.L73:
 627              		.cfi_restore_state
 628              	.LBB206:
 224:lib/tinyusb/src/portable/synopsys/dwc2/dcd_dwc2.c ****       epin[epnum].diepctl |= DIEPCTL_SNAK | (stall ? DIEPCTL_STALL : 0);
 629              		.loc 1 224 31 discriminator 1 view .LVU213
 630 0092 01EB4011 		add	r1, r1, r0, lsl #5
 631              	.LVL53:
 224:lib/tinyusb/src/portable/synopsys/dwc2/dcd_dwc2.c ****       epin[epnum].diepctl |= DIEPCTL_SNAK | (stall ? DIEPCTL_STALL : 0);
 632              		.loc 1 224 38 discriminator 1 view .LVU214
 633 0096 0C68     		ldr	r4, [r1]
 224:lib/tinyusb/src/portable/synopsys/dwc2/dcd_dwc2.c ****       epin[epnum].diepctl |= DIEPCTL_SNAK | (stall ? DIEPCTL_STALL : 0);
 634              		.loc 1 224 22 discriminator 1 view .LVU215
 635 0098 002C     		cmp	r4, #0
 636 009a E7DA     		bge	.L31
 228:lib/tinyusb/src/portable/synopsys/dwc2/dcd_dwc2.c ****       while ((epin[epnum].diepint & DIEPINT_INEPNE) == 0) {}
 637              		.loc 1 228 7 is_stmt 1 view .LVU216
 228:lib/tinyusb/src/portable/synopsys/dwc2/dcd_dwc2.c ****       while ((epin[epnum].diepint & DIEPINT_INEPNE) == 0) {}
 638              		.loc 1 228 27 is_stmt 0 view .LVU217
 639 009c 0C68     		ldr	r4, [r1]
 640 009e 44F00064 		orr	r4, r4, #134217728
 641 00a2 0C60     		str	r4, [r1]
 229:lib/tinyusb/src/portable/synopsys/dwc2/dcd_dwc2.c **** 
 642              		.loc 1 229 7 is_stmt 1 view .LVU218
 643              	.L35:
 229:lib/tinyusb/src/portable/synopsys/dwc2/dcd_dwc2.c **** 
 644              		.loc 1 229 60 discriminator 1 view .LVU219
 229:lib/tinyusb/src/portable/synopsys/dwc2/dcd_dwc2.c **** 
 645              		.loc 1 229 13 discriminator 1 view .LVU220
 229:lib/tinyusb/src/portable/synopsys/dwc2/dcd_dwc2.c **** 
 646              		.loc 1 229 26 is_stmt 0 discriminator 1 view .LVU221
 647 00a4 8C68     		ldr	r4, [r1, #8]
 229:lib/tinyusb/src/portable/synopsys/dwc2/dcd_dwc2.c **** 
 648              		.loc 1 229 13 discriminator 1 view .LVU222
 649 00a6 6406     		lsls	r4, r4, #25
 650 00a8 FCD5     		bpl	.L35
 232:lib/tinyusb/src/portable/synopsys/dwc2/dcd_dwc2.c ****       while ((epin[epnum].diepint & DIEPINT_EPDISD_Msk) == 0) {}
 651              		.loc 1 232 7 is_stmt 1 view .LVU223
 232:lib/tinyusb/src/portable/synopsys/dwc2/dcd_dwc2.c ****       while ((epin[epnum].diepint & DIEPINT_EPDISD_Msk) == 0) {}
 652              		.loc 1 232 44 is_stmt 0 view .LVU224
 653 00aa 002A     		cmp	r2, #0
 654 00ac 074C     		ldr	r4, .L74+4
 232:lib/tinyusb/src/portable/synopsys/dwc2/dcd_dwc2.c ****       while ((epin[epnum].diepint & DIEPINT_EPDISD_Msk) == 0) {}
 655              		.loc 1 232 27 view .LVU225
 656 00ae 0A68     		ldr	r2, [r1]
 657              	.LVL54:
 232:lib/tinyusb/src/portable/synopsys/dwc2/dcd_dwc2.c ****       while ((epin[epnum].diepint & DIEPINT_EPDISD_Msk) == 0) {}
 658              		.loc 1 232 44 view .LVU226
 659 00b0 08BF     		it	eq
ARM GAS  /tmp/claude-502/ccFotbfS.s 			page 31


 660 00b2 4FF08044 		moveq	r4, #1073741824
 232:lib/tinyusb/src/portable/synopsys/dwc2/dcd_dwc2.c ****       while ((epin[epnum].diepint & DIEPINT_EPDISD_Msk) == 0) {}
 661              		.loc 1 232 27 view .LVU227
 662 00b6 2243     		orrs	r2, r2, r4
 663 00b8 0A60     		str	r2, [r1]
 233:lib/tinyusb/src/portable/synopsys/dwc2/dcd_dwc2.c **** 
 664              		.loc 1 233 7 is_stmt 1 view .LVU228
 665              	.L37:
 233:lib/tinyusb/src/portable/synopsys/dwc2/dcd_dwc2.c **** 
 666              		.loc 1 233 64 discriminator 1 view .LVU229
 233:lib/tinyusb/src/portable/synopsys/dwc2/dcd_dwc2.c **** 
 667              		.loc 1 233 13 discriminator 1 view .LVU230
 233:lib/tinyusb/src/portable/synopsys/dwc2/dcd_dwc2.c **** 
 668              		.loc 1 233 26 is_stmt 0 discriminator 1 view .LVU231
 669 00ba 8A68     		ldr	r2, [r1, #8]
 233:lib/tinyusb/src/portable/synopsys/dwc2/dcd_dwc2.c **** 
 670              		.loc 1 233 13 discriminator 1 view .LVU232
 671 00bc 9207     		lsls	r2, r2, #30
 672 00be FCD5     		bpl	.L37
 235:lib/tinyusb/src/portable/synopsys/dwc2/dcd_dwc2.c ****     }
 673              		.loc 1 235 7 is_stmt 1 view .LVU233
 235:lib/tinyusb/src/portable/synopsys/dwc2/dcd_dwc2.c ****     }
 674              		.loc 1 235 27 is_stmt 0 view .LVU234
 675 00c0 0222     		movs	r2, #2
 676 00c2 8A60     		str	r2, [r1, #8]
 677 00c4 DBE7     		b	.L34
 678              	.L75:
 679 00c6 00BF     		.align	2
 680              	.L74:
 681 00c8 00000000 		.word	.LANCHOR0
 682 00cc 00002040 		.word	1075838976
 683              	.LBE206:
 684              		.cfi_endproc
 685              	.LFE395:
 687              		.section	.text.edpt_schedule_packets,"ax",%progbits
 688              		.align	1
 689              		.p2align 2,,3
 690              		.syntax unified
 691              		.thumb
 692              		.thumb_func
 694              	edpt_schedule_packets:
 695              	.LVL55:
 696              	.LFB397:
 265:lib/tinyusb/src/portable/synopsys/dwc2/dcd_dwc2.c **** 
 266:lib/tinyusb/src/portable/synopsys/dwc2/dcd_dwc2.c **** // Start of Bus Reset
 267:lib/tinyusb/src/portable/synopsys/dwc2/dcd_dwc2.c **** static void bus_reset(uint8_t rhport) {
 268:lib/tinyusb/src/portable/synopsys/dwc2/dcd_dwc2.c ****   dwc2_regs_t* dwc2 = DWC2_REG(rhport);
 269:lib/tinyusb/src/portable/synopsys/dwc2/dcd_dwc2.c ****   uint8_t const ep_count = _dwc2_controller[rhport].ep_count;
 270:lib/tinyusb/src/portable/synopsys/dwc2/dcd_dwc2.c **** 
 271:lib/tinyusb/src/portable/synopsys/dwc2/dcd_dwc2.c ****   tu_memclr(xfer_status, sizeof(xfer_status));
 272:lib/tinyusb/src/portable/synopsys/dwc2/dcd_dwc2.c **** 
 273:lib/tinyusb/src/portable/synopsys/dwc2/dcd_dwc2.c ****   _sof_en = false;
 274:lib/tinyusb/src/portable/synopsys/dwc2/dcd_dwc2.c **** 
 275:lib/tinyusb/src/portable/synopsys/dwc2/dcd_dwc2.c ****   // clear device address
 276:lib/tinyusb/src/portable/synopsys/dwc2/dcd_dwc2.c ****   dwc2->dcfg &= ~DCFG_DAD_Msk;
 277:lib/tinyusb/src/portable/synopsys/dwc2/dcd_dwc2.c **** 
 278:lib/tinyusb/src/portable/synopsys/dwc2/dcd_dwc2.c ****   // 1. NAK for all OUT endpoints
ARM GAS  /tmp/claude-502/ccFotbfS.s 			page 32


 279:lib/tinyusb/src/portable/synopsys/dwc2/dcd_dwc2.c ****   for (uint8_t n = 0; n < ep_count; n++) {
 280:lib/tinyusb/src/portable/synopsys/dwc2/dcd_dwc2.c ****     dwc2->epout[n].doepctl |= DOEPCTL_SNAK;
 281:lib/tinyusb/src/portable/synopsys/dwc2/dcd_dwc2.c ****   }
 282:lib/tinyusb/src/portable/synopsys/dwc2/dcd_dwc2.c **** 
 283:lib/tinyusb/src/portable/synopsys/dwc2/dcd_dwc2.c ****   // 2. Disable all IN endpoints
 284:lib/tinyusb/src/portable/synopsys/dwc2/dcd_dwc2.c ****   for (uint8_t n = 0; n < ep_count; n++) {
 285:lib/tinyusb/src/portable/synopsys/dwc2/dcd_dwc2.c ****     if (dwc2->epin[n].diepctl & DIEPCTL_EPENA) {
 286:lib/tinyusb/src/portable/synopsys/dwc2/dcd_dwc2.c ****       dwc2->epin[n].diepctl |= DIEPCTL_SNAK | DIEPCTL_EPDIS;
 287:lib/tinyusb/src/portable/synopsys/dwc2/dcd_dwc2.c ****     }
 288:lib/tinyusb/src/portable/synopsys/dwc2/dcd_dwc2.c ****   }
 289:lib/tinyusb/src/portable/synopsys/dwc2/dcd_dwc2.c **** 
 290:lib/tinyusb/src/portable/synopsys/dwc2/dcd_dwc2.c ****   fifo_flush_tx(dwc2, 0x10); // all tx fifo
 291:lib/tinyusb/src/portable/synopsys/dwc2/dcd_dwc2.c ****   fifo_flush_rx(dwc2);
 292:lib/tinyusb/src/portable/synopsys/dwc2/dcd_dwc2.c **** 
 293:lib/tinyusb/src/portable/synopsys/dwc2/dcd_dwc2.c ****   // 3. Set up interrupt mask
 294:lib/tinyusb/src/portable/synopsys/dwc2/dcd_dwc2.c ****   dwc2->daintmsk = TU_BIT(DAINTMSK_OEPM_Pos) | TU_BIT(DAINTMSK_IEPM_Pos);
 295:lib/tinyusb/src/portable/synopsys/dwc2/dcd_dwc2.c ****   dwc2->doepmsk = DOEPMSK_STUPM | DOEPMSK_XFRCM;
 296:lib/tinyusb/src/portable/synopsys/dwc2/dcd_dwc2.c ****   dwc2->diepmsk = DIEPMSK_TOM | DIEPMSK_XFRCM;
 297:lib/tinyusb/src/portable/synopsys/dwc2/dcd_dwc2.c **** 
 298:lib/tinyusb/src/portable/synopsys/dwc2/dcd_dwc2.c ****   // "USB Data FIFOs" section in reference manual
 299:lib/tinyusb/src/portable/synopsys/dwc2/dcd_dwc2.c ****   // Peripheral FIFO architecture
 300:lib/tinyusb/src/portable/synopsys/dwc2/dcd_dwc2.c ****   //
 301:lib/tinyusb/src/portable/synopsys/dwc2/dcd_dwc2.c ****   // The FIFO is split up in a lower part where the RX FIFO is located and an upper part where the 
 302:lib/tinyusb/src/portable/synopsys/dwc2/dcd_dwc2.c ****   // We do this to allow the RX FIFO to grow dynamically which is possible since the free space is 
 303:lib/tinyusb/src/portable/synopsys/dwc2/dcd_dwc2.c ****   // between the RX and TX FIFOs. This is required by ISO OUT EPs which need a bigger FIFO than the
 304:lib/tinyusb/src/portable/synopsys/dwc2/dcd_dwc2.c ****   // configuration done below.
 305:lib/tinyusb/src/portable/synopsys/dwc2/dcd_dwc2.c ****   //
 306:lib/tinyusb/src/portable/synopsys/dwc2/dcd_dwc2.c ****   // Dynamically FIFO sizes are of interest only for ISO EPs since all others are usually not opene
 307:lib/tinyusb/src/portable/synopsys/dwc2/dcd_dwc2.c ****   // All EPs other than ISO are opened as soon as the driver starts up i.e. when the host sends a
 308:lib/tinyusb/src/portable/synopsys/dwc2/dcd_dwc2.c ****   // configure interface command. Hence, all IN EPs other the ISO will be located at the top. IN IS
 309:lib/tinyusb/src/portable/synopsys/dwc2/dcd_dwc2.c ****   // opened when the host sends an additional command: setInterface. At this point in time
 310:lib/tinyusb/src/portable/synopsys/dwc2/dcd_dwc2.c ****   // the ISO EP will be located next to the free space and can change its size. In case more IN EPs
 311:lib/tinyusb/src/portable/synopsys/dwc2/dcd_dwc2.c ****   // an additional memory
 312:lib/tinyusb/src/portable/synopsys/dwc2/dcd_dwc2.c ****   //
 313:lib/tinyusb/src/portable/synopsys/dwc2/dcd_dwc2.c ****   // --------------- 320 or 1024 ( 1280 or 4096 bytes )
 314:lib/tinyusb/src/portable/synopsys/dwc2/dcd_dwc2.c ****   // | IN FIFO 0   |
 315:lib/tinyusb/src/portable/synopsys/dwc2/dcd_dwc2.c ****   // --------------- (320 or 1024) - 16
 316:lib/tinyusb/src/portable/synopsys/dwc2/dcd_dwc2.c ****   // | IN FIFO 1   |
 317:lib/tinyusb/src/portable/synopsys/dwc2/dcd_dwc2.c ****   // --------------- (320 or 1024) - 16 - x
 318:lib/tinyusb/src/portable/synopsys/dwc2/dcd_dwc2.c ****   // |   . . . .   |
 319:lib/tinyusb/src/portable/synopsys/dwc2/dcd_dwc2.c ****   // --------------- (320 or 1024) - 16 - x - y - ... - z
 320:lib/tinyusb/src/portable/synopsys/dwc2/dcd_dwc2.c ****   // | IN FIFO MAX |
 321:lib/tinyusb/src/portable/synopsys/dwc2/dcd_dwc2.c ****   // ---------------
 322:lib/tinyusb/src/portable/synopsys/dwc2/dcd_dwc2.c ****   // |    FREE     |
 323:lib/tinyusb/src/portable/synopsys/dwc2/dcd_dwc2.c ****   // --------------- GRXFSIZ
 324:lib/tinyusb/src/portable/synopsys/dwc2/dcd_dwc2.c ****   // | OUT FIFO    |
 325:lib/tinyusb/src/portable/synopsys/dwc2/dcd_dwc2.c ****   // | ( Shared )  |
 326:lib/tinyusb/src/portable/synopsys/dwc2/dcd_dwc2.c ****   // --------------- 0
 327:lib/tinyusb/src/portable/synopsys/dwc2/dcd_dwc2.c ****   //
 328:lib/tinyusb/src/portable/synopsys/dwc2/dcd_dwc2.c ****   // According to "FIFO RAM allocation" section in RM, FIFO RAM are allocated as follows (each word
 329:lib/tinyusb/src/portable/synopsys/dwc2/dcd_dwc2.c ****   // - Each EP IN needs at least max packet size, 16 words is sufficient for EP0 IN
 330:lib/tinyusb/src/portable/synopsys/dwc2/dcd_dwc2.c ****   //
 331:lib/tinyusb/src/portable/synopsys/dwc2/dcd_dwc2.c ****   // - All EP OUT shared a unique OUT FIFO which uses
 332:lib/tinyusb/src/portable/synopsys/dwc2/dcd_dwc2.c ****   //   - 13 for setup packets + control words (up to 3 setup packets).
 333:lib/tinyusb/src/portable/synopsys/dwc2/dcd_dwc2.c ****   //   - 1 for global NAK (not required/used here).
 334:lib/tinyusb/src/portable/synopsys/dwc2/dcd_dwc2.c ****   //   - Largest-EPsize / 4 + 1. ( FS: 64 bytes, HS: 512 bytes). Recommended is  "2 x (Largest-EPsi
 335:lib/tinyusb/src/portable/synopsys/dwc2/dcd_dwc2.c ****   //   - 2 for each used OUT endpoint
ARM GAS  /tmp/claude-502/ccFotbfS.s 			page 33


 336:lib/tinyusb/src/portable/synopsys/dwc2/dcd_dwc2.c ****   //
 337:lib/tinyusb/src/portable/synopsys/dwc2/dcd_dwc2.c ****   //   Therefore GRXFSIZ = 13 + 1 + 1 + 2 x (Largest-EPsize/4) + 2 x EPOUTnum
 338:lib/tinyusb/src/portable/synopsys/dwc2/dcd_dwc2.c ****   //   - FullSpeed (64 Bytes ): GRXFSIZ = 15 + 2 x  16 + 2 x ep_count = 47  + 2 x ep_count
 339:lib/tinyusb/src/portable/synopsys/dwc2/dcd_dwc2.c ****   //   - Highspeed (512 bytes): GRXFSIZ = 15 + 2 x 128 + 2 x ep_count = 271 + 2 x ep_count
 340:lib/tinyusb/src/portable/synopsys/dwc2/dcd_dwc2.c ****   //
 341:lib/tinyusb/src/portable/synopsys/dwc2/dcd_dwc2.c ****   //   NOTE: Largest-EPsize & EPOUTnum is actual used endpoints in configuration. Since DCD has no 
 342:lib/tinyusb/src/portable/synopsys/dwc2/dcd_dwc2.c ****   //   of the overall picture yet. We will use the worst scenario: largest possible + ep_count
 343:lib/tinyusb/src/portable/synopsys/dwc2/dcd_dwc2.c ****   //
 344:lib/tinyusb/src/portable/synopsys/dwc2/dcd_dwc2.c ****   //   For Isochronous, largest EP size can be 1023/1024 for FS/HS respectively. In addition if mul
 345:lib/tinyusb/src/portable/synopsys/dwc2/dcd_dwc2.c ****   //   are enabled at least "2 x (Largest-EPsize/4) + 1" are recommended.  Maybe provide a macro fo
 346:lib/tinyusb/src/portable/synopsys/dwc2/dcd_dwc2.c ****   //   overwrite this.
 347:lib/tinyusb/src/portable/synopsys/dwc2/dcd_dwc2.c **** 
 348:lib/tinyusb/src/portable/synopsys/dwc2/dcd_dwc2.c ****   // EP0 out max is 64
 349:lib/tinyusb/src/portable/synopsys/dwc2/dcd_dwc2.c ****   dwc2->grxfsiz = calc_grxfsiz(64, ep_count);
 350:lib/tinyusb/src/portable/synopsys/dwc2/dcd_dwc2.c **** 
 351:lib/tinyusb/src/portable/synopsys/dwc2/dcd_dwc2.c ****   // Setup the control endpoint 0
 352:lib/tinyusb/src/portable/synopsys/dwc2/dcd_dwc2.c ****   _allocated_fifo_words_tx = 16;
 353:lib/tinyusb/src/portable/synopsys/dwc2/dcd_dwc2.c **** 
 354:lib/tinyusb/src/portable/synopsys/dwc2/dcd_dwc2.c ****   // Control IN uses FIFO 0 with 64 bytes ( 16 32-bit word )
 355:lib/tinyusb/src/portable/synopsys/dwc2/dcd_dwc2.c ****   dwc2->dieptxf0 = (16 << DIEPTXF0_TX0FD_Pos) | (_dwc2_controller[rhport].ep_fifo_size / 4 - _alloc
 356:lib/tinyusb/src/portable/synopsys/dwc2/dcd_dwc2.c **** 
 357:lib/tinyusb/src/portable/synopsys/dwc2/dcd_dwc2.c ****   // Fixed control EP0 size to 64 bytes
 358:lib/tinyusb/src/portable/synopsys/dwc2/dcd_dwc2.c ****   dwc2->epin[0].diepctl &= ~(0x03 << DIEPCTL_MPSIZ_Pos);
 359:lib/tinyusb/src/portable/synopsys/dwc2/dcd_dwc2.c ****   xfer_status[0][TUSB_DIR_OUT].max_size = 64;
 360:lib/tinyusb/src/portable/synopsys/dwc2/dcd_dwc2.c ****   xfer_status[0][TUSB_DIR_IN].max_size = 64;
 361:lib/tinyusb/src/portable/synopsys/dwc2/dcd_dwc2.c **** 
 362:lib/tinyusb/src/portable/synopsys/dwc2/dcd_dwc2.c ****   dwc2->epout[0].doeptsiz |= (3 << DOEPTSIZ_STUPCNT_Pos);
 363:lib/tinyusb/src/portable/synopsys/dwc2/dcd_dwc2.c **** 
 364:lib/tinyusb/src/portable/synopsys/dwc2/dcd_dwc2.c ****   dwc2->gintmsk |= GINTMSK_OEPINT | GINTMSK_IEPINT;
 365:lib/tinyusb/src/portable/synopsys/dwc2/dcd_dwc2.c **** }
 366:lib/tinyusb/src/portable/synopsys/dwc2/dcd_dwc2.c **** 
 367:lib/tinyusb/src/portable/synopsys/dwc2/dcd_dwc2.c **** static void edpt_schedule_packets(uint8_t rhport, uint8_t const epnum, uint8_t const dir, uint16_t 
 368:lib/tinyusb/src/portable/synopsys/dwc2/dcd_dwc2.c ****                                   uint16_t total_bytes) {
 697              		.loc 1 368 57 is_stmt 1 view -0
 698              		.cfi_startproc
 699              		@ args = 4, pretend = 0, frame = 0
 700              		@ frame_needed = 0, uses_anonymous_args = 0
 369:lib/tinyusb/src/portable/synopsys/dwc2/dcd_dwc2.c ****   (void) rhport;
 701              		.loc 1 369 3 view .LVU236
 370:lib/tinyusb/src/portable/synopsys/dwc2/dcd_dwc2.c **** 
 371:lib/tinyusb/src/portable/synopsys/dwc2/dcd_dwc2.c ****   dwc2_regs_t* dwc2 = DWC2_REG(rhport);
 702              		.loc 1 371 3 view .LVU237
 368:lib/tinyusb/src/portable/synopsys/dwc2/dcd_dwc2.c ****   (void) rhport;
 703              		.loc 1 368 57 is_stmt 0 view .LVU238
 704 0000 70B5     		push	{r4, r5, r6, lr}
 705              		.cfi_def_cfa_offset 16
 706              		.cfi_offset 4, -16
 707              		.cfi_offset 5, -12
 708              		.cfi_offset 6, -8
 709              		.cfi_offset 14, -4
 710              		.loc 1 371 23 view .LVU239
 711 0002 0001     		lsls	r0, r0, #4
 712              	.LVL56:
 713              		.loc 1 371 23 view .LVU240
 714 0004 3D4D     		ldr	r5, .L92
 368:lib/tinyusb/src/portable/synopsys/dwc2/dcd_dwc2.c ****   (void) rhport;
 715              		.loc 1 368 57 view .LVU241
ARM GAS  /tmp/claude-502/ccFotbfS.s 			page 34


 716 0006 BDF81040 		ldrh	r4, [sp, #16]
 717              		.loc 1 371 16 view .LVU242
 718 000a 2D58     		ldr	r5, [r5, r0]
 719              	.LVL57:
 372:lib/tinyusb/src/portable/synopsys/dwc2/dcd_dwc2.c **** 
 373:lib/tinyusb/src/portable/synopsys/dwc2/dcd_dwc2.c ****   // EP0 is limited to one packet each xfer
 374:lib/tinyusb/src/portable/synopsys/dwc2/dcd_dwc2.c ****   // We use multiple transaction of xfer->max_size length to get a whole transfer done
 375:lib/tinyusb/src/portable/synopsys/dwc2/dcd_dwc2.c ****   if (epnum == 0) {
 720              		.loc 1 375 3 is_stmt 1 view .LVU243
 721              		.loc 1 375 6 is_stmt 0 view .LVU244
 722 000c 61B9     		cbnz	r1, .L77
 723              	.LBB207:
 376:lib/tinyusb/src/portable/synopsys/dwc2/dcd_dwc2.c ****     xfer_ctl_t* const xfer = XFER_CTL_BASE(epnum, dir);
 724              		.loc 1 376 5 is_stmt 1 view .LVU245
 725              	.LVL58:
 377:lib/tinyusb/src/portable/synopsys/dwc2/dcd_dwc2.c ****     total_bytes = tu_min16(ep0_pending[dir], xfer->max_size);
 726              		.loc 1 377 5 view .LVU246
 727              		.loc 1 377 19 is_stmt 0 view .LVU247
 728 000e 3C48     		ldr	r0, .L92+4
 729 0010 3C4E     		ldr	r6, .L92+8
 730 0012 00EB0210 		add	r0, r0, r2, lsl #4
 731              	.LBB208:
 732              	.LBB209:
 151:lib/tinyusb/src/common/tusb_common.h **** TU_ATTR_ALWAYS_INLINE static inline uint32_t tu_min32 (uint32_t x, uint32_t y) { return (x < y) ? x
 733              		.loc 3 151 101 view .LVU248
 734 0016 4489     		ldrh	r4, [r0, #10]
 735              	.LBE209:
 736              	.LBE208:
 737              		.loc 1 377 19 view .LVU249
 738 0018 36F81200 		ldrh	r0, [r6, r2, lsl #1]
 739              	.LVL59:
 740              	.LBB211:
 741              	.LBI208:
 151:lib/tinyusb/src/common/tusb_common.h **** TU_ATTR_ALWAYS_INLINE static inline uint32_t tu_min32 (uint32_t x, uint32_t y) { return (x < y) ? x
 742              		.loc 3 151 46 is_stmt 1 view .LVU250
 743              	.LBB210:
 151:lib/tinyusb/src/common/tusb_common.h **** TU_ATTR_ALWAYS_INLINE static inline uint32_t tu_min32 (uint32_t x, uint32_t y) { return (x < y) ? x
 744              		.loc 3 151 82 view .LVU251
 151:lib/tinyusb/src/common/tusb_common.h **** TU_ATTR_ALWAYS_INLINE static inline uint32_t tu_min32 (uint32_t x, uint32_t y) { return (x < y) ? x
 745              		.loc 3 151 101 is_stmt 0 view .LVU252
 746 001c 8442     		cmp	r4, r0
 747 001e 28BF     		it	cs
 748 0020 0446     		movcs	r4, r0
 749              	.LVL60:
 151:lib/tinyusb/src/common/tusb_common.h **** TU_ATTR_ALWAYS_INLINE static inline uint32_t tu_min32 (uint32_t x, uint32_t y) { return (x < y) ? x
 750              		.loc 3 151 101 view .LVU253
 751              	.LBE210:
 752              	.LBE211:
 378:lib/tinyusb/src/portable/synopsys/dwc2/dcd_dwc2.c ****     ep0_pending[dir] -= total_bytes;
 753              		.loc 1 378 5 is_stmt 1 view .LVU254
 754              		.loc 1 378 22 is_stmt 0 view .LVU255
 755 0022 001B     		subs	r0, r0, r4
 756 0024 26F81200 		strh	r0, [r6, r2, lsl #1]	@ movhi
 757              	.LVL61:
 758              	.L77:
 759              		.loc 1 378 22 view .LVU256
 760              	.LBE207:
ARM GAS  /tmp/claude-502/ccFotbfS.s 			page 35


 379:lib/tinyusb/src/portable/synopsys/dwc2/dcd_dwc2.c ****   }
 380:lib/tinyusb/src/portable/synopsys/dwc2/dcd_dwc2.c **** 
 381:lib/tinyusb/src/portable/synopsys/dwc2/dcd_dwc2.c ****   // IN and OUT endpoint xfers are interrupt-driven, we just schedule them here.
 382:lib/tinyusb/src/portable/synopsys/dwc2/dcd_dwc2.c ****   if (dir == TUSB_DIR_IN) {
 761              		.loc 1 382 3 is_stmt 1 view .LVU257
 762              		.loc 1 382 6 is_stmt 0 view .LVU258
 763 0028 012A     		cmp	r2, #1
 764 002a 35D0     		beq	.L88
 765              	.LBB212:
 383:lib/tinyusb/src/portable/synopsys/dwc2/dcd_dwc2.c ****     dwc2_epin_t* epin = dwc2->epin;
 384:lib/tinyusb/src/portable/synopsys/dwc2/dcd_dwc2.c **** 
 385:lib/tinyusb/src/portable/synopsys/dwc2/dcd_dwc2.c ****     // A full IN transfer (multiple packets, possibly) triggers XFRC.
 386:lib/tinyusb/src/portable/synopsys/dwc2/dcd_dwc2.c ****     epin[epnum].dieptsiz = (num_packets << DIEPTSIZ_PKTCNT_Pos) |
 387:lib/tinyusb/src/portable/synopsys/dwc2/dcd_dwc2.c ****                            ((total_bytes << DIEPTSIZ_XFRSIZ_Pos) & DIEPTSIZ_XFRSIZ_Msk);
 388:lib/tinyusb/src/portable/synopsys/dwc2/dcd_dwc2.c **** 
 389:lib/tinyusb/src/portable/synopsys/dwc2/dcd_dwc2.c ****     epin[epnum].diepctl |= DIEPCTL_EPENA | DIEPCTL_CNAK;
 390:lib/tinyusb/src/portable/synopsys/dwc2/dcd_dwc2.c **** 
 391:lib/tinyusb/src/portable/synopsys/dwc2/dcd_dwc2.c ****     // For ISO endpoint set correct odd/even bit for next frame.
 392:lib/tinyusb/src/portable/synopsys/dwc2/dcd_dwc2.c ****     if ((epin[epnum].diepctl & DIEPCTL_EPTYP) == DIEPCTL_EPTYP_0 && (XFER_CTL_BASE(epnum, dir))->in
 393:lib/tinyusb/src/portable/synopsys/dwc2/dcd_dwc2.c ****       // Take odd/even bit from frame counter.
 394:lib/tinyusb/src/portable/synopsys/dwc2/dcd_dwc2.c ****       uint32_t const odd_frame_now = (dwc2->dsts & (1u << DSTS_FNSOF_Pos));
 395:lib/tinyusb/src/portable/synopsys/dwc2/dcd_dwc2.c ****       epin[epnum].diepctl |= (odd_frame_now ? DIEPCTL_SD0PID_SEVNFRM_Msk : DIEPCTL_SODDFRM_Msk);
 396:lib/tinyusb/src/portable/synopsys/dwc2/dcd_dwc2.c ****     }
 397:lib/tinyusb/src/portable/synopsys/dwc2/dcd_dwc2.c ****     // Enable fifo empty interrupt only if there are something to put in the fifo.
 398:lib/tinyusb/src/portable/synopsys/dwc2/dcd_dwc2.c ****     if (total_bytes != 0) {
 399:lib/tinyusb/src/portable/synopsys/dwc2/dcd_dwc2.c ****       dwc2->diepempmsk |= (1 << epnum);
 400:lib/tinyusb/src/portable/synopsys/dwc2/dcd_dwc2.c ****     }
 401:lib/tinyusb/src/portable/synopsys/dwc2/dcd_dwc2.c ****   } else {
 402:lib/tinyusb/src/portable/synopsys/dwc2/dcd_dwc2.c ****     dwc2_epout_t* epout = dwc2->epout;
 766              		.loc 1 402 5 is_stmt 1 view .LVU259
 767              	.LVL62:
 403:lib/tinyusb/src/portable/synopsys/dwc2/dcd_dwc2.c **** 
 404:lib/tinyusb/src/portable/synopsys/dwc2/dcd_dwc2.c ****     // A full OUT transfer (multiple packets, possibly) triggers XFRC.
 405:lib/tinyusb/src/portable/synopsys/dwc2/dcd_dwc2.c ****     epout[epnum].doeptsiz &= ~(DOEPTSIZ_PKTCNT_Msk | DOEPTSIZ_XFRSIZ);
 768              		.loc 1 405 5 view .LVU260
 402:lib/tinyusb/src/portable/synopsys/dwc2/dcd_dwc2.c **** 
 769              		.loc 1 402 19 is_stmt 0 view .LVU261
 770 002c 05F53060 		add	r0, r5, #2816
 771              	.LVL63:
 772              		.loc 1 405 10 view .LVU262
 773 0030 4FEA411E 		lsl	lr, r1, #5
 774              		.loc 1 405 27 view .LVU263
 775 0034 00EB411C 		add	ip, r0, r1, lsl #5
 776 0038 DCF81020 		ldr	r2, [ip, #16]
 777              	.LVL64:
 778              		.loc 1 405 27 view .LVU264
 779 003c 02F06042 		and	r2, r2, #-536870912
 780 0040 CCF81020 		str	r2, [ip, #16]
 406:lib/tinyusb/src/portable/synopsys/dwc2/dcd_dwc2.c ****     epout[epnum].doeptsiz |= (num_packets << DOEPTSIZ_PKTCNT_Pos) |
 781              		.loc 1 406 5 is_stmt 1 view .LVU265
 782              		.loc 1 406 27 is_stmt 0 view .LVU266
 783 0044 DCF81020 		ldr	r2, [ip, #16]
 784 0048 42EAC343 		orr	r3, r2, r3, lsl #19
 785              	.LVL65:
 786              		.loc 1 406 27 view .LVU267
 787 004c 1C43     		orrs	r4, r4, r3
 788              	.LVL66:
ARM GAS  /tmp/claude-502/ccFotbfS.s 			page 36


 789              		.loc 1 406 27 view .LVU268
 790 004e CCF81040 		str	r4, [ip, #16]
 407:lib/tinyusb/src/portable/synopsys/dwc2/dcd_dwc2.c ****                              ((total_bytes << DOEPTSIZ_XFRSIZ_Pos) & DOEPTSIZ_XFRSIZ_Msk);
 408:lib/tinyusb/src/portable/synopsys/dwc2/dcd_dwc2.c **** 
 409:lib/tinyusb/src/portable/synopsys/dwc2/dcd_dwc2.c ****     epout[epnum].doepctl |= DOEPCTL_EPENA | DOEPCTL_CNAK;
 791              		.loc 1 409 5 is_stmt 1 view .LVU269
 792              		.loc 1 409 26 is_stmt 0 view .LVU270
 793 0052 50F80E30 		ldr	r3, [r0, lr]
 794 0056 43F00443 		orr	r3, r3, #-2080374784
 795 005a 40F80E30 		str	r3, [r0, lr]
 410:lib/tinyusb/src/portable/synopsys/dwc2/dcd_dwc2.c ****     if ((epout[epnum].doepctl & DOEPCTL_EPTYP) == DOEPCTL_EPTYP_0 &&
 796              		.loc 1 410 5 is_stmt 1 view .LVU271
 797              		.loc 1 410 22 is_stmt 0 view .LVU272
 798 005e 50F80E30 		ldr	r3, [r0, lr]
 799              		.loc 1 410 31 view .LVU273
 800 0062 03F44023 		and	r3, r3, #786432
 801              		.loc 1 410 8 view .LVU274
 802 0066 B3F5802F 		cmp	r3, #262144
 803 006a 00D0     		beq	.L89
 804              	.LVL67:
 805              	.L76:
 806              		.loc 1 410 8 view .LVU275
 807              	.LBE212:
 411:lib/tinyusb/src/portable/synopsys/dwc2/dcd_dwc2.c ****         XFER_CTL_BASE(epnum, dir)->interval == 1) {
 412:lib/tinyusb/src/portable/synopsys/dwc2/dcd_dwc2.c ****       // Take odd/even bit from frame counter.
 413:lib/tinyusb/src/portable/synopsys/dwc2/dcd_dwc2.c ****       uint32_t const odd_frame_now = (dwc2->dsts & (1u << DSTS_FNSOF_Pos));
 414:lib/tinyusb/src/portable/synopsys/dwc2/dcd_dwc2.c ****       epout[epnum].doepctl |= (odd_frame_now ? DOEPCTL_SD0PID_SEVNFRM_Msk : DOEPCTL_SODDFRM_Msk);
 415:lib/tinyusb/src/portable/synopsys/dwc2/dcd_dwc2.c ****     }
 416:lib/tinyusb/src/portable/synopsys/dwc2/dcd_dwc2.c ****   }
 417:lib/tinyusb/src/portable/synopsys/dwc2/dcd_dwc2.c **** }
 808              		.loc 1 417 1 view .LVU276
 809 006c 70BD     		pop	{r4, r5, r6, pc}
 810              	.LVL68:
 811              	.L89:
 812              	.LBB214:
 411:lib/tinyusb/src/portable/synopsys/dwc2/dcd_dwc2.c ****         XFER_CTL_BASE(epnum, dir)->interval == 1) {
 813              		.loc 1 411 34 discriminator 1 view .LVU277
 814 006e 244B     		ldr	r3, .L92+4
 815 0070 03EB4111 		add	r1, r3, r1, lsl #5
 816              	.LVL69:
 410:lib/tinyusb/src/portable/synopsys/dwc2/dcd_dwc2.c ****     if ((epout[epnum].doepctl & DOEPCTL_EPTYP) == DOEPCTL_EPTYP_0 &&
 817              		.loc 1 410 67 discriminator 1 view .LVU278
 818 0074 0B7B     		ldrb	r3, [r1, #12]	@ zero_extendqisi2
 819 0076 012B     		cmp	r3, #1
 820 0078 F8D1     		bne	.L76
 821              	.LBB213:
 413:lib/tinyusb/src/portable/synopsys/dwc2/dcd_dwc2.c ****       epout[epnum].doepctl |= (odd_frame_now ? DOEPCTL_SD0PID_SEVNFRM_Msk : DOEPCTL_SODDFRM_Msk);
 822              		.loc 1 413 7 is_stmt 1 view .LVU279
 413:lib/tinyusb/src/portable/synopsys/dwc2/dcd_dwc2.c ****       epout[epnum].doepctl |= (odd_frame_now ? DOEPCTL_SD0PID_SEVNFRM_Msk : DOEPCTL_SODDFRM_Msk);
 823              		.loc 1 413 43 is_stmt 0 view .LVU280
 824 007a D5F80828 		ldr	r2, [r5, #2056]
 825              	.LVL70:
 414:lib/tinyusb/src/portable/synopsys/dwc2/dcd_dwc2.c ****     }
 826              		.loc 1 414 7 is_stmt 1 view .LVU281
 414:lib/tinyusb/src/portable/synopsys/dwc2/dcd_dwc2.c ****     }
 827              		.loc 1 414 28 is_stmt 0 view .LVU282
 828 007e 50F80E30 		ldr	r3, [r0, lr]
ARM GAS  /tmp/claude-502/ccFotbfS.s 			page 37


 414:lib/tinyusb/src/portable/synopsys/dwc2/dcd_dwc2.c ****     }
 829              		.loc 1 414 75 view .LVU283
 830 0082 12F4807F 		tst	r2, #256
 831 0086 14BF     		ite	ne
 832 0088 4FF08052 		movne	r2, #268435456
 833              	.LVL71:
 414:lib/tinyusb/src/portable/synopsys/dwc2/dcd_dwc2.c ****     }
 834              		.loc 1 414 75 view .LVU284
 835 008c 4FF00052 		moveq	r2, #536870912
 414:lib/tinyusb/src/portable/synopsys/dwc2/dcd_dwc2.c ****     }
 836              		.loc 1 414 28 view .LVU285
 837 0090 1343     		orrs	r3, r3, r2
 838 0092 40F80E30 		str	r3, [r0, lr]
 839              	.LBE213:
 840              	.LBE214:
 841              		.loc 1 417 1 view .LVU286
 842 0096 70BD     		pop	{r4, r5, r6, pc}
 843              	.LVL72:
 844              	.L88:
 845              	.LBB215:
 383:lib/tinyusb/src/portable/synopsys/dwc2/dcd_dwc2.c **** 
 846              		.loc 1 383 5 is_stmt 1 view .LVU287
 386:lib/tinyusb/src/portable/synopsys/dwc2/dcd_dwc2.c ****                            ((total_bytes << DIEPTSIZ_XFRSIZ_Pos) & DIEPTSIZ_XFRSIZ_Msk);
 847              		.loc 1 386 5 view .LVU288
 383:lib/tinyusb/src/portable/synopsys/dwc2/dcd_dwc2.c **** 
 848              		.loc 1 383 18 is_stmt 0 view .LVU289
 849 0098 05F51062 		add	r2, r5, #2304
 850              	.LVL73:
 386:lib/tinyusb/src/portable/synopsys/dwc2/dcd_dwc2.c ****                            ((total_bytes << DIEPTSIZ_XFRSIZ_Pos) & DIEPTSIZ_XFRSIZ_Msk);
 851              		.loc 1 386 9 view .LVU290
 852 009c 4801     		lsls	r0, r1, #5
 386:lib/tinyusb/src/portable/synopsys/dwc2/dcd_dwc2.c ****                            ((total_bytes << DIEPTSIZ_XFRSIZ_Pos) & DIEPTSIZ_XFRSIZ_Msk);
 853              		.loc 1 386 65 view .LVU291
 854 009e 44EAC343 		orr	r3, r4, r3, lsl #19
 855              	.LVL74:
 386:lib/tinyusb/src/portable/synopsys/dwc2/dcd_dwc2.c ****                            ((total_bytes << DIEPTSIZ_XFRSIZ_Pos) & DIEPTSIZ_XFRSIZ_Msk);
 856              		.loc 1 386 9 view .LVU292
 857 00a2 02EB4116 		add	r6, r2, r1, lsl #5
 386:lib/tinyusb/src/portable/synopsys/dwc2/dcd_dwc2.c ****                            ((total_bytes << DIEPTSIZ_XFRSIZ_Pos) & DIEPTSIZ_XFRSIZ_Msk);
 858              		.loc 1 386 26 view .LVU293
 859 00a6 3361     		str	r3, [r6, #16]
 389:lib/tinyusb/src/portable/synopsys/dwc2/dcd_dwc2.c **** 
 860              		.loc 1 389 5 is_stmt 1 view .LVU294
 389:lib/tinyusb/src/portable/synopsys/dwc2/dcd_dwc2.c **** 
 861              		.loc 1 389 25 is_stmt 0 view .LVU295
 862 00a8 1358     		ldr	r3, [r2, r0]
 863 00aa 43F00443 		orr	r3, r3, #-2080374784
 864 00ae 1350     		str	r3, [r2, r0]
 392:lib/tinyusb/src/portable/synopsys/dwc2/dcd_dwc2.c ****       // Take odd/even bit from frame counter.
 865              		.loc 1 392 5 is_stmt 1 view .LVU296
 392:lib/tinyusb/src/portable/synopsys/dwc2/dcd_dwc2.c ****       // Take odd/even bit from frame counter.
 866              		.loc 1 392 21 is_stmt 0 view .LVU297
 867 00b0 1358     		ldr	r3, [r2, r0]
 392:lib/tinyusb/src/portable/synopsys/dwc2/dcd_dwc2.c ****       // Take odd/even bit from frame counter.
 868              		.loc 1 392 30 view .LVU298
 869 00b2 03F44023 		and	r3, r3, #786432
 392:lib/tinyusb/src/portable/synopsys/dwc2/dcd_dwc2.c ****       // Take odd/even bit from frame counter.
ARM GAS  /tmp/claude-502/ccFotbfS.s 			page 38


 870              		.loc 1 392 8 view .LVU299
 871 00b6 B3F5802F 		cmp	r3, #262144
 872 00ba 0AD0     		beq	.L90
 873              	.L79:
 398:lib/tinyusb/src/portable/synopsys/dwc2/dcd_dwc2.c ****       dwc2->diepempmsk |= (1 << epnum);
 874              		.loc 1 398 5 is_stmt 1 view .LVU300
 398:lib/tinyusb/src/portable/synopsys/dwc2/dcd_dwc2.c ****       dwc2->diepempmsk |= (1 << epnum);
 875              		.loc 1 398 8 is_stmt 0 view .LVU301
 876 00bc 002C     		cmp	r4, #0
 877 00be D5D0     		beq	.L76
 878              	.L91:
 399:lib/tinyusb/src/portable/synopsys/dwc2/dcd_dwc2.c ****     }
 879              		.loc 1 399 7 is_stmt 1 view .LVU302
 399:lib/tinyusb/src/portable/synopsys/dwc2/dcd_dwc2.c ****     }
 880              		.loc 1 399 30 is_stmt 0 view .LVU303
 881 00c0 0123     		movs	r3, #1
 399:lib/tinyusb/src/portable/synopsys/dwc2/dcd_dwc2.c ****     }
 882              		.loc 1 399 24 view .LVU304
 883 00c2 D5F83428 		ldr	r2, [r5, #2100]
 884              	.LVL75:
 399:lib/tinyusb/src/portable/synopsys/dwc2/dcd_dwc2.c ****     }
 885              		.loc 1 399 30 view .LVU305
 886 00c6 03FA01F1 		lsl	r1, r3, r1
 887              	.LVL76:
 399:lib/tinyusb/src/portable/synopsys/dwc2/dcd_dwc2.c ****     }
 888              		.loc 1 399 24 view .LVU306
 889 00ca 1143     		orrs	r1, r1, r2
 890 00cc C5F83418 		str	r1, [r5, #2100]
 891              	.LBE215:
 892              		.loc 1 417 1 view .LVU307
 893 00d0 70BD     		pop	{r4, r5, r6, pc}
 894              	.LVL77:
 895              	.L90:
 896              	.LBB217:
 392:lib/tinyusb/src/portable/synopsys/dwc2/dcd_dwc2.c ****       // Take odd/even bit from frame counter.
 897              		.loc 1 392 96 discriminator 1 view .LVU308
 898 00d2 0B4B     		ldr	r3, .L92+4
 899 00d4 03EB4113 		add	r3, r3, r1, lsl #5
 392:lib/tinyusb/src/portable/synopsys/dwc2/dcd_dwc2.c ****       // Take odd/even bit from frame counter.
 900              		.loc 1 392 66 discriminator 1 view .LVU309
 901 00d8 1B7F     		ldrb	r3, [r3, #28]	@ zero_extendqisi2
 902 00da 012B     		cmp	r3, #1
 903 00dc EED1     		bne	.L79
 904              	.LBB216:
 394:lib/tinyusb/src/portable/synopsys/dwc2/dcd_dwc2.c ****       epin[epnum].diepctl |= (odd_frame_now ? DIEPCTL_SD0PID_SEVNFRM_Msk : DIEPCTL_SODDFRM_Msk);
 905              		.loc 1 394 7 is_stmt 1 view .LVU310
 394:lib/tinyusb/src/portable/synopsys/dwc2/dcd_dwc2.c ****       epin[epnum].diepctl |= (odd_frame_now ? DIEPCTL_SD0PID_SEVNFRM_Msk : DIEPCTL_SODDFRM_Msk);
 906              		.loc 1 394 43 is_stmt 0 view .LVU311
 907 00de D5F80838 		ldr	r3, [r5, #2056]
 908              	.LVL78:
 395:lib/tinyusb/src/portable/synopsys/dwc2/dcd_dwc2.c ****     }
 909              		.loc 1 395 7 is_stmt 1 view .LVU312
 395:lib/tinyusb/src/portable/synopsys/dwc2/dcd_dwc2.c ****     }
 910              		.loc 1 395 74 is_stmt 0 view .LVU313
 911 00e2 13F4807F 		tst	r3, #256
 395:lib/tinyusb/src/portable/synopsys/dwc2/dcd_dwc2.c ****     }
 912              		.loc 1 395 27 view .LVU314
ARM GAS  /tmp/claude-502/ccFotbfS.s 			page 39


 913 00e6 1358     		ldr	r3, [r2, r0]
 914              	.LVL79:
 395:lib/tinyusb/src/portable/synopsys/dwc2/dcd_dwc2.c ****     }
 915              		.loc 1 395 74 view .LVU315
 916 00e8 14BF     		ite	ne
 917 00ea 4FF08056 		movne	r6, #268435456
 918 00ee 4FF00056 		moveq	r6, #536870912
 395:lib/tinyusb/src/portable/synopsys/dwc2/dcd_dwc2.c ****     }
 919              		.loc 1 395 27 view .LVU316
 920 00f2 3343     		orrs	r3, r3, r6
 921 00f4 1350     		str	r3, [r2, r0]
 922              	.LBE216:
 398:lib/tinyusb/src/portable/synopsys/dwc2/dcd_dwc2.c ****       dwc2->diepempmsk |= (1 << epnum);
 923              		.loc 1 398 5 is_stmt 1 view .LVU317
 398:lib/tinyusb/src/portable/synopsys/dwc2/dcd_dwc2.c ****       dwc2->diepempmsk |= (1 << epnum);
 924              		.loc 1 398 8 is_stmt 0 view .LVU318
 925 00f6 002C     		cmp	r4, #0
 926 00f8 B8D0     		beq	.L76
 927 00fa E1E7     		b	.L91
 928              	.L93:
 929              		.align	2
 930              	.L92:
 931 00fc 00000000 		.word	.LANCHOR0
 932 0100 00000000 		.word	.LANCHOR2
 933 0104 00000000 		.word	.LANCHOR3
 934              	.LBE217:
 935              		.cfi_endproc
 936              	.LFE397:
 938              		.section	.text.dcd_init,"ax",%progbits
 939              		.align	1
 940              		.p2align 2,,3
 941              		.global	dcd_init
 942              		.syntax unified
 943              		.thumb
 944              		.thumb_func
 946              	dcd_init:
 947              	.LVL80:
 948              	.LFB403:
 418:lib/tinyusb/src/portable/synopsys/dwc2/dcd_dwc2.c **** 
 419:lib/tinyusb/src/portable/synopsys/dwc2/dcd_dwc2.c **** /*------------------------------------------------------------------*/
 420:lib/tinyusb/src/portable/synopsys/dwc2/dcd_dwc2.c **** /* Controller API
 421:lib/tinyusb/src/portable/synopsys/dwc2/dcd_dwc2.c ****  *------------------------------------------------------------------*/
 422:lib/tinyusb/src/portable/synopsys/dwc2/dcd_dwc2.c **** #if CFG_TUSB_DEBUG >= DWC2_DEBUG
 423:lib/tinyusb/src/portable/synopsys/dwc2/dcd_dwc2.c **** void print_dwc2_info(dwc2_regs_t* dwc2) {
 424:lib/tinyusb/src/portable/synopsys/dwc2/dcd_dwc2.c ****   // print guid, gsnpsid, ghwcfg1, ghwcfg2, ghwcfg3, ghwcfg4
 425:lib/tinyusb/src/portable/synopsys/dwc2/dcd_dwc2.c ****   // use dwc2_info.py/md for bit-field value and comparison with other ports
 426:lib/tinyusb/src/portable/synopsys/dwc2/dcd_dwc2.c ****   volatile uint32_t const* p = (volatile uint32_t const*) &dwc2->guid;
 427:lib/tinyusb/src/portable/synopsys/dwc2/dcd_dwc2.c ****   TU_LOG(DWC2_DEBUG, "guid, gsnpsid, ghwcfg1, ghwcfg2, ghwcfg3, ghwcfg4\r\n");
 428:lib/tinyusb/src/portable/synopsys/dwc2/dcd_dwc2.c ****   for (size_t i = 0; i < 5; i++) {
 429:lib/tinyusb/src/portable/synopsys/dwc2/dcd_dwc2.c ****     TU_LOG(DWC2_DEBUG, "0x%08" PRIX32 ", ", p[i]);
 430:lib/tinyusb/src/portable/synopsys/dwc2/dcd_dwc2.c ****   }
 431:lib/tinyusb/src/portable/synopsys/dwc2/dcd_dwc2.c ****   TU_LOG(DWC2_DEBUG, "0x%08" PRIX32 "\r\n", p[5]);
 432:lib/tinyusb/src/portable/synopsys/dwc2/dcd_dwc2.c **** }
 433:lib/tinyusb/src/portable/synopsys/dwc2/dcd_dwc2.c **** #endif
 434:lib/tinyusb/src/portable/synopsys/dwc2/dcd_dwc2.c **** 
 435:lib/tinyusb/src/portable/synopsys/dwc2/dcd_dwc2.c **** static void reset_core(dwc2_regs_t* dwc2) {
 436:lib/tinyusb/src/portable/synopsys/dwc2/dcd_dwc2.c ****   // reset core
ARM GAS  /tmp/claude-502/ccFotbfS.s 			page 40


 437:lib/tinyusb/src/portable/synopsys/dwc2/dcd_dwc2.c ****   dwc2->grstctl |= GRSTCTL_CSRST;
 438:lib/tinyusb/src/portable/synopsys/dwc2/dcd_dwc2.c **** 
 439:lib/tinyusb/src/portable/synopsys/dwc2/dcd_dwc2.c ****   // wait for reset bit is cleared
 440:lib/tinyusb/src/portable/synopsys/dwc2/dcd_dwc2.c ****   // TODO version 4.20a should wait for RESET DONE mask
 441:lib/tinyusb/src/portable/synopsys/dwc2/dcd_dwc2.c ****   while (dwc2->grstctl & GRSTCTL_CSRST) {}
 442:lib/tinyusb/src/portable/synopsys/dwc2/dcd_dwc2.c **** 
 443:lib/tinyusb/src/portable/synopsys/dwc2/dcd_dwc2.c ****   // wait for AHB master IDLE
 444:lib/tinyusb/src/portable/synopsys/dwc2/dcd_dwc2.c ****   while (!(dwc2->grstctl & GRSTCTL_AHBIDL)) {}
 445:lib/tinyusb/src/portable/synopsys/dwc2/dcd_dwc2.c **** 
 446:lib/tinyusb/src/portable/synopsys/dwc2/dcd_dwc2.c ****   // wait for device mode ?
 447:lib/tinyusb/src/portable/synopsys/dwc2/dcd_dwc2.c **** }
 448:lib/tinyusb/src/portable/synopsys/dwc2/dcd_dwc2.c **** 
 449:lib/tinyusb/src/portable/synopsys/dwc2/dcd_dwc2.c **** static bool phy_hs_supported(dwc2_regs_t* dwc2) {
 450:lib/tinyusb/src/portable/synopsys/dwc2/dcd_dwc2.c ****   (void) dwc2;
 451:lib/tinyusb/src/portable/synopsys/dwc2/dcd_dwc2.c **** 
 452:lib/tinyusb/src/portable/synopsys/dwc2/dcd_dwc2.c **** #if TU_CHECK_MCU(OPT_MCU_ESP32S2, OPT_MCU_ESP32S3)
 453:lib/tinyusb/src/portable/synopsys/dwc2/dcd_dwc2.c ****   // note: esp32 incorrect report its hs_phy_type as utmi
 454:lib/tinyusb/src/portable/synopsys/dwc2/dcd_dwc2.c ****   return false;
 455:lib/tinyusb/src/portable/synopsys/dwc2/dcd_dwc2.c **** #elif !TUD_OPT_HIGH_SPEED
 456:lib/tinyusb/src/portable/synopsys/dwc2/dcd_dwc2.c ****   return false;
 457:lib/tinyusb/src/portable/synopsys/dwc2/dcd_dwc2.c **** #else
 458:lib/tinyusb/src/portable/synopsys/dwc2/dcd_dwc2.c ****   return dwc2->ghwcfg2_bm.hs_phy_type != HS_PHY_TYPE_NONE;
 459:lib/tinyusb/src/portable/synopsys/dwc2/dcd_dwc2.c **** #endif
 460:lib/tinyusb/src/portable/synopsys/dwc2/dcd_dwc2.c **** }
 461:lib/tinyusb/src/portable/synopsys/dwc2/dcd_dwc2.c **** 
 462:lib/tinyusb/src/portable/synopsys/dwc2/dcd_dwc2.c **** static void phy_fs_init(dwc2_regs_t* dwc2) {
 463:lib/tinyusb/src/portable/synopsys/dwc2/dcd_dwc2.c ****   TU_LOG(DWC2_DEBUG, "Fullspeed PHY init\r\n");
 464:lib/tinyusb/src/portable/synopsys/dwc2/dcd_dwc2.c **** 
 465:lib/tinyusb/src/portable/synopsys/dwc2/dcd_dwc2.c ****   // Select FS PHY
 466:lib/tinyusb/src/portable/synopsys/dwc2/dcd_dwc2.c ****   dwc2->gusbcfg |= GUSBCFG_PHYSEL;
 467:lib/tinyusb/src/portable/synopsys/dwc2/dcd_dwc2.c **** 
 468:lib/tinyusb/src/portable/synopsys/dwc2/dcd_dwc2.c ****   // MCU specific PHY init before reset
 469:lib/tinyusb/src/portable/synopsys/dwc2/dcd_dwc2.c ****   dwc2_phy_init(dwc2, HS_PHY_TYPE_NONE);
 470:lib/tinyusb/src/portable/synopsys/dwc2/dcd_dwc2.c **** 
 471:lib/tinyusb/src/portable/synopsys/dwc2/dcd_dwc2.c ****   // Reset core after selecting PHY
 472:lib/tinyusb/src/portable/synopsys/dwc2/dcd_dwc2.c ****   reset_core(dwc2);
 473:lib/tinyusb/src/portable/synopsys/dwc2/dcd_dwc2.c **** 
 474:lib/tinyusb/src/portable/synopsys/dwc2/dcd_dwc2.c ****   // USB turnaround time is critical for certification where long cables and 5-Hubs are used.
 475:lib/tinyusb/src/portable/synopsys/dwc2/dcd_dwc2.c ****   // So if you need the AHB to run at less than 30 MHz, and if USB turnaround time is not critical,
 476:lib/tinyusb/src/portable/synopsys/dwc2/dcd_dwc2.c ****   // these bits can be programmed to a larger value. Default is 5
 477:lib/tinyusb/src/portable/synopsys/dwc2/dcd_dwc2.c ****   dwc2->gusbcfg = (dwc2->gusbcfg & ~GUSBCFG_TRDT_Msk) | (5u << GUSBCFG_TRDT_Pos);
 478:lib/tinyusb/src/portable/synopsys/dwc2/dcd_dwc2.c **** 
 479:lib/tinyusb/src/portable/synopsys/dwc2/dcd_dwc2.c ****   // MCU specific PHY update post reset
 480:lib/tinyusb/src/portable/synopsys/dwc2/dcd_dwc2.c ****   dwc2_phy_update(dwc2, HS_PHY_TYPE_NONE);
 481:lib/tinyusb/src/portable/synopsys/dwc2/dcd_dwc2.c **** 
 482:lib/tinyusb/src/portable/synopsys/dwc2/dcd_dwc2.c ****   // set max speed
 483:lib/tinyusb/src/portable/synopsys/dwc2/dcd_dwc2.c ****   dwc2->dcfg = (dwc2->dcfg & ~DCFG_DSPD_Msk) | (DCFG_DSPD_FS << DCFG_DSPD_Pos);
 484:lib/tinyusb/src/portable/synopsys/dwc2/dcd_dwc2.c **** }
 485:lib/tinyusb/src/portable/synopsys/dwc2/dcd_dwc2.c **** 
 486:lib/tinyusb/src/portable/synopsys/dwc2/dcd_dwc2.c **** static void phy_hs_init(dwc2_regs_t* dwc2) {
 487:lib/tinyusb/src/portable/synopsys/dwc2/dcd_dwc2.c ****   uint32_t gusbcfg = dwc2->gusbcfg;
 488:lib/tinyusb/src/portable/synopsys/dwc2/dcd_dwc2.c **** 
 489:lib/tinyusb/src/portable/synopsys/dwc2/dcd_dwc2.c ****   // De-select FS PHY
 490:lib/tinyusb/src/portable/synopsys/dwc2/dcd_dwc2.c ****   gusbcfg &= ~GUSBCFG_PHYSEL;
 491:lib/tinyusb/src/portable/synopsys/dwc2/dcd_dwc2.c **** 
 492:lib/tinyusb/src/portable/synopsys/dwc2/dcd_dwc2.c ****   if (dwc2->ghwcfg2_bm.hs_phy_type == HS_PHY_TYPE_ULPI) {
 493:lib/tinyusb/src/portable/synopsys/dwc2/dcd_dwc2.c ****     TU_LOG(DWC2_DEBUG, "Highspeed ULPI PHY init\r\n");
ARM GAS  /tmp/claude-502/ccFotbfS.s 			page 41


 494:lib/tinyusb/src/portable/synopsys/dwc2/dcd_dwc2.c **** 
 495:lib/tinyusb/src/portable/synopsys/dwc2/dcd_dwc2.c ****     // Select ULPI
 496:lib/tinyusb/src/portable/synopsys/dwc2/dcd_dwc2.c ****     gusbcfg |= GUSBCFG_ULPI_UTMI_SEL;
 497:lib/tinyusb/src/portable/synopsys/dwc2/dcd_dwc2.c **** 
 498:lib/tinyusb/src/portable/synopsys/dwc2/dcd_dwc2.c ****     // ULPI 8-bit interface, single data rate
 499:lib/tinyusb/src/portable/synopsys/dwc2/dcd_dwc2.c ****     gusbcfg &= ~(GUSBCFG_PHYIF16 | GUSBCFG_DDRSEL);
 500:lib/tinyusb/src/portable/synopsys/dwc2/dcd_dwc2.c **** 
 501:lib/tinyusb/src/portable/synopsys/dwc2/dcd_dwc2.c ****     // default internal VBUS Indicator and Drive
 502:lib/tinyusb/src/portable/synopsys/dwc2/dcd_dwc2.c ****     gusbcfg &= ~(GUSBCFG_ULPIEVBUSD | GUSBCFG_ULPIEVBUSI);
 503:lib/tinyusb/src/portable/synopsys/dwc2/dcd_dwc2.c **** 
 504:lib/tinyusb/src/portable/synopsys/dwc2/dcd_dwc2.c ****     // Disable FS/LS ULPI
 505:lib/tinyusb/src/portable/synopsys/dwc2/dcd_dwc2.c ****     gusbcfg &= ~(GUSBCFG_ULPIFSLS | GUSBCFG_ULPICSM);
 506:lib/tinyusb/src/portable/synopsys/dwc2/dcd_dwc2.c ****   } else {
 507:lib/tinyusb/src/portable/synopsys/dwc2/dcd_dwc2.c ****     TU_LOG(DWC2_DEBUG, "Highspeed UTMI+ PHY init\r\n");
 508:lib/tinyusb/src/portable/synopsys/dwc2/dcd_dwc2.c **** 
 509:lib/tinyusb/src/portable/synopsys/dwc2/dcd_dwc2.c ****     // Select UTMI+ with 8-bit interface
 510:lib/tinyusb/src/portable/synopsys/dwc2/dcd_dwc2.c ****     gusbcfg &= ~(GUSBCFG_ULPI_UTMI_SEL | GUSBCFG_PHYIF16);
 511:lib/tinyusb/src/portable/synopsys/dwc2/dcd_dwc2.c **** 
 512:lib/tinyusb/src/portable/synopsys/dwc2/dcd_dwc2.c ****     // Set 16-bit interface if supported
 513:lib/tinyusb/src/portable/synopsys/dwc2/dcd_dwc2.c ****     if (dwc2->ghwcfg4_bm.utmi_phy_data_width) gusbcfg |= GUSBCFG_PHYIF16;
 514:lib/tinyusb/src/portable/synopsys/dwc2/dcd_dwc2.c ****   }
 515:lib/tinyusb/src/portable/synopsys/dwc2/dcd_dwc2.c **** 
 516:lib/tinyusb/src/portable/synopsys/dwc2/dcd_dwc2.c ****   // Apply config
 517:lib/tinyusb/src/portable/synopsys/dwc2/dcd_dwc2.c ****   dwc2->gusbcfg = gusbcfg;
 518:lib/tinyusb/src/portable/synopsys/dwc2/dcd_dwc2.c **** 
 519:lib/tinyusb/src/portable/synopsys/dwc2/dcd_dwc2.c ****   // mcu specific phy init
 520:lib/tinyusb/src/portable/synopsys/dwc2/dcd_dwc2.c ****   dwc2_phy_init(dwc2, dwc2->ghwcfg2_bm.hs_phy_type);
 521:lib/tinyusb/src/portable/synopsys/dwc2/dcd_dwc2.c **** 
 522:lib/tinyusb/src/portable/synopsys/dwc2/dcd_dwc2.c ****   // Reset core after selecting PHY
 523:lib/tinyusb/src/portable/synopsys/dwc2/dcd_dwc2.c ****   reset_core(dwc2);
 524:lib/tinyusb/src/portable/synopsys/dwc2/dcd_dwc2.c **** 
 525:lib/tinyusb/src/portable/synopsys/dwc2/dcd_dwc2.c ****   // Set turn-around, must after core reset otherwise it will be clear
 526:lib/tinyusb/src/portable/synopsys/dwc2/dcd_dwc2.c ****   // - 9 if using 8-bit PHY interface
 527:lib/tinyusb/src/portable/synopsys/dwc2/dcd_dwc2.c ****   // - 5 if using 16-bit PHY interface
 528:lib/tinyusb/src/portable/synopsys/dwc2/dcd_dwc2.c ****   gusbcfg &= ~GUSBCFG_TRDT_Msk;
 529:lib/tinyusb/src/portable/synopsys/dwc2/dcd_dwc2.c ****   gusbcfg |= (dwc2->ghwcfg4_bm.utmi_phy_data_width ? 5u : 9u) << GUSBCFG_TRDT_Pos;
 530:lib/tinyusb/src/portable/synopsys/dwc2/dcd_dwc2.c ****   dwc2->gusbcfg = gusbcfg;
 531:lib/tinyusb/src/portable/synopsys/dwc2/dcd_dwc2.c **** 
 532:lib/tinyusb/src/portable/synopsys/dwc2/dcd_dwc2.c ****   // MCU specific PHY update post reset
 533:lib/tinyusb/src/portable/synopsys/dwc2/dcd_dwc2.c ****   dwc2_phy_update(dwc2, dwc2->ghwcfg2_bm.hs_phy_type);
 534:lib/tinyusb/src/portable/synopsys/dwc2/dcd_dwc2.c **** 
 535:lib/tinyusb/src/portable/synopsys/dwc2/dcd_dwc2.c ****   // Set max speed
 536:lib/tinyusb/src/portable/synopsys/dwc2/dcd_dwc2.c ****   uint32_t dcfg = dwc2->dcfg;
 537:lib/tinyusb/src/portable/synopsys/dwc2/dcd_dwc2.c ****   dcfg &= ~DCFG_DSPD_Msk;
 538:lib/tinyusb/src/portable/synopsys/dwc2/dcd_dwc2.c ****   dcfg |= DCFG_DSPD_HS << DCFG_DSPD_Pos;
 539:lib/tinyusb/src/portable/synopsys/dwc2/dcd_dwc2.c **** 
 540:lib/tinyusb/src/portable/synopsys/dwc2/dcd_dwc2.c ****   // XCVRDLY: transceiver delay between xcvr_sel and txvalid during device chirp is required
 541:lib/tinyusb/src/portable/synopsys/dwc2/dcd_dwc2.c ****   // when using with some PHYs such as USB334x (USB3341, USB3343, USB3346, USB3347)
 542:lib/tinyusb/src/portable/synopsys/dwc2/dcd_dwc2.c ****   if (dwc2->ghwcfg2_bm.hs_phy_type == HS_PHY_TYPE_ULPI) dcfg |= DCFG_XCVRDLY;
 543:lib/tinyusb/src/portable/synopsys/dwc2/dcd_dwc2.c **** 
 544:lib/tinyusb/src/portable/synopsys/dwc2/dcd_dwc2.c ****   dwc2->dcfg = dcfg;
 545:lib/tinyusb/src/portable/synopsys/dwc2/dcd_dwc2.c **** }
 546:lib/tinyusb/src/portable/synopsys/dwc2/dcd_dwc2.c **** 
 547:lib/tinyusb/src/portable/synopsys/dwc2/dcd_dwc2.c **** static bool check_dwc2(dwc2_regs_t* dwc2) {
 548:lib/tinyusb/src/portable/synopsys/dwc2/dcd_dwc2.c **** #if CFG_TUSB_DEBUG >= DWC2_DEBUG
 549:lib/tinyusb/src/portable/synopsys/dwc2/dcd_dwc2.c ****   print_dwc2_info(dwc2);
 550:lib/tinyusb/src/portable/synopsys/dwc2/dcd_dwc2.c **** #endif
ARM GAS  /tmp/claude-502/ccFotbfS.s 			page 42


 551:lib/tinyusb/src/portable/synopsys/dwc2/dcd_dwc2.c **** 
 552:lib/tinyusb/src/portable/synopsys/dwc2/dcd_dwc2.c ****   // For some reasons: GD32VF103 snpsid and all hwcfg register are always zero (skip it)
 553:lib/tinyusb/src/portable/synopsys/dwc2/dcd_dwc2.c ****   (void) dwc2;
 554:lib/tinyusb/src/portable/synopsys/dwc2/dcd_dwc2.c **** #if !TU_CHECK_MCU(OPT_MCU_GD32VF103)
 555:lib/tinyusb/src/portable/synopsys/dwc2/dcd_dwc2.c ****   uint32_t const gsnpsid = dwc2->gsnpsid & GSNPSID_ID_MASK;
 556:lib/tinyusb/src/portable/synopsys/dwc2/dcd_dwc2.c ****   TU_ASSERT(gsnpsid == DWC2_OTG_ID || gsnpsid == DWC2_FS_IOT_ID || gsnpsid == DWC2_HS_IOT_ID);
 557:lib/tinyusb/src/portable/synopsys/dwc2/dcd_dwc2.c **** #endif
 558:lib/tinyusb/src/portable/synopsys/dwc2/dcd_dwc2.c **** 
 559:lib/tinyusb/src/portable/synopsys/dwc2/dcd_dwc2.c ****   return true;
 560:lib/tinyusb/src/portable/synopsys/dwc2/dcd_dwc2.c **** }
 561:lib/tinyusb/src/portable/synopsys/dwc2/dcd_dwc2.c **** 
 562:lib/tinyusb/src/portable/synopsys/dwc2/dcd_dwc2.c **** void dcd_init(uint8_t rhport) {
 949              		.loc 1 562 31 is_stmt 1 view -0
 950              		.cfi_startproc
 951              		@ args = 0, pretend = 0, frame = 0
 952              		@ frame_needed = 0, uses_anonymous_args = 0
 953              		@ link register save eliminated.
 563:lib/tinyusb/src/portable/synopsys/dwc2/dcd_dwc2.c ****   // Programming model begins in the last section of the chapter on the USB
 564:lib/tinyusb/src/portable/synopsys/dwc2/dcd_dwc2.c ****   // peripheral in each Reference Manual.
 565:lib/tinyusb/src/portable/synopsys/dwc2/dcd_dwc2.c ****   dwc2_regs_t* dwc2 = DWC2_REG(rhport);
 954              		.loc 1 565 3 view .LVU320
 955              		.loc 1 565 23 is_stmt 0 view .LVU321
 956 0000 0001     		lsls	r0, r0, #4
 957              	.LVL81:
 958              		.loc 1 565 23 view .LVU322
 959 0002 714B     		ldr	r3, .L130
 960              	.LBB242:
 961              	.LBB243:
 555:lib/tinyusb/src/portable/synopsys/dwc2/dcd_dwc2.c ****   TU_ASSERT(gsnpsid == DWC2_OTG_ID || gsnpsid == DWC2_FS_IOT_ID || gsnpsid == DWC2_HS_IOT_ID);
 962              		.loc 1 555 18 view .LVU323
 963 0004 714A     		ldr	r2, .L130+4
 964              	.LBE243:
 965              	.LBE242:
 966              		.loc 1 565 23 view .LVU324
 967 0006 1B58     		ldr	r3, [r3, r0]
 968              	.LVL82:
 566:lib/tinyusb/src/portable/synopsys/dwc2/dcd_dwc2.c **** 
 567:lib/tinyusb/src/portable/synopsys/dwc2/dcd_dwc2.c ****   // Check Synopsys ID register, failed if controller clock/power is not enabled
 568:lib/tinyusb/src/portable/synopsys/dwc2/dcd_dwc2.c ****   if (!check_dwc2(dwc2)) return;
 969              		.loc 1 568 3 is_stmt 1 view .LVU325
 970              	.LBB248:
 971              	.LBI242:
 547:lib/tinyusb/src/portable/synopsys/dwc2/dcd_dwc2.c **** #if CFG_TUSB_DEBUG >= DWC2_DEBUG
 972              		.loc 1 547 13 view .LVU326
 973              	.LBB245:
 553:lib/tinyusb/src/portable/synopsys/dwc2/dcd_dwc2.c **** #if !TU_CHECK_MCU(OPT_MCU_GD32VF103)
 974              		.loc 1 553 3 view .LVU327
 555:lib/tinyusb/src/portable/synopsys/dwc2/dcd_dwc2.c ****   TU_ASSERT(gsnpsid == DWC2_OTG_ID || gsnpsid == DWC2_FS_IOT_ID || gsnpsid == DWC2_HS_IOT_ID);
 975              		.loc 1 555 3 view .LVU328
 556:lib/tinyusb/src/portable/synopsys/dwc2/dcd_dwc2.c **** #endif
 976              		.loc 1 556 3 is_stmt 0 view .LVU329
 977 0008 7149     		ldr	r1, .L130+8
 555:lib/tinyusb/src/portable/synopsys/dwc2/dcd_dwc2.c ****   TU_ASSERT(gsnpsid == DWC2_OTG_ID || gsnpsid == DWC2_FS_IOT_ID || gsnpsid == DWC2_HS_IOT_ID);
 978              		.loc 1 555 32 view .LVU330
 979 000a 186C     		ldr	r0, [r3, #64]
 980              	.LBE245:
 981              	.LBE248:
ARM GAS  /tmp/claude-502/ccFotbfS.s 			page 43


 562:lib/tinyusb/src/portable/synopsys/dwc2/dcd_dwc2.c ****   // Programming model begins in the last section of the chapter on the USB
 982              		.loc 1 562 31 view .LVU331
 983 000c 10B4     		push	{r4}
 984              		.cfi_def_cfa_offset 4
 985              		.cfi_offset 4, -4
 986              	.LBB249:
 987              	.LBB246:
 555:lib/tinyusb/src/portable/synopsys/dwc2/dcd_dwc2.c ****   TU_ASSERT(gsnpsid == DWC2_OTG_ID || gsnpsid == DWC2_FS_IOT_ID || gsnpsid == DWC2_HS_IOT_ID);
 988              		.loc 1 555 18 view .LVU332
 989 000e 0240     		ands	r2, r2, r0
 990              	.LVL83:
 556:lib/tinyusb/src/portable/synopsys/dwc2/dcd_dwc2.c **** #endif
 991              		.loc 1 556 3 is_stmt 1 view .LVU333
 556:lib/tinyusb/src/portable/synopsys/dwc2/dcd_dwc2.c **** #endif
 992              		.loc 1 556 3 view .LVU334
 993 0010 704C     		ldr	r4, .L130+12
 994 0012 A242     		cmp	r2, r4
 995 0014 18BF     		it	ne
 996 0016 8A42     		cmpne	r2, r1
 997 0018 03D0     		beq	.L95
 998 001a 01F58031 		add	r1, r1, #65536
 999 001e 8A42     		cmp	r2, r1
 1000 0020 54D1     		bne	.L127
 1001              	.L95:
 1002              	.LVL84:
 556:lib/tinyusb/src/portable/synopsys/dwc2/dcd_dwc2.c **** #endif
 1003              		.loc 1 556 3 is_stmt 0 view .LVU335
 1004              	.LBE246:
 1005              	.LBE249:
 569:lib/tinyusb/src/portable/synopsys/dwc2/dcd_dwc2.c ****   dcd_disconnect(rhport);
 1006              		.loc 1 569 3 is_stmt 1 view .LVU336
 1007              	.LBB250:
 1008              	.LBI250:
 570:lib/tinyusb/src/portable/synopsys/dwc2/dcd_dwc2.c **** 
 571:lib/tinyusb/src/portable/synopsys/dwc2/dcd_dwc2.c ****   // max number of endpoints & total_fifo_size are:
 572:lib/tinyusb/src/portable/synopsys/dwc2/dcd_dwc2.c ****   // hw_cfg2->num_dev_ep, hw_cfg2->total_fifo_size
 573:lib/tinyusb/src/portable/synopsys/dwc2/dcd_dwc2.c **** 
 574:lib/tinyusb/src/portable/synopsys/dwc2/dcd_dwc2.c ****   if (phy_hs_supported(dwc2)) {
 575:lib/tinyusb/src/portable/synopsys/dwc2/dcd_dwc2.c ****     phy_hs_init(dwc2); // Highspeed
 576:lib/tinyusb/src/portable/synopsys/dwc2/dcd_dwc2.c ****   } else {
 577:lib/tinyusb/src/portable/synopsys/dwc2/dcd_dwc2.c ****     phy_fs_init(dwc2); // core does not support highspeed or hs phy is not present
 578:lib/tinyusb/src/portable/synopsys/dwc2/dcd_dwc2.c ****   }
 579:lib/tinyusb/src/portable/synopsys/dwc2/dcd_dwc2.c **** 
 580:lib/tinyusb/src/portable/synopsys/dwc2/dcd_dwc2.c ****   // Restart PHY clock
 581:lib/tinyusb/src/portable/synopsys/dwc2/dcd_dwc2.c ****   dwc2->pcgctl &= ~(PCGCTL_STOPPCLK | PCGCTL_GATEHCLK | PCGCTL_PWRCLMP | PCGCTL_RSTPDWNMODULE);
 582:lib/tinyusb/src/portable/synopsys/dwc2/dcd_dwc2.c **** 
 583:lib/tinyusb/src/portable/synopsys/dwc2/dcd_dwc2.c ****   /* Set HS/FS Timeout Calibration to 7 (max available value).
 584:lib/tinyusb/src/portable/synopsys/dwc2/dcd_dwc2.c ****    * The number of PHY clocks that the application programs in
 585:lib/tinyusb/src/portable/synopsys/dwc2/dcd_dwc2.c ****    * this field is added to the high/full speed interpacket timeout
 586:lib/tinyusb/src/portable/synopsys/dwc2/dcd_dwc2.c ****    * duration in the core to account for any additional delays
 587:lib/tinyusb/src/portable/synopsys/dwc2/dcd_dwc2.c ****    * introduced by the PHY. This can be required, because the delay
 588:lib/tinyusb/src/portable/synopsys/dwc2/dcd_dwc2.c ****    * introduced by the PHY in generating the linestate condition
 589:lib/tinyusb/src/portable/synopsys/dwc2/dcd_dwc2.c ****    * can vary from one PHY to another.
 590:lib/tinyusb/src/portable/synopsys/dwc2/dcd_dwc2.c ****    */
 591:lib/tinyusb/src/portable/synopsys/dwc2/dcd_dwc2.c ****   dwc2->gusbcfg |= (7ul << GUSBCFG_TOCAL_Pos);
 592:lib/tinyusb/src/portable/synopsys/dwc2/dcd_dwc2.c **** 
 593:lib/tinyusb/src/portable/synopsys/dwc2/dcd_dwc2.c ****   // Force device mode
ARM GAS  /tmp/claude-502/ccFotbfS.s 			page 44


 594:lib/tinyusb/src/portable/synopsys/dwc2/dcd_dwc2.c ****   dwc2->gusbcfg = (dwc2->gusbcfg & ~GUSBCFG_FHMOD) | GUSBCFG_FDMOD;
 595:lib/tinyusb/src/portable/synopsys/dwc2/dcd_dwc2.c **** 
 596:lib/tinyusb/src/portable/synopsys/dwc2/dcd_dwc2.c ****   // Clear A override, force B Valid
 597:lib/tinyusb/src/portable/synopsys/dwc2/dcd_dwc2.c ****   dwc2->gotgctl = (dwc2->gotgctl & ~GOTGCTL_AVALOEN) | GOTGCTL_BVALOEN | GOTGCTL_BVALOVAL;
 598:lib/tinyusb/src/portable/synopsys/dwc2/dcd_dwc2.c **** 
 599:lib/tinyusb/src/portable/synopsys/dwc2/dcd_dwc2.c ****   // If USB host misbehaves during status portion of control xfer
 600:lib/tinyusb/src/portable/synopsys/dwc2/dcd_dwc2.c ****   // (non zero-length packet), send STALL back and discard.
 601:lib/tinyusb/src/portable/synopsys/dwc2/dcd_dwc2.c ****   dwc2->dcfg |= DCFG_NZLSOHSK;
 602:lib/tinyusb/src/portable/synopsys/dwc2/dcd_dwc2.c **** 
 603:lib/tinyusb/src/portable/synopsys/dwc2/dcd_dwc2.c ****   fifo_flush_tx(dwc2, 0x10); // all tx fifo
 604:lib/tinyusb/src/portable/synopsys/dwc2/dcd_dwc2.c ****   fifo_flush_rx(dwc2);
 605:lib/tinyusb/src/portable/synopsys/dwc2/dcd_dwc2.c **** 
 606:lib/tinyusb/src/portable/synopsys/dwc2/dcd_dwc2.c ****   // Clear all interrupts
 607:lib/tinyusb/src/portable/synopsys/dwc2/dcd_dwc2.c ****   uint32_t int_mask = dwc2->gintsts;
 608:lib/tinyusb/src/portable/synopsys/dwc2/dcd_dwc2.c ****   dwc2->gintsts |= int_mask;
 609:lib/tinyusb/src/portable/synopsys/dwc2/dcd_dwc2.c ****   int_mask = dwc2->gotgint;
 610:lib/tinyusb/src/portable/synopsys/dwc2/dcd_dwc2.c ****   dwc2->gotgint |= int_mask;
 611:lib/tinyusb/src/portable/synopsys/dwc2/dcd_dwc2.c **** 
 612:lib/tinyusb/src/portable/synopsys/dwc2/dcd_dwc2.c ****   // Required as part of core initialization.
 613:lib/tinyusb/src/portable/synopsys/dwc2/dcd_dwc2.c ****   dwc2->gintmsk = GINTMSK_OTGINT | GINTMSK_RXFLVLM |
 614:lib/tinyusb/src/portable/synopsys/dwc2/dcd_dwc2.c ****                   GINTMSK_USBSUSPM | GINTMSK_USBRST | GINTMSK_ENUMDNEM | GINTMSK_WUIM;
 615:lib/tinyusb/src/portable/synopsys/dwc2/dcd_dwc2.c **** 
 616:lib/tinyusb/src/portable/synopsys/dwc2/dcd_dwc2.c ****   // Configure TX FIFO empty level for interrupt. Default is complete empty
 617:lib/tinyusb/src/portable/synopsys/dwc2/dcd_dwc2.c ****   dwc2->gahbcfg |= GAHBCFG_TXFELVL;
 618:lib/tinyusb/src/portable/synopsys/dwc2/dcd_dwc2.c **** 
 619:lib/tinyusb/src/portable/synopsys/dwc2/dcd_dwc2.c ****   // Enable global interrupt
 620:lib/tinyusb/src/portable/synopsys/dwc2/dcd_dwc2.c ****   dwc2->gahbcfg |= GAHBCFG_GINT;
 621:lib/tinyusb/src/portable/synopsys/dwc2/dcd_dwc2.c **** 
 622:lib/tinyusb/src/portable/synopsys/dwc2/dcd_dwc2.c ****   // make sure we are in device mode
 623:lib/tinyusb/src/portable/synopsys/dwc2/dcd_dwc2.c **** //  TU_ASSERT(!(dwc2->gintsts & GINTSTS_CMOD), );
 624:lib/tinyusb/src/portable/synopsys/dwc2/dcd_dwc2.c **** 
 625:lib/tinyusb/src/portable/synopsys/dwc2/dcd_dwc2.c **** //  TU_LOG_HEX(DWC2_DEBUG, dwc2->gotgctl);
 626:lib/tinyusb/src/portable/synopsys/dwc2/dcd_dwc2.c **** //  TU_LOG_HEX(DWC2_DEBUG, dwc2->gusbcfg);
 627:lib/tinyusb/src/portable/synopsys/dwc2/dcd_dwc2.c **** //  TU_LOG_HEX(DWC2_DEBUG, dwc2->dcfg);
 628:lib/tinyusb/src/portable/synopsys/dwc2/dcd_dwc2.c **** //  TU_LOG_HEX(DWC2_DEBUG, dwc2->gahbcfg);
 629:lib/tinyusb/src/portable/synopsys/dwc2/dcd_dwc2.c **** 
 630:lib/tinyusb/src/portable/synopsys/dwc2/dcd_dwc2.c ****   dcd_connect(rhport);
 631:lib/tinyusb/src/portable/synopsys/dwc2/dcd_dwc2.c **** }
 632:lib/tinyusb/src/portable/synopsys/dwc2/dcd_dwc2.c **** 
 633:lib/tinyusb/src/portable/synopsys/dwc2/dcd_dwc2.c **** void dcd_int_enable(uint8_t rhport) {
 634:lib/tinyusb/src/portable/synopsys/dwc2/dcd_dwc2.c ****   dwc2_dcd_int_enable(rhport);
 635:lib/tinyusb/src/portable/synopsys/dwc2/dcd_dwc2.c **** }
 636:lib/tinyusb/src/portable/synopsys/dwc2/dcd_dwc2.c **** 
 637:lib/tinyusb/src/portable/synopsys/dwc2/dcd_dwc2.c **** void dcd_int_disable(uint8_t rhport) {
 638:lib/tinyusb/src/portable/synopsys/dwc2/dcd_dwc2.c ****   dwc2_dcd_int_disable(rhport);
 639:lib/tinyusb/src/portable/synopsys/dwc2/dcd_dwc2.c **** }
 640:lib/tinyusb/src/portable/synopsys/dwc2/dcd_dwc2.c **** 
 641:lib/tinyusb/src/portable/synopsys/dwc2/dcd_dwc2.c **** void dcd_set_address(uint8_t rhport, uint8_t dev_addr) {
 642:lib/tinyusb/src/portable/synopsys/dwc2/dcd_dwc2.c ****   dwc2_regs_t* dwc2 = DWC2_REG(rhport);
 643:lib/tinyusb/src/portable/synopsys/dwc2/dcd_dwc2.c ****   dwc2->dcfg = (dwc2->dcfg & ~DCFG_DAD_Msk) | (dev_addr << DCFG_DAD_Pos);
 644:lib/tinyusb/src/portable/synopsys/dwc2/dcd_dwc2.c **** 
 645:lib/tinyusb/src/portable/synopsys/dwc2/dcd_dwc2.c ****   // Response with status after changing device address
 646:lib/tinyusb/src/portable/synopsys/dwc2/dcd_dwc2.c ****   dcd_edpt_xfer(rhport, tu_edpt_addr(0, TUSB_DIR_IN), NULL, 0);
 647:lib/tinyusb/src/portable/synopsys/dwc2/dcd_dwc2.c **** }
 648:lib/tinyusb/src/portable/synopsys/dwc2/dcd_dwc2.c **** 
 649:lib/tinyusb/src/portable/synopsys/dwc2/dcd_dwc2.c **** void dcd_remote_wakeup(uint8_t rhport) {
 650:lib/tinyusb/src/portable/synopsys/dwc2/dcd_dwc2.c ****   (void) rhport;
ARM GAS  /tmp/claude-502/ccFotbfS.s 			page 45


 651:lib/tinyusb/src/portable/synopsys/dwc2/dcd_dwc2.c **** 
 652:lib/tinyusb/src/portable/synopsys/dwc2/dcd_dwc2.c ****   dwc2_regs_t* dwc2 = DWC2_REG(rhport);
 653:lib/tinyusb/src/portable/synopsys/dwc2/dcd_dwc2.c **** 
 654:lib/tinyusb/src/portable/synopsys/dwc2/dcd_dwc2.c ****   // set remote wakeup
 655:lib/tinyusb/src/portable/synopsys/dwc2/dcd_dwc2.c ****   dwc2->dctl |= DCTL_RWUSIG;
 656:lib/tinyusb/src/portable/synopsys/dwc2/dcd_dwc2.c **** 
 657:lib/tinyusb/src/portable/synopsys/dwc2/dcd_dwc2.c ****   // enable SOF to detect bus resume
 658:lib/tinyusb/src/portable/synopsys/dwc2/dcd_dwc2.c ****   dwc2->gintsts = GINTSTS_SOF;
 659:lib/tinyusb/src/portable/synopsys/dwc2/dcd_dwc2.c ****   dwc2->gintmsk |= GINTMSK_SOFM;
 660:lib/tinyusb/src/portable/synopsys/dwc2/dcd_dwc2.c **** 
 661:lib/tinyusb/src/portable/synopsys/dwc2/dcd_dwc2.c ****   // Per specs: remote wakeup signal bit must be clear within 1-15ms
 662:lib/tinyusb/src/portable/synopsys/dwc2/dcd_dwc2.c ****   dwc2_remote_wakeup_delay();
 663:lib/tinyusb/src/portable/synopsys/dwc2/dcd_dwc2.c **** 
 664:lib/tinyusb/src/portable/synopsys/dwc2/dcd_dwc2.c ****   dwc2->dctl &= ~DCTL_RWUSIG;
 665:lib/tinyusb/src/portable/synopsys/dwc2/dcd_dwc2.c **** }
 666:lib/tinyusb/src/portable/synopsys/dwc2/dcd_dwc2.c **** 
 667:lib/tinyusb/src/portable/synopsys/dwc2/dcd_dwc2.c **** void dcd_connect(uint8_t rhport) {
 668:lib/tinyusb/src/portable/synopsys/dwc2/dcd_dwc2.c ****   (void) rhport;
 669:lib/tinyusb/src/portable/synopsys/dwc2/dcd_dwc2.c ****   dwc2_regs_t* dwc2 = DWC2_REG(rhport);
 670:lib/tinyusb/src/portable/synopsys/dwc2/dcd_dwc2.c **** 
 671:lib/tinyusb/src/portable/synopsys/dwc2/dcd_dwc2.c **** #ifdef TUP_USBIP_DWC2_ESP32
 672:lib/tinyusb/src/portable/synopsys/dwc2/dcd_dwc2.c ****   usb_wrap_otg_conf_reg_t conf = USB_WRAP.otg_conf;
 673:lib/tinyusb/src/portable/synopsys/dwc2/dcd_dwc2.c ****   conf.pad_pull_override = 0;
 674:lib/tinyusb/src/portable/synopsys/dwc2/dcd_dwc2.c ****   conf.dp_pullup = 0;
 675:lib/tinyusb/src/portable/synopsys/dwc2/dcd_dwc2.c ****   conf.dp_pulldown = 0;
 676:lib/tinyusb/src/portable/synopsys/dwc2/dcd_dwc2.c ****   conf.dm_pullup = 0;
 677:lib/tinyusb/src/portable/synopsys/dwc2/dcd_dwc2.c ****   conf.dm_pulldown = 0;
 678:lib/tinyusb/src/portable/synopsys/dwc2/dcd_dwc2.c ****   USB_WRAP.otg_conf = conf;
 679:lib/tinyusb/src/portable/synopsys/dwc2/dcd_dwc2.c **** #endif
 680:lib/tinyusb/src/portable/synopsys/dwc2/dcd_dwc2.c **** 
 681:lib/tinyusb/src/portable/synopsys/dwc2/dcd_dwc2.c ****   dwc2->dctl &= ~DCTL_SDIS;
 682:lib/tinyusb/src/portable/synopsys/dwc2/dcd_dwc2.c **** }
 683:lib/tinyusb/src/portable/synopsys/dwc2/dcd_dwc2.c **** 
 684:lib/tinyusb/src/portable/synopsys/dwc2/dcd_dwc2.c **** void dcd_disconnect(uint8_t rhport) {
 1009              		.loc 1 684 6 view .LVU337
 1010              	.LBB251:
 685:lib/tinyusb/src/portable/synopsys/dwc2/dcd_dwc2.c ****   (void) rhport;
 1011              		.loc 1 685 3 view .LVU338
 686:lib/tinyusb/src/portable/synopsys/dwc2/dcd_dwc2.c ****   dwc2_regs_t* dwc2 = DWC2_REG(rhport);
 1012              		.loc 1 686 3 view .LVU339
 687:lib/tinyusb/src/portable/synopsys/dwc2/dcd_dwc2.c **** 
 688:lib/tinyusb/src/portable/synopsys/dwc2/dcd_dwc2.c **** #ifdef TUP_USBIP_DWC2_ESP32
 689:lib/tinyusb/src/portable/synopsys/dwc2/dcd_dwc2.c ****   usb_wrap_otg_conf_reg_t conf = USB_WRAP.otg_conf;
 690:lib/tinyusb/src/portable/synopsys/dwc2/dcd_dwc2.c ****   conf.pad_pull_override = 1;
 691:lib/tinyusb/src/portable/synopsys/dwc2/dcd_dwc2.c ****   conf.dp_pullup = 0;
 692:lib/tinyusb/src/portable/synopsys/dwc2/dcd_dwc2.c ****   conf.dp_pulldown = 1;
 693:lib/tinyusb/src/portable/synopsys/dwc2/dcd_dwc2.c ****   conf.dm_pullup = 0;
 694:lib/tinyusb/src/portable/synopsys/dwc2/dcd_dwc2.c ****   conf.dm_pulldown = 1;
 695:lib/tinyusb/src/portable/synopsys/dwc2/dcd_dwc2.c ****   USB_WRAP.otg_conf = conf;
 696:lib/tinyusb/src/portable/synopsys/dwc2/dcd_dwc2.c **** #endif
 697:lib/tinyusb/src/portable/synopsys/dwc2/dcd_dwc2.c **** 
 698:lib/tinyusb/src/portable/synopsys/dwc2/dcd_dwc2.c ****   dwc2->dctl |= DCTL_SDIS;
 1013              		.loc 1 698 3 view .LVU340
 1014              		.loc 1 698 14 is_stmt 0 view .LVU341
 1015 0022 D3F80428 		ldr	r2, [r3, #2052]
 1016              	.LBE251:
 1017              	.LBE250:
ARM GAS  /tmp/claude-502/ccFotbfS.s 			page 46


 1018              	.LBB254:
 1019              	.LBB255:
 1020              	.LBB256:
 1021              	.LBB257:
 1022              		.file 4 "lib/tinyusb/src/portable/synopsys/dwc2/dwc2_stm32.h"
   1:lib/tinyusb/src/portable/synopsys/dwc2/dwc2_stm32.h **** /*
   2:lib/tinyusb/src/portable/synopsys/dwc2/dwc2_stm32.h ****  * The MIT License (MIT)
   3:lib/tinyusb/src/portable/synopsys/dwc2/dwc2_stm32.h ****  *
   4:lib/tinyusb/src/portable/synopsys/dwc2/dwc2_stm32.h ****  * Copyright (c) 2021, Ha Thach (tinyusb.org)
   5:lib/tinyusb/src/portable/synopsys/dwc2/dwc2_stm32.h ****  *
   6:lib/tinyusb/src/portable/synopsys/dwc2/dwc2_stm32.h ****  * Permission is hereby granted, free of charge, to any person obtaining a copy
   7:lib/tinyusb/src/portable/synopsys/dwc2/dwc2_stm32.h ****  * of this software and associated documentation files (the "Software"), to deal
   8:lib/tinyusb/src/portable/synopsys/dwc2/dwc2_stm32.h ****  * in the Software without restriction, including without limitation the rights
   9:lib/tinyusb/src/portable/synopsys/dwc2/dwc2_stm32.h ****  * to use, copy, modify, merge, publish, distribute, sublicense, and/or sell
  10:lib/tinyusb/src/portable/synopsys/dwc2/dwc2_stm32.h ****  * copies of the Software, and to permit persons to whom the Software is
  11:lib/tinyusb/src/portable/synopsys/dwc2/dwc2_stm32.h ****  * furnished to do so, subject to the following conditions:
  12:lib/tinyusb/src/portable/synopsys/dwc2/dwc2_stm32.h ****  *
  13:lib/tinyusb/src/portable/synopsys/dwc2/dwc2_stm32.h ****  * The above copyright notice and this permission notice shall be included in
  14:lib/tinyusb/src/portable/synopsys/dwc2/dwc2_stm32.h ****  * all copies or substantial portions of the Software.
  15:lib/tinyusb/src/portable/synopsys/dwc2/dwc2_stm32.h ****  *
  16:lib/tinyusb/src/portable/synopsys/dwc2/dwc2_stm32.h ****  * THE SOFTWARE IS PROVIDED "AS IS", WITHOUT WARRANTY OF ANY KIND, EXPRESS OR
  17:lib/tinyusb/src/portable/synopsys/dwc2/dwc2_stm32.h ****  * IMPLIED, INCLUDING BUT NOT LIMITED TO THE WARRANTIES OF MERCHANTABILITY,
  18:lib/tinyusb/src/portable/synopsys/dwc2/dwc2_stm32.h ****  * FITNESS FOR A PARTICULAR PURPOSE AND NONINFRINGEMENT. IN NO EVENT SHALL THE
  19:lib/tinyusb/src/portable/synopsys/dwc2/dwc2_stm32.h ****  * AUTHORS OR COPYRIGHT HOLDERS BE LIABLE FOR ANY CLAIM, DAMAGES OR OTHER
  20:lib/tinyusb/src/portable/synopsys/dwc2/dwc2_stm32.h ****  * LIABILITY, WHETHER IN AN ACTION OF CONTRACT, TORT OR OTHERWISE, ARISING FROM,
  21:lib/tinyusb/src/portable/synopsys/dwc2/dwc2_stm32.h ****  * OUT OF OR IN CONNECTION WITH THE SOFTWARE OR THE USE OR OTHER DEALINGS IN
  22:lib/tinyusb/src/portable/synopsys/dwc2/dwc2_stm32.h ****  * THE SOFTWARE.
  23:lib/tinyusb/src/portable/synopsys/dwc2/dwc2_stm32.h ****  *
  24:lib/tinyusb/src/portable/synopsys/dwc2/dwc2_stm32.h ****  * This file is part of the TinyUSB stack.
  25:lib/tinyusb/src/portable/synopsys/dwc2/dwc2_stm32.h ****  */
  26:lib/tinyusb/src/portable/synopsys/dwc2/dwc2_stm32.h **** 
  27:lib/tinyusb/src/portable/synopsys/dwc2/dwc2_stm32.h **** #ifndef DWC2_STM32_H_
  28:lib/tinyusb/src/portable/synopsys/dwc2/dwc2_stm32.h **** #define DWC2_STM32_H_
  29:lib/tinyusb/src/portable/synopsys/dwc2/dwc2_stm32.h **** 
  30:lib/tinyusb/src/portable/synopsys/dwc2/dwc2_stm32.h **** #ifdef __cplusplus
  31:lib/tinyusb/src/portable/synopsys/dwc2/dwc2_stm32.h **** extern "C" {
  32:lib/tinyusb/src/portable/synopsys/dwc2/dwc2_stm32.h **** #endif
  33:lib/tinyusb/src/portable/synopsys/dwc2/dwc2_stm32.h **** 
  34:lib/tinyusb/src/portable/synopsys/dwc2/dwc2_stm32.h **** // EP_MAX       : Max number of bi-directional endpoints including EP0
  35:lib/tinyusb/src/portable/synopsys/dwc2/dwc2_stm32.h **** // EP_FIFO_SIZE : Size of dedicated USB SRAM
  36:lib/tinyusb/src/portable/synopsys/dwc2/dwc2_stm32.h **** #if CFG_TUSB_MCU == OPT_MCU_STM32F1
  37:lib/tinyusb/src/portable/synopsys/dwc2/dwc2_stm32.h ****   #include "stm32f1xx.h"
  38:lib/tinyusb/src/portable/synopsys/dwc2/dwc2_stm32.h ****   #define EP_MAX_FS       4
  39:lib/tinyusb/src/portable/synopsys/dwc2/dwc2_stm32.h ****   #define EP_FIFO_SIZE_FS 1280
  40:lib/tinyusb/src/portable/synopsys/dwc2/dwc2_stm32.h **** 
  41:lib/tinyusb/src/portable/synopsys/dwc2/dwc2_stm32.h **** #elif CFG_TUSB_MCU == OPT_MCU_STM32F2
  42:lib/tinyusb/src/portable/synopsys/dwc2/dwc2_stm32.h ****   #include "stm32f2xx.h"
  43:lib/tinyusb/src/portable/synopsys/dwc2/dwc2_stm32.h ****   #define EP_MAX_FS       USB_OTG_FS_MAX_IN_ENDPOINTS
  44:lib/tinyusb/src/portable/synopsys/dwc2/dwc2_stm32.h ****   #define EP_FIFO_SIZE_FS USB_OTG_FS_TOTAL_FIFO_SIZE
  45:lib/tinyusb/src/portable/synopsys/dwc2/dwc2_stm32.h **** 
  46:lib/tinyusb/src/portable/synopsys/dwc2/dwc2_stm32.h ****   #define EP_MAX_HS       USB_OTG_HS_MAX_IN_ENDPOINTS
  47:lib/tinyusb/src/portable/synopsys/dwc2/dwc2_stm32.h ****   #define EP_FIFO_SIZE_HS USB_OTG_HS_TOTAL_FIFO_SIZE
  48:lib/tinyusb/src/portable/synopsys/dwc2/dwc2_stm32.h **** 
  49:lib/tinyusb/src/portable/synopsys/dwc2/dwc2_stm32.h **** #elif CFG_TUSB_MCU == OPT_MCU_STM32F4
  50:lib/tinyusb/src/portable/synopsys/dwc2/dwc2_stm32.h ****   #include "stm32f4xx.h"
  51:lib/tinyusb/src/portable/synopsys/dwc2/dwc2_stm32.h ****   #define EP_MAX_FS       USB_OTG_FS_MAX_IN_ENDPOINTS
  52:lib/tinyusb/src/portable/synopsys/dwc2/dwc2_stm32.h ****   #define EP_FIFO_SIZE_FS USB_OTG_FS_TOTAL_FIFO_SIZE
ARM GAS  /tmp/claude-502/ccFotbfS.s 			page 47


  53:lib/tinyusb/src/portable/synopsys/dwc2/dwc2_stm32.h **** 
  54:lib/tinyusb/src/portable/synopsys/dwc2/dwc2_stm32.h ****   #define EP_MAX_HS       USB_OTG_HS_MAX_IN_ENDPOINTS
  55:lib/tinyusb/src/portable/synopsys/dwc2/dwc2_stm32.h ****   #define EP_FIFO_SIZE_HS USB_OTG_HS_TOTAL_FIFO_SIZE
  56:lib/tinyusb/src/portable/synopsys/dwc2/dwc2_stm32.h **** 
  57:lib/tinyusb/src/portable/synopsys/dwc2/dwc2_stm32.h **** #elif CFG_TUSB_MCU == OPT_MCU_STM32H7
  58:lib/tinyusb/src/portable/synopsys/dwc2/dwc2_stm32.h ****   #include "stm32h7xx.h"
  59:lib/tinyusb/src/portable/synopsys/dwc2/dwc2_stm32.h ****   #define EP_MAX_FS       9
  60:lib/tinyusb/src/portable/synopsys/dwc2/dwc2_stm32.h ****   #define EP_FIFO_SIZE_FS 4096
  61:lib/tinyusb/src/portable/synopsys/dwc2/dwc2_stm32.h **** 
  62:lib/tinyusb/src/portable/synopsys/dwc2/dwc2_stm32.h ****   #define EP_MAX_HS       9
  63:lib/tinyusb/src/portable/synopsys/dwc2/dwc2_stm32.h ****   #define EP_FIFO_SIZE_HS 4096
  64:lib/tinyusb/src/portable/synopsys/dwc2/dwc2_stm32.h **** 
  65:lib/tinyusb/src/portable/synopsys/dwc2/dwc2_stm32.h ****   // NOTE: H7 with only 1 USB port: H72x / H73x / H7Ax / H7Bx
  66:lib/tinyusb/src/portable/synopsys/dwc2/dwc2_stm32.h ****   // USB_OTG_FS_PERIPH_BASE and OTG_FS_IRQn not defined
  67:lib/tinyusb/src/portable/synopsys/dwc2/dwc2_stm32.h ****   #if (! defined USB2_OTG_FS)
  68:lib/tinyusb/src/portable/synopsys/dwc2/dwc2_stm32.h ****     #define USB_OTG_FS_PERIPH_BASE  USB1_OTG_HS_PERIPH_BASE
  69:lib/tinyusb/src/portable/synopsys/dwc2/dwc2_stm32.h ****     #define OTG_FS_IRQn             OTG_HS_IRQn
  70:lib/tinyusb/src/portable/synopsys/dwc2/dwc2_stm32.h ****   #endif
  71:lib/tinyusb/src/portable/synopsys/dwc2/dwc2_stm32.h **** 
  72:lib/tinyusb/src/portable/synopsys/dwc2/dwc2_stm32.h **** #elif CFG_TUSB_MCU == OPT_MCU_STM32F7
  73:lib/tinyusb/src/portable/synopsys/dwc2/dwc2_stm32.h ****   #include "stm32f7xx.h"
  74:lib/tinyusb/src/portable/synopsys/dwc2/dwc2_stm32.h ****   #define EP_MAX_FS       6
  75:lib/tinyusb/src/portable/synopsys/dwc2/dwc2_stm32.h ****   #define EP_FIFO_SIZE_FS 1280
  76:lib/tinyusb/src/portable/synopsys/dwc2/dwc2_stm32.h **** 
  77:lib/tinyusb/src/portable/synopsys/dwc2/dwc2_stm32.h ****   #define EP_MAX_HS       9
  78:lib/tinyusb/src/portable/synopsys/dwc2/dwc2_stm32.h ****   #define EP_FIFO_SIZE_HS 4096
  79:lib/tinyusb/src/portable/synopsys/dwc2/dwc2_stm32.h **** 
  80:lib/tinyusb/src/portable/synopsys/dwc2/dwc2_stm32.h **** #elif CFG_TUSB_MCU == OPT_MCU_STM32L4
  81:lib/tinyusb/src/portable/synopsys/dwc2/dwc2_stm32.h ****   #include "stm32l4xx.h"
  82:lib/tinyusb/src/portable/synopsys/dwc2/dwc2_stm32.h ****   #define EP_MAX_FS       6
  83:lib/tinyusb/src/portable/synopsys/dwc2/dwc2_stm32.h ****   #define EP_FIFO_SIZE_FS 1280
  84:lib/tinyusb/src/portable/synopsys/dwc2/dwc2_stm32.h **** 
  85:lib/tinyusb/src/portable/synopsys/dwc2/dwc2_stm32.h **** #elif CFG_TUSB_MCU == OPT_MCU_STM32U5
  86:lib/tinyusb/src/portable/synopsys/dwc2/dwc2_stm32.h ****   #include "stm32u5xx.h"
  87:lib/tinyusb/src/portable/synopsys/dwc2/dwc2_stm32.h ****   // U59x/5Ax/5Fx/5Gx are highspeed with built-in HS PHY
  88:lib/tinyusb/src/portable/synopsys/dwc2/dwc2_stm32.h ****   #ifdef USB_OTG_FS
  89:lib/tinyusb/src/portable/synopsys/dwc2/dwc2_stm32.h ****     #define USB_OTG_FS_PERIPH_BASE    USB_OTG_FS_BASE
  90:lib/tinyusb/src/portable/synopsys/dwc2/dwc2_stm32.h ****     #define EP_MAX_FS                 6
  91:lib/tinyusb/src/portable/synopsys/dwc2/dwc2_stm32.h ****     #define EP_FIFO_SIZE_FS           1280
  92:lib/tinyusb/src/portable/synopsys/dwc2/dwc2_stm32.h ****   #else
  93:lib/tinyusb/src/portable/synopsys/dwc2/dwc2_stm32.h ****     #define USB_OTG_HS_PERIPH_BASE    USB_OTG_HS_BASE
  94:lib/tinyusb/src/portable/synopsys/dwc2/dwc2_stm32.h ****     #define EP_MAX_HS                 9
  95:lib/tinyusb/src/portable/synopsys/dwc2/dwc2_stm32.h ****     #define EP_FIFO_SIZE_HS           4096
  96:lib/tinyusb/src/portable/synopsys/dwc2/dwc2_stm32.h ****   #endif
  97:lib/tinyusb/src/portable/synopsys/dwc2/dwc2_stm32.h **** #else
  98:lib/tinyusb/src/portable/synopsys/dwc2/dwc2_stm32.h ****   #error "Unsupported MCUs"
  99:lib/tinyusb/src/portable/synopsys/dwc2/dwc2_stm32.h **** #endif
 100:lib/tinyusb/src/portable/synopsys/dwc2/dwc2_stm32.h **** 
 101:lib/tinyusb/src/portable/synopsys/dwc2/dwc2_stm32.h **** // OTG HS always has higher number of endpoints than FS
 102:lib/tinyusb/src/portable/synopsys/dwc2/dwc2_stm32.h **** #ifdef USB_OTG_HS_PERIPH_BASE
 103:lib/tinyusb/src/portable/synopsys/dwc2/dwc2_stm32.h ****   #define DWC2_EP_MAX   EP_MAX_HS
 104:lib/tinyusb/src/portable/synopsys/dwc2/dwc2_stm32.h **** #else
 105:lib/tinyusb/src/portable/synopsys/dwc2/dwc2_stm32.h ****   #define DWC2_EP_MAX   EP_MAX_FS
 106:lib/tinyusb/src/portable/synopsys/dwc2/dwc2_stm32.h **** #endif
 107:lib/tinyusb/src/portable/synopsys/dwc2/dwc2_stm32.h **** 
 108:lib/tinyusb/src/portable/synopsys/dwc2/dwc2_stm32.h **** // On STM32 for consistency we associate
 109:lib/tinyusb/src/portable/synopsys/dwc2/dwc2_stm32.h **** // - Port0 to OTG_FS, and Port1 to OTG_HS
ARM GAS  /tmp/claude-502/ccFotbfS.s 			page 48


 110:lib/tinyusb/src/portable/synopsys/dwc2/dwc2_stm32.h **** static const dwc2_controller_t _dwc2_controller[] = {
 111:lib/tinyusb/src/portable/synopsys/dwc2/dwc2_stm32.h ****     #ifdef USB_OTG_FS_PERIPH_BASE
 112:lib/tinyusb/src/portable/synopsys/dwc2/dwc2_stm32.h ****     { .reg_base = USB_OTG_FS_PERIPH_BASE, .irqnum = OTG_FS_IRQn, .ep_count = EP_MAX_FS, .ep_fifo_si
 113:lib/tinyusb/src/portable/synopsys/dwc2/dwc2_stm32.h ****     #endif
 114:lib/tinyusb/src/portable/synopsys/dwc2/dwc2_stm32.h **** 
 115:lib/tinyusb/src/portable/synopsys/dwc2/dwc2_stm32.h ****     #ifdef USB_OTG_HS_PERIPH_BASE
 116:lib/tinyusb/src/portable/synopsys/dwc2/dwc2_stm32.h ****     { .reg_base = USB_OTG_HS_PERIPH_BASE, .irqnum = OTG_HS_IRQn, .ep_count = EP_MAX_HS, .ep_fifo_si
 117:lib/tinyusb/src/portable/synopsys/dwc2/dwc2_stm32.h ****     #endif
 118:lib/tinyusb/src/portable/synopsys/dwc2/dwc2_stm32.h **** };
 119:lib/tinyusb/src/portable/synopsys/dwc2/dwc2_stm32.h **** 
 120:lib/tinyusb/src/portable/synopsys/dwc2/dwc2_stm32.h **** //--------------------------------------------------------------------+
 121:lib/tinyusb/src/portable/synopsys/dwc2/dwc2_stm32.h **** //
 122:lib/tinyusb/src/portable/synopsys/dwc2/dwc2_stm32.h **** //--------------------------------------------------------------------+
 123:lib/tinyusb/src/portable/synopsys/dwc2/dwc2_stm32.h **** 
 124:lib/tinyusb/src/portable/synopsys/dwc2/dwc2_stm32.h **** // SystemCoreClock is already included by family header
 125:lib/tinyusb/src/portable/synopsys/dwc2/dwc2_stm32.h **** // extern uint32_t SystemCoreClock;
 126:lib/tinyusb/src/portable/synopsys/dwc2/dwc2_stm32.h **** 
 127:lib/tinyusb/src/portable/synopsys/dwc2/dwc2_stm32.h **** TU_ATTR_ALWAYS_INLINE static inline void dwc2_dcd_int_enable(uint8_t rhport) {
 128:lib/tinyusb/src/portable/synopsys/dwc2/dwc2_stm32.h ****   NVIC_EnableIRQ((IRQn_Type) _dwc2_controller[rhport].irqnum);
 129:lib/tinyusb/src/portable/synopsys/dwc2/dwc2_stm32.h **** }
 130:lib/tinyusb/src/portable/synopsys/dwc2/dwc2_stm32.h **** 
 131:lib/tinyusb/src/portable/synopsys/dwc2/dwc2_stm32.h **** TU_ATTR_ALWAYS_INLINE static inline void dwc2_dcd_int_disable(uint8_t rhport) {
 132:lib/tinyusb/src/portable/synopsys/dwc2/dwc2_stm32.h ****   NVIC_DisableIRQ((IRQn_Type) _dwc2_controller[rhport].irqnum);
 133:lib/tinyusb/src/portable/synopsys/dwc2/dwc2_stm32.h **** }
 134:lib/tinyusb/src/portable/synopsys/dwc2/dwc2_stm32.h **** 
 135:lib/tinyusb/src/portable/synopsys/dwc2/dwc2_stm32.h **** TU_ATTR_ALWAYS_INLINE static inline void dwc2_remote_wakeup_delay(void) {
 136:lib/tinyusb/src/portable/synopsys/dwc2/dwc2_stm32.h ****   // try to delay for 1 ms
 137:lib/tinyusb/src/portable/synopsys/dwc2/dwc2_stm32.h ****   uint32_t count = SystemCoreClock / 1000;
 138:lib/tinyusb/src/portable/synopsys/dwc2/dwc2_stm32.h ****   while (count--) __NOP();
 139:lib/tinyusb/src/portable/synopsys/dwc2/dwc2_stm32.h **** }
 140:lib/tinyusb/src/portable/synopsys/dwc2/dwc2_stm32.h **** 
 141:lib/tinyusb/src/portable/synopsys/dwc2/dwc2_stm32.h **** // MCU specific PHY init, called BEFORE core reset
 142:lib/tinyusb/src/portable/synopsys/dwc2/dwc2_stm32.h **** // - dwc2 3.30a (H5) use USB_HS_PHYC
 143:lib/tinyusb/src/portable/synopsys/dwc2/dwc2_stm32.h **** // - dwc2 4.11a (U5) use femtoPHY
 144:lib/tinyusb/src/portable/synopsys/dwc2/dwc2_stm32.h **** static inline void dwc2_phy_init(dwc2_regs_t* dwc2, uint8_t hs_phy_type) {
 145:lib/tinyusb/src/portable/synopsys/dwc2/dwc2_stm32.h ****   if (hs_phy_type == HS_PHY_TYPE_NONE) {
 146:lib/tinyusb/src/portable/synopsys/dwc2/dwc2_stm32.h ****     // Enable on-chip FS PHY
 147:lib/tinyusb/src/portable/synopsys/dwc2/dwc2_stm32.h ****     dwc2->stm32_gccfg |= STM32_GCCFG_PWRDWN;
 148:lib/tinyusb/src/portable/synopsys/dwc2/dwc2_stm32.h **** 
 149:lib/tinyusb/src/portable/synopsys/dwc2/dwc2_stm32.h ****     // https://community.st.com/t5/stm32cubemx-mcus/why-stm32h743-usb-fs-doesn-t-work-if-freertos-t
 150:lib/tinyusb/src/portable/synopsys/dwc2/dwc2_stm32.h ****     // H7 running on full-speed phy need to disable ULPI clock in sleep mode.
 151:lib/tinyusb/src/portable/synopsys/dwc2/dwc2_stm32.h ****     // Otherwise, USB won't work when mcu executing WFI/WFE instruction i.e tick-less RTOS.
 152:lib/tinyusb/src/portable/synopsys/dwc2/dwc2_stm32.h ****     // Note: there may be other family that is affected by this, but only H7 and F7 is tested so fa
 153:lib/tinyusb/src/portable/synopsys/dwc2/dwc2_stm32.h ****     #if defined(USB_OTG_FS_PERIPH_BASE) && defined(RCC_AHB1LPENR_USB2OTGFSULPILPEN)
 154:lib/tinyusb/src/portable/synopsys/dwc2/dwc2_stm32.h ****     if ( USB_OTG_FS_PERIPH_BASE == (uint32_t) dwc2 ) {
 1023              		.loc 4 154 8 view .LVU342
 1024 0026 6C49     		ldr	r1, .L130+16
 1025              	.LBE257:
 1026              	.LBE256:
 1027              	.LBE255:
 1028              	.LBE254:
 1029              	.LBB301:
 1030              	.LBB252:
 1031              		.loc 1 698 14 view .LVU343
 1032 0028 42F00202 		orr	r2, r2, #2
 1033              	.LBE252:
 1034              	.LBE301:
ARM GAS  /tmp/claude-502/ccFotbfS.s 			page 49


 1035              	.LBB302:
 1036              	.LBB295:
 1037              	.LBB264:
 1038              	.LBB260:
 1039              		.loc 4 154 8 view .LVU344
 1040 002c 8B42     		cmp	r3, r1
 1041              	.LBE260:
 1042              	.LBE264:
 1043              	.LBE295:
 1044              	.LBE302:
 1045              	.LBB303:
 1046              	.LBB253:
 1047              		.loc 1 698 14 view .LVU345
 1048 002e C3F80428 		str	r2, [r3, #2052]
 1049              	.LVL85:
 1050              		.loc 1 698 14 view .LVU346
 1051              	.LBE253:
 1052              	.LBE303:
 574:lib/tinyusb/src/portable/synopsys/dwc2/dcd_dwc2.c ****     phy_hs_init(dwc2); // Highspeed
 1053              		.loc 1 574 3 is_stmt 1 view .LVU347
 450:lib/tinyusb/src/portable/synopsys/dwc2/dcd_dwc2.c **** 
 1054              		.loc 1 450 3 view .LVU348
 456:lib/tinyusb/src/portable/synopsys/dwc2/dcd_dwc2.c **** #else
 1055              		.loc 1 456 3 view .LVU349
 577:lib/tinyusb/src/portable/synopsys/dwc2/dcd_dwc2.c ****   }
 1056              		.loc 1 577 5 view .LVU350
 1057              	.LBB304:
 1058              	.LBI254:
 462:lib/tinyusb/src/portable/synopsys/dwc2/dcd_dwc2.c ****   TU_LOG(DWC2_DEBUG, "Fullspeed PHY init\r\n");
 1059              		.loc 1 462 13 view .LVU351
 1060              	.LBB296:
 463:lib/tinyusb/src/portable/synopsys/dwc2/dcd_dwc2.c **** 
 1061              		.loc 1 463 47 view .LVU352
 466:lib/tinyusb/src/portable/synopsys/dwc2/dcd_dwc2.c **** 
 1062              		.loc 1 466 3 view .LVU353
 466:lib/tinyusb/src/portable/synopsys/dwc2/dcd_dwc2.c **** 
 1063              		.loc 1 466 17 is_stmt 0 view .LVU354
 1064 0032 DA68     		ldr	r2, [r3, #12]
 1065 0034 42F04002 		orr	r2, r2, #64
 1066 0038 DA60     		str	r2, [r3, #12]
 469:lib/tinyusb/src/portable/synopsys/dwc2/dcd_dwc2.c **** 
 1067              		.loc 1 469 3 is_stmt 1 view .LVU355
 1068              	.LVL86:
 1069              	.LBB265:
 1070              	.LBI256:
 144:lib/tinyusb/src/portable/synopsys/dwc2/dwc2_stm32.h ****   if (hs_phy_type == HS_PHY_TYPE_NONE) {
 1071              		.loc 4 144 20 view .LVU356
 1072              	.LBB261:
 145:lib/tinyusb/src/portable/synopsys/dwc2/dwc2_stm32.h ****     // Enable on-chip FS PHY
 1073              		.loc 4 145 3 view .LVU357
 147:lib/tinyusb/src/portable/synopsys/dwc2/dwc2_stm32.h **** 
 1074              		.loc 4 147 5 view .LVU358
 147:lib/tinyusb/src/portable/synopsys/dwc2/dwc2_stm32.h **** 
 1075              		.loc 4 147 23 is_stmt 0 view .LVU359
 1076 003a 9A6B     		ldr	r2, [r3, #56]
 1077 003c 42F48032 		orr	r2, r2, #65536
 1078 0040 9A63     		str	r2, [r3, #56]
ARM GAS  /tmp/claude-502/ccFotbfS.s 			page 50


 1079              		.loc 4 154 5 is_stmt 1 view .LVU360
 1080              		.loc 4 154 8 is_stmt 0 view .LVU361
 1081 0042 00F0A780 		beq	.L128
 155:lib/tinyusb/src/portable/synopsys/dwc2/dwc2_stm32.h ****       RCC->AHB1LPENR &= ~RCC_AHB1LPENR_USB2OTGFSULPILPEN;
 156:lib/tinyusb/src/portable/synopsys/dwc2/dwc2_stm32.h ****     }
 157:lib/tinyusb/src/portable/synopsys/dwc2/dwc2_stm32.h ****     #endif
 158:lib/tinyusb/src/portable/synopsys/dwc2/dwc2_stm32.h **** 
 159:lib/tinyusb/src/portable/synopsys/dwc2/dwc2_stm32.h ****     #if defined(USB_OTG_HS_PERIPH_BASE) && defined(RCC_AHB1LPENR_USB1OTGHSULPILPEN)
 160:lib/tinyusb/src/portable/synopsys/dwc2/dwc2_stm32.h ****     if ( USB_OTG_HS_PERIPH_BASE == (uint32_t) dwc2 ) {
 1082              		.loc 4 160 5 is_stmt 1 view .LVU362
 1083              		.loc 4 160 8 is_stmt 0 view .LVU363
 1084 0046 654A     		ldr	r2, .L130+20
 1085 0048 9342     		cmp	r3, r2
 1086 004a 00F09880 		beq	.L129
 1087              	.L98:
 161:lib/tinyusb/src/portable/synopsys/dwc2/dwc2_stm32.h ****       RCC->AHB1LPENR &= ~RCC_AHB1LPENR_USB1OTGHSULPILPEN;
 162:lib/tinyusb/src/portable/synopsys/dwc2/dwc2_stm32.h ****     }
 163:lib/tinyusb/src/portable/synopsys/dwc2/dwc2_stm32.h ****     #endif
 164:lib/tinyusb/src/portable/synopsys/dwc2/dwc2_stm32.h **** 
 165:lib/tinyusb/src/portable/synopsys/dwc2/dwc2_stm32.h ****     #if defined(USB_OTG_HS_PERIPH_BASE) && defined(RCC_AHB1LPENR_OTGHSULPILPEN)
 166:lib/tinyusb/src/portable/synopsys/dwc2/dwc2_stm32.h ****     if ( USB_OTG_HS_PERIPH_BASE == (uint32_t) dwc2 ) {
 167:lib/tinyusb/src/portable/synopsys/dwc2/dwc2_stm32.h ****       RCC->AHB1LPENR &= ~RCC_AHB1LPENR_OTGHSULPILPEN;
 168:lib/tinyusb/src/portable/synopsys/dwc2/dwc2_stm32.h ****     }
 169:lib/tinyusb/src/portable/synopsys/dwc2/dwc2_stm32.h ****     #endif
 170:lib/tinyusb/src/portable/synopsys/dwc2/dwc2_stm32.h **** 
 171:lib/tinyusb/src/portable/synopsys/dwc2/dwc2_stm32.h ****   } else {
 172:lib/tinyusb/src/portable/synopsys/dwc2/dwc2_stm32.h **** #if CFG_TUSB_MCU != OPT_MCU_STM32U5
 173:lib/tinyusb/src/portable/synopsys/dwc2/dwc2_stm32.h ****     // Disable FS PHY, TODO on U5A5 (dwc2 4.11a) 16th bit is 'Host CDP behavior enable'
 174:lib/tinyusb/src/portable/synopsys/dwc2/dwc2_stm32.h ****     dwc2->stm32_gccfg &= ~STM32_GCCFG_PWRDWN;
 175:lib/tinyusb/src/portable/synopsys/dwc2/dwc2_stm32.h **** #endif
 176:lib/tinyusb/src/portable/synopsys/dwc2/dwc2_stm32.h **** 
 177:lib/tinyusb/src/portable/synopsys/dwc2/dwc2_stm32.h ****     // Enable on-chip HS PHY
 178:lib/tinyusb/src/portable/synopsys/dwc2/dwc2_stm32.h ****     if (hs_phy_type == HS_PHY_TYPE_UTMI || hs_phy_type == HS_PHY_TYPE_UTMI_ULPI) {
 179:lib/tinyusb/src/portable/synopsys/dwc2/dwc2_stm32.h ****       #ifdef USB_HS_PHYC
 180:lib/tinyusb/src/portable/synopsys/dwc2/dwc2_stm32.h ****       // Enable UTMI HS PHY
 181:lib/tinyusb/src/portable/synopsys/dwc2/dwc2_stm32.h ****       dwc2->stm32_gccfg |= STM32_GCCFG_PHYHSEN;
 182:lib/tinyusb/src/portable/synopsys/dwc2/dwc2_stm32.h **** 
 183:lib/tinyusb/src/portable/synopsys/dwc2/dwc2_stm32.h ****       // Enable LDO
 184:lib/tinyusb/src/portable/synopsys/dwc2/dwc2_stm32.h ****       USB_HS_PHYC->USB_HS_PHYC_LDO |= USB_HS_PHYC_LDO_ENABLE;
 185:lib/tinyusb/src/portable/synopsys/dwc2/dwc2_stm32.h **** 
 186:lib/tinyusb/src/portable/synopsys/dwc2/dwc2_stm32.h ****       // Wait until LDO ready
 187:lib/tinyusb/src/portable/synopsys/dwc2/dwc2_stm32.h ****       while ( 0 == (USB_HS_PHYC->USB_HS_PHYC_LDO & USB_HS_PHYC_LDO_STATUS) ) {}
 188:lib/tinyusb/src/portable/synopsys/dwc2/dwc2_stm32.h **** 
 189:lib/tinyusb/src/portable/synopsys/dwc2/dwc2_stm32.h ****       uint32_t phyc_pll = 0;
 190:lib/tinyusb/src/portable/synopsys/dwc2/dwc2_stm32.h **** 
 191:lib/tinyusb/src/portable/synopsys/dwc2/dwc2_stm32.h ****       // TODO Try to get HSE_VALUE from registers instead of depending CFLAGS
 192:lib/tinyusb/src/portable/synopsys/dwc2/dwc2_stm32.h ****       switch ( HSE_VALUE )
 193:lib/tinyusb/src/portable/synopsys/dwc2/dwc2_stm32.h ****       {
 194:lib/tinyusb/src/portable/synopsys/dwc2/dwc2_stm32.h ****         case 12000000: phyc_pll = USB_HS_PHYC_PLL1_PLLSEL_12MHZ   ; break;
 195:lib/tinyusb/src/portable/synopsys/dwc2/dwc2_stm32.h ****         case 12500000: phyc_pll = USB_HS_PHYC_PLL1_PLLSEL_12_5MHZ ; break;
 196:lib/tinyusb/src/portable/synopsys/dwc2/dwc2_stm32.h ****         case 16000000: phyc_pll = USB_HS_PHYC_PLL1_PLLSEL_16MHZ   ; break;
 197:lib/tinyusb/src/portable/synopsys/dwc2/dwc2_stm32.h ****         case 24000000: phyc_pll = USB_HS_PHYC_PLL1_PLLSEL_24MHZ   ; break;
 198:lib/tinyusb/src/portable/synopsys/dwc2/dwc2_stm32.h ****         case 25000000: phyc_pll = USB_HS_PHYC_PLL1_PLLSEL_25MHZ   ; break;
 199:lib/tinyusb/src/portable/synopsys/dwc2/dwc2_stm32.h ****         case 32000000: phyc_pll = USB_HS_PHYC_PLL1_PLLSEL_Msk     ; break; // Value not defined in 
 200:lib/tinyusb/src/portable/synopsys/dwc2/dwc2_stm32.h ****         default:
 201:lib/tinyusb/src/portable/synopsys/dwc2/dwc2_stm32.h ****           TU_ASSERT(false, );
 202:lib/tinyusb/src/portable/synopsys/dwc2/dwc2_stm32.h ****       }
ARM GAS  /tmp/claude-502/ccFotbfS.s 			page 51


 203:lib/tinyusb/src/portable/synopsys/dwc2/dwc2_stm32.h ****       USB_HS_PHYC->USB_HS_PHYC_PLL = phyc_pll;
 204:lib/tinyusb/src/portable/synopsys/dwc2/dwc2_stm32.h **** 
 205:lib/tinyusb/src/portable/synopsys/dwc2/dwc2_stm32.h ****       // Control the tuning interface of the High Speed PHY
 206:lib/tinyusb/src/portable/synopsys/dwc2/dwc2_stm32.h ****       // Use magic value (USB_HS_PHYC_TUNE_VALUE) from ST driver for F7
 207:lib/tinyusb/src/portable/synopsys/dwc2/dwc2_stm32.h ****       USB_HS_PHYC->USB_HS_PHYC_TUNE |= 0x00000F13U;
 208:lib/tinyusb/src/portable/synopsys/dwc2/dwc2_stm32.h **** 
 209:lib/tinyusb/src/portable/synopsys/dwc2/dwc2_stm32.h ****       // Enable PLL internal PHY
 210:lib/tinyusb/src/portable/synopsys/dwc2/dwc2_stm32.h ****       USB_HS_PHYC->USB_HS_PHYC_PLL |= USB_HS_PHYC_PLL_PLLEN;
 211:lib/tinyusb/src/portable/synopsys/dwc2/dwc2_stm32.h ****       #else
 212:lib/tinyusb/src/portable/synopsys/dwc2/dwc2_stm32.h **** 
 213:lib/tinyusb/src/portable/synopsys/dwc2/dwc2_stm32.h ****       #endif
 214:lib/tinyusb/src/portable/synopsys/dwc2/dwc2_stm32.h ****     }
 1088              		.loc 4 214 5 is_stmt 1 view .LVU364
 1089              	.LVL87:
 1090              		.loc 4 214 5 is_stmt 0 view .LVU365
 1091              	.LBE261:
 1092              	.LBE265:
 472:lib/tinyusb/src/portable/synopsys/dwc2/dcd_dwc2.c **** 
 1093              		.loc 1 472 3 is_stmt 1 view .LVU366
 1094              	.LBB266:
 1095              	.LBI266:
 435:lib/tinyusb/src/portable/synopsys/dwc2/dcd_dwc2.c ****   // reset core
 1096              		.loc 1 435 13 view .LVU367
 1097              	.LBB267:
 437:lib/tinyusb/src/portable/synopsys/dwc2/dcd_dwc2.c **** 
 1098              		.loc 1 437 3 view .LVU368
 437:lib/tinyusb/src/portable/synopsys/dwc2/dcd_dwc2.c **** 
 1099              		.loc 1 437 17 is_stmt 0 view .LVU369
 1100 004e 1A69     		ldr	r2, [r3, #16]
 1101 0050 42F00102 		orr	r2, r2, #1
 1102 0054 1A61     		str	r2, [r3, #16]
 441:lib/tinyusb/src/portable/synopsys/dwc2/dcd_dwc2.c **** 
 1103              		.loc 1 441 3 is_stmt 1 view .LVU370
 1104              	.L99:
 441:lib/tinyusb/src/portable/synopsys/dwc2/dcd_dwc2.c **** 
 1105              		.loc 1 441 42 view .LVU371
 441:lib/tinyusb/src/portable/synopsys/dwc2/dcd_dwc2.c **** 
 1106              		.loc 1 441 9 view .LVU372
 441:lib/tinyusb/src/portable/synopsys/dwc2/dcd_dwc2.c **** 
 1107              		.loc 1 441 14 is_stmt 0 view .LVU373
 1108 0056 1A69     		ldr	r2, [r3, #16]
 441:lib/tinyusb/src/portable/synopsys/dwc2/dcd_dwc2.c **** 
 1109              		.loc 1 441 9 view .LVU374
 1110 0058 D007     		lsls	r0, r2, #31
 1111 005a FCD4     		bmi	.L99
 1112              	.L100:
 444:lib/tinyusb/src/portable/synopsys/dwc2/dcd_dwc2.c **** 
 1113              		.loc 1 444 46 is_stmt 1 view .LVU375
 444:lib/tinyusb/src/portable/synopsys/dwc2/dcd_dwc2.c **** 
 1114              		.loc 1 444 9 view .LVU376
 444:lib/tinyusb/src/portable/synopsys/dwc2/dcd_dwc2.c **** 
 1115              		.loc 1 444 16 is_stmt 0 view .LVU377
 1116 005c 1A69     		ldr	r2, [r3, #16]
 444:lib/tinyusb/src/portable/synopsys/dwc2/dcd_dwc2.c **** 
 1117              		.loc 1 444 9 view .LVU378
 1118 005e 002A     		cmp	r2, #0
 1119 0060 FCDA     		bge	.L100
ARM GAS  /tmp/claude-502/ccFotbfS.s 			page 52


 1120              	.LVL88:
 444:lib/tinyusb/src/portable/synopsys/dwc2/dcd_dwc2.c **** 
 1121              		.loc 1 444 9 view .LVU379
 1122              	.LBE267:
 1123              	.LBE266:
 477:lib/tinyusb/src/portable/synopsys/dwc2/dcd_dwc2.c **** 
 1124              		.loc 1 477 3 is_stmt 1 view .LVU380
 477:lib/tinyusb/src/portable/synopsys/dwc2/dcd_dwc2.c **** 
 1125              		.loc 1 477 24 is_stmt 0 view .LVU381
 1126 0062 DA68     		ldr	r2, [r3, #12]
 1127              	.LBB268:
 1128              	.LBB269:
 1129              	.LBB270:
 215:lib/tinyusb/src/portable/synopsys/dwc2/dwc2_stm32.h ****   }
 216:lib/tinyusb/src/portable/synopsys/dwc2/dwc2_stm32.h **** }
 217:lib/tinyusb/src/portable/synopsys/dwc2/dwc2_stm32.h **** 
 218:lib/tinyusb/src/portable/synopsys/dwc2/dwc2_stm32.h **** // MCU specific PHY update, it is called AFTER init() and core reset
 219:lib/tinyusb/src/portable/synopsys/dwc2/dwc2_stm32.h **** static inline void dwc2_phy_update(dwc2_regs_t* dwc2, uint8_t hs_phy_type) {
 220:lib/tinyusb/src/portable/synopsys/dwc2/dwc2_stm32.h ****   // used to set turnaround time for fullspeed, nothing to do in highspeed mode
 221:lib/tinyusb/src/portable/synopsys/dwc2/dwc2_stm32.h ****   if (hs_phy_type == HS_PHY_TYPE_NONE) {
 222:lib/tinyusb/src/portable/synopsys/dwc2/dwc2_stm32.h ****     // Turnaround timeout depends on the AHB clock dictated by STM32 Reference Manual
 223:lib/tinyusb/src/portable/synopsys/dwc2/dwc2_stm32.h ****     uint32_t turnaround;
 224:lib/tinyusb/src/portable/synopsys/dwc2/dwc2_stm32.h **** 
 225:lib/tinyusb/src/portable/synopsys/dwc2/dwc2_stm32.h ****     if (SystemCoreClock >= 32000000u) {
 1130              		.loc 4 225 25 view .LVU382
 1131 0064 5E49     		ldr	r1, .L130+24
 1132              		.loc 4 225 8 view .LVU383
 1133 0066 5F48     		ldr	r0, .L130+28
 1134              	.LBE270:
 1135              	.LBE269:
 1136              	.LBE268:
 477:lib/tinyusb/src/portable/synopsys/dwc2/dcd_dwc2.c **** 
 1137              		.loc 1 477 34 view .LVU384
 1138 0068 22F47052 		bic	r2, r2, #15360
 1139              	.LBB285:
 1140              	.LBB278:
 1141              	.LBB271:
 1142              		.loc 4 225 25 view .LVU385
 1143 006c 0968     		ldr	r1, [r1]
 1144              	.LBE271:
 1145              	.LBE278:
 1146              	.LBE285:
 477:lib/tinyusb/src/portable/synopsys/dwc2/dcd_dwc2.c **** 
 1147              		.loc 1 477 55 view .LVU386
 1148 006e 42F4A052 		orr	r2, r2, #5120
 1149              	.LBB286:
 1150              	.LBB279:
 1151              	.LBB272:
 1152              		.loc 4 225 8 view .LVU387
 1153 0072 8142     		cmp	r1, r0
 1154              	.LBE272:
 1155              	.LBE279:
 1156              	.LBE286:
 477:lib/tinyusb/src/portable/synopsys/dwc2/dcd_dwc2.c **** 
 1157              		.loc 1 477 17 view .LVU388
 1158 0074 DA60     		str	r2, [r3, #12]
 480:lib/tinyusb/src/portable/synopsys/dwc2/dcd_dwc2.c **** 
ARM GAS  /tmp/claude-502/ccFotbfS.s 			page 53


 1159              		.loc 1 480 3 is_stmt 1 view .LVU389
 1160              	.LVL89:
 1161              	.LBB287:
 1162              	.LBI268:
 219:lib/tinyusb/src/portable/synopsys/dwc2/dwc2_stm32.h ****   // used to set turnaround time for fullspeed, nothing to do in highspeed mode
 1163              		.loc 4 219 20 view .LVU390
 1164              	.LBE287:
 1165              	.LBE296:
 1166              	.LBE304:
 221:lib/tinyusb/src/portable/synopsys/dwc2/dwc2_stm32.h ****     // Turnaround timeout depends on the AHB clock dictated by STM32 Reference Manual
 1167              		.loc 4 221 3 view .LVU391
 1168              	.LBB305:
 1169              	.LBB297:
 1170              	.LBB288:
 1171              	.LBB280:
 1172              	.LBI269:
 219:lib/tinyusb/src/portable/synopsys/dwc2/dwc2_stm32.h ****   // used to set turnaround time for fullspeed, nothing to do in highspeed mode
 1173              		.loc 4 219 20 view .LVU392
 1174              	.LBB273:
 223:lib/tinyusb/src/portable/synopsys/dwc2/dwc2_stm32.h **** 
 1175              		.loc 4 223 5 view .LVU393
 1176              		.loc 4 225 5 view .LVU394
 1177              		.loc 4 225 8 is_stmt 0 view .LVU395
 1178 0076 33D2     		bcs	.L104
 226:lib/tinyusb/src/portable/synopsys/dwc2/dwc2_stm32.h ****       turnaround = 0x6u;
 227:lib/tinyusb/src/portable/synopsys/dwc2/dwc2_stm32.h ****     } else if (SystemCoreClock >= 27500000u) {
 1179              		.loc 4 227 12 is_stmt 1 view .LVU396
 1180              		.loc 4 227 15 is_stmt 0 view .LVU397
 1181 0078 5B4A     		ldr	r2, .L130+32
 1182 007a 9142     		cmp	r1, r2
 1183 007c 00F28780 		bhi	.L105
 228:lib/tinyusb/src/portable/synopsys/dwc2/dwc2_stm32.h ****       turnaround = 0x7u;
 229:lib/tinyusb/src/portable/synopsys/dwc2/dwc2_stm32.h ****     } else if (SystemCoreClock >= 24000000u) {
 1184              		.loc 4 229 12 is_stmt 1 view .LVU398
 1185              		.loc 4 229 15 is_stmt 0 view .LVU399
 1186 0080 5A4A     		ldr	r2, .L130+36
 1187 0082 9142     		cmp	r1, r2
 1188 0084 80F08E80 		bcs	.L106
 230:lib/tinyusb/src/portable/synopsys/dwc2/dwc2_stm32.h ****       turnaround = 0x8u;
 231:lib/tinyusb/src/portable/synopsys/dwc2/dwc2_stm32.h ****     } else if (SystemCoreClock >= 21800000u) {
 1189              		.loc 4 231 12 is_stmt 1 view .LVU400
 1190              		.loc 4 231 15 is_stmt 0 view .LVU401
 1191 0088 594A     		ldr	r2, .L130+40
 1192 008a 9142     		cmp	r1, r2
 1193 008c 00F28D80 		bhi	.L107
 232:lib/tinyusb/src/portable/synopsys/dwc2/dwc2_stm32.h ****       turnaround = 0x9u;
 233:lib/tinyusb/src/portable/synopsys/dwc2/dwc2_stm32.h ****     }
 234:lib/tinyusb/src/portable/synopsys/dwc2/dwc2_stm32.h ****     else if (SystemCoreClock >= 20000000u) {
 1194              		.loc 4 234 10 is_stmt 1 view .LVU402
 1195              		.loc 4 234 13 is_stmt 0 view .LVU403
 1196 0090 A2F5DB12 		sub	r2, r2, #1794048
 1197 0094 A2F5BA52 		sub	r2, r2, #5952
 1198 0098 9142     		cmp	r1, r2
 1199 009a 00F28980 		bhi	.L108
 235:lib/tinyusb/src/portable/synopsys/dwc2/dwc2_stm32.h ****       turnaround = 0xAu;
 236:lib/tinyusb/src/portable/synopsys/dwc2/dwc2_stm32.h ****     }
 237:lib/tinyusb/src/portable/synopsys/dwc2/dwc2_stm32.h ****     else if (SystemCoreClock >= 18500000u) {
ARM GAS  /tmp/claude-502/ccFotbfS.s 			page 54


 1200              		.loc 4 237 10 is_stmt 1 view .LVU404
 1201              		.loc 4 237 13 is_stmt 0 view .LVU405
 1202 009e A2F5B712 		sub	r2, r2, #1499136
 1203 00a2 A2F55872 		sub	r2, r2, #864
 1204 00a6 9142     		cmp	r1, r2
 1205 00a8 00F28580 		bhi	.L109
 238:lib/tinyusb/src/portable/synopsys/dwc2/dwc2_stm32.h ****       turnaround = 0xBu;
 239:lib/tinyusb/src/portable/synopsys/dwc2/dwc2_stm32.h ****     }
 240:lib/tinyusb/src/portable/synopsys/dwc2/dwc2_stm32.h ****     else if (SystemCoreClock >= 17200000u) {
 1206              		.loc 4 240 10 is_stmt 1 view .LVU406
 1207              		.loc 4 240 13 is_stmt 0 view .LVU407
 1208 00ac 514A     		ldr	r2, .L130+44
 1209 00ae 9142     		cmp	r1, r2
 1210 00b0 80F08480 		bcs	.L110
 241:lib/tinyusb/src/portable/synopsys/dwc2/dwc2_stm32.h ****       turnaround = 0xCu;
 242:lib/tinyusb/src/portable/synopsys/dwc2/dwc2_stm32.h ****     }
 243:lib/tinyusb/src/portable/synopsys/dwc2/dwc2_stm32.h ****     else if (SystemCoreClock >= 16000000u) {
 1211              		.loc 4 243 10 is_stmt 1 view .LVU408
 1212              		.loc 4 243 13 is_stmt 0 view .LVU409
 1213 00b4 504A     		ldr	r2, .L130+48
 1214 00b6 9142     		cmp	r1, r2
 1215 00b8 80F08380 		bcs	.L111
 244:lib/tinyusb/src/portable/synopsys/dwc2/dwc2_stm32.h ****       turnaround = 0xDu;
 245:lib/tinyusb/src/portable/synopsys/dwc2/dwc2_stm32.h ****     }
 246:lib/tinyusb/src/portable/synopsys/dwc2/dwc2_stm32.h ****     else if (SystemCoreClock >= 15000000u) {
 1216              		.loc 4 246 10 is_stmt 1 view .LVU410
 1217              		.loc 4 246 13 is_stmt 0 view .LVU411
 1218 00bc 4F4A     		ldr	r2, .L130+52
 1219 00be 9142     		cmp	r1, r2
 1220 00c0 2CBF     		ite	cs
 1221 00c2 4FF46051 		movcs	r1, #14336
 1222 00c6 4FF47051 		movcc	r1, #15360
 1223 00ca 0BE0     		b	.L101
 1224              	.LVL90:
 1225              	.L127:
 1226              		.loc 4 246 13 view .LVU412
 1227              	.LBE273:
 1228              	.LBE280:
 1229              	.LBE288:
 1230              	.LBE297:
 1231              	.LBE305:
 1232              	.LBB306:
 1233              	.LBB247:
 556:lib/tinyusb/src/portable/synopsys/dwc2/dcd_dwc2.c **** #endif
 1234              		.loc 1 556 3 is_stmt 1 view .LVU413
 556:lib/tinyusb/src/portable/synopsys/dwc2/dcd_dwc2.c **** #endif
 1235              		.loc 1 556 3 view .LVU414
 556:lib/tinyusb/src/portable/synopsys/dwc2/dcd_dwc2.c **** #endif
 1236              		.loc 1 556 3 view .LVU415
 556:lib/tinyusb/src/portable/synopsys/dwc2/dcd_dwc2.c **** #endif
 1237              		.loc 1 556 3 view .LVU416
 1238              	.LBB244:
 556:lib/tinyusb/src/portable/synopsys/dwc2/dcd_dwc2.c **** #endif
 1239              		.loc 1 556 3 view .LVU417
 556:lib/tinyusb/src/portable/synopsys/dwc2/dcd_dwc2.c **** #endif
 1240              		.loc 1 556 3 view .LVU418
 1241 00cc 4FF0E023 		mov	r3, #-536813568
ARM GAS  /tmp/claude-502/ccFotbfS.s 			page 55


 1242              	.LVL91:
 556:lib/tinyusb/src/portable/synopsys/dwc2/dcd_dwc2.c **** #endif
 1243              		.loc 1 556 3 is_stmt 0 view .LVU419
 1244 00d0 D3F8F03D 		ldr	r3, [r3, #3568]
 1245 00d4 DC07     		lsls	r4, r3, #31
 1246 00d6 00D5     		bpl	.L94
 556:lib/tinyusb/src/portable/synopsys/dwc2/dcd_dwc2.c **** #endif
 1247              		.loc 1 556 3 is_stmt 1 view .LVU420
 1248              		.syntax unified
 1249              	@ 556 "lib/tinyusb/src/portable/synopsys/dwc2/dcd_dwc2.c" 1
 1250 00d8 00BE     		BKPT #0
 1251              	
 1252              	@ 0 "" 2
 1253              	.LVL92:
 1254              		.thumb
 1255              		.syntax unified
 1256              	.L94:
 556:lib/tinyusb/src/portable/synopsys/dwc2/dcd_dwc2.c **** #endif
 1257              		.loc 1 556 3 is_stmt 0 view .LVU421
 1258              	.LBE244:
 1259              	.LBE247:
 1260              	.LBE306:
 631:lib/tinyusb/src/portable/synopsys/dwc2/dcd_dwc2.c **** 
 1261              		.loc 1 631 1 view .LVU422
 1262 00da 5DF8044B 		ldr	r4, [sp], #4
 1263              		.cfi_remember_state
 1264              		.cfi_restore 4
 1265              		.cfi_def_cfa_offset 0
 1266 00de 7047     		bx	lr
 1267              	.LVL93:
 1268              	.L104:
 1269              		.cfi_restore_state
 1270              	.LBB307:
 1271              	.LBB298:
 1272              	.LBB289:
 1273              	.LBB281:
 1274              	.LBB274:
 631:lib/tinyusb/src/portable/synopsys/dwc2/dcd_dwc2.c **** 
 1275              		.loc 1 631 1 view .LVU423
 1276 00e0 4FF4C051 		mov	r1, #6144
 1277              	.L101:
 247:lib/tinyusb/src/portable/synopsys/dwc2/dwc2_stm32.h ****       turnaround = 0xEu;
 248:lib/tinyusb/src/portable/synopsys/dwc2/dwc2_stm32.h ****     }
 249:lib/tinyusb/src/portable/synopsys/dwc2/dwc2_stm32.h ****     else {
 250:lib/tinyusb/src/portable/synopsys/dwc2/dwc2_stm32.h ****       turnaround = 0xFu;
 251:lib/tinyusb/src/portable/synopsys/dwc2/dwc2_stm32.h ****     }
 252:lib/tinyusb/src/portable/synopsys/dwc2/dwc2_stm32.h **** 
 253:lib/tinyusb/src/portable/synopsys/dwc2/dwc2_stm32.h ****     dwc2->gusbcfg = (dwc2->gusbcfg & ~GUSBCFG_TRDT_Msk) | (turnaround << GUSBCFG_TRDT_Pos);
 1278              		.loc 4 253 5 is_stmt 1 view .LVU424
 1279              		.loc 4 253 26 is_stmt 0 view .LVU425
 1280 00e4 DA68     		ldr	r2, [r3, #12]
 1281              	.LBE274:
 1282              	.LBE281:
 1283              	.LBE289:
 1284              	.LBE298:
 1285              	.LBE307:
 1286              	.LBB308:
ARM GAS  /tmp/claude-502/ccFotbfS.s 			page 56


 1287              	.LBB309:
 117:lib/tinyusb/src/portable/synopsys/dwc2/dcd_dwc2.c ****   while (dwc2->grstctl & GRSTCTL_TXFFLSH_Msk) {}
 1288              		.loc 1 117 17 view .LVU426
 1289 00e6 4FF48460 		mov	r0, #1056
 1290              	.LBE309:
 1291              	.LBE308:
 1292              	.LBB311:
 1293              	.LBB299:
 1294              	.LBB290:
 1295              	.LBB282:
 1296              	.LBB275:
 1297              		.loc 4 253 36 view .LVU427
 1298 00ea 22F47052 		bic	r2, r2, #15360
 1299              		.loc 4 253 57 view .LVU428
 1300 00ee 0A43     		orrs	r2, r2, r1
 1301              		.loc 4 253 19 view .LVU429
 1302 00f0 DA60     		str	r2, [r3, #12]
 1303              	.LVL94:
 1304              		.loc 4 253 19 view .LVU430
 1305              	.LBE275:
 1306              	.LBE282:
 1307              	.LBE290:
 483:lib/tinyusb/src/portable/synopsys/dwc2/dcd_dwc2.c **** }
 1308              		.loc 1 483 3 is_stmt 1 view .LVU431
 483:lib/tinyusb/src/portable/synopsys/dwc2/dcd_dwc2.c **** }
 1309              		.loc 1 483 21 is_stmt 0 view .LVU432
 1310 00f2 D3F80028 		ldr	r2, [r3, #2048]
 483:lib/tinyusb/src/portable/synopsys/dwc2/dcd_dwc2.c **** }
 1311              		.loc 1 483 46 view .LVU433
 1312 00f6 42F00302 		orr	r2, r2, #3
 483:lib/tinyusb/src/portable/synopsys/dwc2/dcd_dwc2.c **** }
 1313              		.loc 1 483 14 view .LVU434
 1314 00fa C3F80028 		str	r2, [r3, #2048]
 1315              	.LVL95:
 483:lib/tinyusb/src/portable/synopsys/dwc2/dcd_dwc2.c **** }
 1316              		.loc 1 483 14 view .LVU435
 1317              	.LBE299:
 1318              	.LBE311:
 581:lib/tinyusb/src/portable/synopsys/dwc2/dcd_dwc2.c **** 
 1319              		.loc 1 581 3 is_stmt 1 view .LVU436
 581:lib/tinyusb/src/portable/synopsys/dwc2/dcd_dwc2.c **** 
 1320              		.loc 1 581 16 is_stmt 0 view .LVU437
 1321 00fe D3F8002E 		ldr	r2, [r3, #3584]
 1322 0102 22F00F02 		bic	r2, r2, #15
 1323 0106 C3F8002E 		str	r2, [r3, #3584]
 591:lib/tinyusb/src/portable/synopsys/dwc2/dcd_dwc2.c **** 
 1324              		.loc 1 591 3 is_stmt 1 view .LVU438
 591:lib/tinyusb/src/portable/synopsys/dwc2/dcd_dwc2.c **** 
 1325              		.loc 1 591 17 is_stmt 0 view .LVU439
 1326 010a DA68     		ldr	r2, [r3, #12]
 1327 010c 42F00702 		orr	r2, r2, #7
 1328 0110 DA60     		str	r2, [r3, #12]
 594:lib/tinyusb/src/portable/synopsys/dwc2/dcd_dwc2.c **** 
 1329              		.loc 1 594 3 is_stmt 1 view .LVU440
 594:lib/tinyusb/src/portable/synopsys/dwc2/dcd_dwc2.c **** 
 1330              		.loc 1 594 24 is_stmt 0 view .LVU441
 1331 0112 DA68     		ldr	r2, [r3, #12]
ARM GAS  /tmp/claude-502/ccFotbfS.s 			page 57


 594:lib/tinyusb/src/portable/synopsys/dwc2/dcd_dwc2.c **** 
 1332              		.loc 1 594 52 view .LVU442
 1333 0114 22F0C042 		bic	r2, r2, #1610612736
 1334 0118 42F08042 		orr	r2, r2, #1073741824
 594:lib/tinyusb/src/portable/synopsys/dwc2/dcd_dwc2.c **** 
 1335              		.loc 1 594 17 view .LVU443
 1336 011c DA60     		str	r2, [r3, #12]
 597:lib/tinyusb/src/portable/synopsys/dwc2/dcd_dwc2.c **** 
 1337              		.loc 1 597 3 is_stmt 1 view .LVU444
 597:lib/tinyusb/src/portable/synopsys/dwc2/dcd_dwc2.c **** 
 1338              		.loc 1 597 24 is_stmt 0 view .LVU445
 1339 011e 1A68     		ldr	r2, [r3]
 597:lib/tinyusb/src/portable/synopsys/dwc2/dcd_dwc2.c **** 
 1340              		.loc 1 597 72 view .LVU446
 1341 0120 22F0D002 		bic	r2, r2, #208
 1342 0124 42F0C002 		orr	r2, r2, #192
 597:lib/tinyusb/src/portable/synopsys/dwc2/dcd_dwc2.c **** 
 1343              		.loc 1 597 17 view .LVU447
 1344 0128 1A60     		str	r2, [r3]
 601:lib/tinyusb/src/portable/synopsys/dwc2/dcd_dwc2.c **** 
 1345              		.loc 1 601 3 is_stmt 1 view .LVU448
 601:lib/tinyusb/src/portable/synopsys/dwc2/dcd_dwc2.c **** 
 1346              		.loc 1 601 14 is_stmt 0 view .LVU449
 1347 012a D3F80028 		ldr	r2, [r3, #2048]
 1348 012e 42F00402 		orr	r2, r2, #4
 1349 0132 C3F80028 		str	r2, [r3, #2048]
 603:lib/tinyusb/src/portable/synopsys/dwc2/dcd_dwc2.c ****   fifo_flush_rx(dwc2);
 1350              		.loc 1 603 3 is_stmt 1 view .LVU450
 1351              	.LVL96:
 1352              	.LBB312:
 1353              	.LBI308:
 115:lib/tinyusb/src/portable/synopsys/dwc2/dcd_dwc2.c ****   // flush TX fifo and wait for it cleared
 1354              		.loc 1 115 42 view .LVU451
 1355              	.LBB310:
 117:lib/tinyusb/src/portable/synopsys/dwc2/dcd_dwc2.c ****   while (dwc2->grstctl & GRSTCTL_TXFFLSH_Msk) {}
 1356              		.loc 1 117 3 view .LVU452
 117:lib/tinyusb/src/portable/synopsys/dwc2/dcd_dwc2.c ****   while (dwc2->grstctl & GRSTCTL_TXFFLSH_Msk) {}
 1357              		.loc 1 117 17 is_stmt 0 view .LVU453
 1358 0136 1861     		str	r0, [r3, #16]
 118:lib/tinyusb/src/portable/synopsys/dwc2/dcd_dwc2.c **** }
 1359              		.loc 1 118 3 is_stmt 1 view .LVU454
 1360              	.L102:
 118:lib/tinyusb/src/portable/synopsys/dwc2/dcd_dwc2.c **** }
 1361              		.loc 1 118 48 view .LVU455
 118:lib/tinyusb/src/portable/synopsys/dwc2/dcd_dwc2.c **** }
 1362              		.loc 1 118 9 view .LVU456
 118:lib/tinyusb/src/portable/synopsys/dwc2/dcd_dwc2.c **** }
 1363              		.loc 1 118 14 is_stmt 0 view .LVU457
 1364 0138 1A69     		ldr	r2, [r3, #16]
 118:lib/tinyusb/src/portable/synopsys/dwc2/dcd_dwc2.c **** }
 1365              		.loc 1 118 9 view .LVU458
 1366 013a 9106     		lsls	r1, r2, #26
 1367 013c FCD4     		bmi	.L102
 1368              	.LVL97:
 118:lib/tinyusb/src/portable/synopsys/dwc2/dcd_dwc2.c **** }
 1369              		.loc 1 118 9 view .LVU459
 1370              	.LBE310:
ARM GAS  /tmp/claude-502/ccFotbfS.s 			page 58


 1371              	.LBE312:
 604:lib/tinyusb/src/portable/synopsys/dwc2/dcd_dwc2.c **** 
 1372              		.loc 1 604 3 is_stmt 1 view .LVU460
 1373              	.LBB313:
 1374              	.LBI313:
 120:lib/tinyusb/src/portable/synopsys/dwc2/dcd_dwc2.c ****   // flush RX fifo and wait for it cleared
 1375              		.loc 1 120 42 view .LVU461
 1376              	.LBB314:
 122:lib/tinyusb/src/portable/synopsys/dwc2/dcd_dwc2.c ****   while (dwc2->grstctl & GRSTCTL_RXFFLSH_Msk) {}
 1377              		.loc 1 122 3 view .LVU462
 122:lib/tinyusb/src/portable/synopsys/dwc2/dcd_dwc2.c ****   while (dwc2->grstctl & GRSTCTL_RXFFLSH_Msk) {}
 1378              		.loc 1 122 17 is_stmt 0 view .LVU463
 1379 013e 1022     		movs	r2, #16
 1380 0140 1A61     		str	r2, [r3, #16]
 123:lib/tinyusb/src/portable/synopsys/dwc2/dcd_dwc2.c **** }
 1381              		.loc 1 123 3 is_stmt 1 view .LVU464
 1382              	.L103:
 123:lib/tinyusb/src/portable/synopsys/dwc2/dcd_dwc2.c **** }
 1383              		.loc 1 123 48 view .LVU465
 123:lib/tinyusb/src/portable/synopsys/dwc2/dcd_dwc2.c **** }
 1384              		.loc 1 123 9 view .LVU466
 123:lib/tinyusb/src/portable/synopsys/dwc2/dcd_dwc2.c **** }
 1385              		.loc 1 123 14 is_stmt 0 view .LVU467
 1386 0142 1A69     		ldr	r2, [r3, #16]
 123:lib/tinyusb/src/portable/synopsys/dwc2/dcd_dwc2.c **** }
 1387              		.loc 1 123 9 view .LVU468
 1388 0144 D206     		lsls	r2, r2, #27
 1389 0146 FCD4     		bmi	.L103
 1390              	.LVL98:
 123:lib/tinyusb/src/portable/synopsys/dwc2/dcd_dwc2.c **** }
 1391              		.loc 1 123 9 view .LVU469
 1392              	.LBE314:
 1393              	.LBE313:
 607:lib/tinyusb/src/portable/synopsys/dwc2/dcd_dwc2.c ****   dwc2->gintsts |= int_mask;
 1394              		.loc 1 607 3 is_stmt 1 view .LVU470
 607:lib/tinyusb/src/portable/synopsys/dwc2/dcd_dwc2.c ****   dwc2->gintsts |= int_mask;
 1395              		.loc 1 607 12 is_stmt 0 view .LVU471
 1396 0148 5869     		ldr	r0, [r3, #20]
 1397              	.LVL99:
 608:lib/tinyusb/src/portable/synopsys/dwc2/dcd_dwc2.c ****   int_mask = dwc2->gotgint;
 1398              		.loc 1 608 3 is_stmt 1 view .LVU472
 608:lib/tinyusb/src/portable/synopsys/dwc2/dcd_dwc2.c ****   int_mask = dwc2->gotgint;
 1399              		.loc 1 608 17 is_stmt 0 view .LVU473
 1400 014a 5A69     		ldr	r2, [r3, #20]
 613:lib/tinyusb/src/portable/synopsys/dwc2/dcd_dwc2.c ****                   GINTMSK_USBSUSPM | GINTMSK_USBRST | GINTMSK_ENUMDNEM | GINTMSK_WUIM;
 1401              		.loc 1 613 17 view .LVU474
 1402 014c 2C49     		ldr	r1, .L130+56
 608:lib/tinyusb/src/portable/synopsys/dwc2/dcd_dwc2.c ****   int_mask = dwc2->gotgint;
 1403              		.loc 1 608 17 view .LVU475
 1404 014e 0243     		orrs	r2, r2, r0
 631:lib/tinyusb/src/portable/synopsys/dwc2/dcd_dwc2.c **** 
 1405              		.loc 1 631 1 view .LVU476
 1406 0150 5DF8044B 		ldr	r4, [sp], #4
 1407              		.cfi_remember_state
 1408              		.cfi_restore 4
 1409              		.cfi_def_cfa_offset 0
 608:lib/tinyusb/src/portable/synopsys/dwc2/dcd_dwc2.c ****   int_mask = dwc2->gotgint;
ARM GAS  /tmp/claude-502/ccFotbfS.s 			page 59


 1410              		.loc 1 608 17 view .LVU477
 1411 0154 5A61     		str	r2, [r3, #20]
 609:lib/tinyusb/src/portable/synopsys/dwc2/dcd_dwc2.c ****   dwc2->gotgint |= int_mask;
 1412              		.loc 1 609 3 is_stmt 1 view .LVU478
 609:lib/tinyusb/src/portable/synopsys/dwc2/dcd_dwc2.c ****   dwc2->gotgint |= int_mask;
 1413              		.loc 1 609 12 is_stmt 0 view .LVU479
 1414 0156 5868     		ldr	r0, [r3, #4]
 1415              	.LVL100:
 610:lib/tinyusb/src/portable/synopsys/dwc2/dcd_dwc2.c **** 
 1416              		.loc 1 610 3 is_stmt 1 view .LVU480
 610:lib/tinyusb/src/portable/synopsys/dwc2/dcd_dwc2.c **** 
 1417              		.loc 1 610 17 is_stmt 0 view .LVU481
 1418 0158 5A68     		ldr	r2, [r3, #4]
 1419 015a 0243     		orrs	r2, r2, r0
 1420 015c 5A60     		str	r2, [r3, #4]
 613:lib/tinyusb/src/portable/synopsys/dwc2/dcd_dwc2.c ****                   GINTMSK_USBSUSPM | GINTMSK_USBRST | GINTMSK_ENUMDNEM | GINTMSK_WUIM;
 1421              		.loc 1 613 3 is_stmt 1 view .LVU482
 613:lib/tinyusb/src/portable/synopsys/dwc2/dcd_dwc2.c ****                   GINTMSK_USBSUSPM | GINTMSK_USBRST | GINTMSK_ENUMDNEM | GINTMSK_WUIM;
 1422              		.loc 1 613 17 is_stmt 0 view .LVU483
 1423 015e 9961     		str	r1, [r3, #24]
 617:lib/tinyusb/src/portable/synopsys/dwc2/dcd_dwc2.c **** 
 1424              		.loc 1 617 3 is_stmt 1 view .LVU484
 617:lib/tinyusb/src/portable/synopsys/dwc2/dcd_dwc2.c **** 
 1425              		.loc 1 617 17 is_stmt 0 view .LVU485
 1426 0160 9A68     		ldr	r2, [r3, #8]
 1427 0162 42F08002 		orr	r2, r2, #128
 1428 0166 9A60     		str	r2, [r3, #8]
 620:lib/tinyusb/src/portable/synopsys/dwc2/dcd_dwc2.c **** 
 1429              		.loc 1 620 3 is_stmt 1 view .LVU486
 620:lib/tinyusb/src/portable/synopsys/dwc2/dcd_dwc2.c **** 
 1430              		.loc 1 620 17 is_stmt 0 view .LVU487
 1431 0168 9A68     		ldr	r2, [r3, #8]
 1432 016a 42F00102 		orr	r2, r2, #1
 1433 016e 9A60     		str	r2, [r3, #8]
 630:lib/tinyusb/src/portable/synopsys/dwc2/dcd_dwc2.c **** }
 1434              		.loc 1 630 3 is_stmt 1 view .LVU488
 1435              	.LVL101:
 1436              	.LBB315:
 1437              	.LBI315:
 667:lib/tinyusb/src/portable/synopsys/dwc2/dcd_dwc2.c ****   (void) rhport;
 1438              		.loc 1 667 6 view .LVU489
 1439              	.LBB316:
 668:lib/tinyusb/src/portable/synopsys/dwc2/dcd_dwc2.c ****   dwc2_regs_t* dwc2 = DWC2_REG(rhport);
 1440              		.loc 1 668 3 view .LVU490
 669:lib/tinyusb/src/portable/synopsys/dwc2/dcd_dwc2.c **** 
 1441              		.loc 1 669 3 view .LVU491
 681:lib/tinyusb/src/portable/synopsys/dwc2/dcd_dwc2.c **** }
 1442              		.loc 1 681 3 view .LVU492
 681:lib/tinyusb/src/portable/synopsys/dwc2/dcd_dwc2.c **** }
 1443              		.loc 1 681 14 is_stmt 0 view .LVU493
 1444 0170 D3F80428 		ldr	r2, [r3, #2052]
 1445 0174 22F00202 		bic	r2, r2, #2
 1446 0178 C3F80428 		str	r2, [r3, #2052]
 1447              	.LVL102:
 681:lib/tinyusb/src/portable/synopsys/dwc2/dcd_dwc2.c **** }
 1448              		.loc 1 681 14 view .LVU494
 1449              	.LBE316:
ARM GAS  /tmp/claude-502/ccFotbfS.s 			page 60


 1450              	.LBE315:
 631:lib/tinyusb/src/portable/synopsys/dwc2/dcd_dwc2.c **** 
 1451              		.loc 1 631 1 view .LVU495
 1452 017c 7047     		bx	lr
 1453              	.LVL103:
 1454              	.L129:
 1455              		.cfi_restore_state
 1456              	.LBB317:
 1457              	.LBB300:
 1458              	.LBB291:
 1459              	.LBB262:
 1460              	.LBB258:
 1461              	.LBI258:
 144:lib/tinyusb/src/portable/synopsys/dwc2/dwc2_stm32.h ****   if (hs_phy_type == HS_PHY_TYPE_NONE) {
 1462              		.loc 4 144 20 is_stmt 1 view .LVU496
 1463              	.LBB259:
 161:lib/tinyusb/src/portable/synopsys/dwc2/dwc2_stm32.h ****     }
 1464              		.loc 4 161 7 view .LVU497
 161:lib/tinyusb/src/portable/synopsys/dwc2/dwc2_stm32.h ****     }
 1465              		.loc 4 161 22 is_stmt 0 view .LVU498
 1466 017e 2149     		ldr	r1, .L130+60
 1467 0180 D1F80021 		ldr	r2, [r1, #256]
 1468 0184 22F08062 		bic	r2, r2, #67108864
 1469 0188 C1F80021 		str	r2, [r1, #256]
 214:lib/tinyusb/src/portable/synopsys/dwc2/dwc2_stm32.h ****   }
 1470              		.loc 4 214 5 is_stmt 1 view .LVU499
 216:lib/tinyusb/src/portable/synopsys/dwc2/dwc2_stm32.h **** 
 1471              		.loc 4 216 1 is_stmt 0 view .LVU500
 1472 018c 5FE7     		b	.L98
 1473              	.LVL104:
 1474              	.L105:
 216:lib/tinyusb/src/portable/synopsys/dwc2/dwc2_stm32.h **** 
 1475              		.loc 4 216 1 view .LVU501
 1476              	.LBE259:
 1477              	.LBE258:
 1478              	.LBE262:
 1479              	.LBE291:
 1480              	.LBB292:
 1481              	.LBB283:
 1482              	.LBB276:
 1483 018e 4FF4E051 		mov	r1, #7168
 1484 0192 A7E7     		b	.L101
 1485              	.LVL105:
 1486              	.L128:
 216:lib/tinyusb/src/portable/synopsys/dwc2/dwc2_stm32.h **** 
 1487              		.loc 4 216 1 view .LVU502
 1488              	.LBE276:
 1489              	.LBE283:
 1490              	.LBE292:
 1491              	.LBB293:
 1492              	.LBB263:
 155:lib/tinyusb/src/portable/synopsys/dwc2/dwc2_stm32.h ****     }
 1493              		.loc 4 155 7 is_stmt 1 view .LVU503
 155:lib/tinyusb/src/portable/synopsys/dwc2/dwc2_stm32.h ****     }
 1494              		.loc 4 155 22 is_stmt 0 view .LVU504
 1495 0194 1B49     		ldr	r1, .L130+60
 1496 0196 D1F80021 		ldr	r2, [r1, #256]
ARM GAS  /tmp/claude-502/ccFotbfS.s 			page 61


 1497 019a 22F08052 		bic	r2, r2, #268435456
 1498 019e C1F80021 		str	r2, [r1, #256]
 160:lib/tinyusb/src/portable/synopsys/dwc2/dwc2_stm32.h ****       RCC->AHB1LPENR &= ~RCC_AHB1LPENR_USB1OTGHSULPILPEN;
 1499              		.loc 4 160 5 is_stmt 1 view .LVU505
 1500 01a2 54E7     		b	.L98
 1501              	.LVL106:
 1502              	.L106:
 160:lib/tinyusb/src/portable/synopsys/dwc2/dwc2_stm32.h ****       RCC->AHB1LPENR &= ~RCC_AHB1LPENR_USB1OTGHSULPILPEN;
 1503              		.loc 4 160 5 is_stmt 0 view .LVU506
 1504              	.LBE263:
 1505              	.LBE293:
 1506              	.LBB294:
 1507              	.LBB284:
 1508              	.LBB277:
 1509 01a4 4FF40051 		mov	r1, #8192
 1510 01a8 9CE7     		b	.L101
 1511              	.L107:
 1512 01aa 4FF41051 		mov	r1, #9216
 1513 01ae 99E7     		b	.L101
 1514              	.L108:
 1515 01b0 4FF42051 		mov	r1, #10240
 1516 01b4 96E7     		b	.L101
 1517              	.L109:
 1518 01b6 4FF43051 		mov	r1, #11264
 1519 01ba 93E7     		b	.L101
 1520              	.L110:
 1521 01bc 4FF44051 		mov	r1, #12288
 1522 01c0 90E7     		b	.L101
 1523              	.L111:
 1524 01c2 4FF45051 		mov	r1, #13312
 1525 01c6 8DE7     		b	.L101
 1526              	.L131:
 1527              		.align	2
 1528              	.L130:
 1529 01c8 00000000 		.word	.LANCHOR0
 1530 01cc 0000FFFF 		.word	-65536
 1531 01d0 00003155 		.word	1429274624
 1532 01d4 0000544F 		.word	1330905088
 1533 01d8 00000840 		.word	1074266112
 1534 01dc 00000440 		.word	1074003968
 1535 01e0 00000000 		.word	SystemCoreClock
 1536 01e4 0048E801 		.word	32000000
 1537 01e8 DF9DA301 		.word	27499999
 1538 01ec 00366E01 		.word	24000000
 1539 01f0 3FA44C01 		.word	21799999
 1540 01f4 80730601 		.word	17200000
 1541 01f8 0024F400 		.word	16000000
 1542 01fc C0E1E400 		.word	15000000
 1543 0200 14380080 		.word	-2147469292
 1544 0204 00440258 		.word	1476543488
 1545              	.LBE277:
 1546              	.LBE284:
 1547              	.LBE294:
 1548              	.LBE300:
 1549              	.LBE317:
 1550              		.cfi_endproc
 1551              	.LFE403:
ARM GAS  /tmp/claude-502/ccFotbfS.s 			page 62


 1553              		.section	.text.dcd_int_enable,"ax",%progbits
 1554              		.align	1
 1555              		.p2align 2,,3
 1556              		.global	dcd_int_enable
 1557              		.syntax unified
 1558              		.thumb
 1559              		.thumb_func
 1561              	dcd_int_enable:
 1562              	.LVL107:
 1563              	.LFB404:
 633:lib/tinyusb/src/portable/synopsys/dwc2/dcd_dwc2.c ****   dwc2_dcd_int_enable(rhport);
 1564              		.loc 1 633 37 is_stmt 1 view -0
 1565              		.cfi_startproc
 1566              		@ args = 0, pretend = 0, frame = 0
 1567              		@ frame_needed = 0, uses_anonymous_args = 0
 1568              		@ link register save eliminated.
 634:lib/tinyusb/src/portable/synopsys/dwc2/dcd_dwc2.c **** }
 1569              		.loc 1 634 3 view .LVU508
 1570              	.LBB318:
 1571              	.LBI318:
 127:lib/tinyusb/src/portable/synopsys/dwc2/dwc2_stm32.h ****   NVIC_EnableIRQ((IRQn_Type) _dwc2_controller[rhport].irqnum);
 1572              		.loc 4 127 42 view .LVU509
 1573              	.LBB319:
 128:lib/tinyusb/src/portable/synopsys/dwc2/dwc2_stm32.h **** }
 1574              		.loc 4 128 3 view .LVU510
 128:lib/tinyusb/src/portable/synopsys/dwc2/dwc2_stm32.h **** }
 1575              		.loc 4 128 54 is_stmt 0 view .LVU511
 1576 0000 084B     		ldr	r3, .L134
 1577 0002 03EB0010 		add	r0, r3, r0, lsl #4
 1578              	.LVL108:
 128:lib/tinyusb/src/portable/synopsys/dwc2/dwc2_stm32.h **** }
 1579              		.loc 4 128 54 view .LVU512
 1580 0006 4268     		ldr	r2, [r0, #4]
 128:lib/tinyusb/src/portable/synopsys/dwc2/dwc2_stm32.h **** }
 1581              		.loc 4 128 3 view .LVU513
 1582 0008 13B2     		sxth	r3, r2
 1583              	.LVL109:
 1584              	.LBB320:
 1585              	.LBI320:
 1586              		.file 5 "/Users/reza.kalfane/Workspaces/Daisy/DaisyExamples/libDaisy/Drivers/CMSIS/Include/core_cm
   1:/Users/reza.kalfane/Workspaces/Daisy/DaisyExamples/libDaisy/Drivers/CMSIS/Include/core_cm7.h **** /**************************************************************************//**
   2:/Users/reza.kalfane/Workspaces/Daisy/DaisyExamples/libDaisy/Drivers/CMSIS/Include/core_cm7.h ****  * @file     core_cm7.h
   3:/Users/reza.kalfane/Workspaces/Daisy/DaisyExamples/libDaisy/Drivers/CMSIS/Include/core_cm7.h ****  * @brief    CMSIS Cortex-M7 Core Peripheral Access Layer Header File
   4:/Users/reza.kalfane/Workspaces/Daisy/DaisyExamples/libDaisy/Drivers/CMSIS/Include/core_cm7.h ****  * @version  V5.0.1
   5:/Users/reza.kalfane/Workspaces/Daisy/DaisyExamples/libDaisy/Drivers/CMSIS/Include/core_cm7.h ****  * @date     25. November 2016
   6:/Users/reza.kalfane/Workspaces/Daisy/DaisyExamples/libDaisy/Drivers/CMSIS/Include/core_cm7.h ****  ******************************************************************************/
   7:/Users/reza.kalfane/Workspaces/Daisy/DaisyExamples/libDaisy/Drivers/CMSIS/Include/core_cm7.h **** /*
   8:/Users/reza.kalfane/Workspaces/Daisy/DaisyExamples/libDaisy/Drivers/CMSIS/Include/core_cm7.h ****  * Copyright (c) 2009-2016 ARM Limited. All rights reserved.
   9:/Users/reza.kalfane/Workspaces/Daisy/DaisyExamples/libDaisy/Drivers/CMSIS/Include/core_cm7.h ****  *
  10:/Users/reza.kalfane/Workspaces/Daisy/DaisyExamples/libDaisy/Drivers/CMSIS/Include/core_cm7.h ****  * SPDX-License-Identifier: Apache-2.0
  11:/Users/reza.kalfane/Workspaces/Daisy/DaisyExamples/libDaisy/Drivers/CMSIS/Include/core_cm7.h ****  *
  12:/Users/reza.kalfane/Workspaces/Daisy/DaisyExamples/libDaisy/Drivers/CMSIS/Include/core_cm7.h ****  * Licensed under the Apache License, Version 2.0 (the License); you may
  13:/Users/reza.kalfane/Workspaces/Daisy/DaisyExamples/libDaisy/Drivers/CMSIS/Include/core_cm7.h ****  * not use this file except in compliance with the License.
  14:/Users/reza.kalfane/Workspaces/Daisy/DaisyExamples/libDaisy/Drivers/CMSIS/Include/core_cm7.h ****  * You may obtain a copy of the License at
  15:/Users/reza.kalfane/Workspaces/Daisy/DaisyExamples/libDaisy/Drivers/CMSIS/Include/core_cm7.h ****  *
  16:/Users/reza.kalfane/Workspaces/Daisy/DaisyExamples/libDaisy/Drivers/CMSIS/Include/core_cm7.h ****  * www.apache.org/licenses/LICENSE-2.0
  17:/Users/reza.kalfane/Workspaces/Daisy/DaisyExamples/libDaisy/Drivers/CMSIS/Include/core_cm7.h ****  *
ARM GAS  /tmp/claude-502/ccFotbfS.s 			page 63


  18:/Users/reza.kalfane/Workspaces/Daisy/DaisyExamples/libDaisy/Drivers/CMSIS/Include/core_cm7.h ****  * Unless required by applicable law or agreed to in writing, software
  19:/Users/reza.kalfane/Workspaces/Daisy/DaisyExamples/libDaisy/Drivers/CMSIS/Include/core_cm7.h ****  * distributed under the License is distributed on an AS IS BASIS, WITHOUT
  20:/Users/reza.kalfane/Workspaces/Daisy/DaisyExamples/libDaisy/Drivers/CMSIS/Include/core_cm7.h ****  * WARRANTIES OR CONDITIONS OF ANY KIND, either express or implied.
  21:/Users/reza.kalfane/Workspaces/Daisy/DaisyExamples/libDaisy/Drivers/CMSIS/Include/core_cm7.h ****  * See the License for the specific language governing permissions and
  22:/Users/reza.kalfane/Workspaces/Daisy/DaisyExamples/libDaisy/Drivers/CMSIS/Include/core_cm7.h ****  * limitations under the License.
  23:/Users/reza.kalfane/Workspaces/Daisy/DaisyExamples/libDaisy/Drivers/CMSIS/Include/core_cm7.h ****  */
  24:/Users/reza.kalfane/Workspaces/Daisy/DaisyExamples/libDaisy/Drivers/CMSIS/Include/core_cm7.h **** 
  25:/Users/reza.kalfane/Workspaces/Daisy/DaisyExamples/libDaisy/Drivers/CMSIS/Include/core_cm7.h **** #if   defined ( __ICCARM__ )
  26:/Users/reza.kalfane/Workspaces/Daisy/DaisyExamples/libDaisy/Drivers/CMSIS/Include/core_cm7.h ****  #pragma system_include         /* treat file as system include file for MISRA check */
  27:/Users/reza.kalfane/Workspaces/Daisy/DaisyExamples/libDaisy/Drivers/CMSIS/Include/core_cm7.h **** #elif defined (__ARMCC_VERSION) && (__ARMCC_VERSION >= 6010050)
  28:/Users/reza.kalfane/Workspaces/Daisy/DaisyExamples/libDaisy/Drivers/CMSIS/Include/core_cm7.h ****   #pragma clang system_header   /* treat file as system include file */
  29:/Users/reza.kalfane/Workspaces/Daisy/DaisyExamples/libDaisy/Drivers/CMSIS/Include/core_cm7.h **** #endif
  30:/Users/reza.kalfane/Workspaces/Daisy/DaisyExamples/libDaisy/Drivers/CMSIS/Include/core_cm7.h **** 
  31:/Users/reza.kalfane/Workspaces/Daisy/DaisyExamples/libDaisy/Drivers/CMSIS/Include/core_cm7.h **** #ifndef __CORE_CM7_H_GENERIC
  32:/Users/reza.kalfane/Workspaces/Daisy/DaisyExamples/libDaisy/Drivers/CMSIS/Include/core_cm7.h **** #define __CORE_CM7_H_GENERIC
  33:/Users/reza.kalfane/Workspaces/Daisy/DaisyExamples/libDaisy/Drivers/CMSIS/Include/core_cm7.h **** 
  34:/Users/reza.kalfane/Workspaces/Daisy/DaisyExamples/libDaisy/Drivers/CMSIS/Include/core_cm7.h **** #include <stdint.h>
  35:/Users/reza.kalfane/Workspaces/Daisy/DaisyExamples/libDaisy/Drivers/CMSIS/Include/core_cm7.h **** 
  36:/Users/reza.kalfane/Workspaces/Daisy/DaisyExamples/libDaisy/Drivers/CMSIS/Include/core_cm7.h **** #ifdef __cplusplus
  37:/Users/reza.kalfane/Workspaces/Daisy/DaisyExamples/libDaisy/Drivers/CMSIS/Include/core_cm7.h ****  extern "C" {
  38:/Users/reza.kalfane/Workspaces/Daisy/DaisyExamples/libDaisy/Drivers/CMSIS/Include/core_cm7.h **** #endif
  39:/Users/reza.kalfane/Workspaces/Daisy/DaisyExamples/libDaisy/Drivers/CMSIS/Include/core_cm7.h **** 
  40:/Users/reza.kalfane/Workspaces/Daisy/DaisyExamples/libDaisy/Drivers/CMSIS/Include/core_cm7.h **** /**
  41:/Users/reza.kalfane/Workspaces/Daisy/DaisyExamples/libDaisy/Drivers/CMSIS/Include/core_cm7.h ****   \page CMSIS_MISRA_Exceptions  MISRA-C:2004 Compliance Exceptions
  42:/Users/reza.kalfane/Workspaces/Daisy/DaisyExamples/libDaisy/Drivers/CMSIS/Include/core_cm7.h ****   CMSIS violates the following MISRA-C:2004 rules:
  43:/Users/reza.kalfane/Workspaces/Daisy/DaisyExamples/libDaisy/Drivers/CMSIS/Include/core_cm7.h **** 
  44:/Users/reza.kalfane/Workspaces/Daisy/DaisyExamples/libDaisy/Drivers/CMSIS/Include/core_cm7.h ****    \li Required Rule 8.5, object/function definition in header file.<br>
  45:/Users/reza.kalfane/Workspaces/Daisy/DaisyExamples/libDaisy/Drivers/CMSIS/Include/core_cm7.h ****      Function definitions in header files are used to allow 'inlining'.
  46:/Users/reza.kalfane/Workspaces/Daisy/DaisyExamples/libDaisy/Drivers/CMSIS/Include/core_cm7.h **** 
  47:/Users/reza.kalfane/Workspaces/Daisy/DaisyExamples/libDaisy/Drivers/CMSIS/Include/core_cm7.h ****    \li Required Rule 18.4, declaration of union type or object of union type: '{...}'.<br>
  48:/Users/reza.kalfane/Workspaces/Daisy/DaisyExamples/libDaisy/Drivers/CMSIS/Include/core_cm7.h ****      Unions are used for effective representation of core registers.
  49:/Users/reza.kalfane/Workspaces/Daisy/DaisyExamples/libDaisy/Drivers/CMSIS/Include/core_cm7.h **** 
  50:/Users/reza.kalfane/Workspaces/Daisy/DaisyExamples/libDaisy/Drivers/CMSIS/Include/core_cm7.h ****    \li Advisory Rule 19.7, Function-like macro defined.<br>
  51:/Users/reza.kalfane/Workspaces/Daisy/DaisyExamples/libDaisy/Drivers/CMSIS/Include/core_cm7.h ****      Function-like macros are used to allow more efficient code.
  52:/Users/reza.kalfane/Workspaces/Daisy/DaisyExamples/libDaisy/Drivers/CMSIS/Include/core_cm7.h ****  */
  53:/Users/reza.kalfane/Workspaces/Daisy/DaisyExamples/libDaisy/Drivers/CMSIS/Include/core_cm7.h **** 
  54:/Users/reza.kalfane/Workspaces/Daisy/DaisyExamples/libDaisy/Drivers/CMSIS/Include/core_cm7.h **** 
  55:/Users/reza.kalfane/Workspaces/Daisy/DaisyExamples/libDaisy/Drivers/CMSIS/Include/core_cm7.h **** /*******************************************************************************
  56:/Users/reza.kalfane/Workspaces/Daisy/DaisyExamples/libDaisy/Drivers/CMSIS/Include/core_cm7.h ****  *                 CMSIS definitions
  57:/Users/reza.kalfane/Workspaces/Daisy/DaisyExamples/libDaisy/Drivers/CMSIS/Include/core_cm7.h ****  ******************************************************************************/
  58:/Users/reza.kalfane/Workspaces/Daisy/DaisyExamples/libDaisy/Drivers/CMSIS/Include/core_cm7.h **** /**
  59:/Users/reza.kalfane/Workspaces/Daisy/DaisyExamples/libDaisy/Drivers/CMSIS/Include/core_cm7.h ****   \ingroup Cortex_M7
  60:/Users/reza.kalfane/Workspaces/Daisy/DaisyExamples/libDaisy/Drivers/CMSIS/Include/core_cm7.h ****   @{
  61:/Users/reza.kalfane/Workspaces/Daisy/DaisyExamples/libDaisy/Drivers/CMSIS/Include/core_cm7.h ****  */
