ARM GAS  /tmp/claude-502/ccaZRenT.s 			page 1


   1              		.cpu cortex-m7
   2              		.arch armv7e-m
   3              		.fpu fpv5-d16
   4              		.eabi_attribute 28, 1
   5              		.eabi_attribute 20, 1
   6              		.eabi_attribute 21, 1
   7              		.eabi_attribute 23, 3
   8              		.eabi_attribute 24, 1
   9              		.eabi_attribute 25, 1
  10              		.eabi_attribute 26, 1
  11              		.eabi_attribute 30, 2
  12              		.eabi_attribute 34, 1
  13              		.eabi_attribute 18, 4
  14              		.file	"engine.cpp"
  15              		.text
  16              	.Ltext0:
  17              		.cfi_sections	.debug_frame
  18              		.section	.text._Z12drum_triggerR7DrumHitifffff,"ax",%progbits
  19              		.align	1
  20              		.p2align 2,,3
  21              		.global	_Z12drum_triggerR7DrumHitifffff
  22              		.syntax unified
  23              		.thumb
  24              		.thumb_func
  26              	_Z12drum_triggerR7DrumHitifffff:
  27              	.LVL0:
  28              	.LFB2582:
  29              		.file 1 "src/engine.cpp"
   1:src/engine.cpp **** #include "engine.h"
   2:src/engine.cpp **** 
   3:src/engine.cpp **** using namespace daisy;
   4:src/engine.cpp **** using namespace daisy::seed;
   5:src/engine.cpp **** 
   6:src/engine.cpp **** volatile float g_target_freq    = 65.41f;
   7:src/engine.cpp **** volatile float g_target_cutoff  = 100.0f;  // starts dark, pressure opens it
   8:src/engine.cpp **** volatile float g_target_detune  = 0.0f;     // semitones osc2 offset
   9:src/engine.cpp **** volatile float g_target_drive   = 1.0f;     // waveshaper input gain
  10:src/engine.cpp **** volatile float g_vibrato_depth  = 0.0f;     // 0–1, LFO depth
  11:src/engine.cpp **** volatile float g_bitcrush       = 0.0f;     // 0–1, amount of crush
  12:src/engine.cpp **** volatile float g_ringmod        = 0.0f;     // 0–1, ring mod wet
  13:src/engine.cpp **** volatile bool  g_finger_on      = false;
  14:src/engine.cpp **** volatile float g_amp_target     = 0.0f;
  15:src/engine.cpp **** volatile bool  g_retrig         = false;    // mono: re-articulate the note (re-attack)
  16:src/engine.cpp **** volatile float g_led3_duty      = 0.0f;     // 0–1, sigma-delta'd to LED3 in audio cb
  17:src/engine.cpp **** volatile float g_master_vol     = 1.0f;     // 0–1, master volume from FSR on A1
  18:src/engine.cpp **** volatile float g_chord_ratio2   = 1.0f;     // chord 3rd  ratio vs root (1 = unison)
  19:src/engine.cpp **** volatile float g_chord_ratio3   = 1.0f;     // chord 5th  ratio vs root (1 = unison)
  20:src/engine.cpp **** 
  21:src/engine.cpp **** // ── Audio DSP state (audio callback only) ─────────────────
  22:src/engine.cpp **** static float s_freq      = 65.41f;
  23:src/engine.cpp **** static float s_cutoff    = 100.0f;
  24:src/engine.cpp **** static float s_detune    = 0.0f;
  25:src/engine.cpp **** static float s_drive     = 1.0f;
  26:src/engine.cpp **** static float s_vibdepth  = 0.0f;
  27:src/engine.cpp **** static float s_bitcrush  = 0.0f;
  28:src/engine.cpp **** static float s_ringmod   = 0.0f;
  29:src/engine.cpp **** static float s_amp       = 0.0f;
ARM GAS  /tmp/claude-502/ccaZRenT.s 			page 2


  30:src/engine.cpp **** static float s_master_vol= 1.0f;
  31:src/engine.cpp **** 
  32:src/engine.cpp **** static float s_phase1    = 0.0f;
  33:src/engine.cpp **** static float s_phase2    = 0.0f;
  34:src/engine.cpp **** static float s_phase_sub = 0.0f;
  35:src/engine.cpp **** static float s_phase_oct = 0.0f; // octave-up oscillator (2x freq)
  36:src/engine.cpp **** static float s_phase_rm  = 0.0f; // ring mod carrier phase
  37:src/engine.cpp **** static float s_lfo_phase = 0.0f;
  38:src/engine.cpp **** // Chord voices (Voice::chords): osc1+osc2 phases for the upper two triad notes.
  39:src/engine.cpp **** // Their level (vs the root) and voicing spread are per-voice — VOICE.chord_level
  40:src/engine.cpp **** // / chord_spread (the latter applied in the control loop's ratio computation).
  41:src/engine.cpp **** static float s_phase1b   = 0.0f, s_phase2b = 0.0f; // 3rd
  42:src/engine.cpp **** static float s_phase1c   = 0.0f, s_phase2c = 0.0f; // 5th
  43:src/engine.cpp **** 
  44:src/engine.cpp **** // Moog ladder filter state
  45:src/engine.cpp **** static float s_flt[4]    = {0,0,0,0};
  46:src/engine.cpp **** 
  47:src/engine.cpp **** // White-noise generator state (xorshift32) for the per-voice noise oscillator.
  48:src/engine.cpp **** static uint32_t s_noise_rng = 0x1234567u;
  49:src/engine.cpp **** // One-pole low-pass state used to derive high-passed ("tsss") noise from white.
  50:src/engine.cpp **** static float    s_noise_lp  = 0.0f;
  51:src/engine.cpp **** // High-pass corner coefficient: higher = brighter/higher "tsss" for hi-hats.
  52:src/engine.cpp **** static constexpr float NOISE_HP_COEF = 0.8f;
  53:src/engine.cpp **** 
  54:src/engine.cpp **** // Slew rates (per sample at 48 kHz)
  55:src/engine.cpp **** // Lower value = faster response.
  56:src/engine.cpp **** // NOTE: pitch glide and the amp attack/release are now per-voice (see Voice
  57:src/engine.cpp **** // glide_ms / attack_ms / release_ms), converted to coefficients in the audio
  58:src/engine.cpp **** // callback. The constants below are the ones still shared by all voices.
  59:src/engine.cpp **** // Cutoff opening slew. The target is recomputed only at the touch-loop rate
  60:src/engine.cpp **** // (~12-16 Hz) and pressure is quantized to integer %, so a too-fast slew lets
  61:src/engine.cpp **** // each coarse step through as zipper/stair-stepping. ~35 ms interpolates across
  62:src/engine.cpp **** // those steps for a smooth filter sweep while still feeling responsive.
  63:src/engine.cpp **** static constexpr float SLEW_CUT    = 0.9994f; // filter cutoff — ~35 ms smooth
  64:src/engine.cpp **** static constexpr float SLEW_MISC   = 0.9900f; // drive/vib
  65:src/engine.cpp **** // Finger 2 — asymmetric attack/release
  66:src/engine.cpp **** static constexpr float SLEW_F2_A   = 0.9800f; // attack  (~10ms)
  67:src/engine.cpp **** static constexpr float SLEW_F2_R   = 0.9990f; // release (~200ms smooth fade)
  68:src/engine.cpp **** 
  69:src/engine.cpp **** 
  70:src/engine.cpp **** // Mono ladder using the shared global state (the monophonic melodic engine).
  71:src/engine.cpp **** static inline float moog(float in, float cutoff, float res, float sr)
  72:src/engine.cpp **** {
  73:src/engine.cpp ****     return moog_st(in, cutoff, res, sr, s_flt);
  74:src/engine.cpp **** }
  75:src/engine.cpp **** 
  76:src/engine.cpp **** DrumHit g_hits[POLY];
  77:src/engine.cpp **** 
  78:src/engine.cpp **** void drum_trigger(DrumHit& h, int vidx, float freq, float amp_tgt,
  79:src/engine.cpp ****                          float cutoff, float drive, float sr)
  80:src/engine.cpp **** {
  30              		.loc 1 80 1 view -0
  31              		.cfi_startproc
  32              		@ args = 0, pretend = 0, frame = 0
  33              		@ frame_needed = 0, uses_anonymous_args = 0
  81:src/engine.cpp ****     const Voice& V = VOICES[vidx];
  34              		.loc 1 81 5 view .LVU1
ARM GAS  /tmp/claude-502/ccaZRenT.s 			page 3


  82:src/engine.cpp ****     h.active=true; h.gate=true; h.vidx=vidx;
  83:src/engine.cpp ****     h.freq=freq; h.amp_tgt=amp_tgt; h.cutoff=cutoff; h.drive=drive;
  84:src/engine.cpp ****     h.ph1=h.ph2=h.phs=h.pho=0.0f;
  85:src/engine.cpp ****     h.amp=0.0f; h.noise_lp=0.0f;
  86:src/engine.cpp ****     // 1-pole lowpass coefficient from the (latched) cutoff: a = 1 - e^(-2π·fc/sr).
  87:src/engine.cpp ****     h.lp_state = 0.0f;
  88:src/engine.cpp ****     h.lp_coeff = clampf(1.0f - expf(-6.2831853f * cutoff / sr), 0.0f, 1.0f);
  35              		.loc 1 88 49 is_stmt 0 view .LVU2
  36 0000 DFED507A 		vldr.32	s15, .L13
  80:src/engine.cpp ****     const Voice& V = VOICES[vidx];
  37              		.loc 1 80 1 view .LVU3
  38 0004 B0EE407A 		vmov.f32	s14, s0
  82:src/engine.cpp ****     h.active=true; h.gate=true; h.vidx=vidx;
  39              		.loc 1 82 13 view .LVU4
  40 0008 40F20113 		movw	r3, #257
  82:src/engine.cpp ****     h.active=true; h.gate=true; h.vidx=vidx;
  41              		.loc 1 82 39 view .LVU5
  42 000c 4160     		str	r1, [r0, #4]
  43              		.loc 1 88 49 view .LVU6
  44 000e 61EE277A 		vmul.f32	s15, s2, s15
  83:src/engine.cpp ****     h.ph1=h.ph2=h.phs=h.pho=0.0f;
  45              		.loc 1 83 27 view .LVU7
  46 0012 C0ED030A 		vstr.32	s1, [r0, #12]
  82:src/engine.cpp ****     h.active=true; h.gate=true; h.vidx=vidx;
  47              		.loc 1 82 13 view .LVU8
  48 0016 0380     		strh	r3, [r0]	@ movhi
  83:src/engine.cpp ****     h.ph1=h.ph2=h.phs=h.pho=0.0f;
  49              		.loc 1 83 11 view .LVU9
  50 0018 80ED027A 		vstr.32	s14, [r0, #8]
  51              		.loc 1 88 36 view .LVU10
  52 001c 87EE820A 		vdiv.f32	s0, s15, s4
  53              	.LVL1:
  83:src/engine.cpp ****     h.ph1=h.ph2=h.phs=h.pho=0.0f;
  54              		.loc 1 83 45 view .LVU11
  55 0020 80ED041A 		vstr.32	s2, [r0, #16]
  83:src/engine.cpp ****     h.ph1=h.ph2=h.phs=h.pho=0.0f;
  56              		.loc 1 83 61 view .LVU12
  57 0024 C0ED051A 		vstr.32	s3, [r0, #20]
  80:src/engine.cpp ****     const Voice& V = VOICES[vidx];
  58              		.loc 1 80 1 view .LVU13
  59 0028 70B5     		push	{r4, r5, r6, lr}
  60              		.cfi_def_cfa_offset 16
  61              		.cfi_offset 4, -16
  62              		.cfi_offset 5, -12
  63              		.cfi_offset 6, -8
  64              		.cfi_offset 14, -4
  65 002a 2DED028B 		vpush.64	{d8}
  66              		.cfi_def_cfa_offset 24
  67              		.cfi_offset 80, -24
  68              		.cfi_offset 81, -20
  84:src/engine.cpp ****     h.amp=0.0f; h.noise_lp=0.0f;
  69              		.loc 1 84 28 view .LVU14
  70 002e 9FED468A 		vldr.32	s16, .L13+4
  80:src/engine.cpp ****     const Voice& V = VOICES[vidx];
  71              		.loc 1 80 1 view .LVU15
  72 0032 F0EE428A 		vmov.f32	s17, s4
  73 0036 0446     		mov	r4, r0
ARM GAS  /tmp/claude-502/ccaZRenT.s 			page 4


  74 0038 0D46     		mov	r5, r1
  75              	.LVL2:
  82:src/engine.cpp ****     h.freq=freq; h.amp_tgt=amp_tgt; h.cutoff=cutoff; h.drive=drive;
  76              		.loc 1 82 5 is_stmt 1 view .LVU16
  82:src/engine.cpp ****     h.freq=freq; h.amp_tgt=amp_tgt; h.cutoff=cutoff; h.drive=drive;
  77              		.loc 1 82 20 view .LVU17
  82:src/engine.cpp ****     h.freq=freq; h.amp_tgt=amp_tgt; h.cutoff=cutoff; h.drive=drive;
  78              		.loc 1 82 33 view .LVU18
  83:src/engine.cpp ****     h.ph1=h.ph2=h.phs=h.pho=0.0f;
  79              		.loc 1 83 5 view .LVU19
  83:src/engine.cpp ****     h.ph1=h.ph2=h.phs=h.pho=0.0f;
  80              		.loc 1 83 18 view .LVU20
  83:src/engine.cpp ****     h.ph1=h.ph2=h.phs=h.pho=0.0f;
  81              		.loc 1 83 37 view .LVU21
  83:src/engine.cpp ****     h.ph1=h.ph2=h.phs=h.pho=0.0f;
  82              		.loc 1 83 54 view .LVU22
  84:src/engine.cpp ****     h.amp=0.0f; h.noise_lp=0.0f;
  83              		.loc 1 84 5 view .LVU23
  85:src/engine.cpp ****     // 1-pole lowpass coefficient from the (latched) cutoff: a = 1 - e^(-2π·fc/sr).
  84              		.loc 1 85 5 view .LVU24
  85:src/engine.cpp ****     // 1-pole lowpass coefficient from the (latched) cutoff: a = 1 - e^(-2π·fc/sr).
  85              		.loc 1 85 17 view .LVU25
  87:src/engine.cpp ****     h.lp_coeff = clampf(1.0f - expf(-6.2831853f * cutoff / sr), 0.0f, 1.0f);
  86              		.loc 1 87 5 view .LVU26
  87              		.loc 1 88 5 view .LVU27
  84:src/engine.cpp ****     h.amp=0.0f; h.noise_lp=0.0f;
  88              		.loc 1 84 28 is_stmt 0 view .LVU28
  89 003a 80ED098A 		vstr.32	s16, [r0, #36]
  84:src/engine.cpp ****     h.amp=0.0f; h.noise_lp=0.0f;
  90              		.loc 1 84 22 view .LVU29
  91 003e 80ED088A 		vstr.32	s16, [r0, #32]
  84:src/engine.cpp ****     h.amp=0.0f; h.noise_lp=0.0f;
  92              		.loc 1 84 16 view .LVU30
  93 0042 80ED078A 		vstr.32	s16, [r0, #28]
  84:src/engine.cpp ****     h.amp=0.0f; h.noise_lp=0.0f;
  94              		.loc 1 84 10 view .LVU31
  95 0046 80ED068A 		vstr.32	s16, [r0, #24]
  85:src/engine.cpp ****     // 1-pole lowpass coefficient from the (latched) cutoff: a = 1 - e^(-2π·fc/sr).
  96              		.loc 1 85 10 view .LVU32
  97 004a 80ED0A8A 		vstr.32	s16, [r0, #40]
  85:src/engine.cpp ****     // 1-pole lowpass coefficient from the (latched) cutoff: a = 1 - e^(-2π·fc/sr).
  98              		.loc 1 85 27 view .LVU33
  99 004e 80ED0C8A 		vstr.32	s16, [r0, #48]
  87:src/engine.cpp ****     h.lp_coeff = clampf(1.0f - expf(-6.2831853f * cutoff / sr), 0.0f, 1.0f);
 100              		.loc 1 87 16 view .LVU34
 101 0052 80ED0D8A 		vstr.32	s16, [r0, #52]
 102              		.loc 1 88 36 view .LVU35
 103 0056 FFF7FEFF 		bl	expf
 104              	.LVL3:
 105              		.loc 1 88 24 view .LVU36
 106 005a F7EE007A 		vmov.f32	s15, #1.0e+0
 107 005e 37EEC00A 		vsub.f32	s0, s15, s0
 108              	.LVL4:
 109              	.LBB71:
 110              	.LBI71:
 111              		.file 2 "src/dsp.h"
   1:src/dsp.h     **** #pragma once
ARM GAS  /tmp/claude-502/ccaZRenT.s 			page 5


   2:src/dsp.h     **** // Pure DSP/math primitives — no hardware, no global state (except moog()
   3:src/dsp.h     **** // which lives in the engine). Header-only & inline for the audio hot path.
   4:src/dsp.h     **** #include <math.h>
   5:src/dsp.h     **** 
   6:src/dsp.h     **** // Oscillator shape — set per oscillator, so one voice can mix (e.g. saw root +
   7:src/dsp.h     **** // square fifth + sine sub). SQUARE and SAW are naive (not band-limited) — they
   8:src/dsp.h     **** // alias at high pitch, but on a low bass voice that just reads as rich harmonics
   9:src/dsp.h     **** // for the filter to chew.
  10:src/dsp.h     **** enum Waveform { WAVE_TRI, WAVE_SINE, WAVE_SQUARE, WAVE_SAW };
  11:src/dsp.h     **** 
  12:src/dsp.h     **** static inline float clampf(float v,float lo,float hi){
 112              		.loc 2 12 21 is_stmt 1 view .LVU37
 113              	.LBB72:
  13:src/dsp.h     ****     return v<lo?lo:v>hi?hi:v;
 114              		.loc 2 13 5 view .LVU38
 115              		.loc 2 13 16 is_stmt 0 view .LVU39
 116 0062 B4EEC80A 		vcmpe.f32	s0, s16
 117 0066 F1EE10FA 		vmrs	APSR_nzcv, FPSCR
 118 006a 5ED4     		bmi	.L6
 119              		.loc 2 13 24 view .LVU40
 120 006c B4EE670A 		vcmp.f32	s0, s15
 121 0070 F1EE10FA 		vmrs	APSR_nzcv, FPSCR
 122 0074 37FE800A 		vselgt.f32	s0, s15, s0
 123              	.LVL5:
 124              	.L2:
 125              		.loc 2 13 24 view .LVU41
 126              	.LBE72:
 127              	.LBE71:
  89:src/engine.cpp ****     h.atk_c      = ms_to_coeff(V.attack_ms,    sr);
 128              		.loc 1 89 34 view .LVU42
 129 0078 344E     		ldr	r6, .L13+8
 130 007a A823     		movs	r3, #168
  88:src/engine.cpp ****     h.atk_c      = ms_to_coeff(V.attack_ms,    sr);
 131              		.loc 1 88 16 view .LVU43
 132 007c 84ED0E0A 		vstr.32	s0, [r4, #56]
 133              		.loc 1 89 5 is_stmt 1 view .LVU44
 134              		.loc 1 89 34 is_stmt 0 view .LVU45
 135 0080 03FB0563 		mla	r3, r3, r5, r6
 136 0084 D3ED197A 		vldr.32	s15, [r3, #100]
 137              	.LVL6:
 138              	.LBB74:
 139              	.LBI74:
  14:src/dsp.h     **** }
  15:src/dsp.h     **** static inline float smoothstep_f(float x){
  16:src/dsp.h     ****     x = x<0?0:x>1?1:x; return x*x*(3.0f - 2.0f*x);
  17:src/dsp.h     **** }
  18:src/dsp.h     **** static inline float smootherstep_f(float x){
  19:src/dsp.h     ****     x = x<0?0:x>1?1:x; return x*x*x*(x*(x*6.0f - 15.0f) + 10.0f);
  20:src/dsp.h     **** }
  21:src/dsp.h     **** 
  22:src/dsp.h     **** // Fast tanh approximation (Padé)
  23:src/dsp.h     **** static inline float fast_tanh(float x)
  24:src/dsp.h     **** {
  25:src/dsp.h     ****     if(x> 3.0f)return  1.0f;
  26:src/dsp.h     ****     if(x<-3.0f)return -1.0f;
  27:src/dsp.h     ****     float x2=x*x;
  28:src/dsp.h     ****     return x*(27.0f+x2)/(27.0f+9.0f*x2);
ARM GAS  /tmp/claude-502/ccaZRenT.s 			page 6


  29:src/dsp.h     **** }
  30:src/dsp.h     **** 
  31:src/dsp.h     **** // Convert a one-pole time constant in milliseconds to a per-sample slew
  32:src/dsp.h     **** // coefficient: y += (1-coeff)*(target-y) reaches ~63% after `ms`.
  33:src/dsp.h     **** static inline float ms_to_coeff(float ms, float sr){
 140              		.loc 2 33 21 is_stmt 1 view .LVU46
 141              	.LBB75:
  34:src/dsp.h     ****     if(ms <= 0.0f) return 0.0f;            // instant
 142              		.loc 2 34 5 view .LVU47
 143 0088 F5EEC07A 		vcmpe.f32	s15, #0
 144 008c F1EE10FA 		vmrs	APSR_nzcv, FPSCR
 145 0090 4ED9     		bls	.L8
 146              	.LVL7:
 147              	.LBB76:
 148              	.LBI76:
  33:src/dsp.h     ****     if(ms <= 0.0f) return 0.0f;            // instant
 149              		.loc 2 33 21 view .LVU48
 150              	.LBB77:
  35:src/dsp.h     ****     return expf(-1.0f / (ms * 0.001f * sr));
 151              		.loc 2 35 5 view .LVU49
 152              		.loc 2 35 29 is_stmt 0 view .LVU50
 153 0092 9FED2F7A 		vldr.32	s14, .L13+12
 154              		.loc 2 35 16 view .LVU51
 155 0096 BFEE000A 		vmov.f32	s0, #-1.0e+0
 156              		.loc 2 35 29 view .LVU52
 157 009a 67EE877A 		vmul.f32	s15, s15, s14
 158              	.LVL8:
 159              		.loc 2 35 38 view .LVU53
 160 009e 67EEA87A 		vmul.f32	s15, s15, s17
 161              		.loc 2 35 16 view .LVU54
 162 00a2 80EE270A 		vdiv.f32	s0, s0, s15
 163 00a6 FFF7FEFF 		bl	expf
 164              	.LVL9:
 165              	.L3:
 166              		.loc 2 35 16 view .LVU55
 167              	.LBE77:
 168              	.LBE76:
 169              	.LBE75:
 170              	.LBE74:
  90:src/engine.cpp ****     h.rel_c      = ms_to_coeff(V.release_ms,   sr);
 171              		.loc 1 90 34 view .LVU56
 172 00aa A823     		movs	r3, #168
  89:src/engine.cpp ****     h.rel_c      = ms_to_coeff(V.release_ms,   sr);
 173              		.loc 1 89 18 view .LVU57
 174 00ac 84ED0F0A 		vstr.32	s0, [r4, #60]
 175              		.loc 1 90 5 is_stmt 1 view .LVU58
 176              		.loc 1 90 34 is_stmt 0 view .LVU59
 177 00b0 03FB0563 		mla	r3, r3, r5, r6
 178 00b4 D3ED1A7A 		vldr.32	s15, [r3, #104]
 179              	.LVL10:
 180              	.LBB79:
 181              	.LBI79:
  33:src/dsp.h     ****     if(ms <= 0.0f) return 0.0f;            // instant
 182              		.loc 2 33 21 is_stmt 1 view .LVU60
 183              	.LBB80:
  34:src/dsp.h     ****     return expf(-1.0f / (ms * 0.001f * sr));
 184              		.loc 2 34 5 view .LVU61
ARM GAS  /tmp/claude-502/ccaZRenT.s 			page 7


 185 00b8 F5EEC07A 		vcmpe.f32	s15, #0
 186 00bc F1EE10FA 		vmrs	APSR_nzcv, FPSCR
 187 00c0 3CD9     		bls	.L9
 188              	.LVL11:
 189              	.LBB81:
 190              	.LBI81:
  33:src/dsp.h     ****     if(ms <= 0.0f) return 0.0f;            // instant
 191              		.loc 2 33 21 view .LVU62
 192              	.LBB82:
 193              		.loc 2 35 5 view .LVU63
 194              		.loc 2 35 29 is_stmt 0 view .LVU64
 195 00c2 9FED237A 		vldr.32	s14, .L13+12
 196              		.loc 2 35 16 view .LVU65
 197 00c6 BFEE000A 		vmov.f32	s0, #-1.0e+0
 198              		.loc 2 35 29 view .LVU66
 199 00ca 67EE877A 		vmul.f32	s15, s15, s14
 200              	.LVL12:
 201              		.loc 2 35 38 view .LVU67
 202 00ce 67EEA87A 		vmul.f32	s15, s15, s17
 203              		.loc 2 35 16 view .LVU68
 204 00d2 80EE270A 		vdiv.f32	s0, s0, s15
 205 00d6 FFF7FEFF 		bl	expf
 206              	.LVL13:
 207              	.L4:
 208              		.loc 2 35 16 view .LVU69
 209              	.LBE82:
 210              	.LBE81:
 211              	.LBE80:
 212              	.LBE79:
  91:src/engine.cpp ****     h.penv_c     = ms_to_coeff(V.pitch_env_ms, sr);
 213              		.loc 1 91 34 view .LVU70
 214 00da A823     		movs	r3, #168
  90:src/engine.cpp ****     h.penv_c     = ms_to_coeff(V.pitch_env_ms, sr);
 215              		.loc 1 90 18 view .LVU71
 216 00dc 84ED100A 		vstr.32	s0, [r4, #64]
 217              		.loc 1 91 5 is_stmt 1 view .LVU72
 218              		.loc 1 91 34 is_stmt 0 view .LVU73
 219 00e0 03FB0563 		mla	r3, r3, r5, r6
 220 00e4 D3ED1D7A 		vldr.32	s15, [r3, #116]
 221              	.LVL14:
 222              	.LBB84:
 223              	.LBI84:
  33:src/dsp.h     ****     if(ms <= 0.0f) return 0.0f;            // instant
 224              		.loc 2 33 21 is_stmt 1 view .LVU74
 225              	.LBB85:
  34:src/dsp.h     ****     return expf(-1.0f / (ms * 0.001f * sr));
 226              		.loc 2 34 5 view .LVU75
 227 00e8 F5EEC07A 		vcmpe.f32	s15, #0
 228 00ec F1EE10FA 		vmrs	APSR_nzcv, FPSCR
 229 00f0 21D9     		bls	.L10
 230              	.LVL15:
 231              	.LBB86:
 232              	.LBI86:
  33:src/dsp.h     ****     if(ms <= 0.0f) return 0.0f;            // instant
 233              		.loc 2 33 21 view .LVU76
 234              	.LBB87:
 235              		.loc 2 35 5 view .LVU77
ARM GAS  /tmp/claude-502/ccaZRenT.s 			page 8


 236              		.loc 2 35 29 is_stmt 0 view .LVU78
 237 00f2 9FED172A 		vldr.32	s4, .L13+12
 238              		.loc 2 35 16 view .LVU79
 239 00f6 BFEE000A 		vmov.f32	s0, #-1.0e+0
 240              		.loc 2 35 29 view .LVU80
 241 00fa 67EE827A 		vmul.f32	s15, s15, s4
 242              	.LVL16:
 243              		.loc 2 35 38 view .LVU81
 244 00fe 67EEA88A 		vmul.f32	s17, s15, s17
 245              	.LVL17:
 246              		.loc 2 35 16 view .LVU82
 247 0102 80EE280A 		vdiv.f32	s0, s0, s17
 248 0106 FFF7FEFF 		bl	expf
 249              	.LVL18:
 250              	.L5:
 251              		.loc 2 35 16 view .LVU83
 252              	.LBE87:
 253              	.LBE86:
 254              	.LBE85:
 255              	.LBE84:
  92:src/engine.cpp ****     h.penv_start = exp2f(V.pitch_env_oct);
 256              		.loc 1 92 28 view .LVU84
 257 010a A821     		movs	r1, #168
  91:src/engine.cpp ****     h.penv_start = exp2f(V.pitch_env_oct);
 258              		.loc 1 91 18 view .LVU85
 259 010c 84ED110A 		vstr.32	s0, [r4, #68]
 260              		.loc 1 92 5 is_stmt 1 view .LVU86
 261              		.loc 1 92 28 is_stmt 0 view .LVU87
 262 0110 01FB0565 		mla	r5, r1, r5, r6
 263              	.LVL19:
 264              		.loc 1 92 25 view .LVU88
 265 0114 95ED1C0A 		vldr.32	s0, [r5, #112]
 266 0118 FFF7FEFF 		bl	exp2f
 267              	.LVL20:
 268              		.loc 1 92 18 view .LVU89
 269 011c 84ED120A 		vstr.32	s0, [r4, #72]
  93:src/engine.cpp ****     h.pmult      = h.penv_start;
 270              		.loc 1 93 5 is_stmt 1 view .LVU90
 271              		.loc 1 93 18 is_stmt 0 view .LVU91
 272 0120 84ED0B0A 		vstr.32	s0, [r4, #44]
  94:src/engine.cpp **** }
 273              		.loc 1 94 1 view .LVU92
 274 0124 BDEC028B 		vldm	sp!, {d8}
 275              		.cfi_remember_state
 276              		.cfi_restore 80
 277              		.cfi_restore 81
 278              		.cfi_def_cfa_offset 16
 279 0128 70BD     		pop	{r4, r5, r6, pc}
 280              	.LVL21:
 281              	.L6:
 282              		.cfi_restore_state
 283              	.LBB89:
 284              	.LBB73:
  13:src/dsp.h     **** }
 285              		.loc 2 13 16 view .LVU93
 286 012a B0EE480A 		vmov.f32	s0, s16
 287              	.LVL22:
ARM GAS  /tmp/claude-502/ccaZRenT.s 			page 9


  13:src/dsp.h     **** }
 288              		.loc 2 13 16 view .LVU94
 289 012e A3E7     		b	.L2
 290              	.LVL23:
 291              	.L8:
  13:src/dsp.h     **** }
 292              		.loc 2 13 16 view .LVU95
 293              	.LBE73:
 294              	.LBE89:
 295              	.LBB90:
 296              	.LBB78:
  34:src/dsp.h     ****     return expf(-1.0f / (ms * 0.001f * sr));
 297              		.loc 2 34 27 view .LVU96
 298 0130 9FED050A 		vldr.32	s0, .L13+4
 299 0134 B9E7     		b	.L3
 300              	.LVL24:
 301              	.L10:
  34:src/dsp.h     ****     return expf(-1.0f / (ms * 0.001f * sr));
 302              		.loc 2 34 27 view .LVU97
 303              	.LBE78:
 304              	.LBE90:
 305              	.LBB91:
 306              	.LBB88:
 307 0136 9FED040A 		vldr.32	s0, .L13+4
 308 013a E6E7     		b	.L5
 309              	.LVL25:
 310              	.L9:
  34:src/dsp.h     ****     return expf(-1.0f / (ms * 0.001f * sr));
 311              		.loc 2 34 27 view .LVU98
 312              	.LBE88:
 313              	.LBE91:
 314              	.LBB92:
 315              	.LBB83:
 316 013c 9FED020A 		vldr.32	s0, .L13+4
 317 0140 CBE7     		b	.L4
 318              	.L14:
 319 0142 00BF     		.align	2
 320              	.L13:
 321 0144 DB0FC9C0 		.word	-1060565029
 322 0148 00000000 		.word	0
 323 014c 00000000 		.word	.LANCHOR0
 324 0150 6F12833A 		.word	981668463
 325              	.LBE83:
 326              	.LBE92:
 327              		.cfi_endproc
 328              	.LFE2582:
 330              		.section	.text._Z13AudioCallbackPKPKfPPfj,"ax",%progbits
 331              		.align	1
 332              		.p2align 2,,3
 333              		.global	_Z13AudioCallbackPKPKfPPfj
 334              		.syntax unified
 335              		.thumb
 336              		.thumb_func
 338              	_Z13AudioCallbackPKPKfPPfj:
 339              	.LVL26:
 340              	.LFB2584:
  95:src/engine.cpp **** 
ARM GAS  /tmp/claude-502/ccaZRenT.s 			page 10


  96:src/engine.cpp **** static float drum_render(DrumHit& h, float sr)
  97:src/engine.cpp **** {
  98:src/engine.cpp ****     if(!h.active) return 0.0f;
  99:src/engine.cpp ****     const Voice& V = VOICES[h.vidx];
 100:src/engine.cpp ****     // Amp envelope: attack while gated, release on lift; free the slot when done.
 101:src/engine.cpp ****     float tgt = h.gate ? h.amp_tgt : 0.0f;
 102:src/engine.cpp ****     float c   = (tgt > h.amp) ? h.atk_c : h.rel_c;
 103:src/engine.cpp ****     h.amp = h.amp*c + tgt*(1.0f-c);
 104:src/engine.cpp ****     if(!h.gate && h.amp < 0.0004f){ h.active=false; return 0.0f; }
 105:src/engine.cpp ****     // Pitch envelope decays to 1.0.
 106:src/engine.cpp ****     h.pmult = 1.0f + (h.pmult - 1.0f) * h.penv_c;
 107:src/engine.cpp ****     float f = h.freq * h.pmult;
 108:src/engine.cpp ****     // Oscillators + noise
 109:src/engine.cpp ****     float mix = osc(h.ph1,V.osc1_wave)*V.osc1_level
 110:src/engine.cpp ****               + osc(h.ph2,V.osc2_wave)*V.osc2_level
 111:src/engine.cpp ****               + osc(h.phs,V.sub_wave )*V.sub_level
 112:src/engine.cpp ****               + osc(h.pho,V.oct_wave )*V.oct_level;
 113:src/engine.cpp ****     if(V.noise_level > 0.0f){
 114:src/engine.cpp ****         s_noise_rng ^= s_noise_rng<<13; s_noise_rng ^= s_noise_rng>>17; s_noise_rng ^= s_noise_rng<
 115:src/engine.cpp ****         float white  = (float)(int32_t)s_noise_rng * (1.0f/2147483648.0f);
 116:src/engine.cpp ****         h.noise_lp  += NOISE_HP_COEF * (white - h.noise_lp);
 117:src/engine.cpp ****         float bright = white - h.noise_lp;
 118:src/engine.cpp ****         mix += (white + (bright*2.0f - white)*V.noise_hp) * V.noise_level;
 119:src/engine.cpp ****     }
 120:src/engine.cpp ****     mix = fast_tanh(mix * h.drive);
 121:src/engine.cpp ****     // Per-drum 1-pole lowpass (cheap — one multiply-add — instead of the 4-pole
 122:src/engine.cpp ****     // Moog) at the drum's own cutoff: keeps Kick/Tom dark, Snare/Hat bright.
 123:src/engine.cpp ****     h.lp_state += h.lp_coeff * (mix - h.lp_state);
 124:src/engine.cpp ****     h.ph1 += f*V.osc1_ratio/sr; if(h.ph1>=1.0f)h.ph1-=1.0f;
 125:src/engine.cpp ****     h.ph2 += f*V.osc2_ratio/sr; if(h.ph2>=1.0f)h.ph2-=1.0f;
 126:src/engine.cpp ****     h.phs += f*V.sub_ratio /sr; if(h.phs>=1.0f)h.phs-=1.0f;
 127:src/engine.cpp ****     h.pho += f*V.oct_ratio /sr; if(h.pho>=1.0f)h.pho-=1.0f;
 128:src/engine.cpp ****     return fast_tanh(h.lp_state*1.3f) * h.amp;
 129:src/engine.cpp **** }
 130:src/engine.cpp **** 
 131:src/engine.cpp **** void AudioCallback(AudioHandle::InputBuffer,
 132:src/engine.cpp ****                    AudioHandle::OutputBuffer out, size_t size)
 133:src/engine.cpp **** {
 341              		.loc 1 133 1 is_stmt 1 view -0
 342              		.cfi_startproc
 343              		@ args = 0, pretend = 0, frame = 168
 344              		@ frame_needed = 0, uses_anonymous_args = 0
 134:src/engine.cpp ****     // LED3 fixed-frequency PWM (200 Hz, 240 levels). Per-sample duty smoother
 135:src/engine.cpp ****     // (~20 ms TC) interpolates between the main loop's 16 Hz updates so the
 136:src/engine.cpp ****     // brightness transitions look continuous even at low intensity.
 137:src/engine.cpp ****     static float    led3_duty_smooth = 0.0f;
 345              		.loc 1 137 5 view .LVU100
 138:src/engine.cpp ****     static uint32_t pwm_counter      = 0;
 346              		.loc 1 138 5 view .LVU101
 139:src/engine.cpp ****     static bool     led3_state       = false;
 347              		.loc 1 139 5 view .LVU102
 140:src/engine.cpp ****     constexpr uint32_t PWM_LEVELS = 240;        // 48 kHz / 240 = 200 Hz PWM
 348              		.loc 1 140 5 view .LVU103
 141:src/engine.cpp ****     constexpr float    DUTY_TC    = 0.001f;     // ~20 ms time constant per sample
 349              		.loc 1 141 5 view .LVU104
 142:src/engine.cpp ****     float           duty_target = g_led3_duty;
 350              		.loc 1 142 5 view .LVU105
ARM GAS  /tmp/claude-502/ccaZRenT.s 			page 11


 351              		.loc 1 142 35 is_stmt 0 view .LVU106
 352 0000 8E4B     		ldr	r3, .L441
 353 0002 D3ED007A 		vldr.32	s15, [r3]
 354              	.LVL27:
 143:src/engine.cpp ****     if(duty_target < 0.0f) duty_target = 0.0f; else if(duty_target > 1.0f) duty_target = 1.0f;
 355              		.loc 1 143 5 is_stmt 1 view .LVU107
 356 0006 F5EEC07A 		vcmpe.f32	s15, #0
 133:src/engine.cpp ****     // LED3 fixed-frequency PWM (200 Hz, 240 levels). Per-sample duty smoother
 357              		.loc 1 133 1 is_stmt 0 view .LVU108
 358 000a 2DE9F04F 		push	{r4, r5, r6, r7, r8, r9, r10, fp, lr}
 359              		.cfi_def_cfa_offset 36
 360              		.cfi_offset 4, -36
 361              		.cfi_offset 5, -32
 362              		.cfi_offset 6, -28
 363              		.cfi_offset 7, -24
 364              		.cfi_offset 8, -20
 365              		.cfi_offset 9, -16
 366              		.cfi_offset 10, -12
 367              		.cfi_offset 11, -8
 368              		.cfi_offset 14, -4
 369              		.loc 1 143 5 view .LVU109
 370 000e F1EE10FA 		vmrs	APSR_nzcv, FPSCR
 133:src/engine.cpp ****     // LED3 fixed-frequency PWM (200 Hz, 240 levels). Per-sample duty smoother
 371              		.loc 1 133 1 view .LVU110
 372 0012 8946     		mov	r9, r1
 373 0014 2DED108B 		vpush.64	{d8, d9, d10, d11, d12, d13, d14, d15}
 374              		.cfi_def_cfa_offset 100
 375              		.cfi_offset 80, -100
 376              		.cfi_offset 81, -96
 377              		.cfi_offset 82, -92
 378              		.cfi_offset 83, -88
 379              		.cfi_offset 84, -84
 380              		.cfi_offset 85, -80
 381              		.cfi_offset 86, -76
 382              		.cfi_offset 87, -72
 383              		.cfi_offset 88, -68
 384              		.cfi_offset 89, -64
 385              		.cfi_offset 90, -60
 386              		.cfi_offset 91, -56
 387              		.cfi_offset 92, -52
 388              		.cfi_offset 93, -48
 389              		.cfi_offset 94, -44
 390              		.cfi_offset 95, -40
 391 0018 ABB0     		sub	sp, sp, #172
 392              		.cfi_def_cfa_offset 272
 133:src/engine.cpp ****     // LED3 fixed-frequency PWM (200 Hz, 240 levels). Per-sample duty smoother
 393              		.loc 1 133 1 view .LVU111
 394 001a 0B92     		str	r2, [sp, #44]
 395              		.loc 1 143 5 view .LVU112
 396 001c 01F15486 		bmi	.L252
 397 0020 B0EE677A 		vmov.f32	s14, s15
 398              		.loc 1 143 53 is_stmt 1 discriminator 2 view .LVU113
 399 0024 F7EE007A 		vmov.f32	s15, #1.0e+0
 400              	.LVL28:
 401              		.loc 1 143 88 is_stmt 0 discriminator 2 view .LVU114
 402 0028 B4EE677A 		vcmp.f32	s14, s15
 403 002c F1EE10FA 		vmrs	APSR_nzcv, FPSCR
ARM GAS  /tmp/claude-502/ccaZRenT.s 			page 12


 404 0030 77FE877A 		vselgt.f32	s15, s15, s14
 405 0034 CDED0E7A 		vstr.32	s15, [sp, #56]
 406              	.LVL29:
 407              	.L16:
 144:src/engine.cpp **** 
 145:src/engine.cpp ****     // Snapshot targets
 146:src/engine.cpp ****     float tfreq  = g_target_freq;
 408              		.loc 1 146 5 is_stmt 1 view .LVU115
 409              		.loc 1 146 20 is_stmt 0 view .LVU116
 410 0038 814A     		ldr	r2, .L441+4
 411              	.LVL30:
 147:src/engine.cpp ****     float tcut   = g_target_cutoff;
 412              		.loc 1 147 20 view .LVU117
 413 003a 8249     		ldr	r1, .L441+8
 414              	.LVL31:
 146:src/engine.cpp ****     float tcut   = g_target_cutoff;
 415              		.loc 1 146 20 view .LVU118
 416 003c D2ED007A 		vldr.32	s15, [r2]
 148:src/engine.cpp ****     float tdet   = g_target_detune;
 417              		.loc 1 148 20 view .LVU119
 418 0040 814B     		ldr	r3, .L441+12
 149:src/engine.cpp ****     float tdrv   = g_target_drive;
 419              		.loc 1 149 20 view .LVU120
 420 0042 824A     		ldr	r2, .L441+16
 147:src/engine.cpp ****     float tdet   = g_target_detune;
 421              		.loc 1 147 20 view .LVU121
 422 0044 D1ED00FA 		vldr.32	s31, [r1]
 148:src/engine.cpp ****     float tdet   = g_target_detune;
 423              		.loc 1 148 20 view .LVU122
 424 0048 D3ED00AA 		vldr.32	s21, [r3]
 150:src/engine.cpp ****     float tvib   = g_vibrato_depth;
 425              		.loc 1 150 20 view .LVU123
 426 004c 8049     		ldr	r1, .L441+20
 149:src/engine.cpp ****     float tdrv   = g_target_drive;
 427              		.loc 1 149 20 view .LVU124
 428 004e D2ED009A 		vldr.32	s19, [r2]
 151:src/engine.cpp ****     float tbc    = g_bitcrush;
 429              		.loc 1 151 20 view .LVU125
 430 0052 804B     		ldr	r3, .L441+24
 152:src/engine.cpp ****     float trm    = g_ringmod;
 431              		.loc 1 152 20 view .LVU126
 432 0054 804A     		ldr	r2, .L441+28
 150:src/engine.cpp ****     float tvib   = g_vibrato_depth;
 433              		.loc 1 150 20 view .LVU127
 434 0056 91ED009A 		vldr.32	s18, [r1]
 151:src/engine.cpp ****     float tbc    = g_bitcrush;
 435              		.loc 1 151 20 view .LVU128
 436 005a 93ED00BA 		vldr.32	s22, [r3]
 153:src/engine.cpp ****     float tamp   = g_amp_target;
 437              		.loc 1 153 20 view .LVU129
 438 005e 7F49     		ldr	r1, .L441+32
 152:src/engine.cpp ****     float trm    = g_ringmod;
 439              		.loc 1 152 20 view .LVU130
 440 0060 D2ED00BA 		vldr.32	s23, [r2]
 154:src/engine.cpp ****     float tmvol  = g_master_vol;
 441              		.loc 1 154 20 view .LVU131
 442 0064 7E4B     		ldr	r3, .L441+36
ARM GAS  /tmp/claude-502/ccaZRenT.s 			page 13


 155:src/engine.cpp ****     float tcr2   = g_chord_ratio2;   // chord 3rd ratio (used only when VOICE.chords)
 443              		.loc 1 155 20 view .LVU132
 444 0066 7F4A     		ldr	r2, .L441+40
 153:src/engine.cpp ****     float tamp   = g_amp_target;
 445              		.loc 1 153 20 view .LVU133
 446 0068 91ED00FA 		vldr.32	s30, [r1]
 146:src/engine.cpp ****     float tcut   = g_target_cutoff;
 447              		.loc 1 146 20 view .LVU134
 448 006c CDED0C7A 		vstr.32	s15, [sp, #48]
 449              	.LVL32:
 147:src/engine.cpp ****     float tdet   = g_target_detune;
 450              		.loc 1 147 5 is_stmt 1 view .LVU135
 148:src/engine.cpp ****     float tdrv   = g_target_drive;
 451              		.loc 1 148 5 view .LVU136
 149:src/engine.cpp ****     float tvib   = g_vibrato_depth;
 452              		.loc 1 149 5 view .LVU137
 150:src/engine.cpp ****     float tbc    = g_bitcrush;
 453              		.loc 1 150 5 view .LVU138
 151:src/engine.cpp ****     float trm    = g_ringmod;
 454              		.loc 1 151 5 view .LVU139
 152:src/engine.cpp ****     float tamp   = g_amp_target;
 455              		.loc 1 152 5 view .LVU140
 153:src/engine.cpp ****     float tmvol  = g_master_vol;
 456              		.loc 1 153 5 view .LVU141
 154:src/engine.cpp ****     float tcr2   = g_chord_ratio2;   // chord 3rd ratio (used only when VOICE.chords)
 457              		.loc 1 154 5 view .LVU142
 154:src/engine.cpp ****     float tcr2   = g_chord_ratio2;   // chord 3rd ratio (used only when VOICE.chords)
 458              		.loc 1 154 20 is_stmt 0 view .LVU143
 459 0070 D3ED008A 		vldr.32	s17, [r3]
 460              	.LVL33:
 461              		.loc 1 155 5 is_stmt 1 view .LVU144
 156:src/engine.cpp ****     float tcr3   = g_chord_ratio3;   // chord 5th ratio
 462              		.loc 1 156 20 is_stmt 0 view .LVU145
 463 0074 7C4B     		ldr	r3, .L441+44
 155:src/engine.cpp ****     float tcr3   = g_chord_ratio3;   // chord 5th ratio
 464              		.loc 1 155 20 view .LVU146
 465 0076 D2ED007A 		vldr.32	s15, [r2]
 466              	.LVL34:
 157:src/engine.cpp ****     float sr     = hw.AudioSampleRate();
 467              		.loc 1 157 38 view .LVU147
 468 007a 7C48     		ldr	r0, .L441+48
 155:src/engine.cpp ****     float tcr3   = g_chord_ratio3;   // chord 5th ratio
 469              		.loc 1 155 20 view .LVU148
 470 007c CDED287A 		vstr.32	s15, [sp, #160]
 471              	.LVL35:
 156:src/engine.cpp ****     float tcr3   = g_chord_ratio3;   // chord 5th ratio
 472              		.loc 1 156 5 is_stmt 1 view .LVU149
 156:src/engine.cpp ****     float tcr3   = g_chord_ratio3;   // chord 5th ratio
 473              		.loc 1 156 20 is_stmt 0 view .LVU150
 474 0080 D3ED007A 		vldr.32	s15, [r3]
 475              	.LVL36:
 158:src/engine.cpp **** 
 159:src/engine.cpp ****     // Snapshot the active voice once per block, so a mid-block switch from the
 160:src/engine.cpp ****     // touch loop can't tear fields across the block. All VOICE.* reads below
 161:src/engine.cpp ****     // resolve against this reference. g_active_voice tracks g_voice_idx except in
 162:src/engine.cpp ****     // MultiVoice mode, where the touch loop routes it per tap to a drum.
 163:src/engine.cpp ****     int vi = g_active_voice;
ARM GAS  /tmp/claude-502/ccaZRenT.s 			page 14


 164:src/engine.cpp ****     if(vi < 0 || vi >= NUM_VOICES) vi = 0;
 165:src/engine.cpp ****     const Voice& VOICE = VOICES[vi];
 166:src/engine.cpp **** 
 167:src/engine.cpp ****     // In the Drums MultiVoice the polyphonic drum engine plays instead of the
 168:src/engine.cpp ****     // mono path (which the touch loop holds silent). Decided once per block.
 169:src/engine.cpp ****     bool poly_drums = (g_voice_idx == MULTI_IDX);
 170:src/engine.cpp **** 
 171:src/engine.cpp ****     // Per-voice envelope/glide coefficients (expf isn't constexpr). Recompute
 172:src/engine.cpp ****     // only when the active voice changes.
 173:src/engine.cpp ****     static int   s_coeff_vi = -1;
 174:src/engine.cpp ****     static float s_glide_c, s_atk_c, s_rel_c;
 175:src/engine.cpp ****     static float s_penv_c;      // pitch-env decay coefficient
 176:src/engine.cpp ****     static float s_penv_start;  // pitch multiplier at onset = 2^pitch_env_oct
 177:src/engine.cpp ****     static float s_decay_c;     // amp decay-to-sustain coefficient (0 = no decay)
 178:src/engine.cpp ****     static float s_sustain;     // level the gated amp decays to (1 = hold full)
 179:src/engine.cpp ****     if(s_coeff_vi != vi){
 476              		.loc 1 179 19 view .LVU151
 477 0084 7A4C     		ldr	r4, .L441+52
 156:src/engine.cpp ****     float sr     = hw.AudioSampleRate();
 478              		.loc 1 156 20 view .LVU152
 479 0086 CDED297A 		vstr.32	s15, [sp, #164]
 480              	.LVL37:
 157:src/engine.cpp ****     float sr     = hw.AudioSampleRate();
 481              		.loc 1 157 5 is_stmt 1 view .LVU153
 157:src/engine.cpp ****     float sr     = hw.AudioSampleRate();
 482              		.loc 1 157 38 is_stmt 0 view .LVU154
 483 008a FFF7FEFF 		bl	_ZN5daisy9DaisySeed15AudioSampleRateEv
 484              	.LVL38:
 163:src/engine.cpp ****     if(vi < 0 || vi >= NUM_VOICES) vi = 0;
 485              		.loc 1 163 14 view .LVU155
 486 008e 794B     		ldr	r3, .L441+56
 157:src/engine.cpp **** 
 487              		.loc 1 157 38 view .LVU156
 488 0090 B0EE408A 		vmov.f32	s16, s0
 489              	.LVL39:
 163:src/engine.cpp ****     if(vi < 0 || vi >= NUM_VOICES) vi = 0;
 490              		.loc 1 163 5 is_stmt 1 view .LVU157
 163:src/engine.cpp ****     if(vi < 0 || vi >= NUM_VOICES) vi = 0;
 491              		.loc 1 163 14 is_stmt 0 view .LVU158
 492 0094 D3F800B0 		ldr	fp, [r3]
 493              	.LVL40:
 164:src/engine.cpp ****     const Voice& VOICE = VOICES[vi];
 494              		.loc 1 164 5 is_stmt 1 view .LVU159
 169:src/engine.cpp **** 
 495              		.loc 1 169 36 is_stmt 0 view .LVU160
 496 0098 774B     		ldr	r3, .L441+60
 164:src/engine.cpp ****     const Voice& VOICE = VOICES[vi];
 497              		.loc 1 164 39 view .LVU161
 498 009a BBF10F0F 		cmp	fp, #15
 169:src/engine.cpp **** 
 499              		.loc 1 169 36 view .LVU162
 500 009e 1B68     		ldr	r3, [r3]
 164:src/engine.cpp ****     const Voice& VOICE = VOICES[vi];
 501              		.loc 1 164 39 view .LVU163
 502 00a0 28BF     		it	cs
 503 00a2 4FF0000B 		movcs	fp, #0
 504              	.LVL41:
ARM GAS  /tmp/claude-502/ccaZRenT.s 			page 15


 165:src/engine.cpp **** 
 505              		.loc 1 165 5 is_stmt 1 view .LVU164
 169:src/engine.cpp **** 
 506              		.loc 1 169 5 view .LVU165
 169:src/engine.cpp **** 
 507              		.loc 1 169 36 is_stmt 0 view .LVU166
 508 00a6 0D93     		str	r3, [sp, #52]
 509              	.LVL42:
 173:src/engine.cpp ****     static float s_glide_c, s_atk_c, s_rel_c;
 510              		.loc 1 173 5 is_stmt 1 view .LVU167
 174:src/engine.cpp ****     static float s_penv_c;      // pitch-env decay coefficient
 511              		.loc 1 174 5 view .LVU168
 175:src/engine.cpp ****     static float s_penv_start;  // pitch multiplier at onset = 2^pitch_env_oct
 512              		.loc 1 175 5 view .LVU169
 176:src/engine.cpp ****     static float s_decay_c;     // amp decay-to-sustain coefficient (0 = no decay)
 513              		.loc 1 176 5 view .LVU170
 177:src/engine.cpp ****     static float s_sustain;     // level the gated amp decays to (1 = hold full)
 514              		.loc 1 177 5 view .LVU171
 178:src/engine.cpp ****     if(s_coeff_vi != vi){
 515              		.loc 1 178 5 view .LVU172
 516              		.loc 1 179 5 view .LVU173
 517 00a8 2368     		ldr	r3, [r4]
 518              	.LVL43:
 519              		.loc 1 179 5 is_stmt 0 view .LVU174
 520 00aa 5B45     		cmp	r3, fp
 521 00ac 00F0AD80 		beq	.L19
 180:src/engine.cpp ****         s_glide_c    = ms_to_coeff(VOICE.glide_ms,     sr);
 522              		.loc 1 180 9 is_stmt 1 view .LVU175
 523              		.loc 1 180 42 is_stmt 0 view .LVU176
 524 00b0 724D     		ldr	r5, .L441+64
 525 00b2 A823     		movs	r3, #168
 526 00b4 03FB0B53 		mla	r3, r3, fp, r5
 527 00b8 D3ED1B7A 		vldr.32	s15, [r3, #108]
 528              	.LVL44:
 529              	.LBB391:
 530              	.LBI391:
  33:src/dsp.h     ****     if(ms <= 0.0f) return 0.0f;            // instant
 531              		.loc 2 33 21 is_stmt 1 view .LVU177
 532              	.LBB392:
  34:src/dsp.h     ****     return expf(-1.0f / (ms * 0.001f * sr));
 533              		.loc 2 34 5 view .LVU178
 534 00bc F5EEC07A 		vcmpe.f32	s15, #0
 535 00c0 F1EE10FA 		vmrs	APSR_nzcv, FPSCR
 536 00c4 41F2F885 		bls	.L253
 537              	.LVL45:
 538              	.LBB393:
 539              	.LBI393:
  33:src/dsp.h     ****     if(ms <= 0.0f) return 0.0f;            // instant
 540              		.loc 2 33 21 view .LVU179
 541              	.LBB394:
 542              		.loc 2 35 5 view .LVU180
 543              		.loc 2 35 29 is_stmt 0 view .LVU181
 544 00c8 9FED6D7A 		vldr.32	s14, .L441+68
 545              		.loc 2 35 16 view .LVU182
 546 00cc BFEE000A 		vmov.f32	s0, #-1.0e+0
 547              	.LVL46:
 548              		.loc 2 35 29 view .LVU183
ARM GAS  /tmp/claude-502/ccaZRenT.s 			page 16


 549 00d0 67EE877A 		vmul.f32	s15, s15, s14
 550              	.LVL47:
 551              		.loc 2 35 38 view .LVU184
 552 00d4 67EE887A 		vmul.f32	s15, s15, s16
 553              		.loc 2 35 16 view .LVU185
 554 00d8 80EE270A 		vdiv.f32	s0, s0, s15
 555 00dc FFF7FEFF 		bl	expf
 556              	.LVL48:
 557              	.L20:
 558              		.loc 2 35 16 view .LVU186
 559              	.LBE394:
 560              	.LBE393:
 561              	.LBE392:
 562              	.LBE391:
 181:src/engine.cpp ****         s_atk_c      = ms_to_coeff(VOICE.attack_ms,    sr);
 563              		.loc 1 181 42 view .LVU187
 564 00e0 A823     		movs	r3, #168
 565 00e2 03FB0B53 		mla	r3, r3, fp, r5
 566 00e6 D3ED197A 		vldr.32	s15, [r3, #100]
 180:src/engine.cpp ****         s_atk_c      = ms_to_coeff(VOICE.attack_ms,    sr);
 567              		.loc 1 180 22 view .LVU188
 568 00ea 664B     		ldr	r3, .L441+72
 569              	.LBB396:
 570              	.LBB397:
  34:src/dsp.h     ****     return expf(-1.0f / (ms * 0.001f * sr));
 571              		.loc 2 34 5 view .LVU189
 572 00ec F5EEC07A 		vcmpe.f32	s15, #0
 573              	.LBE397:
 574              	.LBE396:
 180:src/engine.cpp ****         s_atk_c      = ms_to_coeff(VOICE.attack_ms,    sr);
 575              		.loc 1 180 22 view .LVU190
 576 00f0 83ED000A 		vstr.32	s0, [r3]
 577              		.loc 1 181 9 is_stmt 1 view .LVU191
 578              	.LVL49:
 579              	.LBB402:
 580              	.LBI396:
  33:src/dsp.h     ****     if(ms <= 0.0f) return 0.0f;            // instant
 581              		.loc 2 33 21 view .LVU192
 582              	.LBB400:
  34:src/dsp.h     ****     return expf(-1.0f / (ms * 0.001f * sr));
 583              		.loc 2 34 5 view .LVU193
 584 00f4 F1EE10FA 		vmrs	APSR_nzcv, FPSCR
 585 00f8 41F20C86 		bls	.L254
 586              	.LVL50:
 587              	.LBB398:
 588              	.LBI398:
  33:src/dsp.h     ****     if(ms <= 0.0f) return 0.0f;            // instant
 589              		.loc 2 33 21 view .LVU194
 590              	.LBB399:
 591              		.loc 2 35 5 view .LVU195
 592              		.loc 2 35 29 is_stmt 0 view .LVU196
 593 00fc 9FED607A 		vldr.32	s14, .L441+68
 594              		.loc 2 35 16 view .LVU197
 595 0100 BFEE000A 		vmov.f32	s0, #-1.0e+0
 596              		.loc 2 35 29 view .LVU198
 597 0104 67EE877A 		vmul.f32	s15, s15, s14
 598              	.LVL51:
ARM GAS  /tmp/claude-502/ccaZRenT.s 			page 17


 599              		.loc 2 35 38 view .LVU199
 600 0108 67EE887A 		vmul.f32	s15, s15, s16
 601              		.loc 2 35 16 view .LVU200
 602 010c 80EE270A 		vdiv.f32	s0, s0, s15
 603 0110 FFF7FEFF 		bl	expf
 604              	.LVL52:
 605              	.L21:
 606              		.loc 2 35 16 view .LVU201
 607              	.LBE399:
 608              	.LBE398:
 609              	.LBE400:
 610              	.LBE402:
 182:src/engine.cpp ****         s_rel_c      = ms_to_coeff(VOICE.release_ms,   sr);
 611              		.loc 1 182 42 view .LVU202
 612 0114 A823     		movs	r3, #168
 613 0116 03FB0B53 		mla	r3, r3, fp, r5
 614 011a D3ED1A7A 		vldr.32	s15, [r3, #104]
 181:src/engine.cpp ****         s_rel_c      = ms_to_coeff(VOICE.release_ms,   sr);
 615              		.loc 1 181 22 view .LVU203
 616 011e 5A4B     		ldr	r3, .L441+76
 617              	.LBB403:
 618              	.LBB404:
  34:src/dsp.h     ****     return expf(-1.0f / (ms * 0.001f * sr));
 619              		.loc 2 34 5 view .LVU204
 620 0120 F5EEC07A 		vcmpe.f32	s15, #0
 621              	.LBE404:
 622              	.LBE403:
 181:src/engine.cpp ****         s_rel_c      = ms_to_coeff(VOICE.release_ms,   sr);
 623              		.loc 1 181 22 view .LVU205
 624 0124 83ED000A 		vstr.32	s0, [r3]
 625              		.loc 1 182 9 is_stmt 1 view .LVU206
 626              	.LVL53:
 627              	.LBB409:
 628              	.LBI403:
  33:src/dsp.h     ****     if(ms <= 0.0f) return 0.0f;            // instant
 629              		.loc 2 33 21 view .LVU207
 630              	.LBB407:
  34:src/dsp.h     ****     return expf(-1.0f / (ms * 0.001f * sr));
 631              		.loc 2 34 5 view .LVU208
 632 0128 F1EE10FA 		vmrs	APSR_nzcv, FPSCR
 633 012c 41F2EE85 		bls	.L255
 634              	.LVL54:
 635              	.LBB405:
 636              	.LBI405:
  33:src/dsp.h     ****     if(ms <= 0.0f) return 0.0f;            // instant
 637              		.loc 2 33 21 view .LVU209
 638              	.LBB406:
 639              		.loc 2 35 5 view .LVU210
 640              		.loc 2 35 29 is_stmt 0 view .LVU211
 641 0130 9FED537A 		vldr.32	s14, .L441+68
 642              		.loc 2 35 16 view .LVU212
 643 0134 BFEE000A 		vmov.f32	s0, #-1.0e+0
 644              		.loc 2 35 29 view .LVU213
 645 0138 67EE877A 		vmul.f32	s15, s15, s14
 646              	.LVL55:
 647              		.loc 2 35 38 view .LVU214
 648 013c 67EE887A 		vmul.f32	s15, s15, s16
ARM GAS  /tmp/claude-502/ccaZRenT.s 			page 18


 649              		.loc 2 35 16 view .LVU215
 650 0140 80EE270A 		vdiv.f32	s0, s0, s15
 651 0144 FFF7FEFF 		bl	expf
 652              	.LVL56:
 653              	.L22:
 654              		.loc 2 35 16 view .LVU216
 655              	.LBE406:
 656              	.LBE405:
 657              	.LBE407:
 658              	.LBE409:
 183:src/engine.cpp ****         s_penv_c     = ms_to_coeff(VOICE.pitch_env_ms, sr);
 659              		.loc 1 183 42 view .LVU217
 660 0148 A826     		movs	r6, #168
 182:src/engine.cpp ****         s_penv_c     = ms_to_coeff(VOICE.pitch_env_ms, sr);
 661              		.loc 1 182 22 view .LVU218
 662 014a 504B     		ldr	r3, .L441+80
 663              		.loc 1 183 42 view .LVU219
 664 014c 06FB0B56 		mla	r6, r6, fp, r5
 182:src/engine.cpp ****         s_penv_c     = ms_to_coeff(VOICE.pitch_env_ms, sr);
 665              		.loc 1 182 22 view .LVU220
 666 0150 83ED000A 		vstr.32	s0, [r3]
 667              		.loc 1 183 9 is_stmt 1 view .LVU221
 668              	.LBB410:
 669              	.LBB411:
  34:src/dsp.h     ****     return expf(-1.0f / (ms * 0.001f * sr));
 670              		.loc 2 34 5 is_stmt 0 view .LVU222
 671 0154 0023     		movs	r3, #0
 672              	.LBE411:
 673              	.LBE410:
 674              		.loc 1 183 42 view .LVU223
 675 0156 D6ED1D7A 		vldr.32	s15, [r6, #116]
 676              	.LVL57:
 677              	.LBB418:
 678              	.LBI410:
  33:src/dsp.h     ****     if(ms <= 0.0f) return 0.0f;            // instant
 679              		.loc 2 33 21 is_stmt 1 view .LVU224
 680              	.LBB416:
  34:src/dsp.h     ****     return expf(-1.0f / (ms * 0.001f * sr));
 681              		.loc 2 34 5 view .LVU225
 682 015a F5EEC07A 		vcmpe.f32	s15, #0
 683 015e F1EE10FA 		vmrs	APSR_nzcv, FPSCR
 684 0162 41F2CD85 		bls	.L23
 685              	.LVL58:
 686              	.LBB412:
 687              	.LBI412:
  33:src/dsp.h     ****     if(ms <= 0.0f) return 0.0f;            // instant
 688              		.loc 2 33 21 view .LVU226
 689              	.LBB413:
 690              		.loc 2 35 5 view .LVU227
 691              		.loc 2 35 29 is_stmt 0 view .LVU228
 692 0166 9FED467A 		vldr.32	s14, .L441+68
 693              		.loc 2 35 16 view .LVU229
 694 016a BFEE000A 		vmov.f32	s0, #-1.0e+0
 695              		.loc 2 35 29 view .LVU230
 696 016e 67EE877A 		vmul.f32	s15, s15, s14
 697              	.LVL59:
 698              		.loc 2 35 38 view .LVU231
ARM GAS  /tmp/claude-502/ccaZRenT.s 			page 19


 699 0172 67EE887A 		vmul.f32	s15, s15, s16
 700              		.loc 2 35 16 view .LVU232
 701 0176 80EE270A 		vdiv.f32	s0, s0, s15
 702 017a FFF7FEFF 		bl	expf
 703              	.LVL60:
 704              		.loc 2 35 16 view .LVU233
 705              	.LBE413:
 706              	.LBE412:
 707              	.LBE416:
 708              	.LBE418:
 709              		.loc 1 183 22 view .LVU234
 710 017e 444B     		ldr	r3, .L441+84
 711              	.LBB419:
 712              	.LBB417:
 713              	.LBB415:
 714              	.LBB414:
 715              		.loc 2 35 16 view .LVU235
 716 0180 F0EE407A 		vmov.f32	s15, s0
 717              	.LBE414:
 718              	.LBE415:
 719              	.LBE417:
 720              	.LBE419:
 184:src/engine.cpp ****         s_penv_start = exp2f(VOICE.pitch_env_oct);   // 1.0 when pitch_env_oct == 0
 721              		.loc 1 184 29 view .LVU236
 722 0184 96ED1C0A 		vldr.32	s0, [r6, #112]
 183:src/engine.cpp ****         s_penv_start = exp2f(VOICE.pitch_env_oct);   // 1.0 when pitch_env_oct == 0
 723              		.loc 1 183 22 view .LVU237
 724 0188 C3ED007A 		vstr.32	s15, [r3]
 725              	.L402:
 726              		.loc 1 184 9 is_stmt 1 view .LVU238
 727              		.loc 1 184 29 is_stmt 0 view .LVU239
 728 018c FFF7FEFF 		bl	exp2f
 729              	.LVL61:
 185:src/engine.cpp ****         // decay_ms == 0 → no decay: floor 1.0 so s_decay stays pinned at 1 (the
 186:src/engine.cpp ****         // gated note holds full, unchanged). decay_ms > 0 → decay toward sustain.
 187:src/engine.cpp ****         s_decay_c    = (VOICE.decay_ms > 0.0f) ? ms_to_coeff(VOICE.decay_ms, sr) : 0.0f;
 730              		.loc 1 187 31 view .LVU240
 731 0190 D6ED257A 		vldr.32	s15, [r6, #148]
 184:src/engine.cpp ****         // decay_ms == 0 → no decay: floor 1.0 so s_decay stays pinned at 1 (the
 732              		.loc 1 184 22 view .LVU241
 733 0194 3F4B     		ldr	r3, .L441+88
 734              		.loc 1 187 48 view .LVU242
 735 0196 F5EEC07A 		vcmpe.f32	s15, #0
 184:src/engine.cpp ****         // decay_ms == 0 → no decay: floor 1.0 so s_decay stays pinned at 1 (the
 736              		.loc 1 184 22 view .LVU243
 737 019a 83ED000A 		vstr.32	s0, [r3]
 738              		.loc 1 187 9 is_stmt 1 view .LVU244
 739              		.loc 1 187 48 is_stmt 0 view .LVU245
 740 019e F1EE10FA 		vmrs	APSR_nzcv, FPSCR
 741 01a2 41F3BB85 		ble	.L24
 742              	.LVL62:
 743              	.LBB420:
 744              	.LBB421:
 745              	.LBI421:
  33:src/dsp.h     ****     if(ms <= 0.0f) return 0.0f;            // instant
 746              		.loc 2 33 21 is_stmt 1 view .LVU246
 747              	.LBB422:
ARM GAS  /tmp/claude-502/ccaZRenT.s 			page 20


 748              		.loc 2 35 5 view .LVU247
 749              		.loc 2 35 29 is_stmt 0 view .LVU248
 750 01a6 9FED367A 		vldr.32	s14, .L441+68
 751              		.loc 2 35 16 view .LVU249
 752 01aa BFEE000A 		vmov.f32	s0, #-1.0e+0
 753              		.loc 2 35 29 view .LVU250
 754 01ae 67EE877A 		vmul.f32	s15, s15, s14
 755              	.LVL63:
 756              		.loc 2 35 38 view .LVU251
 757 01b2 67EE887A 		vmul.f32	s15, s15, s16
 758              		.loc 2 35 16 view .LVU252
 759 01b6 80EE270A 		vdiv.f32	s0, s0, s15
 760 01ba FFF7FEFF 		bl	expf
 761              	.LVL64:
 762              		.loc 2 35 16 view .LVU253
 763              	.LBE422:
 764              	.LBE421:
 765              	.LBE420:
 766              		.loc 1 187 22 view .LVU254
 767 01be 364B     		ldr	r3, .L441+92
 768 01c0 83ED000A 		vstr.32	s0, [r3]
 188:src/engine.cpp ****         s_sustain    = (VOICE.decay_ms > 0.0f) ? VOICE.sustain : 1.0f;
 769              		.loc 1 188 9 is_stmt 1 view .LVU255
 770              	.L26:
 771              		.loc 1 188 48 is_stmt 0 discriminator 1 view .LVU256
 772 01c4 A823     		movs	r3, #168
 773 01c6 03FB0B55 		mla	r5, r3, fp, r5
 774 01ca D5F89820 		ldr	r2, [r5, #152]	@ float
 775              	.L27:
 189:src/engine.cpp ****         s_coeff_vi   = vi;
 190:src/engine.cpp ****         // New voice: snap the continuous DSP state to this voice's targets so the
 191:src/engine.cpp ****         // previous voice's settings don't bleed in (esp. the slow-closing cutoff
 192:src/engine.cpp ****         // and the ladder filter's stored energy). Voice changes only happen while
 193:src/engine.cpp ****         // silent (FSR gesture) or at a drum-tap onset, so snapping is clean and
 194:src/engine.cpp ****         // gives each MultiVoice hit a fresh start.
 195:src/engine.cpp ****         s_freq     = tfreq;
 196:src/engine.cpp ****         s_cutoff   = tcut;
 197:src/engine.cpp ****         s_drive    = tdrv;
 198:src/engine.cpp ****         s_detune   = tdet;
 199:src/engine.cpp ****         s_bitcrush = tbc;
 200:src/engine.cpp ****         s_ringmod  = trm;
 201:src/engine.cpp ****         s_flt[0] = s_flt[1] = s_flt[2] = s_flt[3] = 0.0f;
 776              		.loc 1 201 51 discriminator 4 view .LVU257
 777 01ce 0023     		movs	r3, #0
 189:src/engine.cpp ****         s_coeff_vi   = vi;
 778              		.loc 1 189 22 discriminator 4 view .LVU258
 779 01d0 C4F800B0 		str	fp, [r4]
 780              		.loc 1 201 51 discriminator 4 view .LVU259
 781 01d4 314C     		ldr	r4, .L441+96
 195:src/engine.cpp ****         s_cutoff   = tcut;
 782              		.loc 1 195 20 discriminator 4 view .LVU260
 783 01d6 DDED0C7A 		vldr.32	s15, [sp, #48]
 784              		.loc 1 201 51 discriminator 4 view .LVU261
 785 01da E360     		str	r3, [r4, #12]	@ float
 786              		.loc 1 201 40 discriminator 4 view .LVU262
 787 01dc A360     		str	r3, [r4, #8]	@ float
 788              		.loc 1 201 29 discriminator 4 view .LVU263
ARM GAS  /tmp/claude-502/ccaZRenT.s 			page 21


 789 01de 6360     		str	r3, [r4, #4]	@ float
 790              		.loc 1 201 18 discriminator 4 view .LVU264
 791 01e0 2360     		str	r3, [r4]	@ float
 188:src/engine.cpp ****         s_sustain    = (VOICE.decay_ms > 0.0f) ? VOICE.sustain : 1.0f;
 792              		.loc 1 188 22 discriminator 4 view .LVU265
 793 01e2 2F4B     		ldr	r3, .L441+100
 794 01e4 1A60     		str	r2, [r3]	@ float
 189:src/engine.cpp ****         s_coeff_vi   = vi;
 795              		.loc 1 189 9 is_stmt 1 discriminator 4 view .LVU266
 195:src/engine.cpp ****         s_cutoff   = tcut;
 796              		.loc 1 195 9 discriminator 4 view .LVU267
 195:src/engine.cpp ****         s_cutoff   = tcut;
 797              		.loc 1 195 20 is_stmt 0 discriminator 4 view .LVU268
 798 01e6 2F4B     		ldr	r3, .L441+104
 799 01e8 C3ED007A 		vstr.32	s15, [r3]
 196:src/engine.cpp ****         s_drive    = tdrv;
 800              		.loc 1 196 9 is_stmt 1 discriminator 4 view .LVU269
 196:src/engine.cpp ****         s_drive    = tdrv;
 801              		.loc 1 196 20 is_stmt 0 discriminator 4 view .LVU270
 802 01ec 2E4B     		ldr	r3, .L441+108
 803 01ee C3ED00FA 		vstr.32	s31, [r3]
 197:src/engine.cpp ****         s_detune   = tdet;
 804              		.loc 1 197 9 is_stmt 1 discriminator 4 view .LVU271
 197:src/engine.cpp ****         s_detune   = tdet;
 805              		.loc 1 197 20 is_stmt 0 discriminator 4 view .LVU272
 806 01f2 2E4B     		ldr	r3, .L441+112
 807 01f4 C3ED009A 		vstr.32	s19, [r3]
 198:src/engine.cpp ****         s_bitcrush = tbc;
 808              		.loc 1 198 9 is_stmt 1 discriminator 4 view .LVU273
 198:src/engine.cpp ****         s_bitcrush = tbc;
 809              		.loc 1 198 20 is_stmt 0 discriminator 4 view .LVU274
 810 01f8 2D4B     		ldr	r3, .L441+116
 811 01fa C3ED00AA 		vstr.32	s21, [r3]
 199:src/engine.cpp ****         s_ringmod  = trm;
 812              		.loc 1 199 9 is_stmt 1 discriminator 4 view .LVU275
 199:src/engine.cpp ****         s_ringmod  = trm;
 813              		.loc 1 199 20 is_stmt 0 discriminator 4 view .LVU276
 814 01fe 2D4B     		ldr	r3, .L441+120
 815 0200 83ED00BA 		vstr.32	s22, [r3]
 200:src/engine.cpp ****         s_flt[0] = s_flt[1] = s_flt[2] = s_flt[3] = 0.0f;
 816              		.loc 1 200 9 is_stmt 1 discriminator 4 view .LVU277
 200:src/engine.cpp ****         s_flt[0] = s_flt[1] = s_flt[2] = s_flt[3] = 0.0f;
 817              		.loc 1 200 20 is_stmt 0 discriminator 4 view .LVU278
 818 0204 2C4B     		ldr	r3, .L441+124
 819 0206 C3ED00BA 		vstr.32	s23, [r3]
 820              		.loc 1 201 9 is_stmt 1 discriminator 4 view .LVU279
 821              	.L19:
 202:src/engine.cpp ****     }
 203:src/engine.cpp **** 
 204:src/engine.cpp ****     // Pitch-envelope trigger: on a note onset (amp target rising from silence),
 205:src/engine.cpp ****     // jump the pitch multiplier up; it decays back to 1.0 over pitch_env_ms.
 206:src/engine.cpp ****     static float s_pmult     = 1.0f;
 822              		.loc 1 206 5 view .LVU280
 207:src/engine.cpp ****     static float s_prev_tamp = 0.0f;
 823              		.loc 1 207 5 view .LVU281
 208:src/engine.cpp ****     static float s_decay     = 1.0f;   // amp decay-to-sustain level (1 = peak)
 824              		.loc 1 208 5 view .LVU282
ARM GAS  /tmp/claude-502/ccaZRenT.s 			page 22


 209:src/engine.cpp ****     bool onset = (tamp > 0.001f && s_prev_tamp <= 0.001f);
 825              		.loc 1 209 5 view .LVU283
 826              		.loc 1 209 33 is_stmt 0 view .LVU284
 827 020a DFED1D7A 		vldr.32	s15, .L441+68
 828              		.loc 1 209 48 view .LVU285
 829 020e 2B4B     		ldr	r3, .L441+128
 830              		.loc 1 209 33 view .LVU286
 831 0210 B4EEE7FA 		vcmpe.f32	s30, s15
 832 0214 F1EE10FA 		vmrs	APSR_nzcv, FPSCR
 833 0218 54DD     		ble	.L29
 834              		.loc 1 209 33 discriminator 1 view .LVU287
 835 021a 93ED007A 		vldr.32	s14, [r3]
 836 021e B4EEE77A 		vcmpe.f32	s14, s15
 837 0222 F1EE10FA 		vmrs	APSR_nzcv, FPSCR
 838 0226 4DD8     		bhi	.L29
 839              	.LVL65:
 210:src/engine.cpp ****     // Mono re-articulation: a re-attack while the note is held restarts the amp
 211:src/engine.cpp ****     // envelope from zero and retriggers the pitch envelope (poly drums handle
 212:src/engine.cpp ****     // their own retrigger via drum_trigger, so ignore it here).
 213:src/engine.cpp ****     if(g_retrig){ g_retrig = false; if(!poly_drums){ onset = true; s_amp = 0.0f; } }
 840              		.loc 1 213 5 is_stmt 1 view .LVU288
 841              		.loc 1 213 8 is_stmt 0 view .LVU289
 842 0228 254A     		ldr	r2, .L441+132
 843 022a 1178     		ldrb	r1, [r2]	@ zero_extendqisi2
 844              		.loc 1 213 5 view .LVU290
 845 022c 0029     		cmp	r1, #0
 846 022e 55D0     		beq	.L34
 847              		.loc 1 213 19 is_stmt 1 view .LVU291
 848              		.loc 1 213 28 is_stmt 0 view .LVU292
 849 0230 0021     		movs	r1, #0
 850 0232 1170     		strb	r1, [r2]
 851              		.loc 1 213 37 is_stmt 1 view .LVU293
 852 0234 0D9A     		ldr	r2, [sp, #52]
 853 0236 0E2A     		cmp	r2, #14
 854 0238 4CD1     		bne	.L32
 855 023a 4FE0     		b	.L34
 856              	.L442:
 857              		.align	2
 858              	.L441:
 859 023c 00000000 		.word	.LANCHOR1
 860 0240 00000000 		.word	.LANCHOR2
 861 0244 00000000 		.word	.LANCHOR3
 862 0248 00000000 		.word	.LANCHOR4
 863 024c 00000000 		.word	.LANCHOR5
 864 0250 00000000 		.word	.LANCHOR6
 865 0254 00000000 		.word	.LANCHOR7
 866 0258 00000000 		.word	.LANCHOR8
 867 025c 00000000 		.word	.LANCHOR9
 868 0260 00000000 		.word	.LANCHOR10
 869 0264 00000000 		.word	.LANCHOR11
 870 0268 00000000 		.word	.LANCHOR12
 871 026c 00000000 		.word	hw
 872 0270 00000000 		.word	.LANCHOR13
 873 0274 00000000 		.word	g_active_voice
 874 0278 00000000 		.word	g_voice_idx
 875 027c 00000000 		.word	.LANCHOR0
 876 0280 6F12833A 		.word	981668463
ARM GAS  /tmp/claude-502/ccaZRenT.s 			page 23


 877 0284 00000000 		.word	.LANCHOR14
 878 0288 00000000 		.word	.LANCHOR15
 879 028c 00000000 		.word	.LANCHOR16
 880 0290 00000000 		.word	.LANCHOR17
 881 0294 00000000 		.word	.LANCHOR18
 882 0298 00000000 		.word	.LANCHOR19
 883 029c 00000000 		.word	.LANCHOR27
 884 02a0 00000000 		.word	.LANCHOR20
 885 02a4 00000000 		.word	.LANCHOR21
 886 02a8 00000000 		.word	.LANCHOR22
 887 02ac 00000000 		.word	.LANCHOR23
 888 02b0 00000000 		.word	.LANCHOR24
 889 02b4 00000000 		.word	.LANCHOR25
 890 02b8 00000000 		.word	.LANCHOR26
 891 02bc 00000000 		.word	.LANCHOR28
 892 02c0 00000000 		.word	.LANCHOR29
 893              	.LVL66:
 894              	.L29:
 895              		.loc 1 213 5 view .LVU294
 896              		.loc 1 213 8 is_stmt 0 view .LVU295
 897 02c4 474A     		ldr	r2, .L443
 898 02c6 1178     		ldrb	r1, [r2]	@ zero_extendqisi2
 899              		.loc 1 213 5 view .LVU296
 900 02c8 81B1     		cbz	r1, .L33
 901              		.loc 1 213 19 is_stmt 1 view .LVU297
 902              		.loc 1 213 28 is_stmt 0 view .LVU298
 903 02ca 0021     		movs	r1, #0
 904 02cc 1170     		strb	r1, [r2]
 905              		.loc 1 213 37 is_stmt 1 view .LVU299
 906 02ce 0D9A     		ldr	r2, [sp, #52]
 907 02d0 0E2A     		cmp	r2, #14
 908 02d2 0BD0     		beq	.L33
 909              	.LVL67:
 910              	.L32:
 911              		.loc 1 213 54 view .LVU300
 912              		.loc 1 213 68 view .LVU301
 913              		.loc 1 213 74 is_stmt 0 view .LVU302
 914 02d4 444A     		ldr	r2, .L443+4
 915 02d6 1146     		mov	r1, r2
 916 02d8 0022     		movs	r2, #0
 917 02da 0A60     		str	r2, [r1]	@ float
 214:src/engine.cpp ****     if(onset){ s_pmult = s_penv_start; s_decay = 1.0f; }  // fresh note → reset decay to peak
 918              		.loc 1 214 5 is_stmt 1 view .LVU303
 919              	.L34:
 920              	.LVL68:
 921              		.loc 1 214 16 discriminator 1 view .LVU304
 922              		.loc 1 214 24 is_stmt 0 discriminator 1 view .LVU305
 923 02dc 434A     		ldr	r2, .L443+8
 924 02de 4448     		ldr	r0, .L443+12
 925 02e0 1168     		ldr	r1, [r2]	@ float
 926              		.loc 1 214 48 discriminator 1 view .LVU306
 927 02e2 4FF07E52 		mov	r2, #1065353216
 928              		.loc 1 214 24 discriminator 1 view .LVU307
 929 02e6 0160     		str	r1, [r0]	@ float
 930              		.loc 1 214 40 is_stmt 1 discriminator 1 view .LVU308
 931              		.loc 1 214 48 is_stmt 0 discriminator 1 view .LVU309
 932 02e8 4249     		ldr	r1, .L443+16
ARM GAS  /tmp/claude-502/ccaZRenT.s 			page 24


 933 02ea 0A60     		str	r2, [r1]	@ float
 934              	.L33:
 215:src/engine.cpp ****     s_prev_tamp = tamp;
 935              		.loc 1 215 5 is_stmt 1 view .LVU310
 936              		.loc 1 215 17 is_stmt 0 view .LVU311
 937 02ec 83ED00FA 		vstr.32	s30, [r3]
 216:src/engine.cpp **** 
 217:src/engine.cpp ****     for(size_t i=0;i<size;i++)
 938              		.loc 1 217 5 is_stmt 1 view .LVU312
 939              	.LVL69:
 940              	.LBB423:
 941              		.loc 1 217 21 view .LVU313
 942 02f0 0B9B     		ldr	r3, [sp, #44]
 943 02f2 002B     		cmp	r3, #0
 944 02f4 01F04C82 		beq	.L15
 945              	.LBB424:
 218:src/engine.cpp ****     {
 219:src/engine.cpp ****         // Slew all parameters
 220:src/engine.cpp ****         s_freq    = s_freq   *s_glide_c + tfreq*(1.0f-s_glide_c);
 221:src/engine.cpp ****         // Cutoff: fast when opening (smoothed), slow when closing (with release)
 222:src/engine.cpp ****         { float sc = (tcut > s_cutoff) ? SLEW_CUT : s_rel_c;
 223:src/engine.cpp ****           s_cutoff = s_cutoff * sc + tcut * (1.0f - sc); }
 224:src/engine.cpp ****         s_drive   = s_drive   * SLEW_MISC + tdrv * (1.0f - SLEW_MISC);
 225:src/engine.cpp ****         s_vibdepth= s_vibdepth* SLEW_MISC + tvib * (1.0f - SLEW_MISC);
 226:src/engine.cpp ****         // Finger 2 params: fast attack, slow release
 227:src/engine.cpp ****         { float sa = tdet     > s_detune   ? SLEW_F2_A : SLEW_F2_R;
 228:src/engine.cpp ****           s_detune   = s_detune   * sa + tdet * (1.0f - sa); }
 229:src/engine.cpp ****         { float sa = tbc      > s_bitcrush ? SLEW_F2_A : SLEW_F2_R;
 230:src/engine.cpp ****           s_bitcrush = s_bitcrush * sa + tbc  * (1.0f - sa); }
 231:src/engine.cpp ****         { float sa = trm      > s_ringmod  ? SLEW_F2_A : SLEW_F2_R;
 232:src/engine.cpp ****           s_ringmod  = s_ringmod  * sa + trm  * (1.0f - sa); }
 233:src/engine.cpp ****         // Amp decay-to-sustain: s_decay rides 1 → sustain over decay_ms while the
 234:src/engine.cpp ****         // note is gated (stays pinned at 1 when decay_ms == 0, i.e. every other
 235:src/engine.cpp ****         // voice). It scales the gated target so the note plucks down to `sustain`.
 236:src/engine.cpp ****         s_decay = s_decay * s_decay_c + s_sustain * (1.0f - s_decay_c);
 237:src/engine.cpp ****         float eff_tamp = tamp * s_decay;
 238:src/engine.cpp ****         // Asymmetric envelope: attack while rising OR decaying-while-held (track the
 239:src/engine.cpp ****         // decay shape quickly — its rate comes from s_decay); release only once the
 240:src/engine.cpp ****         // note is actually let go (tamp → 0).
 241:src/engine.cpp ****         float slew_amp = (eff_tamp > s_amp || tamp > 0.001f) ? s_atk_c : s_rel_c;
 242:src/engine.cpp ****         s_amp = s_amp * slew_amp + eff_tamp * (1.0f - slew_amp);
 243:src/engine.cpp ****         // Master volume slew (smooths FSR jitter / 16 Hz update steps).
 244:src/engine.cpp ****         s_master_vol = s_master_vol * SLEW_MISC + tmvol * (1.0f - SLEW_MISC);
 245:src/engine.cpp ****         // Pitch envelope decays toward 1.0 (no-op when pitch_env_oct == 0).
 246:src/engine.cpp ****         s_pmult = 1.0f + (s_pmult - 1.0f) * s_penv_c;
 247:src/engine.cpp **** 
 248:src/engine.cpp ****         // Bleed filter state toward zero when silent
 249:src/engine.cpp ****         // Prevents stale filter energy from clicking on next note onset
 250:src/engine.cpp ****         if(s_amp < 0.001f) {
 251:src/engine.cpp ****             s_flt[0] *= 0.999f;
 252:src/engine.cpp ****             s_flt[1] *= 0.999f;
 253:src/engine.cpp ****             s_flt[2] *= 0.999f;
 254:src/engine.cpp ****             s_flt[3] *= 0.999f;
 255:src/engine.cpp ****         }
 256:src/engine.cpp **** 
 257:src/engine.cpp ****         // During release, close cutoff in sync with amplitude
 258:src/engine.cpp ****         // This prevents clicks from abrupt filter state changes
ARM GAS  /tmp/claude-502/ccaZRenT.s 			page 25


 259:src/engine.cpp ****         if(tamp < 0.001f && s_amp > 0.0001f) {
 260:src/engine.cpp ****             // Pull cutoff toward silence-floor proportional to amp decay
 261:src/engine.cpp ****             float close_target = 30.0f + s_amp * tcut;
 262:src/engine.cpp ****             tcut = close_target;
 263:src/engine.cpp ****         }
 264:src/engine.cpp **** 
 265:src/engine.cpp ****         // LFO for vibrato (6 Hz sine approximation via triangle)
 266:src/engine.cpp ****         s_lfo_phase += 6.0f/sr;
 946              		.loc 1 266 28 is_stmt 0 view .LVU314
 947 02f8 B1EE087A 		vmov.f32	s14, #6.0e+0
 224:src/engine.cpp ****         s_vibdepth= s_vibdepth* SLEW_MISC + tvib * (1.0f - SLEW_MISC);
 948              		.loc 1 224 50 view .LVU315
 949 02fc DFED3E7A 		vldr.32	s15, .L443+20
 950              	.LBB425:
 267:src/engine.cpp ****         if(s_lfo_phase>=1.0f)s_lfo_phase-=1.0f;
 268:src/engine.cpp ****         float lfo = tri(s_lfo_phase); // -1..1
 269:src/engine.cpp **** 
 270:src/engine.cpp ****         // Vibrato: modulate frequency by ±1 semitone * depth
 271:src/engine.cpp ****         // powf(2, semitones/12) — approx for small values: exp(x*0.0578)
 272:src/engine.cpp ****         float vib_amt = lfo * s_vibdepth * 0.05f; // max ±~0.05 semitones*depth
 273:src/engine.cpp ****         float freq_vib = s_freq * (1.0f + vib_amt) * s_pmult;  // s_pmult: pitch-env sweep
 274:src/engine.cpp **** 
 275:src/engine.cpp ****         // Osc 2 frequency. Lead: finger-2 detune around the base ratio.
 276:src/engine.cpp ****         // Bass (and any fixed-interval voice): hold osc2_ratio (e.g. a 5th).
 277:src/engine.cpp ****         // VOICE is constexpr, so only the taken branch is compiled in.
 278:src/engine.cpp ****         float freq2;
 279:src/engine.cpp ****         if(VOICE.osc2_detune) {
 951              		.loc 1 279 18 view .LVU316
 952 0300 3E4D     		ldr	r5, .L443+24
 953 0302 A823     		movs	r3, #168
 954 0304 F0EE6AEA 		vmov.f32	s29, s21
 955              	.LBE425:
 956              	.LBE424:
 217:src/engine.cpp ****     {
 957              		.loc 1 217 16 view .LVU317
 958 0308 4FF00008 		mov	r8, #0
 959              	.LBB1124:
 266:src/engine.cpp ****         if(s_lfo_phase>=1.0f)s_lfo_phase-=1.0f;
 960              		.loc 1 266 28 view .LVU318
 961 030c 87EE087A 		vdiv.f32	s14, s14, s16
 962              	.LBB427:
 963              		.loc 1 279 18 view .LVU319
 964 0310 03FB0B53 		mla	r3, r3, fp, r5
 965 0314 3A4C     		ldr	r4, .L443+28
 966 0316 93F83D20 		ldrb	r2, [r3, #61]	@ zero_extendqisi2
 967              	.LBE427:
 280:src/engine.cpp ****             float det_ratio = 1.0f + s_detune * 0.05776f; // linear approx, good for ±1 oct
 281:src/engine.cpp ****             freq2 = freq_vib * VOICE.osc2_ratio * det_ratio;
 282:src/engine.cpp ****         } else {
 283:src/engine.cpp ****             freq2 = freq_vib * VOICE.osc2_ratio;
 284:src/engine.cpp ****         }
 285:src/engine.cpp **** 
 286:src/engine.cpp ****         // Sub and octave oscillators (ratios are voice-defined).
 287:src/engine.cpp ****         float freq_sub = freq_vib * VOICE.sub_ratio;
 288:src/engine.cpp ****         float freq_oct = freq_vib * VOICE.oct_ratio;
 289:src/engine.cpp **** 
 290:src/engine.cpp ****         // Ring mod carrier. ringmod_ratio=1.0 is unison; non-integer ratios give
ARM GAS  /tmp/claude-502/ccaZRenT.s 			page 26


 291:src/engine.cpp ****         // inharmonic bell/metallic tones.
 292:src/engine.cpp ****         float freq_rm = freq_vib * VOICE.ringmod_ratio;
 293:src/engine.cpp **** 
 294:src/engine.cpp ****         // Oscillators (mix levels are voice-defined).
 295:src/engine.cpp ****         float osc1    = osc(s_phase1,   VOICE.osc1_wave) * VOICE.osc1_level;
 296:src/engine.cpp ****         float osc2    = osc(s_phase2,   VOICE.osc2_wave) * VOICE.osc2_level;
 297:src/engine.cpp ****         float sub     = osc(s_phase_sub,VOICE.sub_wave)  * VOICE.sub_level;
 298:src/engine.cpp ****         float osc_oct = osc(s_phase_oct,VOICE.oct_wave)  * VOICE.oct_level;
 968              		.loc 1 298 47 view .LVU320
 969 031a 93F83C10 		ldrb	r1, [r3, #60]	@ zero_extendqisi2
 295:src/engine.cpp ****         float osc2    = osc(s_phase2,   VOICE.osc2_wave) * VOICE.osc2_level;
 970              		.loc 1 295 47 view .LVU321
 971 031e 1F7E     		ldrb	r7, [r3, #24]	@ zero_extendqisi2
 296:src/engine.cpp ****         float sub     = osc(s_phase_sub,VOICE.sub_wave)  * VOICE.sub_level;
 972              		.loc 1 296 47 view .LVU322
 973 0320 93F82460 		ldrb	r6, [r3, #36]	@ zero_extendqisi2
 974              	.LBB428:
 279:src/engine.cpp ****             float det_ratio = 1.0f + s_detune * 0.05776f; // linear approx, good for ±1 oct
 975              		.loc 1 279 18 view .LVU323
 976 0324 1392     		str	r2, [sp, #76]
 977              	.LBE428:
 978              		.loc 1 298 47 view .LVU324
 979 0326 1791     		str	r1, [sp, #92]
 297:src/engine.cpp ****         float osc_oct = osc(s_phase_oct,VOICE.oct_wave)  * VOICE.oct_level;
 980              		.loc 1 297 47 view .LVU325
 981 0328 93F83020 		ldrb	r2, [r3, #48]	@ zero_extendqisi2
 982              	.LBB429:
 299:src/engine.cpp **** 
 300:src/engine.cpp ****         // Noise (xorshift32 → -1..1), voice-defined level. Adds breath / chiff /
 301:src/engine.cpp ****         // hiss. noise_hp blends from full white ("shhh") to high-passed ("tsss",
 302:src/engine.cpp ****         // for hi-hats). The `if` folds away when a voice sets noise_level = 0.
 303:src/engine.cpp ****         float noise = 0.0f;
 304:src/engine.cpp ****         if(VOICE.noise_level > 0.0f){
 305:src/engine.cpp ****             s_noise_rng ^= s_noise_rng << 13;
 306:src/engine.cpp ****             s_noise_rng ^= s_noise_rng >> 17;
 307:src/engine.cpp ****             s_noise_rng ^= s_noise_rng << 5;
 308:src/engine.cpp ****             float white = (float)(int32_t)s_noise_rng * (1.0f/2147483648.0f);
 309:src/engine.cpp ****             // One-pole high-pass = white minus its low-frequency content.
 310:src/engine.cpp ****             s_noise_lp += NOISE_HP_COEF * (white - s_noise_lp);
 311:src/engine.cpp ****             float bright = white - s_noise_lp;
 312:src/engine.cpp ****             // Blend white → high-passed by noise_hp (×2 to make up lost level).
 313:src/engine.cpp ****             float n = white + (bright * 2.0f - white) * VOICE.noise_hp;
 314:src/engine.cpp ****             noise = n * VOICE.noise_level;
 315:src/engine.cpp ****         }
 316:src/engine.cpp **** 
 317:src/engine.cpp ****         // Mix oscillator stack + noise
 318:src/engine.cpp ****         float mix = osc1 + osc2 + sub + osc_oct + noise;
 319:src/engine.cpp **** 
 320:src/engine.cpp ****         // Diatonic chord (Voice::chords): add the snapped triad's 3rd and 5th as
 321:src/engine.cpp ****         // extra saw+pulse voices above the root. They ride freq_vib (so they
 322:src/engine.cpp ****         // glide/vibrato with the root) scaled by the per-note ratios. Sub and
 323:src/engine.cpp ****         // noise stay on the root only — keeps the low end tight and the chord
 324:src/engine.cpp ****         // clear — and the upper notes are scaled by VOICE.chord_level for headroom.
 325:src/engine.cpp ****         // VOICE is a runtime ref (selection is live), so this is a cheap
 326:src/engine.cpp ****         // well-predicted branch — skipped each sample for single-note voices.
 327:src/engine.cpp ****         if(VOICE.chords){
 983              		.loc 1 327 18 view .LVU326
ARM GAS  /tmp/claude-502/ccaZRenT.s 			page 27


 984 032c 93F89C10 		ldrb	r1, [r3, #156]	@ zero_extendqisi2
 985 0330 1991     		str	r1, [sp, #100]
 986              	.LBE429:
 266:src/engine.cpp ****         if(s_lfo_phase>=1.0f)s_lfo_phase-=1.0f;
 987              		.loc 1 266 28 view .LVU327
 988 0332 8DED127A 		vstr.32	s14, [sp, #72]
 224:src/engine.cpp ****         s_vibdepth= s_vibdepth* SLEW_MISC + tvib * (1.0f - SLEW_MISC);
 989              		.loc 1 224 50 view .LVU328
 990 0336 29EEA77A 		vmul.f32	s14, s19, s15
 991 033a 8DED0F7A 		vstr.32	s14, [sp, #60]
 225:src/engine.cpp ****         // Finger 2 params: fast attack, slow release
 992              		.loc 1 225 50 view .LVU329
 993 033e 29EE277A 		vmul.f32	s14, s18, s15
 244:src/engine.cpp ****         // Pitch envelope decays toward 1.0 (no-op when pitch_env_oct == 0).
 994              		.loc 1 244 57 view .LVU330
 995 0342 68EEA77A 		vmul.f32	s15, s17, s15
 225:src/engine.cpp ****         // Finger 2 params: fast attack, slow release
 996              		.loc 1 225 50 view .LVU331
 997 0346 8DED107A 		vstr.32	s14, [sp, #64]
 244:src/engine.cpp ****         // Pitch envelope decays toward 1.0 (no-op when pitch_env_oct == 0).
 998              		.loc 1 244 57 view .LVU332
 999 034a CDED117A 		vstr.32	s15, [sp, #68]
 287:src/engine.cpp ****         float freq_oct = freq_vib * VOICE.oct_ratio;
 1000              		.loc 1 287 43 view .LVU333
 1001 034e D3ED0A7A 		vldr.32	s15, [r3, #40]
 1002              	.LBB581:
 1003              	.LBB582:
 1004              	.LBB583:
  36:src/dsp.h     **** }
  37:src/dsp.h     **** 
  38:src/dsp.h     **** // ── Oscillator waveforms (phase ph in [0,1) → sample in [-1,1]) ─────────
  39:src/dsp.h     **** // Triangle wave
  40:src/dsp.h     **** static inline float tri(float ph){
  41:src/dsp.h     ****     return ph<0.5f?(4.0f*ph-1.0f):(3.0f-4.0f*ph);
  42:src/dsp.h     **** }
  43:src/dsp.h     **** // Sine via parabolic approximation (no libm call) — matches sin(2π·ph).
  44:src/dsp.h     **** static inline float osc_sine(float ph){
  45:src/dsp.h     ****     constexpr float PI = 3.14159265f;
  46:src/dsp.h     ****     float x = ph*2.0f*PI - PI;                 // -π..π (angle shifted by π)
  47:src/dsp.h     ****     float y = 1.27323954f*x - 0.405284735f*x*(x<0?-x:x);
  48:src/dsp.h     ****     y = 0.225f*(y*(y<0?-y:y) - y) + y;         // one refinement pass
  49:src/dsp.h     ****     return -y;                                 // undo the π shift: sin(x+π) = -sin(x)
  50:src/dsp.h     **** }
  51:src/dsp.h     **** // Naive square / saw — alias at high pitch but sound rich on a bass voice.
  52:src/dsp.h     **** static inline float osc_square(float ph){ return ph<0.5f ? 1.0f : -1.0f; }
  53:src/dsp.h     **** static inline float osc_saw(float ph){ return 2.0f*ph - 1.0f; }
  54:src/dsp.h     **** 
  55:src/dsp.h     **** // Dispatch on a per-oscillator waveform (runtime, since the active voice can be
  56:src/dsp.h     **** // switched live). A small jump table — cheap at audio rate on the H750.
  57:src/dsp.h     **** static inline float osc(float ph, Waveform w){
  58:src/dsp.h     ****     switch(w){
  59:src/dsp.h     ****         case WAVE_SINE:   return osc_sine(ph);
  60:src/dsp.h     ****         case WAVE_SQUARE: return osc_square(ph);
  61:src/dsp.h     ****         case WAVE_SAW:    return osc_saw(ph);
  62:src/dsp.h     ****         case WAVE_TRI:
  63:src/dsp.h     ****         default:          return tri(ph);
  64:src/dsp.h     ****     }
ARM GAS  /tmp/claude-502/ccaZRenT.s 			page 28


  65:src/dsp.h     **** }
  66:src/dsp.h     **** 
  67:src/dsp.h     **** // Moog 4-pole ladder, operating on a caller-supplied state array (so multiple
  68:src/dsp.h     **** // voices can each have their own filter).
  69:src/dsp.h     **** static inline float moog_st(float in, float cutoff, float res, float sr, float st[4])
  70:src/dsp.h     **** {
  71:src/dsp.h     ****     float f = 2.0f*cutoff/sr;
  72:src/dsp.h     ****     if(f>0.98f)f=0.98f;
  73:src/dsp.h     ****     float k  = 3.8f*res;
 1005              		.loc 2 73 11 view .LVU334
 1006 0352 9FED2C7A 		vldr.32	s14, .L443+32
 1007              	.LBE583:
 1008              	.LBE582:
 1009              	.LBE581:
 287:src/engine.cpp ****         float freq_oct = freq_vib * VOICE.oct_ratio;
 1010              		.loc 1 287 43 view .LVU335
 1011 0356 CDED147A 		vstr.32	s15, [sp, #80]
 288:src/engine.cpp **** 
 1012              		.loc 1 288 43 view .LVU336
 1013 035a D3ED0D7A 		vldr.32	s15, [r3, #52]
 1014 035e CDED157A 		vstr.32	s15, [sp, #84]
 1015              	.LBB674:
 1016              	.LBB665:
 1017              	.LBB656:
 1018              		.loc 2 73 11 view .LVU337
 1019 0362 D3ED127A 		vldr.32	s15, [r3, #72]
 1020 0366 67EE677A 		vnmul.f32	s15, s14, s15
 1021 036a CDED247A 		vstr.32	s15, [sp, #144]
 1022              	.LBE656:
 1023              	.LBE665:
 1024              	.LBE674:
 292:src/engine.cpp **** 
 1025              		.loc 1 292 42 view .LVU338
 1026 036e D3ED167A 		vldr.32	s15, [r3, #88]
 1027 0372 CDED167A 		vstr.32	s15, [sp, #88]
 295:src/engine.cpp ****         float osc2    = osc(s_phase2,   VOICE.osc2_wave) * VOICE.osc2_level;
 1028              		.loc 1 295 66 view .LVU339
 1029 0376 D3ED057A 		vldr.32	s15, [r3, #20]
 1030 037a CDED057A 		vstr.32	s15, [sp, #20]
 296:src/engine.cpp ****         float sub     = osc(s_phase_sub,VOICE.sub_wave)  * VOICE.sub_level;
 1031              		.loc 1 296 66 view .LVU340
 1032 037e D3ED087A 		vldr.32	s15, [r3, #32]
 1033 0382 CDED067A 		vstr.32	s15, [sp, #24]
 297:src/engine.cpp ****         float osc_oct = osc(s_phase_oct,VOICE.oct_wave)  * VOICE.oct_level;
 1034              		.loc 1 297 66 view .LVU341
 1035 0386 D3ED0B7A 		vldr.32	s15, [r3, #44]
 1036 038a CDED257A 		vstr.32	s15, [sp, #148]
 298:src/engine.cpp **** 
 1037              		.loc 1 298 66 view .LVU342
 1038 038e D3ED0E7A 		vldr.32	s15, [r3, #56]
 1039 0392 CDED267A 		vstr.32	s15, [sp, #152]
 1040              	.LBB675:
 304:src/engine.cpp ****             s_noise_rng ^= s_noise_rng << 13;
 1041              		.loc 1 304 18 view .LVU343
 1042 0396 D3ED147A 		vldr.32	s15, [r3, #80]
 1043 039a CDED187A 		vstr.32	s15, [sp, #96]
 1044              	.LBE675:
ARM GAS  /tmp/claude-502/ccaZRenT.s 			page 29


 1045              	.LBB677:
 1046              	.LBB430:
 328:src/engine.cpp ****             float f3 = freq_vib * tcr2;   // 3rd
 329:src/engine.cpp ****             float f5 = freq_vib * tcr3;   // 5th
 330:src/engine.cpp ****             float cl = VOICE.chord_level;
 331:src/engine.cpp ****             mix += (osc(s_phase1b, VOICE.osc1_wave) * VOICE.osc1_level
 332:src/engine.cpp ****                   + osc(s_phase2b, VOICE.osc2_wave) * VOICE.osc2_level) * cl;
 333:src/engine.cpp ****             mix += (osc(s_phase1c, VOICE.osc1_wave) * VOICE.osc1_level
 334:src/engine.cpp ****                   + osc(s_phase2c, VOICE.osc2_wave) * VOICE.osc2_level) * cl;
 335:src/engine.cpp ****             s_phase1b += f3*VOICE.osc1_ratio/sr; if(s_phase1b>=1.0f)s_phase1b-=1.0f;
 1047              		.loc 1 335 35 view .LVU344
 1048 039e D3ED047A 		vldr.32	s15, [r3, #16]
 1049 03a2 194B     		ldr	r3, .L443+36
 1050 03a4 CDED047A 		vstr.32	s15, [sp, #16]
 1051 03a8 1A93     		str	r3, [sp, #104]
 1052 03aa 184B     		ldr	r3, .L443+40
 1053 03ac CDF804B0 		str	fp, [sp, #4]
 1054 03b0 9346     		mov	fp, r2
 1055              	.LVL70:
 1056              		.loc 1 335 35 view .LVU345
 1057 03b2 1B93     		str	r3, [sp, #108]
 1058 03b4 164B     		ldr	r3, .L443+44
 1059 03b6 1C93     		str	r3, [sp, #112]
 1060 03b8 164B     		ldr	r3, .L443+48
 1061 03ba 1D93     		str	r3, [sp, #116]
 1062 03bc 164B     		ldr	r3, .L443+52
 1063 03be 1E93     		str	r3, [sp, #120]
 1064 03c0 164B     		ldr	r3, .L443+56
 1065 03c2 0293     		str	r3, [sp, #8]
 1066 03c4 164B     		ldr	r3, .L443+60
 1067 03c6 1F93     		str	r3, [sp, #124]
 1068 03c8 164B     		ldr	r3, .L443+64
 1069 03ca 2093     		str	r3, [sp, #128]
 1070 03cc 164B     		ldr	r3, .L443+68
 1071 03ce 2193     		str	r3, [sp, #132]
 1072 03d0 164B     		ldr	r3, .L443+72
 1073 03d2 2293     		str	r3, [sp, #136]
 1074 03d4 044B     		ldr	r3, .L443+4
 1075 03d6 0393     		str	r3, [sp, #12]
 1076 03d8 054B     		ldr	r3, .L443+12
 1077 03da 2393     		str	r3, [sp, #140]
 1078 03dc 054B     		ldr	r3, .L443+16
 1079 03de 9A46     		mov	r10, r3
 1080 03e0 00F0E9BC 		b	.L246
 1081              	.L444:
 1082              		.align	2
 1083              	.L443:
 1084 03e4 00000000 		.word	.LANCHOR29
 1085 03e8 00000000 		.word	.LANCHOR30
 1086 03ec 00000000 		.word	.LANCHOR18
 1087 03f0 00000000 		.word	.LANCHOR31
 1088 03f4 00000000 		.word	.LANCHOR32
 1089 03f8 00D7233C 		.word	1008981760
 1090 03fc 00000000 		.word	.LANCHOR0
 1091 0400 00000000 		.word	.LANCHOR27
 1092 0404 33337340 		.word	1081291571
 1093 0408 00000000 		.word	.LANCHOR14
ARM GAS  /tmp/claude-502/ccaZRenT.s 			page 30


 1094 040c 00000000 		.word	.LANCHOR17
 1095 0410 00000000 		.word	.LANCHOR19
 1096 0414 00000000 		.word	.LANCHOR20
 1097 0418 00000000 		.word	.LANCHOR21
 1098 041c 00000000 		.word	.LANCHOR22
 1099 0420 00000000 		.word	.LANCHOR23
 1100 0424 00000000 		.word	.LANCHOR24
 1101 0428 00000000 		.word	.LANCHOR25
 1102 042c 00000000 		.word	.LANCHOR26
 1103 0430 6F12833A 		.word	981668463
 1104 0434 17B7D138 		.word	953267991
 1105              	.LVL71:
 1106              	.L429:
 1107              		.loc 1 335 35 view .LVU346
 1108              	.LBE430:
 1109              	.LBE677:
 1110              	.LBB678:
 1111              	.LBB666:
 1112              	.LBB657:
  74:src/dsp.h     ****     float fb = k*st[3];
 1113              		.loc 2 74 22 view .LVU347
 1114 0438 94ED035A 		vldr.32	s10, [r4, #12]
  75:src/dsp.h     ****     float x  = in - fb;
  76:src/dsp.h     ****     st[0]+=f*(fast_tanh(x)    -fast_tanh(st[0]));
 1115              		.loc 2 76 41 view .LVU348
 1116 043c D4ED003A 		vldr.32	s7, [r4]
  77:src/dsp.h     ****     st[1]+=f*(fast_tanh(st[0])-fast_tanh(st[1]));
 1117              		.loc 2 77 41 view .LVU349
 1118 0440 94ED014A 		vldr.32	s8, [r4, #4]
  78:src/dsp.h     ****     st[2]+=f*(fast_tanh(st[1])-fast_tanh(st[2]));
 1119              		.loc 2 78 41 view .LVU350
 1120 0444 D4ED024A 		vldr.32	s9, [r4, #8]
 1121              	.L45:
 1122              	.LBE657:
 1123              	.LBE666:
 1124              	.LBE678:
 259:src/engine.cpp ****             // Pull cutoff toward silence-floor proportional to amp decay
 1125              		.loc 1 259 9 is_stmt 1 view .LVU351
 1126              	.LBB679:
 1127 0448 5FED077A 		vldr.32	s15, .L443+76
 1128 044c B4EEE7FA 		vcmpe.f32	s30, s15
 1129 0450 F1EE10FA 		vmrs	APSR_nzcv, FPSCR
 1130 0454 0CD5     		bpl	.L46
 259:src/engine.cpp ****             // Pull cutoff toward silence-floor proportional to amp decay
 1131              		.loc 1 259 26 is_stmt 0 discriminator 1 view .LVU352
 1132 0456 5FED097A 		vldr.32	s15, .L443+80
 1133 045a B4EEE76A 		vcmpe.f32	s12, s15
 1134 045e F1EE10FA 		vmrs	APSR_nzcv, FPSCR
 1135 0462 05DD     		ble	.L46
 1136              	.LBB680:
 261:src/engine.cpp ****             tcut = close_target;
 1137              		.loc 1 261 13 is_stmt 1 view .LVU353
 261:src/engine.cpp ****             tcut = close_target;
 1138              		.loc 1 261 19 is_stmt 0 view .LVU354
 1139 0464 F3EE0E7A 		vmov.f32	s15, #3.0e+1
 1140 0468 E6EE2F7A 		vfma.f32	s15, s12, s31
 1141 046c F0EE67FA 		vmov.f32	s31, s15
ARM GAS  /tmp/claude-502/ccaZRenT.s 			page 31


 1142              	.LVL72:
 262:src/engine.cpp ****         }
 1143              		.loc 1 262 13 is_stmt 1 view .LVU355
 1144              	.L46:
 262:src/engine.cpp ****         }
 1145              		.loc 1 262 13 is_stmt 0 view .LVU356
 1146              	.LBE680:
 1147              	.LBE679:
 266:src/engine.cpp ****         if(s_lfo_phase>=1.0f)s_lfo_phase-=1.0f;
 1148              		.loc 1 266 9 is_stmt 1 view .LVU357
 266:src/engine.cpp ****         if(s_lfo_phase>=1.0f)s_lfo_phase-=1.0f;
 1149              		.loc 1 266 21 is_stmt 0 view .LVU358
 1150 0470 C44B     		ldr	r3, .L445
 1151              	.LBB681:
 1152              	.LBB682:
  41:src/dsp.h     **** }
 1153              		.loc 2 41 19 view .LVU359
 1154 0472 F1EE000A 		vmov.f32	s1, #4.0e+0
 1155              	.LBE682:
 1156              	.LBE681:
 266:src/engine.cpp ****         if(s_lfo_phase>=1.0f)s_lfo_phase-=1.0f;
 1157              		.loc 1 266 21 view .LVU360
 1158 0476 DDED127A 		vldr.32	s15, [sp, #72]
 1159 047a D3ED002A 		vldr.32	s5, [r3]
 1160              	.LVL73:
 266:src/engine.cpp ****         if(s_lfo_phase>=1.0f)s_lfo_phase-=1.0f;
 1161              		.loc 1 266 21 view .LVU361
 1162 047e 77EEA22A 		vadd.f32	s5, s15, s5
 267:src/engine.cpp ****         float lfo = tri(s_lfo_phase); // -1..1
 1163              		.loc 1 267 9 is_stmt 1 view .LVU362
 1164 0482 F7EE007A 		vmov.f32	s15, #1.0e+0
 1165 0486 F4EEE72A 		vcmpe.f32	s5, s15
 1166 048a F1EE10FA 		vmrs	APSR_nzcv, FPSCR
 267:src/engine.cpp ****         float lfo = tri(s_lfo_phase); // -1..1
 1167              		.loc 1 267 30 view .LVU363
 267:src/engine.cpp ****         float lfo = tri(s_lfo_phase); // -1..1
 1168              		.loc 1 267 41 is_stmt 0 view .LVU364
 1169 048e A4BF     		itt	ge
 1170 0490 72EEE72A 		vsubge.f32	s5, s5, s15
 1171 0494 BB4B     		ldrge	r3, .L445
 1172              	.LBB686:
 1173              	.LBB683:
  41:src/dsp.h     **** }
 1174              		.loc 2 41 19 view .LVU365
 1175 0496 F6EE007A 		vmov.f32	s15, #5.0e-1
 1176              	.LBE683:
 1177              	.LBE686:
 267:src/engine.cpp ****         float lfo = tri(s_lfo_phase); // -1..1
 1178              		.loc 1 267 41 view .LVU366
 1179 049a C3ED002A 		vstr.32	s5, [r3]
 268:src/engine.cpp **** 
 1180              		.loc 1 268 9 is_stmt 1 view .LVU367
 1181              	.LVL74:
 1182              	.LBB687:
 1183              	.LBI681:
  40:src/dsp.h     ****     return ph<0.5f?(4.0f*ph-1.0f):(3.0f-4.0f*ph);
 1184              		.loc 2 40 21 view .LVU368
ARM GAS  /tmp/claude-502/ccaZRenT.s 			page 32


 1185              	.LBB684:
  41:src/dsp.h     **** }
 1186              		.loc 2 41 5 view .LVU369
  41:src/dsp.h     **** }
 1187              		.loc 2 41 19 is_stmt 0 view .LVU370
 1188 049e F4EEE72A 		vcmpe.f32	s5, s15
 1189 04a2 F1EE10FA 		vmrs	APSR_nzcv, FPSCR
 1190 04a6 40F18D85 		bpl	.L370
  41:src/dsp.h     **** }
 1191              		.loc 2 41 19 view .LVU371
 1192 04aa FFEE007A 		vmov.f32	s15, #-1.0e+0
 1193 04ae E2EEA07A 		vfma.f32	s15, s5, s1
 1194              	.L53:
 1195              	.LVL75:
  41:src/dsp.h     **** }
 1196              		.loc 2 41 19 view .LVU372
 1197              	.LBE684:
 1198              	.LBE687:
 272:src/engine.cpp ****         float freq_vib = s_freq * (1.0f + vib_amt) * s_pmult;  // s_pmult: pitch-env sweep
 1199              		.loc 1 272 9 is_stmt 1 view .LVU373
 273:src/engine.cpp **** 
 1200              		.loc 1 273 9 view .LVU374
 273:src/engine.cpp **** 
 1201              		.loc 1 273 41 is_stmt 0 view .LVU375
 1202 04b2 F7EE002A 		vmov.f32	s5, #1.0e+0
 1203 04b6 DFEDB40A 		vldr.32	s1, .L445+4
 272:src/engine.cpp ****         float freq_vib = s_freq * (1.0f + vib_amt) * s_pmult;  // s_pmult: pitch-env sweep
 1204              		.loc 1 272 29 view .LVU376
 1205 04ba 21EE271A 		vmul.f32	s2, s2, s15
 1206              	.LVL76:
 1207              	.LBB688:
 279:src/engine.cpp ****             float det_ratio = 1.0f + s_detune * 0.05776f; // linear approx, good for ±1 oct
 1208              		.loc 1 279 9 view .LVU377
 1209 04be 139B     		ldr	r3, [sp, #76]
 1210              	.LBE688:
 273:src/engine.cpp **** 
 1211              		.loc 1 273 41 view .LVU378
 1212 04c0 F0EE627A 		vmov.f32	s15, s5
 1213              	.LVL77:
 273:src/engine.cpp **** 
 1214              		.loc 1 273 41 view .LVU379
 1215 04c4 E1EE207A 		vfma.f32	s15, s2, s1
 273:src/engine.cpp **** 
 1216              		.loc 1 273 33 view .LVU380
 1217 04c8 67EE277A 		vmul.f32	s15, s14, s15
 273:src/engine.cpp **** 
 1218              		.loc 1 273 15 view .LVU381
 1219 04cc 67EE827A 		vmul.f32	s15, s15, s4
 1220              	.LVL78:
 278:src/engine.cpp ****         if(VOICE.osc2_detune) {
 1221              		.loc 1 278 9 is_stmt 1 view .LVU382
 279:src/engine.cpp ****             float det_ratio = 1.0f + s_detune * 0.05776f; // linear approx, good for ±1 oct
 1222              		.loc 1 279 9 view .LVU383
 1223              	.LBB689:
 1224 04d0 002B     		cmp	r3, #0
 1225 04d2 00F06B85 		beq	.L54
 1226              	.LBB426:
ARM GAS  /tmp/claude-502/ccaZRenT.s 			page 33


 280:src/engine.cpp ****             freq2 = freq_vib * VOICE.osc2_ratio * det_ratio;
 1227              		.loc 1 280 13 view .LVU384
 281:src/engine.cpp ****         } else {
 1228              		.loc 1 281 38 is_stmt 0 view .LVU385
 1229 04d6 A823     		movs	r3, #168
 1230 04d8 019A     		ldr	r2, [sp, #4]
 280:src/engine.cpp ****             freq2 = freq_vib * VOICE.osc2_ratio * det_ratio;
 1231              		.loc 1 280 19 view .LVU386
 1232 04da 9FEDAC2A 		vldr.32	s4, .L445+8
 281:src/engine.cpp ****         } else {
 1233              		.loc 1 281 38 view .LVU387
 1234 04de 03FB0253 		mla	r3, r3, r2, r5
 280:src/engine.cpp ****             freq2 = freq_vib * VOICE.osc2_ratio * det_ratio;
 1235              		.loc 1 280 19 view .LVU388
 1236 04e2 E1EE822A 		vfma.f32	s5, s3, s4
 1237              	.LVL79:
 281:src/engine.cpp ****         } else {
 1238              		.loc 1 281 13 is_stmt 1 view .LVU389
 281:src/engine.cpp ****         } else {
 1239              		.loc 1 281 30 is_stmt 0 view .LVU390
 1240 04e6 93ED077A 		vldr.32	s14, [r3, #28]
 1241 04ea 27EE877A 		vmul.f32	s14, s15, s14
 281:src/engine.cpp ****         } else {
 1242              		.loc 1 281 19 view .LVU391
 1243 04ee 27EE227A 		vmul.f32	s14, s14, s5
 1244 04f2 8DED0A7A 		vstr.32	s14, [sp, #40]
 1245              	.LVL80:
 1246              	.L55:
 281:src/engine.cpp ****         } else {
 1247              		.loc 1 281 19 view .LVU392
 1248              	.LBE426:
 1249              	.LBE689:
 287:src/engine.cpp ****         float freq_oct = freq_vib * VOICE.oct_ratio;
 1250              		.loc 1 287 9 is_stmt 1 view .LVU393
 287:src/engine.cpp ****         float freq_oct = freq_vib * VOICE.oct_ratio;
 1251              		.loc 1 287 15 is_stmt 0 view .LVU394
 1252 04f6 9DED147A 		vldr.32	s14, [sp, #80]
 1253              	.LBB690:
 1254              	.LBB691:
  58:src/dsp.h     ****         case WAVE_SINE:   return osc_sine(ph);
 1255              		.loc 2 58 5 view .LVU395
 1256 04fa 022F     		cmp	r7, #2
 1257              	.LBE691:
 1258              	.LBE690:
 295:src/engine.cpp ****         float osc2    = osc(s_phase2,   VOICE.osc2_wave) * VOICE.osc2_level;
 1259              		.loc 1 295 28 view .LVU396
 1260 04fc A44B     		ldr	r3, .L445+12
 287:src/engine.cpp ****         float freq_oct = freq_vib * VOICE.oct_ratio;
 1261              		.loc 1 287 15 view .LVU397
 1262 04fe 27EE877A 		vmul.f32	s14, s15, s14
 295:src/engine.cpp ****         float osc2    = osc(s_phase2,   VOICE.osc2_wave) * VOICE.osc2_level;
 1263              		.loc 1 295 28 view .LVU398
 1264 0502 D3ED000A 		vldr.32	s1, [r3]
 287:src/engine.cpp ****         float freq_oct = freq_vib * VOICE.oct_ratio;
 1265              		.loc 1 287 15 view .LVU399
 1266 0506 8DED077A 		vstr.32	s14, [sp, #28]
 1267              	.LVL81:
ARM GAS  /tmp/claude-502/ccaZRenT.s 			page 34


 288:src/engine.cpp **** 
 1268              		.loc 1 288 9 is_stmt 1 view .LVU400
 288:src/engine.cpp **** 
 1269              		.loc 1 288 15 is_stmt 0 view .LVU401
 1270 050a 9DED157A 		vldr.32	s14, [sp, #84]
 1271              	.LVL82:
 288:src/engine.cpp **** 
 1272              		.loc 1 288 15 view .LVU402
 1273 050e 27EE877A 		vmul.f32	s14, s15, s14
 1274 0512 8DED087A 		vstr.32	s14, [sp, #32]
 1275              	.LVL83:
 292:src/engine.cpp **** 
 1276              		.loc 1 292 9 is_stmt 1 view .LVU403
 292:src/engine.cpp **** 
 1277              		.loc 1 292 15 is_stmt 0 view .LVU404
 1278 0516 9DED167A 		vldr.32	s14, [sp, #88]
 1279              	.LVL84:
 292:src/engine.cpp **** 
 1280              		.loc 1 292 15 view .LVU405
 1281 051a 27EE877A 		vmul.f32	s14, s15, s14
 1282 051e 8DED097A 		vstr.32	s14, [sp, #36]
 1283              	.LVL85:
 295:src/engine.cpp ****         float osc2    = osc(s_phase2,   VOICE.osc2_wave) * VOICE.osc2_level;
 1284              		.loc 1 295 9 is_stmt 1 view .LVU406
 1285              	.LBB721:
 1286              	.LBI690:
  57:src/dsp.h     ****     switch(w){
 1287              		.loc 2 57 21 view .LVU407
 1288              	.LBB711:
  58:src/dsp.h     ****         case WAVE_SINE:   return osc_sine(ph);
 1289              		.loc 2 58 5 view .LVU408
 1290 0522 00F06986 		beq	.L56
 1291 0526 032F     		cmp	r7, #3
 1292 0528 00F03586 		beq	.L57
 1293 052c 012F     		cmp	r7, #1
 1294 052e 00F08986 		beq	.L419
 1295              	.LVL86:
 1296              	.LBB692:
 1297              	.LBI692:
  57:src/dsp.h     ****     switch(w){
 1298              		.loc 2 57 21 view .LVU409
  57:src/dsp.h     ****     switch(w){
 1299              		.loc 2 57 21 is_stmt 0 view .LVU410
 1300              	.LBE692:
 1301              	.LBE711:
 1302              	.LBE721:
 1303              	.LBE1124:
 1304              	.LBE423:
  62:src/dsp.h     ****         default:          return tri(ph);
 1305              		.loc 2 62 9 is_stmt 1 view .LVU411
  63:src/dsp.h     ****     }
 1306              		.loc 2 63 9 view .LVU412
  63:src/dsp.h     ****     }
 1307              		.loc 2 63 27 view .LVU413
 1308              	.LBB1141:
 1309              	.LBB1125:
 1310              	.LBB722:
ARM GAS  /tmp/claude-502/ccaZRenT.s 			page 35


 1311              	.LBB712:
 1312              	.LBB697:
 1313              	.LBB693:
 1314              	.LBI693:
  40:src/dsp.h     ****     return ph<0.5f?(4.0f*ph-1.0f):(3.0f-4.0f*ph);
 1315              		.loc 2 40 21 view .LVU414
 1316              	.LBB694:
  41:src/dsp.h     **** }
 1317              		.loc 2 41 5 view .LVU415
  41:src/dsp.h     **** }
 1318              		.loc 2 41 19 is_stmt 0 view .LVU416
 1319 0532 B6EE007A 		vmov.f32	s14, #5.0e-1
 1320              	.LVL87:
  41:src/dsp.h     **** }
 1321              		.loc 2 41 19 view .LVU417
 1322 0536 F4EEC70A 		vcmpe.f32	s1, s14
 1323 053a B1EE007A 		vmov.f32	s14, #4.0e+0
 1324 053e F1EE10FA 		vmrs	APSR_nzcv, FPSCR
 1325 0542 41F10B80 		bpl	.L372
 1326 0546 FFEE002A 		vmov.f32	s5, #-1.0e+0
 1327 054a E0EE872A 		vfma.f32	s5, s1, s14
 1328              	.LBE694:
 1329              	.LBE693:
 1330              	.LBE697:
 1331              	.LBE712:
 1332              	.LBE722:
 295:src/engine.cpp ****         float osc2    = osc(s_phase2,   VOICE.osc2_wave) * VOICE.osc2_level;
 1333              		.loc 1 295 66 view .LVU418
 1334 054e 9DED057A 		vldr.32	s14, [sp, #20]
 1335 0552 62EE872A 		vmul.f32	s5, s5, s14
 1336              	.LVL88:
 1337              	.L63:
 296:src/engine.cpp ****         float sub     = osc(s_phase_sub,VOICE.sub_wave)  * VOICE.sub_level;
 1338              		.loc 1 296 9 is_stmt 1 view .LVU419
 296:src/engine.cpp ****         float sub     = osc(s_phase_sub,VOICE.sub_wave)  * VOICE.sub_level;
 1339              		.loc 1 296 28 is_stmt 0 view .LVU420
 1340 0556 8F4B     		ldr	r3, .L445+16
 1341              	.LBB723:
 1342              	.LBB724:
  58:src/dsp.h     ****         case WAVE_SINE:   return osc_sine(ph);
 1343              		.loc 2 58 5 view .LVU421
 1344 0558 022E     		cmp	r6, #2
 1345              	.LBE724:
 1346              	.LBE723:
 296:src/engine.cpp ****         float sub     = osc(s_phase_sub,VOICE.sub_wave)  * VOICE.sub_level;
 1347              		.loc 1 296 28 view .LVU422
 1348 055a 93ED001A 		vldr.32	s2, [r3]
 1349              	.LVL89:
 1350              	.LBB750:
 1351              	.LBI723:
  57:src/dsp.h     ****     switch(w){
 1352              		.loc 2 57 21 is_stmt 1 view .LVU423
 1353              	.LBB740:
  58:src/dsp.h     ****         case WAVE_SINE:   return osc_sine(ph);
 1354              		.loc 2 58 5 view .LVU424
 1355 055e 00F02A86 		beq	.L66
 1356              	.L431:
ARM GAS  /tmp/claude-502/ccaZRenT.s 			page 36


  58:src/dsp.h     ****         case WAVE_SINE:   return osc_sine(ph);
 1357              		.loc 2 58 5 is_stmt 0 view .LVU425
 1358 0562 032E     		cmp	r6, #3
 1359 0564 00F06286 		beq	.L67
 1360 0568 012E     		cmp	r6, #1
 1361 056a 00F09B86 		beq	.L420
 1362              	.LVL90:
 1363              	.LBB725:
 1364              	.LBI725:
  57:src/dsp.h     ****     switch(w){
 1365              		.loc 2 57 21 is_stmt 1 view .LVU426
  57:src/dsp.h     ****     switch(w){
 1366              		.loc 2 57 21 is_stmt 0 view .LVU427
 1367              	.LBE725:
 1368              	.LBE740:
 1369              	.LBE750:
 1370              	.LBE1125:
 1371              	.LBE1141:
  62:src/dsp.h     ****         default:          return tri(ph);
 1372              		.loc 2 62 9 is_stmt 1 view .LVU428
  63:src/dsp.h     ****     }
 1373              		.loc 2 63 9 view .LVU429
  63:src/dsp.h     ****     }
 1374              		.loc 2 63 27 view .LVU430
 1375              	.LBB1142:
 1376              	.LBB1126:
 1377              	.LBB751:
 1378              	.LBB741:
 1379              	.LBB730:
 1380              	.LBB726:
 1381              	.LBI726:
  40:src/dsp.h     ****     return ph<0.5f?(4.0f*ph-1.0f):(3.0f-4.0f*ph);
 1382              		.loc 2 40 21 view .LVU431
 1383              	.LBB727:
  41:src/dsp.h     **** }
 1384              		.loc 2 41 5 view .LVU432
  41:src/dsp.h     **** }
 1385              		.loc 2 41 19 is_stmt 0 view .LVU433
 1386 056e B6EE007A 		vmov.f32	s14, #5.0e-1
 1387 0572 B4EEC71A 		vcmpe.f32	s2, s14
 1388 0576 B1EE007A 		vmov.f32	s14, #4.0e+0
 1389 057a F1EE10FA 		vmrs	APSR_nzcv, FPSCR
 1390 057e 41F10580 		bpl	.L374
  41:src/dsp.h     **** }
 1391              		.loc 2 41 19 view .LVU434
 1392 0582 BFEE00CA 		vmov.f32	s24, #-1.0e+0
 1393 0586 A1EE07CA 		vfma.f32	s24, s2, s14
 1394              	.LBE727:
 1395              	.LBE726:
 1396              	.LBE730:
 1397              	.LBE741:
 1398              	.LBE751:
 296:src/engine.cpp ****         float sub     = osc(s_phase_sub,VOICE.sub_wave)  * VOICE.sub_level;
 1399              		.loc 1 296 66 view .LVU435
 1400 058a 9DED067A 		vldr.32	s14, [sp, #24]
 1401 058e 2CEE07CA 		vmul.f32	s24, s24, s14
 1402              	.LVL91:
ARM GAS  /tmp/claude-502/ccaZRenT.s 			page 37


 1403              	.L73:
 297:src/engine.cpp ****         float osc_oct = osc(s_phase_oct,VOICE.oct_wave)  * VOICE.oct_level;
 1404              		.loc 1 297 9 is_stmt 1 view .LVU436
 297:src/engine.cpp ****         float osc_oct = osc(s_phase_oct,VOICE.oct_wave)  * VOICE.oct_level;
 1405              		.loc 1 297 28 is_stmt 0 view .LVU437
 1406 0592 814B     		ldr	r3, .L445+20
 1407              	.LBB752:
 1408              	.LBB753:
  58:src/dsp.h     ****         case WAVE_SINE:   return osc_sine(ph);
 1409              		.loc 2 58 5 view .LVU438
 1410 0594 BBF1020F 		cmp	fp, #2
 1411              	.LBE753:
 1412              	.LBE752:
 297:src/engine.cpp ****         float osc_oct = osc(s_phase_oct,VOICE.oct_wave)  * VOICE.oct_level;
 1413              		.loc 1 297 28 view .LVU439
 1414 0598 D3ED001A 		vldr.32	s3, [r3]
 1415              	.LVL92:
 1416              	.LBB785:
 1417              	.LBI752:
  57:src/dsp.h     ****     switch(w){
 1418              		.loc 2 57 21 is_stmt 1 view .LVU440
 1419              	.LBB773:
  58:src/dsp.h     ****         case WAVE_SINE:   return osc_sine(ph);
 1420              		.loc 2 58 5 view .LVU441
 1421 059c 00F01E86 		beq	.L76
 1422              	.L432:
  58:src/dsp.h     ****         case WAVE_SINE:   return osc_sine(ph);
 1423              		.loc 2 58 5 is_stmt 0 view .LVU442
 1424 05a0 BBF1030F 		cmp	fp, #3
 1425 05a4 00F03686 		beq	.L77
 1426 05a8 BBF1010F 		cmp	fp, #1
 1427 05ac 00F0C385 		beq	.L421
 1428              	.LVL93:
 1429              	.LBB754:
 1430              	.LBI754:
  57:src/dsp.h     ****     switch(w){
 1431              		.loc 2 57 21 is_stmt 1 view .LVU443
  57:src/dsp.h     ****     switch(w){
 1432              		.loc 2 57 21 is_stmt 0 view .LVU444
 1433              	.LBE754:
 1434              	.LBE773:
 1435              	.LBE785:
 1436              	.LBE1126:
 1437              	.LBE1142:
  62:src/dsp.h     ****         default:          return tri(ph);
 1438              		.loc 2 62 9 is_stmt 1 view .LVU445
  63:src/dsp.h     ****     }
 1439              		.loc 2 63 9 view .LVU446
  63:src/dsp.h     ****     }
 1440              		.loc 2 63 27 view .LVU447
 1441              	.LBB1143:
 1442              	.LBB1127:
 1443              	.LBB786:
 1444              	.LBB774:
 1445              	.LBB759:
 1446              	.LBB755:
 1447              	.LBI755:
ARM GAS  /tmp/claude-502/ccaZRenT.s 			page 38


  40:src/dsp.h     ****     return ph<0.5f?(4.0f*ph-1.0f):(3.0f-4.0f*ph);
 1448              		.loc 2 40 21 view .LVU448
 1449              	.LBB756:
  41:src/dsp.h     **** }
 1450              		.loc 2 41 5 view .LVU449
  41:src/dsp.h     **** }
 1451              		.loc 2 41 19 is_stmt 0 view .LVU450
 1452 05b0 B6EE007A 		vmov.f32	s14, #5.0e-1
 1453 05b4 F4EEC71A 		vcmpe.f32	s3, s14
 1454 05b8 B1EE007A 		vmov.f32	s14, #4.0e+0
 1455 05bc F1EE10FA 		vmrs	APSR_nzcv, FPSCR
 1456 05c0 40F1EE87 		bpl	.L376
  41:src/dsp.h     **** }
 1457              		.loc 2 41 19 view .LVU451
 1458 05c4 FFEE00AA 		vmov.f32	s21, #-1.0e+0
 1459 05c8 E1EE87AA 		vfma.f32	s21, s3, s14
 1460              	.LBE756:
 1461              	.LBE755:
 1462              	.LBE759:
 1463              	.LBE774:
 1464              	.LBE786:
 297:src/engine.cpp ****         float osc_oct = osc(s_phase_oct,VOICE.oct_wave)  * VOICE.oct_level;
 1465              		.loc 1 297 66 view .LVU452
 1466 05cc 9DED257A 		vldr.32	s14, [sp, #148]
 1467 05d0 6AEE87AA 		vmul.f32	s21, s21, s14
 1468              	.LVL94:
 1469              	.L83:
 298:src/engine.cpp **** 
 1470              		.loc 1 298 9 is_stmt 1 view .LVU453
 298:src/engine.cpp **** 
 1471              		.loc 1 298 28 is_stmt 0 view .LVU454
 1472 05d4 714B     		ldr	r3, .L445+24
 1473 05d6 93ED002A 		vldr.32	s4, [r3]
 1474              	.LVL95:
 1475              	.LBB787:
 1476              	.LBI787:
  57:src/dsp.h     ****     switch(w){
 1477              		.loc 2 57 21 is_stmt 1 view .LVU455
 1478              	.LBB788:
  58:src/dsp.h     ****         case WAVE_SINE:   return osc_sine(ph);
 1479              		.loc 2 58 5 view .LVU456
 1480 05da 179B     		ldr	r3, [sp, #92]
 1481 05dc 022B     		cmp	r3, #2
 1482 05de 00F09C85 		beq	.L86
 1483 05e2 032B     		cmp	r3, #3
 1484 05e4 00F08D85 		beq	.L87
 1485 05e8 012B     		cmp	r3, #1
 1486 05ea 00F05A85 		beq	.L422
 1487              	.LVL96:
 1488              	.LBB789:
 1489              	.LBI789:
  57:src/dsp.h     ****     switch(w){
 1490              		.loc 2 57 21 view .LVU457
  57:src/dsp.h     ****     switch(w){
 1491              		.loc 2 57 21 is_stmt 0 view .LVU458
 1492              	.LBE789:
 1493              	.LBE788:
ARM GAS  /tmp/claude-502/ccaZRenT.s 			page 39


 1494              	.LBE787:
 1495              	.LBE1127:
 1496              	.LBE1143:
  62:src/dsp.h     ****         default:          return tri(ph);
 1497              		.loc 2 62 9 is_stmt 1 view .LVU459
  63:src/dsp.h     ****     }
 1498              		.loc 2 63 9 view .LVU460
  63:src/dsp.h     ****     }
 1499              		.loc 2 63 27 view .LVU461
 1500              	.LBB1144:
 1501              	.LBB1128:
 1502              	.LBB824:
 1503              	.LBB814:
 1504              	.LBB798:
 1505              	.LBB790:
 1506              	.LBI790:
  40:src/dsp.h     ****     return ph<0.5f?(4.0f*ph-1.0f):(3.0f-4.0f*ph);
 1507              		.loc 2 40 21 view .LVU462
 1508              	.LBB791:
  41:src/dsp.h     **** }
 1509              		.loc 2 41 5 view .LVU463
  41:src/dsp.h     **** }
 1510              		.loc 2 41 19 is_stmt 0 view .LVU464
 1511 05ee B6EE007A 		vmov.f32	s14, #5.0e-1
 1512 05f2 B1EE000A 		vmov.f32	s0, #4.0e+0
 1513 05f6 B4EEC72A 		vcmpe.f32	s4, s14
 1514 05fa F1EE10FA 		vmrs	APSR_nzcv, FPSCR
 1515 05fe 40F1BB87 		bpl	.L378
 1516 0602 BFEE00AA 		vmov.f32	s20, #-1.0e+0
 1517              	.LBE791:
 1518              	.LBE790:
 1519              	.LBE798:
 1520              	.LBE814:
 1521              	.LBE824:
 298:src/engine.cpp **** 
 1522              		.loc 1 298 66 view .LVU465
 1523 0606 9DED267A 		vldr.32	s14, [sp, #152]
 1524              	.LBB825:
 1525              	.LBB815:
 1526              	.LBB799:
 1527              	.LBB795:
 1528              	.LBB792:
  41:src/dsp.h     **** }
 1529              		.loc 2 41 19 view .LVU466
 1530 060a A2EE00AA 		vfma.f32	s20, s4, s0
 1531              	.LBE792:
 1532              	.LBE795:
 1533              	.LBE799:
 1534              	.LBE815:
 1535              	.LBE825:
 298:src/engine.cpp **** 
 1536              		.loc 1 298 66 view .LVU467
 1537 060e 2AEE07AA 		vmul.f32	s20, s20, s14
 1538              	.LVL97:
 1539              	.L93:
 303:src/engine.cpp ****         if(VOICE.noise_level > 0.0f){
 1540              		.loc 1 303 9 is_stmt 1 view .LVU468
ARM GAS  /tmp/claude-502/ccaZRenT.s 			page 40


 304:src/engine.cpp ****             s_noise_rng ^= s_noise_rng << 13;
 1541              		.loc 1 304 9 view .LVU469
 1542              	.LBB826:
 1543 0612 9DED18EA 		vldr.32	s28, [sp, #96]
 1544 0616 B5EEC0EA 		vcmpe.f32	s28, #0
 1545 061a F1EE10FA 		vmrs	APSR_nzcv, FPSCR
 1546 061e 40F3DF84 		ble	.L379
 1547              	.LBB676:
 305:src/engine.cpp ****             s_noise_rng ^= s_noise_rng >> 17;
 1548              		.loc 1 305 13 view .LVU470
 305:src/engine.cpp ****             s_noise_rng ^= s_noise_rng >> 17;
 1549              		.loc 1 305 40 is_stmt 0 view .LVU471
 1550 0622 5F49     		ldr	r1, .L445+28
 310:src/engine.cpp ****             float bright = white - s_noise_lp;
 1551              		.loc 1 310 50 view .LVU472
 1552 0624 5F4A     		ldr	r2, .L445+32
 305:src/engine.cpp ****             s_noise_rng ^= s_noise_rng >> 17;
 1553              		.loc 1 305 40 view .LVU473
 1554 0626 0B68     		ldr	r3, [r1]
 310:src/engine.cpp ****             float bright = white - s_noise_lp;
 1555              		.loc 1 310 50 view .LVU474
 1556 0628 DFED5FCA 		vldr.32	s25, .L445+36
 305:src/engine.cpp ****             s_noise_rng ^= s_noise_rng >> 17;
 1557              		.loc 1 305 25 view .LVU475
 1558 062c 83EA4333 		eor	r3, r3, r3, lsl #13
 306:src/engine.cpp ****             s_noise_rng ^= s_noise_rng << 5;
 1559              		.loc 1 306 13 is_stmt 1 view .LVU476
 310:src/engine.cpp ****             float bright = white - s_noise_lp;
 1560              		.loc 1 310 24 is_stmt 0 view .LVU477
 1561 0630 9FED5E7A 		vldr.32	s14, .L445+40
 306:src/engine.cpp ****             s_noise_rng ^= s_noise_rng << 5;
 1562              		.loc 1 306 25 view .LVU478
 1563 0634 83EA5343 		eor	r3, r3, r3, lsr #17
 307:src/engine.cpp ****             float white = (float)(int32_t)s_noise_rng * (1.0f/2147483648.0f);
 1564              		.loc 1 307 13 is_stmt 1 view .LVU479
 307:src/engine.cpp ****             float white = (float)(int32_t)s_noise_rng * (1.0f/2147483648.0f);
 1565              		.loc 1 307 25 is_stmt 0 view .LVU480
 1566 0638 83EA4313 		eor	r3, r3, r3, lsl #5
 308:src/engine.cpp ****             // One-pole high-pass = white minus its low-frequency content.
 1567              		.loc 1 308 27 view .LVU481
 1568 063c 00EE103A 		vmov	s0, r3	@ int
 307:src/engine.cpp ****             float white = (float)(int32_t)s_noise_rng * (1.0f/2147483648.0f);
 1569              		.loc 1 307 25 view .LVU482
 1570 0640 0B60     		str	r3, [r1]
 308:src/engine.cpp ****             // One-pole high-pass = white minus its low-frequency content.
 1571              		.loc 1 308 13 is_stmt 1 view .LVU483
 313:src/engine.cpp ****             noise = n * VOICE.noise_level;
 1572              		.loc 1 313 63 is_stmt 0 view .LVU484
 1573 0642 A823     		movs	r3, #168
 1574 0644 0199     		ldr	r1, [sp, #4]
 308:src/engine.cpp ****             // One-pole high-pass = white minus its low-frequency content.
 1575              		.loc 1 308 27 view .LVU485
 1576 0646 F8EEC09A 		vcvt.f32.s32	s19, s0
 1577              	.LVL98:
 310:src/engine.cpp ****             float bright = white - s_noise_lp;
 1578              		.loc 1 310 13 is_stmt 1 view .LVU486
 310:src/engine.cpp ****             float bright = white - s_noise_lp;
ARM GAS  /tmp/claude-502/ccaZRenT.s 			page 41


 1579              		.loc 1 310 50 is_stmt 0 view .LVU487
 1580 064a 92ED000A 		vldr.32	s0, [r2]
 313:src/engine.cpp ****             noise = n * VOICE.noise_level;
 1581              		.loc 1 313 63 view .LVU488
 1582 064e 03FB0153 		mla	r3, r3, r1, r5
 310:src/engine.cpp ****             float bright = white - s_noise_lp;
 1583              		.loc 1 310 50 view .LVU489
 1584 0652 F0EE40DA 		vmov.f32	s27, s0
 313:src/engine.cpp ****             noise = n * VOICE.noise_level;
 1585              		.loc 1 313 55 view .LVU490
 1586 0656 93ED1EDA 		vldr.32	s26, [r3, #120]
 310:src/engine.cpp ****             float bright = white - s_noise_lp;
 1587              		.loc 1 310 50 view .LVU491
 1588 065a D9EEACDA 		vfnms.f32	s27, s19, s25
 310:src/engine.cpp ****             float bright = white - s_noise_lp;
 1589              		.loc 1 310 24 view .LVU492
 1590 065e ADEE870A 		vfma.f32	s0, s27, s14
 1591 0662 82ED000A 		vstr.32	s0, [r2]
 311:src/engine.cpp ****             // Blend white → high-passed by noise_hp (×2 to make up lost level).
 1592              		.loc 1 311 13 is_stmt 1 view .LVU493
 311:src/engine.cpp ****             // Blend white → high-passed by noise_hp (×2 to make up lost level).
 1593              		.loc 1 311 19 is_stmt 0 view .LVU494
 1594 0666 99EEAC0A 		vfnms.f32	s0, s19, s25
 1595              	.LVL99:
 313:src/engine.cpp ****             noise = n * VOICE.noise_level;
 1596              		.loc 1 313 13 is_stmt 1 view .LVU495
 313:src/engine.cpp ****             noise = n * VOICE.noise_level;
 1597              		.loc 1 313 39 is_stmt 0 view .LVU496
 1598 066a 30EE000A 		vadd.f32	s0, s0, s0
 1599              	.LVL100:
 313:src/engine.cpp ****             noise = n * VOICE.noise_level;
 1600              		.loc 1 313 46 view .LVU497
 1601 066e A9EEEC0A 		vfms.f32	s0, s19, s25
 313:src/engine.cpp ****             noise = n * VOICE.noise_level;
 1602              		.loc 1 313 55 view .LVU498
 1603 0672 20EE0D0A 		vmul.f32	s0, s0, s26
 313:src/engine.cpp ****             noise = n * VOICE.noise_level;
 1604              		.loc 1 313 19 view .LVU499
 1605 0676 A9EEAC0A 		vfma.f32	s0, s19, s25
 1606              	.LVL101:
 314:src/engine.cpp ****         }
 1607              		.loc 1 314 13 is_stmt 1 view .LVU500
 314:src/engine.cpp ****         }
 1608              		.loc 1 314 19 is_stmt 0 view .LVU501
 1609 067a 20EE0E0A 		vmul.f32	s0, s0, s28
 1610              	.LVL102:
 1611              	.L96:
 314:src/engine.cpp ****         }
 1612              		.loc 1 314 19 view .LVU502
 1613              	.LBE676:
 1614              	.LBE826:
 318:src/engine.cpp **** 
 1615              		.loc 1 318 9 is_stmt 1 view .LVU503
 318:src/engine.cpp **** 
 1616              		.loc 1 318 26 is_stmt 0 view .LVU504
 1617 067e 72EE8C2A 		vadd.f32	s5, s5, s24
 1618              	.LBB827:
ARM GAS  /tmp/claude-502/ccaZRenT.s 			page 42


 327:src/engine.cpp ****             float f3 = freq_vib * tcr2;   // 3rd
 1619              		.loc 1 327 9 view .LVU505
 1620 0682 199B     		ldr	r3, [sp, #100]
 1621              	.LBE827:
 318:src/engine.cpp **** 
 1622              		.loc 1 318 33 view .LVU506
 1623 0684 72EEAA2A 		vadd.f32	s5, s5, s21
 318:src/engine.cpp **** 
 1624              		.loc 1 318 39 view .LVU507
 1625 0688 32EE8A7A 		vadd.f32	s14, s5, s20
 318:src/engine.cpp **** 
 1626              		.loc 1 318 15 view .LVU508
 1627 068c 37EE007A 		vadd.f32	s14, s14, s0
 1628              	.LVL103:
 327:src/engine.cpp ****             float f3 = freq_vib * tcr2;   // 3rd
 1629              		.loc 1 327 9 is_stmt 1 view .LVU509
 1630              	.LBB828:
 1631 0690 002B     		cmp	r3, #0
 1632 0692 00F00181 		beq	.L98
 1633              	.LBB572:
 328:src/engine.cpp ****             float f5 = freq_vib * tcr3;   // 5th
 1634              		.loc 1 328 13 view .LVU510
 330:src/engine.cpp ****             mix += (osc(s_phase1b, VOICE.osc1_wave) * VOICE.osc1_level
 1635              		.loc 1 330 19 is_stmt 0 view .LVU511
 1636 0696 A823     		movs	r3, #168
 1637 0698 019A     		ldr	r2, [sp, #4]
 328:src/engine.cpp ****             float f5 = freq_vib * tcr3;   // 5th
 1638              		.loc 1 328 19 view .LVU512
 1639 069a DDED282A 		vldr.32	s5, [sp, #160]
 1640              	.LBB431:
 1641              	.LBB432:
  58:src/dsp.h     ****         case WAVE_SINE:   return osc_sine(ph);
 1642              		.loc 2 58 5 view .LVU513
 1643 069e 022F     		cmp	r7, #2
 1644              	.LBE432:
 1645              	.LBE431:
 330:src/engine.cpp ****             mix += (osc(s_phase1b, VOICE.osc1_wave) * VOICE.osc1_level
 1646              		.loc 1 330 19 view .LVU514
 1647 06a0 03FB0253 		mla	r3, r3, r2, r5
 328:src/engine.cpp ****             float f5 = freq_vib * tcr3;   // 5th
 1648              		.loc 1 328 19 view .LVU515
 1649 06a4 62EEA79A 		vmul.f32	s19, s5, s15
 1650              	.LVL104:
 329:src/engine.cpp ****             float cl = VOICE.chord_level;
 1651              		.loc 1 329 13 is_stmt 1 view .LVU516
 329:src/engine.cpp ****             float cl = VOICE.chord_level;
 1652              		.loc 1 329 19 is_stmt 0 view .LVU517
 1653 06a8 DDED292A 		vldr.32	s5, [sp, #164]
 330:src/engine.cpp ****             mix += (osc(s_phase1b, VOICE.osc1_wave) * VOICE.osc1_level
 1654              		.loc 1 330 19 view .LVU518
 1655 06ac D3ED28DA 		vldr.32	s27, [r3, #160]
 331:src/engine.cpp ****                   + osc(s_phase2b, VOICE.osc2_wave) * VOICE.osc2_level) * cl;
 1656              		.loc 1 331 24 view .LVU519
 1657 06b0 3F4B     		ldr	r3, .L445+44
 329:src/engine.cpp ****             float cl = VOICE.chord_level;
 1658              		.loc 1 329 19 view .LVU520
 1659 06b2 22EEA7DA 		vmul.f32	s26, s5, s15
ARM GAS  /tmp/claude-502/ccaZRenT.s 			page 43


 1660              	.LVL105:
 330:src/engine.cpp ****             mix += (osc(s_phase1b, VOICE.osc1_wave) * VOICE.osc1_level
 1661              		.loc 1 330 13 is_stmt 1 view .LVU521
 331:src/engine.cpp ****                   + osc(s_phase2b, VOICE.osc2_wave) * VOICE.osc2_level) * cl;
 1662              		.loc 1 331 13 view .LVU522
 331:src/engine.cpp ****                   + osc(s_phase2b, VOICE.osc2_wave) * VOICE.osc2_level) * cl;
 1663              		.loc 1 331 24 is_stmt 0 view .LVU523
 1664 06b6 D3ED00CA 		vldr.32	s25, [r3]
 1665              	.LVL106:
 1666              	.LBB455:
 1667              	.LBI431:
  57:src/dsp.h     ****     switch(w){
 1668              		.loc 2 57 21 is_stmt 1 view .LVU524
 1669              	.LBB448:
  58:src/dsp.h     ****         case WAVE_SINE:   return osc_sine(ph);
 1670              		.loc 2 58 5 view .LVU525
 1671 06ba 01F04F80 		beq	.L99
 1672 06be 032F     		cmp	r7, #3
 1673 06c0 01F04080 		beq	.L100
 1674 06c4 012F     		cmp	r7, #1
 1675 06c6 01F00D80 		beq	.L423
 1676              	.LVL107:
 1677              	.LBB433:
 1678              	.LBI433:
  57:src/dsp.h     ****     switch(w){
 1679              		.loc 2 57 21 view .LVU526
  57:src/dsp.h     ****     switch(w){
 1680              		.loc 2 57 21 is_stmt 0 view .LVU527
 1681              	.LBE433:
 1682              	.LBE448:
 1683              	.LBE455:
 1684              	.LBE572:
 1685              	.LBE828:
 1686              	.LBE1128:
 1687              	.LBE1144:
  62:src/dsp.h     ****         default:          return tri(ph);
 1688              		.loc 2 62 9 is_stmt 1 view .LVU528
  63:src/dsp.h     ****     }
 1689              		.loc 2 63 9 view .LVU529
  63:src/dsp.h     ****     }
 1690              		.loc 2 63 27 view .LVU530
 1691              	.LBB1145:
 1692              	.LBB1129:
 1693              	.LBB829:
 1694              	.LBB573:
 1695              	.LBB456:
 1696              	.LBB449:
 1697              	.LBB438:
 1698              	.LBB434:
 1699              	.LBI434:
  40:src/dsp.h     ****     return ph<0.5f?(4.0f*ph-1.0f):(3.0f-4.0f*ph);
 1700              		.loc 2 40 21 view .LVU531
 1701              	.LBB435:
  41:src/dsp.h     **** }
 1702              		.loc 2 41 5 view .LVU532
  41:src/dsp.h     **** }
 1703              		.loc 2 41 19 is_stmt 0 view .LVU533
ARM GAS  /tmp/claude-502/ccaZRenT.s 			page 44


 1704 06ca F6EE002A 		vmov.f32	s5, #5.0e-1
 1705 06ce F4EEE2CA 		vcmpe.f32	s25, s5
 1706 06d2 F1EE002A 		vmov.f32	s5, #4.0e+0
 1707 06d6 F1EE10FA 		vmrs	APSR_nzcv, FPSCR
 1708 06da 41F1BD82 		bpl	.L381
 1709 06de BFEE000A 		vmov.f32	s0, #-1.0e+0
 1710              	.LVL108:
  41:src/dsp.h     **** }
 1711              		.loc 2 41 19 view .LVU534
 1712 06e2 ACEEA20A 		vfma.f32	s0, s25, s5
 1713              	.LBE435:
 1714              	.LBE434:
 1715              	.LBE438:
 1716              	.LBE449:
 1717              	.LBE456:
 331:src/engine.cpp ****                   + osc(s_phase2b, VOICE.osc2_wave) * VOICE.osc2_level) * cl;
 1718              		.loc 1 331 53 view .LVU535
 1719 06e6 DDED052A 		vldr.32	s5, [sp, #20]
 1720 06ea 20EE220A 		vmul.f32	s0, s0, s5
 1721              	.LVL109:
 1722              	.L106:
 332:src/engine.cpp ****             mix += (osc(s_phase1c, VOICE.osc1_wave) * VOICE.osc1_level
 1723              		.loc 1 332 24 view .LVU536
 1724 06ee 3148     		ldr	r0, .L445+48
 1725              	.LBB457:
 1726              	.LBB458:
  58:src/dsp.h     ****         case WAVE_SINE:   return osc_sine(ph);
 1727              		.loc 2 58 5 view .LVU537
 1728 06f0 022E     		cmp	r6, #2
 1729              	.LBE458:
 1730              	.LBE457:
 332:src/engine.cpp ****             mix += (osc(s_phase1c, VOICE.osc1_wave) * VOICE.osc1_level
 1731              		.loc 1 332 24 view .LVU538
 1732 06f2 90ED00CA 		vldr.32	s24, [r0]
 1733              	.LVL110:
 1734              	.LBB478:
 1735              	.LBI457:
  57:src/dsp.h     ****     switch(w){
 1736              		.loc 2 57 21 is_stmt 1 view .LVU539
 1737              	.LBB472:
  58:src/dsp.h     ****         case WAVE_SINE:   return osc_sine(ph);
 1738              		.loc 2 58 5 view .LVU540
 1739 06f6 00F0E787 		beq	.L109
 1740 06fa 032E     		cmp	r6, #3
 1741 06fc 00F0D887 		beq	.L110
 1742 0700 012E     		cmp	r6, #1
 1743 0702 00F0A587 		beq	.L424
 1744              	.LVL111:
 1745              	.LBB459:
 1746              	.LBI459:
  57:src/dsp.h     ****     switch(w){
 1747              		.loc 2 57 21 view .LVU541
  57:src/dsp.h     ****     switch(w){
 1748              		.loc 2 57 21 is_stmt 0 view .LVU542
 1749              	.LBE459:
 1750              	.LBE472:
 1751              	.LBE478:
ARM GAS  /tmp/claude-502/ccaZRenT.s 			page 45


 1752              	.LBE573:
 1753              	.LBE829:
 1754              	.LBE1129:
 1755              	.LBE1145:
  62:src/dsp.h     ****         default:          return tri(ph);
 1756              		.loc 2 62 9 is_stmt 1 view .LVU543
  63:src/dsp.h     ****     }
 1757              		.loc 2 63 9 view .LVU544
  63:src/dsp.h     ****     }
 1758              		.loc 2 63 27 view .LVU545
 1759              	.LBB1146:
 1760              	.LBB1130:
 1761              	.LBB830:
 1762              	.LBB574:
 1763              	.LBB479:
 1764              	.LBB473:
 1765              	.LBB464:
 1766              	.LBB460:
 1767              	.LBI460:
  40:src/dsp.h     ****     return ph<0.5f?(4.0f*ph-1.0f):(3.0f-4.0f*ph);
 1768              		.loc 2 40 21 view .LVU546
 1769              	.LBB461:
  41:src/dsp.h     **** }
 1770              		.loc 2 41 5 view .LVU547
  41:src/dsp.h     **** }
 1771              		.loc 2 41 19 is_stmt 0 view .LVU548
 1772 0706 F6EE002A 		vmov.f32	s5, #5.0e-1
 1773 070a B1EE00AA 		vmov.f32	s20, #4.0e+0
 1774 070e B4EEE2CA 		vcmpe.f32	s24, s5
 1775 0712 F1EE10FA 		vmrs	APSR_nzcv, FPSCR
 1776 0716 41F19582 		bpl	.L383
 1777 071a FFEE002A 		vmov.f32	s5, #-1.0e+0
 1778 071e ECEE0A2A 		vfma.f32	s5, s24, s20
 1779              	.LBE461:
 1780              	.LBE460:
 1781              	.LBE464:
 1782              	.LBE473:
 1783              	.LBE479:
 332:src/engine.cpp ****             mix += (osc(s_phase1c, VOICE.osc1_wave) * VOICE.osc1_level
 1784              		.loc 1 332 53 view .LVU549
 1785 0722 9DED06AA 		vldr.32	s20, [sp, #24]
 1786 0726 62EE8A2A 		vmul.f32	s5, s5, s20
 1787              	.LVL112:
 1788              	.L116:
 332:src/engine.cpp ****             mix += (osc(s_phase1c, VOICE.osc1_wave) * VOICE.osc1_level
 1789              		.loc 1 332 19 view .LVU550
 1790 072a 70EE222A 		vadd.f32	s5, s0, s5
 333:src/engine.cpp ****                   + osc(s_phase2c, VOICE.osc2_wave) * VOICE.osc2_level) * cl;
 1791              		.loc 1 333 24 view .LVU551
 1792 072e 2249     		ldr	r1, .L445+52
 1793              	.LBB480:
 1794              	.LBB481:
  58:src/dsp.h     ****         case WAVE_SINE:   return osc_sine(ph);
 1795              		.loc 2 58 5 view .LVU552
 1796 0730 022F     		cmp	r7, #2
 1797              	.LBE481:
 1798              	.LBE480:
ARM GAS  /tmp/claude-502/ccaZRenT.s 			page 46


 333:src/engine.cpp ****                   + osc(s_phase2c, VOICE.osc2_wave) * VOICE.osc2_level) * cl;
 1799              		.loc 1 333 24 view .LVU553
 1800 0732 D1ED00AA 		vldr.32	s21, [r1]
 331:src/engine.cpp ****                   + osc(s_phase2b, VOICE.osc2_wave) * VOICE.osc2_level) * cl;
 1801              		.loc 1 331 17 view .LVU554
 1802 0736 A2EEAD7A 		vfma.f32	s14, s5, s27
 1803              	.LVL113:
 333:src/engine.cpp ****                   + osc(s_phase2c, VOICE.osc2_wave) * VOICE.osc2_level) * cl;
 1804              		.loc 1 333 13 is_stmt 1 view .LVU555
 1805              	.LBB508:
 1806              	.LBI480:
  57:src/dsp.h     ****     switch(w){
 1807              		.loc 2 57 21 view .LVU556
 1808              	.LBB500:
  58:src/dsp.h     ****         case WAVE_SINE:   return osc_sine(ph);
 1809              		.loc 2 58 5 view .LVU557
 1810 073a 00F04787 		beq	.L119
 1811 073e 032F     		cmp	r7, #3
 1812 0740 00F06E86 		beq	.L120
 1813 0744 012F     		cmp	r7, #1
 1814 0746 00F0BF86 		beq	.L425
 1815              	.LVL114:
 1816              	.LBB482:
 1817              	.LBI482:
  57:src/dsp.h     ****     switch(w){
 1818              		.loc 2 57 21 view .LVU558
  57:src/dsp.h     ****     switch(w){
 1819              		.loc 2 57 21 is_stmt 0 view .LVU559
 1820              	.LBE482:
 1821              	.LBE500:
 1822              	.LBE508:
 1823              	.LBE574:
 1824              	.LBE830:
 1825              	.LBE1130:
 1826              	.LBE1146:
  62:src/dsp.h     ****         default:          return tri(ph);
 1827              		.loc 2 62 9 is_stmt 1 view .LVU560
  63:src/dsp.h     ****     }
 1828              		.loc 2 63 9 view .LVU561
  63:src/dsp.h     ****     }
 1829              		.loc 2 63 27 view .LVU562
 1830              	.LBB1147:
 1831              	.LBB1131:
 1832              	.LBB831:
 1833              	.LBB575:
 1834              	.LBB509:
 1835              	.LBB501:
 1836              	.LBB489:
 1837              	.LBB483:
 1838              	.LBI483:
  40:src/dsp.h     ****     return ph<0.5f?(4.0f*ph-1.0f):(3.0f-4.0f*ph);
 1839              		.loc 2 40 21 view .LVU563
 1840              	.LBB484:
  41:src/dsp.h     **** }
 1841              		.loc 2 41 5 view .LVU564
  41:src/dsp.h     **** }
 1842              		.loc 2 41 19 is_stmt 0 view .LVU565
ARM GAS  /tmp/claude-502/ccaZRenT.s 			page 47


 1843 074a F6EE002A 		vmov.f32	s5, #5.0e-1
 1844 074e F4EEE2AA 		vcmpe.f32	s21, s5
 1845 0752 F1EE002A 		vmov.f32	s5, #4.0e+0
 1846 0756 F1EE10FA 		vmrs	APSR_nzcv, FPSCR
 1847 075a 00F16386 		bmi	.L404
 1848 075e B0EE080A 		vmov.f32	s0, #3.0e+0
 1849 0762 AAEEE20A 		vfms.f32	s0, s21, s5
 1850              	.LBE484:
 1851              	.LBE483:
 1852              	.LBE489:
 1853              	.LBE501:
 1854              	.LBE509:
 333:src/engine.cpp ****                   + osc(s_phase2c, VOICE.osc2_wave) * VOICE.osc2_level) * cl;
 1855              		.loc 1 333 53 view .LVU566
 1856 0766 DDED052A 		vldr.32	s5, [sp, #20]
 1857 076a 60EE222A 		vmul.f32	s5, s0, s5
 1858 076e CDED272A 		vstr.32	s5, [sp, #156]
 1859              	.LVL115:
 1860              	.L126:
 334:src/engine.cpp ****             s_phase1b += f3*VOICE.osc1_ratio/sr; if(s_phase1b>=1.0f)s_phase1b-=1.0f;
 1861              		.loc 1 334 24 view .LVU567
 1862 0772 DFF848C0 		ldr	ip, .L445+56
 1863              	.LBB510:
 1864              	.LBB511:
  58:src/dsp.h     ****         case WAVE_SINE:   return osc_sine(ph);
 1865              		.loc 2 58 5 view .LVU568
 1866 0776 022E     		cmp	r6, #2
 1867              	.LBE511:
 1868              	.LBE510:
 334:src/engine.cpp ****             s_phase1b += f3*VOICE.osc1_ratio/sr; if(s_phase1b>=1.0f)s_phase1b-=1.0f;
 1869              		.loc 1 334 24 view .LVU569
 1870 0778 9CED00AA 		vldr.32	s20, [ip]
 1871              	.LVL116:
 1872              	.LBB545:
 1873              	.LBI510:
  57:src/dsp.h     ****     switch(w){
 1874              		.loc 2 57 21 is_stmt 1 view .LVU570
 1875              	.LBB533:
  58:src/dsp.h     ****         case WAVE_SINE:   return osc_sine(ph);
 1876              		.loc 2 58 5 view .LVU571
 1877 077c 00F06386 		beq	.L129
 1878 0780 1EE0     		b	.L446
 1879              	.L447:
 1880 0782 00BF     		.align	2
 1881              	.L445:
 1882 0784 00000000 		.word	.LANCHOR35
 1883 0788 CDCC4C3D 		.word	1028443341
 1884 078c C0956C3D 		.word	1030526400
 1885 0790 00000000 		.word	.LANCHOR36
 1886 0794 00000000 		.word	.LANCHOR37
 1887 0798 00000000 		.word	.LANCHOR38
 1888 079c 00000000 		.word	.LANCHOR39
 1889 07a0 00000000 		.word	.LANCHOR40
 1890 07a4 00000000 		.word	.LANCHOR41
 1891 07a8 00000030 		.word	805306368
 1892 07ac CDCC4C3F 		.word	1061997773
 1893 07b0 00000000 		.word	.LANCHOR42
ARM GAS  /tmp/claude-502/ccaZRenT.s 			page 48


 1894 07b4 00000000 		.word	.LANCHOR43
 1895 07b8 00000000 		.word	.LANCHOR44
 1896 07bc 00000000 		.word	.LANCHOR45
 1897              	.L446:
 1898              	.L435:
  58:src/dsp.h     ****         case WAVE_SINE:   return osc_sine(ph);
 1899              		.loc 2 58 5 is_stmt 0 view .LVU572
 1900 07c0 032E     		cmp	r6, #3
 1901 07c2 00F0D987 		beq	.L130
 1902 07c6 012E     		cmp	r6, #1
 1903 07c8 00F01087 		beq	.L426
 1904              	.LVL117:
 1905              	.LBB512:
 1906              	.LBI512:
  57:src/dsp.h     ****     switch(w){
 1907              		.loc 2 57 21 is_stmt 1 view .LVU573
  57:src/dsp.h     ****     switch(w){
 1908              		.loc 2 57 21 is_stmt 0 view .LVU574
 1909              	.LBE512:
 1910              	.LBE533:
 1911              	.LBE545:
 1912              	.LBE575:
 1913              	.LBE831:
 1914              	.LBE1131:
 1915              	.LBE1147:
  62:src/dsp.h     ****         default:          return tri(ph);
 1916              		.loc 2 62 9 is_stmt 1 view .LVU575
  63:src/dsp.h     ****     }
 1917              		.loc 2 63 9 view .LVU576
  63:src/dsp.h     ****     }
 1918              		.loc 2 63 27 view .LVU577
 1919              	.LBB1148:
 1920              	.LBB1132:
 1921              	.LBB832:
 1922              	.LBB576:
 1923              	.LBB546:
 1924              	.LBB534:
 1925              	.LBB521:
 1926              	.LBB513:
 1927              	.LBI513:
  40:src/dsp.h     ****     return ph<0.5f?(4.0f*ph-1.0f):(3.0f-4.0f*ph);
 1928              		.loc 2 40 21 view .LVU578
 1929              	.LBB514:
  41:src/dsp.h     **** }
 1930              		.loc 2 41 5 view .LVU579
  41:src/dsp.h     **** }
 1931              		.loc 2 41 19 is_stmt 0 view .LVU580
 1932 07cc F6EE002A 		vmov.f32	s5, #5.0e-1
 1933 07d0 B1EE00EA 		vmov.f32	s28, #4.0e+0
 1934 07d4 B4EEE2AA 		vcmpe.f32	s20, s5
 1935 07d8 F1EE10FA 		vmrs	APSR_nzcv, FPSCR
 1936 07dc 41F14A82 		bpl	.L387
  41:src/dsp.h     **** }
 1937              		.loc 2 41 19 view .LVU581
 1938 07e0 FFEE002A 		vmov.f32	s5, #-1.0e+0
 1939              	.LBE514:
 1940              	.LBE513:
ARM GAS  /tmp/claude-502/ccaZRenT.s 			page 49


 1941              	.LBE521:
 1942              	.LBE534:
 1943              	.LBE546:
 334:src/engine.cpp ****             s_phase1b += f3*VOICE.osc1_ratio/sr; if(s_phase1b>=1.0f)s_phase1b-=1.0f;
 1944              		.loc 1 334 53 view .LVU582
 1945 07e4 9DED060A 		vldr.32	s0, [sp, #24]
 1946              	.LBB547:
 1947              	.LBB535:
 1948              	.LBB522:
 1949              	.LBB518:
 1950              	.LBB515:
  41:src/dsp.h     **** }
 1951              		.loc 2 41 19 view .LVU583
 1952 07e8 EAEE0E2A 		vfma.f32	s5, s20, s28
 1953              	.LBE515:
 1954              	.LBE518:
 1955              	.LBE522:
 1956              	.LBE535:
 1957              	.LBE547:
 334:src/engine.cpp ****             s_phase1b += f3*VOICE.osc1_ratio/sr; if(s_phase1b>=1.0f)s_phase1b-=1.0f;
 1958              		.loc 1 334 53 view .LVU584
 1959 07ec 62EE802A 		vmul.f32	s5, s5, s0
 1960              	.LVL118:
 1961              	.L136:
 334:src/engine.cpp ****             s_phase1b += f3*VOICE.osc1_ratio/sr; if(s_phase1b>=1.0f)s_phase1b-=1.0f;
 1962              		.loc 1 334 19 view .LVU585
 1963 07f0 9DED270A 		vldr.32	s0, [sp, #156]
 336:src/engine.cpp ****             s_phase2b += f3*VOICE.osc2_ratio/sr; if(s_phase2b>=1.0f)s_phase2b-=1.0f;
 1964              		.loc 1 336 35 view .LVU586
 1965 07f4 019A     		ldr	r2, [sp, #4]
 334:src/engine.cpp ****             s_phase1b += f3*VOICE.osc1_ratio/sr; if(s_phase1b>=1.0f)s_phase1b-=1.0f;
 1966              		.loc 1 334 19 view .LVU587
 1967 07f6 70EE222A 		vadd.f32	s5, s0, s5
 333:src/engine.cpp ****                   + osc(s_phase2c, VOICE.osc2_wave) * VOICE.osc2_level) * cl;
 1968              		.loc 1 333 17 view .LVU588
 1969 07fa A2EEAD7A 		vfma.f32	s14, s5, s27
 1970              	.LVL119:
 335:src/engine.cpp ****             s_phase2b += f3*VOICE.osc2_ratio/sr; if(s_phase2b>=1.0f)s_phase2b-=1.0f;
 1971              		.loc 1 335 13 is_stmt 1 view .LVU589
 335:src/engine.cpp ****             s_phase2b += f3*VOICE.osc2_ratio/sr; if(s_phase2b>=1.0f)s_phase2b-=1.0f;
 1972              		.loc 1 335 28 is_stmt 0 view .LVU590
 1973 07fe DDED042A 		vldr.32	s5, [sp, #16]
 1974 0802 29EEA20A 		vmul.f32	s0, s19, s5
 335:src/engine.cpp ****             s_phase2b += f3*VOICE.osc2_ratio/sr; if(s_phase2b>=1.0f)s_phase2b-=1.0f;
 1975              		.loc 1 335 45 view .LVU591
 1976 0806 C0EE082A 		vdiv.f32	s5, s0, s16
 335:src/engine.cpp ****             s_phase2b += f3*VOICE.osc2_ratio/sr; if(s_phase2b>=1.0f)s_phase2b-=1.0f;
 1977              		.loc 1 335 23 view .LVU592
 1978 080a 72EEAC2A 		vadd.f32	s5, s5, s25
 335:src/engine.cpp ****             s_phase2b += f3*VOICE.osc2_ratio/sr; if(s_phase2b>=1.0f)s_phase2b-=1.0f;
 1979              		.loc 1 335 50 is_stmt 1 view .LVU593
 1980 080e F7EE00CA 		vmov.f32	s25, #1.0e+0
 1981 0812 F4EEEC2A 		vcmpe.f32	s5, s25
 1982 0816 F1EE10FA 		vmrs	APSR_nzcv, FPSCR
 335:src/engine.cpp ****             s_phase2b += f3*VOICE.osc2_ratio/sr; if(s_phase2b>=1.0f)s_phase2b-=1.0f;
 1983              		.loc 1 335 69 view .LVU594
 1984              		.loc 1 336 13 view .LVU595
ARM GAS  /tmp/claude-502/ccaZRenT.s 			page 50


 335:src/engine.cpp ****             s_phase2b += f3*VOICE.osc2_ratio/sr; if(s_phase2b>=1.0f)s_phase2b-=1.0f;
 1985              		.loc 1 335 78 is_stmt 0 view .LVU596
 1986 081a A8BF     		it	ge
 1987 081c 72EEEC2A 		vsubge.f32	s5, s5, s25
 1988 0820 C3ED002A 		vstr.32	s5, [r3]
 1989              		.loc 1 336 35 view .LVU597
 1990 0824 A823     		movs	r3, #168
 1991 0826 03FB0253 		mla	r3, r3, r2, r5
 1992 082a 93ED070A 		vldr.32	s0, [r3, #28]
 1993              		.loc 1 336 28 view .LVU598
 1994 082e 60EE299A 		vmul.f32	s19, s0, s19
 1995              	.LVL120:
 337:src/engine.cpp ****             s_phase1c += f5*VOICE.osc1_ratio/sr; if(s_phase1c>=1.0f)s_phase1c-=1.0f;
 338:src/engine.cpp ****             s_phase2c += f5*VOICE.osc2_ratio/sr; if(s_phase2c>=1.0f)s_phase2c-=1.0f;
 1996              		.loc 1 338 28 view .LVU599
 1997 0832 20EE0D0A 		vmul.f32	s0, s0, s26
 336:src/engine.cpp ****             s_phase1c += f5*VOICE.osc1_ratio/sr; if(s_phase1c>=1.0f)s_phase1c-=1.0f;
 1998              		.loc 1 336 45 view .LVU600
 1999 0836 C9EE882A 		vdiv.f32	s5, s19, s16
 336:src/engine.cpp ****             s_phase1c += f5*VOICE.osc1_ratio/sr; if(s_phase1c>=1.0f)s_phase1c-=1.0f;
 2000              		.loc 1 336 23 view .LVU601
 2001 083a 72EE8C2A 		vadd.f32	s5, s5, s24
 336:src/engine.cpp ****             s_phase1c += f5*VOICE.osc1_ratio/sr; if(s_phase1c>=1.0f)s_phase1c-=1.0f;
 2002              		.loc 1 336 50 is_stmt 1 view .LVU602
 2003 083e B7EE00CA 		vmov.f32	s24, #1.0e+0
 2004 0842 F4EECC2A 		vcmpe.f32	s5, s24
 2005 0846 F1EE10FA 		vmrs	APSR_nzcv, FPSCR
 336:src/engine.cpp ****             s_phase1c += f5*VOICE.osc1_ratio/sr; if(s_phase1c>=1.0f)s_phase1c-=1.0f;
 2006              		.loc 1 336 69 view .LVU603
 336:src/engine.cpp ****             s_phase1c += f5*VOICE.osc1_ratio/sr; if(s_phase1c>=1.0f)s_phase1c-=1.0f;
 2007              		.loc 1 336 78 is_stmt 0 view .LVU604
 2008 084a A8BF     		it	ge
 2009 084c 72EECC2A 		vsubge.f32	s5, s5, s24
 2010 0850 C0ED002A 		vstr.32	s5, [r0]
 337:src/engine.cpp ****             s_phase1c += f5*VOICE.osc1_ratio/sr; if(s_phase1c>=1.0f)s_phase1c-=1.0f;
 2011              		.loc 1 337 13 is_stmt 1 view .LVU605
 337:src/engine.cpp ****             s_phase1c += f5*VOICE.osc1_ratio/sr; if(s_phase1c>=1.0f)s_phase1c-=1.0f;
 2012              		.loc 1 337 28 is_stmt 0 view .LVU606
 2013 0854 DDED042A 		vldr.32	s5, [sp, #16]
 2014 0858 6DEE229A 		vmul.f32	s19, s26, s5
 337:src/engine.cpp ****             s_phase1c += f5*VOICE.osc1_ratio/sr; if(s_phase1c>=1.0f)s_phase1c-=1.0f;
 2015              		.loc 1 337 45 view .LVU607
 2016 085c C9EE882A 		vdiv.f32	s5, s19, s16
 337:src/engine.cpp ****             s_phase1c += f5*VOICE.osc1_ratio/sr; if(s_phase1c>=1.0f)s_phase1c-=1.0f;
 2017              		.loc 1 337 23 view .LVU608
 2018 0860 72EEAA2A 		vadd.f32	s5, s5, s21
 337:src/engine.cpp ****             s_phase1c += f5*VOICE.osc1_ratio/sr; if(s_phase1c>=1.0f)s_phase1c-=1.0f;
 2019              		.loc 1 337 50 is_stmt 1 view .LVU609
 2020 0864 F7EE00AA 		vmov.f32	s21, #1.0e+0
 2021 0868 F4EEEA2A 		vcmpe.f32	s5, s21
 2022 086c F1EE10FA 		vmrs	APSR_nzcv, FPSCR
 337:src/engine.cpp ****             s_phase1c += f5*VOICE.osc1_ratio/sr; if(s_phase1c>=1.0f)s_phase1c-=1.0f;
 2023              		.loc 1 337 69 view .LVU610
 337:src/engine.cpp ****             s_phase1c += f5*VOICE.osc1_ratio/sr; if(s_phase1c>=1.0f)s_phase1c-=1.0f;
 2024              		.loc 1 337 78 is_stmt 0 view .LVU611
 2025 0870 A8BF     		it	ge
 2026 0872 72EEEA2A 		vsubge.f32	s5, s5, s21
ARM GAS  /tmp/claude-502/ccaZRenT.s 			page 51


 2027 0876 C1ED002A 		vstr.32	s5, [r1]
 2028              		.loc 1 338 13 is_stmt 1 view .LVU612
 2029              		.loc 1 338 45 is_stmt 0 view .LVU613
 2030 087a C0EE082A 		vdiv.f32	s5, s0, s16
 2031              		.loc 1 338 23 view .LVU614
 2032 087e 72EE8A2A 		vadd.f32	s5, s5, s20
 2033              		.loc 1 338 50 is_stmt 1 view .LVU615
 2034 0882 B7EE00AA 		vmov.f32	s20, #1.0e+0
 2035 0886 F4EECA2A 		vcmpe.f32	s5, s20
 2036 088a F1EE10FA 		vmrs	APSR_nzcv, FPSCR
 2037              		.loc 1 338 69 view .LVU616
 2038              		.loc 1 338 78 is_stmt 0 view .LVU617
 2039 088e A8BF     		it	ge
 2040 0890 72EECA2A 		vsubge.f32	s5, s5, s20
 2041 0894 CCED002A 		vstr.32	s5, [ip]
 2042              	.LVL121:
 2043              	.L98:
 2044              		.loc 1 338 78 view .LVU618
 2045              	.LBE576:
 2046              	.LBE832:
 339:src/engine.cpp ****         }
 340:src/engine.cpp **** 
 341:src/engine.cpp ****         // Ring modulation (finger 2 pressure → metallic/bell edge)
 342:src/engine.cpp ****         float rm_carrier = tri(s_phase_rm);
 2047              		.loc 1 342 9 is_stmt 1 view .LVU619
 2048              		.loc 1 342 31 is_stmt 0 view .LVU620
 2049 0898 EE4B     		ldr	r3, .L448
 2050              	.LBB833:
 2051              	.LBB834:
  41:src/dsp.h     **** }
 2052              		.loc 2 41 19 view .LVU621
 2053 089a B6EE000A 		vmov.f32	s0, #5.0e-1
 2054              	.LBE834:
 2055              	.LBE833:
 2056              		.loc 1 342 31 view .LVU622
 2057 089e D3ED002A 		vldr.32	s5, [r3]
 2058              	.LVL122:
 2059              	.LBB837:
 2060              	.LBI833:
  40:src/dsp.h     ****     return ph<0.5f?(4.0f*ph-1.0f):(3.0f-4.0f*ph);
 2061              		.loc 2 40 21 is_stmt 1 view .LVU623
 2062              	.LBB835:
  41:src/dsp.h     **** }
 2063              		.loc 2 41 5 view .LVU624
  41:src/dsp.h     **** }
 2064              		.loc 2 41 19 is_stmt 0 view .LVU625
 2065 08a2 F4EEC02A 		vcmpe.f32	s5, s0
 2066 08a6 B1EE000A 		vmov.f32	s0, #4.0e+0
 2067 08aa F1EE10FA 		vmrs	APSR_nzcv, FPSCR
 2068 08ae 40F19283 		bpl	.L388
  41:src/dsp.h     **** }
 2069              		.loc 2 41 19 view .LVU626
 2070 08b2 FFEE009A 		vmov.f32	s19, #-1.0e+0
 2071 08b6 E2EE809A 		vfma.f32	s19, s5, s0
 2072              	.L148:
 2073              	.LVL123:
  41:src/dsp.h     **** }
ARM GAS  /tmp/claude-502/ccaZRenT.s 			page 52


 2074              		.loc 2 41 19 view .LVU627
 2075              	.LBE835:
 2076              	.LBE837:
 343:src/engine.cpp ****         mix = mix*(1.0f-s_ringmod) + (mix*rm_carrier)*s_ringmod;
 2077              		.loc 1 343 9 is_stmt 1 view .LVU628
 2078              		.loc 1 343 42 is_stmt 0 view .LVU629
 2079 08ba 67EE299A 		vmul.f32	s19, s14, s19
 2080              	.LVL124:
 2081              		.loc 1 343 24 view .LVU630
 2082 08be B7EE000A 		vmov.f32	s0, #1.0e+0
 2083              		.loc 1 343 54 view .LVU631
 2084 08c2 69EEA69A 		vmul.f32	s19, s19, s13
 2085              		.loc 1 343 24 view .LVU632
 2086 08c6 70EE666A 		vsub.f32	s13, s0, s13
 2087              		.loc 1 343 13 view .LVU633
 2088 08ca E6EE879A 		vfma.f32	s19, s13, s14
 2089              	.LVL125:
 344:src/engine.cpp **** 
 345:src/engine.cpp ****         // Waveshaper drive before filter (adds harmonics, warms tone)
 346:src/engine.cpp ****         mix = fast_tanh(mix * s_drive);
 2090              		.loc 1 346 9 is_stmt 1 view .LVU634
 2091              	.LBB838:
 2092              	.LBB839:
  25:src/dsp.h     ****     if(x<-3.0f)return -1.0f;
 2093              		.loc 2 25 5 is_stmt 0 view .LVU635
 2094 08ce B0EE087A 		vmov.f32	s14, #3.0e+0
 2095              	.LBE839:
 2096              	.LBE838:
 2097              		.loc 1 346 24 view .LVU636
 2098 08d2 29EE299A 		vmul.f32	s18, s18, s19
 2099              	.LVL126:
 2100              	.LBB844:
 2101              	.LBI838:
  23:src/dsp.h     **** {
 2102              		.loc 2 23 21 is_stmt 1 view .LVU637
 2103              	.LBB842:
  25:src/dsp.h     ****     if(x<-3.0f)return -1.0f;
 2104              		.loc 2 25 5 view .LVU638
 2105 08d6 B4EEC79A 		vcmpe.f32	s18, s14
 2106 08da F1EE10FA 		vmrs	APSR_nzcv, FPSCR
 2107 08de 17DC     		bgt	.L149
  26:src/dsp.h     ****     float x2=x*x;
 2108              		.loc 2 26 5 view .LVU639
 2109 08e0 B8EE087A 		vmov.f32	s14, #-3.0e+0
 2110 08e4 B4EEC79A 		vcmpe.f32	s18, s14
 2111 08e8 F1EE10FA 		vmrs	APSR_nzcv, FPSCR
 2112 08ec 00F11E85 		bmi	.L279
 2113              	.LVL127:
 2114              	.LBB840:
 2115              	.LBI840:
  23:src/dsp.h     **** {
 2116              		.loc 2 23 21 view .LVU640
 2117              	.LBB841:
  27:src/dsp.h     ****     return x*(27.0f+x2)/(27.0f+9.0f*x2);
 2118              		.loc 2 27 5 view .LVU641
  28:src/dsp.h     **** }
 2119              		.loc 2 28 20 is_stmt 0 view .LVU642
ARM GAS  /tmp/claude-502/ccaZRenT.s 			page 53


 2120 08f0 F3EE0B6A 		vmov.f32	s13, #2.7e+1
  27:src/dsp.h     ****     return x*(27.0f+x2)/(27.0f+9.0f*x2);
 2121              		.loc 2 27 11 view .LVU643
 2122 08f4 29EE097A 		vmul.f32	s14, s18, s18
 2123              	.LVL128:
  28:src/dsp.h     **** }
 2124              		.loc 2 28 5 is_stmt 1 view .LVU644
  28:src/dsp.h     **** }
 2125              		.loc 2 28 31 is_stmt 0 view .LVU645
 2126 08f8 B2EE020A 		vmov.f32	s0, #9.0e+0
 2127 08fc F0EE669A 		vmov.f32	s19, s13
 2128              	.LVL129:
  28:src/dsp.h     **** }
 2129              		.loc 2 28 31 view .LVU646
 2130 0900 E7EE009A 		vfma.f32	s19, s14, s0
  28:src/dsp.h     **** }
 2131              		.loc 2 28 20 view .LVU647
 2132 0904 37EE267A 		vadd.f32	s14, s14, s13
 2133              	.LVL130:
  28:src/dsp.h     **** }
 2134              		.loc 2 28 13 view .LVU648
 2135 0908 27EE099A 		vmul.f32	s18, s14, s18
 2136              	.LVL131:
  28:src/dsp.h     **** }
 2137              		.loc 2 28 39 view .LVU649
 2138 090c 89EE290A 		vdiv.f32	s0, s18, s19
 2139              	.L149:
 2140              	.LVL132:
  28:src/dsp.h     **** }
 2141              		.loc 2 28 39 view .LVU650
 2142              	.LBE841:
 2143              	.LBE840:
 2144              	.LBE842:
 2145              	.LBE844:
 347:src/engine.cpp **** 
 348:src/engine.cpp ****         // Moog ladder filter — no attack boost (was causing onset clicks)
 349:src/engine.cpp ****         float eff_cutoff = clampf(s_cutoff, 20.0f, 20000.0f);
 2146              		.loc 1 349 9 is_stmt 1 view .LVU651
 2147              	.LBB845:
 2148              	.LBI845:
  12:src/dsp.h     ****     return v<lo?lo:v>hi?hi:v;
 2149              		.loc 2 12 21 view .LVU652
 2150              	.LBB846:
  13:src/dsp.h     **** }
 2151              		.loc 2 13 5 view .LVU653
  13:src/dsp.h     **** }
 2152              		.loc 2 13 16 is_stmt 0 view .LVU654
 2153 0910 B3EE047A 		vmov.f32	s14, #2.0e+1
 2154 0914 F4EEC75A 		vcmpe.f32	s11, s14
 2155 0918 F1EE10FA 		vmrs	APSR_nzcv, FPSCR
 2156 091c 00F15883 		bmi	.L280
  13:src/dsp.h     **** }
 2157              		.loc 2 13 24 view .LVU655
 2158 0920 9FEDCD7A 		vldr.32	s14, .L448+4
 2159 0924 F4EEC75A 		vcmpe.f32	s11, s14
 2160 0928 F1EE10FA 		vmrs	APSR_nzcv, FPSCR
 2161 092c 00F3B683 		bgt	.L281
ARM GAS  /tmp/claude-502/ccaZRenT.s 			page 54


 2162              	.LBE846:
 2163              	.LBE845:
 2164              	.LBB849:
 2165              	.LBB667:
 2166              	.LBB658:
  71:src/dsp.h     ****     if(f>0.98f)f=0.98f;
 2167              		.loc 2 71 19 view .LVU656
 2168 0930 75EEA55A 		vadd.f32	s11, s11, s11
 2169              	.LVL133:
 2170              	.L150:
  71:src/dsp.h     ****     if(f>0.98f)f=0.98f;
 2171              		.loc 2 71 19 view .LVU657
 2172              	.LBE658:
 2173              	.LBE667:
 2174              	.LBE849:
 350:src/engine.cpp ****         float filtered = moog(mix, eff_cutoff, VOICE.resonance, sr);
 2175              		.loc 1 350 9 is_stmt 1 view .LVU658
 2176              	.LBB850:
 2177              	.LBI581:
  71:src/engine.cpp **** {
 2178              		.loc 1 71 21 view .LVU659
 2179              	.LBE850:
 2180              	.LBE1132:
 2181              	.LBE1148:
  73:src/engine.cpp **** }
 2182              		.loc 1 73 5 view .LVU660
 2183              	.LBB1149:
 2184              	.LBB1133:
 2185              	.LBB851:
 2186              	.LBB668:
 2187              	.LBI582:
  69:src/dsp.h     **** {
 2188              		.loc 2 69 21 view .LVU661
 2189              	.LBB659:
  71:src/dsp.h     ****     if(f>0.98f)f=0.98f;
 2190              		.loc 2 71 5 view .LVU662
  71:src/dsp.h     ****     if(f>0.98f)f=0.98f;
 2191              		.loc 2 71 11 is_stmt 0 view .LVU663
 2192 0934 85EE887A 		vdiv.f32	s14, s11, s16
 2193              	.LVL134:
  72:src/dsp.h     ****     float k  = 3.8f*res;
 2194              		.loc 2 72 5 is_stmt 1 view .LVU664
  75:src/dsp.h     ****     st[0]+=f*(fast_tanh(x)    -fast_tanh(st[0]));
 2195              		.loc 2 75 11 is_stmt 0 view .LVU665
 2196 0938 DDED246A 		vldr.32	s13, [sp, #144]
 2197 093c A6EE850A 		vfma.f32	s0, s13, s10
 2198              	.LVL135:
  72:src/dsp.h     ****     float k  = 3.8f*res;
 2199              		.loc 2 72 5 view .LVU666
 2200 0940 DFEDC66A 		vldr.32	s13, .L448+8
  72:src/dsp.h     ****     float k  = 3.8f*res;
 2201              		.loc 2 72 17 view .LVU667
 2202 0944 B4EE667A 		vcmp.f32	s14, s13
 2203 0948 F1EE10FA 		vmrs	APSR_nzcv, FPSCR
 2204 094c 36FE877A 		vselgt.f32	s14, s13, s14
 2205              	.LVL136:
  73:src/dsp.h     ****     float fb = k*st[3];
ARM GAS  /tmp/claude-502/ccaZRenT.s 			page 55


 2206              		.loc 2 73 5 is_stmt 1 view .LVU668
  74:src/dsp.h     ****     float x  = in - fb;
 2207              		.loc 2 74 5 view .LVU669
  75:src/dsp.h     ****     st[0]+=f*(fast_tanh(x)    -fast_tanh(st[0]));
 2208              		.loc 2 75 5 view .LVU670
  76:src/dsp.h     ****     st[1]+=f*(fast_tanh(st[0])-fast_tanh(st[1]));
 2209              		.loc 2 76 5 view .LVU671
 2210              	.LBB584:
 2211              	.LBI584:
  23:src/dsp.h     **** {
 2212              		.loc 2 23 21 view .LVU672
 2213              	.LBB585:
  25:src/dsp.h     ****     if(x<-3.0f)return -1.0f;
 2214              		.loc 2 25 5 view .LVU673
 2215 0950 F0EE086A 		vmov.f32	s13, #3.0e+0
 2216 0954 B4EEE60A 		vcmpe.f32	s0, s13
 2217 0958 F1EE10FA 		vmrs	APSR_nzcv, FPSCR
 2218 095c 00F39283 		bgt	.L282
  26:src/dsp.h     ****     float x2=x*x;
 2219              		.loc 2 26 5 view .LVU674
 2220 0960 F8EE086A 		vmov.f32	s13, #-3.0e+0
 2221 0964 B4EEE60A 		vcmpe.f32	s0, s13
 2222 0968 F1EE10FA 		vmrs	APSR_nzcv, FPSCR
 2223 096c 00F1CA84 		bmi	.L283
 2224              	.LVL137:
 2225              	.LBB586:
 2226              	.LBI586:
  23:src/dsp.h     **** {
 2227              		.loc 2 23 21 view .LVU675
 2228              	.LBB587:
  27:src/dsp.h     ****     return x*(27.0f+x2)/(27.0f+9.0f*x2);
 2229              		.loc 2 27 5 view .LVU676
  28:src/dsp.h     **** }
 2230              		.loc 2 28 20 is_stmt 0 view .LVU677
 2231 0970 F3EE0B5A 		vmov.f32	s11, #2.7e+1
  27:src/dsp.h     ****     return x*(27.0f+x2)/(27.0f+9.0f*x2);
 2232              		.loc 2 27 11 view .LVU678
 2233 0974 60EE006A 		vmul.f32	s13, s0, s0
 2234              	.LVL138:
  28:src/dsp.h     **** }
 2235              		.loc 2 28 5 is_stmt 1 view .LVU679
  28:src/dsp.h     **** }
 2236              		.loc 2 28 31 is_stmt 0 view .LVU680
 2237 0978 F2EE029A 		vmov.f32	s19, #9.0e+0
 2238 097c B0EE659A 		vmov.f32	s18, s11
 2239 0980 A6EEA99A 		vfma.f32	s18, s13, s19
  28:src/dsp.h     **** }
 2240              		.loc 2 28 20 view .LVU681
 2241 0984 76EEA56A 		vadd.f32	s13, s13, s11
 2242              	.LVL139:
  28:src/dsp.h     **** }
 2243              		.loc 2 28 13 view .LVU682
 2244 0988 26EE800A 		vmul.f32	s0, s13, s0
 2245              	.LVL140:
  28:src/dsp.h     **** }
 2246              		.loc 2 28 39 view .LVU683
 2247 098c C0EE096A 		vdiv.f32	s13, s0, s18
ARM GAS  /tmp/claude-502/ccaZRenT.s 			page 56


 2248              	.L153:
 2249              	.LVL141:
  28:src/dsp.h     **** }
 2250              		.loc 2 28 39 view .LVU684
 2251              	.LBE587:
 2252              	.LBE586:
 2253              	.LBE585:
 2254              	.LBE584:
 2255              	.LBB590:
 2256              	.LBI590:
  23:src/dsp.h     **** {
 2257              		.loc 2 23 21 is_stmt 1 view .LVU685
 2258              	.LBB591:
  25:src/dsp.h     ****     if(x<-3.0f)return -1.0f;
 2259              		.loc 2 25 5 view .LVU686
 2260 0990 F0EE085A 		vmov.f32	s11, #3.0e+0
 2261 0994 F4EEE53A 		vcmpe.f32	s7, s11
 2262 0998 F1EE10FA 		vmrs	APSR_nzcv, FPSCR
 2263 099c 00F33183 		bgt	.L284
  26:src/dsp.h     ****     float x2=x*x;
 2264              		.loc 2 26 5 view .LVU687
 2265 09a0 F8EE085A 		vmov.f32	s11, #-3.0e+0
 2266 09a4 F4EEE53A 		vcmpe.f32	s7, s11
 2267 09a8 F1EE10FA 		vmrs	APSR_nzcv, FPSCR
 2268 09ac 00F1C284 		bmi	.L285
 2269              	.LVL142:
 2270              	.LBB592:
 2271              	.LBI592:
  23:src/dsp.h     **** {
 2272              		.loc 2 23 21 view .LVU688
 2273              	.LBB593:
  27:src/dsp.h     ****     return x*(27.0f+x2)/(27.0f+9.0f*x2);
 2274              		.loc 2 27 5 view .LVU689
  28:src/dsp.h     **** }
 2275              		.loc 2 28 20 is_stmt 0 view .LVU690
 2276 09b0 B3EE0B0A 		vmov.f32	s0, #2.7e+1
  27:src/dsp.h     ****     return x*(27.0f+x2)/(27.0f+9.0f*x2);
 2277              		.loc 2 27 11 view .LVU691
 2278 09b4 63EEA35A 		vmul.f32	s11, s7, s7
 2279              	.LVL143:
  28:src/dsp.h     **** }
 2280              		.loc 2 28 5 is_stmt 1 view .LVU692
  28:src/dsp.h     **** }
 2281              		.loc 2 28 31 is_stmt 0 view .LVU693
 2282 09b8 F2EE029A 		vmov.f32	s19, #9.0e+0
 2283 09bc B0EE409A 		vmov.f32	s18, s0
 2284 09c0 A5EEA99A 		vfma.f32	s18, s11, s19
  28:src/dsp.h     **** }
 2285              		.loc 2 28 20 view .LVU694
 2286 09c4 75EE805A 		vadd.f32	s11, s11, s0
 2287              	.LVL144:
  28:src/dsp.h     **** }
 2288              		.loc 2 28 13 view .LVU695
 2289 09c8 65EEA35A 		vmul.f32	s11, s11, s7
  28:src/dsp.h     **** }
 2290              		.loc 2 28 39 view .LVU696
 2291 09cc 85EE890A 		vdiv.f32	s0, s11, s18
ARM GAS  /tmp/claude-502/ccaZRenT.s 			page 57


 2292              	.LVL145:
 2293              	.L154:
  28:src/dsp.h     **** }
 2294              		.loc 2 28 39 view .LVU697
 2295              	.LBE593:
 2296              	.LBE592:
 2297              	.LBE591:
 2298              	.LBE590:
  76:src/dsp.h     ****     st[1]+=f*(fast_tanh(st[0])-fast_tanh(st[1]));
 2299              		.loc 2 76 31 view .LVU698
 2300 09d0 76EEC06A 		vsub.f32	s13, s13, s0
  76:src/dsp.h     ****     st[1]+=f*(fast_tanh(st[0])-fast_tanh(st[1]));
 2301              		.loc 2 76 10 view .LVU699
 2302 09d4 E6EE873A 		vfma.f32	s7, s13, s14
 2303              	.LBB596:
 2304              	.LBB597:
  25:src/dsp.h     ****     if(x<-3.0f)return -1.0f;
 2305              		.loc 2 25 5 view .LVU700
 2306 09d8 F0EE086A 		vmov.f32	s13, #3.0e+0
 2307 09dc F4EEE63A 		vcmpe.f32	s7, s13
 2308              	.LBE597:
 2309              	.LBE596:
  76:src/dsp.h     ****     st[1]+=f*(fast_tanh(st[0])-fast_tanh(st[1]));
 2310              		.loc 2 76 10 view .LVU701
 2311 09e0 C4ED003A 		vstr.32	s7, [r4]
  77:src/dsp.h     ****     st[2]+=f*(fast_tanh(st[1])-fast_tanh(st[2]));
 2312              		.loc 2 77 5 is_stmt 1 view .LVU702
 2313              	.LVL146:
 2314              	.LBB603:
 2315              	.LBI596:
  23:src/dsp.h     **** {
 2316              		.loc 2 23 21 view .LVU703
 2317              	.LBB600:
  25:src/dsp.h     ****     if(x<-3.0f)return -1.0f;
 2318              		.loc 2 25 5 view .LVU704
 2319 09e4 F1EE10FA 		vmrs	APSR_nzcv, FPSCR
 2320 09e8 00F3FE82 		bgt	.L286
  26:src/dsp.h     ****     float x2=x*x;
 2321              		.loc 2 26 5 view .LVU705
 2322 09ec F8EE086A 		vmov.f32	s13, #-3.0e+0
 2323 09f0 F4EEE63A 		vcmpe.f32	s7, s13
 2324 09f4 F1EE10FA 		vmrs	APSR_nzcv, FPSCR
 2325 09f8 00F18884 		bmi	.L287
 2326              	.LVL147:
 2327              	.LBB598:
 2328              	.LBI598:
  23:src/dsp.h     **** {
 2329              		.loc 2 23 21 view .LVU706
 2330              	.LBB599:
  27:src/dsp.h     ****     return x*(27.0f+x2)/(27.0f+9.0f*x2);
 2331              		.loc 2 27 5 view .LVU707
  28:src/dsp.h     **** }
 2332              		.loc 2 28 20 is_stmt 0 view .LVU708
 2333 09fc F3EE0B5A 		vmov.f32	s11, #2.7e+1
  27:src/dsp.h     ****     return x*(27.0f+x2)/(27.0f+9.0f*x2);
 2334              		.loc 2 27 11 view .LVU709
 2335 0a00 63EEA36A 		vmul.f32	s13, s7, s7
ARM GAS  /tmp/claude-502/ccaZRenT.s 			page 58


 2336              	.LVL148:
  28:src/dsp.h     **** }
 2337              		.loc 2 28 5 is_stmt 1 view .LVU710
  28:src/dsp.h     **** }
 2338              		.loc 2 28 31 is_stmt 0 view .LVU711
 2339 0a04 B2EE029A 		vmov.f32	s18, #9.0e+0
 2340 0a08 B0EE650A 		vmov.f32	s0, s11
 2341 0a0c A6EE890A 		vfma.f32	s0, s13, s18
  28:src/dsp.h     **** }
 2342              		.loc 2 28 20 view .LVU712
 2343 0a10 76EEA56A 		vadd.f32	s13, s13, s11
 2344              	.LVL149:
  28:src/dsp.h     **** }
 2345              		.loc 2 28 13 view .LVU713
 2346 0a14 66EEA33A 		vmul.f32	s7, s13, s7
 2347              	.LVL150:
  28:src/dsp.h     **** }
 2348              		.loc 2 28 39 view .LVU714
 2349 0a18 C3EE806A 		vdiv.f32	s13, s7, s0
 2350              	.LVL151:
 2351              	.L155:
  28:src/dsp.h     **** }
 2352              		.loc 2 28 39 view .LVU715
 2353              	.LBE599:
 2354              	.LBE598:
 2355              	.LBE600:
 2356              	.LBE603:
 2357              	.LBB604:
 2358              	.LBI604:
  23:src/dsp.h     **** {
 2359              		.loc 2 23 21 is_stmt 1 view .LVU716
 2360              	.LBB605:
  25:src/dsp.h     ****     if(x<-3.0f)return -1.0f;
 2361              		.loc 2 25 5 view .LVU717
 2362 0a1c F0EE085A 		vmov.f32	s11, #3.0e+0
 2363 0a20 B4EEE54A 		vcmpe.f32	s8, s11
 2364 0a24 F1EE10FA 		vmrs	APSR_nzcv, FPSCR
 2365 0a28 00F3E882 		bgt	.L288
 2366              	.L430:
  26:src/dsp.h     ****     float x2=x*x;
 2367              		.loc 2 26 5 view .LVU718
 2368 0a2c F8EE085A 		vmov.f32	s11, #-3.0e+0
 2369 0a30 B4EEE54A 		vcmpe.f32	s8, s11
 2370 0a34 F1EE10FA 		vmrs	APSR_nzcv, FPSCR
 2371 0a38 00F17484 		bmi	.L289
 2372              	.LVL152:
 2373              	.LBB606:
 2374              	.LBI606:
  23:src/dsp.h     **** {
 2375              		.loc 2 23 21 view .LVU719
 2376              	.LBB607:
  27:src/dsp.h     ****     return x*(27.0f+x2)/(27.0f+9.0f*x2);
 2377              		.loc 2 27 5 view .LVU720
  28:src/dsp.h     **** }
 2378              		.loc 2 28 20 is_stmt 0 view .LVU721
 2379 0a3c F3EE0B3A 		vmov.f32	s7, #2.7e+1
  27:src/dsp.h     ****     return x*(27.0f+x2)/(27.0f+9.0f*x2);
ARM GAS  /tmp/claude-502/ccaZRenT.s 			page 59


 2380              		.loc 2 27 11 view .LVU722
 2381 0a40 64EE045A 		vmul.f32	s11, s8, s8
 2382              	.LVL153:
  28:src/dsp.h     **** }
 2383              		.loc 2 28 5 is_stmt 1 view .LVU723
  28:src/dsp.h     **** }
 2384              		.loc 2 28 31 is_stmt 0 view .LVU724
 2385 0a44 B2EE029A 		vmov.f32	s18, #9.0e+0
 2386 0a48 B0EE630A 		vmov.f32	s0, s7
 2387 0a4c A5EE890A 		vfma.f32	s0, s11, s18
  28:src/dsp.h     **** }
 2388              		.loc 2 28 20 view .LVU725
 2389 0a50 75EEA35A 		vadd.f32	s11, s11, s7
 2390              	.LVL154:
  28:src/dsp.h     **** }
 2391              		.loc 2 28 13 view .LVU726
 2392 0a54 65EE845A 		vmul.f32	s11, s11, s8
  28:src/dsp.h     **** }
 2393              		.loc 2 28 39 view .LVU727
 2394 0a58 C5EE803A 		vdiv.f32	s7, s11, s0
 2395              	.LVL155:
 2396              	.L156:
  28:src/dsp.h     **** }
 2397              		.loc 2 28 39 view .LVU728
 2398              	.LBE607:
 2399              	.LBE606:
 2400              	.LBE605:
 2401              	.LBE604:
  77:src/dsp.h     ****     st[2]+=f*(fast_tanh(st[1])-fast_tanh(st[2]));
 2402              		.loc 2 77 31 view .LVU729
 2403 0a5c 76EEE36A 		vsub.f32	s13, s13, s7
  77:src/dsp.h     ****     st[2]+=f*(fast_tanh(st[1])-fast_tanh(st[2]));
 2404              		.loc 2 77 10 view .LVU730
 2405 0a60 A7EE264A 		vfma.f32	s8, s14, s13
 2406              	.LBB611:
 2407              	.LBB612:
  25:src/dsp.h     ****     if(x<-3.0f)return -1.0f;
 2408              		.loc 2 25 5 view .LVU731
 2409 0a64 F0EE086A 		vmov.f32	s13, #3.0e+0
 2410 0a68 B4EEE64A 		vcmpe.f32	s8, s13
 2411              	.LBE612:
 2412              	.LBE611:
  77:src/dsp.h     ****     st[2]+=f*(fast_tanh(st[1])-fast_tanh(st[2]));
 2413              		.loc 2 77 10 view .LVU732
 2414 0a6c 84ED014A 		vstr.32	s8, [r4, #4]
 2415              		.loc 2 78 5 is_stmt 1 view .LVU733
 2416              	.LVL156:
 2417              	.LBB618:
 2418              	.LBI611:
  23:src/dsp.h     **** {
 2419              		.loc 2 23 21 view .LVU734
 2420              	.LBB615:
  25:src/dsp.h     ****     if(x<-3.0f)return -1.0f;
 2421              		.loc 2 25 5 view .LVU735
 2422 0a70 F1EE10FA 		vmrs	APSR_nzcv, FPSCR
 2423 0a74 00F30F83 		bgt	.L290
  26:src/dsp.h     ****     float x2=x*x;
ARM GAS  /tmp/claude-502/ccaZRenT.s 			page 60


 2424              		.loc 2 26 5 view .LVU736
 2425 0a78 F8EE086A 		vmov.f32	s13, #-3.0e+0
 2426 0a7c B4EEE64A 		vcmpe.f32	s8, s13
 2427 0a80 F1EE10FA 		vmrs	APSR_nzcv, FPSCR
 2428 0a84 00F14A84 		bmi	.L291
 2429              	.LVL157:
 2430              	.LBB613:
 2431              	.LBI613:
  23:src/dsp.h     **** {
 2432              		.loc 2 23 21 view .LVU737
 2433              	.LBB614:
  27:src/dsp.h     ****     return x*(27.0f+x2)/(27.0f+9.0f*x2);
 2434              		.loc 2 27 5 view .LVU738
  28:src/dsp.h     **** }
 2435              		.loc 2 28 20 is_stmt 0 view .LVU739
 2436 0a88 F3EE0B5A 		vmov.f32	s11, #2.7e+1
  27:src/dsp.h     ****     return x*(27.0f+x2)/(27.0f+9.0f*x2);
 2437              		.loc 2 27 11 view .LVU740
 2438 0a8c 64EE046A 		vmul.f32	s13, s8, s8
 2439              	.LVL158:
  28:src/dsp.h     **** }
 2440              		.loc 2 28 5 is_stmt 1 view .LVU741
  28:src/dsp.h     **** }
 2441              		.loc 2 28 31 is_stmt 0 view .LVU742
 2442 0a90 B2EE020A 		vmov.f32	s0, #9.0e+0
 2443 0a94 F0EE653A 		vmov.f32	s7, s11
 2444 0a98 E6EE803A 		vfma.f32	s7, s13, s0
  28:src/dsp.h     **** }
 2445              		.loc 2 28 20 view .LVU743
 2446 0a9c 76EEA56A 		vadd.f32	s13, s13, s11
 2447              	.LVL159:
  28:src/dsp.h     **** }
 2448              		.loc 2 28 13 view .LVU744
 2449 0aa0 26EE844A 		vmul.f32	s8, s13, s8
 2450              	.LVL160:
  28:src/dsp.h     **** }
 2451              		.loc 2 28 39 view .LVU745
 2452 0aa4 C4EE236A 		vdiv.f32	s13, s8, s7
 2453              	.LVL161:
 2454              	.L157:
  28:src/dsp.h     **** }
 2455              		.loc 2 28 39 view .LVU746
 2456              	.LBE614:
 2457              	.LBE613:
 2458              	.LBE615:
 2459              	.LBE618:
 2460              	.LBB619:
 2461              	.LBI619:
  23:src/dsp.h     **** {
 2462              		.loc 2 23 21 is_stmt 1 view .LVU747
 2463              	.LBB620:
  25:src/dsp.h     ****     if(x<-3.0f)return -1.0f;
 2464              		.loc 2 25 5 view .LVU748
 2465 0aa8 F0EE085A 		vmov.f32	s11, #3.0e+0
 2466 0aac F4EEE54A 		vcmpe.f32	s9, s11
 2467 0ab0 F1EE10FA 		vmrs	APSR_nzcv, FPSCR
 2468 0ab4 00F3EC82 		bgt	.L292
ARM GAS  /tmp/claude-502/ccaZRenT.s 			page 61


  26:src/dsp.h     ****     float x2=x*x;
 2469              		.loc 2 26 5 view .LVU749
 2470 0ab8 F8EE085A 		vmov.f32	s11, #-3.0e+0
 2471 0abc F4EEE54A 		vcmpe.f32	s9, s11
 2472 0ac0 F1EE10FA 		vmrs	APSR_nzcv, FPSCR
 2473 0ac4 00F12684 		bmi	.L293
 2474              	.LVL162:
 2475              	.LBB621:
 2476              	.LBI621:
  23:src/dsp.h     **** {
 2477              		.loc 2 23 21 view .LVU750
 2478              	.LBB622:
  27:src/dsp.h     ****     return x*(27.0f+x2)/(27.0f+9.0f*x2);
 2479              		.loc 2 27 5 view .LVU751
  28:src/dsp.h     **** }
 2480              		.loc 2 28 20 is_stmt 0 view .LVU752
 2481 0ac8 B3EE0B4A 		vmov.f32	s8, #2.7e+1
  27:src/dsp.h     ****     return x*(27.0f+x2)/(27.0f+9.0f*x2);
 2482              		.loc 2 27 11 view .LVU753
 2483 0acc 64EEA45A 		vmul.f32	s11, s9, s9
 2484              	.LVL163:
  28:src/dsp.h     **** }
 2485              		.loc 2 28 5 is_stmt 1 view .LVU754
  28:src/dsp.h     **** }
 2486              		.loc 2 28 31 is_stmt 0 view .LVU755
 2487 0ad0 B2EE020A 		vmov.f32	s0, #9.0e+0
 2488 0ad4 F0EE443A 		vmov.f32	s7, s8
 2489 0ad8 E5EE803A 		vfma.f32	s7, s11, s0
  28:src/dsp.h     **** }
 2490              		.loc 2 28 20 view .LVU756
 2491 0adc 75EE845A 		vadd.f32	s11, s11, s8
 2492              	.LVL164:
  28:src/dsp.h     **** }
 2493              		.loc 2 28 13 view .LVU757
 2494 0ae0 65EEA45A 		vmul.f32	s11, s11, s9
  28:src/dsp.h     **** }
 2495              		.loc 2 28 39 view .LVU758
 2496 0ae4 85EEA34A 		vdiv.f32	s8, s11, s7
 2497              	.LVL165:
 2498              	.L158:
  28:src/dsp.h     **** }
 2499              		.loc 2 28 39 view .LVU759
 2500              	.LBE622:
 2501              	.LBE621:
 2502              	.LBE620:
 2503              	.LBE619:
 2504              		.loc 2 78 31 view .LVU760
 2505 0ae8 76EEC46A 		vsub.f32	s13, s13, s8
 2506              		.loc 2 78 10 view .LVU761
 2507 0aec E7EE264A 		vfma.f32	s9, s14, s13
 2508              	.LBB625:
 2509              	.LBB626:
  25:src/dsp.h     ****     if(x<-3.0f)return -1.0f;
 2510              		.loc 2 25 5 view .LVU762
 2511 0af0 F0EE086A 		vmov.f32	s13, #3.0e+0
 2512 0af4 F4EEE64A 		vcmpe.f32	s9, s13
 2513              	.LBE626:
ARM GAS  /tmp/claude-502/ccaZRenT.s 			page 62


 2514              	.LBE625:
 2515              		.loc 2 78 10 view .LVU763
 2516 0af8 C4ED024A 		vstr.32	s9, [r4, #8]
  79:src/dsp.h     ****     st[3]+=f*(fast_tanh(st[2])-fast_tanh(st[3]));
 2517              		.loc 2 79 5 is_stmt 1 view .LVU764
 2518              	.LVL166:
 2519              	.LBB632:
 2520              	.LBI625:
  23:src/dsp.h     **** {
 2521              		.loc 2 23 21 view .LVU765
 2522              	.LBB629:
  25:src/dsp.h     ****     if(x<-3.0f)return -1.0f;
 2523              		.loc 2 25 5 view .LVU766
 2524 0afc F1EE10FA 		vmrs	APSR_nzcv, FPSCR
 2525 0b00 00F3C382 		bgt	.L294
  26:src/dsp.h     ****     float x2=x*x;
 2526              		.loc 2 26 5 view .LVU767
 2527 0b04 F8EE086A 		vmov.f32	s13, #-3.0e+0
 2528 0b08 F4EEE64A 		vcmpe.f32	s9, s13
 2529 0b0c F1EE10FA 		vmrs	APSR_nzcv, FPSCR
 2530 0b10 00F18284 		bmi	.L295
 2531              	.LVL167:
 2532              	.LBB627:
 2533              	.LBI627:
  23:src/dsp.h     **** {
 2534              		.loc 2 23 21 view .LVU768
 2535              	.LBB628:
  27:src/dsp.h     ****     return x*(27.0f+x2)/(27.0f+9.0f*x2);
 2536              		.loc 2 27 5 view .LVU769
  28:src/dsp.h     **** }
 2537              		.loc 2 28 20 is_stmt 0 view .LVU770
 2538 0b14 F3EE0B5A 		vmov.f32	s11, #2.7e+1
  27:src/dsp.h     ****     return x*(27.0f+x2)/(27.0f+9.0f*x2);
 2539              		.loc 2 27 11 view .LVU771
 2540 0b18 64EEA46A 		vmul.f32	s13, s9, s9
 2541              	.LVL168:
  28:src/dsp.h     **** }
 2542              		.loc 2 28 5 is_stmt 1 view .LVU772
  28:src/dsp.h     **** }
 2543              		.loc 2 28 31 is_stmt 0 view .LVU773
 2544 0b1c F2EE023A 		vmov.f32	s7, #9.0e+0
 2545 0b20 B0EE654A 		vmov.f32	s8, s11
 2546 0b24 A6EEA34A 		vfma.f32	s8, s13, s7
  28:src/dsp.h     **** }
 2547              		.loc 2 28 20 view .LVU774
 2548 0b28 76EEA56A 		vadd.f32	s13, s13, s11
 2549              	.LVL169:
  28:src/dsp.h     **** }
 2550              		.loc 2 28 13 view .LVU775
 2551 0b2c 66EEA44A 		vmul.f32	s9, s13, s9
 2552              	.LVL170:
  28:src/dsp.h     **** }
 2553              		.loc 2 28 39 view .LVU776
 2554 0b30 C4EE846A 		vdiv.f32	s13, s9, s8
 2555              	.LVL171:
 2556              	.L159:
  28:src/dsp.h     **** }
ARM GAS  /tmp/claude-502/ccaZRenT.s 			page 63


 2557              		.loc 2 28 39 view .LVU777
 2558              	.LBE628:
 2559              	.LBE627:
 2560              	.LBE629:
 2561              	.LBE632:
 2562              	.LBB633:
 2563              	.LBI633:
  23:src/dsp.h     **** {
 2564              		.loc 2 23 21 is_stmt 1 view .LVU778
 2565              	.LBB634:
  25:src/dsp.h     ****     if(x<-3.0f)return -1.0f;
 2566              		.loc 2 25 5 view .LVU779
 2567 0b34 F0EE085A 		vmov.f32	s11, #3.0e+0
 2568 0b38 B4EEE55A 		vcmpe.f32	s10, s11
 2569 0b3c F1EE10FA 		vmrs	APSR_nzcv, FPSCR
 2570 0b40 00F36282 		bgt	.L296
  26:src/dsp.h     ****     float x2=x*x;
 2571              		.loc 2 26 5 view .LVU780
 2572 0b44 F8EE085A 		vmov.f32	s11, #-3.0e+0
 2573 0b48 B4EEE55A 		vcmpe.f32	s10, s11
 2574 0b4c F1EE10FA 		vmrs	APSR_nzcv, FPSCR
 2575 0b50 00F1F483 		bmi	.L297
 2576              	.LVL172:
 2577              	.LBB635:
 2578              	.LBI635:
  23:src/dsp.h     **** {
 2579              		.loc 2 23 21 view .LVU781
 2580              	.LBB636:
  27:src/dsp.h     ****     return x*(27.0f+x2)/(27.0f+9.0f*x2);
 2581              		.loc 2 27 5 view .LVU782
  28:src/dsp.h     **** }
 2582              		.loc 2 28 20 is_stmt 0 view .LVU783
 2583 0b54 F3EE0B4A 		vmov.f32	s9, #2.7e+1
  27:src/dsp.h     ****     return x*(27.0f+x2)/(27.0f+9.0f*x2);
 2584              		.loc 2 27 11 view .LVU784
 2585 0b58 65EE055A 		vmul.f32	s11, s10, s10
 2586              	.LVL173:
  28:src/dsp.h     **** }
 2587              		.loc 2 28 5 is_stmt 1 view .LVU785
  28:src/dsp.h     **** }
 2588              		.loc 2 28 31 is_stmt 0 view .LVU786
 2589 0b5c F2EE023A 		vmov.f32	s7, #9.0e+0
 2590 0b60 B0EE644A 		vmov.f32	s8, s9
 2591 0b64 A5EEA34A 		vfma.f32	s8, s11, s7
  28:src/dsp.h     **** }
 2592              		.loc 2 28 20 view .LVU787
 2593 0b68 75EEA45A 		vadd.f32	s11, s11, s9
 2594              	.LVL174:
  28:src/dsp.h     **** }
 2595              		.loc 2 28 13 view .LVU788
 2596 0b6c 65EE855A 		vmul.f32	s11, s11, s10
  28:src/dsp.h     **** }
 2597              		.loc 2 28 39 view .LVU789
 2598 0b70 C5EE844A 		vdiv.f32	s9, s11, s8
 2599              	.LVL175:
 2600              	.L160:
  28:src/dsp.h     **** }
ARM GAS  /tmp/claude-502/ccaZRenT.s 			page 64


 2601              		.loc 2 28 39 view .LVU790
 2602              	.LBE636:
 2603              	.LBE635:
 2604              	.LBE634:
 2605              	.LBE633:
 2606              		.loc 2 79 31 view .LVU791
 2607 0b74 76EEE46A 		vsub.f32	s13, s13, s9
 2608              		.loc 2 79 10 view .LVU792
 2609 0b78 A7EE265A 		vfma.f32	s10, s14, s13
 2610              	.LVL176:
 2611              		.loc 2 79 10 view .LVU793
 2612              	.LBE659:
 2613              	.LBE668:
 2614              	.LBE851:
 2615              	.LBB852:
 2616              	.LBB853:
  80:src/dsp.h     ****     return st[3];
  81:src/dsp.h     **** }
  82:src/dsp.h     **** // Wavefolder distortion
  83:src/dsp.h     **** // Folds signal back when it exceeds threshold — creates rich harmonics.
  84:src/dsp.h     **** // amount 0 = clean, 1 = heavy folding (4 folds)
  85:src/dsp.h     **** static inline float wavefold(float in, float amount)
  86:src/dsp.h     **** {
  87:src/dsp.h     ****     if(amount < 0.01f) return in;
 2617              		.loc 2 87 5 view .LVU794
 2618 0b7c 9FED387A 		vldr.32	s14, .L448+12
 2619              	.LVL177:
 2620              		.loc 2 87 5 view .LVU795
 2621 0b80 B4EEC73A 		vcmpe.f32	s6, s14
 2622 0b84 F1EE10FA 		vmrs	APSR_nzcv, FPSCR
 2623              	.LBE853:
 2624              	.LBE852:
 2625              	.LBB858:
 2626              	.LBB669:
 2627              	.LBB660:
  79:src/dsp.h     ****     return st[3];
 2628              		.loc 2 79 10 view .LVU796
 2629 0b88 84ED035A 		vstr.32	s10, [r4, #12]
  80:src/dsp.h     ****     return st[3];
 2630              		.loc 2 80 5 is_stmt 1 view .LVU797
 2631              	.LVL178:
  80:src/dsp.h     ****     return st[3];
 2632              		.loc 2 80 5 is_stmt 0 view .LVU798
 2633              	.LBE660:
 2634              	.LBE669:
 2635              	.LBE858:
 351:src/engine.cpp **** 
 352:src/engine.cpp ****         // Wavefold distortion (finger 2 pressure)
 353:src/engine.cpp ****         float crushed = wavefold(filtered, s_bitcrush);
 2636              		.loc 1 353 9 is_stmt 1 view .LVU799
 2637              	.LBB859:
 2638              	.LBI852:
  85:src/dsp.h     **** {
 2639              		.loc 2 85 21 view .LVU800
 2640              	.LBB857:
 2641              		.loc 2 87 5 view .LVU801
 2642 0b8c 3BD4     		bmi	.L161
ARM GAS  /tmp/claude-502/ccaZRenT.s 			page 65


  88:src/dsp.h     ****     // Drive the signal harder as amount increases (1x to 5x)
  89:src/dsp.h     ****     float driven = in * (1.0f + amount * 4.0f);
 2643              		.loc 2 89 5 view .LVU802
 2644              		.loc 2 89 31 is_stmt 0 view .LVU803
 2645 0b8e B7EE004A 		vmov.f32	s8, #1.0e+0
 2646 0b92 B1EE007A 		vmov.f32	s14, #4.0e+0
 2647              	.LBB854:
  90:src/dsp.h     ****     // Fold: reflect signal at ±1 boundary repeatedly
  91:src/dsp.h     ****     // fold(x) = 1 - |((x+1) mod 2) - 1|  (triangle fold)
  92:src/dsp.h     ****     float x = driven;
  93:src/dsp.h     ****     // 2 passes of folding for richness
  94:src/dsp.h     ****     for(int fold = 0; fold < 2; fold++) {
  95:src/dsp.h     ****         x = x * 0.5f + 0.5f;           // shift to 0..1
  96:src/dsp.h     ****         x = x - floorf(x);              // wrap to 0..1
  97:src/dsp.h     ****         x = 1.0f - fabsf(2.0f*x - 1.0f); // triangle fold
 2648              		.loc 2 97 33 view .LVU804
 2649 0b96 F0EE004A 		vmov.f32	s9, #2.0e+0
 2650              	.LBE854:
  89:src/dsp.h     ****     // Fold: reflect signal at ±1 boundary repeatedly
 2651              		.loc 2 89 31 view .LVU805
 2652 0b9a F0EE446A 		vmov.f32	s13, s8
  98:src/dsp.h     ****         x = x * 2.0f - 1.0f;           // back to -1..1
  99:src/dsp.h     ****     }
 100:src/dsp.h     ****     // Blend dry/wet so at low amounts it stays subtle
 101:src/dsp.h     ****     return in*(1.0f-amount) + x*amount;
 2653              		.loc 2 101 20 view .LVU806
 2654 0b9e 74EE433A 		vsub.f32	s7, s8, s6
  89:src/dsp.h     ****     // Fold: reflect signal at ±1 boundary repeatedly
 2655              		.loc 2 89 31 view .LVU807
 2656 0ba2 E3EE076A 		vfma.f32	s13, s6, s14
 2657              	.LVL179:
  92:src/dsp.h     ****     // 2 passes of folding for richness
 2658              		.loc 2 92 5 is_stmt 1 view .LVU808
  94:src/dsp.h     ****         x = x * 0.5f + 0.5f;           // shift to 0..1
 2659              		.loc 2 94 5 view .LVU809
 2660              	.LBB855:
  94:src/dsp.h     ****         x = x * 0.5f + 0.5f;           // shift to 0..1
 2661              		.loc 2 94 28 view .LVU810
  95:src/dsp.h     ****         x = x - floorf(x);              // wrap to 0..1
 2662              		.loc 2 95 9 view .LVU811
  95:src/dsp.h     ****         x = x - floorf(x);              // wrap to 0..1
 2663              		.loc 2 95 11 is_stmt 0 view .LVU812
 2664 0ba6 B6EE007A 		vmov.f32	s14, #5.0e-1
 2665 0baa F0EE475A 		vmov.f32	s11, s14
 2666              	.LBE855:
  89:src/dsp.h     ****     // Fold: reflect signal at ±1 boundary repeatedly
 2667              		.loc 2 89 11 view .LVU813
 2668 0bae 66EE856A 		vmul.f32	s13, s13, s10
 2669              	.LVL180:
 2670              	.LBB856:
  95:src/dsp.h     ****         x = x - floorf(x);              // wrap to 0..1
 2671              		.loc 2 95 11 view .LVU814
 2672 0bb2 E6EE875A 		vfma.f32	s11, s13, s14
 2673              	.LVL181:
  96:src/dsp.h     ****         x = 1.0f - fabsf(2.0f*x - 1.0f); // triangle fold
 2674              		.loc 2 96 9 is_stmt 1 view .LVU815
  97:src/dsp.h     ****         x = x * 2.0f - 1.0f;           // back to -1..1
ARM GAS  /tmp/claude-502/ccaZRenT.s 			page 66


 2675              		.loc 2 97 33 is_stmt 0 view .LVU816
 2676 0bb6 FFEE006A 		vmov.f32	s13, #-1.0e+0
 2677              	.LVL182:
  96:src/dsp.h     ****         x = 1.0f - fabsf(2.0f*x - 1.0f); // triangle fold
 2678              		.loc 2 96 23 view .LVU817
 2679 0bba BBFE650A 		vrintm.f32	s0, s11
 2680              	.LVL183:
  97:src/dsp.h     ****         x = x * 2.0f - 1.0f;           // back to -1..1
 2681              		.loc 2 97 9 is_stmt 1 view .LVU818
  96:src/dsp.h     ****         x = 1.0f - fabsf(2.0f*x - 1.0f); // triangle fold
 2682              		.loc 2 96 11 is_stmt 0 view .LVU819
 2683 0bbe 35EEC00A 		vsub.f32	s0, s11, s0
 2684              	.LVL184:
  97:src/dsp.h     ****         x = x * 2.0f - 1.0f;           // back to -1..1
 2685              		.loc 2 97 33 view .LVU820
 2686 0bc2 F0EE665A 		vmov.f32	s11, s13
 2687 0bc6 E0EE245A 		vfma.f32	s11, s0, s9
  98:src/dsp.h     ****     }
 2688              		.loc 2 98 11 view .LVU821
 2689 0bca B0EE660A 		vmov.f32	s0, s13
 2690              	.LVL185:
  97:src/dsp.h     ****         x = x * 2.0f - 1.0f;           // back to -1..1
 2691              		.loc 2 97 25 view .LVU822
 2692 0bce F0EEE55A 		vabs.f32	s11, s11
  97:src/dsp.h     ****         x = x * 2.0f - 1.0f;           // back to -1..1
 2693              		.loc 2 97 11 view .LVU823
 2694 0bd2 74EE655A 		vsub.f32	s11, s8, s11
 2695              	.LVL186:
  98:src/dsp.h     ****     }
 2696              		.loc 2 98 9 is_stmt 1 view .LVU824
  98:src/dsp.h     ****     }
 2697              		.loc 2 98 11 is_stmt 0 view .LVU825
 2698 0bd6 A5EEA40A 		vfma.f32	s0, s11, s9
 2699              	.LVL187:
  94:src/dsp.h     ****         x = x * 0.5f + 0.5f;           // shift to 0..1
 2700              		.loc 2 94 5 is_stmt 1 view .LVU826
  94:src/dsp.h     ****         x = x * 0.5f + 0.5f;           // shift to 0..1
 2701              		.loc 2 94 28 view .LVU827
  95:src/dsp.h     ****         x = x - floorf(x);              // wrap to 0..1
 2702              		.loc 2 95 9 view .LVU828
  95:src/dsp.h     ****         x = x - floorf(x);              // wrap to 0..1
 2703              		.loc 2 95 11 is_stmt 0 view .LVU829
 2704 0bda A0EE077A 		vfma.f32	s14, s0, s14
 2705              	.LVL188:
  96:src/dsp.h     ****         x = 1.0f - fabsf(2.0f*x - 1.0f); // triangle fold
 2706              		.loc 2 96 9 is_stmt 1 view .LVU830
  96:src/dsp.h     ****         x = 1.0f - fabsf(2.0f*x - 1.0f); // triangle fold
 2707              		.loc 2 96 23 is_stmt 0 view .LVU831
 2708 0bde FBFE475A 		vrintm.f32	s11, s14
 2709              	.LVL189:
  97:src/dsp.h     ****         x = x * 2.0f - 1.0f;           // back to -1..1
 2710              		.loc 2 97 9 is_stmt 1 view .LVU832
  96:src/dsp.h     ****         x = 1.0f - fabsf(2.0f*x - 1.0f); // triangle fold
 2711              		.loc 2 96 11 is_stmt 0 view .LVU833
 2712 0be2 37EE657A 		vsub.f32	s14, s14, s11
 2713              	.LVL190:
  97:src/dsp.h     ****         x = x * 2.0f - 1.0f;           // back to -1..1
ARM GAS  /tmp/claude-502/ccaZRenT.s 			page 67


 2714              		.loc 2 97 33 view .LVU834
 2715 0be6 F0EE665A 		vmov.f32	s11, s13
 2716 0bea E7EE245A 		vfma.f32	s11, s14, s9
  97:src/dsp.h     ****         x = x * 2.0f - 1.0f;           // back to -1..1
 2717              		.loc 2 97 25 view .LVU835
 2718 0bee F0EEE55A 		vabs.f32	s11, s11
  97:src/dsp.h     ****         x = x * 2.0f - 1.0f;           // back to -1..1
 2719              		.loc 2 97 11 view .LVU836
 2720 0bf2 74EE655A 		vsub.f32	s11, s8, s11
 2721              	.LVL191:
  98:src/dsp.h     ****     }
 2722              		.loc 2 98 9 is_stmt 1 view .LVU837
  98:src/dsp.h     ****     }
 2723              		.loc 2 98 11 is_stmt 0 view .LVU838
 2724 0bf6 E5EEA46A 		vfma.f32	s13, s11, s9
 2725              	.LVL192:
  94:src/dsp.h     ****         x = x * 0.5f + 0.5f;           // shift to 0..1
 2726              		.loc 2 94 5 is_stmt 1 view .LVU839
  94:src/dsp.h     ****         x = x * 0.5f + 0.5f;           // shift to 0..1
 2727              		.loc 2 94 28 view .LVU840
 2728              	.LBE856:
 2729              		.loc 2 101 5 view .LVU841
 2730              		.loc 2 101 32 is_stmt 0 view .LVU842
 2731 0bfa 63EE266A 		vmul.f32	s13, s6, s13
 2732              	.LVL193:
 2733              		.loc 2 101 33 view .LVU843
 2734 0bfe E3EE856A 		vfma.f32	s13, s7, s10
 2735 0c02 B0EE665A 		vmov.f32	s10, s13
 2736              	.LVL194:
 2737              	.L161:
 2738              		.loc 2 101 33 view .LVU844
 2739              	.LBE857:
 2740              	.LBE859:
 354:src/engine.cpp **** 
 355:src/engine.cpp ****         // Soft clip output
 356:src/engine.cpp ****         float sample = fast_tanh(crushed * 1.3f) * s_amp * s_master_vol;
 2741              		.loc 1 356 9 is_stmt 1 view .LVU845
 2742              		.loc 1 356 33 is_stmt 0 view .LVU846
 2743 0c06 9FED177A 		vldr.32	s14, .L448+16
 2744 0c0a 25EE075A 		vmul.f32	s10, s10, s14
 2745              	.LVL195:
 2746              	.LBB860:
 2747              	.LBI860:
  23:src/dsp.h     **** {
 2748              		.loc 2 23 21 is_stmt 1 view .LVU847
 2749              	.LBB861:
  25:src/dsp.h     ****     if(x<-3.0f)return -1.0f;
 2750              		.loc 2 25 5 view .LVU848
 2751 0c0e B0EE087A 		vmov.f32	s14, #3.0e+0
 2752 0c12 B4EEC75A 		vcmpe.f32	s10, s14
 2753 0c16 F1EE10FA 		vmrs	APSR_nzcv, FPSCR
 2754 0c1a 27DC     		bgt	.L162
  26:src/dsp.h     ****     float x2=x*x;
 2755              		.loc 2 26 5 view .LVU849
 2756 0c1c B8EE087A 		vmov.f32	s14, #-3.0e+0
 2757 0c20 B4EEC75A 		vcmpe.f32	s10, s14
 2758 0c24 F1EE10FA 		vmrs	APSR_nzcv, FPSCR
ARM GAS  /tmp/claude-502/ccaZRenT.s 			page 68


 2759 0c28 00F18B83 		bmi	.L427
 2760              	.LVL196:
 2761              	.LBB862:
 2762              	.LBI862:
  23:src/dsp.h     **** {
 2763              		.loc 2 23 21 view .LVU850
 2764              	.LBB863:
  27:src/dsp.h     ****     return x*(27.0f+x2)/(27.0f+9.0f*x2);
 2765              		.loc 2 27 5 view .LVU851
  28:src/dsp.h     **** }
 2766              		.loc 2 28 20 is_stmt 0 view .LVU852
 2767 0c2c F3EE0B6A 		vmov.f32	s13, #2.7e+1
  27:src/dsp.h     ****     return x*(27.0f+x2)/(27.0f+9.0f*x2);
 2768              		.loc 2 27 11 view .LVU853
 2769 0c30 25EE057A 		vmul.f32	s14, s10, s10
 2770              	.LVL197:
  28:src/dsp.h     **** }
 2771              		.loc 2 28 5 is_stmt 1 view .LVU854
  28:src/dsp.h     **** }
 2772              		.loc 2 28 31 is_stmt 0 view .LVU855
 2773 0c34 F2EE024A 		vmov.f32	s9, #9.0e+0
 2774 0c38 F0EE665A 		vmov.f32	s11, s13
 2775 0c3c E7EE245A 		vfma.f32	s11, s14, s9
 2776              	.LVL198:
  28:src/dsp.h     **** }
 2777              		.loc 2 28 20 view .LVU856
 2778 0c40 37EE267A 		vadd.f32	s14, s14, s13
  28:src/dsp.h     **** }
 2779              		.loc 2 28 13 view .LVU857
 2780 0c44 27EE055A 		vmul.f32	s10, s14, s10
 2781              	.LVL199:
  28:src/dsp.h     **** }
 2782              		.loc 2 28 39 view .LVU858
 2783 0c48 85EE257A 		vdiv.f32	s14, s10, s11
 2784              	.LBE863:
 2785              	.LBE862:
 2786              	.LBE861:
 2787              	.LBE860:
 2788              		.loc 1 356 50 view .LVU859
 2789 0c4c 26EE076A 		vmul.f32	s12, s12, s14
 2790 0c50 0CE0     		b	.L449
 2791              	.L450:
 2792 0c52 00BF     		.align	2
 2793              	.L448:
 2794 0c54 00000000 		.word	.LANCHOR46
 2795 0c58 00409C46 		.word	1184645120
 2796 0c5c 48E17A3F 		.word	1065017672
 2797 0c60 0AD7233C 		.word	1008981770
 2798 0c64 6666A63F 		.word	1067869798
 2799 0c68 00007043 		.word	1131413504
 2800              	.L449:
 2801              	.L162:
 2802              	.LBB864:
 357:src/engine.cpp **** 
 358:src/engine.cpp ****         // Drums MultiVoice: replace the (silent) mono output with the summed
 359:src/engine.cpp ****         // polyphonic drum voices, soft-clipped, at master volume.
 360:src/engine.cpp ****         if(poly_drums){
ARM GAS  /tmp/claude-502/ccaZRenT.s 			page 69


 2803              		.loc 1 360 9 view .LVU860
 2804 0c6c 0D9B     		ldr	r3, [sp, #52]
 2805              	.LBE864:
 356:src/engine.cpp **** 
 2806              		.loc 1 356 60 view .LVU861
 2807 0c6e 28EE866A 		vmul.f32	s12, s17, s12
 2808              	.LVL200:
 2809              		.loc 1 360 9 is_stmt 1 view .LVU862
 2810              	.LBB1027:
 2811 0c72 0E2B     		cmp	r3, #14
 2812 0c74 00F06D83 		beq	.L428
 2813              	.LVL201:
 2814              	.L165:
 2815              		.loc 1 360 9 is_stmt 0 view .LVU863
 2816              	.LBE1027:
 361:src/engine.cpp ****             float m = 0.0f;
 362:src/engine.cpp ****             for(int k = 0; k < POLY; k++) m += drum_render(g_hits[k], sr);
 363:src/engine.cpp ****             sample = fast_tanh(m) * s_master_vol;
 364:src/engine.cpp ****         }
 365:src/engine.cpp **** 
 366:src/engine.cpp ****         out[0][i] = sample;
 2817              		.loc 1 366 9 is_stmt 1 view .LVU864
 367:src/engine.cpp ****         out[1][i] = sample;
 368:src/engine.cpp **** 
 369:src/engine.cpp ****         // Advance phases
 370:src/engine.cpp ****         s_phase1   += freq_vib*VOICE.osc1_ratio/sr;  if(s_phase1  >=1.0f)s_phase1  -=1.0f;
 2818              		.loc 1 370 31 is_stmt 0 view .LVU865
 2819 0c78 9DED047A 		vldr.32	s14, [sp, #16]
 366:src/engine.cpp ****         out[1][i] = sample;
 2820              		.loc 1 366 19 view .LVU866
 2821 0c7c D9F80030 		ldr	r3, [r9]
 2822              		.loc 1 370 31 view .LVU867
 2823 0c80 67EE877A 		vmul.f32	s15, s15, s14
 2824              	.LVL202:
 371:src/engine.cpp ****         s_phase2   += freq2   /sr;  if(s_phase2  >=1.0f)s_phase2  -=1.0f;
 372:src/engine.cpp ****         s_phase_sub+= freq_sub/sr;  if(s_phase_sub>=1.0f)s_phase_sub-=1.0f;
 373:src/engine.cpp ****         s_phase_oct+= freq_oct/sr;  if(s_phase_oct>=1.0f)s_phase_oct-=1.0f;
 374:src/engine.cpp ****         s_phase_rm += freq_rm /sr;  if(s_phase_rm >=1.0f)s_phase_rm -=1.0f;
 375:src/engine.cpp **** 
 376:src/engine.cpp ****         // LED3 PWM tick. Smooth duty, recompute threshold, compare counter.
 377:src/engine.cpp ****         led3_duty_smooth += (duty_target - led3_duty_smooth) * DUTY_TC;
 2825              		.loc 1 377 42 view .LVU868
 2826 0c84 DDED0E5A 		vldr.32	s11, [sp, #56]
 366:src/engine.cpp ****         out[1][i] = sample;
 2827              		.loc 1 366 19 view .LVU869
 2828 0c88 03EB8803 		add	r3, r3, r8, lsl #2
 378:src/engine.cpp ****         uint32_t threshold = (uint32_t)(led3_duty_smooth * (float)PWM_LEVELS + 0.5f);
 2829              		.loc 1 378 78 view .LVU870
 2830 0c8c 5FED0A6A 		vldr.32	s13, .L448+20
 379:src/engine.cpp ****         if(threshold > PWM_LEVELS) threshold = PWM_LEVELS;
 380:src/engine.cpp ****         if(++pwm_counter >= PWM_LEVELS) pwm_counter = 0;
 2831              		.loc 1 380 12 view .LVU871
 2832 0c90 DF4A     		ldr	r2, .L451
 370:src/engine.cpp ****         s_phase2   += freq2   /sr;  if(s_phase2  >=1.0f)s_phase2  -=1.0f;
 2833              		.loc 1 370 48 view .LVU872
 2834 0c92 87EE887A 		vdiv.f32	s14, s15, s16
 371:src/engine.cpp ****         s_phase_sub+= freq_sub/sr;  if(s_phase_sub>=1.0f)s_phase_sub-=1.0f;
ARM GAS  /tmp/claude-502/ccaZRenT.s 			page 70


 2835              		.loc 1 371 31 view .LVU873
 2836 0c96 DDED0A7A 		vldr.32	s15, [sp, #40]
 366:src/engine.cpp ****         out[1][i] = sample;
 2837              		.loc 1 366 19 view .LVU874
 2838 0c9a 83ED006A 		vstr.32	s12, [r3]
 2839              	.LVL203:
 367:src/engine.cpp **** 
 2840              		.loc 1 367 9 is_stmt 1 view .LVU875
 367:src/engine.cpp **** 
 2841              		.loc 1 367 19 is_stmt 0 view .LVU876
 2842 0c9e D9F80430 		ldr	r3, [r9, #4]
 2843              		.loc 1 380 12 view .LVU877
 2844 0ca2 1168     		ldr	r1, [r2]
 367:src/engine.cpp **** 
 2845              		.loc 1 367 19 view .LVU878
 2846 0ca4 03EB8803 		add	r3, r3, r8, lsl #2
 371:src/engine.cpp ****         s_phase_sub+= freq_sub/sr;  if(s_phase_sub>=1.0f)s_phase_sub-=1.0f;
 2847              		.loc 1 371 31 view .LVU879
 2848 0ca8 C7EE887A 		vdiv.f32	s15, s15, s16
 367:src/engine.cpp **** 
 2849              		.loc 1 367 19 view .LVU880
 2850 0cac 83ED006A 		vstr.32	s12, [r3]
 370:src/engine.cpp ****         s_phase2   += freq2   /sr;  if(s_phase2  >=1.0f)s_phase2  -=1.0f;
 2851              		.loc 1 370 9 is_stmt 1 view .LVU881
 370:src/engine.cpp ****         s_phase2   += freq2   /sr;  if(s_phase2  >=1.0f)s_phase2  -=1.0f;
 2852              		.loc 1 370 54 view .LVU882
 370:src/engine.cpp ****         s_phase2   += freq2   /sr;  if(s_phase2  >=1.0f)s_phase2  -=1.0f;
 2853              		.loc 1 370 84 is_stmt 0 view .LVU883
 2854 0cb0 D84B     		ldr	r3, .L451+4
 377:src/engine.cpp ****         uint32_t threshold = (uint32_t)(led3_duty_smooth * (float)PWM_LEVELS + 0.5f);
 2855              		.loc 1 377 26 view .LVU884
 2856 0cb2 9FEDD96A 		vldr.32	s12, .L451+8
 2857              	.LVL204:
 370:src/engine.cpp ****         s_phase2   += freq2   /sr;  if(s_phase2  >=1.0f)s_phase2  -=1.0f;
 2858              		.loc 1 370 20 view .LVU885
 2859 0cb6 37EE207A 		vadd.f32	s14, s14, s1
 370:src/engine.cpp ****         s_phase2   += freq2   /sr;  if(s_phase2  >=1.0f)s_phase2  -=1.0f;
 2860              		.loc 1 370 54 view .LVU886
 2861 0cba F7EE000A 		vmov.f32	s1, #1.0e+0
 2862 0cbe B4EEE07A 		vcmpe.f32	s14, s1
 371:src/engine.cpp ****         s_phase_sub+= freq_sub/sr;  if(s_phase_sub>=1.0f)s_phase_sub-=1.0f;
 2863              		.loc 1 371 20 view .LVU887
 2864 0cc2 77EE817A 		vadd.f32	s15, s15, s2
 371:src/engine.cpp ****         s_phase_sub+= freq_sub/sr;  if(s_phase_sub>=1.0f)s_phase_sub-=1.0f;
 2865              		.loc 1 371 37 view .LVU888
 2866 0cc6 B7EE001A 		vmov.f32	s2, #1.0e+0
 370:src/engine.cpp ****         s_phase2   += freq2   /sr;  if(s_phase2  >=1.0f)s_phase2  -=1.0f;
 2867              		.loc 1 370 54 view .LVU889
 2868 0cca F1EE10FA 		vmrs	APSR_nzcv, FPSCR
 370:src/engine.cpp ****         s_phase2   += freq2   /sr;  if(s_phase2  >=1.0f)s_phase2  -=1.0f;
 2869              		.loc 1 370 74 is_stmt 1 view .LVU890
 371:src/engine.cpp ****         s_phase_sub+= freq_sub/sr;  if(s_phase_sub>=1.0f)s_phase_sub-=1.0f;
 2870              		.loc 1 371 37 is_stmt 0 view .LVU891
 2871 0cce F4EEC17A 		vcmpe.f32	s15, s2
 370:src/engine.cpp ****         s_phase2   += freq2   /sr;  if(s_phase2  >=1.0f)s_phase2  -=1.0f;
 2872              		.loc 1 370 84 view .LVU892
 2873 0cd2 A8BF     		it	ge
ARM GAS  /tmp/claude-502/ccaZRenT.s 			page 71


 2874 0cd4 37EE607A 		vsubge.f32	s14, s14, s1
 371:src/engine.cpp ****         s_phase_sub+= freq_sub/sr;  if(s_phase_sub>=1.0f)s_phase_sub-=1.0f;
 2875              		.loc 1 371 37 view .LVU893
 2876 0cd8 F1EE10FA 		vmrs	APSR_nzcv, FPSCR
 370:src/engine.cpp ****         s_phase2   += freq2   /sr;  if(s_phase2  >=1.0f)s_phase2  -=1.0f;
 2877              		.loc 1 370 84 view .LVU894
 2878 0cdc 83ED007A 		vstr.32	s14, [r3]
 371:src/engine.cpp ****         s_phase_sub+= freq_sub/sr;  if(s_phase_sub>=1.0f)s_phase_sub-=1.0f;
 2879              		.loc 1 371 9 is_stmt 1 view .LVU895
 371:src/engine.cpp ****         s_phase_sub+= freq_sub/sr;  if(s_phase_sub>=1.0f)s_phase_sub-=1.0f;
 2880              		.loc 1 371 37 view .LVU896
 371:src/engine.cpp ****         s_phase_sub+= freq_sub/sr;  if(s_phase_sub>=1.0f)s_phase_sub-=1.0f;
 2881              		.loc 1 371 57 view .LVU897
 372:src/engine.cpp ****         s_phase_oct+= freq_oct/sr;  if(s_phase_oct>=1.0f)s_phase_oct-=1.0f;
 2882              		.loc 1 372 37 is_stmt 0 view .LVU898
 2883 0ce0 B7EE007A 		vmov.f32	s14, #1.0e+0
 371:src/engine.cpp ****         s_phase_sub+= freq_sub/sr;  if(s_phase_sub>=1.0f)s_phase_sub-=1.0f;
 2884              		.loc 1 371 67 view .LVU899
 2885 0ce4 CD4B     		ldr	r3, .L451+12
 2886 0ce6 A8BF     		it	ge
 2887 0ce8 77EEC17A 		vsubge.f32	s15, s15, s2
 2888 0cec C3ED007A 		vstr.32	s15, [r3]
 372:src/engine.cpp ****         s_phase_oct+= freq_oct/sr;  if(s_phase_oct>=1.0f)s_phase_oct-=1.0f;
 2889              		.loc 1 372 9 is_stmt 1 view .LVU900
 372:src/engine.cpp ****         s_phase_oct+= freq_oct/sr;  if(s_phase_oct>=1.0f)s_phase_oct-=1.0f;
 2890              		.loc 1 372 31 is_stmt 0 view .LVU901
 2891 0cf0 DDED077A 		vldr.32	s15, [sp, #28]
 372:src/engine.cpp ****         s_phase_oct+= freq_oct/sr;  if(s_phase_oct>=1.0f)s_phase_oct-=1.0f;
 2892              		.loc 1 372 69 view .LVU902
 2893 0cf4 CA4B     		ldr	r3, .L451+16
 372:src/engine.cpp ****         s_phase_oct+= freq_oct/sr;  if(s_phase_oct>=1.0f)s_phase_oct-=1.0f;
 2894              		.loc 1 372 31 view .LVU903
 2895 0cf6 C7EE887A 		vdiv.f32	s15, s15, s16
 372:src/engine.cpp ****         s_phase_oct+= freq_oct/sr;  if(s_phase_oct>=1.0f)s_phase_oct-=1.0f;
 2896              		.loc 1 372 20 view .LVU904
 2897 0cfa 77EEA11A 		vadd.f32	s3, s15, s3
 372:src/engine.cpp ****         s_phase_oct+= freq_oct/sr;  if(s_phase_oct>=1.0f)s_phase_oct-=1.0f;
 2898              		.loc 1 372 37 is_stmt 1 view .LVU905
 373:src/engine.cpp ****         s_phase_rm += freq_rm /sr;  if(s_phase_rm >=1.0f)s_phase_rm -=1.0f;
 2899              		.loc 1 373 31 is_stmt 0 view .LVU906
 2900 0cfe DDED087A 		vldr.32	s15, [sp, #32]
 2901 0d02 C7EE887A 		vdiv.f32	s15, s15, s16
 372:src/engine.cpp ****         s_phase_oct+= freq_oct/sr;  if(s_phase_oct>=1.0f)s_phase_oct-=1.0f;
 2902              		.loc 1 372 37 view .LVU907
 2903 0d06 F4EEC71A 		vcmpe.f32	s3, s14
 2904 0d0a F1EE10FA 		vmrs	APSR_nzcv, FPSCR
 372:src/engine.cpp ****         s_phase_oct+= freq_oct/sr;  if(s_phase_oct>=1.0f)s_phase_oct-=1.0f;
 2905              		.loc 1 372 58 is_stmt 1 view .LVU908
 372:src/engine.cpp ****         s_phase_oct+= freq_oct/sr;  if(s_phase_oct>=1.0f)s_phase_oct-=1.0f;
 2906              		.loc 1 372 69 is_stmt 0 view .LVU909
 2907 0d0e A8BF     		it	ge
 2908 0d10 71EEC71A 		vsubge.f32	s3, s3, s14
 373:src/engine.cpp ****         s_phase_rm += freq_rm /sr;  if(s_phase_rm >=1.0f)s_phase_rm -=1.0f;
 2909              		.loc 1 373 37 view .LVU910
 2910 0d14 B7EE007A 		vmov.f32	s14, #1.0e+0
 372:src/engine.cpp ****         s_phase_oct+= freq_oct/sr;  if(s_phase_oct>=1.0f)s_phase_oct-=1.0f;
 2911              		.loc 1 372 69 view .LVU911
ARM GAS  /tmp/claude-502/ccaZRenT.s 			page 72


 2912 0d18 C3ED001A 		vstr.32	s3, [r3]
 373:src/engine.cpp ****         s_phase_rm += freq_rm /sr;  if(s_phase_rm >=1.0f)s_phase_rm -=1.0f;
 2913              		.loc 1 373 9 is_stmt 1 view .LVU912
 373:src/engine.cpp ****         s_phase_rm += freq_rm /sr;  if(s_phase_rm >=1.0f)s_phase_rm -=1.0f;
 2914              		.loc 1 373 69 is_stmt 0 view .LVU913
 2915 0d1c C14B     		ldr	r3, .L451+20
 373:src/engine.cpp ****         s_phase_rm += freq_rm /sr;  if(s_phase_rm >=1.0f)s_phase_rm -=1.0f;
 2916              		.loc 1 373 20 view .LVU914
 2917 0d1e 37EE822A 		vadd.f32	s4, s15, s4
 373:src/engine.cpp ****         s_phase_rm += freq_rm /sr;  if(s_phase_rm >=1.0f)s_phase_rm -=1.0f;
 2918              		.loc 1 373 37 is_stmt 1 view .LVU915
 374:src/engine.cpp **** 
 2919              		.loc 1 374 31 is_stmt 0 view .LVU916
 2920 0d22 DDED097A 		vldr.32	s15, [sp, #36]
 2921 0d26 C7EE887A 		vdiv.f32	s15, s15, s16
 373:src/engine.cpp ****         s_phase_rm += freq_rm /sr;  if(s_phase_rm >=1.0f)s_phase_rm -=1.0f;
 2922              		.loc 1 373 37 view .LVU917
 2923 0d2a B4EEC72A 		vcmpe.f32	s4, s14
 2924 0d2e F1EE10FA 		vmrs	APSR_nzcv, FPSCR
 373:src/engine.cpp ****         s_phase_rm += freq_rm /sr;  if(s_phase_rm >=1.0f)s_phase_rm -=1.0f;
 2925              		.loc 1 373 58 is_stmt 1 view .LVU918
 373:src/engine.cpp ****         s_phase_rm += freq_rm /sr;  if(s_phase_rm >=1.0f)s_phase_rm -=1.0f;
 2926              		.loc 1 373 69 is_stmt 0 view .LVU919
 2927 0d32 A8BF     		it	ge
 2928 0d34 32EE472A 		vsubge.f32	s4, s4, s14
 374:src/engine.cpp **** 
 2929              		.loc 1 374 37 view .LVU920
 2930 0d38 B7EE007A 		vmov.f32	s14, #1.0e+0
 373:src/engine.cpp ****         s_phase_rm += freq_rm /sr;  if(s_phase_rm >=1.0f)s_phase_rm -=1.0f;
 2931              		.loc 1 373 69 view .LVU921
 2932 0d3c 83ED002A 		vstr.32	s4, [r3]
 374:src/engine.cpp **** 
 2933              		.loc 1 374 9 is_stmt 1 view .LVU922
 374:src/engine.cpp **** 
 2934              		.loc 1 374 69 is_stmt 0 view .LVU923
 2935 0d40 B94B     		ldr	r3, .L451+24
 374:src/engine.cpp **** 
 2936              		.loc 1 374 20 view .LVU924
 2937 0d42 77EEA22A 		vadd.f32	s5, s15, s5
 374:src/engine.cpp **** 
 2938              		.loc 1 374 37 is_stmt 1 view .LVU925
 378:src/engine.cpp ****         if(threshold > PWM_LEVELS) threshold = PWM_LEVELS;
 2939              		.loc 1 378 78 is_stmt 0 view .LVU926
 2940 0d46 F6EE007A 		vmov.f32	s15, #5.0e-1
 374:src/engine.cpp **** 
 2941              		.loc 1 374 37 view .LVU927
 2942 0d4a F4EEC72A 		vcmpe.f32	s5, s14
 2943 0d4e F1EE10FA 		vmrs	APSR_nzcv, FPSCR
 374:src/engine.cpp **** 
 2944              		.loc 1 374 58 is_stmt 1 view .LVU928
 374:src/engine.cpp **** 
 2945              		.loc 1 374 69 is_stmt 0 view .LVU929
 2946 0d52 A8BF     		it	ge
 2947 0d54 72EEC72A 		vsubge.f32	s5, s5, s14
 2948 0d58 C3ED002A 		vstr.32	s5, [r3]
 377:src/engine.cpp ****         uint32_t threshold = (uint32_t)(led3_duty_smooth * (float)PWM_LEVELS + 0.5f);
 2949              		.loc 1 377 9 is_stmt 1 view .LVU930
ARM GAS  /tmp/claude-502/ccaZRenT.s 			page 73


 377:src/engine.cpp ****         uint32_t threshold = (uint32_t)(led3_duty_smooth * (float)PWM_LEVELS + 0.5f);
 2950              		.loc 1 377 42 is_stmt 0 view .LVU931
 2951 0d5c B34B     		ldr	r3, .L451+28
 2952 0d5e 93ED007A 		vldr.32	s14, [r3]
 2953 0d62 75EEC75A 		vsub.f32	s11, s11, s14
 377:src/engine.cpp ****         uint32_t threshold = (uint32_t)(led3_duty_smooth * (float)PWM_LEVELS + 0.5f);
 2954              		.loc 1 377 26 view .LVU932
 2955 0d66 A5EE867A 		vfma.f32	s14, s11, s12
 378:src/engine.cpp ****         if(threshold > PWM_LEVELS) threshold = PWM_LEVELS;
 2956              		.loc 1 378 78 view .LVU933
 2957 0d6a E7EE267A 		vfma.f32	s15, s14, s13
 377:src/engine.cpp ****         uint32_t threshold = (uint32_t)(led3_duty_smooth * (float)PWM_LEVELS + 0.5f);
 2958              		.loc 1 377 26 view .LVU934
 2959 0d6e 83ED007A 		vstr.32	s14, [r3]
 378:src/engine.cpp ****         if(threshold > PWM_LEVELS) threshold = PWM_LEVELS;
 2960              		.loc 1 378 9 is_stmt 1 view .LVU935
 2961              		.loc 1 380 12 is_stmt 0 view .LVU936
 2962 0d72 4B1C     		adds	r3, r1, #1
 378:src/engine.cpp ****         if(threshold > PWM_LEVELS) threshold = PWM_LEVELS;
 2963              		.loc 1 378 18 view .LVU937
 2964 0d74 FCEEE77A 		vcvt.u32.f32	s15, s15
 2965 0d78 17EE901A 		vmov	r1, s15	@ int
 2966              	.LVL205:
 379:src/engine.cpp ****         if(++pwm_counter >= PWM_LEVELS) pwm_counter = 0;
 2967              		.loc 1 379 9 is_stmt 1 view .LVU938
 2968 0d7c F029     		cmp	r1, #240
 2969 0d7e 28BF     		it	cs
 2970 0d80 F021     		movcs	r1, #240
 2971              	.LVL206:
 2972              		.loc 1 380 9 view .LVU939
 2973 0d82 EF2B     		cmp	r3, #239
 2974              		.loc 1 380 41 view .LVU940
 381:src/engine.cpp ****         bool desired = (pwm_counter < threshold);
 2975              		.loc 1 381 9 view .LVU941
 380:src/engine.cpp ****         bool desired = (pwm_counter < threshold);
 2976              		.loc 1 380 53 is_stmt 0 view .LVU942
 2977 0d84 84BF     		itt	hi
 2978 0d86 0023     		movhi	r3, #0
 2979 0d88 A14A     		ldrhi	r2, .L451
 2980              		.loc 1 381 14 view .LVU943
 2981 0d8a 9942     		cmp	r1, r3
 380:src/engine.cpp ****         bool desired = (pwm_counter < threshold);
 2982              		.loc 1 380 53 view .LVU944
 2983 0d8c 1360     		str	r3, [r2]
 382:src/engine.cpp ****         if(desired != led3_state){ led3.Write(desired); led3_state = desired; }
 2984              		.loc 1 382 9 view .LVU945
 2985 0d8e A84B     		ldr	r3, .L451+32
 381:src/engine.cpp ****         bool desired = (pwm_counter < threshold);
 2986              		.loc 1 381 14 view .LVU946
 2987 0d90 94BF     		ite	ls
 2988 0d92 0021     		movls	r1, #0
 2989              	.LVL207:
 381:src/engine.cpp ****         bool desired = (pwm_counter < threshold);
 2990              		.loc 1 381 14 view .LVU947
 2991 0d94 0121     		movhi	r1, #1
 2992              	.LVL208:
 2993              		.loc 1 382 9 is_stmt 1 view .LVU948
ARM GAS  /tmp/claude-502/ccaZRenT.s 			page 74


 2994 0d96 1B78     		ldrb	r3, [r3]	@ zero_extendqisi2
 2995 0d98 8B42     		cmp	r3, r1
 2996 0d9a 06D0     		beq	.L244
 2997              		.loc 1 382 36 discriminator 1 view .LVU949
 2998              		.loc 1 382 46 is_stmt 0 discriminator 1 view .LVU950
 2999 0d9c A548     		ldr	r0, .L451+36
 3000 0d9e 0791     		str	r1, [sp, #28]
 3001              	.LVL209:
 3002              		.loc 1 382 46 discriminator 1 view .LVU951
 3003 0da0 FFF7FEFF 		bl	_ZN5daisy4GPIO5WriteEb
 3004              	.LVL210:
 3005              		.loc 1 382 57 is_stmt 1 discriminator 1 view .LVU952
 3006              		.loc 1 382 68 is_stmt 0 discriminator 1 view .LVU953
 3007 0da4 A24B     		ldr	r3, .L451+32
 3008 0da6 0799     		ldr	r1, [sp, #28]
 3009 0da8 1970     		strb	r1, [r3]
 3010              	.LVL211:
 3011              	.L244:
 3012              		.loc 1 382 68 discriminator 1 view .LVU954
 3013              	.LBE1133:
 217:src/engine.cpp ****     {
 3014              		.loc 1 217 5 is_stmt 1 discriminator 2 view .LVU955
 3015 0daa 08F10108 		add	r8, r8, #1
 3016              	.LVL212:
 217:src/engine.cpp ****     {
 3017              		.loc 1 217 21 discriminator 2 view .LVU956
 3018 0dae 0B9B     		ldr	r3, [sp, #44]
 3019 0db0 4345     		cmp	r3, r8
 3020 0db2 00F0ED84 		beq	.L15
 3021              	.LVL213:
 3022              	.L246:
 3023              	.LBB1134:
 220:src/engine.cpp ****         // Cutoff: fast when opening (smoothed), slow when closing (with release)
 3024              		.loc 1 220 9 view .LVU957
 220:src/engine.cpp ****         // Cutoff: fast when opening (smoothed), slow when closing (with release)
 3025              		.loc 1 220 30 is_stmt 0 view .LVU958
 3026 0db6 1A9B     		ldr	r3, [sp, #104]
 220:src/engine.cpp ****         // Cutoff: fast when opening (smoothed), slow when closing (with release)
 3027              		.loc 1 220 54 view .LVU959
 3028 0db8 F7EE005A 		vmov.f32	s11, #1.0e+0
 220:src/engine.cpp ****         // Cutoff: fast when opening (smoothed), slow when closing (with release)
 3029              		.loc 1 220 48 view .LVU960
 3030 0dbc 9DED0C6A 		vldr.32	s12, [sp, #48]
 220:src/engine.cpp ****         // Cutoff: fast when opening (smoothed), slow when closing (with release)
 3031              		.loc 1 220 30 view .LVU961
 3032 0dc0 D3ED007A 		vldr.32	s15, [r3]
 3033              	.LBB1028:
 222:src/engine.cpp ****           s_cutoff = s_cutoff * sc + tcut * (1.0f - sc); }
 3034              		.loc 1 222 28 view .LVU962
 3035 0dc4 029A     		ldr	r2, [sp, #8]
 3036              	.LBE1028:
 220:src/engine.cpp ****         // Cutoff: fast when opening (smoothed), slow when closing (with release)
 3037              		.loc 1 220 54 view .LVU963
 3038 0dc6 35EEE77A 		vsub.f32	s14, s11, s15
 220:src/engine.cpp ****         // Cutoff: fast when opening (smoothed), slow when closing (with release)
 3039              		.loc 1 220 41 view .LVU964
 3040 0dca 1E9B     		ldr	r3, [sp, #120]
ARM GAS  /tmp/claude-502/ccaZRenT.s 			page 75


 3041              	.LBB1029:
 222:src/engine.cpp ****           s_cutoff = s_cutoff * sc + tcut * (1.0f - sc); }
 3042              		.loc 1 222 28 view .LVU965
 3043 0dcc 92ED005A 		vldr.32	s10, [r2]
 3044              	.LBE1029:
 220:src/engine.cpp ****         // Cutoff: fast when opening (smoothed), slow when closing (with release)
 3045              		.loc 1 220 41 view .LVU966
 3046 0dd0 D3ED006A 		vldr.32	s13, [r3]
 220:src/engine.cpp ****         // Cutoff: fast when opening (smoothed), slow when closing (with release)
 3047              		.loc 1 220 48 view .LVU967
 3048 0dd4 27EE067A 		vmul.f32	s14, s14, s12
 3049              	.LBB1030:
 222:src/engine.cpp ****           s_cutoff = s_cutoff * sc + tcut * (1.0f - sc); }
 3050              		.loc 1 222 40 view .LVU968
 3051 0dd8 B4EEEF5A 		vcmpe.f32	s10, s31
 3052              	.LBE1030:
 220:src/engine.cpp ****         // Cutoff: fast when opening (smoothed), slow when closing (with release)
 3053              		.loc 1 220 41 view .LVU969
 3054 0ddc A6EEA77A 		vfma.f32	s14, s13, s15
 3055              	.LBB1031:
 222:src/engine.cpp ****           s_cutoff = s_cutoff * sc + tcut * (1.0f - sc); }
 3056              		.loc 1 222 40 view .LVU970
 3057 0de0 F1EE10FA 		vmrs	APSR_nzcv, FPSCR
 3058              	.LBE1031:
 220:src/engine.cpp ****         // Cutoff: fast when opening (smoothed), slow when closing (with release)
 3059              		.loc 1 220 19 view .LVU971
 3060 0de4 83ED007A 		vstr.32	s14, [r3]
 222:src/engine.cpp ****           s_cutoff = s_cutoff * sc + tcut * (1.0f - sc); }
 3061              		.loc 1 222 9 is_stmt 1 view .LVU972
 3062              	.LBB1032:
 222:src/engine.cpp ****           s_cutoff = s_cutoff * sc + tcut * (1.0f - sc); }
 3063              		.loc 1 222 11 view .LVU973
 222:src/engine.cpp ****           s_cutoff = s_cutoff * sc + tcut * (1.0f - sc); }
 3064              		.loc 1 222 40 is_stmt 0 view .LVU974
 3065 0de8 00F1DB80 		bmi	.L257
 222:src/engine.cpp ****           s_cutoff = s_cutoff * sc + tcut * (1.0f - sc); }
 3066              		.loc 1 222 40 discriminator 2 view .LVU975
 3067 0dec 924B     		ldr	r3, .L451+40
 3068 0dee 93ED004A 		vldr.32	s8, [r3]
 223:src/engine.cpp ****         s_drive   = s_drive   * SLEW_MISC + tdrv * (1.0f - SLEW_MISC);
 3069              		.loc 1 223 51 discriminator 2 view .LVU976
 3070 0df2 75EEC45A 		vsub.f32	s11, s11, s8
 3071              	.L36:
 3072              	.LVL214:
 223:src/engine.cpp ****         s_drive   = s_drive   * SLEW_MISC + tdrv * (1.0f - SLEW_MISC);
 3073              		.loc 1 223 11 is_stmt 1 discriminator 4 view .LVU977
 223:src/engine.cpp ****         s_drive   = s_drive   * SLEW_MISC + tdrv * (1.0f - SLEW_MISC);
 3074              		.loc 1 223 43 is_stmt 0 discriminator 4 view .LVU978
 3075 0df6 6FEEA55A 		vmul.f32	s11, s31, s11
 3076              	.LBE1032:
 224:src/engine.cpp ****         s_vibdepth= s_vibdepth* SLEW_MISC + tvib * (1.0f - SLEW_MISC);
 3077              		.loc 1 224 43 discriminator 4 view .LVU979
 3078 0dfa 1F9A     		ldr	r2, [sp, #124]
 3079              	.LBB1033:
 227:src/engine.cpp ****           s_detune   = s_detune   * sa + tdet * (1.0f - sa); }
 3080              		.loc 1 227 31 discriminator 4 view .LVU980
 3081 0dfc 209B     		ldr	r3, [sp, #128]
ARM GAS  /tmp/claude-502/ccaZRenT.s 			page 76


 3082              	.LBE1033:
 224:src/engine.cpp ****         s_vibdepth= s_vibdepth* SLEW_MISC + tvib * (1.0f - SLEW_MISC);
 3083              		.loc 1 224 43 discriminator 4 view .LVU981
 3084 0dfe D2ED007A 		vldr.32	s15, [r2]
 3085              	.LBB1034:
 223:src/engine.cpp ****         s_drive   = s_drive   * SLEW_MISC + tdrv * (1.0f - SLEW_MISC);
 3086              		.loc 1 223 36 discriminator 4 view .LVU982
 3087 0e02 E5EE045A 		vfma.f32	s11, s10, s8
 3088              	.LBE1034:
 224:src/engine.cpp ****         s_vibdepth= s_vibdepth* SLEW_MISC + tvib * (1.0f - SLEW_MISC);
 3089              		.loc 1 224 43 discriminator 4 view .LVU983
 3090 0e06 9DED0F9A 		vldr.32	s18, [sp, #60]
 3091 0e0a 9FED8C4A 		vldr.32	s8, .L451+44
 3092              	.LVL215:
 3093              	.LBB1035:
 227:src/engine.cpp ****           s_detune   = s_detune   * sa + tdet * (1.0f - sa); }
 3094              		.loc 1 227 31 discriminator 4 view .LVU984
 3095 0e0e 93ED006A 		vldr.32	s12, [r3]
 3096              	.LBE1035:
 224:src/engine.cpp ****         s_vibdepth= s_vibdepth* SLEW_MISC + tvib * (1.0f - SLEW_MISC);
 3097              		.loc 1 224 43 discriminator 4 view .LVU985
 3098 0e12 A7EE849A 		vfma.f32	s18, s15, s8
 3099              	.LBB1036:
 227:src/engine.cpp ****           s_detune   = s_detune   * sa + tdet * (1.0f - sa); }
 3100              		.loc 1 227 44 discriminator 4 view .LVU986
 3101 0e16 DFED8A4A 		vldr.32	s9, .L451+48
 3102 0e1a B4EEEE6A 		vcmpe.f32	s12, s29
 3103 0e1e DFED896A 		vldr.32	s13, .L451+52
 3104              	.LBE1036:
 3105              	.LBB1037:
 223:src/engine.cpp ****         s_drive   = s_drive   * SLEW_MISC + tdrv * (1.0f - SLEW_MISC);
 3106              		.loc 1 223 20 discriminator 4 view .LVU987
 3107 0e22 0299     		ldr	r1, [sp, #8]
 3108              	.LBE1037:
 3109              	.LBB1038:
 227:src/engine.cpp ****           s_detune   = s_detune   * sa + tdet * (1.0f - sa); }
 3110              		.loc 1 227 44 discriminator 4 view .LVU988
 3111 0e24 DFED887A 		vldr.32	s15, .L451+56
 3112 0e28 F1EE10FA 		vmrs	APSR_nzcv, FPSCR
 3113 0e2c 9FED875A 		vldr.32	s10, .L451+60
 3114              	.LBE1038:
 3115              	.LBB1039:
 223:src/engine.cpp ****         s_drive   = s_drive   * SLEW_MISC + tdrv * (1.0f - SLEW_MISC);
 3116              		.loc 1 223 20 discriminator 4 view .LVU989
 3117 0e30 C1ED005A 		vstr.32	s11, [r1]
 3118              	.LBE1039:
 224:src/engine.cpp ****         s_vibdepth= s_vibdepth* SLEW_MISC + tvib * (1.0f - SLEW_MISC);
 3119              		.loc 1 224 9 is_stmt 1 discriminator 4 view .LVU990
 224:src/engine.cpp ****         s_vibdepth= s_vibdepth* SLEW_MISC + tvib * (1.0f - SLEW_MISC);
 3120              		.loc 1 224 19 is_stmt 0 discriminator 4 view .LVU991
 3121 0e34 82ED009A 		vstr.32	s18, [r2]
 225:src/engine.cpp ****         // Finger 2 params: fast attack, slow release
 3122              		.loc 1 225 9 is_stmt 1 discriminator 4 view .LVU992
 3123              	.LBB1040:
 229:src/engine.cpp ****           s_bitcrush = s_bitcrush * sa + tbc  * (1.0f - sa); }
 3124              		.loc 1 229 31 is_stmt 0 discriminator 4 view .LVU993
 3125 0e38 219A     		ldr	r2, [sp, #132]
ARM GAS  /tmp/claude-502/ccaZRenT.s 			page 77


 3126              	.LBE1040:
 3127              	.LBB1041:
 227:src/engine.cpp ****           s_detune   = s_detune   * sa + tdet * (1.0f - sa); }
 3128              		.loc 1 227 44 discriminator 4 view .LVU994
 3129 0e3a 54BF     		ite	pl
 3130 0e3c F0EE661A 		vmovpl.f32	s3, s13
 3131 0e40 F0EE641A 		vmovmi.f32	s3, s9
 3132              	.LBE1041:
 3133              	.LBB1042:
 231:src/engine.cpp ****           s_ringmod  = s_ringmod  * sa + trm  * (1.0f - sa); }
 3134              		.loc 1 231 31 discriminator 4 view .LVU995
 3135 0e44 2299     		ldr	r1, [sp, #136]
 3136              	.LBE1042:
 3137              	.LBB1043:
 227:src/engine.cpp ****           s_detune   = s_detune   * sa + tdet * (1.0f - sa); }
 3138              		.loc 1 227 44 discriminator 4 view .LVU996
 3139 0e46 54BF     		ite	pl
 3140 0e48 F0EE453A 		vmovpl.f32	s7, s10
 3141 0e4c F0EE673A 		vmovmi.f32	s7, s15
 3142              	.LBE1043:
 3143              	.LBB1044:
 229:src/engine.cpp ****           s_bitcrush = s_bitcrush * sa + tbc  * (1.0f - sa); }
 3144              		.loc 1 229 31 discriminator 4 view .LVU997
 3145 0e50 92ED002A 		vldr.32	s4, [r2]
 3146              	.LBE1044:
 3147              	.LBB1045:
 231:src/engine.cpp ****           s_ringmod  = s_ringmod  * sa + trm  * (1.0f - sa); }
 3148              		.loc 1 231 31 discriminator 4 view .LVU998
 3149 0e54 D1ED002A 		vldr.32	s5, [r1]
 3150              	.LBE1045:
 3151              	.LBB1046:
 228:src/engine.cpp ****         { float sa = tbc      > s_bitcrush ? SLEW_F2_A : SLEW_F2_R;
 3152              		.loc 1 228 47 discriminator 4 view .LVU999
 3153 0e58 6EEEA11A 		vmul.f32	s3, s29, s3
 3154              	.LBE1046:
 3155              	.LBB1047:
 229:src/engine.cpp ****           s_bitcrush = s_bitcrush * sa + tbc  * (1.0f - sa); }
 3156              		.loc 1 229 44 discriminator 4 view .LVU1000
 3157 0e5c B4EECB2A 		vcmpe.f32	s4, s22
 3158              	.LBE1047:
 3159              	.LBB1048:
 228:src/engine.cpp ****         { float sa = tbc      > s_bitcrush ? SLEW_F2_A : SLEW_F2_R;
 3160              		.loc 1 228 40 discriminator 4 view .LVU1001
 3161 0e60 E6EE231A 		vfma.f32	s3, s12, s7
 3162              	.LBE1048:
 3163              	.LBB1049:
 229:src/engine.cpp ****           s_bitcrush = s_bitcrush * sa + tbc  * (1.0f - sa); }
 3164              		.loc 1 229 44 discriminator 4 view .LVU1002
 3165 0e64 F1EE10FA 		vmrs	APSR_nzcv, FPSCR
 3166              	.LBE1049:
 3167              	.LBB1050:
 231:src/engine.cpp ****           s_ringmod  = s_ringmod  * sa + trm  * (1.0f - sa); }
 3168              		.loc 1 231 44 discriminator 4 view .LVU1003
 3169 0e68 F4EEEB2A 		vcmpe.f32	s5, s23
 3170              	.LBE1050:
 236:src/engine.cpp ****         float eff_tamp = tamp * s_decay;
 3171              		.loc 1 236 59 discriminator 4 view .LVU1004
ARM GAS  /tmp/claude-502/ccaZRenT.s 			page 78


 3172 0e6c B7EE006A 		vmov.f32	s12, #1.0e+0
 3173              	.LBB1051:
 229:src/engine.cpp ****           s_bitcrush = s_bitcrush * sa + tbc  * (1.0f - sa); }
 3174              		.loc 1 229 44 discriminator 4 view .LVU1005
 3175 0e70 54BF     		ite	pl
 3176 0e72 B0EE663A 		vmovpl.f32	s6, s13
 3177 0e76 B0EE643A 		vmovmi.f32	s6, s9
 3178 0e7a 54BF     		ite	pl
 3179 0e7c B0EE451A 		vmovpl.f32	s2, s10
 3180 0e80 B0EE671A 		vmovmi.f32	s2, s15
 3181              	.LBE1051:
 3182              	.LBB1052:
 231:src/engine.cpp ****           s_ringmod  = s_ringmod  * sa + trm  * (1.0f - sa); }
 3183              		.loc 1 231 44 discriminator 4 view .LVU1006
 3184 0e84 F1EE10FA 		vmrs	APSR_nzcv, FPSCR
 3185              	.LBE1052:
 3186              	.LBB1053:
 228:src/engine.cpp ****         { float sa = tbc      > s_bitcrush ? SLEW_F2_A : SLEW_F2_R;
 3187              		.loc 1 228 22 discriminator 4 view .LVU1007
 3188 0e88 C3ED001A 		vstr.32	s3, [r3]
 3189              	.LBE1053:
 236:src/engine.cpp ****         float eff_tamp = tamp * s_decay;
 3190              		.loc 1 236 27 discriminator 4 view .LVU1008
 3191 0e8c 1C9B     		ldr	r3, [sp, #112]
 3192              	.LBB1054:
 230:src/engine.cpp ****         { float sa = trm      > s_ringmod  ? SLEW_F2_A : SLEW_F2_R;
 3193              		.loc 1 230 47 discriminator 4 view .LVU1009
 3194 0e8e 2BEE033A 		vmul.f32	s6, s22, s6
 3195              	.LBE1054:
 3196              	.LBB1055:
 231:src/engine.cpp ****           s_ringmod  = s_ringmod  * sa + trm  * (1.0f - sa); }
 3197              		.loc 1 231 44 discriminator 4 view .LVU1010
 3198 0e92 48BF     		it	mi
 3199 0e94 F0EE646A 		vmovmi.f32	s13, s9
 3200              	.LBE1055:
 236:src/engine.cpp ****         float eff_tamp = tamp * s_decay;
 3201              		.loc 1 236 27 discriminator 4 view .LVU1011
 3202 0e98 D3ED003A 		vldr.32	s7, [r3]
 3203              	.LBB1056:
 231:src/engine.cpp ****           s_ringmod  = s_ringmod  * sa + trm  * (1.0f - sa); }
 3204              		.loc 1 231 44 discriminator 4 view .LVU1012
 3205 0e9c 58BF     		it	pl
 3206 0e9e F0EE457A 		vmovpl.f32	s15, s10
 3207              	.LBE1056:
 236:src/engine.cpp ****         float eff_tamp = tamp * s_decay;
 3208              		.loc 1 236 51 discriminator 4 view .LVU1013
 3209 0ea2 1D9B     		ldr	r3, [sp, #116]
 236:src/engine.cpp ****         float eff_tamp = tamp * s_decay;
 3210              		.loc 1 236 59 discriminator 4 view .LVU1014
 3211 0ea4 36EE636A 		vsub.f32	s12, s12, s7
 3212              	.LBB1057:
 232:src/engine.cpp ****         // Amp decay-to-sustain: s_decay rides 1 → sustain over decay_ms while the
 3213              		.loc 1 232 47 discriminator 4 view .LVU1015
 3214 0ea8 6BEEA66A 		vmul.f32	s13, s23, s13
 3215              	.LBE1057:
 3216              	.LBB1058:
 230:src/engine.cpp ****         { float sa = trm      > s_ringmod  ? SLEW_F2_A : SLEW_F2_R;
ARM GAS  /tmp/claude-502/ccaZRenT.s 			page 79


 3217              		.loc 1 230 40 discriminator 4 view .LVU1016
 3218 0eac A2EE013A 		vfma.f32	s6, s4, s2
 3219              	.LBE1058:
 225:src/engine.cpp ****         // Finger 2 params: fast attack, slow release
 3220              		.loc 1 225 43 discriminator 4 view .LVU1017
 3221 0eb0 9DED101A 		vldr.32	s2, [sp, #64]
 3222              	.LBB1059:
 232:src/engine.cpp ****         // Amp decay-to-sustain: s_decay rides 1 → sustain over decay_ms while the
 3223              		.loc 1 232 40 discriminator 4 view .LVU1018
 3224 0eb4 E2EEA76A 		vfma.f32	s13, s5, s15
 3225              	.LBE1059:
 236:src/engine.cpp ****         float eff_tamp = tamp * s_decay;
 3226              		.loc 1 236 51 discriminator 4 view .LVU1019
 3227 0eb8 D3ED007A 		vldr.32	s15, [r3]
 225:src/engine.cpp ****         // Finger 2 params: fast attack, slow release
 3228              		.loc 1 225 43 discriminator 4 view .LVU1020
 3229 0ebc 644B     		ldr	r3, .L451+64
 236:src/engine.cpp ****         float eff_tamp = tamp * s_decay;
 3230              		.loc 1 236 51 discriminator 4 view .LVU1021
 3231 0ebe 26EE276A 		vmul.f32	s12, s12, s15
 236:src/engine.cpp ****         float eff_tamp = tamp * s_decay;
 3232              		.loc 1 236 39 discriminator 4 view .LVU1022
 3233 0ec2 DAED007A 		vldr.32	s15, [r10]
 3234              	.LBB1060:
 230:src/engine.cpp ****         { float sa = trm      > s_ringmod  ? SLEW_F2_A : SLEW_F2_R;
 3235              		.loc 1 230 22 discriminator 4 view .LVU1023
 3236 0ec6 82ED003A 		vstr.32	s6, [r2]
 3237              	.LBE1060:
 236:src/engine.cpp ****         float eff_tamp = tamp * s_decay;
 3238              		.loc 1 236 39 discriminator 4 view .LVU1024
 3239 0eca A7EEA36A 		vfma.f32	s12, s15, s7
 225:src/engine.cpp ****         // Finger 2 params: fast attack, slow release
 3240              		.loc 1 225 43 discriminator 4 view .LVU1025
 3241 0ece D3ED007A 		vldr.32	s15, [r3]
 3242              	.LBB1061:
 232:src/engine.cpp ****         // Amp decay-to-sustain: s_decay rides 1 → sustain over decay_ms while the
 3243              		.loc 1 232 22 discriminator 4 view .LVU1026
 3244 0ed2 C1ED006A 		vstr.32	s13, [r1]
 3245              	.LBE1061:
 225:src/engine.cpp ****         // Finger 2 params: fast attack, slow release
 3246              		.loc 1 225 43 discriminator 4 view .LVU1027
 3247 0ed6 A7EE841A 		vfma.f32	s2, s15, s8
 236:src/engine.cpp ****         float eff_tamp = tamp * s_decay;
 3248              		.loc 1 236 17 discriminator 4 view .LVU1028
 3249 0eda 8AED006A 		vstr.32	s12, [r10]
 237:src/engine.cpp ****         // Asymmetric envelope: attack while rising OR decaying-while-held (track the
 3250              		.loc 1 237 15 discriminator 4 view .LVU1029
 3251 0ede 26EE0F6A 		vmul.f32	s12, s12, s30
 225:src/engine.cpp ****         // Finger 2 params: fast attack, slow release
 3252              		.loc 1 225 19 discriminator 4 view .LVU1030
 3253 0ee2 83ED001A 		vstr.32	s2, [r3]
 227:src/engine.cpp ****           s_detune   = s_detune   * sa + tdet * (1.0f - sa); }
 3254              		.loc 1 227 9 is_stmt 1 discriminator 4 view .LVU1031
 3255              	.LBB1062:
 227:src/engine.cpp ****           s_detune   = s_detune   * sa + tdet * (1.0f - sa); }
 3256              		.loc 1 227 11 discriminator 4 view .LVU1032
 228:src/engine.cpp ****         { float sa = tbc      > s_bitcrush ? SLEW_F2_A : SLEW_F2_R;
ARM GAS  /tmp/claude-502/ccaZRenT.s 			page 80


 3257              		.loc 1 228 11 discriminator 4 view .LVU1033
 3258              	.LBE1062:
 229:src/engine.cpp ****           s_bitcrush = s_bitcrush * sa + tbc  * (1.0f - sa); }
 3259              		.loc 1 229 9 discriminator 4 view .LVU1034
 3260              	.LBB1063:
 229:src/engine.cpp ****           s_bitcrush = s_bitcrush * sa + tbc  * (1.0f - sa); }
 3261              		.loc 1 229 11 discriminator 4 view .LVU1035
 3262              	.LVL216:
 230:src/engine.cpp ****         { float sa = trm      > s_ringmod  ? SLEW_F2_A : SLEW_F2_R;
 3263              		.loc 1 230 11 discriminator 4 view .LVU1036
 3264              	.LBE1063:
 231:src/engine.cpp ****           s_ringmod  = s_ringmod  * sa + trm  * (1.0f - sa); }
 3265              		.loc 1 231 9 discriminator 4 view .LVU1037
 3266              	.LBB1064:
 231:src/engine.cpp ****           s_ringmod  = s_ringmod  * sa + trm  * (1.0f - sa); }
 3267              		.loc 1 231 11 discriminator 4 view .LVU1038
 232:src/engine.cpp ****         // Amp decay-to-sustain: s_decay rides 1 → sustain over decay_ms while the
 3268              		.loc 1 232 11 discriminator 4 view .LVU1039
 3269              	.LBE1064:
 236:src/engine.cpp ****         float eff_tamp = tamp * s_decay;
 3270              		.loc 1 236 9 discriminator 4 view .LVU1040
 237:src/engine.cpp ****         // Asymmetric envelope: attack while rising OR decaying-while-held (track the
 3271              		.loc 1 237 9 discriminator 4 view .LVU1041
 241:src/engine.cpp ****         s_amp = s_amp * slew_amp + eff_tamp * (1.0f - slew_amp);
 3272              		.loc 1 241 9 discriminator 4 view .LVU1042
 241:src/engine.cpp ****         s_amp = s_amp * slew_amp + eff_tamp * (1.0f - slew_amp);
 3273              		.loc 1 241 36 is_stmt 0 discriminator 4 view .LVU1043
 3274 0ee6 039B     		ldr	r3, [sp, #12]
 3275 0ee8 D3ED004A 		vldr.32	s9, [r3]
 241:src/engine.cpp ****         s_amp = s_amp * slew_amp + eff_tamp * (1.0f - slew_amp);
 3276              		.loc 1 241 62 discriminator 4 view .LVU1044
 3277 0eec F4EEC64A 		vcmpe.f32	s9, s12
 3278 0ef0 F1EE10FA 		vmrs	APSR_nzcv, FPSCR
 3279              	.LVL217:
 241:src/engine.cpp ****         s_amp = s_amp * slew_amp + eff_tamp * (1.0f - slew_amp);
 3280              		.loc 1 241 62 discriminator 4 view .LVU1045
 3281 0ef4 51D4     		bmi	.L40
 241:src/engine.cpp ****         s_amp = s_amp * slew_amp + eff_tamp * (1.0f - slew_amp);
 3282              		.loc 1 241 44 discriminator 2 view .LVU1046
 3283 0ef6 DFED487A 		vldr.32	s15, .L451+8
 3284 0efa B4EEE7FA 		vcmpe.f32	s30, s15
 3285 0efe F1EE10FA 		vmrs	APSR_nzcv, FPSCR
 3286 0f02 4ADC     		bgt	.L40
 241:src/engine.cpp ****         s_amp = s_amp * slew_amp + eff_tamp * (1.0f - slew_amp);
 3287              		.loc 1 241 62 discriminator 4 view .LVU1047
 3288 0f04 4C4B     		ldr	r3, .L451+40
 3289 0f06 93ED004A 		vldr.32	s8, [r3]
 3290              	.L43:
 3291              	.LVL218:
 242:src/engine.cpp ****         // Master volume slew (smooths FSR jitter / 16 Hz update steps).
 3292              		.loc 1 242 9 is_stmt 1 discriminator 6 view .LVU1048
 242:src/engine.cpp ****         // Master volume slew (smooths FSR jitter / 16 Hz update steps).
 3293              		.loc 1 242 53 is_stmt 0 discriminator 6 view .LVU1049
 3294 0f0a F7EE007A 		vmov.f32	s15, #1.0e+0
 242:src/engine.cpp ****         // Master volume slew (smooths FSR jitter / 16 Hz update steps).
 3295              		.loc 1 242 15 discriminator 6 view .LVU1050
 3296 0f0e 039A     		ldr	r2, [sp, #12]
ARM GAS  /tmp/claude-502/ccaZRenT.s 			page 81


 244:src/engine.cpp ****         // Pitch envelope decays toward 1.0 (no-op when pitch_env_oct == 0).
 3297              		.loc 1 244 49 discriminator 6 view .LVU1051
 3298 0f10 DDED118A 		vldr.32	s17, [sp, #68]
 246:src/engine.cpp **** 
 3299              		.loc 1 246 35 discriminator 6 view .LVU1052
 3300 0f14 239B     		ldr	r3, [sp, #140]
 242:src/engine.cpp ****         // Master volume slew (smooths FSR jitter / 16 Hz update steps).
 3301              		.loc 1 242 53 discriminator 6 view .LVU1053
 3302 0f16 77EEC43A 		vsub.f32	s7, s15, s8
 246:src/engine.cpp **** 
 3303              		.loc 1 246 35 discriminator 6 view .LVU1054
 3304 0f1a 93ED005A 		vldr.32	s10, [r3]
 3305              	.LVL219:
 242:src/engine.cpp ****         // Master volume slew (smooths FSR jitter / 16 Hz update steps).
 3306              		.loc 1 242 45 discriminator 6 view .LVU1055
 3307 0f1e 23EE866A 		vmul.f32	s12, s7, s12
 3308              	.LVL220:
 246:src/engine.cpp **** 
 3309              		.loc 1 246 35 discriminator 6 view .LVU1056
 3310 0f22 35EE675A 		vsub.f32	s10, s10, s15
 242:src/engine.cpp ****         // Master volume slew (smooths FSR jitter / 16 Hz update steps).
 3311              		.loc 1 242 34 discriminator 6 view .LVU1057
 3312 0f26 A4EE846A 		vfma.f32	s12, s9, s8
 244:src/engine.cpp ****         // Pitch envelope decays toward 1.0 (no-op when pitch_env_oct == 0).
 3313              		.loc 1 244 49 discriminator 6 view .LVU1058
 3314 0f2a DFED444A 		vldr.32	s9, .L451+44
 242:src/engine.cpp ****         // Master volume slew (smooths FSR jitter / 16 Hz update steps).
 3315              		.loc 1 242 15 discriminator 6 view .LVU1059
 3316 0f2e 82ED006A 		vstr.32	s12, [r2]
 244:src/engine.cpp ****         // Pitch envelope decays toward 1.0 (no-op when pitch_env_oct == 0).
 3317              		.loc 1 244 9 is_stmt 1 discriminator 6 view .LVU1060
 244:src/engine.cpp ****         // Pitch envelope decays toward 1.0 (no-op when pitch_env_oct == 0).
 3318              		.loc 1 244 49 is_stmt 0 discriminator 6 view .LVU1061
 3319 0f32 484A     		ldr	r2, .L451+68
 3320 0f34 92ED004A 		vldr.32	s8, [r2]
 3321              	.LVL221:
 244:src/engine.cpp ****         // Pitch envelope decays toward 1.0 (no-op when pitch_env_oct == 0).
 3322              		.loc 1 244 49 discriminator 6 view .LVU1062
 3323 0f38 E4EE248A 		vfma.f32	s17, s8, s9
 244:src/engine.cpp ****         // Pitch envelope decays toward 1.0 (no-op when pitch_env_oct == 0).
 3324              		.loc 1 244 22 discriminator 6 view .LVU1063
 3325 0f3c C2ED008A 		vstr.32	s17, [r2]
 246:src/engine.cpp **** 
 3326              		.loc 1 246 9 is_stmt 1 discriminator 6 view .LVU1064
 246:src/engine.cpp **** 
 3327              		.loc 1 246 24 is_stmt 0 discriminator 6 view .LVU1065
 3328 0f40 1B9A     		ldr	r2, [sp, #108]
 3329 0f42 D2ED004A 		vldr.32	s9, [r2]
 3330 0f46 E5EE247A 		vfma.f32	s15, s10, s9
 3331 0f4a B0EE672A 		vmov.f32	s4, s15
 3332              	.LVL222:
 246:src/engine.cpp **** 
 3333              		.loc 1 246 17 discriminator 6 view .LVU1066
 3334 0f4e C3ED007A 		vstr.32	s15, [r3]
 250:src/engine.cpp ****             s_flt[0] *= 0.999f;
 3335              		.loc 1 250 9 is_stmt 1 discriminator 6 view .LVU1067
 3336 0f52 DFED317A 		vldr.32	s15, .L451+8
ARM GAS  /tmp/claude-502/ccaZRenT.s 			page 82


 3337 0f56 B4EEE76A 		vcmpe.f32	s12, s15
 3338 0f5a F1EE10FA 		vmrs	APSR_nzcv, FPSCR
 3339 0f5e 7FF56BAA 		bpl	.L429
 251:src/engine.cpp ****             s_flt[1] *= 0.999f;
 3340              		.loc 1 251 13 view .LVU1068
 251:src/engine.cpp ****             s_flt[1] *= 0.999f;
 3341              		.loc 1 251 22 is_stmt 0 view .LVU1069
 3342 0f62 DFED3A7A 		vldr.32	s15, .L451+60
 3343              	.LVL223:
 251:src/engine.cpp ****             s_flt[1] *= 0.999f;
 3344              		.loc 1 251 22 view .LVU1070
 3345 0f66 D4ED003A 		vldr.32	s7, [r4]
 252:src/engine.cpp ****             s_flt[2] *= 0.999f;
 3346              		.loc 1 252 22 view .LVU1071
 3347 0f6a 94ED014A 		vldr.32	s8, [r4, #4]
 253:src/engine.cpp ****             s_flt[3] *= 0.999f;
 3348              		.loc 1 253 22 view .LVU1072
 3349 0f6e D4ED024A 		vldr.32	s9, [r4, #8]
 251:src/engine.cpp ****             s_flt[1] *= 0.999f;
 3350              		.loc 1 251 22 view .LVU1073
 3351 0f72 63EEA73A 		vmul.f32	s7, s7, s15
 254:src/engine.cpp ****         }
 3352              		.loc 1 254 22 view .LVU1074
 3353 0f76 94ED035A 		vldr.32	s10, [r4, #12]
 252:src/engine.cpp ****             s_flt[2] *= 0.999f;
 3354              		.loc 1 252 22 view .LVU1075
 3355 0f7a 24EE274A 		vmul.f32	s8, s8, s15
 253:src/engine.cpp ****             s_flt[3] *= 0.999f;
 3356              		.loc 1 253 22 view .LVU1076
 3357 0f7e 64EEA74A 		vmul.f32	s9, s9, s15
 254:src/engine.cpp ****         }
 3358              		.loc 1 254 22 view .LVU1077
 3359 0f82 25EE275A 		vmul.f32	s10, s10, s15
 251:src/engine.cpp ****             s_flt[1] *= 0.999f;
 3360              		.loc 1 251 22 view .LVU1078
 3361 0f86 C4ED003A 		vstr.32	s7, [r4]
 252:src/engine.cpp ****             s_flt[2] *= 0.999f;
 3362              		.loc 1 252 13 is_stmt 1 view .LVU1079
 252:src/engine.cpp ****             s_flt[2] *= 0.999f;
 3363              		.loc 1 252 22 is_stmt 0 view .LVU1080
 3364 0f8a 84ED014A 		vstr.32	s8, [r4, #4]
 253:src/engine.cpp ****             s_flt[3] *= 0.999f;
 3365              		.loc 1 253 13 is_stmt 1 view .LVU1081
 253:src/engine.cpp ****             s_flt[3] *= 0.999f;
 3366              		.loc 1 253 22 is_stmt 0 view .LVU1082
 3367 0f8e C4ED024A 		vstr.32	s9, [r4, #8]
 254:src/engine.cpp ****         }
 3368              		.loc 1 254 13 is_stmt 1 view .LVU1083
 254:src/engine.cpp ****         }
 3369              		.loc 1 254 22 is_stmt 0 view .LVU1084
 3370 0f92 84ED035A 		vstr.32	s10, [r4, #12]
 3371 0f96 FFF757BA 		b	.L45
 3372              	.LVL224:
 3373              	.L40:
 241:src/engine.cpp ****         s_amp = s_amp * slew_amp + eff_tamp * (1.0f - slew_amp);
 3374              		.loc 1 241 62 discriminator 3 view .LVU1085
 3375 0f9a 2F4B     		ldr	r3, .L451+72
ARM GAS  /tmp/claude-502/ccaZRenT.s 			page 83


 3376 0f9c 93ED004A 		vldr.32	s8, [r3]
 3377 0fa0 B3E7     		b	.L43
 3378              	.LVL225:
 3379              	.L257:
 3380              	.LBB1065:
 241:src/engine.cpp ****         s_amp = s_amp * slew_amp + eff_tamp * (1.0f - slew_amp);
 3381              		.loc 1 241 62 discriminator 3 view .LVU1086
 3382 0fa2 DFED2E5A 		vldr.32	s11, .L451+76
 222:src/engine.cpp ****           s_cutoff = s_cutoff * sc + tcut * (1.0f - sc); }
 3383              		.loc 1 222 40 view .LVU1087
 3384 0fa6 9FED2E4A 		vldr.32	s8, .L451+80
 3385 0faa 24E7     		b	.L36
 3386              	.LVL226:
 3387              	.L54:
 222:src/engine.cpp ****           s_cutoff = s_cutoff * sc + tcut * (1.0f - sc); }
 3388              		.loc 1 222 40 view .LVU1088
 3389              	.LBE1065:
 3390              	.LBB1066:
 283:src/engine.cpp ****         }
 3391              		.loc 1 283 13 is_stmt 1 view .LVU1089
 283:src/engine.cpp ****         }
 3392              		.loc 1 283 38 is_stmt 0 view .LVU1090
 3393 0fac A823     		movs	r3, #168
 3394 0fae 019A     		ldr	r2, [sp, #4]
 3395 0fb0 03FB0253 		mla	r3, r3, r2, r5
 283:src/engine.cpp ****         }
 3396              		.loc 1 283 19 view .LVU1091
 3397 0fb4 93ED077A 		vldr.32	s14, [r3, #28]
 3398 0fb8 27EE877A 		vmul.f32	s14, s15, s14
 3399 0fbc 8DED0A7A 		vstr.32	s14, [sp, #40]
 3400              	.LVL227:
 283:src/engine.cpp ****         }
 3401              		.loc 1 283 19 view .LVU1092
 3402 0fc0 FFF799BA 		b	.L55
 3403              	.LVL228:
 3404              	.L370:
 283:src/engine.cpp ****         }
 3405              		.loc 1 283 19 view .LVU1093
 3406              	.LBE1066:
 3407              	.LBB1067:
 3408              	.LBB685:
  41:src/dsp.h     **** }
 3409              		.loc 2 41 19 view .LVU1094
 3410 0fc4 F0EE087A 		vmov.f32	s15, #3.0e+0
 3411 0fc8 E2EEE07A 		vfms.f32	s15, s5, s1
 3412 0fcc FFF771BA 		b	.L53
 3413              	.LVL229:
 3414              	.L280:
  41:src/dsp.h     **** }
 3415              		.loc 2 41 19 view .LVU1095
 3416              	.LBE685:
 3417              	.LBE1067:
 3418              	.LBB1068:
 3419              	.LBB847:
 3420 0fd0 DFED245A 		vldr.32	s11, .L451+84
 3421              	.LVL230:
  41:src/dsp.h     **** }
ARM GAS  /tmp/claude-502/ccaZRenT.s 			page 84


 3422              		.loc 2 41 19 view .LVU1096
 3423 0fd4 AEE4     		b	.L150
 3424              	.LVL231:
 3425              	.L388:
  41:src/dsp.h     **** }
 3426              		.loc 2 41 19 view .LVU1097
 3427              	.LBE847:
 3428              	.LBE1068:
 3429              	.LBB1069:
 3430              	.LBB836:
 3431 0fd6 F0EE089A 		vmov.f32	s19, #3.0e+0
 3432 0fda E2EEC09A 		vfms.f32	s19, s5, s0
 3433 0fde 6CE4     		b	.L148
 3434              	.LVL232:
 3435              	.L379:
  41:src/dsp.h     **** }
 3436              		.loc 2 41 19 view .LVU1098
 3437              	.LBE836:
 3438              	.LBE1069:
 303:src/engine.cpp ****         if(VOICE.noise_level > 0.0f){
 3439              		.loc 1 303 15 view .LVU1099
 3440 0fe0 9FED210A 		vldr.32	s0, .L451+88
 3441 0fe4 FFF74BBB 		b	.L96
 3442              	.LVL233:
 3443              	.L286:
 3444              	.LBB1070:
 3445              	.LBB670:
 3446              	.LBB661:
 3447              	.LBB639:
 3448              	.LBB608:
  25:src/dsp.h     ****     if(x<-3.0f)return -1.0f;
 3449              		.loc 2 25 5 view .LVU1100
 3450 0fe8 F0EE085A 		vmov.f32	s11, #3.0e+0
 3451              	.LBE608:
 3452              	.LBE639:
 3453              	.LBB640:
 3454              	.LBB601:
  25:src/dsp.h     ****     if(x<-3.0f)return -1.0f;
 3455              		.loc 2 25 24 view .LVU1101
 3456 0fec F7EE006A 		vmov.f32	s13, #1.0e+0
 3457              	.LVL234:
  25:src/dsp.h     ****     if(x<-3.0f)return -1.0f;
 3458              		.loc 2 25 24 view .LVU1102
 3459              	.LBE601:
 3460              	.LBE640:
 3461              	.LBB641:
  23:src/dsp.h     **** {
 3462              		.loc 2 23 21 is_stmt 1 view .LVU1103
 3463              	.LBB609:
  25:src/dsp.h     ****     if(x<-3.0f)return -1.0f;
 3464              		.loc 2 25 5 view .LVU1104
 3465 0ff0 B4EEE54A 		vcmpe.f32	s8, s11
 3466 0ff4 F1EE10FA 		vmrs	APSR_nzcv, FPSCR
 3467 0ff8 7FF718AD 		ble	.L430
 3468              	.L288:
  25:src/dsp.h     ****     if(x<-3.0f)return -1.0f;
 3469              		.loc 2 25 24 is_stmt 0 view .LVU1105
ARM GAS  /tmp/claude-502/ccaZRenT.s 			page 85


 3470 0ffc F7EE003A 		vmov.f32	s7, #1.0e+0
 3471 1000 2CE5     		b	.L156
 3472              	.LVL235:
 3473              	.L284:
  25:src/dsp.h     ****     if(x<-3.0f)return -1.0f;
 3474              		.loc 2 25 24 view .LVU1106
 3475              	.LBE609:
 3476              	.LBE641:
 3477              	.LBB642:
 3478              	.LBB594:
 3479 1002 B7EE000A 		vmov.f32	s0, #1.0e+0
 3480 1006 E3E4     		b	.L154
 3481              	.LVL236:
 3482              	.L296:
  25:src/dsp.h     ****     if(x<-3.0f)return -1.0f;
 3483              		.loc 2 25 24 view .LVU1107
 3484              	.LBE594:
 3485              	.LBE642:
 3486              	.LBB643:
 3487              	.LBB637:
 3488 1008 F7EE004A 		vmov.f32	s9, #1.0e+0
 3489 100c B2E5     		b	.L160
 3490              	.L452:
 3491 100e 00BF     		.align	2
 3492              	.L451:
 3493 1010 00000000 		.word	.LANCHOR49
 3494 1014 00000000 		.word	.LANCHOR36
 3495 1018 6F12833A 		.word	981668463
 3496 101c 00000000 		.word	.LANCHOR37
 3497 1020 00000000 		.word	.LANCHOR38
 3498 1024 00000000 		.word	.LANCHOR39
 3499 1028 00000000 		.word	.LANCHOR46
 3500 102c 00000000 		.word	.LANCHOR48
 3501 1030 00000000 		.word	.LANCHOR50
 3502 1034 00000000 		.word	led3
 3503 1038 00000000 		.word	.LANCHOR16
 3504 103c A4707D3F 		.word	1065185444
 3505 1040 00D7A33C 		.word	1017370368
 3506 1044 0012833A 		.word	981668352
 3507 1048 48E17A3F 		.word	1065017672
 3508 104c 77BE7F3F 		.word	1065336439
 3509 1050 00000000 		.word	.LANCHOR33
 3510 1054 00000000 		.word	.LANCHOR34
 3511 1058 00000000 		.word	.LANCHOR15
 3512 105c 00481D3A 		.word	974997504
 3513 1060 AED87F3F 		.word	1065343150
 3514 1064 00002042 		.word	1109393408
 3515 1068 00000000 		.word	0
 3516 106c 00401C47 		.word	1193033728
 3517 1070 DB0F4940 		.word	1078530011
 3518 1074 DB0F49C0 		.word	-1068953637
 3519 1078 83F9A23F 		.word	1067645315
 3520 107c 6666663E 		.word	1046898278
 3521 1080 7B81CF3E 		.word	1053786491
 3522              	.LVL237:
 3523              	.L282:
  25:src/dsp.h     ****     if(x<-3.0f)return -1.0f;
ARM GAS  /tmp/claude-502/ccaZRenT.s 			page 86


 3524              		.loc 2 25 24 view .LVU1108
 3525              	.LBE637:
 3526              	.LBE643:
 3527              	.LBB644:
 3528              	.LBB588:
 3529 1084 F7EE006A 		vmov.f32	s13, #1.0e+0
 3530 1088 82E4     		b	.L153
 3531              	.LVL238:
 3532              	.L294:
  25:src/dsp.h     ****     if(x<-3.0f)return -1.0f;
 3533              		.loc 2 25 24 view .LVU1109
 3534              	.LBE588:
 3535              	.LBE644:
 3536              	.LBB645:
 3537              	.LBB630:
 3538 108a F7EE006A 		vmov.f32	s13, #1.0e+0
 3539 108e 51E5     		b	.L159
 3540              	.LVL239:
 3541              	.L292:
  25:src/dsp.h     ****     if(x<-3.0f)return -1.0f;
 3542              		.loc 2 25 24 view .LVU1110
 3543              	.LBE630:
 3544              	.LBE645:
 3545              	.LBB646:
 3546              	.LBB623:
 3547 1090 B7EE004A 		vmov.f32	s8, #1.0e+0
 3548 1094 28E5     		b	.L158
 3549              	.LVL240:
 3550              	.L290:
  25:src/dsp.h     ****     if(x<-3.0f)return -1.0f;
 3551              		.loc 2 25 24 view .LVU1111
 3552              	.LBE623:
 3553              	.LBE646:
 3554              	.LBB647:
 3555              	.LBB616:
 3556 1096 F7EE006A 		vmov.f32	s13, #1.0e+0
 3557 109a 05E5     		b	.L157
 3558              	.LVL241:
 3559              	.L281:
  25:src/dsp.h     ****     if(x<-3.0f)return -1.0f;
 3560              		.loc 2 25 24 view .LVU1112
 3561              	.LBE616:
 3562              	.LBE647:
 3563              	.LBE661:
 3564              	.LBE670:
 3565              	.LBE1070:
 3566              	.LBB1071:
 3567              	.LBB848:
 3568 109c 5FED0D5A 		vldr.32	s11, .L451+92
 3569              	.LVL242:
  25:src/dsp.h     ****     if(x<-3.0f)return -1.0f;
 3570              		.loc 2 25 24 view .LVU1113
 3571 10a0 48E4     		b	.L150
 3572              	.LVL243:
 3573              	.L422:
  25:src/dsp.h     ****     if(x<-3.0f)return -1.0f;
 3574              		.loc 2 25 24 view .LVU1114
ARM GAS  /tmp/claude-502/ccaZRenT.s 			page 87


 3575              	.LBE848:
 3576              	.LBE1071:
 3577              	.LBB1072:
 3578              	.LBB816:
  59:src/dsp.h     ****         case WAVE_SQUARE: return osc_square(ph);
 3579              		.loc 2 59 9 is_stmt 1 view .LVU1115
  59:src/dsp.h     ****         case WAVE_SQUARE: return osc_square(ph);
 3580              		.loc 2 59 27 view .LVU1116
 3581              	.LBB800:
 3582              	.LBI800:
  44:src/dsp.h     ****     constexpr float PI = 3.14159265f;
 3583              		.loc 2 44 21 view .LVU1117
 3584              	.LBB801:
  45:src/dsp.h     ****     float x = ph*2.0f*PI - PI;                 // -π..π (angle shifted by π)
 3585              		.loc 2 45 5 view .LVU1118
  46:src/dsp.h     ****     float y = 1.27323954f*x - 0.405284735f*x*(x<0?-x:x);
 3586              		.loc 2 46 5 view .LVU1119
  46:src/dsp.h     ****     float y = 1.27323954f*x - 0.405284735f*x*(x<0?-x:x);
 3587              		.loc 2 46 17 is_stmt 0 view .LVU1120
 3588 10a2 72EE029A 		vadd.f32	s19, s4, s4
  46:src/dsp.h     ****     float y = 1.27323954f*x - 0.405284735f*x*(x<0?-x:x);
 3589              		.loc 2 46 11 view .LVU1121
 3590 10a6 1FED0E7A 		vldr.32	s14, .L451+96
 3591 10aa 1FED0E0A 		vldr.32	s0, .L451+100
  47:src/dsp.h     ****     y = 0.225f*(y*(y<0?-y:y) - y) + y;         // one refinement pass
 3592              		.loc 2 47 26 view .LVU1122
 3593 10ae 1FED0EAA 		vldr.32	s20, .L451+104
  46:src/dsp.h     ****     float y = 1.27323954f*x - 0.405284735f*x*(x<0?-x:x);
 3594              		.loc 2 46 11 view .LVU1123
 3595 10b2 A9EE870A 		vfma.f32	s0, s19, s14
 3596              	.LVL244:
  47:src/dsp.h     ****     y = 0.225f*(y*(y<0?-y:y) - y) + y;         // one refinement pass
 3597              		.loc 2 47 5 is_stmt 1 view .LVU1124
  47:src/dsp.h     ****     y = 0.225f*(y*(y<0?-y:y) - y) + y;         // one refinement pass
 3598              		.loc 2 47 43 is_stmt 0 view .LVU1125
 3599 10b6 5FED0E9A 		vldr.32	s19, .L451+112
  47:src/dsp.h     ****     y = 0.225f*(y*(y<0?-y:y) - y) + y;         // one refinement pass
 3600              		.loc 2 47 50 view .LVU1126
 3601 10ba B5EEC00A 		vcmpe.f32	s0, #0
  47:src/dsp.h     ****     y = 0.225f*(y*(y<0?-y:y) - y) + y;         // one refinement pass
 3602              		.loc 2 47 43 view .LVU1127
 3603 10be 60EE299A 		vmul.f32	s19, s0, s19
  47:src/dsp.h     ****     y = 0.225f*(y*(y<0?-y:y) - y) + y;         // one refinement pass
 3604              		.loc 2 47 26 view .LVU1128
 3605 10c2 20EE0AAA 		vmul.f32	s20, s0, s20
  47:src/dsp.h     ****     y = 0.225f*(y*(y<0?-y:y) - y) + y;         // one refinement pass
 3606              		.loc 2 47 50 view .LVU1129
 3607 10c6 F1EE10FA 		vmrs	APSR_nzcv, FPSCR
 3608 10ca 48BF     		it	mi
 3609 10cc B1EE400A 		vnegmi.f32	s0, s0
 3610              	.LVL245:
  47:src/dsp.h     ****     y = 0.225f*(y*(y<0?-y:y) - y) + y;         // one refinement pass
 3611              		.loc 2 47 11 view .LVU1130
 3612 10d0 A9EEC0AA 		vfms.f32	s20, s19, s0
 3613              	.LVL246:
  48:src/dsp.h     ****     return -y;                                 // undo the π shift: sin(x+π) = -sin(x)
 3614              		.loc 2 48 5 is_stmt 1 view .LVU1131
ARM GAS  /tmp/claude-502/ccaZRenT.s 			page 88


  48:src/dsp.h     ****     return -y;                                 // undo the π shift: sin(x+π) = -sin(x)
 3615              		.loc 2 48 7 is_stmt 0 view .LVU1132
 3616 10d4 5FED179A 		vldr.32	s19, .L451+108
  48:src/dsp.h     ****     return -y;                                 // undo the π shift: sin(x+π) = -sin(x)
 3617              		.loc 2 48 23 view .LVU1133
 3618 10d8 B5EEC0AA 		vcmpe.f32	s20, #0
 3619 10dc B1EE4A0A 		vneg.f32	s0, s20
 3620 10e0 F1EE10FA 		vmrs	APSR_nzcv, FPSCR
 3621 10e4 54BF     		ite	pl
 3622 10e6 B0EE4A7A 		vmovpl.f32	s14, s20
 3623              	.LVL247:
  48:src/dsp.h     ****     return -y;                                 // undo the π shift: sin(x+π) = -sin(x)
 3624              		.loc 2 48 23 view .LVU1134
 3625 10ea B0EE407A 		vmovmi.f32	s14, s0
  48:src/dsp.h     ****     return -y;                                 // undo the π shift: sin(x+π) = -sin(x)
 3626              		.loc 2 48 30 view .LVU1135
 3627 10ee AAEE070A 		vfma.f32	s0, s20, s14
 3628              	.LBE801:
 3629              	.LBE800:
 3630              	.LBE816:
 3631              	.LBE1072:
 298:src/engine.cpp **** 
 3632              		.loc 1 298 66 view .LVU1136
 3633 10f2 9DED267A 		vldr.32	s14, [sp, #152]
 3634              	.LBB1073:
 3635              	.LBB817:
 3636              	.LBB803:
 3637              	.LBB802:
  48:src/dsp.h     ****     return -y;                                 // undo the π shift: sin(x+π) = -sin(x)
 3638              		.loc 2 48 7 view .LVU1137
 3639 10f6 A0EE29AA 		vfma.f32	s20, s0, s19
 3640              	.LVL248:
  49:src/dsp.h     **** }
 3641              		.loc 2 49 5 is_stmt 1 view .LVU1138
  49:src/dsp.h     **** }
 3642              		.loc 2 49 5 is_stmt 0 view .LVU1139
 3643              	.LBE802:
 3644              	.LBE803:
 3645              	.LBE817:
 3646              	.LBE1073:
 298:src/engine.cpp **** 
 3647              		.loc 1 298 66 view .LVU1140
 3648 10fa 2AEE47AA 		vnmul.f32	s20, s20, s14
 3649              	.LBB1074:
 3650              	.LBB818:
  59:src/dsp.h     ****         case WAVE_SQUARE: return osc_square(ph);
 3651              		.loc 2 59 45 view .LVU1141
 3652 10fe FFF788BA 		b	.L93
 3653              	.LVL249:
 3654              	.L87:
  61:src/dsp.h     ****         case WAVE_TRI:
 3655              		.loc 2 61 9 is_stmt 1 view .LVU1142
  61:src/dsp.h     ****         case WAVE_TRI:
 3656              		.loc 2 61 27 view .LVU1143
 3657              	.LBB804:
 3658              	.LBI804:
  53:src/dsp.h     **** 
ARM GAS  /tmp/claude-502/ccaZRenT.s 			page 89


 3659              		.loc 2 53 21 view .LVU1144
 3660              	.LBB805:
  53:src/dsp.h     **** 
 3661              		.loc 2 53 40 view .LVU1145
  53:src/dsp.h     **** 
 3662              		.loc 2 53 57 is_stmt 0 view .LVU1146
 3663 1102 B0EE000A 		vmov.f32	s0, #2.0e+0
 3664              	.LBE805:
 3665              	.LBE804:
 3666              	.LBE818:
 3667              	.LBE1074:
 298:src/engine.cpp **** 
 3668              		.loc 1 298 66 view .LVU1147
 3669 1106 9DED267A 		vldr.32	s14, [sp, #152]
 3670              	.LBB1075:
 3671              	.LBB819:
 3672              	.LBB807:
 3673              	.LBB806:
  53:src/dsp.h     **** 
 3674              		.loc 2 53 57 view .LVU1148
 3675 110a BFEE00AA 		vmov.f32	s20, #-1.0e+0
 3676 110e A2EE00AA 		vfma.f32	s20, s4, s0
 3677              	.LVL250:
  53:src/dsp.h     **** 
 3678              		.loc 2 53 57 view .LVU1149
 3679              	.LBE806:
 3680              	.LBE807:
 3681              	.LBE819:
 3682              	.LBE1075:
 298:src/engine.cpp **** 
 3683              		.loc 1 298 66 view .LVU1150
 3684 1112 2AEE07AA 		vmul.f32	s20, s20, s14
 3685              	.LBB1076:
 3686              	.LBB820:
  61:src/dsp.h     ****         case WAVE_TRI:
 3687              		.loc 2 61 44 view .LVU1151
 3688 1116 FFF77CBA 		b	.L93
 3689              	.L86:
  60:src/dsp.h     ****         case WAVE_SAW:    return osc_saw(ph);
 3690              		.loc 2 60 9 is_stmt 1 view .LVU1152
  60:src/dsp.h     ****         case WAVE_SAW:    return osc_saw(ph);
 3691              		.loc 2 60 27 view .LVU1153
 3692              	.LVL251:
 3693              	.LBB808:
 3694              	.LBI808:
  52:src/dsp.h     **** static inline float osc_saw(float ph){ return 2.0f*ph - 1.0f; }
 3695              		.loc 2 52 21 view .LVU1154
 3696              	.LBB809:
  52:src/dsp.h     **** static inline float osc_saw(float ph){ return 2.0f*ph - 1.0f; }
 3697              		.loc 2 52 43 view .LVU1155
  52:src/dsp.h     **** static inline float osc_saw(float ph){ return 2.0f*ph - 1.0f; }
 3698              		.loc 2 52 58 is_stmt 0 view .LVU1156
 3699 111a B6EE007A 		vmov.f32	s14, #5.0e-1
 3700 111e B4EEC72A 		vcmpe.f32	s4, s14
 3701 1122 F1EE10FA 		vmrs	APSR_nzcv, FPSCR
 3702 1126 00F14582 		bmi	.L268
 3703 112a 9DED267A 		vldr.32	s14, [sp, #152]
ARM GAS  /tmp/claude-502/ccaZRenT.s 			page 90


 3704 112e B1EE47AA 		vneg.f32	s20, s14
 3705 1132 FFF76EBA 		b	.L93
 3706              	.LVL252:
 3707              	.L421:
  52:src/dsp.h     **** static inline float osc_saw(float ph){ return 2.0f*ph - 1.0f; }
 3708              		.loc 2 52 58 view .LVU1157
 3709              	.LBE809:
 3710              	.LBE808:
 3711              	.LBE820:
 3712              	.LBE1076:
 3713              	.LBB1077:
 3714              	.LBB775:
  59:src/dsp.h     ****         case WAVE_SQUARE: return osc_square(ph);
 3715              		.loc 2 59 9 is_stmt 1 view .LVU1158
  59:src/dsp.h     ****         case WAVE_SQUARE: return osc_square(ph);
 3716              		.loc 2 59 27 view .LVU1159
 3717              	.LBB760:
 3718              	.LBI760:
  44:src/dsp.h     ****     constexpr float PI = 3.14159265f;
 3719              		.loc 2 44 21 view .LVU1160
 3720              	.LBB761:
  45:src/dsp.h     ****     float x = ph*2.0f*PI - PI;                 // -π..π (angle shifted by π)
 3721              		.loc 2 45 5 view .LVU1161
  46:src/dsp.h     ****     float y = 1.27323954f*x - 0.405284735f*x*(x<0?-x:x);
 3722              		.loc 2 46 5 view .LVU1162
  46:src/dsp.h     ****     float y = 1.27323954f*x - 0.405284735f*x*(x<0?-x:x);
 3723              		.loc 2 46 17 is_stmt 0 view .LVU1163
 3724 1136 31EEA10A 		vadd.f32	s0, s3, s3
  46:src/dsp.h     ****     float y = 1.27323954f*x - 0.405284735f*x*(x<0?-x:x);
 3725              		.loc 2 46 11 view .LVU1164
 3726 113a 1FED332A 		vldr.32	s4, .L451+96
 3727 113e 1FED337A 		vldr.32	s14, .L451+100
  47:src/dsp.h     ****     y = 0.225f*(y*(y<0?-y:y) - y) + y;         // one refinement pass
 3728              		.loc 2 47 26 view .LVU1165
 3729 1142 5FED33AA 		vldr.32	s21, .L451+104
  46:src/dsp.h     ****     float y = 1.27323954f*x - 0.405284735f*x*(x<0?-x:x);
 3730              		.loc 2 46 11 view .LVU1166
 3731 1146 A0EE027A 		vfma.f32	s14, s0, s4
 3732              	.LVL253:
  47:src/dsp.h     ****     y = 0.225f*(y*(y<0?-y:y) - y) + y;         // one refinement pass
 3733              		.loc 2 47 5 is_stmt 1 view .LVU1167
  47:src/dsp.h     ****     y = 0.225f*(y*(y<0?-y:y) - y) + y;         // one refinement pass
 3734              		.loc 2 47 43 is_stmt 0 view .LVU1168
 3735 114a 1FED332A 		vldr.32	s4, .L451+112
  48:src/dsp.h     ****     return -y;                                 // undo the π shift: sin(x+π) = -sin(x)
 3736              		.loc 2 48 7 view .LVU1169
 3737 114e 1FED350A 		vldr.32	s0, .L451+108
  47:src/dsp.h     ****     y = 0.225f*(y*(y<0?-y:y) - y) + y;         // one refinement pass
 3738              		.loc 2 47 50 view .LVU1170
 3739 1152 B5EEC07A 		vcmpe.f32	s14, #0
  47:src/dsp.h     ****     y = 0.225f*(y*(y<0?-y:y) - y) + y;         // one refinement pass
 3740              		.loc 2 47 43 view .LVU1171
 3741 1156 27EE022A 		vmul.f32	s4, s14, s4
  47:src/dsp.h     ****     y = 0.225f*(y*(y<0?-y:y) - y) + y;         // one refinement pass
 3742              		.loc 2 47 26 view .LVU1172
 3743 115a 67EE2AAA 		vmul.f32	s21, s14, s21
  47:src/dsp.h     ****     y = 0.225f*(y*(y<0?-y:y) - y) + y;         // one refinement pass
ARM GAS  /tmp/claude-502/ccaZRenT.s 			page 91


 3744              		.loc 2 47 50 view .LVU1173
 3745 115e F1EE10FA 		vmrs	APSR_nzcv, FPSCR
 3746 1162 48BF     		it	mi
 3747 1164 B1EE477A 		vnegmi.f32	s14, s14
 3748              	.LVL254:
  47:src/dsp.h     ****     y = 0.225f*(y*(y<0?-y:y) - y) + y;         // one refinement pass
 3749              		.loc 2 47 11 view .LVU1174
 3750 1168 E2EE47AA 		vfms.f32	s21, s4, s14
 3751              	.LVL255:
  48:src/dsp.h     ****     return -y;                                 // undo the π shift: sin(x+π) = -sin(x)
 3752              		.loc 2 48 5 is_stmt 1 view .LVU1175
  48:src/dsp.h     ****     return -y;                                 // undo the π shift: sin(x+π) = -sin(x)
 3753              		.loc 2 48 23 is_stmt 0 view .LVU1176
 3754 116c F5EEC0AA 		vcmpe.f32	s21, #0
 3755 1170 B1EE6A2A 		vneg.f32	s4, s21
 3756 1174 F1EE10FA 		vmrs	APSR_nzcv, FPSCR
 3757 1178 54BF     		ite	pl
 3758 117a B0EE6A7A 		vmovpl.f32	s14, s21
 3759 117e B0EE427A 		vmovmi.f32	s14, s4
  48:src/dsp.h     ****     return -y;                                 // undo the π shift: sin(x+π) = -sin(x)
 3760              		.loc 2 48 30 view .LVU1177
 3761 1182 AAEE872A 		vfma.f32	s4, s21, s14
 3762              	.LBE761:
 3763              	.LBE760:
 3764              	.LBE775:
 3765              	.LBE1077:
 297:src/engine.cpp ****         float osc_oct = osc(s_phase_oct,VOICE.oct_wave)  * VOICE.oct_level;
 3766              		.loc 1 297 66 view .LVU1178
 3767 1186 9DED257A 		vldr.32	s14, [sp, #148]
 3768              	.LBB1078:
 3769              	.LBB776:
 3770              	.LBB763:
 3771              	.LBB762:
  48:src/dsp.h     ****     return -y;                                 // undo the π shift: sin(x+π) = -sin(x)
 3772              		.loc 2 48 7 view .LVU1179
 3773 118a E2EE00AA 		vfma.f32	s21, s4, s0
 3774              	.LVL256:
  49:src/dsp.h     **** }
 3775              		.loc 2 49 5 is_stmt 1 view .LVU1180
  49:src/dsp.h     **** }
 3776              		.loc 2 49 5 is_stmt 0 view .LVU1181
 3777              	.LBE762:
 3778              	.LBE763:
 3779              	.LBE776:
 3780              	.LBE1078:
 297:src/engine.cpp ****         float osc_oct = osc(s_phase_oct,VOICE.oct_wave)  * VOICE.oct_level;
 3781              		.loc 1 297 66 view .LVU1182
 3782 118e 6AEEC7AA 		vnmul.f32	s21, s21, s14
 3783              	.LBB1079:
 3784              	.LBB777:
  59:src/dsp.h     ****         case WAVE_SQUARE: return osc_square(ph);
 3785              		.loc 2 59 45 view .LVU1183
 3786 1192 FFF71FBA 		b	.L83
 3787              	.LVL257:
 3788              	.L57:
  59:src/dsp.h     ****         case WAVE_SQUARE: return osc_square(ph);
 3789              		.loc 2 59 45 view .LVU1184
ARM GAS  /tmp/claude-502/ccaZRenT.s 			page 92


 3790              	.LBE777:
 3791              	.LBE1079:
 3792              	.LBB1080:
 3793              	.LBB713:
  61:src/dsp.h     ****         case WAVE_TRI:
 3794              		.loc 2 61 9 is_stmt 1 view .LVU1185
  61:src/dsp.h     ****         case WAVE_TRI:
 3795              		.loc 2 61 27 view .LVU1186
 3796              	.LBB698:
 3797              	.LBI698:
  53:src/dsp.h     **** 
 3798              		.loc 2 53 21 view .LVU1187
 3799              	.LBB699:
  53:src/dsp.h     **** 
 3800              		.loc 2 53 40 view .LVU1188
  53:src/dsp.h     **** 
 3801              		.loc 2 53 57 is_stmt 0 view .LVU1189
 3802 1196 B0EE007A 		vmov.f32	s14, #2.0e+0
 3803              	.LVL258:
  53:src/dsp.h     **** 
 3804              		.loc 2 53 57 view .LVU1190
 3805              	.LBE699:
 3806              	.LBE698:
 3807              	.LBE713:
 3808              	.LBE1080:
 296:src/engine.cpp ****         float sub     = osc(s_phase_sub,VOICE.sub_wave)  * VOICE.sub_level;
 3809              		.loc 1 296 28 view .LVU1191
 3810 119a E44B     		ldr	r3, .L453
 3811              	.LBB1081:
 3812              	.LBB714:
 3813              	.LBB702:
 3814              	.LBB700:
  53:src/dsp.h     **** 
 3815              		.loc 2 53 57 view .LVU1192
 3816 119c FFEE002A 		vmov.f32	s5, #-1.0e+0
 3817              	.LBE700:
 3818              	.LBE702:
 3819              	.LBE714:
 3820              	.LBE1081:
 3821              	.LBB1082:
 3822              	.LBB742:
  58:src/dsp.h     ****         case WAVE_SINE:   return osc_sine(ph);
 3823              		.loc 2 58 5 view .LVU1193
 3824 11a0 022E     		cmp	r6, #2
 3825              	.LBE742:
 3826              	.LBE1082:
 296:src/engine.cpp ****         float sub     = osc(s_phase_sub,VOICE.sub_wave)  * VOICE.sub_level;
 3827              		.loc 1 296 28 view .LVU1194
 3828 11a2 93ED001A 		vldr.32	s2, [r3]
 3829              	.LBB1083:
 3830              	.LBB715:
 3831              	.LBB703:
 3832              	.LBB701:
  53:src/dsp.h     **** 
 3833              		.loc 2 53 57 view .LVU1195
 3834 11a6 E0EE872A 		vfma.f32	s5, s1, s14
 3835              	.LVL259:
ARM GAS  /tmp/claude-502/ccaZRenT.s 			page 93


  53:src/dsp.h     **** 
 3836              		.loc 2 53 57 view .LVU1196
 3837              	.LBE701:
 3838              	.LBE703:
 3839              	.LBE715:
 3840              	.LBE1083:
 295:src/engine.cpp ****         float osc2    = osc(s_phase2,   VOICE.osc2_wave) * VOICE.osc2_level;
 3841              		.loc 1 295 66 view .LVU1197
 3842 11aa 9DED057A 		vldr.32	s14, [sp, #20]
 3843 11ae 62EE872A 		vmul.f32	s5, s5, s14
 3844              	.LVL260:
 296:src/engine.cpp ****         float sub     = osc(s_phase_sub,VOICE.sub_wave)  * VOICE.sub_level;
 3845              		.loc 1 296 9 is_stmt 1 view .LVU1198
 3846              	.LBB1084:
  57:src/dsp.h     ****     switch(w){
 3847              		.loc 2 57 21 view .LVU1199
 3848              	.LBB743:
  58:src/dsp.h     ****         case WAVE_SINE:   return osc_sine(ph);
 3849              		.loc 2 58 5 view .LVU1200
 3850 11b2 7FF4D6A9 		bne	.L431
 3851              	.L66:
  60:src/dsp.h     ****         case WAVE_SAW:    return osc_saw(ph);
 3852              		.loc 2 60 9 view .LVU1201
  60:src/dsp.h     ****         case WAVE_SAW:    return osc_saw(ph);
 3853              		.loc 2 60 27 view .LVU1202
 3854              	.LVL261:
 3855              	.LBB731:
 3856              	.LBI731:
  52:src/dsp.h     **** static inline float osc_saw(float ph){ return 2.0f*ph - 1.0f; }
 3857              		.loc 2 52 21 view .LVU1203
 3858              	.LBB732:
  52:src/dsp.h     **** static inline float osc_saw(float ph){ return 2.0f*ph - 1.0f; }
 3859              		.loc 2 52 43 view .LVU1204
  52:src/dsp.h     **** static inline float osc_saw(float ph){ return 2.0f*ph - 1.0f; }
 3860              		.loc 2 52 58 is_stmt 0 view .LVU1205
 3861 11b6 B6EE007A 		vmov.f32	s14, #5.0e-1
 3862 11ba B4EEC71A 		vcmpe.f32	s2, s14
 3863 11be F1EE10FA 		vmrs	APSR_nzcv, FPSCR
 3864 11c2 00F1D581 		bmi	.L264
  52:src/dsp.h     **** static inline float osc_saw(float ph){ return 2.0f*ph - 1.0f; }
 3865              		.loc 2 52 58 view .LVU1206
 3866 11c6 9DED067A 		vldr.32	s14, [sp, #24]
 3867              	.LBE732:
 3868              	.LBE731:
 3869              	.LBE743:
 3870              	.LBE1084:
 3871              	.LBB1085:
 3872              	.LBB778:
  58:src/dsp.h     ****         case WAVE_SINE:   return osc_sine(ph);
 3873              		.loc 2 58 5 view .LVU1207
 3874 11ca BBF1020F 		cmp	fp, #2
 3875              	.LBE778:
 3876              	.LBE1085:
 297:src/engine.cpp ****         float osc_oct = osc(s_phase_oct,VOICE.oct_wave)  * VOICE.oct_level;
 3877              		.loc 1 297 28 view .LVU1208
 3878 11ce D84B     		ldr	r3, .L453+4
 3879 11d0 B1EE47CA 		vneg.f32	s24, s14
ARM GAS  /tmp/claude-502/ccaZRenT.s 			page 94


 3880              	.LVL262:
 297:src/engine.cpp ****         float osc_oct = osc(s_phase_oct,VOICE.oct_wave)  * VOICE.oct_level;
 3881              		.loc 1 297 9 is_stmt 1 view .LVU1209
 297:src/engine.cpp ****         float osc_oct = osc(s_phase_oct,VOICE.oct_wave)  * VOICE.oct_level;
 3882              		.loc 1 297 28 is_stmt 0 view .LVU1210
 3883 11d4 D3ED001A 		vldr.32	s3, [r3]
 3884              	.LVL263:
 3885              	.LBB1086:
  57:src/dsp.h     ****     switch(w){
 3886              		.loc 2 57 21 is_stmt 1 view .LVU1211
 3887              	.LBB779:
  58:src/dsp.h     ****         case WAVE_SINE:   return osc_sine(ph);
 3888              		.loc 2 58 5 view .LVU1212
 3889 11d8 7FF4E2A9 		bne	.L432
 3890              	.L76:
  60:src/dsp.h     ****         case WAVE_SAW:    return osc_saw(ph);
 3891              		.loc 2 60 9 view .LVU1213
  60:src/dsp.h     ****         case WAVE_SAW:    return osc_saw(ph);
 3892              		.loc 2 60 27 view .LVU1214
 3893              	.LVL264:
 3894              	.LBB764:
 3895              	.LBI764:
  52:src/dsp.h     **** static inline float osc_saw(float ph){ return 2.0f*ph - 1.0f; }
 3896              		.loc 2 52 21 view .LVU1215
 3897              	.LBB765:
  52:src/dsp.h     **** static inline float osc_saw(float ph){ return 2.0f*ph - 1.0f; }
 3898              		.loc 2 52 43 view .LVU1216
  52:src/dsp.h     **** static inline float osc_saw(float ph){ return 2.0f*ph - 1.0f; }
 3899              		.loc 2 52 58 is_stmt 0 view .LVU1217
 3900 11dc B6EE007A 		vmov.f32	s14, #5.0e-1
 3901 11e0 F4EEC71A 		vcmpe.f32	s3, s14
 3902 11e4 F1EE10FA 		vmrs	APSR_nzcv, FPSCR
 3903 11e8 00F1EC81 		bmi	.L266
  52:src/dsp.h     **** static inline float osc_saw(float ph){ return 2.0f*ph - 1.0f; }
 3904              		.loc 2 52 58 view .LVU1218
 3905 11ec 9DED257A 		vldr.32	s14, [sp, #148]
 3906 11f0 F1EE47AA 		vneg.f32	s21, s14
 3907 11f4 FFF7EEB9 		b	.L83
 3908              	.LVL265:
 3909              	.L56:
  52:src/dsp.h     **** static inline float osc_saw(float ph){ return 2.0f*ph - 1.0f; }
 3910              		.loc 2 52 58 view .LVU1219
 3911              	.LBE765:
 3912              	.LBE764:
 3913              	.LBE779:
 3914              	.LBE1086:
 3915              	.LBB1087:
 3916              	.LBB716:
  60:src/dsp.h     ****         case WAVE_SAW:    return osc_saw(ph);
 3917              		.loc 2 60 9 is_stmt 1 view .LVU1220
  60:src/dsp.h     ****         case WAVE_SAW:    return osc_saw(ph);
 3918              		.loc 2 60 27 view .LVU1221
 3919              	.LBB704:
 3920              	.LBI704:
  52:src/dsp.h     **** static inline float osc_saw(float ph){ return 2.0f*ph - 1.0f; }
 3921              		.loc 2 52 21 view .LVU1222
 3922              	.LBB705:
ARM GAS  /tmp/claude-502/ccaZRenT.s 			page 95


  52:src/dsp.h     **** static inline float osc_saw(float ph){ return 2.0f*ph - 1.0f; }
 3923              		.loc 2 52 43 view .LVU1223
  52:src/dsp.h     **** static inline float osc_saw(float ph){ return 2.0f*ph - 1.0f; }
 3924              		.loc 2 52 58 is_stmt 0 view .LVU1224
 3925 11f8 B6EE007A 		vmov.f32	s14, #5.0e-1
 3926              	.LVL266:
  52:src/dsp.h     **** static inline float osc_saw(float ph){ return 2.0f*ph - 1.0f; }
 3927              		.loc 2 52 58 view .LVU1225
 3928 11fc F4EEC70A 		vcmpe.f32	s1, s14
 3929 1200 F1EE10FA 		vmrs	APSR_nzcv, FPSCR
 3930 1204 00F1DA81 		bmi	.L262
 3931 1208 9DED057A 		vldr.32	s14, [sp, #20]
 3932 120c F1EE472A 		vneg.f32	s5, s14
 3933 1210 FFF7A1B9 		b	.L63
 3934              	.LVL267:
 3935              	.L77:
  52:src/dsp.h     **** static inline float osc_saw(float ph){ return 2.0f*ph - 1.0f; }
 3936              		.loc 2 52 58 view .LVU1226
 3937              	.LBE705:
 3938              	.LBE704:
 3939              	.LBE716:
 3940              	.LBE1087:
 3941              	.LBB1088:
 3942              	.LBB780:
  61:src/dsp.h     ****         case WAVE_TRI:
 3943              		.loc 2 61 9 is_stmt 1 view .LVU1227
  61:src/dsp.h     ****         case WAVE_TRI:
 3944              		.loc 2 61 27 view .LVU1228
 3945              	.LBB767:
 3946              	.LBI767:
  53:src/dsp.h     **** 
 3947              		.loc 2 53 21 view .LVU1229
 3948              	.LBB768:
  53:src/dsp.h     **** 
 3949              		.loc 2 53 40 view .LVU1230
  53:src/dsp.h     **** 
 3950              		.loc 2 53 57 is_stmt 0 view .LVU1231
 3951 1214 B0EE002A 		vmov.f32	s4, #2.0e+0
 3952              	.LBE768:
 3953              	.LBE767:
 3954              	.LBE780:
 3955              	.LBE1088:
 297:src/engine.cpp ****         float osc_oct = osc(s_phase_oct,VOICE.oct_wave)  * VOICE.oct_level;
 3956              		.loc 1 297 66 view .LVU1232
 3957 1218 9DED257A 		vldr.32	s14, [sp, #148]
 3958              	.LBB1089:
 3959              	.LBB781:
 3960              	.LBB770:
 3961              	.LBB769:
  53:src/dsp.h     **** 
 3962              		.loc 2 53 57 view .LVU1233
 3963 121c FFEE00AA 		vmov.f32	s21, #-1.0e+0
 3964 1220 E1EE82AA 		vfma.f32	s21, s3, s4
 3965              	.LVL268:
  53:src/dsp.h     **** 
 3966              		.loc 2 53 57 view .LVU1234
 3967              	.LBE769:
ARM GAS  /tmp/claude-502/ccaZRenT.s 			page 96


 3968              	.LBE770:
 3969              	.LBE781:
 3970              	.LBE1089:
 297:src/engine.cpp ****         float osc_oct = osc(s_phase_oct,VOICE.oct_wave)  * VOICE.oct_level;
 3971              		.loc 1 297 66 view .LVU1235
 3972 1224 6AEE87AA 		vmul.f32	s21, s21, s14
 3973              	.LBB1090:
 3974              	.LBB782:
  61:src/dsp.h     ****         case WAVE_TRI:
 3975              		.loc 2 61 44 view .LVU1236
 3976 1228 FFF7D4B9 		b	.L83
 3977              	.LVL269:
 3978              	.L67:
  61:src/dsp.h     ****         case WAVE_TRI:
 3979              		.loc 2 61 44 view .LVU1237
 3980              	.LBE782:
 3981              	.LBE1090:
 3982              	.LBB1091:
 3983              	.LBB744:
  61:src/dsp.h     ****         case WAVE_TRI:
 3984              		.loc 2 61 9 is_stmt 1 view .LVU1238
  61:src/dsp.h     ****         case WAVE_TRI:
 3985              		.loc 2 61 27 view .LVU1239
 3986              	.LBB734:
 3987              	.LBI734:
  53:src/dsp.h     **** 
 3988              		.loc 2 53 21 view .LVU1240
 3989              	.LBB735:
  53:src/dsp.h     **** 
 3990              		.loc 2 53 40 view .LVU1241
  53:src/dsp.h     **** 
 3991              		.loc 2 53 57 is_stmt 0 view .LVU1242
 3992 122c B0EE007A 		vmov.f32	s14, #2.0e+0
 3993 1230 BFEE00CA 		vmov.f32	s24, #-1.0e+0
 3994 1234 A1EE07CA 		vfma.f32	s24, s2, s14
 3995              	.LVL270:
  53:src/dsp.h     **** 
 3996              		.loc 2 53 57 view .LVU1243
 3997              	.LBE735:
 3998              	.LBE734:
 3999              	.LBE744:
 4000              	.LBE1091:
 296:src/engine.cpp ****         float sub     = osc(s_phase_sub,VOICE.sub_wave)  * VOICE.sub_level;
 4001              		.loc 1 296 66 view .LVU1244
 4002 1238 9DED067A 		vldr.32	s14, [sp, #24]
 4003 123c 2CEE07CA 		vmul.f32	s24, s24, s14
 4004              	.LBB1092:
 4005              	.LBB745:
  61:src/dsp.h     ****         case WAVE_TRI:
 4006              		.loc 2 61 44 view .LVU1245
 4007 1240 FFF7A7B9 		b	.L73
 4008              	.LVL271:
 4009              	.L419:
  61:src/dsp.h     ****         case WAVE_TRI:
 4010              		.loc 2 61 44 view .LVU1246
 4011              	.LBE745:
 4012              	.LBE1092:
ARM GAS  /tmp/claude-502/ccaZRenT.s 			page 97


 4013              	.LBB1093:
 4014              	.LBB717:
  59:src/dsp.h     ****         case WAVE_SQUARE: return osc_square(ph);
 4015              		.loc 2 59 9 is_stmt 1 view .LVU1247
  59:src/dsp.h     ****         case WAVE_SQUARE: return osc_square(ph);
 4016              		.loc 2 59 27 view .LVU1248
 4017              	.LBB707:
 4018              	.LBI707:
  44:src/dsp.h     ****     constexpr float PI = 3.14159265f;
 4019              		.loc 2 44 21 view .LVU1249
 4020              	.LBB708:
  45:src/dsp.h     ****     float x = ph*2.0f*PI - PI;                 // -π..π (angle shifted by π)
 4021              		.loc 2 45 5 view .LVU1250
  46:src/dsp.h     ****     float y = 1.27323954f*x - 0.405284735f*x*(x<0?-x:x);
 4022              		.loc 2 46 5 view .LVU1251
  46:src/dsp.h     ****     float y = 1.27323954f*x - 0.405284735f*x*(x<0?-x:x);
 4023              		.loc 2 46 17 is_stmt 0 view .LVU1252
 4024 1244 30EEA02A 		vadd.f32	s4, s1, s1
  46:src/dsp.h     ****     float y = 1.27323954f*x - 0.405284735f*x*(x<0?-x:x);
 4025              		.loc 2 46 11 view .LVU1253
 4026 1248 DFEDBF2A 		vldr.32	s5, .L453+28
 4027 124c 9FEDBF7A 		vldr.32	s14, .L453+32
 4028              	.LVL272:
  46:src/dsp.h     ****     float y = 1.27323954f*x - 0.405284735f*x*(x<0?-x:x);
 4029              		.loc 2 46 11 view .LVU1254
 4030 1250 A2EE227A 		vfma.f32	s14, s4, s5
 4031              	.LVL273:
  47:src/dsp.h     ****     y = 0.225f*(y*(y<0?-y:y) - y) + y;         // one refinement pass
 4032              		.loc 2 47 5 is_stmt 1 view .LVU1255
  47:src/dsp.h     ****     y = 0.225f*(y*(y<0?-y:y) - y) + y;         // one refinement pass
 4033              		.loc 2 47 26 is_stmt 0 view .LVU1256
 4034 1254 DFEDBE2A 		vldr.32	s5, .L453+36
  47:src/dsp.h     ****     y = 0.225f*(y*(y<0?-y:y) - y) + y;         // one refinement pass
 4035              		.loc 2 47 43 view .LVU1257
 4036 1258 9FEDBE2A 		vldr.32	s4, .L453+40
  47:src/dsp.h     ****     y = 0.225f*(y*(y<0?-y:y) - y) + y;         // one refinement pass
 4037              		.loc 2 47 50 view .LVU1258
 4038 125c B5EEC07A 		vcmpe.f32	s14, #0
  47:src/dsp.h     ****     y = 0.225f*(y*(y<0?-y:y) - y) + y;         // one refinement pass
 4039              		.loc 2 47 43 view .LVU1259
 4040 1260 27EE022A 		vmul.f32	s4, s14, s4
  47:src/dsp.h     ****     y = 0.225f*(y*(y<0?-y:y) - y) + y;         // one refinement pass
 4041              		.loc 2 47 26 view .LVU1260
 4042 1264 67EE222A 		vmul.f32	s5, s14, s5
  47:src/dsp.h     ****     y = 0.225f*(y*(y<0?-y:y) - y) + y;         // one refinement pass
 4043              		.loc 2 47 50 view .LVU1261
 4044 1268 F1EE10FA 		vmrs	APSR_nzcv, FPSCR
 4045 126c 48BF     		it	mi
 4046 126e B1EE477A 		vnegmi.f32	s14, s14
 4047              	.LVL274:
  47:src/dsp.h     ****     y = 0.225f*(y*(y<0?-y:y) - y) + y;         // one refinement pass
 4048              		.loc 2 47 11 view .LVU1262
 4049 1272 E2EE472A 		vfms.f32	s5, s4, s14
 4050              	.LVL275:
  48:src/dsp.h     ****     return -y;                                 // undo the π shift: sin(x+π) = -sin(x)
 4051              		.loc 2 48 5 is_stmt 1 view .LVU1263
  48:src/dsp.h     ****     return -y;                                 // undo the π shift: sin(x+π) = -sin(x)
ARM GAS  /tmp/claude-502/ccaZRenT.s 			page 98


 4052              		.loc 2 48 23 is_stmt 0 view .LVU1264
 4053 1276 F5EEC02A 		vcmpe.f32	s5, #0
 4054 127a B1EE627A 		vneg.f32	s14, s5
 4055 127e F1EE10FA 		vmrs	APSR_nzcv, FPSCR
 4056 1282 54BF     		ite	pl
 4057 1284 B0EE622A 		vmovpl.f32	s4, s5
 4058 1288 B0EE472A 		vmovmi.f32	s4, s14
  48:src/dsp.h     ****     return -y;                                 // undo the π shift: sin(x+π) = -sin(x)
 4059              		.loc 2 48 30 view .LVU1265
 4060 128c A2EE827A 		vfma.f32	s14, s5, s4
  48:src/dsp.h     ****     return -y;                                 // undo the π shift: sin(x+π) = -sin(x)
 4061              		.loc 2 48 7 view .LVU1266
 4062 1290 9FEDB12A 		vldr.32	s4, .L453+44
 4063 1294 E7EE022A 		vfma.f32	s5, s14, s4
 4064              	.LVL276:
  49:src/dsp.h     **** }
 4065              		.loc 2 49 5 is_stmt 1 view .LVU1267
  49:src/dsp.h     **** }
 4066              		.loc 2 49 5 is_stmt 0 view .LVU1268
 4067              	.LBE708:
 4068              	.LBE707:
 4069              	.LBE717:
 4070              	.LBE1093:
 295:src/engine.cpp ****         float osc2    = osc(s_phase2,   VOICE.osc2_wave) * VOICE.osc2_level;
 4071              		.loc 1 295 66 view .LVU1269
 4072 1298 9DED057A 		vldr.32	s14, [sp, #20]
 4073 129c 62EEC72A 		vnmul.f32	s5, s5, s14
 4074              	.LBB1094:
 4075              	.LBB718:
  59:src/dsp.h     ****         case WAVE_SQUARE: return osc_square(ph);
 4076              		.loc 2 59 45 view .LVU1270
 4077 12a0 FFF759B9 		b	.L63
 4078              	.LVL277:
 4079              	.L420:
  59:src/dsp.h     ****         case WAVE_SQUARE: return osc_square(ph);
 4080              		.loc 2 59 45 view .LVU1271
 4081              	.LBE718:
 4082              	.LBE1094:
 4083              	.LBB1095:
 4084              	.LBB746:
  59:src/dsp.h     ****         case WAVE_SQUARE: return osc_square(ph);
 4085              		.loc 2 59 9 is_stmt 1 view .LVU1272
  59:src/dsp.h     ****         case WAVE_SQUARE: return osc_square(ph);
 4086              		.loc 2 59 27 view .LVU1273
 4087              	.LBB736:
 4088              	.LBI736:
  44:src/dsp.h     ****     constexpr float PI = 3.14159265f;
 4089              		.loc 2 44 21 view .LVU1274
 4090              	.LBB737:
  45:src/dsp.h     ****     float x = ph*2.0f*PI - PI;                 // -π..π (angle shifted by π)
 4091              		.loc 2 45 5 view .LVU1275
  46:src/dsp.h     ****     float y = 1.27323954f*x - 0.405284735f*x*(x<0?-x:x);
 4092              		.loc 2 46 5 view .LVU1276
  46:src/dsp.h     ****     float y = 1.27323954f*x - 0.405284735f*x*(x<0?-x:x);
 4093              		.loc 2 46 17 is_stmt 0 view .LVU1277
 4094 12a4 71EE011A 		vadd.f32	s3, s2, s2
  46:src/dsp.h     ****     float y = 1.27323954f*x - 0.405284735f*x*(x<0?-x:x);
ARM GAS  /tmp/claude-502/ccaZRenT.s 			page 99


 4095              		.loc 2 46 11 view .LVU1278
 4096 12a8 9FEDA72A 		vldr.32	s4, .L453+28
 4097 12ac 9FEDA77A 		vldr.32	s14, .L453+32
  47:src/dsp.h     ****     y = 0.225f*(y*(y<0?-y:y) - y) + y;         // one refinement pass
 4098              		.loc 2 47 26 view .LVU1279
 4099 12b0 9FEDA7CA 		vldr.32	s24, .L453+36
  46:src/dsp.h     ****     float y = 1.27323954f*x - 0.405284735f*x*(x<0?-x:x);
 4100              		.loc 2 46 11 view .LVU1280
 4101 12b4 A1EE827A 		vfma.f32	s14, s3, s4
 4102              	.LVL278:
  47:src/dsp.h     ****     y = 0.225f*(y*(y<0?-y:y) - y) + y;         // one refinement pass
 4103              		.loc 2 47 5 is_stmt 1 view .LVU1281
  47:src/dsp.h     ****     y = 0.225f*(y*(y<0?-y:y) - y) + y;         // one refinement pass
 4104              		.loc 2 47 43 is_stmt 0 view .LVU1282
 4105 12b8 9FEDA62A 		vldr.32	s4, .L453+40
  47:src/dsp.h     ****     y = 0.225f*(y*(y<0?-y:y) - y) + y;         // one refinement pass
 4106              		.loc 2 47 50 view .LVU1283
 4107 12bc B5EEC07A 		vcmpe.f32	s14, #0
  47:src/dsp.h     ****     y = 0.225f*(y*(y<0?-y:y) - y) + y;         // one refinement pass
 4108              		.loc 2 47 43 view .LVU1284
 4109 12c0 27EE022A 		vmul.f32	s4, s14, s4
  47:src/dsp.h     ****     y = 0.225f*(y*(y<0?-y:y) - y) + y;         // one refinement pass
 4110              		.loc 2 47 26 view .LVU1285
 4111 12c4 27EE0CCA 		vmul.f32	s24, s14, s24
  47:src/dsp.h     ****     y = 0.225f*(y*(y<0?-y:y) - y) + y;         // one refinement pass
 4112              		.loc 2 47 50 view .LVU1286
 4113 12c8 F1EE10FA 		vmrs	APSR_nzcv, FPSCR
 4114 12cc 48BF     		it	mi
 4115 12ce B1EE477A 		vnegmi.f32	s14, s14
 4116              	.LVL279:
  47:src/dsp.h     ****     y = 0.225f*(y*(y<0?-y:y) - y) + y;         // one refinement pass
 4117              		.loc 2 47 11 view .LVU1287
 4118 12d2 A2EE47CA 		vfms.f32	s24, s4, s14
 4119              	.LVL280:
  48:src/dsp.h     ****     return -y;                                 // undo the π shift: sin(x+π) = -sin(x)
 4120              		.loc 2 48 5 is_stmt 1 view .LVU1288
  48:src/dsp.h     ****     return -y;                                 // undo the π shift: sin(x+π) = -sin(x)
 4121              		.loc 2 48 23 is_stmt 0 view .LVU1289
 4122 12d6 B5EEC0CA 		vcmpe.f32	s24, #0
 4123 12da B1EE4C7A 		vneg.f32	s14, s24
 4124 12de F1EE10FA 		vmrs	APSR_nzcv, FPSCR
 4125 12e2 54BF     		ite	pl
 4126 12e4 B0EE4C2A 		vmovpl.f32	s4, s24
 4127 12e8 B0EE472A 		vmovmi.f32	s4, s14
  48:src/dsp.h     ****     return -y;                                 // undo the π shift: sin(x+π) = -sin(x)
 4128              		.loc 2 48 30 view .LVU1290
 4129 12ec ACEE027A 		vfma.f32	s14, s24, s4
  48:src/dsp.h     ****     return -y;                                 // undo the π shift: sin(x+π) = -sin(x)
 4130              		.loc 2 48 7 view .LVU1291
 4131 12f0 9FED992A 		vldr.32	s4, .L453+44
 4132 12f4 A7EE02CA 		vfma.f32	s24, s14, s4
 4133              	.LVL281:
  49:src/dsp.h     **** }
 4134              		.loc 2 49 5 is_stmt 1 view .LVU1292
  49:src/dsp.h     **** }
 4135              		.loc 2 49 5 is_stmt 0 view .LVU1293
 4136              	.LBE737:
ARM GAS  /tmp/claude-502/ccaZRenT.s 			page 100


 4137              	.LBE736:
 4138              	.LBE746:
 4139              	.LBE1095:
 296:src/engine.cpp ****         float sub     = osc(s_phase_sub,VOICE.sub_wave)  * VOICE.sub_level;
 4140              		.loc 1 296 66 view .LVU1294
 4141 12f8 9DED067A 		vldr.32	s14, [sp, #24]
 4142 12fc 2CEE47CA 		vnmul.f32	s24, s24, s14
 4143              	.LBB1096:
 4144              	.LBB747:
  59:src/dsp.h     ****         case WAVE_SQUARE: return osc_square(ph);
 4145              		.loc 2 59 45 view .LVU1295
 4146 1300 FFF747B9 		b	.L73
 4147              	.LVL282:
 4148              	.L283:
  59:src/dsp.h     ****         case WAVE_SQUARE: return osc_square(ph);
 4149              		.loc 2 59 45 view .LVU1296
 4150              	.LBE747:
 4151              	.LBE1096:
 4152              	.LBB1097:
 4153              	.LBB671:
 4154              	.LBB662:
 4155              	.LBB648:
 4156              	.LBB589:
  26:src/dsp.h     ****     float x2=x*x;
 4157              		.loc 2 26 24 view .LVU1297
 4158 1304 FFEE006A 		vmov.f32	s13, #-1.0e+0
 4159 1308 FFF742BB 		b	.L153
 4160              	.LVL283:
 4161              	.L287:
  26:src/dsp.h     ****     float x2=x*x;
 4162              		.loc 2 26 24 view .LVU1298
 4163              	.LBE589:
 4164              	.LBE648:
 4165              	.LBB649:
 4166              	.LBB602:
 4167 130c FFEE006A 		vmov.f32	s13, #-1.0e+0
 4168 1310 FFF784BB 		b	.L155
 4169              	.LVL284:
 4170              	.L293:
  26:src/dsp.h     ****     float x2=x*x;
 4171              		.loc 2 26 24 view .LVU1299
 4172              	.LBE602:
 4173              	.LBE649:
 4174              	.LBB650:
 4175              	.LBB624:
 4176 1314 BFEE004A 		vmov.f32	s8, #-1.0e+0
 4177 1318 FFF7E6BB 		b	.L158
 4178              	.LVL285:
 4179              	.L291:
  26:src/dsp.h     ****     float x2=x*x;
 4180              		.loc 2 26 24 view .LVU1300
 4181              	.LBE624:
 4182              	.LBE650:
 4183              	.LBB651:
 4184              	.LBB617:
 4185 131c FFEE006A 		vmov.f32	s13, #-1.0e+0
 4186 1320 FFF7C2BB 		b	.L157
ARM GAS  /tmp/claude-502/ccaZRenT.s 			page 101


 4187              	.LVL286:
 4188              	.L289:
  26:src/dsp.h     ****     float x2=x*x;
 4189              		.loc 2 26 24 view .LVU1301
 4190              	.LBE617:
 4191              	.LBE651:
 4192              	.LBB652:
 4193              	.LBB610:
 4194 1324 FFEE003A 		vmov.f32	s7, #-1.0e+0
 4195 1328 FFF798BB 		b	.L156
 4196              	.LVL287:
 4197              	.L279:
  26:src/dsp.h     ****     float x2=x*x;
 4198              		.loc 2 26 24 view .LVU1302
 4199              	.LBE610:
 4200              	.LBE652:
 4201              	.LBE662:
 4202              	.LBE671:
 4203              	.LBE1097:
 4204              	.LBB1098:
 4205              	.LBB843:
 4206 132c BFEE000A 		vmov.f32	s0, #-1.0e+0
 4207 1330 FFF7EEBA 		b	.L149
 4208              	.LVL288:
 4209              	.L285:
  26:src/dsp.h     ****     float x2=x*x;
 4210              		.loc 2 26 24 view .LVU1303
 4211              	.LBE843:
 4212              	.LBE1098:
 4213              	.LBB1099:
 4214              	.LBB672:
 4215              	.LBB663:
 4216              	.LBB653:
 4217              	.LBB595:
 4218 1334 BFEE000A 		vmov.f32	s0, #-1.0e+0
 4219 1338 FFF74ABB 		b	.L154
 4220              	.LVL289:
 4221              	.L297:
  26:src/dsp.h     ****     float x2=x*x;
 4222              		.loc 2 26 24 view .LVU1304
 4223              	.LBE595:
 4224              	.LBE653:
 4225              	.LBB654:
 4226              	.LBB638:
 4227 133c FFEE004A 		vmov.f32	s9, #-1.0e+0
 4228 1340 18E4     		b	.L160
 4229              	.LVL290:
 4230              	.L427:
  26:src/dsp.h     ****     float x2=x*x;
 4231              		.loc 2 26 24 view .LVU1305
 4232              	.LBE638:
 4233              	.LBE654:
 4234              	.LBE663:
 4235              	.LBE672:
 4236              	.LBE1099:
 4237              	.LBB1100:
 360:src/engine.cpp ****             float m = 0.0f;
ARM GAS  /tmp/claude-502/ccaZRenT.s 			page 102


 4238              		.loc 1 360 9 view .LVU1306
 4239 1342 0D9B     		ldr	r3, [sp, #52]
 4240 1344 B1EE466A 		vneg.f32	s12, s12
 4241              	.LVL291:
 360:src/engine.cpp ****             float m = 0.0f;
 4242              		.loc 1 360 9 view .LVU1307
 4243 1348 0E2B     		cmp	r3, #14
 4244              	.LBE1100:
 356:src/engine.cpp **** 
 4245              		.loc 1 356 60 view .LVU1308
 4246 134a 28EE866A 		vmul.f32	s12, s17, s12
 4247              	.LVL292:
 360:src/engine.cpp ****             float m = 0.0f;
 4248              		.loc 1 360 9 is_stmt 1 view .LVU1309
 4249              	.LBB1101:
 4250 134e 7FF493AC 		bne	.L165
 4251              	.L428:
 360:src/engine.cpp ****             float m = 0.0f;
 4252              		.loc 1 360 9 is_stmt 0 view .LVU1310
 4253 1352 0022     		movs	r2, #0
 4254 1354 774B     		ldr	r3, .L453+8
 4255              	.LBB865:
 361:src/engine.cpp ****             for(int k = 0; k < POLY; k++) m += drum_render(g_hits[k], sr);
 4256              		.loc 1 361 19 view .LVU1311
 4257 1356 9FED785A 		vldr.32	s10, .L453+12
 4258              	.LBE865:
 360:src/engine.cpp ****             float m = 0.0f;
 4259              		.loc 1 360 9 view .LVU1312
 4260 135a 2792     		str	r2, [sp, #156]
 4261 135c 03F5987E 		add	lr, r3, #304
 4262 1360 764A     		ldr	r2, .L453+16
 4263 1362 1168     		ldr	r1, [r2]
 4264              	.LVL293:
 4265              	.L227:
 4266              	.LBB1018:
 4267              	.LBB866:
 362:src/engine.cpp ****             sample = fast_tanh(m) * s_master_vol;
 4268              		.loc 1 362 43 is_stmt 1 discriminator 2 view .LVU1313
 4269              	.LBB867:
 4270              	.LBI867:
  96:src/engine.cpp **** {
 4271              		.loc 1 96 14 discriminator 2 view .LVU1314
 4272              	.LBB868:
  98:src/engine.cpp ****     const Voice& V = VOICES[h.vidx];
 4273              		.loc 1 98 5 discriminator 2 view .LVU1315
  98:src/engine.cpp ****     const Voice& V = VOICES[h.vidx];
 4274              		.loc 1 98 11 is_stmt 0 discriminator 2 view .LVU1316
 4275 1364 93F800C0 		ldrb	ip, [r3]	@ zero_extendqisi2
  98:src/engine.cpp ****     const Voice& V = VOICES[h.vidx];
 4276              		.loc 1 98 5 discriminator 2 view .LVU1317
 4277 1368 BCF1000F 		cmp	ip, #0
 4278 136c 79D0     		beq	.L298
  99:src/engine.cpp ****     // Amp envelope: attack while gated, release on lift; free the slot when done.
 4279              		.loc 1 99 5 is_stmt 1 view .LVU1318
 101:src/engine.cpp ****     float c   = (tgt > h.amp) ? h.atk_c : h.rel_c;
 4280              		.loc 1 101 19 is_stmt 0 view .LVU1319
 4281 136e 5878     		ldrb	r0, [r3, #1]	@ zero_extendqisi2
ARM GAS  /tmp/claude-502/ccaZRenT.s 			page 103


  99:src/engine.cpp ****     // Amp envelope: attack while gated, release on lift; free the slot when done.
 4282              		.loc 1 99 31 view .LVU1320
 4283 1370 5A68     		ldr	r2, [r3, #4]
 4284              	.LVL294:
 101:src/engine.cpp ****     float c   = (tgt > h.amp) ? h.atk_c : h.rel_c;
 4285              		.loc 1 101 5 is_stmt 1 view .LVU1321
 101:src/engine.cpp ****     float c   = (tgt > h.amp) ? h.atk_c : h.rel_c;
 4286              		.loc 1 101 24 is_stmt 0 view .LVU1322
 4287 1372 0028     		cmp	r0, #0
 4288 1374 00F0A580 		beq	.L299
 4289 1378 D3ED035A 		vldr.32	s11, [r3, #12]
 4290              	.L167:
 4291              	.LVL295:
 102:src/engine.cpp ****     h.amp = h.amp*c + tgt*(1.0f-c);
 4292              		.loc 1 102 5 is_stmt 1 view .LVU1323
 102:src/engine.cpp ****     h.amp = h.amp*c + tgt*(1.0f-c);
 4293              		.loc 1 102 26 is_stmt 0 view .LVU1324
 4294 137c 93ED0A7A 		vldr.32	s14, [r3, #40]
 103:src/engine.cpp ****     if(!h.gate && h.amp < 0.0004f){ h.active=false; return 0.0f; }
 4295              		.loc 1 103 32 view .LVU1325
 4296 1380 F7EE006A 		vmov.f32	s13, #1.0e+0
 102:src/engine.cpp ****     h.amp = h.amp*c + tgt*(1.0f-c);
 4297              		.loc 1 102 31 view .LVU1326
 4298 1384 B4EEE57A 		vcmpe.f32	s14, s11
 4299 1388 F1EE10FA 		vmrs	APSR_nzcv, FPSCR
 4300 138c 4CBF     		ite	mi
 4301 138e 93ED0F6A 		vldrmi.32	s12, [r3, #60]
 4302 1392 93ED106A 		vldrpl.32	s12, [r3, #64]
 4303              	.LVL296:
 103:src/engine.cpp ****     if(!h.gate && h.amp < 0.0004f){ h.active=false; return 0.0f; }
 4304              		.loc 1 103 5 is_stmt 1 view .LVU1327
 103:src/engine.cpp ****     if(!h.gate && h.amp < 0.0004f){ h.active=false; return 0.0f; }
 4305              		.loc 1 103 32 is_stmt 0 view .LVU1328
 4306 1396 76EEC66A 		vsub.f32	s13, s13, s12
 103:src/engine.cpp ****     if(!h.gate && h.amp < 0.0004f){ h.active=false; return 0.0f; }
 4307              		.loc 1 103 26 view .LVU1329
 4308 139a 66EEA56A 		vmul.f32	s13, s13, s11
 103:src/engine.cpp ****     if(!h.gate && h.amp < 0.0004f){ h.active=false; return 0.0f; }
 4309              		.loc 1 103 21 view .LVU1330
 4310 139e E7EE066A 		vfma.f32	s13, s14, s12
 103:src/engine.cpp ****     if(!h.gate && h.amp < 0.0004f){ h.active=false; return 0.0f; }
 4311              		.loc 1 103 11 view .LVU1331
 4312 13a2 C3ED0A6A 		vstr.32	s13, [r3, #40]
 104:src/engine.cpp ****     // Pitch envelope decays to 1.0.
 4313              		.loc 1 104 5 is_stmt 1 view .LVU1332
 4314 13a6 38B9     		cbnz	r0, .L171
 104:src/engine.cpp ****     // Pitch envelope decays to 1.0.
 4315              		.loc 1 104 16 is_stmt 0 view .LVU1333
 4316 13a8 9FED657A 		vldr.32	s14, .L453+20
 4317 13ac F4EEC76A 		vcmpe.f32	s13, s14
 4318 13b0 F1EE10FA 		vmrs	APSR_nzcv, FPSCR
 4319 13b4 00F14284 		bmi	.L433
 4320              	.L171:
 106:src/engine.cpp ****     float f = h.freq * h.pmult;
 4321              		.loc 1 106 5 is_stmt 1 view .LVU1334
 106:src/engine.cpp ****     float f = h.freq * h.pmult;
 4322              		.loc 1 106 31 is_stmt 0 view .LVU1335
ARM GAS  /tmp/claude-502/ccaZRenT.s 			page 104


 4323 13b8 B7EE007A 		vmov.f32	s14, #1.0e+0
 4324 13bc D3ED0B5A 		vldr.32	s11, [r3, #44]
 4325              	.LVL297:
 106:src/engine.cpp ****     float f = h.freq * h.pmult;
 4326              		.loc 1 106 20 view .LVU1336
 4327 13c0 D3ED114A 		vldr.32	s9, [r3, #68]
 109:src/engine.cpp ****               + osc(h.ph2,V.osc2_wave)*V.osc2_level
 4328              		.loc 1 109 29 view .LVU1337
 4329 13c4 A820     		movs	r0, #168
 106:src/engine.cpp ****     float f = h.freq * h.pmult;
 4330              		.loc 1 106 31 view .LVU1338
 4331 13c6 75EEC75A 		vsub.f32	s11, s11, s14
 109:src/engine.cpp ****               + osc(h.ph2,V.osc2_wave)*V.osc2_level
 4332              		.loc 1 109 29 view .LVU1339
 4333 13ca 00FB0250 		mla	r0, r0, r2, r5
 106:src/engine.cpp ****     float f = h.freq * h.pmult;
 4334              		.loc 1 106 20 view .LVU1340
 4335 13ce B0EE476A 		vmov.f32	s12, s14
 4336              	.LVL298:
 109:src/engine.cpp ****               + osc(h.ph2,V.osc2_wave)*V.osc2_level
 4337              		.loc 1 109 29 view .LVU1341
 4338 13d2 007E     		ldrb	r0, [r0, #24]	@ zero_extendqisi2
 106:src/engine.cpp ****     float f = h.freq * h.pmult;
 4339              		.loc 1 106 20 view .LVU1342
 4340 13d4 A5EEA46A 		vfma.f32	s12, s11, s9
 4341              	.LBB869:
 4342              	.LBB870:
  58:src/dsp.h     ****         case WAVE_SINE:   return osc_sine(ph);
 4343              		.loc 2 58 5 view .LVU1343
 4344 13d8 0228     		cmp	r0, #2
 4345              	.LBE870:
 4346              	.LBE869:
 107:src/engine.cpp ****     // Oscillators + noise
 4347              		.loc 1 107 11 view .LVU1344
 4348 13da D3ED025A 		vldr.32	s11, [r3, #8]
 106:src/engine.cpp ****     float f = h.freq * h.pmult;
 4349              		.loc 1 106 13 view .LVU1345
 4350 13de 83ED0B6A 		vstr.32	s12, [r3, #44]
 107:src/engine.cpp ****     // Oscillators + noise
 4351              		.loc 1 107 5 is_stmt 1 view .LVU1346
 107:src/engine.cpp ****     // Oscillators + noise
 4352              		.loc 1 107 11 is_stmt 0 view .LVU1347
 4353 13e2 26EE256A 		vmul.f32	s12, s12, s11
 4354              	.LVL299:
 109:src/engine.cpp ****               + osc(h.ph2,V.osc2_wave)*V.osc2_level
 4355              		.loc 1 109 5 is_stmt 1 view .LVU1348
 109:src/engine.cpp ****               + osc(h.ph2,V.osc2_wave)*V.osc2_level
 4356              		.loc 1 109 20 is_stmt 0 view .LVU1349
 4357 13e6 D3ED065A 		vldr.32	s11, [r3, #24]
 4358              	.LVL300:
 4359              	.LBB889:
 4360              	.LBI869:
  57:src/dsp.h     ****     switch(w){
 4361              		.loc 2 57 21 is_stmt 1 view .LVU1350
 4362              	.LBB884:
  58:src/dsp.h     ****         case WAVE_SINE:   return osc_sine(ph);
 4363              		.loc 2 58 5 view .LVU1351
ARM GAS  /tmp/claude-502/ccaZRenT.s 			page 105


 4364 13ea 00F02982 		beq	.L173
 4365 13ee 0328     		cmp	r0, #3
 4366 13f0 00F01F82 		beq	.L174
 4367 13f4 0128     		cmp	r0, #1
 4368 13f6 00F0D081 		beq	.L434
 4369              	.LVL301:
 4370              	.LBB871:
 4371              	.LBI871:
  57:src/dsp.h     ****     switch(w){
 4372              		.loc 2 57 21 view .LVU1352
  57:src/dsp.h     ****     switch(w){
 4373              		.loc 2 57 21 is_stmt 0 view .LVU1353
 4374              	.LBE871:
 4375              	.LBE884:
 4376              	.LBE889:
 4377              	.LBE868:
 4378              	.LBE867:
 4379              	.LBE866:
 4380              	.LBE1018:
 4381              	.LBE1101:
 4382              	.LBE1134:
 4383              	.LBE1149:
  62:src/dsp.h     ****         default:          return tri(ph);
 4384              		.loc 2 62 9 is_stmt 1 view .LVU1354
  63:src/dsp.h     ****     }
 4385              		.loc 2 63 9 view .LVU1355
  63:src/dsp.h     ****     }
 4386              		.loc 2 63 27 view .LVU1356
 4387              	.LBB1150:
 4388              	.LBB1135:
 4389              	.LBB1102:
 4390              	.LBB1019:
 4391              	.LBB1004:
 4392              	.LBB996:
 4393              	.LBB988:
 4394              	.LBB890:
 4395              	.LBB885:
 4396              	.LBB876:
 4397              	.LBB872:
 4398              	.LBI872:
  40:src/dsp.h     ****     return ph<0.5f?(4.0f*ph-1.0f):(3.0f-4.0f*ph);
 4399              		.loc 2 40 21 view .LVU1357
 4400              	.LBB873:
  41:src/dsp.h     **** }
 4401              		.loc 2 41 5 view .LVU1358
  41:src/dsp.h     **** }
 4402              		.loc 2 41 19 is_stmt 0 view .LVU1359
 4403 13fa B6EE007A 		vmov.f32	s14, #5.0e-1
 4404 13fe F1EE004A 		vmov.f32	s9, #4.0e+0
 4405 1402 F4EEC75A 		vcmpe.f32	s11, s14
 4406 1406 F1EE10FA 		vmrs	APSR_nzcv, FPSCR
 4407 140a 40F15084 		bpl	.L392
 4408 140e BFEE007A 		vmov.f32	s14, #-1.0e+0
 4409 1412 A5EEA47A 		vfma.f32	s14, s11, s9
 4410 1416 ECE1     		b	.L180
 4411              	.LVL302:
 4412              	.L295:
ARM GAS  /tmp/claude-502/ccaZRenT.s 			page 106


  41:src/dsp.h     **** }
 4413              		.loc 2 41 19 view .LVU1360
 4414              	.LBE873:
 4415              	.LBE872:
 4416              	.LBE876:
 4417              	.LBE885:
 4418              	.LBE890:
 4419              	.LBE988:
 4420              	.LBE996:
 4421              	.LBE1004:
 4422              	.LBE1019:
 4423              	.LBE1102:
 4424              	.LBB1103:
 4425              	.LBB673:
 4426              	.LBB664:
 4427              	.LBB655:
 4428              	.LBB631:
  26:src/dsp.h     ****     float x2=x*x;
 4429              		.loc 2 26 24 view .LVU1361
 4430 1418 FFEE006A 		vmov.f32	s13, #-1.0e+0
 4431 141c FFF78ABB 		b	.L159
 4432              	.LVL303:
 4433              	.L120:
  26:src/dsp.h     ****     float x2=x*x;
 4434              		.loc 2 26 24 view .LVU1362
 4435              	.LBE631:
 4436              	.LBE655:
 4437              	.LBE664:
 4438              	.LBE673:
 4439              	.LBE1103:
 4440              	.LBB1104:
 4441              	.LBB577:
 4442              	.LBB548:
 4443              	.LBB502:
  61:src/dsp.h     ****         case WAVE_TRI:
 4444              		.loc 2 61 9 is_stmt 1 view .LVU1363
  61:src/dsp.h     ****         case WAVE_TRI:
 4445              		.loc 2 61 27 view .LVU1364
 4446              	.LBB490:
 4447              	.LBI490:
  53:src/dsp.h     **** 
 4448              		.loc 2 53 21 view .LVU1365
 4449              	.LBB491:
  53:src/dsp.h     **** 
 4450              		.loc 2 53 40 view .LVU1366
  53:src/dsp.h     **** 
 4451              		.loc 2 53 57 is_stmt 0 view .LVU1367
 4452 1420 F0EE002A 		vmov.f32	s5, #2.0e+0
 4453              	.LVL304:
 4454              	.L404:
  53:src/dsp.h     **** 
 4455              		.loc 2 53 57 view .LVU1368
 4456              	.LBE491:
 4457              	.LBE490:
 4458              	.LBB492:
 4459              	.LBB487:
 4460              	.LBB485:
ARM GAS  /tmp/claude-502/ccaZRenT.s 			page 107


  41:src/dsp.h     **** }
 4461              		.loc 2 41 19 view .LVU1369
 4462 1424 BFEE000A 		vmov.f32	s0, #-1.0e+0
 4463              	.LBE485:
 4464              	.LBE487:
 4465              	.LBE492:
 4466              	.LBE502:
 4467              	.LBE548:
 334:src/engine.cpp ****             s_phase1b += f3*VOICE.osc1_ratio/sr; if(s_phase1b>=1.0f)s_phase1b-=1.0f;
 4468              		.loc 1 334 24 view .LVU1370
 4469 1428 DFF818C1 		ldr	ip, .L453+24
 4470              	.LBB549:
 4471              	.LBB536:
  58:src/dsp.h     ****         case WAVE_SINE:   return osc_sine(ph);
 4472              		.loc 2 58 5 view .LVU1371
 4473 142c 022E     		cmp	r6, #2
 4474              	.LBE536:
 4475              	.LBE549:
 334:src/engine.cpp ****             s_phase1b += f3*VOICE.osc1_ratio/sr; if(s_phase1b>=1.0f)s_phase1b-=1.0f;
 4476              		.loc 1 334 24 view .LVU1372
 4477 142e 9CED00AA 		vldr.32	s20, [ip]
 4478              	.LBB550:
 4479              	.LBB503:
 4480              	.LBB493:
 4481              	.LBB488:
 4482              	.LBB486:
  41:src/dsp.h     **** }
 4483              		.loc 2 41 19 view .LVU1373
 4484 1432 AAEEA20A 		vfma.f32	s0, s21, s5
 4485              	.LBE486:
 4486              	.LBE488:
 4487              	.LBE493:
 4488              	.LBE503:
 4489              	.LBE550:
 333:src/engine.cpp ****                   + osc(s_phase2c, VOICE.osc2_wave) * VOICE.osc2_level) * cl;
 4490              		.loc 1 333 53 view .LVU1374
 4491 1436 DDED052A 		vldr.32	s5, [sp, #20]
 4492 143a 60EE222A 		vmul.f32	s5, s0, s5
 4493 143e CDED272A 		vstr.32	s5, [sp, #156]
 4494              	.LVL305:
 4495              	.LBB551:
  57:src/dsp.h     ****     switch(w){
 4496              		.loc 2 57 21 is_stmt 1 view .LVU1375
 4497              	.LBB537:
  58:src/dsp.h     ****         case WAVE_SINE:   return osc_sine(ph);
 4498              		.loc 2 58 5 view .LVU1376
 4499 1442 7FF4BDA9 		bne	.L435
 4500              	.L129:
  60:src/dsp.h     ****         case WAVE_SAW:    return osc_saw(ph);
 4501              		.loc 2 60 9 view .LVU1377
  60:src/dsp.h     ****         case WAVE_SAW:    return osc_saw(ph);
 4502              		.loc 2 60 27 view .LVU1378
 4503              	.LVL306:
 4504              	.LBB523:
 4505              	.LBI523:
  52:src/dsp.h     **** static inline float osc_saw(float ph){ return 2.0f*ph - 1.0f; }
 4506              		.loc 2 52 21 view .LVU1379
ARM GAS  /tmp/claude-502/ccaZRenT.s 			page 108


 4507              	.LBB524:
  52:src/dsp.h     **** static inline float osc_saw(float ph){ return 2.0f*ph - 1.0f; }
 4508              		.loc 2 52 43 view .LVU1380
  52:src/dsp.h     **** static inline float osc_saw(float ph){ return 2.0f*ph - 1.0f; }
 4509              		.loc 2 52 58 is_stmt 0 view .LVU1381
 4510 1446 F6EE002A 		vmov.f32	s5, #5.0e-1
 4511 144a B4EEE2AA 		vcmpe.f32	s20, s5
 4512 144e DDED062A 		vldr.32	s5, [sp, #24]
 4513 1452 F1EE10FA 		vmrs	APSR_nzcv, FPSCR
 4514 1456 3FF5CBA9 		bmi	.L136
  52:src/dsp.h     **** static inline float osc_saw(float ph){ return 2.0f*ph - 1.0f; }
 4515              		.loc 2 52 58 view .LVU1382
 4516 145a F1EE622A 		vneg.f32	s5, s5
 4517 145e FFF7C7B9 		b	.L136
 4518              	.LVL307:
 4519              	.L298:
  52:src/dsp.h     **** static inline float osc_saw(float ph){ return 2.0f*ph - 1.0f; }
 4520              		.loc 2 52 58 view .LVU1383
 4521              	.LBE524:
 4522              	.LBE523:
 4523              	.LBE537:
 4524              	.LBE551:
 4525              	.LBE577:
 4526              	.LBE1104:
 4527              	.LBB1105:
 4528              	.LBB1020:
 4529              	.LBB1005:
 4530              	.LBB997:
 4531              	.LBB989:
  98:src/engine.cpp ****     const Voice& V = VOICES[h.vidx];
 4532              		.loc 1 98 26 view .LVU1384
 4533 1462 DFED356A 		vldr.32	s13, .L453+12
 4534              	.L166:
  98:src/engine.cpp ****     const Voice& V = VOICES[h.vidx];
 4535              		.loc 1 98 26 view .LVU1385
 4536              	.LBE989:
 4537              	.LBE997:
 362:src/engine.cpp ****             sample = fast_tanh(m) * s_master_vol;
 4538              		.loc 1 362 30 view .LVU1386
 4539 1466 4C33     		adds	r3, r3, #76
 362:src/engine.cpp ****             sample = fast_tanh(m) * s_master_vol;
 4540              		.loc 1 362 45 view .LVU1387
 4541 1468 35EE265A 		vadd.f32	s10, s10, s13
 4542              	.LVL308:
 362:src/engine.cpp ****             sample = fast_tanh(m) * s_master_vol;
 4543              		.loc 1 362 13 is_stmt 1 view .LVU1388
 362:src/engine.cpp ****             sample = fast_tanh(m) * s_master_vol;
 4544              		.loc 1 362 30 view .LVU1389
 4545 146c 7345     		cmp	r3, lr
 4546 146e 7FF479AF 		bne	.L227
 4547 1472 279B     		ldr	r3, [sp, #156]
 4548 1474 0BB1     		cbz	r3, .L228
 4549 1476 314B     		ldr	r3, .L453+16
 4550 1478 1960     		str	r1, [r3]
 4551              	.L228:
 4552              	.LBE1005:
 363:src/engine.cpp ****         }
ARM GAS  /tmp/claude-502/ccaZRenT.s 			page 109


 4553              		.loc 1 363 13 view .LVU1390
 4554              	.LVL309:
 4555              	.LBB1006:
 4556              	.LBI1006:
  23:src/dsp.h     **** {
 4557              		.loc 2 23 21 view .LVU1391
 4558              	.LBB1007:
  25:src/dsp.h     ****     if(x<-3.0f)return -1.0f;
 4559              		.loc 2 25 5 view .LVU1392
 4560 147a B0EE087A 		vmov.f32	s14, #3.0e+0
 4561 147e B4EEC75A 		vcmpe.f32	s10, s14
 4562 1482 F1EE10FA 		vmrs	APSR_nzcv, FPSCR
 4563 1486 00F31B84 		bgt	.L310
  26:src/dsp.h     ****     float x2=x*x;
 4564              		.loc 2 26 5 view .LVU1393
 4565 148a B8EE087A 		vmov.f32	s14, #-3.0e+0
 4566 148e B4EEC75A 		vcmpe.f32	s10, s14
 4567 1492 F1EE10FA 		vmrs	APSR_nzcv, FPSCR
 4568 1496 00F11D84 		bmi	.L436
 4569              	.LVL310:
 4570              	.LBB1008:
 4571              	.LBI1008:
  23:src/dsp.h     **** {
 4572              		.loc 2 23 21 view .LVU1394
 4573              	.LBB1009:
  27:src/dsp.h     ****     return x*(27.0f+x2)/(27.0f+9.0f*x2);
 4574              		.loc 2 27 5 view .LVU1395
  28:src/dsp.h     **** }
 4575              		.loc 2 28 20 is_stmt 0 view .LVU1396
 4576 149a F3EE0B6A 		vmov.f32	s13, #2.7e+1
  27:src/dsp.h     ****     return x*(27.0f+x2)/(27.0f+9.0f*x2);
 4577              		.loc 2 27 11 view .LVU1397
 4578 149e 25EE057A 		vmul.f32	s14, s10, s10
 4579              	.LVL311:
  28:src/dsp.h     **** }
 4580              		.loc 2 28 5 is_stmt 1 view .LVU1398
  28:src/dsp.h     **** }
 4581              		.loc 2 28 31 is_stmt 0 view .LVU1399
 4582 14a2 B2EE026A 		vmov.f32	s12, #9.0e+0
 4583 14a6 F0EE665A 		vmov.f32	s11, s13
 4584 14aa E7EE065A 		vfma.f32	s11, s14, s12
 4585              	.LVL312:
  28:src/dsp.h     **** }
 4586              		.loc 2 28 20 view .LVU1400
 4587 14ae 37EE267A 		vadd.f32	s14, s14, s13
  28:src/dsp.h     **** }
 4588              		.loc 2 28 13 view .LVU1401
 4589 14b2 27EE055A 		vmul.f32	s10, s14, s10
 4590              	.LVL313:
  28:src/dsp.h     **** }
 4591              		.loc 2 28 39 view .LVU1402
 4592 14b6 85EE256A 		vdiv.f32	s12, s10, s11
 4593              	.LBE1009:
 4594              	.LBE1008:
 4595              	.LBE1007:
 4596              	.LBE1006:
 363:src/engine.cpp ****         }
ARM GAS  /tmp/claude-502/ccaZRenT.s 			page 110


 4597              		.loc 1 363 20 view .LVU1403
 4598 14ba 26EE286A 		vmul.f32	s12, s12, s17
 4599 14be FFF7DBBB 		b	.L165
 4600              	.LVL314:
 4601              	.L299:
 4602              	.LBB1011:
 4603              	.LBB998:
 4604              	.LBB990:
 101:src/engine.cpp ****     float c   = (tgt > h.amp) ? h.atk_c : h.rel_c;
 4605              		.loc 1 101 24 view .LVU1404
 4606 14c2 DFED1D5A 		vldr.32	s11, .L453+12
 4607 14c6 59E7     		b	.L167
 4608              	.LVL315:
 4609              	.L425:
 101:src/engine.cpp ****     float c   = (tgt > h.amp) ? h.atk_c : h.rel_c;
 4610              		.loc 1 101 24 view .LVU1405
 4611              	.LBE990:
 4612              	.LBE998:
 4613              	.LBE1011:
 4614              	.LBE1020:
 4615              	.LBE1105:
 4616              	.LBB1106:
 4617              	.LBB578:
 4618              	.LBB552:
 4619              	.LBB504:
  59:src/dsp.h     ****         case WAVE_SQUARE: return osc_square(ph);
 4620              		.loc 2 59 9 is_stmt 1 view .LVU1406
  59:src/dsp.h     ****         case WAVE_SQUARE: return osc_square(ph);
 4621              		.loc 2 59 27 view .LVU1407
 4622              	.LBB494:
 4623              	.LBI494:
  44:src/dsp.h     ****     constexpr float PI = 3.14159265f;
 4624              		.loc 2 44 21 view .LVU1408
 4625              	.LBB495:
  45:src/dsp.h     ****     float x = ph*2.0f*PI - PI;                 // -π..π (angle shifted by π)
 4626              		.loc 2 45 5 view .LVU1409
  46:src/dsp.h     ****     float y = 1.27323954f*x - 0.405284735f*x*(x<0?-x:x);
 4627              		.loc 2 46 5 view .LVU1410
  46:src/dsp.h     ****     float y = 1.27323954f*x - 0.405284735f*x*(x<0?-x:x);
 4628              		.loc 2 46 17 is_stmt 0 view .LVU1411
 4629 14c8 3AEEAAAA 		vadd.f32	s20, s21, s21
  46:src/dsp.h     ****     float y = 1.27323954f*x - 0.405284735f*x*(x<0?-x:x);
 4630              		.loc 2 46 11 view .LVU1412
 4631 14cc 9FED1E0A 		vldr.32	s0, .L453+28
 4632 14d0 DFED1E2A 		vldr.32	s5, .L453+32
 4633 14d4 EAEE002A 		vfma.f32	s5, s20, s0
 4634              	.LVL316:
  47:src/dsp.h     ****     y = 0.225f*(y*(y<0?-y:y) - y) + y;         // one refinement pass
 4635              		.loc 2 47 5 is_stmt 1 view .LVU1413
  47:src/dsp.h     ****     y = 0.225f*(y*(y<0?-y:y) - y) + y;         // one refinement pass
 4636              		.loc 2 47 26 is_stmt 0 view .LVU1414
 4637 14d8 9FED1D0A 		vldr.32	s0, .L453+36
  47:src/dsp.h     ****     y = 0.225f*(y*(y<0?-y:y) - y) + y;         // one refinement pass
 4638              		.loc 2 47 43 view .LVU1415
 4639 14dc 9FED1DAA 		vldr.32	s20, .L453+40
  47:src/dsp.h     ****     y = 0.225f*(y*(y<0?-y:y) - y) + y;         // one refinement pass
 4640              		.loc 2 47 50 view .LVU1416
ARM GAS  /tmp/claude-502/ccaZRenT.s 			page 111


 4641 14e0 F5EEC02A 		vcmpe.f32	s5, #0
  47:src/dsp.h     ****     y = 0.225f*(y*(y<0?-y:y) - y) + y;         // one refinement pass
 4642              		.loc 2 47 43 view .LVU1417
 4643 14e4 22EE8AAA 		vmul.f32	s20, s5, s20
  47:src/dsp.h     ****     y = 0.225f*(y*(y<0?-y:y) - y) + y;         // one refinement pass
 4644              		.loc 2 47 26 view .LVU1418
 4645 14e8 22EE800A 		vmul.f32	s0, s5, s0
  47:src/dsp.h     ****     y = 0.225f*(y*(y<0?-y:y) - y) + y;         // one refinement pass
 4646              		.loc 2 47 50 view .LVU1419
 4647 14ec F1EE10FA 		vmrs	APSR_nzcv, FPSCR
 4648 14f0 48BF     		it	mi
 4649 14f2 F1EE622A 		vnegmi.f32	s5, s5
 4650              	.LVL317:
  47:src/dsp.h     ****     y = 0.225f*(y*(y<0?-y:y) - y) + y;         // one refinement pass
 4651              		.loc 2 47 11 view .LVU1420
 4652 14f6 AAEE620A 		vfms.f32	s0, s20, s5
 4653              	.LVL318:
  48:src/dsp.h     ****     return -y;                                 // undo the π shift: sin(x+π) = -sin(x)
 4654              		.loc 2 48 5 is_stmt 1 view .LVU1421
  48:src/dsp.h     ****     return -y;                                 // undo the π shift: sin(x+π) = -sin(x)
 4655              		.loc 2 48 23 is_stmt 0 view .LVU1422
 4656 14fa B5EEC00A 		vcmpe.f32	s0, #0
 4657 14fe F1EE402A 		vneg.f32	s5, s0
 4658 1502 F1EE10FA 		vmrs	APSR_nzcv, FPSCR
 4659 1506 54BF     		ite	pl
 4660 1508 B0EE40AA 		vmovpl.f32	s20, s0
 4661 150c B0EE62AA 		vmovmi.f32	s20, s5
  48:src/dsp.h     ****     return -y;                                 // undo the π shift: sin(x+π) = -sin(x)
 4662              		.loc 2 48 30 view .LVU1423
 4663 1510 E0EE0A2A 		vfma.f32	s5, s0, s20
  48:src/dsp.h     ****     return -y;                                 // undo the π shift: sin(x+π) = -sin(x)
 4664              		.loc 2 48 7 view .LVU1424
 4665 1514 9FED10AA 		vldr.32	s20, .L453+44
 4666 1518 A2EE8A0A 		vfma.f32	s0, s5, s20
 4667              	.LVL319:
  49:src/dsp.h     **** }
 4668              		.loc 2 49 5 is_stmt 1 view .LVU1425
  49:src/dsp.h     **** }
 4669              		.loc 2 49 5 is_stmt 0 view .LVU1426
 4670              	.LBE495:
 4671              	.LBE494:
 4672              	.LBE504:
 4673              	.LBE552:
 333:src/engine.cpp ****                   + osc(s_phase2c, VOICE.osc2_wave) * VOICE.osc2_level) * cl;
 4674              		.loc 1 333 53 view .LVU1427
 4675 151c DDED052A 		vldr.32	s5, [sp, #20]
 4676 1520 60EE622A 		vnmul.f32	s5, s0, s5
 4677 1524 CDED272A 		vstr.32	s5, [sp, #156]
 4678              	.LBB553:
 4679              	.LBB505:
  59:src/dsp.h     ****         case WAVE_SQUARE: return osc_square(ph);
 4680              		.loc 2 59 45 view .LVU1428
 4681 1528 FFF723B9 		b	.L126
 4682              	.L454:
 4683              		.align	2
 4684              	.L453:
 4685 152c 00000000 		.word	.LANCHOR37
ARM GAS  /tmp/claude-502/ccaZRenT.s 			page 112


 4686 1530 00000000 		.word	.LANCHOR38
 4687 1534 00000000 		.word	.LANCHOR47
 4688 1538 00000000 		.word	0
 4689 153c 00000000 		.word	.LANCHOR40
 4690 1540 17B7D139 		.word	970045207
 4691 1544 00000000 		.word	.LANCHOR45
 4692 1548 DB0F4940 		.word	1078530011
 4693 154c DB0F49C0 		.word	-1068953637
 4694 1550 83F9A23F 		.word	1067645315
 4695 1554 7B81CF3E 		.word	1053786491
 4696 1558 6666663E 		.word	1046898278
 4697              	.LVL320:
 4698              	.L372:
  59:src/dsp.h     ****         case WAVE_SQUARE: return osc_square(ph);
 4699              		.loc 2 59 45 view .LVU1429
 4700              	.LBE505:
 4701              	.LBE553:
 4702              	.LBE578:
 4703              	.LBE1106:
 4704              	.LBB1107:
 4705              	.LBB719:
 4706              	.LBB709:
 4707              	.LBB696:
 4708              	.LBB695:
  41:src/dsp.h     **** }
 4709              		.loc 2 41 19 view .LVU1430
 4710 155c F0EE082A 		vmov.f32	s5, #3.0e+0
 4711 1560 E0EEC72A 		vfms.f32	s5, s1, s14
 4712              	.LBE695:
 4713              	.LBE696:
 4714              	.LBE709:
 4715              	.LBE719:
 4716              	.LBE1107:
 295:src/engine.cpp ****         float osc2    = osc(s_phase2,   VOICE.osc2_wave) * VOICE.osc2_level;
 4717              		.loc 1 295 66 view .LVU1431
 4718 1564 9DED057A 		vldr.32	s14, [sp, #20]
 4719 1568 62EE872A 		vmul.f32	s5, s5, s14
 4720 156c FEF7F3BF 		b	.L63
 4721              	.LVL321:
 4722              	.L264:
 4723              	.LBB1108:
 4724              	.LBB748:
 4725              	.LBB738:
 4726              	.LBB733:
 295:src/engine.cpp ****         float osc2    = osc(s_phase2,   VOICE.osc2_wave) * VOICE.osc2_level;
 4727              		.loc 1 295 66 view .LVU1432
 4728 1570 9DED06CA 		vldr.32	s24, [sp, #24]
 4729 1574 FFF70DB8 		b	.L73
 4730              	.LVL322:
 4731              	.L378:
 295:src/engine.cpp ****         float osc2    = osc(s_phase2,   VOICE.osc2_wave) * VOICE.osc2_level;
 4732              		.loc 1 295 66 view .LVU1433
 4733              	.LBE733:
 4734              	.LBE738:
 4735              	.LBE748:
 4736              	.LBE1108:
 4737              	.LBB1109:
ARM GAS  /tmp/claude-502/ccaZRenT.s 			page 113


 4738              	.LBB821:
 4739              	.LBB811:
 4740              	.LBB796:
 4741              	.LBB793:
  41:src/dsp.h     **** }
 4742              		.loc 2 41 19 view .LVU1434
 4743 1578 B0EE08AA 		vmov.f32	s20, #3.0e+0
 4744              	.LBE793:
 4745              	.LBE796:
 4746              	.LBE811:
 4747              	.LBE821:
 4748              	.LBE1109:
 298:src/engine.cpp **** 
 4749              		.loc 1 298 66 view .LVU1435
 4750 157c 9DED267A 		vldr.32	s14, [sp, #152]
 4751              	.LBB1110:
 4752              	.LBB822:
 4753              	.LBB812:
 4754              	.LBB797:
 4755              	.LBB794:
  41:src/dsp.h     **** }
 4756              		.loc 2 41 19 view .LVU1436
 4757 1580 A2EE40AA 		vfms.f32	s20, s4, s0
 4758              	.LBE794:
 4759              	.LBE797:
 4760              	.LBE812:
 4761              	.LBE822:
 4762              	.LBE1110:
 298:src/engine.cpp **** 
 4763              		.loc 1 298 66 view .LVU1437
 4764 1584 2AEE07AA 		vmul.f32	s20, s20, s14
 4765 1588 FFF743B8 		b	.L93
 4766              	.LVL323:
 4767              	.L374:
 4768              	.LBB1111:
 4769              	.LBB749:
 4770              	.LBB739:
 4771              	.LBB729:
 4772              	.LBB728:
  41:src/dsp.h     **** }
 4773              		.loc 2 41 19 view .LVU1438
 4774 158c B0EE08CA 		vmov.f32	s24, #3.0e+0
 4775 1590 A1EE47CA 		vfms.f32	s24, s2, s14
 4776              	.LBE728:
 4777              	.LBE729:
 4778              	.LBE739:
 4779              	.LBE749:
 4780              	.LBE1111:
 296:src/engine.cpp ****         float sub     = osc(s_phase_sub,VOICE.sub_wave)  * VOICE.sub_level;
 4781              		.loc 1 296 66 view .LVU1439
 4782 1594 9DED067A 		vldr.32	s14, [sp, #24]
 4783 1598 2CEE07CA 		vmul.f32	s24, s24, s14
 4784 159c FEF7F9BF 		b	.L73
 4785              	.LVL324:
 4786              	.L376:
 4787              	.LBB1112:
 4788              	.LBB783:
ARM GAS  /tmp/claude-502/ccaZRenT.s 			page 114


 4789              	.LBB771:
 4790              	.LBB758:
 4791              	.LBB757:
  41:src/dsp.h     **** }
 4792              		.loc 2 41 19 view .LVU1440
 4793 15a0 F0EE08AA 		vmov.f32	s21, #3.0e+0
 4794 15a4 E1EEC7AA 		vfms.f32	s21, s3, s14
 4795              	.LBE757:
 4796              	.LBE758:
 4797              	.LBE771:
 4798              	.LBE783:
 4799              	.LBE1112:
 297:src/engine.cpp ****         float osc_oct = osc(s_phase_oct,VOICE.oct_wave)  * VOICE.oct_level;
 4800              		.loc 1 297 66 view .LVU1441
 4801 15a8 9DED257A 		vldr.32	s14, [sp, #148]
 4802 15ac 6AEE87AA 		vmul.f32	s21, s21, s14
 4803 15b0 FFF710B8 		b	.L83
 4804              	.LVL325:
 4805              	.L268:
 4806              	.LBB1113:
 4807              	.LBB823:
 4808              	.LBB813:
 4809              	.LBB810:
 297:src/engine.cpp ****         float osc_oct = osc(s_phase_oct,VOICE.oct_wave)  * VOICE.oct_level;
 4810              		.loc 1 297 66 view .LVU1442
 4811 15b4 9DED26AA 		vldr.32	s20, [sp, #152]
 4812 15b8 FFF72BB8 		b	.L93
 4813              	.LVL326:
 4814              	.L262:
 297:src/engine.cpp ****         float osc_oct = osc(s_phase_oct,VOICE.oct_wave)  * VOICE.oct_level;
 4815              		.loc 1 297 66 view .LVU1443
 4816              	.LBE810:
 4817              	.LBE813:
 4818              	.LBE823:
 4819              	.LBE1113:
 4820              	.LBB1114:
 4821              	.LBB720:
 4822              	.LBB710:
 4823              	.LBB706:
 4824 15bc DDED052A 		vldr.32	s5, [sp, #20]
 4825 15c0 FEF7C9BF 		b	.L63
 4826              	.LVL327:
 4827              	.L266:
 297:src/engine.cpp ****         float osc_oct = osc(s_phase_oct,VOICE.oct_wave)  * VOICE.oct_level;
 4828              		.loc 1 297 66 view .LVU1444
 4829              	.LBE706:
 4830              	.LBE710:
 4831              	.LBE720:
 4832              	.LBE1114:
 4833              	.LBB1115:
 4834              	.LBB784:
 4835              	.LBB772:
 4836              	.LBB766:
 4837 15c4 DDED25AA 		vldr.32	s21, [sp, #148]
 4838 15c8 FFF704B8 		b	.L83
 4839              	.LVL328:
 4840              	.L119:
ARM GAS  /tmp/claude-502/ccaZRenT.s 			page 115


 297:src/engine.cpp ****         float osc_oct = osc(s_phase_oct,VOICE.oct_wave)  * VOICE.oct_level;
 4841              		.loc 1 297 66 view .LVU1445
 4842              	.LBE766:
 4843              	.LBE772:
 4844              	.LBE784:
 4845              	.LBE1115:
 4846              	.LBB1116:
 4847              	.LBB579:
 4848              	.LBB554:
 4849              	.LBB506:
  60:src/dsp.h     ****         case WAVE_SAW:    return osc_saw(ph);
 4850              		.loc 2 60 9 is_stmt 1 view .LVU1446
  60:src/dsp.h     ****         case WAVE_SAW:    return osc_saw(ph);
 4851              		.loc 2 60 27 view .LVU1447
 4852              	.LBB496:
 4853              	.LBI496:
  52:src/dsp.h     **** static inline float osc_saw(float ph){ return 2.0f*ph - 1.0f; }
 4854              		.loc 2 52 21 view .LVU1448
 4855              	.LBB497:
  52:src/dsp.h     **** static inline float osc_saw(float ph){ return 2.0f*ph - 1.0f; }
 4856              		.loc 2 52 43 view .LVU1449
  52:src/dsp.h     **** static inline float osc_saw(float ph){ return 2.0f*ph - 1.0f; }
 4857              		.loc 2 52 58 is_stmt 0 view .LVU1450
 4858 15cc F6EE002A 		vmov.f32	s5, #5.0e-1
 4859 15d0 F4EEE2AA 		vcmpe.f32	s21, s5
 4860 15d4 DDED052A 		vldr.32	s5, [sp, #20]
 4861 15d8 F1EE10FA 		vmrs	APSR_nzcv, FPSCR
 4862 15dc 00F15483 		bmi	.L275
 4863 15e0 F1EE622A 		vneg.f32	s5, s5
 4864 15e4 CDED272A 		vstr.32	s5, [sp, #156]
 4865 15e8 FFF7C3B8 		b	.L126
 4866              	.LVL329:
 4867              	.L426:
  52:src/dsp.h     **** static inline float osc_saw(float ph){ return 2.0f*ph - 1.0f; }
 4868              		.loc 2 52 58 view .LVU1451
 4869              	.LBE497:
 4870              	.LBE496:
 4871              	.LBE506:
 4872              	.LBE554:
 4873              	.LBB555:
 4874              	.LBB538:
  59:src/dsp.h     ****         case WAVE_SQUARE: return osc_square(ph);
 4875              		.loc 2 59 9 is_stmt 1 view .LVU1452
  59:src/dsp.h     ****         case WAVE_SQUARE: return osc_square(ph);
 4876              		.loc 2 59 27 view .LVU1453
 4877              	.LBB525:
 4878              	.LBI525:
  44:src/dsp.h     ****     constexpr float PI = 3.14159265f;
 4879              		.loc 2 44 21 view .LVU1454
 4880              	.LBB526:
  45:src/dsp.h     ****     float x = ph*2.0f*PI - PI;                 // -π..π (angle shifted by π)
 4881              		.loc 2 45 5 view .LVU1455
  46:src/dsp.h     ****     float y = 1.27323954f*x - 0.405284735f*x*(x<0?-x:x);
 4882              		.loc 2 46 5 view .LVU1456
  46:src/dsp.h     ****     float y = 1.27323954f*x - 0.405284735f*x*(x<0?-x:x);
 4883              		.loc 2 46 17 is_stmt 0 view .LVU1457
 4884 15ec 7AEE0A2A 		vadd.f32	s5, s20, s20
ARM GAS  /tmp/claude-502/ccaZRenT.s 			page 116


  46:src/dsp.h     ****     float y = 1.27323954f*x - 0.405284735f*x*(x<0?-x:x);
 4885              		.loc 2 46 11 view .LVU1458
 4886 15f0 1FED2AEA 		vldr.32	s28, .L453+32
  46:src/dsp.h     ****     float y = 1.27323954f*x - 0.405284735f*x*(x<0?-x:x);
 4887              		.loc 2 46 17 view .LVU1459
 4888 15f4 B0EE620A 		vmov.f32	s0, s5
  46:src/dsp.h     ****     float y = 1.27323954f*x - 0.405284735f*x*(x<0?-x:x);
 4889              		.loc 2 46 11 view .LVU1460
 4890 15f8 5FED2D2A 		vldr.32	s5, .L453+28
 4891 15fc A0EE22EA 		vfma.f32	s28, s0, s5
 4892              	.LVL330:
  47:src/dsp.h     ****     y = 0.225f*(y*(y<0?-y:y) - y) + y;         // one refinement pass
 4893              		.loc 2 47 5 is_stmt 1 view .LVU1461
  47:src/dsp.h     ****     y = 0.225f*(y*(y<0?-y:y) - y) + y;         // one refinement pass
 4894              		.loc 2 47 26 is_stmt 0 view .LVU1462
 4895 1600 5FED2D2A 		vldr.32	s5, .L453+36
  47:src/dsp.h     ****     y = 0.225f*(y*(y<0?-y:y) - y) + y;         // one refinement pass
 4896              		.loc 2 47 43 view .LVU1463
 4897 1604 1FED2D0A 		vldr.32	s0, .L453+40
  47:src/dsp.h     ****     y = 0.225f*(y*(y<0?-y:y) - y) + y;         // one refinement pass
 4898              		.loc 2 47 50 view .LVU1464
 4899 1608 B5EEC0EA 		vcmpe.f32	s28, #0
  47:src/dsp.h     ****     y = 0.225f*(y*(y<0?-y:y) - y) + y;         // one refinement pass
 4900              		.loc 2 47 43 view .LVU1465
 4901 160c 2EEE000A 		vmul.f32	s0, s28, s0
  47:src/dsp.h     ****     y = 0.225f*(y*(y<0?-y:y) - y) + y;         // one refinement pass
 4902              		.loc 2 47 26 view .LVU1466
 4903 1610 6EEE222A 		vmul.f32	s5, s28, s5
  47:src/dsp.h     ****     y = 0.225f*(y*(y<0?-y:y) - y) + y;         // one refinement pass
 4904              		.loc 2 47 50 view .LVU1467
 4905 1614 F1EE10FA 		vmrs	APSR_nzcv, FPSCR
 4906 1618 48BF     		it	mi
 4907 161a B1EE4EEA 		vnegmi.f32	s28, s28
 4908              	.LVL331:
  47:src/dsp.h     ****     y = 0.225f*(y*(y<0?-y:y) - y) + y;         // one refinement pass
 4909              		.loc 2 47 11 view .LVU1468
 4910 161e E0EE4E2A 		vfms.f32	s5, s0, s28
 4911              	.LVL332:
  48:src/dsp.h     ****     return -y;                                 // undo the π shift: sin(x+π) = -sin(x)
 4912              		.loc 2 48 5 is_stmt 1 view .LVU1469
  48:src/dsp.h     ****     return -y;                                 // undo the π shift: sin(x+π) = -sin(x)
 4913              		.loc 2 48 23 is_stmt 0 view .LVU1470
 4914 1622 F5EEC02A 		vcmpe.f32	s5, #0
 4915 1626 B1EE62EA 		vneg.f32	s28, s5
 4916 162a F1EE10FA 		vmrs	APSR_nzcv, FPSCR
 4917 162e 54BF     		ite	pl
 4918 1630 B0EE620A 		vmovpl.f32	s0, s5
 4919 1634 B0EE4E0A 		vmovmi.f32	s0, s28
  48:src/dsp.h     ****     return -y;                                 // undo the π shift: sin(x+π) = -sin(x)
 4920              		.loc 2 48 30 view .LVU1471
 4921 1638 A2EE80EA 		vfma.f32	s28, s5, s0
  48:src/dsp.h     ****     return -y;                                 // undo the π shift: sin(x+π) = -sin(x)
 4922              		.loc 2 48 7 view .LVU1472
 4923 163c 1FED3A0A 		vldr.32	s0, .L453+44
 4924 1640 EEEE002A 		vfma.f32	s5, s28, s0
 4925              	.LVL333:
  49:src/dsp.h     **** }
ARM GAS  /tmp/claude-502/ccaZRenT.s 			page 117


 4926              		.loc 2 49 5 is_stmt 1 view .LVU1473
  49:src/dsp.h     **** }
 4927              		.loc 2 49 5 is_stmt 0 view .LVU1474
 4928              	.LBE526:
 4929              	.LBE525:
 4930              	.LBE538:
 4931              	.LBE555:
 334:src/engine.cpp ****             s_phase1b += f3*VOICE.osc1_ratio/sr; if(s_phase1b>=1.0f)s_phase1b-=1.0f;
 4932              		.loc 1 334 53 view .LVU1475
 4933 1644 9DED060A 		vldr.32	s0, [sp, #24]
 4934 1648 62EEC02A 		vnmul.f32	s5, s5, s0
 4935              	.LBB556:
 4936              	.LBB539:
  59:src/dsp.h     ****         case WAVE_SQUARE: return osc_square(ph);
 4937              		.loc 2 59 45 view .LVU1476
 4938 164c FFF7D0B8 		b	.L136
 4939              	.LVL334:
 4940              	.L424:
  59:src/dsp.h     ****         case WAVE_SQUARE: return osc_square(ph);
 4941              		.loc 2 59 45 view .LVU1477
 4942              	.LBE539:
 4943              	.LBE556:
 4944              	.LBB557:
 4945              	.LBB474:
  59:src/dsp.h     ****         case WAVE_SQUARE: return osc_square(ph);
 4946              		.loc 2 59 9 is_stmt 1 view .LVU1478
  59:src/dsp.h     ****         case WAVE_SQUARE: return osc_square(ph);
 4947              		.loc 2 59 27 view .LVU1479
 4948              	.LBB465:
 4949              	.LBI465:
  44:src/dsp.h     ****     constexpr float PI = 3.14159265f;
 4950              		.loc 2 44 21 view .LVU1480
 4951              	.LBB466:
  45:src/dsp.h     ****     float x = ph*2.0f*PI - PI;                 // -π..π (angle shifted by π)
 4952              		.loc 2 45 5 view .LVU1481
  46:src/dsp.h     ****     float y = 1.27323954f*x - 0.405284735f*x*(x<0?-x:x);
 4953              		.loc 2 46 5 view .LVU1482
  46:src/dsp.h     ****     float y = 1.27323954f*x - 0.405284735f*x*(x<0?-x:x);
 4954              		.loc 2 46 17 is_stmt 0 view .LVU1483
 4955 1650 7CEE0CAA 		vadd.f32	s21, s24, s24
  46:src/dsp.h     ****     float y = 1.27323954f*x - 0.405284735f*x*(x<0?-x:x);
 4956              		.loc 2 46 11 view .LVU1484
 4957 1654 5FED442A 		vldr.32	s5, .L453+28
 4958 1658 1FED44AA 		vldr.32	s20, .L453+32
 4959 165c AAEEA2AA 		vfma.f32	s20, s21, s5
 4960              	.LVL335:
  47:src/dsp.h     ****     y = 0.225f*(y*(y<0?-y:y) - y) + y;         // one refinement pass
 4961              		.loc 2 47 5 is_stmt 1 view .LVU1485
  47:src/dsp.h     ****     y = 0.225f*(y*(y<0?-y:y) - y) + y;         // one refinement pass
 4962              		.loc 2 47 26 is_stmt 0 view .LVU1486
 4963 1660 5FED452A 		vldr.32	s5, .L453+36
  47:src/dsp.h     ****     y = 0.225f*(y*(y<0?-y:y) - y) + y;         // one refinement pass
 4964              		.loc 2 47 43 view .LVU1487
 4965 1664 5FED45AA 		vldr.32	s21, .L453+40
  47:src/dsp.h     ****     y = 0.225f*(y*(y<0?-y:y) - y) + y;         // one refinement pass
 4966              		.loc 2 47 50 view .LVU1488
 4967 1668 B5EEC0AA 		vcmpe.f32	s20, #0
ARM GAS  /tmp/claude-502/ccaZRenT.s 			page 118


  47:src/dsp.h     ****     y = 0.225f*(y*(y<0?-y:y) - y) + y;         // one refinement pass
 4968              		.loc 2 47 43 view .LVU1489
 4969 166c 6AEE2AAA 		vmul.f32	s21, s20, s21
  47:src/dsp.h     ****     y = 0.225f*(y*(y<0?-y:y) - y) + y;         // one refinement pass
 4970              		.loc 2 47 26 view .LVU1490
 4971 1670 6AEE222A 		vmul.f32	s5, s20, s5
  47:src/dsp.h     ****     y = 0.225f*(y*(y<0?-y:y) - y) + y;         // one refinement pass
 4972              		.loc 2 47 50 view .LVU1491
 4973 1674 F1EE10FA 		vmrs	APSR_nzcv, FPSCR
 4974 1678 48BF     		it	mi
 4975 167a B1EE4AAA 		vnegmi.f32	s20, s20
 4976              	.LVL336:
  47:src/dsp.h     ****     y = 0.225f*(y*(y<0?-y:y) - y) + y;         // one refinement pass
 4977              		.loc 2 47 11 view .LVU1492
 4978 167e EAEECA2A 		vfms.f32	s5, s21, s20
 4979              	.LVL337:
  48:src/dsp.h     ****     return -y;                                 // undo the π shift: sin(x+π) = -sin(x)
 4980              		.loc 2 48 5 is_stmt 1 view .LVU1493
  48:src/dsp.h     ****     return -y;                                 // undo the π shift: sin(x+π) = -sin(x)
 4981              		.loc 2 48 23 is_stmt 0 view .LVU1494
 4982 1682 F5EEC02A 		vcmpe.f32	s5, #0
 4983 1686 B1EE62AA 		vneg.f32	s20, s5
 4984 168a F1EE10FA 		vmrs	APSR_nzcv, FPSCR
 4985 168e 54BF     		ite	pl
 4986 1690 F0EE62AA 		vmovpl.f32	s21, s5
 4987 1694 F0EE4AAA 		vmovmi.f32	s21, s20
  48:src/dsp.h     ****     return -y;                                 // undo the π shift: sin(x+π) = -sin(x)
 4988              		.loc 2 48 30 view .LVU1495
 4989 1698 A2EEAAAA 		vfma.f32	s20, s5, s21
  48:src/dsp.h     ****     return -y;                                 // undo the π shift: sin(x+π) = -sin(x)
 4990              		.loc 2 48 7 view .LVU1496
 4991 169c 5FED52AA 		vldr.32	s21, .L453+44
 4992 16a0 EAEE2A2A 		vfma.f32	s5, s20, s21
 4993              	.LVL338:
  49:src/dsp.h     **** }
 4994              		.loc 2 49 5 is_stmt 1 view .LVU1497
  49:src/dsp.h     **** }
 4995              		.loc 2 49 5 is_stmt 0 view .LVU1498
 4996              	.LBE466:
 4997              	.LBE465:
 4998              	.LBE474:
 4999              	.LBE557:
 332:src/engine.cpp ****             mix += (osc(s_phase1c, VOICE.osc1_wave) * VOICE.osc1_level
 5000              		.loc 1 332 53 view .LVU1499
 5001 16a4 9DED06AA 		vldr.32	s20, [sp, #24]
 5002 16a8 62EECA2A 		vnmul.f32	s5, s5, s20
 5003              	.LBB558:
 5004              	.LBB475:
  59:src/dsp.h     ****         case WAVE_SQUARE: return osc_square(ph);
 5005              		.loc 2 59 45 view .LVU1500
 5006 16ac FFF73DB8 		b	.L116
 5007              	.LVL339:
 5008              	.L110:
  61:src/dsp.h     ****         case WAVE_TRI:
 5009              		.loc 2 61 9 is_stmt 1 view .LVU1501
  61:src/dsp.h     ****         case WAVE_TRI:
 5010              		.loc 2 61 27 view .LVU1502
ARM GAS  /tmp/claude-502/ccaZRenT.s 			page 119


 5011              	.LBB467:
 5012              	.LBI467:
  53:src/dsp.h     **** 
 5013              		.loc 2 53 21 view .LVU1503
 5014              	.LBB468:
  53:src/dsp.h     **** 
 5015              		.loc 2 53 40 view .LVU1504
  53:src/dsp.h     **** 
 5016              		.loc 2 53 57 is_stmt 0 view .LVU1505
 5017 16b0 B0EE00AA 		vmov.f32	s20, #2.0e+0
 5018 16b4 FFEE002A 		vmov.f32	s5, #-1.0e+0
 5019 16b8 ECEE0A2A 		vfma.f32	s5, s24, s20
 5020              	.LVL340:
  53:src/dsp.h     **** 
 5021              		.loc 2 53 57 view .LVU1506
 5022              	.LBE468:
 5023              	.LBE467:
 5024              	.LBE475:
 5025              	.LBE558:
 332:src/engine.cpp ****             mix += (osc(s_phase1c, VOICE.osc1_wave) * VOICE.osc1_level
 5026              		.loc 1 332 53 view .LVU1507
 5027 16bc 9DED06AA 		vldr.32	s20, [sp, #24]
 5028 16c0 62EE8A2A 		vmul.f32	s5, s5, s20
 5029              	.LBB559:
 5030              	.LBB476:
  61:src/dsp.h     ****         case WAVE_TRI:
 5031              		.loc 2 61 44 view .LVU1508
 5032 16c4 FFF731B8 		b	.L116
 5033              	.L109:
  60:src/dsp.h     ****         case WAVE_SAW:    return osc_saw(ph);
 5034              		.loc 2 60 9 is_stmt 1 view .LVU1509
  60:src/dsp.h     ****         case WAVE_SAW:    return osc_saw(ph);
 5035              		.loc 2 60 27 view .LVU1510
 5036              	.LVL341:
 5037              	.LBB469:
 5038              	.LBI469:
  52:src/dsp.h     **** static inline float osc_saw(float ph){ return 2.0f*ph - 1.0f; }
 5039              		.loc 2 52 21 view .LVU1511
 5040              	.LBB470:
  52:src/dsp.h     **** static inline float osc_saw(float ph){ return 2.0f*ph - 1.0f; }
 5041              		.loc 2 52 43 view .LVU1512
  52:src/dsp.h     **** static inline float osc_saw(float ph){ return 2.0f*ph - 1.0f; }
 5042              		.loc 2 52 58 is_stmt 0 view .LVU1513
 5043 16c8 F6EE002A 		vmov.f32	s5, #5.0e-1
 5044 16cc B4EEE2CA 		vcmpe.f32	s24, s5
 5045 16d0 DDED062A 		vldr.32	s5, [sp, #24]
 5046 16d4 F1EE10FA 		vmrs	APSR_nzcv, FPSCR
 5047 16d8 3FF527A8 		bmi	.L116
 5048 16dc F1EE622A 		vneg.f32	s5, s5
 5049 16e0 FFF723B8 		b	.L116
 5050              	.LVL342:
 5051              	.L423:
  52:src/dsp.h     **** static inline float osc_saw(float ph){ return 2.0f*ph - 1.0f; }
 5052              		.loc 2 52 58 view .LVU1514
 5053              	.LBE470:
 5054              	.LBE469:
 5055              	.LBE476:
ARM GAS  /tmp/claude-502/ccaZRenT.s 			page 120


 5056              	.LBE559:
 5057              	.LBB560:
 5058              	.LBB450:
  59:src/dsp.h     ****         case WAVE_SQUARE: return osc_square(ph);
 5059              		.loc 2 59 9 is_stmt 1 view .LVU1515
  59:src/dsp.h     ****         case WAVE_SQUARE: return osc_square(ph);
 5060              		.loc 2 59 27 view .LVU1516
 5061              	.LBB439:
 5062              	.LBI439:
  44:src/dsp.h     ****     constexpr float PI = 3.14159265f;
 5063              		.loc 2 44 21 view .LVU1517
 5064              	.LBB440:
  45:src/dsp.h     ****     float x = ph*2.0f*PI - PI;                 // -π..π (angle shifted by π)
 5065              		.loc 2 45 5 view .LVU1518
  46:src/dsp.h     ****     float y = 1.27323954f*x - 0.405284735f*x*(x<0?-x:x);
 5066              		.loc 2 46 5 view .LVU1519
  46:src/dsp.h     ****     float y = 1.27323954f*x - 0.405284735f*x*(x<0?-x:x);
 5067              		.loc 2 46 17 is_stmt 0 view .LVU1520
 5068 16e4 3CEEACAA 		vadd.f32	s20, s25, s25
  46:src/dsp.h     ****     float y = 1.27323954f*x - 0.405284735f*x*(x<0?-x:x);
 5069              		.loc 2 46 11 view .LVU1521
 5070 16e8 1FED690A 		vldr.32	s0, .L453+28
 5071              	.LVL343:
  46:src/dsp.h     ****     float y = 1.27323954f*x - 0.405284735f*x*(x<0?-x:x);
 5072              		.loc 2 46 11 view .LVU1522
 5073 16ec 5FED692A 		vldr.32	s5, .L453+32
 5074 16f0 EAEE002A 		vfma.f32	s5, s20, s0
 5075              	.LVL344:
  47:src/dsp.h     ****     y = 0.225f*(y*(y<0?-y:y) - y) + y;         // one refinement pass
 5076              		.loc 2 47 5 is_stmt 1 view .LVU1523
  47:src/dsp.h     ****     y = 0.225f*(y*(y<0?-y:y) - y) + y;         // one refinement pass
 5077              		.loc 2 47 26 is_stmt 0 view .LVU1524
 5078 16f4 1FED6A0A 		vldr.32	s0, .L453+36
  47:src/dsp.h     ****     y = 0.225f*(y*(y<0?-y:y) - y) + y;         // one refinement pass
 5079              		.loc 2 47 43 view .LVU1525
 5080 16f8 1FED6AAA 		vldr.32	s20, .L453+40
  47:src/dsp.h     ****     y = 0.225f*(y*(y<0?-y:y) - y) + y;         // one refinement pass
 5081              		.loc 2 47 50 view .LVU1526
 5082 16fc F5EEC02A 		vcmpe.f32	s5, #0
  47:src/dsp.h     ****     y = 0.225f*(y*(y<0?-y:y) - y) + y;         // one refinement pass
 5083              		.loc 2 47 43 view .LVU1527
 5084 1700 22EE8AAA 		vmul.f32	s20, s5, s20
  47:src/dsp.h     ****     y = 0.225f*(y*(y<0?-y:y) - y) + y;         // one refinement pass
 5085              		.loc 2 47 26 view .LVU1528
 5086 1704 22EE800A 		vmul.f32	s0, s5, s0
  47:src/dsp.h     ****     y = 0.225f*(y*(y<0?-y:y) - y) + y;         // one refinement pass
 5087              		.loc 2 47 50 view .LVU1529
 5088 1708 F1EE10FA 		vmrs	APSR_nzcv, FPSCR
 5089 170c 48BF     		it	mi
 5090 170e F1EE622A 		vnegmi.f32	s5, s5
 5091              	.LVL345:
  47:src/dsp.h     ****     y = 0.225f*(y*(y<0?-y:y) - y) + y;         // one refinement pass
 5092              		.loc 2 47 11 view .LVU1530
 5093 1712 AAEE620A 		vfms.f32	s0, s20, s5
 5094              	.LVL346:
  48:src/dsp.h     ****     return -y;                                 // undo the π shift: sin(x+π) = -sin(x)
 5095              		.loc 2 48 5 is_stmt 1 view .LVU1531
ARM GAS  /tmp/claude-502/ccaZRenT.s 			page 121


  48:src/dsp.h     ****     return -y;                                 // undo the π shift: sin(x+π) = -sin(x)
 5096              		.loc 2 48 23 is_stmt 0 view .LVU1532
 5097 1716 B5EEC00A 		vcmpe.f32	s0, #0
 5098 171a F1EE402A 		vneg.f32	s5, s0
 5099 171e F1EE10FA 		vmrs	APSR_nzcv, FPSCR
 5100 1722 54BF     		ite	pl
 5101 1724 B0EE40AA 		vmovpl.f32	s20, s0
 5102 1728 B0EE62AA 		vmovmi.f32	s20, s5
  48:src/dsp.h     ****     return -y;                                 // undo the π shift: sin(x+π) = -sin(x)
 5103              		.loc 2 48 30 view .LVU1533
 5104 172c E0EE0A2A 		vfma.f32	s5, s0, s20
  48:src/dsp.h     ****     return -y;                                 // undo the π shift: sin(x+π) = -sin(x)
 5105              		.loc 2 48 7 view .LVU1534
 5106 1730 1FED77AA 		vldr.32	s20, .L453+44
 5107 1734 A2EE8A0A 		vfma.f32	s0, s5, s20
 5108              	.LVL347:
  49:src/dsp.h     **** }
 5109              		.loc 2 49 5 is_stmt 1 view .LVU1535
  49:src/dsp.h     **** }
 5110              		.loc 2 49 5 is_stmt 0 view .LVU1536
 5111              	.LBE440:
 5112              	.LBE439:
 5113              	.LBE450:
 5114              	.LBE560:
 331:src/engine.cpp ****                   + osc(s_phase2b, VOICE.osc2_wave) * VOICE.osc2_level) * cl;
 5115              		.loc 1 331 53 view .LVU1537
 5116 1738 DDED052A 		vldr.32	s5, [sp, #20]
 5117 173c 20EE620A 		vnmul.f32	s0, s0, s5
 5118              	.LBB561:
 5119              	.LBB451:
  59:src/dsp.h     ****         case WAVE_SQUARE: return osc_square(ph);
 5120              		.loc 2 59 45 view .LVU1538
 5121 1740 FEF7D5BF 		b	.L106
 5122              	.LVL348:
 5123              	.L100:
  61:src/dsp.h     ****         case WAVE_TRI:
 5124              		.loc 2 61 9 is_stmt 1 view .LVU1539
  61:src/dsp.h     ****         case WAVE_TRI:
 5125              		.loc 2 61 27 view .LVU1540
 5126              	.LBB441:
 5127              	.LBI441:
  53:src/dsp.h     **** 
 5128              		.loc 2 53 21 view .LVU1541
 5129              	.LBB442:
  53:src/dsp.h     **** 
 5130              		.loc 2 53 40 view .LVU1542
  53:src/dsp.h     **** 
 5131              		.loc 2 53 57 is_stmt 0 view .LVU1543
 5132 1744 F0EE002A 		vmov.f32	s5, #2.0e+0
 5133 1748 BFEE000A 		vmov.f32	s0, #-1.0e+0
 5134              	.LVL349:
  53:src/dsp.h     **** 
 5135              		.loc 2 53 57 view .LVU1544
 5136 174c ACEEA20A 		vfma.f32	s0, s25, s5
 5137              	.LVL350:
  53:src/dsp.h     **** 
 5138              		.loc 2 53 57 view .LVU1545
ARM GAS  /tmp/claude-502/ccaZRenT.s 			page 122


 5139              	.LBE442:
 5140              	.LBE441:
 5141              	.LBE451:
 5142              	.LBE561:
 331:src/engine.cpp ****                   + osc(s_phase2b, VOICE.osc2_wave) * VOICE.osc2_level) * cl;
 5143              		.loc 1 331 53 view .LVU1546
 5144 1750 DDED052A 		vldr.32	s5, [sp, #20]
 5145 1754 20EE220A 		vmul.f32	s0, s0, s5
 5146              	.LBB562:
 5147              	.LBB452:
  61:src/dsp.h     ****         case WAVE_TRI:
 5148              		.loc 2 61 44 view .LVU1547
 5149 1758 FEF7C9BF 		b	.L106
 5150              	.LVL351:
 5151              	.L99:
  60:src/dsp.h     ****         case WAVE_SAW:    return osc_saw(ph);
 5152              		.loc 2 60 9 is_stmt 1 view .LVU1548
  60:src/dsp.h     ****         case WAVE_SAW:    return osc_saw(ph);
 5153              		.loc 2 60 27 view .LVU1549
 5154              	.LBB443:
 5155              	.LBI443:
  52:src/dsp.h     **** static inline float osc_saw(float ph){ return 2.0f*ph - 1.0f; }
 5156              		.loc 2 52 21 view .LVU1550
 5157              	.LBB444:
  52:src/dsp.h     **** static inline float osc_saw(float ph){ return 2.0f*ph - 1.0f; }
 5158              		.loc 2 52 43 view .LVU1551
  52:src/dsp.h     **** static inline float osc_saw(float ph){ return 2.0f*ph - 1.0f; }
 5159              		.loc 2 52 58 is_stmt 0 view .LVU1552
 5160 175c F6EE002A 		vmov.f32	s5, #5.0e-1
 5161 1760 F4EEE2CA 		vcmpe.f32	s25, s5
 5162 1764 F1EE10FA 		vmrs	APSR_nzcv, FPSCR
 5163 1768 00F18082 		bmi	.L271
 5164 176c DDED052A 		vldr.32	s5, [sp, #20]
 5165 1770 B1EE620A 		vneg.f32	s0, s5
 5166              	.LVL352:
  52:src/dsp.h     **** static inline float osc_saw(float ph){ return 2.0f*ph - 1.0f; }
 5167              		.loc 2 52 58 view .LVU1553
 5168 1774 FEF7BBBF 		b	.L106
 5169              	.LVL353:
 5170              	.L130:
  52:src/dsp.h     **** static inline float osc_saw(float ph){ return 2.0f*ph - 1.0f; }
 5171              		.loc 2 52 58 view .LVU1554
 5172              	.LBE444:
 5173              	.LBE443:
 5174              	.LBE452:
 5175              	.LBE562:
 5176              	.LBB563:
 5177              	.LBB540:
  61:src/dsp.h     ****         case WAVE_TRI:
 5178              		.loc 2 61 9 is_stmt 1 view .LVU1555
  61:src/dsp.h     ****         case WAVE_TRI:
 5179              		.loc 2 61 27 view .LVU1556
 5180              	.LBB527:
 5181              	.LBI527:
  53:src/dsp.h     **** 
 5182              		.loc 2 53 21 view .LVU1557
 5183              	.LBB528:
ARM GAS  /tmp/claude-502/ccaZRenT.s 			page 123


  53:src/dsp.h     **** 
 5184              		.loc 2 53 40 view .LVU1558
  53:src/dsp.h     **** 
 5185              		.loc 2 53 57 is_stmt 0 view .LVU1559
 5186 1778 B0EE00EA 		vmov.f32	s28, #2.0e+0
 5187              	.LBE528:
 5188              	.LBE527:
 5189              	.LBE540:
 5190              	.LBE563:
 334:src/engine.cpp ****             s_phase1b += f3*VOICE.osc1_ratio/sr; if(s_phase1b>=1.0f)s_phase1b-=1.0f;
 5191              		.loc 1 334 53 view .LVU1560
 5192 177c 9DED060A 		vldr.32	s0, [sp, #24]
 5193              	.LBB564:
 5194              	.LBB541:
 5195              	.LBB530:
 5196              	.LBB529:
  53:src/dsp.h     **** 
 5197              		.loc 2 53 57 view .LVU1561
 5198 1780 FFEE002A 		vmov.f32	s5, #-1.0e+0
 5199 1784 EAEE0E2A 		vfma.f32	s5, s20, s28
 5200              	.LVL354:
  53:src/dsp.h     **** 
 5201              		.loc 2 53 57 view .LVU1562
 5202              	.LBE529:
 5203              	.LBE530:
 5204              	.LBE541:
 5205              	.LBE564:
 334:src/engine.cpp ****             s_phase1b += f3*VOICE.osc1_ratio/sr; if(s_phase1b>=1.0f)s_phase1b-=1.0f;
 5206              		.loc 1 334 53 view .LVU1563
 5207 1788 62EE802A 		vmul.f32	s5, s5, s0
 5208              	.LBB565:
 5209              	.LBB542:
  61:src/dsp.h     ****         case WAVE_TRI:
 5210              		.loc 2 61 44 view .LVU1564
 5211 178c FFF730B8 		b	.L136
 5212              	.LVL355:
 5213              	.L15:
  61:src/dsp.h     ****         case WAVE_TRI:
 5214              		.loc 2 61 44 view .LVU1565
 5215              	.LBE542:
 5216              	.LBE565:
 5217              	.LBE579:
 5218              	.LBE1116:
 5219              	.LBE1135:
 5220              	.LBE1150:
 383:src/engine.cpp ****     }
 384:src/engine.cpp **** }
 5221              		.loc 1 384 1 view .LVU1566
 5222 1790 2BB0     		add	sp, sp, #172
 5223              		.cfi_remember_state
 5224              		.cfi_def_cfa_offset 100
 5225              		@ sp needed
 5226 1792 BDEC108B 		vldm	sp!, {d8-d15}
 5227              		.cfi_restore 94
 5228              		.cfi_restore 95
 5229              		.cfi_restore 92
 5230              		.cfi_restore 93
ARM GAS  /tmp/claude-502/ccaZRenT.s 			page 124


 5231              		.cfi_restore 90
 5232              		.cfi_restore 91
 5233              		.cfi_restore 88
 5234              		.cfi_restore 89
 5235              		.cfi_restore 86
 5236              		.cfi_restore 87
 5237              		.cfi_restore 84
 5238              		.cfi_restore 85
 5239              		.cfi_restore 82
 5240              		.cfi_restore 83
 5241              		.cfi_restore 80
 5242              		.cfi_restore 81
 5243              		.cfi_def_cfa_offset 36
 5244              	.LVL356:
 5245              		.loc 1 384 1 view .LVU1567
 5246 1796 BDE8F08F 		pop	{r4, r5, r6, r7, r8, r9, r10, fp, pc}
 5247              	.LVL357:
 5248              	.L434:
 5249              		.cfi_restore_state
 5250              	.LBB1151:
 5251              	.LBB1136:
 5252              	.LBB1117:
 5253              	.LBB1021:
 5254              	.LBB1012:
 5255              	.LBB999:
 5256              	.LBB991:
 5257              	.LBB891:
 5258              	.LBB886:
  59:src/dsp.h     ****         case WAVE_SQUARE: return osc_square(ph);
 5259              		.loc 2 59 9 is_stmt 1 view .LVU1568
  59:src/dsp.h     ****         case WAVE_SQUARE: return osc_square(ph);
 5260              		.loc 2 59 27 view .LVU1569
 5261              	.LBB877:
 5262              	.LBI877:
  44:src/dsp.h     ****     constexpr float PI = 3.14159265f;
 5263              		.loc 2 44 21 view .LVU1570
 5264              	.LBB878:
  45:src/dsp.h     ****     float x = ph*2.0f*PI - PI;                 // -π..π (angle shifted by π)
 5265              		.loc 2 45 5 view .LVU1571
  46:src/dsp.h     ****     float y = 1.27323954f*x - 0.405284735f*x*(x<0?-x:x);
 5266              		.loc 2 46 5 view .LVU1572
  46:src/dsp.h     ****     float y = 1.27323954f*x - 0.405284735f*x*(x<0?-x:x);
 5267              		.loc 2 46 17 is_stmt 0 view .LVU1573
 5268 179a 35EEA54A 		vadd.f32	s8, s11, s11
  46:src/dsp.h     ****     float y = 1.27323954f*x - 0.405284735f*x*(x<0?-x:x);
 5269              		.loc 2 46 11 view .LVU1574
 5270 179e 1FED967A 		vldr.32	s14, .L453+28
 5271 17a2 5FED964A 		vldr.32	s9, .L453+32
 5272 17a6 E4EE074A 		vfma.f32	s9, s8, s14
 5273              	.LVL358:
  47:src/dsp.h     ****     y = 0.225f*(y*(y<0?-y:y) - y) + y;         // one refinement pass
 5274              		.loc 2 47 5 is_stmt 1 view .LVU1575
  47:src/dsp.h     ****     y = 0.225f*(y*(y<0?-y:y) - y) + y;         // one refinement pass
 5275              		.loc 2 47 26 is_stmt 0 view .LVU1576
 5276 17aa 1FED977A 		vldr.32	s14, .L453+36
  47:src/dsp.h     ****     y = 0.225f*(y*(y<0?-y:y) - y) + y;         // one refinement pass
 5277              		.loc 2 47 43 view .LVU1577
ARM GAS  /tmp/claude-502/ccaZRenT.s 			page 125


 5278 17ae 1FED974A 		vldr.32	s8, .L453+40
  47:src/dsp.h     ****     y = 0.225f*(y*(y<0?-y:y) - y) + y;         // one refinement pass
 5279              		.loc 2 47 50 view .LVU1578
 5280 17b2 F5EEC04A 		vcmpe.f32	s9, #0
  47:src/dsp.h     ****     y = 0.225f*(y*(y<0?-y:y) - y) + y;         // one refinement pass
 5281              		.loc 2 47 43 view .LVU1579
 5282 17b6 24EE844A 		vmul.f32	s8, s9, s8
  47:src/dsp.h     ****     y = 0.225f*(y*(y<0?-y:y) - y) + y;         // one refinement pass
 5283              		.loc 2 47 26 view .LVU1580
 5284 17ba 24EE877A 		vmul.f32	s14, s9, s14
  47:src/dsp.h     ****     y = 0.225f*(y*(y<0?-y:y) - y) + y;         // one refinement pass
 5285              		.loc 2 47 50 view .LVU1581
 5286 17be F1EE10FA 		vmrs	APSR_nzcv, FPSCR
 5287 17c2 48BF     		it	mi
 5288 17c4 F1EE644A 		vnegmi.f32	s9, s9
 5289              	.LVL359:
  47:src/dsp.h     ****     y = 0.225f*(y*(y<0?-y:y) - y) + y;         // one refinement pass
 5290              		.loc 2 47 11 view .LVU1582
 5291 17c8 A4EE647A 		vfms.f32	s14, s8, s9
 5292              	.LVL360:
  48:src/dsp.h     ****     return -y;                                 // undo the π shift: sin(x+π) = -sin(x)
 5293              		.loc 2 48 5 is_stmt 1 view .LVU1583
  48:src/dsp.h     ****     return -y;                                 // undo the π shift: sin(x+π) = -sin(x)
 5294              		.loc 2 48 23 is_stmt 0 view .LVU1584
 5295 17cc B5EEC07A 		vcmpe.f32	s14, #0
 5296 17d0 F1EE474A 		vneg.f32	s9, s14
 5297 17d4 F1EE10FA 		vmrs	APSR_nzcv, FPSCR
 5298 17d8 54BF     		ite	pl
 5299 17da B0EE474A 		vmovpl.f32	s8, s14
 5300 17de B0EE644A 		vmovmi.f32	s8, s9
  48:src/dsp.h     ****     return -y;                                 // undo the π shift: sin(x+π) = -sin(x)
 5301              		.loc 2 48 30 view .LVU1585
 5302 17e2 E7EE044A 		vfma.f32	s9, s14, s8
  48:src/dsp.h     ****     return -y;                                 // undo the π shift: sin(x+π) = -sin(x)
 5303              		.loc 2 48 7 view .LVU1586
 5304 17e6 1FEDA44A 		vldr.32	s8, .L453+44
 5305 17ea A4EE847A 		vfma.f32	s14, s9, s8
 5306              	.LVL361:
  49:src/dsp.h     **** }
 5307              		.loc 2 49 5 is_stmt 1 view .LVU1587
  49:src/dsp.h     **** }
 5308              		.loc 2 49 13 is_stmt 0 view .LVU1588
 5309 17ee B1EE477A 		vneg.f32	s14, s14
 5310              	.LVL362:
 5311              	.L180:
  49:src/dsp.h     **** }
 5312              		.loc 2 49 13 view .LVU1589
 5313              	.LBE878:
 5314              	.LBE877:
 5315              	.LBE886:
 5316              	.LBE891:
 109:src/engine.cpp ****               + osc(h.ph2,V.osc2_wave)*V.osc2_level
 5317              		.loc 1 109 42 view .LVU1590
 5318 17f2 A820     		movs	r0, #168
 110:src/engine.cpp ****               + osc(h.phs,V.sub_wave )*V.sub_level
 5319              		.loc 1 110 20 view .LVU1591
 5320 17f4 D3ED073A 		vldr.32	s7, [r3, #28]
ARM GAS  /tmp/claude-502/ccaZRenT.s 			page 126


 109:src/engine.cpp ****               + osc(h.ph2,V.osc2_wave)*V.osc2_level
 5321              		.loc 1 109 42 view .LVU1592
 5322 17f8 00FB0250 		mla	r0, r0, r2, r5
 109:src/engine.cpp ****               + osc(h.ph2,V.osc2_wave)*V.osc2_level
 5323              		.loc 1 109 39 view .LVU1593
 5324 17fc D0ED054A 		vldr.32	s9, [r0, #20]
 110:src/engine.cpp ****               + osc(h.phs,V.sub_wave )*V.sub_level
 5325              		.loc 1 110 29 view .LVU1594
 5326 1800 90F82400 		ldrb	r0, [r0, #36]	@ zero_extendqisi2
 5327              	.LVL363:
 5328              	.LBB892:
 5329              	.LBI892:
  57:src/dsp.h     ****     switch(w){
 5330              		.loc 2 57 21 is_stmt 1 view .LVU1595
 5331              	.LBB893:
  58:src/dsp.h     ****         case WAVE_SINE:   return osc_sine(ph);
 5332              		.loc 2 58 5 view .LVU1596
 5333              	.LBE893:
 5334              	.LBE892:
 109:src/engine.cpp ****               + osc(h.ph2,V.osc2_wave)*V.osc2_level
 5335              		.loc 1 109 39 is_stmt 0 view .LVU1597
 5336 1804 27EE247A 		vmul.f32	s14, s14, s9
 5337              	.LBB912:
 5338              	.LBB907:
  58:src/dsp.h     ****         case WAVE_SINE:   return osc_sine(ph);
 5339              		.loc 2 58 5 view .LVU1598
 5340 1808 0228     		cmp	r0, #2
 5341 180a 78D0     		beq	.L183
 5342 180c 0328     		cmp	r0, #3
 5343 180e 6FD0     		beq	.L184
 5344 1810 0128     		cmp	r0, #1
 5345 1812 21D0     		beq	.L437
 5346              	.LVL364:
 5347              	.LBB894:
 5348              	.LBI894:
  57:src/dsp.h     ****     switch(w){
 5349              		.loc 2 57 21 is_stmt 1 view .LVU1599
  57:src/dsp.h     ****     switch(w){
 5350              		.loc 2 57 21 is_stmt 0 view .LVU1600
 5351              	.LBE894:
 5352              	.LBE907:
 5353              	.LBE912:
 5354              	.LBE991:
 5355              	.LBE999:
 5356              	.LBE1012:
 5357              	.LBE1021:
 5358              	.LBE1117:
 5359              	.LBE1136:
 5360              	.LBE1151:
  62:src/dsp.h     ****         default:          return tri(ph);
 5361              		.loc 2 62 9 is_stmt 1 view .LVU1601
  63:src/dsp.h     ****     }
 5362              		.loc 2 63 9 view .LVU1602
  63:src/dsp.h     ****     }
 5363              		.loc 2 63 27 view .LVU1603
 5364              	.LBB1152:
 5365              	.LBB1137:
ARM GAS  /tmp/claude-502/ccaZRenT.s 			page 127


 5366              	.LBB1118:
 5367              	.LBB1022:
 5368              	.LBB1013:
 5369              	.LBB1000:
 5370              	.LBB992:
 5371              	.LBB913:
 5372              	.LBB908:
 5373              	.LBB899:
 5374              	.LBB895:
 5375              	.LBI895:
  40:src/dsp.h     ****     return ph<0.5f?(4.0f*ph-1.0f):(3.0f-4.0f*ph);
 5376              		.loc 2 40 21 view .LVU1604
 5377              	.LBB896:
  41:src/dsp.h     **** }
 5378              		.loc 2 41 5 view .LVU1605
  41:src/dsp.h     **** }
 5379              		.loc 2 41 19 is_stmt 0 view .LVU1606
 5380 1814 F6EE004A 		vmov.f32	s9, #5.0e-1
 5381 1818 B1EE004A 		vmov.f32	s8, #4.0e+0
 5382 181c F4EEE43A 		vcmpe.f32	s7, s9
 5383 1820 F1EE10FA 		vmrs	APSR_nzcv, FPSCR
 5384 1824 40F13E82 		bpl	.L394
 5385 1828 FFEE004A 		vmov.f32	s9, #-1.0e+0
 5386 182c E3EE844A 		vfma.f32	s9, s7, s8
 5387 1830 3EE0     		b	.L190
 5388              	.LVL365:
 5389              	.L174:
  41:src/dsp.h     **** }
 5390              		.loc 2 41 19 view .LVU1607
 5391              	.LBE896:
 5392              	.LBE895:
 5393              	.LBE899:
 5394              	.LBE908:
 5395              	.LBE913:
 5396              	.LBB914:
 5397              	.LBB887:
  61:src/dsp.h     ****         case WAVE_TRI:
 5398              		.loc 2 61 9 is_stmt 1 view .LVU1608
  61:src/dsp.h     ****         case WAVE_TRI:
 5399              		.loc 2 61 27 view .LVU1609
 5400              	.LBB879:
 5401              	.LBI879:
  53:src/dsp.h     **** 
 5402              		.loc 2 53 21 view .LVU1610
 5403              	.LBB880:
  53:src/dsp.h     **** 
 5404              		.loc 2 53 40 view .LVU1611
  53:src/dsp.h     **** 
 5405              		.loc 2 53 57 is_stmt 0 view .LVU1612
 5406 1832 F0EE004A 		vmov.f32	s9, #2.0e+0
 5407 1836 BFEE007A 		vmov.f32	s14, #-1.0e+0
 5408 183a A5EEA47A 		vfma.f32	s14, s11, s9
 5409              	.LVL366:
  53:src/dsp.h     **** 
 5410              		.loc 2 53 57 view .LVU1613
 5411              	.LBE880:
 5412              	.LBE879:
ARM GAS  /tmp/claude-502/ccaZRenT.s 			page 128


  61:src/dsp.h     ****         case WAVE_TRI:
 5413              		.loc 2 61 44 view .LVU1614
 5414 183e D8E7     		b	.L180
 5415              	.L173:
  60:src/dsp.h     ****         case WAVE_SAW:    return osc_saw(ph);
 5416              		.loc 2 60 9 is_stmt 1 view .LVU1615
  60:src/dsp.h     ****         case WAVE_SAW:    return osc_saw(ph);
 5417              		.loc 2 60 27 view .LVU1616
 5418              	.LVL367:
 5419              	.LBB881:
 5420              	.LBI881:
  52:src/dsp.h     **** static inline float osc_saw(float ph){ return 2.0f*ph - 1.0f; }
 5421              		.loc 2 52 21 view .LVU1617
 5422              	.LBB882:
  52:src/dsp.h     **** static inline float osc_saw(float ph){ return 2.0f*ph - 1.0f; }
 5423              		.loc 2 52 43 view .LVU1618
  52:src/dsp.h     **** static inline float osc_saw(float ph){ return 2.0f*ph - 1.0f; }
 5424              		.loc 2 52 58 is_stmt 0 view .LVU1619
 5425 1840 F6EE004A 		vmov.f32	s9, #5.0e-1
 5426 1844 F4EEE45A 		vcmpe.f32	s11, s9
 5427 1848 FFEE004A 		vmov.f32	s9, #-1.0e+0
 5428 184c F1EE10FA 		vmrs	APSR_nzcv, FPSCR
 5429 1850 58BF     		it	pl
 5430 1852 B0EE647A 		vmovpl.f32	s14, s9
 5431 1856 CCE7     		b	.L180
 5432              	.LVL368:
 5433              	.L437:
  52:src/dsp.h     **** static inline float osc_saw(float ph){ return 2.0f*ph - 1.0f; }
 5434              		.loc 2 52 58 view .LVU1620
 5435              	.LBE882:
 5436              	.LBE881:
 5437              	.LBE887:
 5438              	.LBE914:
 5439              	.LBB915:
 5440              	.LBB909:
  59:src/dsp.h     ****         case WAVE_SQUARE: return osc_square(ph);
 5441              		.loc 2 59 9 is_stmt 1 view .LVU1621
  59:src/dsp.h     ****         case WAVE_SQUARE: return osc_square(ph);
 5442              		.loc 2 59 27 view .LVU1622
 5443              	.LBB900:
 5444              	.LBI900:
  44:src/dsp.h     ****     constexpr float PI = 3.14159265f;
 5445              		.loc 2 44 21 view .LVU1623
 5446              	.LBB901:
  45:src/dsp.h     ****     float x = ph*2.0f*PI - PI;                 // -π..π (angle shifted by π)
 5447              		.loc 2 45 5 view .LVU1624
  46:src/dsp.h     ****     float y = 1.27323954f*x - 0.405284735f*x*(x<0?-x:x);
 5448              		.loc 2 46 5 view .LVU1625
  46:src/dsp.h     ****     float y = 1.27323954f*x - 0.405284735f*x*(x<0?-x:x);
 5449              		.loc 2 46 17 is_stmt 0 view .LVU1626
 5450 1858 33EEA33A 		vadd.f32	s6, s7, s7
  46:src/dsp.h     ****     float y = 1.27323954f*x - 0.405284735f*x*(x<0?-x:x);
 5451              		.loc 2 46 11 view .LVU1627
 5452 185c 5FEDC64A 		vldr.32	s9, .L453+28
 5453 1860 1FEDC64A 		vldr.32	s8, .L453+32
 5454 1864 A3EE244A 		vfma.f32	s8, s6, s9
 5455              	.LVL369:
ARM GAS  /tmp/claude-502/ccaZRenT.s 			page 129


  47:src/dsp.h     ****     y = 0.225f*(y*(y<0?-y:y) - y) + y;         // one refinement pass
 5456              		.loc 2 47 5 is_stmt 1 view .LVU1628
  47:src/dsp.h     ****     y = 0.225f*(y*(y<0?-y:y) - y) + y;         // one refinement pass
 5457              		.loc 2 47 26 is_stmt 0 view .LVU1629
 5458 1868 5FEDC74A 		vldr.32	s9, .L453+36
  47:src/dsp.h     ****     y = 0.225f*(y*(y<0?-y:y) - y) + y;         // one refinement pass
 5459              		.loc 2 47 43 view .LVU1630
 5460 186c 1FEDC73A 		vldr.32	s6, .L453+40
  47:src/dsp.h     ****     y = 0.225f*(y*(y<0?-y:y) - y) + y;         // one refinement pass
 5461              		.loc 2 47 50 view .LVU1631
 5462 1870 B5EEC04A 		vcmpe.f32	s8, #0
  47:src/dsp.h     ****     y = 0.225f*(y*(y<0?-y:y) - y) + y;         // one refinement pass
 5463              		.loc 2 47 43 view .LVU1632
 5464 1874 24EE033A 		vmul.f32	s6, s8, s6
  47:src/dsp.h     ****     y = 0.225f*(y*(y<0?-y:y) - y) + y;         // one refinement pass
 5465              		.loc 2 47 26 view .LVU1633
 5466 1878 64EE244A 		vmul.f32	s9, s8, s9
  47:src/dsp.h     ****     y = 0.225f*(y*(y<0?-y:y) - y) + y;         // one refinement pass
 5467              		.loc 2 47 50 view .LVU1634
 5468 187c F1EE10FA 		vmrs	APSR_nzcv, FPSCR
 5469 1880 48BF     		it	mi
 5470 1882 B1EE444A 		vnegmi.f32	s8, s8
 5471              	.LVL370:
  47:src/dsp.h     ****     y = 0.225f*(y*(y<0?-y:y) - y) + y;         // one refinement pass
 5472              		.loc 2 47 11 view .LVU1635
 5473 1886 E3EE444A 		vfms.f32	s9, s6, s8
 5474              	.LVL371:
  48:src/dsp.h     ****     return -y;                                 // undo the π shift: sin(x+π) = -sin(x)
 5475              		.loc 2 48 5 is_stmt 1 view .LVU1636
  48:src/dsp.h     ****     return -y;                                 // undo the π shift: sin(x+π) = -sin(x)
 5476              		.loc 2 48 23 is_stmt 0 view .LVU1637
 5477 188a F5EEC04A 		vcmpe.f32	s9, #0
 5478 188e B1EE644A 		vneg.f32	s8, s9
 5479 1892 F1EE10FA 		vmrs	APSR_nzcv, FPSCR
 5480 1896 54BF     		ite	pl
 5481 1898 B0EE643A 		vmovpl.f32	s6, s9
 5482 189c B0EE443A 		vmovmi.f32	s6, s8
  48:src/dsp.h     ****     return -y;                                 // undo the π shift: sin(x+π) = -sin(x)
 5483              		.loc 2 48 30 view .LVU1638
 5484 18a0 A4EE834A 		vfma.f32	s8, s9, s6
  48:src/dsp.h     ****     return -y;                                 // undo the π shift: sin(x+π) = -sin(x)
 5485              		.loc 2 48 7 view .LVU1639
 5486 18a4 1FEDD43A 		vldr.32	s6, .L453+44
 5487 18a8 E4EE034A 		vfma.f32	s9, s8, s6
 5488              	.LVL372:
  49:src/dsp.h     **** }
 5489              		.loc 2 49 5 is_stmt 1 view .LVU1640
  49:src/dsp.h     **** }
 5490              		.loc 2 49 13 is_stmt 0 view .LVU1641
 5491 18ac F1EE644A 		vneg.f32	s9, s9
 5492              	.LVL373:
 5493              	.L190:
  49:src/dsp.h     **** }
 5494              		.loc 2 49 13 view .LVU1642
 5495              	.LBE901:
 5496              	.LBE900:
 5497              	.LBE909:
ARM GAS  /tmp/claude-502/ccaZRenT.s 			page 130


 5498              	.LBE915:
 110:src/engine.cpp ****               + osc(h.phs,V.sub_wave )*V.sub_level
 5499              		.loc 1 110 42 view .LVU1643
 5500 18b0 A820     		movs	r0, #168
 111:src/engine.cpp ****               + osc(h.pho,V.oct_wave )*V.oct_level;
 5501              		.loc 1 111 20 view .LVU1644
 5502 18b2 93ED083A 		vldr.32	s6, [r3, #32]
 110:src/engine.cpp ****               + osc(h.phs,V.sub_wave )*V.sub_level
 5503              		.loc 1 110 42 view .LVU1645
 5504 18b6 00FB0250 		mla	r0, r0, r2, r5
 110:src/engine.cpp ****               + osc(h.phs,V.sub_wave )*V.sub_level
 5505              		.loc 1 110 15 view .LVU1646
 5506 18ba 90ED084A 		vldr.32	s8, [r0, #32]
 111:src/engine.cpp ****               + osc(h.pho,V.oct_wave )*V.oct_level;
 5507              		.loc 1 111 29 view .LVU1647
 5508 18be 90F83000 		ldrb	r0, [r0, #48]	@ zero_extendqisi2
 5509              	.LVL374:
 5510              	.LBB916:
 5511              	.LBI916:
  57:src/dsp.h     ****     switch(w){
 5512              		.loc 2 57 21 is_stmt 1 view .LVU1648
 5513              	.LBB917:
  58:src/dsp.h     ****         case WAVE_SINE:   return osc_sine(ph);
 5514              		.loc 2 58 5 view .LVU1649
 5515              	.LBE917:
 5516              	.LBE916:
 110:src/engine.cpp ****               + osc(h.phs,V.sub_wave )*V.sub_level
 5517              		.loc 1 110 15 is_stmt 0 view .LVU1650
 5518 18c2 A4EE247A 		vfma.f32	s14, s8, s9
 5519              	.LBB936:
 5520              	.LBB931:
  58:src/dsp.h     ****         case WAVE_SINE:   return osc_sine(ph);
 5521              		.loc 2 58 5 view .LVU1651
 5522 18c6 0228     		cmp	r0, #2
 5523 18c8 7CD0     		beq	.L193
 5524 18ca 0328     		cmp	r0, #3
 5525 18cc 73D0     		beq	.L194
 5526 18ce 0128     		cmp	r0, #1
 5527 18d0 23D0     		beq	.L438
 5528              	.LVL375:
 5529              	.LBB918:
 5530              	.LBI918:
  57:src/dsp.h     ****     switch(w){
 5531              		.loc 2 57 21 is_stmt 1 view .LVU1652
  57:src/dsp.h     ****     switch(w){
 5532              		.loc 2 57 21 is_stmt 0 view .LVU1653
 5533              	.LBE918:
 5534              	.LBE931:
 5535              	.LBE936:
 5536              	.LBE992:
 5537              	.LBE1000:
 5538              	.LBE1013:
 5539              	.LBE1022:
 5540              	.LBE1118:
 5541              	.LBE1137:
 5542              	.LBE1152:
  62:src/dsp.h     ****         default:          return tri(ph);
ARM GAS  /tmp/claude-502/ccaZRenT.s 			page 131


 5543              		.loc 2 62 9 is_stmt 1 view .LVU1654
  63:src/dsp.h     ****     }
 5544              		.loc 2 63 9 view .LVU1655
  63:src/dsp.h     ****     }
 5545              		.loc 2 63 27 view .LVU1656
 5546              	.LBB1153:
 5547              	.LBB1138:
 5548              	.LBB1119:
 5549              	.LBB1023:
 5550              	.LBB1014:
 5551              	.LBB1001:
 5552              	.LBB993:
 5553              	.LBB937:
 5554              	.LBB932:
 5555              	.LBB923:
 5556              	.LBB919:
 5557              	.LBI919:
  40:src/dsp.h     ****     return ph<0.5f?(4.0f*ph-1.0f):(3.0f-4.0f*ph);
 5558              		.loc 2 40 21 view .LVU1657
 5559              	.LBB920:
  41:src/dsp.h     **** }
 5560              		.loc 2 41 5 view .LVU1658
  41:src/dsp.h     **** }
 5561              		.loc 2 41 19 is_stmt 0 view .LVU1659
 5562 18d2 F6EE004A 		vmov.f32	s9, #5.0e-1
 5563 18d6 B1EE004A 		vmov.f32	s8, #4.0e+0
 5564 18da B4EEE43A 		vcmpe.f32	s6, s9
 5565 18de F1EE10FA 		vmrs	APSR_nzcv, FPSCR
 5566 18e2 40F1DA81 		bpl	.L396
 5567 18e6 FFEE004A 		vmov.f32	s9, #-1.0e+0
 5568 18ea E3EE044A 		vfma.f32	s9, s6, s8
 5569 18ee 40E0     		b	.L200
 5570              	.LVL376:
 5571              	.L184:
  41:src/dsp.h     **** }
 5572              		.loc 2 41 19 view .LVU1660
 5573              	.LBE920:
 5574              	.LBE919:
 5575              	.LBE923:
 5576              	.LBE932:
 5577              	.LBE937:
 5578              	.LBB938:
 5579              	.LBB910:
  61:src/dsp.h     ****         case WAVE_TRI:
 5580              		.loc 2 61 9 is_stmt 1 view .LVU1661
  61:src/dsp.h     ****         case WAVE_TRI:
 5581              		.loc 2 61 27 view .LVU1662
 5582              	.LBB902:
 5583              	.LBI902:
  53:src/dsp.h     **** 
 5584              		.loc 2 53 21 view .LVU1663
 5585              	.LBB903:
  53:src/dsp.h     **** 
 5586              		.loc 2 53 40 view .LVU1664
  53:src/dsp.h     **** 
 5587              		.loc 2 53 57 is_stmt 0 view .LVU1665
 5588 18f0 B0EE004A 		vmov.f32	s8, #2.0e+0
ARM GAS  /tmp/claude-502/ccaZRenT.s 			page 132


 5589 18f4 FFEE004A 		vmov.f32	s9, #-1.0e+0
 5590 18f8 E3EE844A 		vfma.f32	s9, s7, s8
 5591              	.LVL377:
  53:src/dsp.h     **** 
 5592              		.loc 2 53 57 view .LVU1666
 5593              	.LBE903:
 5594              	.LBE902:
  61:src/dsp.h     ****         case WAVE_TRI:
 5595              		.loc 2 61 44 view .LVU1667
 5596 18fc D8E7     		b	.L190
 5597              	.L183:
  60:src/dsp.h     ****         case WAVE_SAW:    return osc_saw(ph);
 5598              		.loc 2 60 9 is_stmt 1 view .LVU1668
  60:src/dsp.h     ****         case WAVE_SAW:    return osc_saw(ph);
 5599              		.loc 2 60 27 view .LVU1669
 5600              	.LVL378:
 5601              	.LBB904:
 5602              	.LBI904:
  52:src/dsp.h     **** static inline float osc_saw(float ph){ return 2.0f*ph - 1.0f; }
 5603              		.loc 2 52 21 view .LVU1670
 5604              	.LBB905:
  52:src/dsp.h     **** static inline float osc_saw(float ph){ return 2.0f*ph - 1.0f; }
 5605              		.loc 2 52 43 view .LVU1671
  52:src/dsp.h     **** static inline float osc_saw(float ph){ return 2.0f*ph - 1.0f; }
 5606              		.loc 2 52 58 is_stmt 0 view .LVU1672
 5607 18fe F6EE004A 		vmov.f32	s9, #5.0e-1
 5608 1902 BFEE004A 		vmov.f32	s8, #-1.0e+0
 5609 1906 F4EEE43A 		vcmpe.f32	s7, s9
 5610 190a F7EE004A 		vmov.f32	s9, #1.0e+0
 5611 190e F1EE10FA 		vmrs	APSR_nzcv, FPSCR
 5612 1912 58BF     		it	pl
 5613 1914 F0EE444A 		vmovpl.f32	s9, s8
 5614 1918 CAE7     		b	.L190
 5615              	.LVL379:
 5616              	.L438:
  52:src/dsp.h     **** static inline float osc_saw(float ph){ return 2.0f*ph - 1.0f; }
 5617              		.loc 2 52 58 view .LVU1673
 5618              	.LBE905:
 5619              	.LBE904:
 5620              	.LBE910:
 5621              	.LBE938:
 5622              	.LBB939:
 5623              	.LBB933:
  59:src/dsp.h     ****         case WAVE_SQUARE: return osc_square(ph);
 5624              		.loc 2 59 9 is_stmt 1 view .LVU1674
  59:src/dsp.h     ****         case WAVE_SQUARE: return osc_square(ph);
 5625              		.loc 2 59 27 view .LVU1675
 5626              	.LBB924:
 5627              	.LBI924:
  44:src/dsp.h     ****     constexpr float PI = 3.14159265f;
 5628              		.loc 2 44 21 view .LVU1676
 5629              	.LBB925:
  45:src/dsp.h     ****     float x = ph*2.0f*PI - PI;                 // -π..π (angle shifted by π)
 5630              		.loc 2 45 5 view .LVU1677
  46:src/dsp.h     ****     float y = 1.27323954f*x - 0.405284735f*x*(x<0?-x:x);
 5631              		.loc 2 46 5 view .LVU1678
  46:src/dsp.h     ****     float y = 1.27323954f*x - 0.405284735f*x*(x<0?-x:x);
ARM GAS  /tmp/claude-502/ccaZRenT.s 			page 133


 5632              		.loc 2 46 17 is_stmt 0 view .LVU1679
 5633 191a 33EE030A 		vadd.f32	s0, s6, s6
  46:src/dsp.h     ****     float y = 1.27323954f*x - 0.405284735f*x*(x<0?-x:x);
 5634              		.loc 2 46 11 view .LVU1680
 5635 191e DFEDEF4A 		vldr.32	s9, .L455
 5636 1922 9FEDEF4A 		vldr.32	s8, .L455+4
 5637 1926 A0EE244A 		vfma.f32	s8, s0, s9
 5638              	.LVL380:
  47:src/dsp.h     ****     y = 0.225f*(y*(y<0?-y:y) - y) + y;         // one refinement pass
 5639              		.loc 2 47 5 is_stmt 1 view .LVU1681
  47:src/dsp.h     ****     y = 0.225f*(y*(y<0?-y:y) - y) + y;         // one refinement pass
 5640              		.loc 2 47 26 is_stmt 0 view .LVU1682
 5641 192a DFEDEE4A 		vldr.32	s9, .L455+8
  47:src/dsp.h     ****     y = 0.225f*(y*(y<0?-y:y) - y) + y;         // one refinement pass
 5642              		.loc 2 47 43 view .LVU1683
 5643 192e 9FEDEE0A 		vldr.32	s0, .L455+12
  47:src/dsp.h     ****     y = 0.225f*(y*(y<0?-y:y) - y) + y;         // one refinement pass
 5644              		.loc 2 47 50 view .LVU1684
 5645 1932 B5EEC04A 		vcmpe.f32	s8, #0
  47:src/dsp.h     ****     y = 0.225f*(y*(y<0?-y:y) - y) + y;         // one refinement pass
 5646              		.loc 2 47 43 view .LVU1685
 5647 1936 24EE000A 		vmul.f32	s0, s8, s0
  47:src/dsp.h     ****     y = 0.225f*(y*(y<0?-y:y) - y) + y;         // one refinement pass
 5648              		.loc 2 47 26 view .LVU1686
 5649 193a 64EE244A 		vmul.f32	s9, s8, s9
  47:src/dsp.h     ****     y = 0.225f*(y*(y<0?-y:y) - y) + y;         // one refinement pass
 5650              		.loc 2 47 50 view .LVU1687
 5651 193e F1EE10FA 		vmrs	APSR_nzcv, FPSCR
 5652 1942 48BF     		it	mi
 5653 1944 B1EE444A 		vnegmi.f32	s8, s8
 5654              	.LVL381:
  47:src/dsp.h     ****     y = 0.225f*(y*(y<0?-y:y) - y) + y;         // one refinement pass
 5655              		.loc 2 47 11 view .LVU1688
 5656 1948 E0EE444A 		vfms.f32	s9, s0, s8
 5657              	.LVL382:
  48:src/dsp.h     ****     return -y;                                 // undo the π shift: sin(x+π) = -sin(x)
 5658              		.loc 2 48 5 is_stmt 1 view .LVU1689
  48:src/dsp.h     ****     return -y;                                 // undo the π shift: sin(x+π) = -sin(x)
 5659              		.loc 2 48 23 is_stmt 0 view .LVU1690
 5660 194c F5EEC04A 		vcmpe.f32	s9, #0
 5661 1950 B1EE644A 		vneg.f32	s8, s9
 5662 1954 F1EE10FA 		vmrs	APSR_nzcv, FPSCR
 5663 1958 54BF     		ite	pl
 5664 195a B0EE640A 		vmovpl.f32	s0, s9
 5665 195e B0EE440A 		vmovmi.f32	s0, s8
  48:src/dsp.h     ****     return -y;                                 // undo the π shift: sin(x+π) = -sin(x)
 5666              		.loc 2 48 30 view .LVU1691
 5667 1962 A4EE804A 		vfma.f32	s8, s9, s0
  48:src/dsp.h     ****     return -y;                                 // undo the π shift: sin(x+π) = -sin(x)
 5668              		.loc 2 48 7 view .LVU1692
 5669 1966 9FEDE10A 		vldr.32	s0, .L455+16
 5670 196a E4EE004A 		vfma.f32	s9, s8, s0
 5671              	.LVL383:
  49:src/dsp.h     **** }
 5672              		.loc 2 49 5 is_stmt 1 view .LVU1693
  49:src/dsp.h     **** }
 5673              		.loc 2 49 13 is_stmt 0 view .LVU1694
ARM GAS  /tmp/claude-502/ccaZRenT.s 			page 134


 5674 196e F1EE644A 		vneg.f32	s9, s9
 5675              	.LVL384:
 5676              	.L200:
  49:src/dsp.h     **** }
 5677              		.loc 2 49 13 view .LVU1695
 5678              	.LBE925:
 5679              	.LBE924:
 5680              	.LBE933:
 5681              	.LBE939:
 111:src/engine.cpp ****               + osc(h.pho,V.oct_wave )*V.oct_level;
 5682              		.loc 1 111 42 view .LVU1696
 5683 1972 A820     		movs	r0, #168
 112:src/engine.cpp ****     if(V.noise_level > 0.0f){
 5684              		.loc 1 112 20 view .LVU1697
 5685 1974 93ED094A 		vldr.32	s8, [r3, #36]
 111:src/engine.cpp ****               + osc(h.pho,V.oct_wave )*V.oct_level;
 5686              		.loc 1 111 42 view .LVU1698
 5687 1978 00FB0250 		mla	r0, r0, r2, r5
 111:src/engine.cpp ****               + osc(h.pho,V.oct_wave )*V.oct_level;
 5688              		.loc 1 111 15 view .LVU1699
 5689 197c 90ED0B0A 		vldr.32	s0, [r0, #44]
 112:src/engine.cpp ****     if(V.noise_level > 0.0f){
 5690              		.loc 1 112 29 view .LVU1700
 5691 1980 90F83C00 		ldrb	r0, [r0, #60]	@ zero_extendqisi2
 5692              	.LVL385:
 5693              	.LBB940:
 5694              	.LBI940:
  57:src/dsp.h     ****     switch(w){
 5695              		.loc 2 57 21 is_stmt 1 view .LVU1701
 5696              	.LBB941:
  58:src/dsp.h     ****         case WAVE_SINE:   return osc_sine(ph);
 5697              		.loc 2 58 5 view .LVU1702
 5698              	.LBE941:
 5699              	.LBE940:
 111:src/engine.cpp ****               + osc(h.pho,V.oct_wave )*V.oct_level;
 5700              		.loc 1 111 15 is_stmt 0 view .LVU1703
 5701 1984 A0EE247A 		vfma.f32	s14, s0, s9
 5702              	.LBB960:
 5703              	.LBB955:
  58:src/dsp.h     ****         case WAVE_SINE:   return osc_sine(ph);
 5704              		.loc 2 58 5 view .LVU1704
 5705 1988 0228     		cmp	r0, #2
 5706 198a 00F04381 		beq	.L203
 5707 198e 0328     		cmp	r0, #3
 5708 1990 00F03981 		beq	.L204
 5709 1994 0128     		cmp	r0, #1
 5710 1996 23D0     		beq	.L439
 5711              	.LVL386:
 5712              	.LBB942:
 5713              	.LBI942:
  57:src/dsp.h     ****     switch(w){
 5714              		.loc 2 57 21 is_stmt 1 view .LVU1705
  57:src/dsp.h     ****     switch(w){
 5715              		.loc 2 57 21 is_stmt 0 view .LVU1706
 5716              	.LBE942:
 5717              	.LBE955:
 5718              	.LBE960:
ARM GAS  /tmp/claude-502/ccaZRenT.s 			page 135


 5719              	.LBE993:
 5720              	.LBE1001:
 5721              	.LBE1014:
 5722              	.LBE1023:
 5723              	.LBE1119:
 5724              	.LBE1138:
 5725              	.LBE1153:
  62:src/dsp.h     ****         default:          return tri(ph);
 5726              		.loc 2 62 9 is_stmt 1 view .LVU1707
  63:src/dsp.h     ****     }
 5727              		.loc 2 63 9 view .LVU1708
  63:src/dsp.h     ****     }
 5728              		.loc 2 63 27 view .LVU1709
 5729              	.LBB1154:
 5730              	.LBB1139:
 5731              	.LBB1120:
 5732              	.LBB1024:
 5733              	.LBB1015:
 5734              	.LBB1002:
 5735              	.LBB994:
 5736              	.LBB961:
 5737              	.LBB956:
 5738              	.LBB947:
 5739              	.LBB943:
 5740              	.LBI943:
  40:src/dsp.h     ****     return ph<0.5f?(4.0f*ph-1.0f):(3.0f-4.0f*ph);
 5741              		.loc 2 40 21 view .LVU1710
 5742              	.LBB944:
  41:src/dsp.h     **** }
 5743              		.loc 2 41 5 view .LVU1711
  41:src/dsp.h     **** }
 5744              		.loc 2 41 19 is_stmt 0 view .LVU1712
 5745 1998 F6EE004A 		vmov.f32	s9, #5.0e-1
 5746 199c B4EEE44A 		vcmpe.f32	s8, s9
 5747 19a0 F1EE004A 		vmov.f32	s9, #4.0e+0
 5748 19a4 F1EE10FA 		vmrs	APSR_nzcv, FPSCR
 5749 19a8 40F17281 		bpl	.L398
 5750 19ac BFEE000A 		vmov.f32	s0, #-1.0e+0
 5751 19b0 A4EE240A 		vfma.f32	s0, s8, s9
 5752 19b4 40E0     		b	.L210
 5753              	.LVL387:
 5754              	.L194:
  41:src/dsp.h     **** }
 5755              		.loc 2 41 19 view .LVU1713
 5756              	.LBE944:
 5757              	.LBE943:
 5758              	.LBE947:
 5759              	.LBE956:
 5760              	.LBE961:
 5761              	.LBB962:
 5762              	.LBB934:
  61:src/dsp.h     ****         case WAVE_TRI:
 5763              		.loc 2 61 9 is_stmt 1 view .LVU1714
  61:src/dsp.h     ****         case WAVE_TRI:
 5764              		.loc 2 61 27 view .LVU1715
 5765              	.LBB926:
 5766              	.LBI926:
ARM GAS  /tmp/claude-502/ccaZRenT.s 			page 136


  53:src/dsp.h     **** 
 5767              		.loc 2 53 21 view .LVU1716
 5768              	.LBB927:
  53:src/dsp.h     **** 
 5769              		.loc 2 53 40 view .LVU1717
  53:src/dsp.h     **** 
 5770              		.loc 2 53 57 is_stmt 0 view .LVU1718
 5771 19b6 B0EE004A 		vmov.f32	s8, #2.0e+0
 5772 19ba FFEE004A 		vmov.f32	s9, #-1.0e+0
 5773 19be E3EE044A 		vfma.f32	s9, s6, s8
 5774              	.LVL388:
  53:src/dsp.h     **** 
 5775              		.loc 2 53 57 view .LVU1719
 5776              	.LBE927:
 5777              	.LBE926:
  61:src/dsp.h     ****         case WAVE_TRI:
 5778              		.loc 2 61 44 view .LVU1720
 5779 19c2 D6E7     		b	.L200
 5780              	.L193:
  60:src/dsp.h     ****         case WAVE_SAW:    return osc_saw(ph);
 5781              		.loc 2 60 9 is_stmt 1 view .LVU1721
  60:src/dsp.h     ****         case WAVE_SAW:    return osc_saw(ph);
 5782              		.loc 2 60 27 view .LVU1722
 5783              	.LVL389:
 5784              	.LBB928:
 5785              	.LBI928:
  52:src/dsp.h     **** static inline float osc_saw(float ph){ return 2.0f*ph - 1.0f; }
 5786              		.loc 2 52 21 view .LVU1723
 5787              	.LBB929:
  52:src/dsp.h     **** static inline float osc_saw(float ph){ return 2.0f*ph - 1.0f; }
 5788              		.loc 2 52 43 view .LVU1724
  52:src/dsp.h     **** static inline float osc_saw(float ph){ return 2.0f*ph - 1.0f; }
 5789              		.loc 2 52 58 is_stmt 0 view .LVU1725
 5790 19c4 F6EE004A 		vmov.f32	s9, #5.0e-1
 5791 19c8 BFEE004A 		vmov.f32	s8, #-1.0e+0
 5792 19cc B4EEE43A 		vcmpe.f32	s6, s9
 5793 19d0 F7EE004A 		vmov.f32	s9, #1.0e+0
 5794 19d4 F1EE10FA 		vmrs	APSR_nzcv, FPSCR
 5795 19d8 58BF     		it	pl
 5796 19da F0EE444A 		vmovpl.f32	s9, s8
 5797 19de C8E7     		b	.L200
 5798              	.LVL390:
 5799              	.L439:
  52:src/dsp.h     **** static inline float osc_saw(float ph){ return 2.0f*ph - 1.0f; }
 5800              		.loc 2 52 58 view .LVU1726
 5801              	.LBE929:
 5802              	.LBE928:
 5803              	.LBE934:
 5804              	.LBE962:
 5805              	.LBB963:
 5806              	.LBB957:
  59:src/dsp.h     ****         case WAVE_SQUARE: return osc_square(ph);
 5807              		.loc 2 59 9 is_stmt 1 view .LVU1727
  59:src/dsp.h     ****         case WAVE_SQUARE: return osc_square(ph);
 5808              		.loc 2 59 27 view .LVU1728
 5809              	.LBB948:
 5810              	.LBI948:
ARM GAS  /tmp/claude-502/ccaZRenT.s 			page 137


  44:src/dsp.h     ****     constexpr float PI = 3.14159265f;
 5811              		.loc 2 44 21 view .LVU1729
 5812              	.LBB949:
  45:src/dsp.h     ****     float x = ph*2.0f*PI - PI;                 // -π..π (angle shifted by π)
 5813              		.loc 2 45 5 view .LVU1730
  46:src/dsp.h     ****     float y = 1.27323954f*x - 0.405284735f*x*(x<0?-x:x);
 5814              		.loc 2 46 5 view .LVU1731
  46:src/dsp.h     ****     float y = 1.27323954f*x - 0.405284735f*x*(x<0?-x:x);
 5815              		.loc 2 46 17 is_stmt 0 view .LVU1732
 5816 19e0 34EE049A 		vadd.f32	s18, s8, s8
  46:src/dsp.h     ****     float y = 1.27323954f*x - 0.405284735f*x*(x<0?-x:x);
 5817              		.loc 2 46 11 view .LVU1733
 5818 19e4 9FEDBD0A 		vldr.32	s0, .L455
 5819 19e8 DFEDBD4A 		vldr.32	s9, .L455+4
 5820 19ec E9EE004A 		vfma.f32	s9, s18, s0
 5821              	.LVL391:
  47:src/dsp.h     ****     y = 0.225f*(y*(y<0?-y:y) - y) + y;         // one refinement pass
 5822              		.loc 2 47 5 is_stmt 1 view .LVU1734
  47:src/dsp.h     ****     y = 0.225f*(y*(y<0?-y:y) - y) + y;         // one refinement pass
 5823              		.loc 2 47 26 is_stmt 0 view .LVU1735
 5824 19f0 9FEDBC0A 		vldr.32	s0, .L455+8
  47:src/dsp.h     ****     y = 0.225f*(y*(y<0?-y:y) - y) + y;         // one refinement pass
 5825              		.loc 2 47 43 view .LVU1736
 5826 19f4 9FEDBC9A 		vldr.32	s18, .L455+12
  47:src/dsp.h     ****     y = 0.225f*(y*(y<0?-y:y) - y) + y;         // one refinement pass
 5827              		.loc 2 47 50 view .LVU1737
 5828 19f8 F5EEC04A 		vcmpe.f32	s9, #0
  47:src/dsp.h     ****     y = 0.225f*(y*(y<0?-y:y) - y) + y;         // one refinement pass
 5829              		.loc 2 47 43 view .LVU1738
 5830 19fc 24EE899A 		vmul.f32	s18, s9, s18
  47:src/dsp.h     ****     y = 0.225f*(y*(y<0?-y:y) - y) + y;         // one refinement pass
 5831              		.loc 2 47 26 view .LVU1739
 5832 1a00 24EE800A 		vmul.f32	s0, s9, s0
  47:src/dsp.h     ****     y = 0.225f*(y*(y<0?-y:y) - y) + y;         // one refinement pass
 5833              		.loc 2 47 50 view .LVU1740
 5834 1a04 F1EE10FA 		vmrs	APSR_nzcv, FPSCR
 5835 1a08 48BF     		it	mi
 5836 1a0a F1EE644A 		vnegmi.f32	s9, s9
 5837              	.LVL392:
  47:src/dsp.h     ****     y = 0.225f*(y*(y<0?-y:y) - y) + y;         // one refinement pass
 5838              		.loc 2 47 11 view .LVU1741
 5839 1a0e A9EE640A 		vfms.f32	s0, s18, s9
 5840              	.LVL393:
  48:src/dsp.h     ****     return -y;                                 // undo the π shift: sin(x+π) = -sin(x)
 5841              		.loc 2 48 5 is_stmt 1 view .LVU1742
  48:src/dsp.h     ****     return -y;                                 // undo the π shift: sin(x+π) = -sin(x)
 5842              		.loc 2 48 23 is_stmt 0 view .LVU1743
 5843 1a12 B5EEC00A 		vcmpe.f32	s0, #0
 5844 1a16 F1EE404A 		vneg.f32	s9, s0
 5845 1a1a F1EE10FA 		vmrs	APSR_nzcv, FPSCR
 5846 1a1e 54BF     		ite	pl
 5847 1a20 B0EE409A 		vmovpl.f32	s18, s0
 5848 1a24 B0EE649A 		vmovmi.f32	s18, s9
  48:src/dsp.h     ****     return -y;                                 // undo the π shift: sin(x+π) = -sin(x)
 5849              		.loc 2 48 30 view .LVU1744
 5850 1a28 E0EE094A 		vfma.f32	s9, s0, s18
  48:src/dsp.h     ****     return -y;                                 // undo the π shift: sin(x+π) = -sin(x)
ARM GAS  /tmp/claude-502/ccaZRenT.s 			page 138


 5851              		.loc 2 48 7 view .LVU1745
 5852 1a2c 9FEDAF9A 		vldr.32	s18, .L455+16
 5853 1a30 A4EE890A 		vfma.f32	s0, s9, s18
 5854              	.LVL394:
  49:src/dsp.h     **** }
 5855              		.loc 2 49 5 is_stmt 1 view .LVU1746
  49:src/dsp.h     **** }
 5856              		.loc 2 49 13 is_stmt 0 view .LVU1747
 5857 1a34 B1EE400A 		vneg.f32	s0, s0
 5858              	.LVL395:
 5859              	.L210:
  49:src/dsp.h     **** }
 5860              		.loc 2 49 13 view .LVU1748
 5861              	.LBE949:
 5862              	.LBE948:
 5863              	.LBE957:
 5864              	.LBE963:
 112:src/engine.cpp ****     if(V.noise_level > 0.0f){
 5865              		.loc 1 112 42 view .LVU1749
 5866 1a38 A820     		movs	r0, #168
 5867 1a3a 00FB0250 		mla	r0, r0, r2, r5
 5868 1a3e 90ED0E9A 		vldr.32	s18, [r0, #56]
 5869              	.LBB964:
 113:src/engine.cpp ****         s_noise_rng ^= s_noise_rng<<13; s_noise_rng ^= s_noise_rng>>17; s_noise_rng ^= s_noise_rng<
 5870              		.loc 1 113 10 view .LVU1750
 5871 1a42 D0ED149A 		vldr.32	s19, [r0, #80]
 5872              	.LBE964:
 112:src/engine.cpp ****     if(V.noise_level > 0.0f){
 5873              		.loc 1 112 42 view .LVU1751
 5874 1a46 A9EE007A 		vfma.f32	s14, s18, s0
 5875              	.LBB967:
 113:src/engine.cpp ****         s_noise_rng ^= s_noise_rng<<13; s_noise_rng ^= s_noise_rng>>17; s_noise_rng ^= s_noise_rng<
 5876              		.loc 1 113 5 view .LVU1752
 5877 1a4a F5EEC09A 		vcmpe.f32	s19, #0
 5878 1a4e F1EE10FA 		vmrs	APSR_nzcv, FPSCR
 5879              	.LBE967:
 112:src/engine.cpp ****     if(V.noise_level > 0.0f){
 5880              		.loc 1 112 42 view .LVU1753
 5881 1a52 F0EE474A 		vmov.f32	s9, s14
 5882              	.LVL396:
 113:src/engine.cpp ****         s_noise_rng ^= s_noise_rng<<13; s_noise_rng ^= s_noise_rng>>17; s_noise_rng ^= s_noise_rng<
 5883              		.loc 1 113 5 is_stmt 1 view .LVU1754
 5884              	.LBB968:
 5885 1a56 27DD     		ble	.L213
 5886              	.LBB965:
 114:src/engine.cpp ****         float white  = (float)(int32_t)s_noise_rng * (1.0f/2147483648.0f);
 5887              		.loc 1 114 9 view .LVU1755
 114:src/engine.cpp ****         float white  = (float)(int32_t)s_noise_rng * (1.0f/2147483648.0f);
 5888              		.loc 1 114 21 is_stmt 0 view .LVU1756
 5889 1a58 81EA4131 		eor	r1, r1, r1, lsl #13
 114:src/engine.cpp ****         float white  = (float)(int32_t)s_noise_rng * (1.0f/2147483648.0f);
 5890              		.loc 1 114 41 is_stmt 1 view .LVU1757
 116:src/engine.cpp ****         float bright = white - h.noise_lp;
 5891              		.loc 1 116 21 is_stmt 0 view .LVU1758
 5892 1a5c 93ED0C7A 		vldr.32	s14, [r3, #48]
 116:src/engine.cpp ****         float bright = white - h.noise_lp;
 5893              		.loc 1 116 47 view .LVU1759
ARM GAS  /tmp/claude-502/ccaZRenT.s 			page 139


 5894 1a60 9FEDA30A 		vldr.32	s0, .L455+20
 114:src/engine.cpp ****         float white  = (float)(int32_t)s_noise_rng * (1.0f/2147483648.0f);
 5895              		.loc 1 114 53 view .LVU1760
 5896 1a64 81EA5141 		eor	r1, r1, r1, lsr #17
 114:src/engine.cpp ****         float white  = (float)(int32_t)s_noise_rng * (1.0f/2147483648.0f);
 5897              		.loc 1 114 73 is_stmt 1 view .LVU1761
 116:src/engine.cpp ****         float bright = white - h.noise_lp;
 5898              		.loc 1 116 47 is_stmt 0 view .LVU1762
 5899 1a68 B0EE47CA 		vmov.f32	s24, s14
 116:src/engine.cpp ****         float bright = white - h.noise_lp;
 5900              		.loc 1 116 21 view .LVU1763
 5901 1a6c DFEDA1AA 		vldr.32	s21, .L455+24
 114:src/engine.cpp ****         float white  = (float)(int32_t)s_noise_rng * (1.0f/2147483648.0f);
 5902              		.loc 1 114 85 view .LVU1764
 5903 1a70 81EA4111 		eor	r1, r1, r1, lsl #5
 115:src/engine.cpp ****         h.noise_lp  += NOISE_HP_COEF * (white - h.noise_lp);
 5904              		.loc 1 115 9 is_stmt 1 view .LVU1765
 118:src/engine.cpp ****     }
 5905              		.loc 1 118 46 is_stmt 0 view .LVU1766
 5906 1a74 90ED1EAA 		vldr.32	s20, [r0, #120]
 5907              	.LBE965:
 5908 1a78 CDF89CC0 		str	ip, [sp, #156]
 5909              	.LBB966:
 115:src/engine.cpp ****         h.noise_lp  += NOISE_HP_COEF * (white - h.noise_lp);
 5910              		.loc 1 115 24 view .LVU1767
 5911 1a7c 09EE101A 		vmov	s18, r1	@ int
 5912 1a80 B8EEC99A 		vcvt.f32.s32	s18, s18
 5913              	.LVL397:
 116:src/engine.cpp ****         float bright = white - h.noise_lp;
 5914              		.loc 1 116 9 is_stmt 1 view .LVU1768
 116:src/engine.cpp ****         float bright = white - h.noise_lp;
 5915              		.loc 1 116 47 is_stmt 0 view .LVU1769
 5916 1a84 99EE00CA 		vfnms.f32	s24, s18, s0
 116:src/engine.cpp ****         float bright = white - h.noise_lp;
 5917              		.loc 1 116 21 view .LVU1770
 5918 1a88 ACEE2A7A 		vfma.f32	s14, s24, s21
 5919 1a8c 83ED0C7A 		vstr.32	s14, [r3, #48]
 117:src/engine.cpp ****         mix += (white + (bright*2.0f - white)*V.noise_hp) * V.noise_level;
 5920              		.loc 1 117 9 is_stmt 1 view .LVU1771
 117:src/engine.cpp ****         mix += (white + (bright*2.0f - white)*V.noise_hp) * V.noise_level;
 5921              		.loc 1 117 15 is_stmt 0 view .LVU1772
 5922 1a90 99EE007A 		vfnms.f32	s14, s18, s0
 5923              	.LVL398:
 118:src/engine.cpp ****     }
 5924              		.loc 1 118 9 is_stmt 1 view .LVU1773
 118:src/engine.cpp ****     }
 5925              		.loc 1 118 32 is_stmt 0 view .LVU1774
 5926 1a94 37EE077A 		vadd.f32	s14, s14, s14
 5927              	.LVL399:
 118:src/engine.cpp ****     }
 5928              		.loc 1 118 38 view .LVU1775
 5929 1a98 A9EE407A 		vfms.f32	s14, s18, s0
 118:src/engine.cpp ****     }
 5930              		.loc 1 118 46 view .LVU1776
 5931 1a9c 27EE0A7A 		vmul.f32	s14, s14, s20
 118:src/engine.cpp ****     }
 5932              		.loc 1 118 23 view .LVU1777
ARM GAS  /tmp/claude-502/ccaZRenT.s 			page 140


 5933 1aa0 A9EE007A 		vfma.f32	s14, s18, s0
 118:src/engine.cpp ****     }
 5934              		.loc 1 118 13 view .LVU1778
 5935 1aa4 E9EE874A 		vfma.f32	s9, s19, s14
 5936              	.LVL400:
 5937              	.L213:
 118:src/engine.cpp ****     }
 5938              		.loc 1 118 13 view .LVU1779
 5939              	.LBE966:
 5940              	.LBE968:
 120:src/engine.cpp ****     // Per-drum 1-pole lowpass (cheap — one multiply-add — instead of the 4-pole
 5941              		.loc 1 120 5 is_stmt 1 view .LVU1780
 120:src/engine.cpp ****     // Per-drum 1-pole lowpass (cheap — one multiply-add — instead of the 4-pole
 5942              		.loc 1 120 20 is_stmt 0 view .LVU1781
 5943 1aa8 93ED057A 		vldr.32	s14, [r3, #20]
 5944 1aac 24EE877A 		vmul.f32	s14, s9, s14
 5945              	.LVL401:
 5946              	.LBB969:
 5947              	.LBI969:
  23:src/dsp.h     **** {
 5948              		.loc 2 23 21 is_stmt 1 view .LVU1782
 5949              	.LBB970:
  25:src/dsp.h     ****     if(x<-3.0f)return -1.0f;
 5950              		.loc 2 25 5 view .LVU1783
 5951 1ab0 F0EE084A 		vmov.f32	s9, #3.0e+0
 5952              	.LVL402:
  25:src/dsp.h     ****     if(x<-3.0f)return -1.0f;
 5953              		.loc 2 25 5 is_stmt 0 view .LVU1784
 5954 1ab4 B4EEE47A 		vcmpe.f32	s14, s9
 5955 1ab8 F1EE10FA 		vmrs	APSR_nzcv, FPSCR
 5956 1abc 00F3A080 		bgt	.L308
  26:src/dsp.h     ****     float x2=x*x;
 5957              		.loc 2 26 5 is_stmt 1 view .LVU1785
 5958 1ac0 F8EE084A 		vmov.f32	s9, #-3.0e+0
 5959 1ac4 B4EEE47A 		vcmpe.f32	s14, s9
 5960 1ac8 F1EE10FA 		vmrs	APSR_nzcv, FPSCR
 5961 1acc 00F1B380 		bmi	.L309
 5962              	.LVL403:
 5963              	.LBB971:
 5964              	.LBI971:
  23:src/dsp.h     **** {
 5965              		.loc 2 23 21 view .LVU1786
 5966              	.LBB972:
  27:src/dsp.h     ****     return x*(27.0f+x2)/(27.0f+9.0f*x2);
 5967              		.loc 2 27 5 view .LVU1787
  28:src/dsp.h     **** }
 5968              		.loc 2 28 20 is_stmt 0 view .LVU1788
 5969 1ad0 B3EE0B0A 		vmov.f32	s0, #2.7e+1
  27:src/dsp.h     ****     return x*(27.0f+x2)/(27.0f+9.0f*x2);
 5970              		.loc 2 27 11 view .LVU1789
 5971 1ad4 67EE074A 		vmul.f32	s9, s14, s14
 5972              	.LVL404:
  28:src/dsp.h     **** }
 5973              		.loc 2 28 5 is_stmt 1 view .LVU1790
  28:src/dsp.h     **** }
 5974              		.loc 2 28 31 is_stmt 0 view .LVU1791
 5975 1ad8 F2EE029A 		vmov.f32	s19, #9.0e+0
ARM GAS  /tmp/claude-502/ccaZRenT.s 			page 141


 5976 1adc B0EE409A 		vmov.f32	s18, s0
 5977 1ae0 A4EEA99A 		vfma.f32	s18, s9, s19
  28:src/dsp.h     **** }
 5978              		.loc 2 28 20 view .LVU1792
 5979 1ae4 74EE804A 		vadd.f32	s9, s9, s0
 5980              	.LVL405:
  28:src/dsp.h     **** }
 5981              		.loc 2 28 13 view .LVU1793
 5982 1ae8 24EE877A 		vmul.f32	s14, s9, s14
 5983              	.LVL406:
  28:src/dsp.h     **** }
 5984              		.loc 2 28 39 view .LVU1794
 5985 1aec 87EE090A 		vdiv.f32	s0, s14, s18
 5986              	.L215:
 5987              	.LVL407:
  28:src/dsp.h     **** }
 5988              		.loc 2 28 39 view .LVU1795
 5989              	.LBE972:
 5990              	.LBE971:
 5991              	.LBE970:
 5992              	.LBE969:
 123:src/engine.cpp ****     h.ph1 += f*V.osc1_ratio/sr; if(h.ph1>=1.0f)h.ph1-=1.0f;
 5993              		.loc 1 123 5 is_stmt 1 view .LVU1796
 124:src/engine.cpp ****     h.ph2 += f*V.osc2_ratio/sr; if(h.ph2>=1.0f)h.ph2-=1.0f;
 5994              		.loc 1 124 18 is_stmt 0 view .LVU1797
 5995 1af0 A820     		movs	r0, #168
 5996 1af2 00FB0250 		mla	r0, r0, r2, r5
 124:src/engine.cpp ****     h.ph2 += f*V.osc2_ratio/sr; if(h.ph2>=1.0f)h.ph2-=1.0f;
 5997              		.loc 1 124 15 view .LVU1798
 5998 1af6 D0ED044A 		vldr.32	s9, [r0, #16]
 125:src/engine.cpp ****     h.phs += f*V.sub_ratio /sr; if(h.phs>=1.0f)h.phs-=1.0f;
 5999              		.loc 1 125 18 view .LVU1799
 6000 1afa A820     		movs	r0, #168
 124:src/engine.cpp ****     h.ph2 += f*V.osc2_ratio/sr; if(h.ph2>=1.0f)h.ph2-=1.0f;
 6001              		.loc 1 124 15 view .LVU1800
 6002 1afc 66EE244A 		vmul.f32	s9, s12, s9
 125:src/engine.cpp ****     h.phs += f*V.sub_ratio /sr; if(h.phs>=1.0f)h.phs-=1.0f;
 6003              		.loc 1 125 18 view .LVU1801
 6004 1b00 00FB0250 		mla	r0, r0, r2, r5
 124:src/engine.cpp ****     h.ph2 += f*V.osc2_ratio/sr; if(h.ph2>=1.0f)h.ph2-=1.0f;
 6005              		.loc 1 124 28 view .LVU1802
 6006 1b04 84EE887A 		vdiv.f32	s14, s9, s16
 124:src/engine.cpp ****     h.ph2 += f*V.osc2_ratio/sr; if(h.ph2>=1.0f)h.ph2-=1.0f;
 6007              		.loc 1 124 11 view .LVU1803
 6008 1b08 77EE255A 		vadd.f32	s11, s14, s11
 123:src/engine.cpp ****     h.ph1 += f*V.osc1_ratio/sr; if(h.ph1>=1.0f)h.ph1-=1.0f;
 6009              		.loc 1 123 16 view .LVU1804
 6010 1b0c 93ED0D7A 		vldr.32	s14, [r3, #52]
 123:src/engine.cpp ****     h.ph1 += f*V.osc1_ratio/sr; if(h.ph1>=1.0f)h.ph1-=1.0f;
 6011              		.loc 1 123 37 view .LVU1805
 6012 1b10 70EE474A 		vsub.f32	s9, s0, s14
 123:src/engine.cpp ****     h.ph1 += f*V.osc1_ratio/sr; if(h.ph1>=1.0f)h.ph1-=1.0f;
 6013              		.loc 1 123 16 view .LVU1806
 6014 1b14 93ED0E0A 		vldr.32	s0, [r3, #56]
 6015              	.LVL408:
 123:src/engine.cpp ****     h.ph1 += f*V.osc1_ratio/sr; if(h.ph1>=1.0f)h.ph1-=1.0f;
 6016              		.loc 1 123 16 view .LVU1807
ARM GAS  /tmp/claude-502/ccaZRenT.s 			page 142


 6017 1b18 A0EE247A 		vfma.f32	s14, s0, s9
 124:src/engine.cpp ****     h.ph2 += f*V.osc2_ratio/sr; if(h.ph2>=1.0f)h.ph2-=1.0f;
 6018              		.loc 1 124 33 view .LVU1808
 6019 1b1c F7EE004A 		vmov.f32	s9, #1.0e+0
 6020 1b20 F4EEE45A 		vcmpe.f32	s11, s9
 123:src/engine.cpp ****     h.ph1 += f*V.osc1_ratio/sr; if(h.ph1>=1.0f)h.ph1-=1.0f;
 6021              		.loc 1 123 16 view .LVU1809
 6022 1b24 83ED0D7A 		vstr.32	s14, [r3, #52]
 124:src/engine.cpp ****     h.ph2 += f*V.osc2_ratio/sr; if(h.ph2>=1.0f)h.ph2-=1.0f;
 6023              		.loc 1 124 5 is_stmt 1 view .LVU1810
 124:src/engine.cpp ****     h.ph2 += f*V.osc2_ratio/sr; if(h.ph2>=1.0f)h.ph2-=1.0f;
 6024              		.loc 1 124 33 view .LVU1811
 6025 1b28 F1EE10FA 		vmrs	APSR_nzcv, FPSCR
 124:src/engine.cpp ****     h.ph2 += f*V.osc2_ratio/sr; if(h.ph2>=1.0f)h.ph2-=1.0f;
 6026              		.loc 1 124 48 view .LVU1812
 125:src/engine.cpp ****     h.phs += f*V.sub_ratio /sr; if(h.phs>=1.0f)h.phs-=1.0f;
 6027              		.loc 1 125 5 view .LVU1813
 124:src/engine.cpp ****     h.ph2 += f*V.osc2_ratio/sr; if(h.ph2>=1.0f)h.ph2-=1.0f;
 6028              		.loc 1 124 53 is_stmt 0 view .LVU1814
 6029 1b2c A8BF     		it	ge
 6030 1b2e 75EEE45A 		vsubge.f32	s11, s11, s9
 125:src/engine.cpp ****     h.phs += f*V.sub_ratio /sr; if(h.phs>=1.0f)h.phs-=1.0f;
 6031              		.loc 1 125 15 view .LVU1815
 6032 1b32 D0ED074A 		vldr.32	s9, [r0, #28]
 126:src/engine.cpp ****     h.pho += f*V.oct_ratio /sr; if(h.pho>=1.0f)h.pho-=1.0f;
 6033              		.loc 1 126 18 view .LVU1816
 6034 1b36 A820     		movs	r0, #168
 125:src/engine.cpp ****     h.phs += f*V.sub_ratio /sr; if(h.phs>=1.0f)h.phs-=1.0f;
 6035              		.loc 1 125 15 view .LVU1817
 6036 1b38 66EE244A 		vmul.f32	s9, s12, s9
 124:src/engine.cpp ****     h.ph2 += f*V.osc2_ratio/sr; if(h.ph2>=1.0f)h.ph2-=1.0f;
 6037              		.loc 1 124 53 view .LVU1818
 6038 1b3c C3ED065A 		vstr.32	s11, [r3, #24]
 126:src/engine.cpp ****     h.pho += f*V.oct_ratio /sr; if(h.pho>=1.0f)h.pho-=1.0f;
 6039              		.loc 1 126 18 view .LVU1819
 6040 1b40 00FB0250 		mla	r0, r0, r2, r5
 125:src/engine.cpp ****     h.phs += f*V.sub_ratio /sr; if(h.phs>=1.0f)h.phs-=1.0f;
 6041              		.loc 1 125 28 view .LVU1820
 6042 1b44 C4EE885A 		vdiv.f32	s11, s9, s16
 126:src/engine.cpp ****     h.pho += f*V.oct_ratio /sr; if(h.pho>=1.0f)h.pho-=1.0f;
 6043              		.loc 1 126 15 view .LVU1821
 6044 1b48 D0ED0A4A 		vldr.32	s9, [r0, #40]
 127:src/engine.cpp ****     return fast_tanh(h.lp_state*1.3f) * h.amp;
 6045              		.loc 1 127 18 view .LVU1822
 6046 1b4c A820     		movs	r0, #168
 6047 1b4e 00FB0252 		mla	r2, r0, r2, r5
 6048              	.LVL409:
 126:src/engine.cpp ****     h.pho += f*V.oct_ratio /sr; if(h.pho>=1.0f)h.pho-=1.0f;
 6049              		.loc 1 126 15 view .LVU1823
 6050 1b52 66EE244A 		vmul.f32	s9, s12, s9
 125:src/engine.cpp ****     h.phs += f*V.sub_ratio /sr; if(h.phs>=1.0f)h.phs-=1.0f;
 6051              		.loc 1 125 11 view .LVU1824
 6052 1b56 75EEA33A 		vadd.f32	s7, s11, s7
 125:src/engine.cpp ****     h.phs += f*V.sub_ratio /sr; if(h.phs>=1.0f)h.phs-=1.0f;
 6053              		.loc 1 125 33 is_stmt 1 view .LVU1825
 6054 1b5a F7EE005A 		vmov.f32	s11, #1.0e+0
 6055 1b5e F4EEE53A 		vcmpe.f32	s7, s11
ARM GAS  /tmp/claude-502/ccaZRenT.s 			page 143


 6056 1b62 F1EE10FA 		vmrs	APSR_nzcv, FPSCR
 125:src/engine.cpp ****     h.phs += f*V.sub_ratio /sr; if(h.phs>=1.0f)h.phs-=1.0f;
 6057              		.loc 1 125 48 view .LVU1826
 126:src/engine.cpp ****     h.pho += f*V.oct_ratio /sr; if(h.pho>=1.0f)h.pho-=1.0f;
 6058              		.loc 1 126 5 view .LVU1827
 125:src/engine.cpp ****     h.phs += f*V.sub_ratio /sr; if(h.phs>=1.0f)h.phs-=1.0f;
 6059              		.loc 1 125 53 is_stmt 0 view .LVU1828
 6060 1b66 A8BF     		it	ge
 6061 1b68 73EEE53A 		vsubge.f32	s7, s7, s11
 126:src/engine.cpp ****     h.pho += f*V.oct_ratio /sr; if(h.pho>=1.0f)h.pho-=1.0f;
 6062              		.loc 1 126 28 view .LVU1829
 6063 1b6c C4EE885A 		vdiv.f32	s11, s9, s16
 125:src/engine.cpp ****     h.phs += f*V.sub_ratio /sr; if(h.phs>=1.0f)h.phs-=1.0f;
 6064              		.loc 1 125 53 view .LVU1830
 6065 1b70 C3ED073A 		vstr.32	s7, [r3, #28]
 126:src/engine.cpp ****     h.pho += f*V.oct_ratio /sr; if(h.pho>=1.0f)h.pho-=1.0f;
 6066              		.loc 1 126 11 view .LVU1831
 6067 1b74 35EE833A 		vadd.f32	s6, s11, s6
 126:src/engine.cpp ****     h.pho += f*V.oct_ratio /sr; if(h.pho>=1.0f)h.pho-=1.0f;
 6068              		.loc 1 126 33 is_stmt 1 view .LVU1832
 6069 1b78 F7EE005A 		vmov.f32	s11, #1.0e+0
 6070 1b7c B4EEE53A 		vcmpe.f32	s6, s11
 6071 1b80 F1EE10FA 		vmrs	APSR_nzcv, FPSCR
 126:src/engine.cpp ****     h.pho += f*V.oct_ratio /sr; if(h.pho>=1.0f)h.pho-=1.0f;
 6072              		.loc 1 126 48 view .LVU1833
 127:src/engine.cpp ****     return fast_tanh(h.lp_state*1.3f) * h.amp;
 6073              		.loc 1 127 5 view .LVU1834
 126:src/engine.cpp ****     h.pho += f*V.oct_ratio /sr; if(h.pho>=1.0f)h.pho-=1.0f;
 6074              		.loc 1 126 53 is_stmt 0 view .LVU1835
 6075 1b84 A8BF     		it	ge
 6076 1b86 33EE653A 		vsubge.f32	s6, s6, s11
 127:src/engine.cpp ****     return fast_tanh(h.lp_state*1.3f) * h.amp;
 6077              		.loc 1 127 15 view .LVU1836
 6078 1b8a D2ED0D5A 		vldr.32	s11, [r2, #52]
 6079 1b8e 26EE256A 		vmul.f32	s12, s12, s11
 6080              	.LVL410:
 126:src/engine.cpp ****     h.pho += f*V.oct_ratio /sr; if(h.pho>=1.0f)h.pho-=1.0f;
 6081              		.loc 1 126 53 view .LVU1837
 6082 1b92 83ED083A 		vstr.32	s6, [r3, #32]
 127:src/engine.cpp ****     return fast_tanh(h.lp_state*1.3f) * h.amp;
 6083              		.loc 1 127 28 view .LVU1838
 6084 1b96 C6EE085A 		vdiv.f32	s11, s12, s16
 127:src/engine.cpp ****     return fast_tanh(h.lp_state*1.3f) * h.amp;
 6085              		.loc 1 127 33 view .LVU1839
 6086 1b9a B7EE006A 		vmov.f32	s12, #1.0e+0
 127:src/engine.cpp ****     return fast_tanh(h.lp_state*1.3f) * h.amp;
 6087              		.loc 1 127 11 view .LVU1840
 6088 1b9e 35EE844A 		vadd.f32	s8, s11, s8
 127:src/engine.cpp ****     return fast_tanh(h.lp_state*1.3f) * h.amp;
 6089              		.loc 1 127 33 is_stmt 1 view .LVU1841
 6090 1ba2 B4EEC64A 		vcmpe.f32	s8, s12
 6091 1ba6 F1EE10FA 		vmrs	APSR_nzcv, FPSCR
 127:src/engine.cpp ****     return fast_tanh(h.lp_state*1.3f) * h.amp;
 6092              		.loc 1 127 48 view .LVU1842
 127:src/engine.cpp ****     return fast_tanh(h.lp_state*1.3f) * h.amp;
 6093              		.loc 1 127 53 is_stmt 0 view .LVU1843
 6094 1baa A8BF     		it	ge
ARM GAS  /tmp/claude-502/ccaZRenT.s 			page 144


 6095 1bac 34EE464A 		vsubge.f32	s8, s8, s12
 128:src/engine.cpp **** }
 6096              		.loc 1 128 21 view .LVU1844
 6097 1bb0 9FED516A 		vldr.32	s12, .L455+28
 6098 1bb4 27EE067A 		vmul.f32	s14, s14, s12
 6099              	.LBB975:
 6100              	.LBB976:
  25:src/dsp.h     ****     if(x<-3.0f)return -1.0f;
 6101              		.loc 2 25 5 view .LVU1845
 6102 1bb8 B0EE086A 		vmov.f32	s12, #3.0e+0
 6103              	.LBE976:
 6104              	.LBE975:
 127:src/engine.cpp ****     return fast_tanh(h.lp_state*1.3f) * h.amp;
 6105              		.loc 1 127 53 view .LVU1846
 6106 1bbc 83ED094A 		vstr.32	s8, [r3, #36]
 128:src/engine.cpp **** }
 6107              		.loc 1 128 5 is_stmt 1 view .LVU1847
 6108              	.LVL411:
 6109              	.LBB980:
 6110              	.LBI975:
  23:src/dsp.h     **** {
 6111              		.loc 2 23 21 view .LVU1848
 6112              	.LBB979:
  25:src/dsp.h     ****     if(x<-3.0f)return -1.0f;
 6113              		.loc 2 25 5 view .LVU1849
 6114 1bc0 B4EEC67A 		vcmpe.f32	s14, s12
 6115 1bc4 F1EE10FA 		vmrs	APSR_nzcv, FPSCR
 6116 1bc8 3FF74DAC 		bgt	.L166
  26:src/dsp.h     ****     float x2=x*x;
 6117              		.loc 2 26 5 view .LVU1850
 6118 1bcc B8EE086A 		vmov.f32	s12, #-3.0e+0
 6119 1bd0 B4EEC67A 		vcmpe.f32	s14, s12
 6120 1bd4 F1EE10FA 		vmrs	APSR_nzcv, FPSCR
 6121 1bd8 2AD4     		bmi	.L440
 6122              	.LVL412:
 6123              	.LBB977:
 6124              	.LBI977:
  23:src/dsp.h     **** {
 6125              		.loc 2 23 21 view .LVU1851
 6126              	.LBB978:
  27:src/dsp.h     ****     return x*(27.0f+x2)/(27.0f+9.0f*x2);
 6127              		.loc 2 27 5 view .LVU1852
  28:src/dsp.h     **** }
 6128              		.loc 2 28 20 is_stmt 0 view .LVU1853
 6129 1bda F3EE0B5A 		vmov.f32	s11, #2.7e+1
  27:src/dsp.h     ****     return x*(27.0f+x2)/(27.0f+9.0f*x2);
 6130              		.loc 2 27 11 view .LVU1854
 6131 1bde 27EE076A 		vmul.f32	s12, s14, s14
 6132              	.LVL413:
  28:src/dsp.h     **** }
 6133              		.loc 2 28 5 is_stmt 1 view .LVU1855
  28:src/dsp.h     **** }
 6134              		.loc 2 28 31 is_stmt 0 view .LVU1856
 6135 1be2 B2EE024A 		vmov.f32	s8, #9.0e+0
 6136 1be6 F0EE654A 		vmov.f32	s9, s11
 6137 1bea E6EE044A 		vfma.f32	s9, s12, s8
 6138              	.LVL414:
ARM GAS  /tmp/claude-502/ccaZRenT.s 			page 145


  28:src/dsp.h     **** }
 6139              		.loc 2 28 20 view .LVU1857
 6140 1bee 36EE256A 		vadd.f32	s12, s12, s11
  28:src/dsp.h     **** }
 6141              		.loc 2 28 13 view .LVU1858
 6142 1bf2 26EE077A 		vmul.f32	s14, s12, s14
 6143              	.LVL415:
  28:src/dsp.h     **** }
 6144              		.loc 2 28 39 view .LVU1859
 6145 1bf6 87EE246A 		vdiv.f32	s12, s14, s9
 6146              	.LBE978:
 6147              	.LBE977:
 6148              	.LBE979:
 6149              	.LBE980:
 128:src/engine.cpp **** }
 6150              		.loc 1 128 43 view .LVU1860
 6151 1bfa 66EE866A 		vmul.f32	s13, s13, s12
 6152              	.LVL416:
 128:src/engine.cpp **** }
 6153              		.loc 1 128 43 view .LVU1861
 6154 1bfe 32E4     		b	.L166
 6155              	.LVL417:
 6156              	.L308:
 6157              	.LBB981:
 6158              	.LBB973:
  25:src/dsp.h     ****     if(x<-3.0f)return -1.0f;
 6159              		.loc 2 25 24 view .LVU1862
 6160 1c00 B7EE000A 		vmov.f32	s0, #1.0e+0
 6161 1c04 74E7     		b	.L215
 6162              	.LVL418:
 6163              	.L204:
  25:src/dsp.h     ****     if(x<-3.0f)return -1.0f;
 6164              		.loc 2 25 24 view .LVU1863
 6165              	.LBE973:
 6166              	.LBE981:
 6167              	.LBB982:
 6168              	.LBB958:
  61:src/dsp.h     ****         case WAVE_TRI:
 6169              		.loc 2 61 9 is_stmt 1 view .LVU1864
  61:src/dsp.h     ****         case WAVE_TRI:
 6170              		.loc 2 61 27 view .LVU1865
 6171              	.LBB950:
 6172              	.LBI950:
  53:src/dsp.h     **** 
 6173              		.loc 2 53 21 view .LVU1866
 6174              	.LBB951:
  53:src/dsp.h     **** 
 6175              		.loc 2 53 40 view .LVU1867
  53:src/dsp.h     **** 
 6176              		.loc 2 53 57 is_stmt 0 view .LVU1868
 6177 1c06 F0EE004A 		vmov.f32	s9, #2.0e+0
 6178 1c0a BFEE000A 		vmov.f32	s0, #-1.0e+0
 6179 1c0e A4EE240A 		vfma.f32	s0, s8, s9
 6180              	.LVL419:
  53:src/dsp.h     **** 
 6181              		.loc 2 53 57 view .LVU1869
 6182              	.LBE951:
ARM GAS  /tmp/claude-502/ccaZRenT.s 			page 146


 6183              	.LBE950:
  61:src/dsp.h     ****         case WAVE_TRI:
 6184              		.loc 2 61 44 view .LVU1870
 6185 1c12 11E7     		b	.L210
 6186              	.L203:
  60:src/dsp.h     ****         case WAVE_SAW:    return osc_saw(ph);
 6187              		.loc 2 60 9 is_stmt 1 view .LVU1871
  60:src/dsp.h     ****         case WAVE_SAW:    return osc_saw(ph);
 6188              		.loc 2 60 27 view .LVU1872
 6189              	.LVL420:
 6190              	.LBB952:
 6191              	.LBI952:
  52:src/dsp.h     **** static inline float osc_saw(float ph){ return 2.0f*ph - 1.0f; }
 6192              		.loc 2 52 21 view .LVU1873
 6193              	.LBB953:
  52:src/dsp.h     **** static inline float osc_saw(float ph){ return 2.0f*ph - 1.0f; }
 6194              		.loc 2 52 43 view .LVU1874
  52:src/dsp.h     **** static inline float osc_saw(float ph){ return 2.0f*ph - 1.0f; }
 6195              		.loc 2 52 58 is_stmt 0 view .LVU1875
 6196 1c14 F6EE004A 		vmov.f32	s9, #5.0e-1
 6197 1c18 B7EE000A 		vmov.f32	s0, #1.0e+0
 6198 1c1c B4EEE44A 		vcmpe.f32	s8, s9
 6199 1c20 FFEE004A 		vmov.f32	s9, #-1.0e+0
 6200 1c24 F1EE10FA 		vmrs	APSR_nzcv, FPSCR
 6201 1c28 58BF     		it	pl
 6202 1c2a B0EE640A 		vmovpl.f32	s0, s9
 6203 1c2e 03E7     		b	.L210
 6204              	.LVL421:
 6205              	.L440:
  52:src/dsp.h     **** static inline float osc_saw(float ph){ return 2.0f*ph - 1.0f; }
 6206              		.loc 2 52 58 view .LVU1876
 6207 1c30 F1EE666A 		vneg.f32	s13, s13
 6208 1c34 17E4     		b	.L166
 6209              	.LVL422:
 6210              	.L309:
  52:src/dsp.h     **** static inline float osc_saw(float ph){ return 2.0f*ph - 1.0f; }
 6211              		.loc 2 52 58 view .LVU1877
 6212              	.LBE953:
 6213              	.LBE952:
 6214              	.LBE958:
 6215              	.LBE982:
 6216              	.LBB983:
 6217              	.LBB974:
  26:src/dsp.h     ****     float x2=x*x;
 6218              		.loc 2 26 24 view .LVU1878
 6219 1c36 BFEE000A 		vmov.f32	s0, #-1.0e+0
 6220 1c3a 59E7     		b	.L215
 6221              	.LVL423:
 6222              	.L433:
  26:src/dsp.h     ****     float x2=x*x;
 6223              		.loc 2 26 24 view .LVU1879
 6224              	.LBE974:
 6225              	.LBE983:
 104:src/engine.cpp ****     // Pitch envelope decays to 1.0.
 6226              		.loc 1 104 37 is_stmt 1 view .LVU1880
 104:src/engine.cpp ****     // Pitch envelope decays to 1.0.
 6227              		.loc 1 104 60 is_stmt 0 view .LVU1881
ARM GAS  /tmp/claude-502/ccaZRenT.s 			page 147


 6228 1c3c DFED2F6A 		vldr.32	s13, .L455+32
 104:src/engine.cpp ****     // Pitch envelope decays to 1.0.
 6229              		.loc 1 104 45 view .LVU1882
 6230 1c40 1870     		strb	r0, [r3]
 104:src/engine.cpp ****     // Pitch envelope decays to 1.0.
 6231              		.loc 1 104 53 is_stmt 1 view .LVU1883
 104:src/engine.cpp ****     // Pitch envelope decays to 1.0.
 6232              		.loc 1 104 60 is_stmt 0 view .LVU1884
 6233 1c42 10E4     		b	.L166
 6234              	.LVL424:
 6235              	.L383:
 104:src/engine.cpp ****     // Pitch envelope decays to 1.0.
 6236              		.loc 1 104 60 view .LVU1885
 6237              	.LBE994:
 6238              	.LBE1002:
 6239              	.LBE1015:
 6240              	.LBE1024:
 6241              	.LBE1120:
 6242              	.LBB1121:
 6243              	.LBB580:
 6244              	.LBB566:
 6245              	.LBB477:
 6246              	.LBB471:
 6247              	.LBB463:
 6248              	.LBB462:
  41:src/dsp.h     **** }
 6249              		.loc 2 41 19 view .LVU1886
 6250 1c44 F0EE082A 		vmov.f32	s5, #3.0e+0
 6251 1c48 ECEE4A2A 		vfms.f32	s5, s24, s20
 6252              	.LBE462:
 6253              	.LBE463:
 6254              	.LBE471:
 6255              	.LBE477:
 6256              	.LBE566:
 332:src/engine.cpp ****             mix += (osc(s_phase1c, VOICE.osc1_wave) * VOICE.osc1_level
 6257              		.loc 1 332 53 view .LVU1887
 6258 1c4c 9DED06AA 		vldr.32	s20, [sp, #24]
 6259 1c50 62EE8A2A 		vmul.f32	s5, s5, s20
 6260 1c54 FEF769BD 		b	.L116
 6261              	.LVL425:
 6262              	.L381:
 6263              	.LBB567:
 6264              	.LBB453:
 6265              	.LBB446:
 6266              	.LBB437:
 6267              	.LBB436:
  41:src/dsp.h     **** }
 6268              		.loc 2 41 19 view .LVU1888
 6269 1c58 B0EE080A 		vmov.f32	s0, #3.0e+0
 6270              	.LVL426:
  41:src/dsp.h     **** }
 6271              		.loc 2 41 19 view .LVU1889
 6272 1c5c ACEEE20A 		vfms.f32	s0, s25, s5
 6273              	.LBE436:
 6274              	.LBE437:
 6275              	.LBE446:
 6276              	.LBE453:
ARM GAS  /tmp/claude-502/ccaZRenT.s 			page 148


 6277              	.LBE567:
 331:src/engine.cpp ****                   + osc(s_phase2b, VOICE.osc2_wave) * VOICE.osc2_level) * cl;
 6278              		.loc 1 331 53 view .LVU1890
 6279 1c60 DDED052A 		vldr.32	s5, [sp, #20]
 6280 1c64 20EE220A 		vmul.f32	s0, s0, s5
 6281 1c68 FEF741BD 		b	.L106
 6282              	.LVL427:
 6283              	.L271:
 6284              	.LBB568:
 6285              	.LBB454:
 6286              	.LBB447:
 6287              	.LBB445:
 331:src/engine.cpp ****                   + osc(s_phase2b, VOICE.osc2_wave) * VOICE.osc2_level) * cl;
 6288              		.loc 1 331 53 view .LVU1891
 6289 1c6c 9DED050A 		vldr.32	s0, [sp, #20]
 6290              	.LVL428:
 331:src/engine.cpp ****                   + osc(s_phase2b, VOICE.osc2_wave) * VOICE.osc2_level) * cl;
 6291              		.loc 1 331 53 view .LVU1892
 6292 1c70 FEF73DBD 		b	.L106
 6293              	.LVL429:
 6294              	.L387:
 331:src/engine.cpp ****                   + osc(s_phase2b, VOICE.osc2_wave) * VOICE.osc2_level) * cl;
 6295              		.loc 1 331 53 view .LVU1893
 6296              	.LBE445:
 6297              	.LBE447:
 6298              	.LBE454:
 6299              	.LBE568:
 6300              	.LBB569:
 6301              	.LBB543:
 6302              	.LBB531:
 6303              	.LBB519:
 6304              	.LBB516:
  41:src/dsp.h     **** }
 6305              		.loc 2 41 19 view .LVU1894
 6306 1c74 F0EE082A 		vmov.f32	s5, #3.0e+0
 6307              	.LBE516:
 6308              	.LBE519:
 6309              	.LBE531:
 6310              	.LBE543:
 6311              	.LBE569:
 334:src/engine.cpp ****             s_phase1b += f3*VOICE.osc1_ratio/sr; if(s_phase1b>=1.0f)s_phase1b-=1.0f;
 6312              		.loc 1 334 53 view .LVU1895
 6313 1c78 9DED060A 		vldr.32	s0, [sp, #24]
 6314              	.LBB570:
 6315              	.LBB544:
 6316              	.LBB532:
 6317              	.LBB520:
 6318              	.LBB517:
  41:src/dsp.h     **** }
 6319              		.loc 2 41 19 view .LVU1896
 6320 1c7c EAEE4E2A 		vfms.f32	s5, s20, s28
 6321              	.LBE517:
 6322              	.LBE520:
 6323              	.LBE532:
 6324              	.LBE544:
 6325              	.LBE570:
 334:src/engine.cpp ****             s_phase1b += f3*VOICE.osc1_ratio/sr; if(s_phase1b>=1.0f)s_phase1b-=1.0f;
ARM GAS  /tmp/claude-502/ccaZRenT.s 			page 149


 6326              		.loc 1 334 53 view .LVU1897
 6327 1c80 62EE802A 		vmul.f32	s5, s5, s0
 6328 1c84 FEF7B4BD 		b	.L136
 6329              	.LVL430:
 6330              	.L275:
 6331              	.LBB571:
 6332              	.LBB507:
 6333              	.LBB499:
 6334              	.LBB498:
 334:src/engine.cpp ****             s_phase1b += f3*VOICE.osc1_ratio/sr; if(s_phase1b>=1.0f)s_phase1b-=1.0f;
 6335              		.loc 1 334 53 view .LVU1898
 6336 1c88 CDED272A 		vstr.32	s5, [sp, #156]
 6337 1c8c FEF771BD 		b	.L126
 6338              	.LVL431:
 6339              	.L398:
 334:src/engine.cpp ****             s_phase1b += f3*VOICE.osc1_ratio/sr; if(s_phase1b>=1.0f)s_phase1b-=1.0f;
 6340              		.loc 1 334 53 view .LVU1899
 6341              	.LBE498:
 6342              	.LBE499:
 6343              	.LBE507:
 6344              	.LBE571:
 6345              	.LBE580:
 6346              	.LBE1121:
 6347              	.LBB1122:
 6348              	.LBB1025:
 6349              	.LBB1016:
 6350              	.LBB1003:
 6351              	.LBB995:
 6352              	.LBB984:
 6353              	.LBB959:
 6354              	.LBB954:
 6355              	.LBB946:
 6356              	.LBB945:
  41:src/dsp.h     **** }
 6357              		.loc 2 41 19 view .LVU1900
 6358 1c90 B0EE080A 		vmov.f32	s0, #3.0e+0
 6359 1c94 A4EE640A 		vfms.f32	s0, s8, s9
 6360 1c98 CEE6     		b	.L210
 6361              	.LVL432:
 6362              	.L396:
  41:src/dsp.h     **** }
 6363              		.loc 2 41 19 view .LVU1901
 6364              	.LBE945:
 6365              	.LBE946:
 6366              	.LBE954:
 6367              	.LBE959:
 6368              	.LBE984:
 6369              	.LBB985:
 6370              	.LBB935:
 6371              	.LBB930:
 6372              	.LBB922:
 6373              	.LBB921:
 6374 1c9a F0EE084A 		vmov.f32	s9, #3.0e+0
 6375 1c9e E3EE444A 		vfms.f32	s9, s6, s8
 6376 1ca2 66E6     		b	.L200
 6377              	.LVL433:
 6378              	.L394:
ARM GAS  /tmp/claude-502/ccaZRenT.s 			page 150


  41:src/dsp.h     **** }
 6379              		.loc 2 41 19 view .LVU1902
 6380              	.LBE921:
 6381              	.LBE922:
 6382              	.LBE930:
 6383              	.LBE935:
 6384              	.LBE985:
 6385              	.LBB986:
 6386              	.LBB911:
 6387              	.LBB906:
 6388              	.LBB898:
 6389              	.LBB897:
 6390 1ca4 F0EE084A 		vmov.f32	s9, #3.0e+0
 6391 1ca8 E3EEC44A 		vfms.f32	s9, s7, s8
 6392 1cac 00E6     		b	.L190
 6393              	.LVL434:
 6394              	.L392:
  41:src/dsp.h     **** }
 6395              		.loc 2 41 19 view .LVU1903
 6396              	.LBE897:
 6397              	.LBE898:
 6398              	.LBE906:
 6399              	.LBE911:
 6400              	.LBE986:
 6401              	.LBB987:
 6402              	.LBB888:
 6403              	.LBB883:
 6404              	.LBB875:
 6405              	.LBB874:
 6406 1cae B0EE087A 		vmov.f32	s14, #3.0e+0
 6407 1cb2 A5EEE47A 		vfms.f32	s14, s11, s9
 6408 1cb6 9CE5     		b	.L180
 6409              	.LVL435:
 6410              	.L253:
  41:src/dsp.h     **** }
 6411              		.loc 2 41 19 view .LVU1904
 6412              	.LBE874:
 6413              	.LBE875:
 6414              	.LBE883:
 6415              	.LBE888:
 6416              	.LBE987:
 6417              	.LBE995:
 6418              	.LBE1003:
 6419              	.LBE1016:
 6420              	.LBE1025:
 6421              	.LBE1122:
 6422              	.LBE1139:
 6423              	.LBE1154:
 6424              	.LBB1155:
 6425              	.LBB395:
  34:src/dsp.h     ****     return expf(-1.0f / (ms * 0.001f * sr));
 6426              		.loc 2 34 27 view .LVU1905
 6427 1cb8 9FED100A 		vldr.32	s0, .L455+32
 6428              	.LVL436:
  34:src/dsp.h     ****     return expf(-1.0f / (ms * 0.001f * sr));
 6429              		.loc 2 34 27 view .LVU1906
 6430 1cbc FEF710BA 		b	.L20
ARM GAS  /tmp/claude-502/ccaZRenT.s 			page 151


 6431              	.LVL437:
 6432              	.L310:
  34:src/dsp.h     ****     return expf(-1.0f / (ms * 0.001f * sr));
 6433              		.loc 2 34 27 view .LVU1907
 6434              	.LBE395:
 6435              	.LBE1155:
 6436              	.LBB1156:
 6437              	.LBB1140:
 6438              	.LBB1123:
 6439              	.LBB1026:
 6440              	.LBB1017:
 6441              	.LBB1010:
 6442 1cc0 B0EE686A 		vmov.f32	s12, s17
 6443              	.LVL438:
  34:src/dsp.h     ****     return expf(-1.0f / (ms * 0.001f * sr));
 6444              		.loc 2 34 27 view .LVU1908
 6445 1cc4 FEF7D8BF 		b	.L165
 6446              	.LVL439:
 6447              	.L252:
  34:src/dsp.h     ****     return expf(-1.0f / (ms * 0.001f * sr));
 6448              		.loc 2 34 27 view .LVU1909
 6449              	.LBE1010:
 6450              	.LBE1017:
 6451              	.LBE1026:
 6452              	.LBE1123:
 6453              	.LBE1140:
 6454              	.LBE1156:
 143:src/engine.cpp **** 
 6455              		.loc 1 143 40 view .LVU1910
 6456 1cc8 DFED0C7A 		vldr.32	s15, .L455+32
 6457              	.LVL440:
 143:src/engine.cpp **** 
 6458              		.loc 1 143 40 view .LVU1911
 6459 1ccc CDED0E7A 		vstr.32	s15, [sp, #56]
 6460 1cd0 FEF7B2B9 		b	.L16
 6461              	.LVL441:
 6462              	.L436:
 143:src/engine.cpp **** 
 6463              		.loc 1 143 40 view .LVU1912
 6464 1cd4 B1EE686A 		vneg.f32	s12, s17
 6465 1cd8 FEF7CEBF 		b	.L165
 6466              	.L456:
 6467              		.align	2
 6468              	.L455:
 6469 1cdc DB0F4940 		.word	1078530011
 6470 1ce0 DB0F49C0 		.word	-1068953637
 6471 1ce4 83F9A23F 		.word	1067645315
 6472 1ce8 7B81CF3E 		.word	1053786491
 6473 1cec 6666663E 		.word	1046898278
 6474 1cf0 00000030 		.word	805306368
 6475 1cf4 CDCC4C3F 		.word	1061997773
 6476 1cf8 6666A63F 		.word	1067869798
 6477 1cfc 00000000 		.word	0
 6478              	.LVL442:
 6479              	.L23:
 183:src/engine.cpp ****         s_penv_start = exp2f(VOICE.pitch_env_oct);   // 1.0 when pitch_env_oct == 0
 6480              		.loc 1 183 22 view .LVU1913
ARM GAS  /tmp/claude-502/ccaZRenT.s 			page 152


 6481 1d00 0D4A     		ldr	r2, .L457
 184:src/engine.cpp ****         // decay_ms == 0 → no decay: floor 1.0 so s_decay stays pinned at 1 (the
 6482              		.loc 1 184 29 view .LVU1914
 6483 1d02 96ED1C0A 		vldr.32	s0, [r6, #112]
 183:src/engine.cpp ****         s_penv_start = exp2f(VOICE.pitch_env_oct);   // 1.0 when pitch_env_oct == 0
 6484              		.loc 1 183 22 view .LVU1915
 6485 1d06 1360     		str	r3, [r2]	@ float
 184:src/engine.cpp ****         // decay_ms == 0 → no decay: floor 1.0 so s_decay stays pinned at 1 (the
 6486              		.loc 1 184 9 is_stmt 1 view .LVU1916
 6487 1d08 FEF740BA 		b	.L402
 6488              	.LVL443:
 6489              	.L255:
 6490              	.LBB1157:
 6491              	.LBB408:
  34:src/dsp.h     ****     return expf(-1.0f / (ms * 0.001f * sr));
 6492              		.loc 2 34 27 is_stmt 0 view .LVU1917
 6493 1d0c 9FED0B0A 		vldr.32	s0, .L457+4
 6494 1d10 FEF71ABA 		b	.L22
 6495              	.LVL444:
 6496              	.L254:
  34:src/dsp.h     ****     return expf(-1.0f / (ms * 0.001f * sr));
 6497              		.loc 2 34 27 view .LVU1918
 6498              	.LBE408:
 6499              	.LBE1157:
 6500              	.LBB1158:
 6501              	.LBB401:
 6502 1d14 9FED090A 		vldr.32	s0, .L457+4
 6503 1d18 FEF7FCB9 		b	.L21
 6504              	.LVL445:
 6505              	.L24:
  34:src/dsp.h     ****     return expf(-1.0f / (ms * 0.001f * sr));
 6506              		.loc 2 34 27 view .LVU1919
 6507              	.LBE401:
 6508              	.LBE1158:
 188:src/engine.cpp ****         s_coeff_vi   = vi;
 6509              		.loc 1 188 48 discriminator 4 view .LVU1920
 6510 1d1c F5EEC07A 		vcmpe.f32	s15, #0
 187:src/engine.cpp ****         s_sustain    = (VOICE.decay_ms > 0.0f) ? VOICE.sustain : 1.0f;
 6511              		.loc 1 187 22 discriminator 4 view .LVU1921
 6512 1d20 074B     		ldr	r3, .L457+8
 6513 1d22 1A46     		mov	r2, r3
 6514 1d24 0023     		movs	r3, #0
 188:src/engine.cpp ****         s_coeff_vi   = vi;
 6515              		.loc 1 188 48 discriminator 4 view .LVU1922
 6516 1d26 F1EE10FA 		vmrs	APSR_nzcv, FPSCR
 187:src/engine.cpp ****         s_sustain    = (VOICE.decay_ms > 0.0f) ? VOICE.sustain : 1.0f;
 6517              		.loc 1 187 22 discriminator 4 view .LVU1923
 6518 1d2a 1360     		str	r3, [r2]	@ float
 188:src/engine.cpp ****         s_coeff_vi   = vi;
 6519              		.loc 1 188 9 is_stmt 1 discriminator 4 view .LVU1924
 188:src/engine.cpp ****         s_coeff_vi   = vi;
 6520              		.loc 1 188 48 is_stmt 0 discriminator 4 view .LVU1925
 6521 1d2c 3EF74AAA 		bgt	.L26
 188:src/engine.cpp ****         s_coeff_vi   = vi;
 6522              		.loc 1 188 48 view .LVU1926
 6523 1d30 4FF07E52 		mov	r2, #1065353216
 6524 1d34 FEF74BBA 		b	.L27
ARM GAS  /tmp/claude-502/ccaZRenT.s 			page 153


 6525              	.L458:
 6526              		.align	2
 6527              	.L457:
 6528 1d38 00000000 		.word	.LANCHOR17
 6529 1d3c 00000000 		.word	0
 6530 1d40 00000000 		.word	.LANCHOR19
 6531              		.cfi_endproc
 6532              	.LFE2584:
 6534              		.global	g_hits
 6535              		.global	g_chord_ratio3
 6536              		.global	g_chord_ratio2
 6537              		.global	g_master_vol
 6538              		.global	g_led3_duty
 6539              		.global	g_retrig
 6540              		.global	g_amp_target
 6541              		.global	g_finger_on
 6542              		.global	g_ringmod
 6543              		.global	g_bitcrush
 6544              		.global	g_vibrato_depth
 6545              		.global	g_target_drive
 6546              		.global	g_target_detune
 6547              		.global	g_target_cutoff
 6548              		.global	g_target_freq
 6549              		.section	.rodata.str1.4,"aMS",%progbits,1
 6550              		.align	2
 6551              	.LC0:
 6552 0000 4C656164 		.ascii	"Lead\000"
 6552      00
 6553 0005 000000   		.align	2
 6554              	.LC1:
 6555 0008 42617373 		.ascii	"Bass\000"
 6555      00
 6556 000d 000000   		.align	2
 6557              	.LC2:
 6558 0010 4F70656E 		.ascii	"OpenBass\000"
 6558      42617373 
 6558      00
 6559 0019 000000   		.align	2
 6560              	.LC3:
 6561 001c 52696368 		.ascii	"RichBass\000"
 6561      42617373 
 6561      00
 6562 0025 000000   		.align	2
 6563              	.LC4:
 6564 0028 4F726761 		.ascii	"Organ\000"
 6564      6E00
 6565 002e 0000     		.align	2
 6566              	.LC5:
 6567 0030 53637265 		.ascii	"Scream\000"
 6567      616D00
 6568 0037 00       		.align	2
 6569              	.LC6:
 6570 0038 47756974 		.ascii	"Guitar\000"
 6570      617200
 6571 003f 00       		.align	2
 6572              	.LC7:
 6573 0040 50616400 		.ascii	"Pad\000"
ARM GAS  /tmp/claude-502/ccaZRenT.s 			page 154


 6574              		.align	2
 6575              	.LC8:
 6576 0044 546F6D00 		.ascii	"Tom\000"
 6577              		.align	2
 6578              	.LC9:
 6579 0048 4B69636B 		.ascii	"Kick\000"
 6579      00
 6580 004d 000000   		.align	2
 6581              	.LC10:
 6582 0050 536E6172 		.ascii	"Snare\000"
 6582      6500
 6583 0056 0000     		.align	2
 6584              	.LC11:
 6585 0058 48694861 		.ascii	"HiHat\000"
 6585      7400
 6586 005e 0000     		.align	2
 6587              	.LC12:
 6588 0060 53482D31 		.ascii	"SH-101 min\000"
 6588      3031206D 
 6588      696E00
 6589 006b 00       		.align	2
 6590              	.LC13:
 6591 006c 53482D31 		.ascii	"SH-101 maj\000"
 6591      3031206D 
 6591      616A00
 6592 0077 00       		.align	2
 6593              	.LC14:
 6594 0078 4472756D 		.ascii	"Drums\000"
 6594      7300
 6595              		.section	.bss._ZL10s_bitcrush,"aw",%nobits
 6596              		.align	2
 6597              		.set	.LANCHOR25,. + 0
 6600              	_ZL10s_bitcrush:
 6601 0000 00000000 		.space	4
 6602              		.section	.bss._ZL10s_noise_lp,"aw",%nobits
 6603              		.align	2
 6604              		.set	.LANCHOR41,. + 0
 6607              	_ZL10s_noise_lp:
 6608 0000 00000000 		.space	4
 6609              		.section	.bss._ZL10s_phase_rm,"aw",%nobits
 6610              		.align	2
 6611              		.set	.LANCHOR46,. + 0
 6614              	_ZL10s_phase_rm:
 6615 0000 00000000 		.space	4
 6616              		.section	.bss._ZL10s_vibdepth,"aw",%nobits
 6617              		.align	2
 6618              		.set	.LANCHOR33,. + 0
 6621              	_ZL10s_vibdepth:
 6622 0000 00000000 		.space	4
 6623              		.section	.bss._ZL11s_lfo_phase,"aw",%nobits
 6624              		.align	2
 6625              		.set	.LANCHOR35,. + 0
 6628              	_ZL11s_lfo_phase:
 6629 0000 00000000 		.space	4
 6630              		.section	.bss._ZL11s_phase_oct,"aw",%nobits
 6631              		.align	2
 6632              		.set	.LANCHOR39,. + 0
ARM GAS  /tmp/claude-502/ccaZRenT.s 			page 155


 6635              	_ZL11s_phase_oct:
 6636 0000 00000000 		.space	4
 6637              		.section	.bss._ZL11s_phase_sub,"aw",%nobits
 6638              		.align	2
 6639              		.set	.LANCHOR38,. + 0
 6642              	_ZL11s_phase_sub:
 6643 0000 00000000 		.space	4
 6644              		.section	.bss._ZL5s_amp,"aw",%nobits
 6645              		.align	2
 6646              		.set	.LANCHOR30,. + 0
 6649              	_ZL5s_amp:
 6650 0000 00000000 		.space	4
 6651              		.section	.bss._ZL5s_flt,"aw",%nobits
 6652              		.align	2
 6653              		.set	.LANCHOR27,. + 0
 6656              	_ZL5s_flt:
 6657 0000 00000000 		.space	16
 6657      00000000 
 6657      00000000 
 6657      00000000 
 6658              		.section	.bss._ZL8s_detune,"aw",%nobits
 6659              		.align	2
 6660              		.set	.LANCHOR24,. + 0
 6663              	_ZL8s_detune:
 6664 0000 00000000 		.space	4
 6665              		.section	.bss._ZL8s_phase1,"aw",%nobits
 6666              		.align	2
 6667              		.set	.LANCHOR36,. + 0
 6670              	_ZL8s_phase1:
 6671 0000 00000000 		.space	4
 6672              		.section	.bss._ZL8s_phase2,"aw",%nobits
 6673              		.align	2
 6674              		.set	.LANCHOR37,. + 0
 6677              	_ZL8s_phase2:
 6678 0000 00000000 		.space	4
 6679              		.section	.bss._ZL9s_phase1b,"aw",%nobits
 6680              		.align	2
 6681              		.set	.LANCHOR42,. + 0
 6684              	_ZL9s_phase1b:
 6685 0000 00000000 		.space	4
 6686              		.section	.bss._ZL9s_phase1c,"aw",%nobits
 6687              		.align	2
 6688              		.set	.LANCHOR44,. + 0
 6691              	_ZL9s_phase1c:
 6692 0000 00000000 		.space	4
 6693              		.section	.bss._ZL9s_phase2b,"aw",%nobits
 6694              		.align	2
 6695              		.set	.LANCHOR43,. + 0
 6698              	_ZL9s_phase2b:
 6699 0000 00000000 		.space	4
 6700              		.section	.bss._ZL9s_phase2c,"aw",%nobits
 6701              		.align	2
 6702              		.set	.LANCHOR45,. + 0
 6705              	_ZL9s_phase2c:
 6706 0000 00000000 		.space	4
 6707              		.section	.bss._ZL9s_ringmod,"aw",%nobits
 6708              		.align	2
ARM GAS  /tmp/claude-502/ccaZRenT.s 			page 156


 6709              		.set	.LANCHOR26,. + 0
 6712              	_ZL9s_ringmod:
 6713 0000 00000000 		.space	4
 6714              		.section	.bss._ZZ13AudioCallbackPKPKfPPfjE10led3_state,"aw",%nobits
 6715              		.set	.LANCHOR50,. + 0
 6718              	_ZZ13AudioCallbackPKPKfPPfjE10led3_state:
 6719 0000 00       		.space	1
 6720              		.section	.bss._ZZ13AudioCallbackPKPKfPPfjE11pwm_counter,"aw",%nobits
 6721              		.align	2
 6722              		.set	.LANCHOR49,. + 0
 6725              	_ZZ13AudioCallbackPKPKfPPfjE11pwm_counter:
 6726 0000 00000000 		.space	4
 6727              		.section	.bss._ZZ13AudioCallbackPKPKfPPfjE11s_prev_tamp,"aw",%nobits
 6728              		.align	2
 6729              		.set	.LANCHOR28,. + 0
 6732              	_ZZ13AudioCallbackPKPKfPPfjE11s_prev_tamp:
 6733 0000 00000000 		.space	4
 6734              		.section	.bss._ZZ13AudioCallbackPKPKfPPfjE12s_penv_start,"aw",%nobits
 6735              		.align	2
 6736              		.set	.LANCHOR18,. + 0
 6739              	_ZZ13AudioCallbackPKPKfPPfjE12s_penv_start:
 6740 0000 00000000 		.space	4
 6741              		.section	.bss._ZZ13AudioCallbackPKPKfPPfjE16led3_duty_smooth,"aw",%nobits
 6742              		.align	2
 6743              		.set	.LANCHOR48,. + 0
 6746              	_ZZ13AudioCallbackPKPKfPPfjE16led3_duty_smooth:
 6747 0000 00000000 		.space	4
 6748              		.section	.bss._ZZ13AudioCallbackPKPKfPPfjE7s_atk_c,"aw",%nobits
 6749              		.align	2
 6750              		.set	.LANCHOR15,. + 0
 6753              	_ZZ13AudioCallbackPKPKfPPfjE7s_atk_c:
 6754 0000 00000000 		.space	4
 6755              		.section	.bss._ZZ13AudioCallbackPKPKfPPfjE7s_rel_c,"aw",%nobits
 6756              		.align	2
 6757              		.set	.LANCHOR16,. + 0
 6760              	_ZZ13AudioCallbackPKPKfPPfjE7s_rel_c:
 6761 0000 00000000 		.space	4
 6762              		.section	.bss._ZZ13AudioCallbackPKPKfPPfjE8s_penv_c,"aw",%nobits
 6763              		.align	2
 6764              		.set	.LANCHOR17,. + 0
 6767              	_ZZ13AudioCallbackPKPKfPPfjE8s_penv_c:
 6768 0000 00000000 		.space	4
 6769              		.section	.bss._ZZ13AudioCallbackPKPKfPPfjE9s_decay_c,"aw",%nobits
 6770              		.align	2
 6771              		.set	.LANCHOR19,. + 0
 6774              	_ZZ13AudioCallbackPKPKfPPfjE9s_decay_c:
 6775 0000 00000000 		.space	4
 6776              		.section	.bss._ZZ13AudioCallbackPKPKfPPfjE9s_glide_c,"aw",%nobits
 6777              		.align	2
 6778              		.set	.LANCHOR14,. + 0
 6781              	_ZZ13AudioCallbackPKPKfPPfjE9s_glide_c:
 6782 0000 00000000 		.space	4
 6783              		.section	.bss._ZZ13AudioCallbackPKPKfPPfjE9s_sustain,"aw",%nobits
 6784              		.align	2
 6785              		.set	.LANCHOR20,. + 0
 6788              	_ZZ13AudioCallbackPKPKfPPfjE9s_sustain:
 6789 0000 00000000 		.space	4
ARM GAS  /tmp/claude-502/ccaZRenT.s 			page 157


 6790              		.section	.bss.g_amp_target,"aw",%nobits
 6791              		.align	2
 6792              		.set	.LANCHOR9,. + 0
 6795              	g_amp_target:
 6796 0000 00000000 		.space	4
 6797              		.section	.bss.g_bitcrush,"aw",%nobits
 6798              		.align	2
 6799              		.set	.LANCHOR7,. + 0
 6802              	g_bitcrush:
 6803 0000 00000000 		.space	4
 6804              		.section	.bss.g_finger_on,"aw",%nobits
 6807              	g_finger_on:
 6808 0000 00       		.space	1
 6809              		.section	.bss.g_led3_duty,"aw",%nobits
 6810              		.align	2
 6811              		.set	.LANCHOR1,. + 0
 6814              	g_led3_duty:
 6815 0000 00000000 		.space	4
 6816              		.section	.bss.g_retrig,"aw",%nobits
 6817              		.set	.LANCHOR29,. + 0
 6820              	g_retrig:
 6821 0000 00       		.space	1
 6822              		.section	.bss.g_ringmod,"aw",%nobits
 6823              		.align	2
 6824              		.set	.LANCHOR8,. + 0
 6827              	g_ringmod:
 6828 0000 00000000 		.space	4
 6829              		.section	.bss.g_target_detune,"aw",%nobits
 6830              		.align	2
 6831              		.set	.LANCHOR4,. + 0
 6834              	g_target_detune:
 6835 0000 00000000 		.space	4
 6836              		.section	.bss.g_vibrato_depth,"aw",%nobits
 6837              		.align	2
 6838              		.set	.LANCHOR6,. + 0
 6841              	g_vibrato_depth:
 6842 0000 00000000 		.space	4
 6843              		.section	.data._ZL11s_noise_rng,"aw"
 6844              		.align	2
 6845              		.set	.LANCHOR40,. + 0
 6848              	_ZL11s_noise_rng:
 6849 0000 67452301 		.word	19088743
 6850              		.section	.data._ZL12s_master_vol,"aw"
 6851              		.align	2
 6852              		.set	.LANCHOR34,. + 0
 6855              	_ZL12s_master_vol:
 6856 0000 0000803F 		.word	1065353216
 6857              		.section	.data._ZL6s_freq,"aw"
 6858              		.align	2
 6859              		.set	.LANCHOR21,. + 0
 6862              	_ZL6s_freq:
 6863 0000 ECD18242 		.word	1115869676
 6864              		.section	.data._ZL7s_drive,"aw"
 6865              		.align	2
 6866              		.set	.LANCHOR23,. + 0
 6869              	_ZL7s_drive:
 6870 0000 0000803F 		.word	1065353216
ARM GAS  /tmp/claude-502/ccaZRenT.s 			page 158


 6871              		.section	.data._ZL8s_cutoff,"aw"
 6872              		.align	2
 6873              		.set	.LANCHOR22,. + 0
 6876              	_ZL8s_cutoff:
 6877 0000 0000C842 		.word	1120403456
 6878              		.section	.data._ZZ13AudioCallbackPKPKfPPfjE10s_coeff_vi,"aw"
 6879              		.align	2
 6880              		.set	.LANCHOR13,. + 0
 6883              	_ZZ13AudioCallbackPKPKfPPfjE10s_coeff_vi:
 6884 0000 FFFFFFFF 		.word	-1
 6885              		.section	.data._ZZ13AudioCallbackPKPKfPPfjE7s_decay,"aw"
 6886              		.align	2
 6887              		.set	.LANCHOR32,. + 0
 6890              	_ZZ13AudioCallbackPKPKfPPfjE7s_decay:
 6891 0000 0000803F 		.word	1065353216
 6892              		.section	.data._ZZ13AudioCallbackPKPKfPPfjE7s_pmult,"aw"
 6893              		.align	2
 6894              		.set	.LANCHOR31,. + 0
 6897              	_ZZ13AudioCallbackPKPKfPPfjE7s_pmult:
 6898 0000 0000803F 		.word	1065353216
 6899              		.section	.data.g_chord_ratio2,"aw"
 6900              		.align	2
 6901              		.set	.LANCHOR11,. + 0
 6904              	g_chord_ratio2:
 6905 0000 0000803F 		.word	1065353216
 6906              		.section	.data.g_chord_ratio3,"aw"
 6907              		.align	2
 6908              		.set	.LANCHOR12,. + 0
 6911              	g_chord_ratio3:
 6912 0000 0000803F 		.word	1065353216
 6913              		.section	.data.g_hits,"aw"
 6914              		.align	2
 6915              		.set	.LANCHOR47,. + 0
 6918              	g_hits:
 6919 0000 00       		.byte	0
 6920 0001 00       		.byte	0
 6921 0002 0000     		.space	2
 6922 0004 09000000 		.word	9
 6923 0008 0000A042 		.word	1117782016
 6924 000c 00000000 		.word	0
 6925 0010 00004843 		.word	1128792064
 6926 0014 0000803F 		.word	1065353216
 6927 0018 00000000 		.word	0
 6928 001c 00000000 		.word	0
 6929 0020 00000000 		.word	0
 6930 0024 00000000 		.word	0
 6931 0028 00000000 		.word	0
 6932 002c 0000803F 		.word	1065353216
 6933 0030 00000000 		.word	0
 6934 0034 00000000 		.word	0
 6935 0038 0000803F 		.word	1065353216
 6936 003c 00000000 		.word	0
 6937 0040 00000000 		.word	0
 6938 0044 00000000 		.word	0
 6939 0048 0000803F 		.word	1065353216
 6940 004c 00       		.byte	0
 6941 004d 00       		.byte	0
ARM GAS  /tmp/claude-502/ccaZRenT.s 			page 159


 6942 004e 0000     		.space	2
 6943 0050 09000000 		.word	9
 6944 0054 0000A042 		.word	1117782016
 6945 0058 00000000 		.word	0
 6946 005c 00004843 		.word	1128792064
 6947 0060 0000803F 		.word	1065353216
 6948 0064 00000000 		.word	0
 6949 0068 00000000 		.word	0
 6950 006c 00000000 		.word	0
 6951 0070 00000000 		.word	0
 6952 0074 00000000 		.word	0
 6953 0078 0000803F 		.word	1065353216
 6954 007c 00000000 		.word	0
 6955 0080 00000000 		.word	0
 6956 0084 0000803F 		.word	1065353216
 6957 0088 00000000 		.word	0
 6958 008c 00000000 		.word	0
 6959 0090 00000000 		.word	0
 6960 0094 0000803F 		.word	1065353216
 6961 0098 00       		.byte	0
 6962 0099 00       		.byte	0
 6963 009a 0000     		.space	2
 6964 009c 09000000 		.word	9
 6965 00a0 0000A042 		.word	1117782016
 6966 00a4 00000000 		.word	0
 6967 00a8 00004843 		.word	1128792064
 6968 00ac 0000803F 		.word	1065353216
 6969 00b0 00000000 		.word	0
 6970 00b4 00000000 		.word	0
 6971 00b8 00000000 		.word	0
 6972 00bc 00000000 		.word	0
 6973 00c0 00000000 		.word	0
 6974 00c4 0000803F 		.word	1065353216
 6975 00c8 00000000 		.word	0
 6976 00cc 00000000 		.word	0
 6977 00d0 0000803F 		.word	1065353216
 6978 00d4 00000000 		.word	0
 6979 00d8 00000000 		.word	0
 6980 00dc 00000000 		.word	0
 6981 00e0 0000803F 		.word	1065353216
 6982 00e4 00       		.byte	0
 6983 00e5 00       		.byte	0
 6984 00e6 0000     		.space	2
 6985 00e8 09000000 		.word	9
 6986 00ec 0000A042 		.word	1117782016
 6987 00f0 00000000 		.word	0
 6988 00f4 00004843 		.word	1128792064
 6989 00f8 0000803F 		.word	1065353216
 6990 00fc 00000000 		.word	0
 6991 0100 00000000 		.word	0
 6992 0104 00000000 		.word	0
 6993 0108 00000000 		.word	0
 6994 010c 00000000 		.word	0
 6995 0110 0000803F 		.word	1065353216
 6996 0114 00000000 		.word	0
 6997 0118 00000000 		.word	0
 6998 011c 0000803F 		.word	1065353216
ARM GAS  /tmp/claude-502/ccaZRenT.s 			page 160


 6999 0120 00000000 		.word	0
 7000 0124 00000000 		.word	0
 7001 0128 00000000 		.word	0
 7002 012c 0000803F 		.word	1065353216
 7003              		.section	.data.g_master_vol,"aw"
 7004              		.align	2
 7005              		.set	.LANCHOR10,. + 0
 7008              	g_master_vol:
 7009 0000 0000803F 		.word	1065353216
 7010              		.section	.data.g_target_cutoff,"aw"
 7011              		.align	2
 7012              		.set	.LANCHOR3,. + 0
 7015              	g_target_cutoff:
 7016 0000 0000C842 		.word	1120403456
 7017              		.section	.data.g_target_drive,"aw"
 7018              		.align	2
 7019              		.set	.LANCHOR5,. + 0
 7022              	g_target_drive:
 7023 0000 0000803F 		.word	1065353216
 7024              		.section	.data.g_target_freq,"aw"
 7025              		.align	2
 7026              		.set	.LANCHOR2,. + 0
 7029              	g_target_freq:
 7030 0000 ECD18242 		.word	1115869676
 7031              		.section	.rodata._ZL11SCALE_MAJOR,"a"
 7032              		.align	2
 7035              	_ZL11SCALE_MAJOR:
 7036 0000 00020405 		.ascii	"\000\002\004\005\007\011\013"
 7036      07090B
 7037              		.section	.rodata._ZL11SCALE_MINOR,"a"
 7038              		.align	2
 7041              	_ZL11SCALE_MINOR:
 7042 0000 00020305 		.ascii	"\000\002\003\005\007\010\012"
 7042      07080A
 7043              		.section	.rodata._ZL6VOICES,"a"
 7044              		.align	2
 7045              		.set	.LANCHOR0,. + 0
 7048              	_ZL6VOICES:
 7049 0000 00000000 		.word	.LC0
 7050 0004 00004842 		.word	1112014848
 7051 0008 00009643 		.word	1133903872
 7052 000c 6458E53F 		.word	1071994980
 7053 0010 0000803F 		.word	1065353216
 7054 0014 0000003F 		.word	1056964608
 7055 0018 00       		.byte	0
 7056 0019 000000   		.space	3
 7057 001c 0000803F 		.word	1065353216
 7058 0020 AE47613E 		.word	1046562734
 7059 0024 00       		.byte	0
 7060 0025 000000   		.space	3
 7061 0028 0000003F 		.word	1056964608
 7062 002c EC51383E 		.word	1043878380
 7063 0030 00       		.byte	0
 7064 0031 000000   		.space	3
 7065 0034 00000040 		.word	1073741824
 7066 0038 9A99193E 		.word	1041865114
 7067 003c 00       		.byte	0
ARM GAS  /tmp/claude-502/ccaZRenT.s 			page 161


 7068 003d 01       		.byte	1
 7069 003e 0000     		.space	2
 7070 0040 9A99993E 		.word	1050253722
 7071 0044 00004041 		.word	1094713344
 7072 0048 0000403F 		.word	1061158912
 7073 004c 00002040 		.word	1075838976
 7074 0050 00000000 		.word	0
 7075 0054 0000803F 		.word	1065353216
 7076 0058 0000803F 		.word	1065353216
 7077 005c 9A99193E 		.word	1041865114
 7078 0060 EC51383E 		.word	1043878380
 7079 0064 00008040 		.word	1082130432
 7080 0068 0000C843 		.word	1137180672
 7081 006c 00002042 		.word	1109393408
 7082 0070 00000000 		.space	56
 7082      00000000 
 7082      00000000 
 7082      00000000 
 7082      00000000 
 7083 00a8 08000000 		.word	.LC1
 7084 00ac 00002042 		.word	1109393408
 7085 00b0 00002043 		.word	1126170624
 7086 00b4 F371B13F 		.word	1068593651
 7087 00b8 0000803F 		.word	1065353216
 7088 00bc 6666E63E 		.word	1055286886
 7089 00c0 00       		.byte	0
 7090 00c1 000000   		.space	3
 7091 00c4 9FC8BF3F 		.word	1069533343
 7092 00c8 9A99993E 		.word	1050253722
 7093 00cc 00       		.byte	0
 7094 00cd 000000   		.space	3
 7095 00d0 0000003F 		.word	1056964608
 7096 00d4 7B14AE3E 		.word	1051595899
 7097 00d8 00       		.byte	0
 7098 00d9 000000   		.space	3
 7099 00dc 00000040 		.word	1073741824
 7100 00e0 CDCC4C3E 		.word	1045220557
 7101 00e4 00       		.byte	0
 7102 00e5 00       		.byte	0
 7103 00e6 0000     		.space	2
 7104 00e8 0000803E 		.word	1048576000
 7105 00ec 0000E040 		.word	1088421888
 7106 00f0 0000003F 		.word	1056964608
 7107 00f4 0000803F 		.word	1065353216
 7108 00f8 00000000 		.word	0
 7109 00fc 0000803F 		.word	1065353216
 7110 0100 0000803F 		.word	1065353216
 7111 0104 8FC2F53D 		.word	1039516303
 7112 0108 8FC2F53D 		.word	1039516303
 7113 010c 0000C040 		.word	1086324736
 7114 0110 00009643 		.word	1133903872
 7115 0114 0000C841 		.word	1103626240
 7116 0118 00000000 		.space	56
 7116      00000000 
 7116      00000000 
 7116      00000000 
 7116      00000000 
ARM GAS  /tmp/claude-502/ccaZRenT.s 			page 162


 7117 0150 10000000 		.word	.LC2
 7118 0154 00002042 		.word	1109393408
 7119 0158 00003443 		.word	1127481344
 7120 015c B285C03F 		.word	1069581746
 7121 0160 0000803F 		.word	1065353216
 7122 0164 6666E63E 		.word	1055286886
 7123 0168 00       		.byte	0
 7124 0169 000000   		.space	3
 7125 016c 9FC8BF3F 		.word	1069533343
 7126 0170 9A99993E 		.word	1050253722
 7127 0174 00       		.byte	0
 7128 0175 000000   		.space	3
 7129 0178 0000003F 		.word	1056964608
 7130 017c 9A99993E 		.word	1050253722
 7131 0180 00       		.byte	0
 7132 0181 000000   		.space	3
 7133 0184 00000040 		.word	1073741824
 7134 0188 AE47613E 		.word	1046562734
 7135 018c 00       		.byte	0
 7136 018d 00       		.byte	0
 7137 018e 0000     		.space	2
 7138 0190 0000003F 		.word	1056964608
 7139 0194 00002041 		.word	1092616192
 7140 0198 6666263F 		.word	1059481190
 7141 019c 6666E63F 		.word	1072064102
 7142 01a0 00000000 		.word	0
 7143 01a4 0000803F 		.word	1065353216
 7144 01a8 0000803F 		.word	1065353216
 7145 01ac 9A99193E 		.word	1041865114
 7146 01b0 9A99193E 		.word	1041865114
 7147 01b4 0000A040 		.word	1084227584
 7148 01b8 0000AF43 		.word	1135542272
 7149 01bc 0000C841 		.word	1103626240
 7150 01c0 00000000 		.space	56
 7150      00000000 
 7150      00000000 
 7150      00000000 
 7150      00000000 
 7151 01f8 1C000000 		.word	.LC3
 7152 01fc 00002042 		.word	1109393408
 7153 0200 00002043 		.word	1126170624
 7154 0204 F371B13F 		.word	1068593651
 7155 0208 0000803F 		.word	1065353216
 7156 020c CDCCCC3E 		.word	1053609165
 7157 0210 03       		.byte	3
 7158 0211 000000   		.space	3
 7159 0214 9FC8BF3F 		.word	1069533343
 7160 0218 B81E853E 		.word	1048911544
 7161 021c 02       		.byte	2
 7162 021d 000000   		.space	3
 7163 0220 0000003F 		.word	1056964608
 7164 0224 0AD7A33E 		.word	1050924810
 7165 0228 01       		.byte	1
 7166 0229 000000   		.space	3
 7167 022c 00000040 		.word	1073741824
 7168 0230 EC51383E 		.word	1043878380
 7169 0234 03       		.byte	3
ARM GAS  /tmp/claude-502/ccaZRenT.s 			page 163


 7170 0235 00       		.byte	0
 7171 0236 0000     		.space	2
 7172 0238 CDCC4C3E 		.word	1045220557
 7173 023c 00005041 		.word	1095761920
 7174 0240 85EB513F 		.word	1062333317
 7175 0244 CDCC0C40 		.word	1074580685
 7176 0248 00000000 		.word	0
 7177 024c 0000803F 		.word	1065353216
 7178 0250 0000803F 		.word	1065353216
 7179 0254 CDCC4C3E 		.word	1045220557
 7180 0258 CDCC4C3E 		.word	1045220557
 7181 025c 00004040 		.word	1077936128
 7182 0260 00007A43 		.word	1132068864
 7183 0264 00009041 		.word	1099956224
 7184 0268 00000000 		.space	56
 7184      00000000 
 7184      00000000 
 7184      00000000 
 7184      00000000 
 7185 02a0 28000000 		.word	.LC4
 7186 02a4 00008242 		.word	1115815936
 7187 02a8 00000244 		.word	1140981760
 7188 02ac 8C150540 		.word	1074075020
 7189 02b0 0000803F 		.word	1065353216
 7190 02b4 6666E63E 		.word	1055286886
 7191 02b8 01       		.byte	1
 7192 02b9 000000   		.space	3
 7193 02bc D7A3803F 		.word	1065395159
 7194 02c0 CDCCCC3E 		.word	1053609165
 7195 02c4 01       		.byte	1
 7196 02c5 000000   		.space	3
 7197 02c8 0000003F 		.word	1056964608
 7198 02cc 9A99993E 		.word	1050253722
 7199 02d0 01       		.byte	1
 7200 02d1 000000   		.space	3
 7201 02d4 00000040 		.word	1073741824
 7202 02d8 295C8F3E 		.word	1049582633
 7203 02dc 01       		.byte	1
 7204 02dd 00       		.byte	0
 7205 02de 0000     		.space	2
 7206 02e0 00000040 		.word	1073741824
 7207 02e4 0000A040 		.word	1084227584
 7208 02e8 CDCC4C3E 		.word	1045220557
 7209 02ec CDCC4C3F 		.word	1061997773
 7210 02f0 8FC2F53C 		.word	1022739087
 7211 02f4 0000803F 		.word	1065353216
 7212 02f8 0000803F 		.word	1065353216
 7213 02fc CDCC4C3D 		.word	1028443341
 7214 0300 00000000 		.word	0
 7215 0304 00000041 		.word	1090519040
 7216 0308 0000F042 		.word	1123024896
 7217 030c 00000041 		.word	1090519040
 7218 0310 00000000 		.word	0
 7219 0314 00000000 		.word	0
 7220 0318 00000000 		.word	0
 7221 031c 00       		.byte	0
 7222 031d 000000   		.space	3
ARM GAS  /tmp/claude-502/ccaZRenT.s 			page 164


 7223 0320 00000000 		.word	0
 7224 0324 00000000 		.word	0
 7225 0328 01       		.byte	1
 7226 0329 000000   		.space	3
 7227 032c 00000000 		.word	_ZL11SCALE_MINOR
 7228 0330 07000000 		.word	7
 7229 0334 00000000 		.space	20
 7229      00000000 
 7229      00000000 
 7229      00000000 
 7229      00000000 
 7230 0348 30000000 		.word	.LC5
 7231 034c 0000B442 		.word	1119092736
 7232 0350 00003444 		.word	1144258560
 7233 0354 8C150540 		.word	1074075020
 7234 0358 0000803F 		.word	1065353216
 7235 035c 3D0AD73E 		.word	1054280253
 7236 0360 03       		.byte	3
 7237 0361 000000   		.space	3
 7238 0364 2506813F 		.word	1065420325
 7239 0368 5C8FC23E 		.word	1052938076
 7240 036c 03       		.byte	3
 7241 036d 000000   		.space	3
 7242 0370 0000003F 		.word	1056964608
 7243 0374 CDCC4C3E 		.word	1045220557
 7244 0378 03       		.byte	3
 7245 0379 000000   		.space	3
 7246 037c 00000040 		.word	1073741824
 7247 0380 9A99993E 		.word	1050253722
 7248 0384 03       		.byte	3
 7249 0385 00       		.byte	0
 7250 0386 0000     		.space	2
 7251 0388 00004040 		.word	1077936128
 7252 038c 00003041 		.word	1093664768
 7253 0390 6666663F 		.word	1063675494
 7254 0394 00008040 		.word	1082130432
 7255 0398 CDCC4C3D 		.word	1028443341
 7256 039c 0000803F 		.word	1065353216
 7257 03a0 00002040 		.word	1075838976
 7258 03a4 CDCCCC3E 		.word	1053609165
 7259 03a8 9A99993E 		.word	1050253722
 7260 03ac 00000040 		.word	1073741824
 7261 03b0 00004843 		.word	1128792064
 7262 03b4 00000C42 		.word	1108082688
 7263 03b8 00000000 		.space	56
 7263      00000000 
 7263      00000000 
 7263      00000000 
 7263      00000000 
 7264 03f0 38000000 		.word	.LC6
 7265 03f4 0000A042 		.word	1117782016
 7266 03f8 0000A043 		.word	1134559232
 7267 03fc F371B13F 		.word	1068593651
 7268 0400 0000803F 		.word	1065353216
 7269 0404 CDCCCC3E 		.word	1053609165
 7270 0408 03       		.byte	3
 7271 0409 000000   		.space	3
ARM GAS  /tmp/claude-502/ccaZRenT.s 			page 165


 7272 040c 9FC8BF3F 		.word	1069533343
 7273 0410 9A99993E 		.word	1050253722
 7274 0414 03       		.byte	3
 7275 0415 000000   		.space	3
 7276 0418 0000003F 		.word	1056964608
 7277 041c AE47613E 		.word	1046562734
 7278 0420 03       		.byte	3
 7279 0421 000000   		.space	3
 7280 0424 00000040 		.word	1073741824
 7281 0428 EC51383E 		.word	1043878380
 7282 042c 03       		.byte	3
 7283 042d 00       		.byte	0
 7284 042e 0000     		.space	2
 7285 0430 0000C03F 		.word	1069547520
 7286 0434 0000C040 		.word	1086324736
 7287 0438 3D0AD73E 		.word	1054280253
 7288 043c 66666640 		.word	1080452710
 7289 0440 8FC2F53C 		.word	1022739087
 7290 0444 0000803F 		.word	1065353216
 7291 0448 0000803F 		.word	1065353216
 7292 044c 8FC2F53D 		.word	1039516303
 7293 0450 9A99193E 		.word	1041865114
 7294 0454 00004040 		.word	1077936128
 7295 0458 00008C43 		.word	1133248512
 7296 045c 00000041 		.word	1090519040
 7297 0460 8FC2F53D 		.word	1039516303
 7298 0464 00009041 		.word	1099956224
 7299 0468 00000000 		.word	0
 7300 046c 00       		.byte	0
 7301 046d 000000   		.space	3
 7302 0470 00000000 		.word	0
 7303 0474 00000000 		.word	0
 7304 0478 01       		.byte	1
 7305 0479 000000   		.space	3
 7306 047c 00000000 		.word	_ZL11SCALE_MAJOR
 7307 0480 07000000 		.word	7
 7308 0484 00009644 		.word	1150681088
 7309 0488 00000000 		.word	0
 7310 048c 00000000 		.space	12
 7310      00000000 
 7310      00000000 
 7311 0498 40000000 		.word	.LC7
 7312 049c 00008C42 		.word	1116471296
 7313 04a0 00000C44 		.word	1141637120
 7314 04a4 8C150540 		.word	1074075020
 7315 04a8 0000803F 		.word	1065353216
 7316 04ac 0AD7A33E 		.word	1050924810
 7317 04b0 03       		.byte	3
 7318 04b1 000000   		.space	3
 7319 04b4 9CC4803F 		.word	1065403548
 7320 04b8 9A99993E 		.word	1050253722
 7321 04bc 03       		.byte	3
 7322 04bd 000000   		.space	3
 7323 04c0 0000003F 		.word	1056964608
 7324 04c4 AE47613E 		.word	1046562734
 7325 04c8 00       		.byte	0
 7326 04c9 000000   		.space	3
ARM GAS  /tmp/claude-502/ccaZRenT.s 			page 166


 7327 04cc 00000040 		.word	1073741824
 7328 04d0 EC51383E 		.word	1043878380
 7329 04d4 01       		.byte	1
 7330 04d5 00       		.byte	0
 7331 04d6 0000     		.space	2
 7332 04d8 9A99993F 		.word	1067030938
 7333 04dc 00004040 		.word	1077936128
 7334 04e0 CDCC4C3E 		.word	1045220557
 7335 04e4 9A99193F 		.word	1058642330
 7336 04e8 8FC2753C 		.word	1014350479
 7337 04ec 0000803F 		.word	1065353216
 7338 04f0 0000803F 		.word	1065353216
 7339 04f4 00000000 		.word	0
 7340 04f8 0AD7A33D 		.word	1034147594
 7341 04fc 00800945 		.word	1158250496
 7342 0500 0000FA44 		.word	1157234688
 7343 0504 0000A042 		.word	1117782016
 7344 0508 00000000 		.space	56
 7344      00000000 
 7344      00000000 
 7344      00000000 
 7344      00000000 
 7345 0540 44000000 		.word	.LC8
 7346 0544 00002042 		.word	1109393408
 7347 0548 0000C843 		.word	1137180672
 7348 054c A25D1340 		.word	1075010978
 7349 0550 0000803F 		.word	1065353216
 7350 0554 AE47613E 		.word	1046562734
 7351 0558 01       		.byte	1
 7352 0559 000000   		.space	3
 7353 055c CDCCCC3F 		.word	1070386381
 7354 0560 9A99193E 		.word	1041865114
 7355 0564 01       		.byte	1
 7356 0565 000000   		.space	3
 7357 0568 0000003F 		.word	1056964608
 7358 056c CDCCCC3D 		.word	1036831949
 7359 0570 01       		.byte	1
 7360 0571 000000   		.space	3
 7361 0574 00000040 		.word	1073741824
 7362 0578 00000000 		.word	0
 7363 057c 01       		.byte	1
 7364 057d 00       		.byte	0
 7365 057e 0000     		.space	2
 7366 0580 00004040 		.word	1077936128
 7367 0584 00004040 		.word	1077936128
 7368 0588 9A99993E 		.word	1050253722
 7369 058c 0000C03F 		.word	1069547520
 7370 0590 3333333F 		.word	1060320051
 7371 0594 9A99993E 		.word	1050253722
 7372 0598 0000803F 		.word	1065353216
 7373 059c 00000000 		.word	0
 7374 05a0 CDCCCC3D 		.word	1036831949
 7375 05a4 0000803F 		.word	1065353216
 7376 05a8 00001643 		.word	1125515264
 7377 05ac 0000A040 		.word	1084227584
 7378 05b0 0000803F 		.word	1065353216
 7379 05b4 0000A042 		.word	1117782016
ARM GAS  /tmp/claude-502/ccaZRenT.s 			page 167


 7380 05b8 00000000 		.word	0
 7381 05bc 01       		.byte	1
 7382 05bd 000000   		.space	3
 7383 05c0 9A99593F 		.word	1062836634
 7384 05c4 0000C843 		.word	1137180672
 7385 05c8 00000000 		.space	32
 7385      00000000 
 7385      00000000 
 7385      00000000 
 7385      00000000 
 7386 05e8 48000000 		.word	.LC9
 7387 05ec 0000F041 		.word	1106247680
 7388 05f0 0000A042 		.word	1117782016
 7389 05f4 AD177B3F 		.word	1065031597
 7390 05f8 0000803F 		.word	1065353216
 7391 05fc CDCC0C3F 		.word	1057803469
 7392 0600 01       		.byte	1
 7393 0601 000000   		.space	3
 7394 0604 00000040 		.word	1073741824
 7395 0608 CDCCCC3D 		.word	1036831949
 7396 060c 01       		.byte	1
 7397 060d 000000   		.space	3
 7398 0610 0000003F 		.word	1056964608
 7399 0614 9A99193E 		.word	1041865114
 7400 0618 01       		.byte	1
 7401 0619 000000   		.space	3
 7402 061c 00000040 		.word	1073741824
 7403 0620 00000000 		.word	0
 7404 0624 01       		.byte	1
 7405 0625 00       		.byte	0
 7406 0626 0000     		.space	2
 7407 0628 00004040 		.word	1077936128
 7408 062c 00000040 		.word	1073741824
 7409 0630 CDCC4C3E 		.word	1045220557
 7410 0634 6666E63F 		.word	1072064102
 7411 0638 0AD7A33D 		.word	1034147594
 7412 063c 0000003F 		.word	1056964608
 7413 0640 0000803F 		.word	1065353216
 7414 0644 00000000 		.word	0
 7415 0648 00000000 		.word	0
 7416 064c 0000803F 		.word	1065353216
 7417 0650 00002043 		.word	1126170624
 7418 0654 0000A040 		.word	1084227584
 7419 0658 00000040 		.word	1073741824
 7420 065c 00003442 		.word	1110704128
 7421 0660 00000000 		.word	0
 7422 0664 01       		.byte	1
 7423 0665 000000   		.space	3
 7424 0668 9A99593F 		.word	1062836634
 7425 066c 0000C843 		.word	1137180672
 7426 0670 00000000 		.space	32
 7426      00000000 
 7426      00000000 
 7426      00000000 
 7426      00000000 
 7427 0690 50000000 		.word	.LC10
 7428 0694 00001643 		.word	1125515264
ARM GAS  /tmp/claude-502/ccaZRenT.s 			page 168


 7429 0698 0000FA43 		.word	1140457472
 7430 069c B01B9A3F 		.word	1067064240
 7431 06a0 0000803F 		.word	1065353216
 7432 06a4 9A99193E 		.word	1041865114
 7433 06a8 01       		.byte	1
 7434 06a9 000000   		.space	3
 7435 06ac 6666E63F 		.word	1072064102
 7436 06b0 8FC2F53D 		.word	1039516303
 7437 06b4 00       		.byte	0
 7438 06b5 000000   		.space	3
 7439 06b8 0000003F 		.word	1056964608
 7440 06bc CDCC4C3D 		.word	1028443341
 7441 06c0 01       		.byte	1
 7442 06c1 000000   		.space	3
 7443 06c4 00000040 		.word	1073741824
 7444 06c8 00000000 		.word	0
 7445 06cc 01       		.byte	1
 7446 06cd 00       		.byte	0
 7447 06ce 0000     		.space	2
 7448 06d0 00009041 		.word	1099956224
 7449 06d4 00008040 		.word	1082130432
 7450 06d8 9A99993E 		.word	1050253722
 7451 06dc 0000C03F 		.word	1069547520
 7452 06e0 EC51383F 		.word	1060655596
 7453 06e4 9A99993E 		.word	1050253722
 7454 06e8 0000803F 		.word	1065353216
 7455 06ec 00000000 		.word	0
 7456 06f0 CDCCCC3D 		.word	1036831949
 7457 06f4 0000803F 		.word	1065353216
 7458 06f8 00000C43 		.word	1124859904
 7459 06fc 0000A040 		.word	1084227584
 7460 0700 3333333F 		.word	1060320051
 7461 0704 0000F041 		.word	1106247680
 7462 0708 00000000 		.word	0
 7463 070c 01       		.byte	1
 7464 070d 000000   		.space	3
 7465 0710 9A99593F 		.word	1062836634
 7466 0714 0000C843 		.word	1137180672
 7467 0718 00000000 		.space	32
 7467      00000000 
 7467      00000000 
 7467      00000000 
 7467      00000000 
 7468 0738 58000000 		.word	.LC11
 7469 073c 00007A45 		.word	1165623296
 7470 0740 00E02B46 		.word	1177280512
 7471 0744 1C7C813F 		.word	1065450524
 7472 0748 0000803F 		.word	1065353216
 7473 074c CDCCCC3D 		.word	1036831949
 7474 0750 02       		.byte	2
 7475 0751 000000   		.space	3
 7476 0754 3D0AD73F 		.word	1071057469
 7477 0758 0AD7A33D 		.word	1034147594
 7478 075c 02       		.byte	2
 7479 075d 000000   		.space	3
 7480 0760 0000003F 		.word	1056964608
 7481 0764 00000000 		.word	0
ARM GAS  /tmp/claude-502/ccaZRenT.s 			page 169


 7482 0768 01       		.byte	1
 7483 0769 000000   		.space	3
 7484 076c 00000040 		.word	1073741824
 7485 0770 8FC2753D 		.word	1031127695
 7486 0774 02       		.byte	2
 7487 0775 00       		.byte	0
 7488 0776 0000     		.space	2
 7489 0778 0000C841 		.word	1103626240
 7490 077c 00000040 		.word	1073741824
 7491 0780 CDCC4C3E 		.word	1045220557
 7492 0784 9A99993F 		.word	1067030938
 7493 0788 CDCC4C3F 		.word	1061997773
 7494 078c CDCC4C3E 		.word	1045220557
 7495 0790 0000803F 		.word	1065353216
 7496 0794 00000000 		.word	0
 7497 0798 CDCC4C3D 		.word	1028443341
 7498 079c 0000803F 		.word	1065353216
 7499 07a0 00002043 		.word	1126170624
 7500 07a4 00004040 		.word	1077936128
 7501 07a8 00000000 		.word	0
 7502 07ac 00000000 		.word	0
 7503 07b0 0000803F 		.word	1065353216
 7504 07b4 01       		.byte	1
 7505 07b5 000000   		.space	3
 7506 07b8 9A99593F 		.word	1062836634
 7507 07bc 0000C843 		.word	1137180672
 7508 07c0 00000000 		.space	32
 7508      00000000 
 7508      00000000 
 7508      00000000 
 7508      00000000 
 7509 07e0 60000000 		.word	.LC12
 7510 07e4 00002042 		.word	1109393408
 7511 07e8 0000C843 		.word	1137180672
 7512 07ec A25D1340 		.word	1075010978
 7513 07f0 0000803F 		.word	1065353216
 7514 07f4 3D0AD73E 		.word	1054280253
 7515 07f8 03       		.byte	3
 7516 07f9 000000   		.space	3
 7517 07fc 0000803F 		.word	1065353216
 7518 0800 295C8F3E 		.word	1049582633
 7519 0804 02       		.byte	2
 7520 0805 000000   		.space	3
 7521 0808 0000003F 		.word	1056964608
 7522 080c CDCCCC3E 		.word	1053609165
 7523 0810 02       		.byte	2
 7524 0811 000000   		.space	3
 7525 0814 00000040 		.word	1073741824
 7526 0818 00000000 		.word	0
 7527 081c 02       		.byte	2
 7528 081d 00       		.byte	0
 7529 081e 0000     		.space	2
 7530 0820 CDCC4C3F 		.word	1061997773
 7531 0824 00001041 		.word	1091567616
 7532 0828 CDCC4C3F 		.word	1061997773
 7533 082c 6666E63F 		.word	1072064102
 7534 0830 0AD7A33C 		.word	1017370378
ARM GAS  /tmp/claude-502/ccaZRenT.s 			page 170


 7535 0834 0000803F 		.word	1065353216
 7536 0838 0000803F 		.word	1065353216
 7537 083c CDCCCC3D 		.word	1036831949
 7538 0840 8FC2F53D 		.word	1039516303
 7539 0844 00000040 		.word	1073741824
 7540 0848 00005C43 		.word	1130102784
 7541 084c 0000F041 		.word	1106247680
 7542 0850 00000000 		.word	0
 7543 0854 00000000 		.word	0
 7544 0858 00000000 		.word	0
 7545 085c 00       		.byte	0
 7546 085d 000000   		.space	3
 7547 0860 00000000 		.word	0
 7548 0864 00000000 		.word	0
 7549 0868 01       		.byte	1
 7550 0869 000000   		.space	3
 7551 086c 00000000 		.word	_ZL11SCALE_MINOR
 7552 0870 07000000 		.word	7
 7553 0874 00000000 		.word	0
 7554 0878 00000000 		.word	0
 7555 087c 01       		.byte	1
 7556 087d 000000   		.space	3
 7557 0880 6666663F 		.word	1063675494
 7558 0884 01000000 		.word	1
 7559 0888 6C000000 		.word	.LC13
 7560 088c 00002042 		.word	1109393408
 7561 0890 0000C843 		.word	1137180672
 7562 0894 A25D1340 		.word	1075010978
 7563 0898 0000803F 		.word	1065353216
 7564 089c 3D0AD73E 		.word	1054280253
 7565 08a0 03       		.byte	3
 7566 08a1 000000   		.space	3
 7567 08a4 0000803F 		.word	1065353216
 7568 08a8 295C8F3E 		.word	1049582633
 7569 08ac 02       		.byte	2
 7570 08ad 000000   		.space	3
 7571 08b0 0000003F 		.word	1056964608
 7572 08b4 CDCCCC3E 		.word	1053609165
 7573 08b8 02       		.byte	2
 7574 08b9 000000   		.space	3
 7575 08bc 00000040 		.word	1073741824
 7576 08c0 00000000 		.word	0
 7577 08c4 02       		.byte	2
 7578 08c5 00       		.byte	0
 7579 08c6 0000     		.space	2
 7580 08c8 CDCC4C3F 		.word	1061997773
 7581 08cc 00001041 		.word	1091567616
 7582 08d0 CDCC4C3F 		.word	1061997773
 7583 08d4 6666E63F 		.word	1072064102
 7584 08d8 0AD7A33C 		.word	1017370378
 7585 08dc 0000803F 		.word	1065353216
 7586 08e0 0000803F 		.word	1065353216
 7587 08e4 CDCCCC3D 		.word	1036831949
 7588 08e8 8FC2F53D 		.word	1039516303
 7589 08ec 00000040 		.word	1073741824
 7590 08f0 00005C43 		.word	1130102784
 7591 08f4 0000F041 		.word	1106247680
ARM GAS  /tmp/claude-502/ccaZRenT.s 			page 171


 7592 08f8 00000000 		.word	0
 7593 08fc 00000000 		.word	0
 7594 0900 00000000 		.word	0
 7595 0904 00       		.byte	0
 7596 0905 000000   		.space	3
 7597 0908 00000000 		.word	0
 7598 090c 00000000 		.word	0
 7599 0910 01       		.byte	1
 7600 0911 000000   		.space	3
 7601 0914 00000000 		.word	_ZL11SCALE_MAJOR
 7602 0918 07000000 		.word	7
 7603 091c 00000000 		.word	0
 7604 0920 00000000 		.word	0
 7605 0924 01       		.byte	1
 7606 0925 000000   		.space	3
 7607 0928 6666663F 		.word	1063675494
 7608 092c 01000000 		.word	1
 7609 0930 78000000 		.word	.LC14
 7610 0934 0000F041 		.word	1106247680
 7611 0938 0000A042 		.word	1117782016
 7612 093c AD177B3F 		.word	1065031597
 7613 0940 0000803F 		.word	1065353216
 7614 0944 CDCC0C3F 		.word	1057803469
 7615 0948 01       		.byte	1
 7616 0949 000000   		.space	3
 7617 094c 0000803F 		.word	1065353216
 7618 0950 00000000 		.word	0
 7619 0954 01       		.byte	1
 7620 0955 000000   		.space	3
 7621 0958 0000003F 		.word	1056964608
 7622 095c 00000000 		.word	0
 7623 0960 01       		.byte	1
 7624 0961 000000   		.space	3
 7625 0964 00000040 		.word	1073741824
 7626 0968 00000000 		.word	0
 7627 096c 01       		.byte	1
 7628 096d 00       		.byte	0
 7629 096e 0000     		.space	2
 7630 0970 00004040 		.word	1077936128
 7631 0974 00000040 		.word	1073741824
 7632 0978 CDCC4C3E 		.word	1045220557
 7633 097c 0000803F 		.word	1065353216
 7634 0980 00000000 		.word	0
 7635 0984 0000003F 		.word	1056964608
 7636 0988 0000803F 		.word	1065353216
 7637 098c 00000000 		.word	0
 7638 0990 00000000 		.word	0
 7639 0994 0000803F 		.word	1065353216
 7640 0998 00002043 		.word	1126170624
 7641 099c 0000A040 		.word	1084227584
 7642 09a0 00000000 		.word	0
 7643 09a4 00000000 		.word	0
 7644 09a8 00000000 		.word	0
 7645 09ac 00000000 		.space	44
 7645      00000000 
 7645      00000000 
 7645      00000000 
ARM GAS  /tmp/claude-502/ccaZRenT.s 			page 172


 7645      00000000 
 7646              		.text
 7647              	.Letext0:
 7648              		.file 3 "/Library/DaisyToolchain/0.2.0/arm/arm-none-eabi/include/machine/_default_types.h"
 7649              		.file 4 "/Library/DaisyToolchain/0.2.0/arm/arm-none-eabi/include/sys/_stdint.h"
 7650              		.file 5 "/Library/DaisyToolchain/0.2.0/arm/arm-none-eabi/include/stdint.h"
 7651              		.file 6 "/Library/DaisyToolchain/0.2.0/arm/lib/gcc/arm-none-eabi/10.3.1/include/stddef.h"
 7652              		.file 7 "/Library/DaisyToolchain/0.2.0/arm/arm-none-eabi/include/c++/10.3.1/cmath"
 7653              		.file 8 "/Library/DaisyToolchain/0.2.0/arm/arm-none-eabi/include/c++/10.3.1/bits/std_abs.h"
 7654              		.file 9 "/Library/DaisyToolchain/0.2.0/arm/arm-none-eabi/include/c++/10.3.1/cstdlib"
 7655              		.file 10 "/Library/DaisyToolchain/0.2.0/arm/arm-none-eabi/include/c++/10.3.1/cstdint"
 7656              		.file 11 "/Library/DaisyToolchain/0.2.0/arm/arm-none-eabi/include/c++/10.3.1/type_traits"
 7657              		.file 12 "/Library/DaisyToolchain/0.2.0/arm/arm-none-eabi/include/c++/10.3.1/debug/debug.h"
 7658              		.file 13 "/Library/DaisyToolchain/0.2.0/arm/arm-none-eabi/include/c++/10.3.1/arm-none-eabi/thumb/v
 7659              		.file 14 "/Library/DaisyToolchain/0.2.0/arm/arm-none-eabi/include/c++/10.3.1/bits/algorithmfwd.h"
 7660              		.file 15 "/Library/DaisyToolchain/0.2.0/arm/arm-none-eabi/include/c++/10.3.1/bits/stl_pair.h"
 7661              		.file 16 "/Library/DaisyToolchain/0.2.0/arm/arm-none-eabi/include/c++/10.3.1/bits/exception_ptr.h"
 7662              		.file 17 "/Library/DaisyToolchain/0.2.0/arm/arm-none-eabi/include/c++/10.3.1/cstdarg"
 7663              		.file 18 "/Library/DaisyToolchain/0.2.0/arm/arm-none-eabi/include/c++/10.3.1/cstdio"
 7664              		.file 19 "/Library/DaisyToolchain/0.2.0/arm/arm-none-eabi/include/c++/10.3.1/cstring"
 7665              		.file 20 "/Library/DaisyToolchain/0.2.0/arm/arm-none-eabi/include/c++/10.3.1/bits/predefined_ops.h
 7666              		.file 21 "/Library/DaisyToolchain/0.2.0/arm/arm-none-eabi/include/sys/_types.h"
 7667              		.file 22 "/Library/DaisyToolchain/0.2.0/arm/arm-none-eabi/include/sys/reent.h"
 7668              		.file 23 "/Library/DaisyToolchain/0.2.0/arm/arm-none-eabi/include/sys/lock.h"
 7669              		.file 24 "/Library/DaisyToolchain/0.2.0/arm/arm-none-eabi/include/math.h"
 7670              		.file 25 "/Library/DaisyToolchain/0.2.0/arm/arm-none-eabi/include/stdlib.h"
 7671              		.file 26 "/Library/DaisyToolchain/0.2.0/arm/arm-none-eabi/include/c++/10.3.1/math.h"
 7672              		.file 27 "/Library/DaisyToolchain/0.2.0/arm/arm-none-eabi/include/c++/10.3.1/stdlib.h"
 7673              		.file 28 "/Users/reza.kalfane/Workspaces/Daisy/DaisyExamples/libDaisy/src/daisy_core.h"
 7674              		.file 29 "/Users/reza.kalfane/Workspaces/Daisy/DaisyExamples/libDaisy/src/per/tim.h"
 7675              		.file 30 "/Users/reza.kalfane/Workspaces/Daisy/DaisyExamples/libDaisy/src/sys/system.h"
 7676              		.file 31 "/Users/reza.kalfane/Workspaces/Daisy/DaisyExamples/libDaisy/src/per/qspi.h"
 7677              		.file 32 "/Users/reza.kalfane/Workspaces/Daisy/DaisyExamples/libDaisy/src/per/dac.h"
 7678              		.file 33 "/Users/reza.kalfane/Workspaces/Daisy/DaisyExamples/libDaisy/src/per/gpio.h"
 7679              		.file 34 "/Users/reza.kalfane/Workspaces/Daisy/DaisyExamples/libDaisy/src/per/sai.h"
 7680              		.file 35 "/Users/reza.kalfane/Workspaces/Daisy/DaisyExamples/libDaisy/src/hid/audio.h"
 7681              		.file 36 "/Users/reza.kalfane/Workspaces/Daisy/DaisyExamples/libDaisy/src/per/adc.h"
 7682              		.file 37 "/Users/reza.kalfane/Workspaces/Daisy/DaisyExamples/libDaisy/src/hid/usb.h"
 7683              		.file 38 "/Users/reza.kalfane/Workspaces/Daisy/DaisyExamples/libDaisy/src/util/wav_format.h"
 7684              		.file 39 "/Users/reza.kalfane/Workspaces/Daisy/DaisyExamples/libDaisy/src/dev/max11300.h"
 7685              		.file 40 "/Users/reza.kalfane/Workspaces/Daisy/DaisyExamples/libDaisy/src/daisy_seed.h"
 7686              		.file 41 "/Users/reza.kalfane/Workspaces/Daisy/DaisyExamples/libDaisy/src/dev/sdram.h"
 7687              		.file 42 "/Library/DaisyToolchain/0.2.0/arm/lib/gcc/arm-none-eabi/10.3.1/include/stdarg.h"
 7688              		.file 43 "/Library/DaisyToolchain/0.2.0/arm/arm-none-eabi/include/stdio.h"
 7689              		.file 44 "/Library/DaisyToolchain/0.2.0/arm/arm-none-eabi/include/string.h"
 7690              		.file 45 "src/voice.h"
 7691              		.file 46 "/Users/reza.kalfane/Workspaces/Daisy/DaisyExamples/libDaisy/src/dev/sr_595.h"
 7692              		.file 47 "src/touch.h"
 7693              		.file 48 "src/engine.h"
 7694              		.file 49 "<built-in>"
ARM GAS  /tmp/claude-502/ccaZRenT.s 			page 173


DEFINED SYMBOLS
                            *ABS*:0000000000000000 engine.cpp
/tmp/claude-502/ccaZRenT.s:19     .text._Z12drum_triggerR7DrumHitifffff:0000000000000000 $t
/tmp/claude-502/ccaZRenT.s:26     .text._Z12drum_triggerR7DrumHitifffff:0000000000000000 _Z12drum_triggerR7DrumHitifffff
/tmp/claude-502/ccaZRenT.s:321    .text._Z12drum_triggerR7DrumHitifffff:0000000000000144 $d
/tmp/claude-502/ccaZRenT.s:331    .text._Z13AudioCallbackPKPKfPPfj:0000000000000000 $t
/tmp/claude-502/ccaZRenT.s:338    .text._Z13AudioCallbackPKPKfPPfj:0000000000000000 _Z13AudioCallbackPKPKfPPfj
/tmp/claude-502/ccaZRenT.s:859    .text._Z13AudioCallbackPKPKfPPfj:000000000000023c $d
/tmp/claude-502/ccaZRenT.s:897    .text._Z13AudioCallbackPKPKfPPfj:00000000000002c4 $t
/tmp/claude-502/ccaZRenT.s:1084   .text._Z13AudioCallbackPKPKfPPfj:00000000000003e4 $d
/tmp/claude-502/ccaZRenT.s:1114   .text._Z13AudioCallbackPKPKfPPfj:0000000000000438 $t
/tmp/claude-502/ccaZRenT.s:1882   .text._Z13AudioCallbackPKPKfPPfj:0000000000000784 $d
/tmp/claude-502/ccaZRenT.s:1900   .text._Z13AudioCallbackPKPKfPPfj:00000000000007c0 $t
/tmp/claude-502/ccaZRenT.s:2794   .text._Z13AudioCallbackPKPKfPPfj:0000000000000c54 $d
/tmp/claude-502/ccaZRenT.s:2804   .text._Z13AudioCallbackPKPKfPPfj:0000000000000c6c $t
/tmp/claude-502/ccaZRenT.s:3493   .text._Z13AudioCallbackPKPKfPPfj:0000000000001010 $d
/tmp/claude-502/ccaZRenT.s:3529   .text._Z13AudioCallbackPKPKfPPfj:0000000000001084 $t
/tmp/claude-502/ccaZRenT.s:4685   .text._Z13AudioCallbackPKPKfPPfj:000000000000152c $d
/tmp/claude-502/ccaZRenT.s:4710   .text._Z13AudioCallbackPKPKfPPfj:000000000000155c $t
/tmp/claude-502/ccaZRenT.s:6469   .text._Z13AudioCallbackPKPKfPPfj:0000000000001cdc $d
/tmp/claude-502/ccaZRenT.s:6481   .text._Z13AudioCallbackPKPKfPPfj:0000000000001d00 $t
/tmp/claude-502/ccaZRenT.s:6528   .text._Z13AudioCallbackPKPKfPPfj:0000000000001d38 $d
/tmp/claude-502/ccaZRenT.s:6918   .data.g_hits:0000000000000000 g_hits
/tmp/claude-502/ccaZRenT.s:6911   .data.g_chord_ratio3:0000000000000000 g_chord_ratio3
/tmp/claude-502/ccaZRenT.s:6904   .data.g_chord_ratio2:0000000000000000 g_chord_ratio2
/tmp/claude-502/ccaZRenT.s:7008   .data.g_master_vol:0000000000000000 g_master_vol
/tmp/claude-502/ccaZRenT.s:6814   .bss.g_led3_duty:0000000000000000 g_led3_duty
/tmp/claude-502/ccaZRenT.s:6820   .bss.g_retrig:0000000000000000 g_retrig
/tmp/claude-502/ccaZRenT.s:6795   .bss.g_amp_target:0000000000000000 g_amp_target
/tmp/claude-502/ccaZRenT.s:6807   .bss.g_finger_on:0000000000000000 g_finger_on
/tmp/claude-502/ccaZRenT.s:6827   .bss.g_ringmod:0000000000000000 g_ringmod
/tmp/claude-502/ccaZRenT.s:6802   .bss.g_bitcrush:0000000000000000 g_bitcrush
/tmp/claude-502/ccaZRenT.s:6841   .bss.g_vibrato_depth:0000000000000000 g_vibrato_depth
/tmp/claude-502/ccaZRenT.s:7022   .data.g_target_drive:0000000000000000 g_target_drive
/tmp/claude-502/ccaZRenT.s:6834   .bss.g_target_detune:0000000000000000 g_target_detune
/tmp/claude-502/ccaZRenT.s:7015   .data.g_target_cutoff:0000000000000000 g_target_cutoff
/tmp/claude-502/ccaZRenT.s:7029   .data.g_target_freq:0000000000000000 g_target_freq
/tmp/claude-502/ccaZRenT.s:6550   .rodata.str1.4:0000000000000000 $d
/tmp/claude-502/ccaZRenT.s:6596   .bss._ZL10s_bitcrush:0000000000000000 $d
/tmp/claude-502/ccaZRenT.s:6600   .bss._ZL10s_bitcrush:0000000000000000 _ZL10s_bitcrush
/tmp/claude-502/ccaZRenT.s:6603   .bss._ZL10s_noise_lp:0000000000000000 $d
/tmp/claude-502/ccaZRenT.s:6607   .bss._ZL10s_noise_lp:0000000000000000 _ZL10s_noise_lp
/tmp/claude-502/ccaZRenT.s:6610   .bss._ZL10s_phase_rm:0000000000000000 $d
/tmp/claude-502/ccaZRenT.s:6614   .bss._ZL10s_phase_rm:0000000000000000 _ZL10s_phase_rm
/tmp/claude-502/ccaZRenT.s:6617   .bss._ZL10s_vibdepth:0000000000000000 $d
/tmp/claude-502/ccaZRenT.s:6621   .bss._ZL10s_vibdepth:0000000000000000 _ZL10s_vibdepth
/tmp/claude-502/ccaZRenT.s:6624   .bss._ZL11s_lfo_phase:0000000000000000 $d
/tmp/claude-502/ccaZRenT.s:6628   .bss._ZL11s_lfo_phase:0000000000000000 _ZL11s_lfo_phase
/tmp/claude-502/ccaZRenT.s:6631   .bss._ZL11s_phase_oct:0000000000000000 $d
/tmp/claude-502/ccaZRenT.s:6635   .bss._ZL11s_phase_oct:0000000000000000 _ZL11s_phase_oct
/tmp/claude-502/ccaZRenT.s:6638   .bss._ZL11s_phase_sub:0000000000000000 $d
/tmp/claude-502/ccaZRenT.s:6642   .bss._ZL11s_phase_sub:0000000000000000 _ZL11s_phase_sub
/tmp/claude-502/ccaZRenT.s:6645   .bss._ZL5s_amp:0000000000000000 $d
/tmp/claude-502/ccaZRenT.s:6649   .bss._ZL5s_amp:0000000000000000 _ZL5s_amp
/tmp/claude-502/ccaZRenT.s:6652   .bss._ZL5s_flt:0000000000000000 $d
/tmp/claude-502/ccaZRenT.s:6656   .bss._ZL5s_flt:0000000000000000 _ZL5s_flt
/tmp/claude-502/ccaZRenT.s:6659   .bss._ZL8s_detune:0000000000000000 $d
ARM GAS  /tmp/claude-502/ccaZRenT.s 			page 174


/tmp/claude-502/ccaZRenT.s:6663   .bss._ZL8s_detune:0000000000000000 _ZL8s_detune
/tmp/claude-502/ccaZRenT.s:6666   .bss._ZL8s_phase1:0000000000000000 $d
/tmp/claude-502/ccaZRenT.s:6670   .bss._ZL8s_phase1:0000000000000000 _ZL8s_phase1
/tmp/claude-502/ccaZRenT.s:6673   .bss._ZL8s_phase2:0000000000000000 $d
/tmp/claude-502/ccaZRenT.s:6677   .bss._ZL8s_phase2:0000000000000000 _ZL8s_phase2
/tmp/claude-502/ccaZRenT.s:6680   .bss._ZL9s_phase1b:0000000000000000 $d
/tmp/claude-502/ccaZRenT.s:6684   .bss._ZL9s_phase1b:0000000000000000 _ZL9s_phase1b
/tmp/claude-502/ccaZRenT.s:6687   .bss._ZL9s_phase1c:0000000000000000 $d
/tmp/claude-502/ccaZRenT.s:6691   .bss._ZL9s_phase1c:0000000000000000 _ZL9s_phase1c
/tmp/claude-502/ccaZRenT.s:6694   .bss._ZL9s_phase2b:0000000000000000 $d
/tmp/claude-502/ccaZRenT.s:6698   .bss._ZL9s_phase2b:0000000000000000 _ZL9s_phase2b
/tmp/claude-502/ccaZRenT.s:6701   .bss._ZL9s_phase2c:0000000000000000 $d
/tmp/claude-502/ccaZRenT.s:6705   .bss._ZL9s_phase2c:0000000000000000 _ZL9s_phase2c
/tmp/claude-502/ccaZRenT.s:6708   .bss._ZL9s_ringmod:0000000000000000 $d
/tmp/claude-502/ccaZRenT.s:6712   .bss._ZL9s_ringmod:0000000000000000 _ZL9s_ringmod
/tmp/claude-502/ccaZRenT.s:6718   .bss._ZZ13AudioCallbackPKPKfPPfjE10led3_state:0000000000000000 _ZZ13AudioCallbackPKPKfPPfjE10led3_state
/tmp/claude-502/ccaZRenT.s:6719   .bss._ZZ13AudioCallbackPKPKfPPfjE10led3_state:0000000000000000 $d
/tmp/claude-502/ccaZRenT.s:6721   .bss._ZZ13AudioCallbackPKPKfPPfjE11pwm_counter:0000000000000000 $d
/tmp/claude-502/ccaZRenT.s:6725   .bss._ZZ13AudioCallbackPKPKfPPfjE11pwm_counter:0000000000000000 _ZZ13AudioCallbackPKPKfPPfjE11pwm_counter
/tmp/claude-502/ccaZRenT.s:6728   .bss._ZZ13AudioCallbackPKPKfPPfjE11s_prev_tamp:0000000000000000 $d
/tmp/claude-502/ccaZRenT.s:6732   .bss._ZZ13AudioCallbackPKPKfPPfjE11s_prev_tamp:0000000000000000 _ZZ13AudioCallbackPKPKfPPfjE11s_prev_tamp
/tmp/claude-502/ccaZRenT.s:6735   .bss._ZZ13AudioCallbackPKPKfPPfjE12s_penv_start:0000000000000000 $d
/tmp/claude-502/ccaZRenT.s:6739   .bss._ZZ13AudioCallbackPKPKfPPfjE12s_penv_start:0000000000000000 _ZZ13AudioCallbackPKPKfPPfjE12s_penv_start
/tmp/claude-502/ccaZRenT.s:6742   .bss._ZZ13AudioCallbackPKPKfPPfjE16led3_duty_smooth:0000000000000000 $d
/tmp/claude-502/ccaZRenT.s:6746   .bss._ZZ13AudioCallbackPKPKfPPfjE16led3_duty_smooth:0000000000000000 _ZZ13AudioCallbackPKPKfPPfjE16led3_duty_smooth
/tmp/claude-502/ccaZRenT.s:6749   .bss._ZZ13AudioCallbackPKPKfPPfjE7s_atk_c:0000000000000000 $d
/tmp/claude-502/ccaZRenT.s:6753   .bss._ZZ13AudioCallbackPKPKfPPfjE7s_atk_c:0000000000000000 _ZZ13AudioCallbackPKPKfPPfjE7s_atk_c
/tmp/claude-502/ccaZRenT.s:6756   .bss._ZZ13AudioCallbackPKPKfPPfjE7s_rel_c:0000000000000000 $d
/tmp/claude-502/ccaZRenT.s:6760   .bss._ZZ13AudioCallbackPKPKfPPfjE7s_rel_c:0000000000000000 _ZZ13AudioCallbackPKPKfPPfjE7s_rel_c
/tmp/claude-502/ccaZRenT.s:6763   .bss._ZZ13AudioCallbackPKPKfPPfjE8s_penv_c:0000000000000000 $d
/tmp/claude-502/ccaZRenT.s:6767   .bss._ZZ13AudioCallbackPKPKfPPfjE8s_penv_c:0000000000000000 _ZZ13AudioCallbackPKPKfPPfjE8s_penv_c
/tmp/claude-502/ccaZRenT.s:6770   .bss._ZZ13AudioCallbackPKPKfPPfjE9s_decay_c:0000000000000000 $d
/tmp/claude-502/ccaZRenT.s:6774   .bss._ZZ13AudioCallbackPKPKfPPfjE9s_decay_c:0000000000000000 _ZZ13AudioCallbackPKPKfPPfjE9s_decay_c
/tmp/claude-502/ccaZRenT.s:6777   .bss._ZZ13AudioCallbackPKPKfPPfjE9s_glide_c:0000000000000000 $d
/tmp/claude-502/ccaZRenT.s:6781   .bss._ZZ13AudioCallbackPKPKfPPfjE9s_glide_c:0000000000000000 _ZZ13AudioCallbackPKPKfPPfjE9s_glide_c
/tmp/claude-502/ccaZRenT.s:6784   .bss._ZZ13AudioCallbackPKPKfPPfjE9s_sustain:0000000000000000 $d
/tmp/claude-502/ccaZRenT.s:6788   .bss._ZZ13AudioCallbackPKPKfPPfjE9s_sustain:0000000000000000 _ZZ13AudioCallbackPKPKfPPfjE9s_sustain
/tmp/claude-502/ccaZRenT.s:6791   .bss.g_amp_target:0000000000000000 $d
/tmp/claude-502/ccaZRenT.s:6798   .bss.g_bitcrush:0000000000000000 $d
/tmp/claude-502/ccaZRenT.s:6808   .bss.g_finger_on:0000000000000000 $d
/tmp/claude-502/ccaZRenT.s:6810   .bss.g_led3_duty:0000000000000000 $d
/tmp/claude-502/ccaZRenT.s:6821   .bss.g_retrig:0000000000000000 $d
/tmp/claude-502/ccaZRenT.s:6823   .bss.g_ringmod:0000000000000000 $d
/tmp/claude-502/ccaZRenT.s:6830   .bss.g_target_detune:0000000000000000 $d
/tmp/claude-502/ccaZRenT.s:6837   .bss.g_vibrato_depth:0000000000000000 $d
/tmp/claude-502/ccaZRenT.s:6844   .data._ZL11s_noise_rng:0000000000000000 $d
/tmp/claude-502/ccaZRenT.s:6848   .data._ZL11s_noise_rng:0000000000000000 _ZL11s_noise_rng
/tmp/claude-502/ccaZRenT.s:6851   .data._ZL12s_master_vol:0000000000000000 $d
/tmp/claude-502/ccaZRenT.s:6855   .data._ZL12s_master_vol:0000000000000000 _ZL12s_master_vol
/tmp/claude-502/ccaZRenT.s:6858   .data._ZL6s_freq:0000000000000000 $d
/tmp/claude-502/ccaZRenT.s:6862   .data._ZL6s_freq:0000000000000000 _ZL6s_freq
/tmp/claude-502/ccaZRenT.s:6865   .data._ZL7s_drive:0000000000000000 $d
/tmp/claude-502/ccaZRenT.s:6869   .data._ZL7s_drive:0000000000000000 _ZL7s_drive
/tmp/claude-502/ccaZRenT.s:6872   .data._ZL8s_cutoff:0000000000000000 $d
/tmp/claude-502/ccaZRenT.s:6876   .data._ZL8s_cutoff:0000000000000000 _ZL8s_cutoff
/tmp/claude-502/ccaZRenT.s:6879   .data._ZZ13AudioCallbackPKPKfPPfjE10s_coeff_vi:0000000000000000 $d
/tmp/claude-502/ccaZRenT.s:6883   .data._ZZ13AudioCallbackPKPKfPPfjE10s_coeff_vi:0000000000000000 _ZZ13AudioCallbackPKPKfPPfjE10s_coeff_vi
ARM GAS  /tmp/claude-502/ccaZRenT.s 			page 175


/tmp/claude-502/ccaZRenT.s:6886   .data._ZZ13AudioCallbackPKPKfPPfjE7s_decay:0000000000000000 $d
/tmp/claude-502/ccaZRenT.s:6890   .data._ZZ13AudioCallbackPKPKfPPfjE7s_decay:0000000000000000 _ZZ13AudioCallbackPKPKfPPfjE7s_decay
/tmp/claude-502/ccaZRenT.s:6893   .data._ZZ13AudioCallbackPKPKfPPfjE7s_pmult:0000000000000000 $d
/tmp/claude-502/ccaZRenT.s:6897   .data._ZZ13AudioCallbackPKPKfPPfjE7s_pmult:0000000000000000 _ZZ13AudioCallbackPKPKfPPfjE7s_pmult
/tmp/claude-502/ccaZRenT.s:6900   .data.g_chord_ratio2:0000000000000000 $d
/tmp/claude-502/ccaZRenT.s:6907   .data.g_chord_ratio3:0000000000000000 $d
/tmp/claude-502/ccaZRenT.s:6914   .data.g_hits:0000000000000000 $d
/tmp/claude-502/ccaZRenT.s:7004   .data.g_master_vol:0000000000000000 $d
/tmp/claude-502/ccaZRenT.s:7011   .data.g_target_cutoff:0000000000000000 $d
/tmp/claude-502/ccaZRenT.s:7018   .data.g_target_drive:0000000000000000 $d
/tmp/claude-502/ccaZRenT.s:7025   .data.g_target_freq:0000000000000000 $d
/tmp/claude-502/ccaZRenT.s:7032   .rodata._ZL11SCALE_MAJOR:0000000000000000 $d
/tmp/claude-502/ccaZRenT.s:7035   .rodata._ZL11SCALE_MAJOR:0000000000000000 _ZL11SCALE_MAJOR
/tmp/claude-502/ccaZRenT.s:7038   .rodata._ZL11SCALE_MINOR:0000000000000000 $d
/tmp/claude-502/ccaZRenT.s:7041   .rodata._ZL11SCALE_MINOR:0000000000000000 _ZL11SCALE_MINOR
/tmp/claude-502/ccaZRenT.s:7044   .rodata._ZL6VOICES:0000000000000000 $d
/tmp/claude-502/ccaZRenT.s:7048   .rodata._ZL6VOICES:0000000000000000 _ZL6VOICES

UNDEFINED SYMBOLS
expf
exp2f
_ZN5daisy9DaisySeed15AudioSampleRateEv
hw
g_active_voice
g_voice_idx
_ZN5daisy4GPIO5WriteEb
led3
