ARM GAS  /tmp/claude-502/ccU8FNgW.s 			page 1


   1              		.cpu cortex-m7
   2              		.arch armv7e-m
   3              		.fpu fpv5-d16
   4              		.eabi_attribute 28, 1
   5              		.eabi_attribute 20, 1
   6              		.eabi_attribute 21, 1
   7              		.eabi_attribute 23, 3
   8              		.eabi_attribute 24, 1
   9              		.eabi_attribute 25, 1
  10              		.eabi_attribute 26, 1
  11              		.eabi_attribute 30, 2
  12              		.eabi_attribute 34, 1
  13              		.eabi_attribute 18, 4
  14              		.file	"engine.cpp"
  15              		.text
  16              	.Ltext0:
  17              		.cfi_sections	.debug_frame
  18              		.section	.text._Z12drum_triggerR7DrumHitifffff,"ax",%progbits
  19              		.align	1
  20              		.p2align 2,,3
  21              		.global	_Z12drum_triggerR7DrumHitifffff
  22              		.syntax unified
  23              		.thumb
  24              		.thumb_func
  26              	_Z12drum_triggerR7DrumHitifffff:
  27              	.LVL0:
  28              	.LFB2580:
  29              		.file 1 "src/engine.cpp"
   1:src/engine.cpp **** #include "engine.h"
   2:src/engine.cpp **** 
   3:src/engine.cpp **** using namespace daisy;
   4:src/engine.cpp **** using namespace daisy::seed;
   5:src/engine.cpp **** 
   6:src/engine.cpp **** volatile float g_target_freq    = 65.41f;
   7:src/engine.cpp **** volatile float g_target_cutoff  = 100.0f;  // starts dark, pressure opens it
   8:src/engine.cpp **** volatile float g_target_detune  = 0.0f;     // semitones osc2 offset
   9:src/engine.cpp **** volatile float g_target_drive   = 1.0f;     // waveshaper input gain
  10:src/engine.cpp **** volatile float g_vibrato_depth  = 0.0f;     // 0–1, LFO depth
  11:src/engine.cpp **** volatile float g_bitcrush       = 0.0f;     // 0–1, amount of crush
  12:src/engine.cpp **** volatile float g_ringmod        = 0.0f;     // 0–1, ring mod wet
  13:src/engine.cpp **** volatile bool  g_finger_on      = false;
  14:src/engine.cpp **** volatile float g_amp_target     = 0.0f;
  15:src/engine.cpp **** volatile bool  g_retrig         = false;    // mono: re-articulate the note (re-attack)
  16:src/engine.cpp **** volatile float g_led3_duty      = 0.0f;     // 0–1, sigma-delta'd to LED3 in audio cb
  17:src/engine.cpp **** volatile float g_master_vol     = 1.0f;     // 0–1, master volume from FSR on A1
  18:src/engine.cpp **** 
  19:src/engine.cpp **** // ── Audio DSP state (audio callback only) ─────────────────
  20:src/engine.cpp **** static float s_freq      = 65.41f;
  21:src/engine.cpp **** static float s_cutoff    = 100.0f;
  22:src/engine.cpp **** static float s_detune    = 0.0f;
  23:src/engine.cpp **** static float s_drive     = 1.0f;
  24:src/engine.cpp **** static float s_vibdepth  = 0.0f;
  25:src/engine.cpp **** static float s_bitcrush  = 0.0f;
  26:src/engine.cpp **** static float s_ringmod   = 0.0f;
  27:src/engine.cpp **** static float s_amp       = 0.0f;
  28:src/engine.cpp **** static float s_master_vol= 1.0f;
  29:src/engine.cpp **** 
ARM GAS  /tmp/claude-502/ccU8FNgW.s 			page 2


  30:src/engine.cpp **** static float s_phase1    = 0.0f;
  31:src/engine.cpp **** static float s_phase2    = 0.0f;
  32:src/engine.cpp **** static float s_phase_sub = 0.0f;
  33:src/engine.cpp **** static float s_phase_oct = 0.0f; // octave-up oscillator (2x freq)
  34:src/engine.cpp **** static float s_phase_rm  = 0.0f; // ring mod carrier phase
  35:src/engine.cpp **** static float s_lfo_phase = 0.0f;
  36:src/engine.cpp **** 
  37:src/engine.cpp **** // Moog ladder filter state
  38:src/engine.cpp **** static float s_flt[4]    = {0,0,0,0};
  39:src/engine.cpp **** 
  40:src/engine.cpp **** // White-noise generator state (xorshift32) for the per-voice noise oscillator.
  41:src/engine.cpp **** static uint32_t s_noise_rng = 0x1234567u;
  42:src/engine.cpp **** // One-pole low-pass state used to derive high-passed ("tsss") noise from white.
  43:src/engine.cpp **** static float    s_noise_lp  = 0.0f;
  44:src/engine.cpp **** // High-pass corner coefficient: higher = brighter/higher "tsss" for hi-hats.
  45:src/engine.cpp **** static constexpr float NOISE_HP_COEF = 0.8f;
  46:src/engine.cpp **** 
  47:src/engine.cpp **** // Slew rates (per sample at 48 kHz)
  48:src/engine.cpp **** // Lower value = faster response.
  49:src/engine.cpp **** // NOTE: pitch glide and the amp attack/release are now per-voice (see Voice
  50:src/engine.cpp **** // glide_ms / attack_ms / release_ms), converted to coefficients in the audio
  51:src/engine.cpp **** // callback. The constants below are the ones still shared by all voices.
  52:src/engine.cpp **** // Cutoff opening slew. The target is recomputed only at the touch-loop rate
  53:src/engine.cpp **** // (~12-16 Hz) and pressure is quantized to integer %, so a too-fast slew lets
  54:src/engine.cpp **** // each coarse step through as zipper/stair-stepping. ~35 ms interpolates across
  55:src/engine.cpp **** // those steps for a smooth filter sweep while still feeling responsive.
  56:src/engine.cpp **** static constexpr float SLEW_CUT    = 0.9994f; // filter cutoff — ~35 ms smooth
  57:src/engine.cpp **** static constexpr float SLEW_MISC   = 0.9900f; // drive/vib
  58:src/engine.cpp **** // Finger 2 — asymmetric attack/release
  59:src/engine.cpp **** static constexpr float SLEW_F2_A   = 0.9800f; // attack  (~10ms)
  60:src/engine.cpp **** static constexpr float SLEW_F2_R   = 0.9990f; // release (~200ms smooth fade)
  61:src/engine.cpp **** 
  62:src/engine.cpp **** 
  63:src/engine.cpp **** // Mono ladder using the shared global state (the monophonic melodic engine).
  64:src/engine.cpp **** static inline float moog(float in, float cutoff, float res, float sr)
  65:src/engine.cpp **** {
  66:src/engine.cpp ****     return moog_st(in, cutoff, res, sr, s_flt);
  67:src/engine.cpp **** }
  68:src/engine.cpp **** 
  69:src/engine.cpp **** DrumHit g_hits[POLY];
  70:src/engine.cpp **** 
  71:src/engine.cpp **** void drum_trigger(DrumHit& h, int vidx, float freq, float amp_tgt,
  72:src/engine.cpp ****                          float cutoff, float drive, float sr)
  73:src/engine.cpp **** {
  30              		.loc 1 73 1 view -0
  31              		.cfi_startproc
  32              		@ args = 0, pretend = 0, frame = 0
  33              		@ frame_needed = 0, uses_anonymous_args = 0
  74:src/engine.cpp ****     const Voice& V = VOICES[vidx];
  34              		.loc 1 74 5 view .LVU1
  75:src/engine.cpp ****     h.active=true; h.gate=true; h.vidx=vidx;
  76:src/engine.cpp ****     h.freq=freq; h.amp_tgt=amp_tgt; h.cutoff=cutoff; h.drive=drive;
  77:src/engine.cpp ****     h.ph1=h.ph2=h.phs=h.pho=0.0f;
  78:src/engine.cpp ****     h.amp=0.0f; h.noise_lp=0.0f;
  79:src/engine.cpp ****     // 1-pole lowpass coefficient from the (latched) cutoff: a = 1 - e^(-2π·fc/sr).
  80:src/engine.cpp ****     h.lp_state = 0.0f;
  81:src/engine.cpp ****     h.lp_coeff = clampf(1.0f - expf(-6.2831853f * cutoff / sr), 0.0f, 1.0f);
ARM GAS  /tmp/claude-502/ccU8FNgW.s 			page 3


  35              		.loc 1 81 49 is_stmt 0 view .LVU2
  36 0000 DFED507A 		vldr.32	s15, .L13
  73:src/engine.cpp ****     const Voice& V = VOICES[vidx];
  37              		.loc 1 73 1 view .LVU3
  38 0004 B0EE407A 		vmov.f32	s14, s0
  75:src/engine.cpp ****     h.active=true; h.gate=true; h.vidx=vidx;
  39              		.loc 1 75 13 view .LVU4
  40 0008 40F20113 		movw	r3, #257
  75:src/engine.cpp ****     h.active=true; h.gate=true; h.vidx=vidx;
  41              		.loc 1 75 39 view .LVU5
  42 000c 4160     		str	r1, [r0, #4]
  43              		.loc 1 81 49 view .LVU6
  44 000e 61EE277A 		vmul.f32	s15, s2, s15
  76:src/engine.cpp ****     h.ph1=h.ph2=h.phs=h.pho=0.0f;
  45              		.loc 1 76 27 view .LVU7
  46 0012 C0ED030A 		vstr.32	s1, [r0, #12]
  75:src/engine.cpp ****     h.active=true; h.gate=true; h.vidx=vidx;
  47              		.loc 1 75 13 view .LVU8
  48 0016 0380     		strh	r3, [r0]	@ movhi
  76:src/engine.cpp ****     h.ph1=h.ph2=h.phs=h.pho=0.0f;
  49              		.loc 1 76 11 view .LVU9
  50 0018 80ED027A 		vstr.32	s14, [r0, #8]
  51              		.loc 1 81 36 view .LVU10
  52 001c 87EE820A 		vdiv.f32	s0, s15, s4
  53              	.LVL1:
  76:src/engine.cpp ****     h.ph1=h.ph2=h.phs=h.pho=0.0f;
  54              		.loc 1 76 45 view .LVU11
  55 0020 80ED041A 		vstr.32	s2, [r0, #16]
  76:src/engine.cpp ****     h.ph1=h.ph2=h.phs=h.pho=0.0f;
  56              		.loc 1 76 61 view .LVU12
  57 0024 C0ED051A 		vstr.32	s3, [r0, #20]
  73:src/engine.cpp ****     const Voice& V = VOICES[vidx];
  58              		.loc 1 73 1 view .LVU13
  59 0028 70B5     		push	{r4, r5, r6, lr}
  60              		.cfi_def_cfa_offset 16
  61              		.cfi_offset 4, -16
  62              		.cfi_offset 5, -12
  63              		.cfi_offset 6, -8
  64              		.cfi_offset 14, -4
  65 002a 2DED028B 		vpush.64	{d8}
  66              		.cfi_def_cfa_offset 24
  67              		.cfi_offset 80, -24
  68              		.cfi_offset 81, -20
  77:src/engine.cpp ****     h.amp=0.0f; h.noise_lp=0.0f;
  69              		.loc 1 77 28 view .LVU14
  70 002e 9FED468A 		vldr.32	s16, .L13+4
  73:src/engine.cpp ****     const Voice& V = VOICES[vidx];
  71              		.loc 1 73 1 view .LVU15
  72 0032 F0EE428A 		vmov.f32	s17, s4
  73 0036 0446     		mov	r4, r0
  74 0038 0D46     		mov	r5, r1
  75              	.LVL2:
  75:src/engine.cpp ****     h.freq=freq; h.amp_tgt=amp_tgt; h.cutoff=cutoff; h.drive=drive;
  76              		.loc 1 75 5 is_stmt 1 view .LVU16
  75:src/engine.cpp ****     h.freq=freq; h.amp_tgt=amp_tgt; h.cutoff=cutoff; h.drive=drive;
  77              		.loc 1 75 20 view .LVU17
  75:src/engine.cpp ****     h.freq=freq; h.amp_tgt=amp_tgt; h.cutoff=cutoff; h.drive=drive;
ARM GAS  /tmp/claude-502/ccU8FNgW.s 			page 4


  78              		.loc 1 75 33 view .LVU18
  76:src/engine.cpp ****     h.ph1=h.ph2=h.phs=h.pho=0.0f;
  79              		.loc 1 76 5 view .LVU19
  76:src/engine.cpp ****     h.ph1=h.ph2=h.phs=h.pho=0.0f;
  80              		.loc 1 76 18 view .LVU20
  76:src/engine.cpp ****     h.ph1=h.ph2=h.phs=h.pho=0.0f;
  81              		.loc 1 76 37 view .LVU21
  76:src/engine.cpp ****     h.ph1=h.ph2=h.phs=h.pho=0.0f;
  82              		.loc 1 76 54 view .LVU22
  77:src/engine.cpp ****     h.amp=0.0f; h.noise_lp=0.0f;
  83              		.loc 1 77 5 view .LVU23
  78:src/engine.cpp ****     // 1-pole lowpass coefficient from the (latched) cutoff: a = 1 - e^(-2π·fc/sr).
  84              		.loc 1 78 5 view .LVU24
  78:src/engine.cpp ****     // 1-pole lowpass coefficient from the (latched) cutoff: a = 1 - e^(-2π·fc/sr).
  85              		.loc 1 78 17 view .LVU25
  80:src/engine.cpp ****     h.lp_coeff = clampf(1.0f - expf(-6.2831853f * cutoff / sr), 0.0f, 1.0f);
  86              		.loc 1 80 5 view .LVU26
  87              		.loc 1 81 5 view .LVU27
  77:src/engine.cpp ****     h.amp=0.0f; h.noise_lp=0.0f;
  88              		.loc 1 77 28 is_stmt 0 view .LVU28
  89 003a 80ED098A 		vstr.32	s16, [r0, #36]
  77:src/engine.cpp ****     h.amp=0.0f; h.noise_lp=0.0f;
  90              		.loc 1 77 22 view .LVU29
  91 003e 80ED088A 		vstr.32	s16, [r0, #32]
  77:src/engine.cpp ****     h.amp=0.0f; h.noise_lp=0.0f;
  92              		.loc 1 77 16 view .LVU30
  93 0042 80ED078A 		vstr.32	s16, [r0, #28]
  77:src/engine.cpp ****     h.amp=0.0f; h.noise_lp=0.0f;
  94              		.loc 1 77 10 view .LVU31
  95 0046 80ED068A 		vstr.32	s16, [r0, #24]
  78:src/engine.cpp ****     // 1-pole lowpass coefficient from the (latched) cutoff: a = 1 - e^(-2π·fc/sr).
  96              		.loc 1 78 10 view .LVU32
  97 004a 80ED0A8A 		vstr.32	s16, [r0, #40]
  78:src/engine.cpp ****     // 1-pole lowpass coefficient from the (latched) cutoff: a = 1 - e^(-2π·fc/sr).
  98              		.loc 1 78 27 view .LVU33
  99 004e 80ED0C8A 		vstr.32	s16, [r0, #48]
  80:src/engine.cpp ****     h.lp_coeff = clampf(1.0f - expf(-6.2831853f * cutoff / sr), 0.0f, 1.0f);
 100              		.loc 1 80 16 view .LVU34
 101 0052 80ED0D8A 		vstr.32	s16, [r0, #52]
 102              		.loc 1 81 36 view .LVU35
 103 0056 FFF7FEFF 		bl	expf
 104              	.LVL3:
 105              		.loc 1 81 24 view .LVU36
 106 005a F7EE007A 		vmov.f32	s15, #1.0e+0
 107 005e 37EEC00A 		vsub.f32	s0, s15, s0
 108              	.LVL4:
 109              	.LBB69:
 110              	.LBI69:
 111              		.file 2 "src/dsp.h"
   1:src/dsp.h     **** #pragma once
   2:src/dsp.h     **** // Pure DSP/math primitives — no hardware, no global state (except moog()
   3:src/dsp.h     **** // which lives in the engine). Header-only & inline for the audio hot path.
   4:src/dsp.h     **** #include <math.h>
   5:src/dsp.h     **** 
   6:src/dsp.h     **** // Oscillator shape — set per oscillator, so one voice can mix (e.g. saw root +
   7:src/dsp.h     **** // square fifth + sine sub). SQUARE and SAW are naive (not band-limited) — they
   8:src/dsp.h     **** // alias at high pitch, but on a low bass voice that just reads as rich harmonics
ARM GAS  /tmp/claude-502/ccU8FNgW.s 			page 5


   9:src/dsp.h     **** // for the filter to chew.
  10:src/dsp.h     **** enum Waveform { WAVE_TRI, WAVE_SINE, WAVE_SQUARE, WAVE_SAW };
  11:src/dsp.h     **** 
  12:src/dsp.h     **** static inline float clampf(float v,float lo,float hi){
 112              		.loc 2 12 21 is_stmt 1 view .LVU37
 113              	.LBB70:
  13:src/dsp.h     ****     return v<lo?lo:v>hi?hi:v;
 114              		.loc 2 13 5 view .LVU38
 115              		.loc 2 13 16 is_stmt 0 view .LVU39
 116 0062 B4EEC80A 		vcmpe.f32	s0, s16
 117 0066 F1EE10FA 		vmrs	APSR_nzcv, FPSCR
 118 006a 5ED4     		bmi	.L6
 119              		.loc 2 13 24 view .LVU40
 120 006c B4EE670A 		vcmp.f32	s0, s15
 121 0070 F1EE10FA 		vmrs	APSR_nzcv, FPSCR
 122 0074 37FE800A 		vselgt.f32	s0, s15, s0
 123              	.LVL5:
 124              	.L2:
 125              		.loc 2 13 24 view .LVU41
 126              	.LBE70:
 127              	.LBE69:
  82:src/engine.cpp ****     h.atk_c      = ms_to_coeff(V.attack_ms,    sr);
 128              		.loc 1 82 34 view .LVU42
 129 0078 344E     		ldr	r6, .L13+8
 130 007a 9C23     		movs	r3, #156
  81:src/engine.cpp ****     h.atk_c      = ms_to_coeff(V.attack_ms,    sr);
 131              		.loc 1 81 16 view .LVU43
 132 007c 84ED0E0A 		vstr.32	s0, [r4, #56]
 133              		.loc 1 82 5 is_stmt 1 view .LVU44
 134              		.loc 1 82 34 is_stmt 0 view .LVU45
 135 0080 03FB0563 		mla	r3, r3, r5, r6
 136 0084 D3ED197A 		vldr.32	s15, [r3, #100]
 137              	.LVL6:
 138              	.LBB72:
 139              	.LBI72:
  14:src/dsp.h     **** }
  15:src/dsp.h     **** static inline float smoothstep_f(float x){
  16:src/dsp.h     ****     x = x<0?0:x>1?1:x; return x*x*(3.0f - 2.0f*x);
  17:src/dsp.h     **** }
  18:src/dsp.h     **** static inline float smootherstep_f(float x){
  19:src/dsp.h     ****     x = x<0?0:x>1?1:x; return x*x*x*(x*(x*6.0f - 15.0f) + 10.0f);
  20:src/dsp.h     **** }
  21:src/dsp.h     **** 
  22:src/dsp.h     **** // Fast tanh approximation (Padé)
  23:src/dsp.h     **** static inline float fast_tanh(float x)
  24:src/dsp.h     **** {
  25:src/dsp.h     ****     if(x> 3.0f)return  1.0f;
  26:src/dsp.h     ****     if(x<-3.0f)return -1.0f;
  27:src/dsp.h     ****     float x2=x*x;
  28:src/dsp.h     ****     return x*(27.0f+x2)/(27.0f+9.0f*x2);
  29:src/dsp.h     **** }
  30:src/dsp.h     **** 
  31:src/dsp.h     **** // Convert a one-pole time constant in milliseconds to a per-sample slew
  32:src/dsp.h     **** // coefficient: y += (1-coeff)*(target-y) reaches ~63% after `ms`.
  33:src/dsp.h     **** static inline float ms_to_coeff(float ms, float sr){
 140              		.loc 2 33 21 is_stmt 1 view .LVU46
 141              	.LBB73:
ARM GAS  /tmp/claude-502/ccU8FNgW.s 			page 6


  34:src/dsp.h     ****     if(ms <= 0.0f) return 0.0f;            // instant
 142              		.loc 2 34 5 view .LVU47
 143 0088 F5EEC07A 		vcmpe.f32	s15, #0
 144 008c F1EE10FA 		vmrs	APSR_nzcv, FPSCR
 145 0090 4ED9     		bls	.L8
 146              	.LVL7:
 147              	.LBB74:
 148              	.LBI74:
  33:src/dsp.h     ****     if(ms <= 0.0f) return 0.0f;            // instant
 149              		.loc 2 33 21 view .LVU48
 150              	.LBB75:
  35:src/dsp.h     ****     return expf(-1.0f / (ms * 0.001f * sr));
 151              		.loc 2 35 5 view .LVU49
 152              		.loc 2 35 29 is_stmt 0 view .LVU50
 153 0092 9FED2F7A 		vldr.32	s14, .L13+12
 154              		.loc 2 35 16 view .LVU51
 155 0096 BFEE000A 		vmov.f32	s0, #-1.0e+0
 156              		.loc 2 35 29 view .LVU52
 157 009a 67EE877A 		vmul.f32	s15, s15, s14
 158              	.LVL8:
 159              		.loc 2 35 38 view .LVU53
 160 009e 67EEA87A 		vmul.f32	s15, s15, s17
 161              		.loc 2 35 16 view .LVU54
 162 00a2 80EE270A 		vdiv.f32	s0, s0, s15
 163 00a6 FFF7FEFF 		bl	expf
 164              	.LVL9:
 165              	.L3:
 166              		.loc 2 35 16 view .LVU55
 167              	.LBE75:
 168              	.LBE74:
 169              	.LBE73:
 170              	.LBE72:
  83:src/engine.cpp ****     h.rel_c      = ms_to_coeff(V.release_ms,   sr);
 171              		.loc 1 83 34 view .LVU56
 172 00aa 9C23     		movs	r3, #156
  82:src/engine.cpp ****     h.rel_c      = ms_to_coeff(V.release_ms,   sr);
 173              		.loc 1 82 18 view .LVU57
 174 00ac 84ED0F0A 		vstr.32	s0, [r4, #60]
 175              		.loc 1 83 5 is_stmt 1 view .LVU58
 176              		.loc 1 83 34 is_stmt 0 view .LVU59
 177 00b0 03FB0563 		mla	r3, r3, r5, r6
 178 00b4 D3ED1A7A 		vldr.32	s15, [r3, #104]
 179              	.LVL10:
 180              	.LBB77:
 181              	.LBI77:
  33:src/dsp.h     ****     if(ms <= 0.0f) return 0.0f;            // instant
 182              		.loc 2 33 21 is_stmt 1 view .LVU60
 183              	.LBB78:
  34:src/dsp.h     ****     return expf(-1.0f / (ms * 0.001f * sr));
 184              		.loc 2 34 5 view .LVU61
 185 00b8 F5EEC07A 		vcmpe.f32	s15, #0
 186 00bc F1EE10FA 		vmrs	APSR_nzcv, FPSCR
 187 00c0 3CD9     		bls	.L9
 188              	.LVL11:
 189              	.LBB79:
 190              	.LBI79:
  33:src/dsp.h     ****     if(ms <= 0.0f) return 0.0f;            // instant
ARM GAS  /tmp/claude-502/ccU8FNgW.s 			page 7


 191              		.loc 2 33 21 view .LVU62
 192              	.LBB80:
 193              		.loc 2 35 5 view .LVU63
 194              		.loc 2 35 29 is_stmt 0 view .LVU64
 195 00c2 9FED237A 		vldr.32	s14, .L13+12
 196              		.loc 2 35 16 view .LVU65
 197 00c6 BFEE000A 		vmov.f32	s0, #-1.0e+0
 198              		.loc 2 35 29 view .LVU66
 199 00ca 67EE877A 		vmul.f32	s15, s15, s14
 200              	.LVL12:
 201              		.loc 2 35 38 view .LVU67
 202 00ce 67EEA87A 		vmul.f32	s15, s15, s17
 203              		.loc 2 35 16 view .LVU68
 204 00d2 80EE270A 		vdiv.f32	s0, s0, s15
 205 00d6 FFF7FEFF 		bl	expf
 206              	.LVL13:
 207              	.L4:
 208              		.loc 2 35 16 view .LVU69
 209              	.LBE80:
 210              	.LBE79:
 211              	.LBE78:
 212              	.LBE77:
  84:src/engine.cpp ****     h.penv_c     = ms_to_coeff(V.pitch_env_ms, sr);
 213              		.loc 1 84 34 view .LVU70
 214 00da 9C23     		movs	r3, #156
  83:src/engine.cpp ****     h.penv_c     = ms_to_coeff(V.pitch_env_ms, sr);
 215              		.loc 1 83 18 view .LVU71
 216 00dc 84ED100A 		vstr.32	s0, [r4, #64]
 217              		.loc 1 84 5 is_stmt 1 view .LVU72
 218              		.loc 1 84 34 is_stmt 0 view .LVU73
 219 00e0 03FB0563 		mla	r3, r3, r5, r6
 220 00e4 D3ED1D7A 		vldr.32	s15, [r3, #116]
 221              	.LVL14:
 222              	.LBB82:
 223              	.LBI82:
  33:src/dsp.h     ****     if(ms <= 0.0f) return 0.0f;            // instant
 224              		.loc 2 33 21 is_stmt 1 view .LVU74
 225              	.LBB83:
  34:src/dsp.h     ****     return expf(-1.0f / (ms * 0.001f * sr));
 226              		.loc 2 34 5 view .LVU75
 227 00e8 F5EEC07A 		vcmpe.f32	s15, #0
 228 00ec F1EE10FA 		vmrs	APSR_nzcv, FPSCR
 229 00f0 21D9     		bls	.L10
 230              	.LVL15:
 231              	.LBB84:
 232              	.LBI84:
  33:src/dsp.h     ****     if(ms <= 0.0f) return 0.0f;            // instant
 233              		.loc 2 33 21 view .LVU76
 234              	.LBB85:
 235              		.loc 2 35 5 view .LVU77
 236              		.loc 2 35 29 is_stmt 0 view .LVU78
 237 00f2 9FED172A 		vldr.32	s4, .L13+12
 238              		.loc 2 35 16 view .LVU79
 239 00f6 BFEE000A 		vmov.f32	s0, #-1.0e+0
 240              		.loc 2 35 29 view .LVU80
 241 00fa 67EE827A 		vmul.f32	s15, s15, s4
 242              	.LVL16:
ARM GAS  /tmp/claude-502/ccU8FNgW.s 			page 8


 243              		.loc 2 35 38 view .LVU81
 244 00fe 67EEA88A 		vmul.f32	s17, s15, s17
 245              	.LVL17:
 246              		.loc 2 35 16 view .LVU82
 247 0102 80EE280A 		vdiv.f32	s0, s0, s17
 248 0106 FFF7FEFF 		bl	expf
 249              	.LVL18:
 250              	.L5:
 251              		.loc 2 35 16 view .LVU83
 252              	.LBE85:
 253              	.LBE84:
 254              	.LBE83:
 255              	.LBE82:
  85:src/engine.cpp ****     h.penv_start = exp2f(V.pitch_env_oct);
 256              		.loc 1 85 28 view .LVU84
 257 010a 9C21     		movs	r1, #156
  84:src/engine.cpp ****     h.penv_start = exp2f(V.pitch_env_oct);
 258              		.loc 1 84 18 view .LVU85
 259 010c 84ED110A 		vstr.32	s0, [r4, #68]
 260              		.loc 1 85 5 is_stmt 1 view .LVU86
 261              		.loc 1 85 28 is_stmt 0 view .LVU87
 262 0110 01FB0565 		mla	r5, r1, r5, r6
 263              	.LVL19:
 264              		.loc 1 85 25 view .LVU88
 265 0114 95ED1C0A 		vldr.32	s0, [r5, #112]
 266 0118 FFF7FEFF 		bl	exp2f
 267              	.LVL20:
 268              		.loc 1 85 18 view .LVU89
 269 011c 84ED120A 		vstr.32	s0, [r4, #72]
  86:src/engine.cpp ****     h.pmult      = h.penv_start;
 270              		.loc 1 86 5 is_stmt 1 view .LVU90
 271              		.loc 1 86 18 is_stmt 0 view .LVU91
 272 0120 84ED0B0A 		vstr.32	s0, [r4, #44]
  87:src/engine.cpp **** }
 273              		.loc 1 87 1 view .LVU92
 274 0124 BDEC028B 		vldm	sp!, {d8}
 275              		.cfi_remember_state
 276              		.cfi_restore 80
 277              		.cfi_restore 81
 278              		.cfi_def_cfa_offset 16
 279 0128 70BD     		pop	{r4, r5, r6, pc}
 280              	.LVL21:
 281              	.L6:
 282              		.cfi_restore_state
 283              	.LBB87:
 284              	.LBB71:
  13:src/dsp.h     **** }
 285              		.loc 2 13 16 view .LVU93
 286 012a B0EE480A 		vmov.f32	s0, s16
 287              	.LVL22:
  13:src/dsp.h     **** }
 288              		.loc 2 13 16 view .LVU94
 289 012e A3E7     		b	.L2
 290              	.LVL23:
 291              	.L8:
  13:src/dsp.h     **** }
 292              		.loc 2 13 16 view .LVU95
ARM GAS  /tmp/claude-502/ccU8FNgW.s 			page 9


 293              	.LBE71:
 294              	.LBE87:
 295              	.LBB88:
 296              	.LBB76:
  34:src/dsp.h     ****     return expf(-1.0f / (ms * 0.001f * sr));
 297              		.loc 2 34 27 view .LVU96
 298 0130 9FED050A 		vldr.32	s0, .L13+4
 299 0134 B9E7     		b	.L3
 300              	.LVL24:
 301              	.L10:
  34:src/dsp.h     ****     return expf(-1.0f / (ms * 0.001f * sr));
 302              		.loc 2 34 27 view .LVU97
 303              	.LBE76:
 304              	.LBE88:
 305              	.LBB89:
 306              	.LBB86:
 307 0136 9FED040A 		vldr.32	s0, .L13+4
 308 013a E6E7     		b	.L5
 309              	.LVL25:
 310              	.L9:
  34:src/dsp.h     ****     return expf(-1.0f / (ms * 0.001f * sr));
 311              		.loc 2 34 27 view .LVU98
 312              	.LBE86:
 313              	.LBE89:
 314              	.LBB90:
 315              	.LBB81:
 316 013c 9FED020A 		vldr.32	s0, .L13+4
 317 0140 CBE7     		b	.L4
 318              	.L14:
 319 0142 00BF     		.align	2
 320              	.L13:
 321 0144 DB0FC9C0 		.word	-1060565029
 322 0148 00000000 		.word	0
 323 014c 00000000 		.word	.LANCHOR0
 324 0150 6F12833A 		.word	981668463
 325              	.LBE81:
 326              	.LBE90:
 327              		.cfi_endproc
 328              	.LFE2580:
 330              		.section	.text._Z13AudioCallbackPKPKfPPfj,"ax",%progbits
 331              		.align	1
 332              		.p2align 2,,3
 333              		.global	_Z13AudioCallbackPKPKfPPfj
 334              		.syntax unified
 335              		.thumb
 336              		.thumb_func
 338              	_Z13AudioCallbackPKPKfPPfj:
 339              	.LVL26:
 340              	.LFB2582:
  88:src/engine.cpp **** 
  89:src/engine.cpp **** static float drum_render(DrumHit& h, float sr)
  90:src/engine.cpp **** {
  91:src/engine.cpp ****     if(!h.active) return 0.0f;
  92:src/engine.cpp ****     const Voice& V = VOICES[h.vidx];
  93:src/engine.cpp ****     // Amp envelope: attack while gated, release on lift; free the slot when done.
  94:src/engine.cpp ****     float tgt = h.gate ? h.amp_tgt : 0.0f;
  95:src/engine.cpp ****     float c   = (tgt > h.amp) ? h.atk_c : h.rel_c;
ARM GAS  /tmp/claude-502/ccU8FNgW.s 			page 10


  96:src/engine.cpp ****     h.amp = h.amp*c + tgt*(1.0f-c);
  97:src/engine.cpp ****     if(!h.gate && h.amp < 0.0004f){ h.active=false; return 0.0f; }
  98:src/engine.cpp ****     // Pitch envelope decays to 1.0.
  99:src/engine.cpp ****     h.pmult = 1.0f + (h.pmult - 1.0f) * h.penv_c;
 100:src/engine.cpp ****     float f = h.freq * h.pmult;
 101:src/engine.cpp ****     // Oscillators + noise
 102:src/engine.cpp ****     float mix = osc(h.ph1,V.osc1_wave)*V.osc1_level
 103:src/engine.cpp ****               + osc(h.ph2,V.osc2_wave)*V.osc2_level
 104:src/engine.cpp ****               + osc(h.phs,V.sub_wave )*V.sub_level
 105:src/engine.cpp ****               + osc(h.pho,V.oct_wave )*V.oct_level;
 106:src/engine.cpp ****     if(V.noise_level > 0.0f){
 107:src/engine.cpp ****         s_noise_rng ^= s_noise_rng<<13; s_noise_rng ^= s_noise_rng>>17; s_noise_rng ^= s_noise_rng<
 108:src/engine.cpp ****         float white  = (float)(int32_t)s_noise_rng * (1.0f/2147483648.0f);
 109:src/engine.cpp ****         h.noise_lp  += NOISE_HP_COEF * (white - h.noise_lp);
 110:src/engine.cpp ****         float bright = white - h.noise_lp;
 111:src/engine.cpp ****         mix += (white + (bright*2.0f - white)*V.noise_hp) * V.noise_level;
 112:src/engine.cpp ****     }
 113:src/engine.cpp ****     mix = fast_tanh(mix * h.drive);
 114:src/engine.cpp ****     // Per-drum 1-pole lowpass (cheap — one multiply-add — instead of the 4-pole
 115:src/engine.cpp ****     // Moog) at the drum's own cutoff: keeps Kick/Tom dark, Snare/Hat bright.
 116:src/engine.cpp ****     h.lp_state += h.lp_coeff * (mix - h.lp_state);
 117:src/engine.cpp ****     h.ph1 += f*V.osc1_ratio/sr; if(h.ph1>=1.0f)h.ph1-=1.0f;
 118:src/engine.cpp ****     h.ph2 += f*V.osc2_ratio/sr; if(h.ph2>=1.0f)h.ph2-=1.0f;
 119:src/engine.cpp ****     h.phs += f*V.sub_ratio /sr; if(h.phs>=1.0f)h.phs-=1.0f;
 120:src/engine.cpp ****     h.pho += f*V.oct_ratio /sr; if(h.pho>=1.0f)h.pho-=1.0f;
 121:src/engine.cpp ****     return fast_tanh(h.lp_state*1.3f) * h.amp;
 122:src/engine.cpp **** }
 123:src/engine.cpp **** 
 124:src/engine.cpp **** void AudioCallback(AudioHandle::InputBuffer,
 125:src/engine.cpp ****                    AudioHandle::OutputBuffer out, size_t size)
 126:src/engine.cpp **** {
 341              		.loc 1 126 1 is_stmt 1 view -0
 342              		.cfi_startproc
 343              		@ args = 0, pretend = 0, frame = 144
 344              		@ frame_needed = 0, uses_anonymous_args = 0
 127:src/engine.cpp ****     // LED3 fixed-frequency PWM (200 Hz, 240 levels). Per-sample duty smoother
 128:src/engine.cpp ****     // (~20 ms TC) interpolates between the main loop's 16 Hz updates so the
 129:src/engine.cpp ****     // brightness transitions look continuous even at low intensity.
 130:src/engine.cpp ****     static float    led3_duty_smooth = 0.0f;
 345              		.loc 1 130 5 view .LVU100
 131:src/engine.cpp ****     static uint32_t pwm_counter      = 0;
 346              		.loc 1 131 5 view .LVU101
 132:src/engine.cpp ****     static bool     led3_state       = false;
 347              		.loc 1 132 5 view .LVU102
 133:src/engine.cpp ****     constexpr uint32_t PWM_LEVELS = 240;        // 48 kHz / 240 = 200 Hz PWM
 348              		.loc 1 133 5 view .LVU103
 134:src/engine.cpp ****     constexpr float    DUTY_TC    = 0.001f;     // ~20 ms time constant per sample
 349              		.loc 1 134 5 view .LVU104
 135:src/engine.cpp ****     float           duty_target = g_led3_duty;
 350              		.loc 1 135 5 view .LVU105
 351              		.loc 1 135 35 is_stmt 0 view .LVU106
 352 0000 8B4B     		ldr	r3, .L354
 353 0002 D3ED007A 		vldr.32	s15, [r3]
 354              	.LVL27:
 136:src/engine.cpp ****     if(duty_target < 0.0f) duty_target = 0.0f; else if(duty_target > 1.0f) duty_target = 1.0f;
 355              		.loc 1 136 5 is_stmt 1 view .LVU107
 356 0006 F5EEC07A 		vcmpe.f32	s15, #0
ARM GAS  /tmp/claude-502/ccU8FNgW.s 			page 11


 126:src/engine.cpp ****     // LED3 fixed-frequency PWM (200 Hz, 240 levels). Per-sample duty smoother
 357              		.loc 1 126 1 is_stmt 0 view .LVU108
 358 000a 2DE9F04F 		push	{r4, r5, r6, r7, r8, r9, r10, fp, lr}
 359              		.cfi_def_cfa_offset 36
 360              		.cfi_offset 4, -36
 361              		.cfi_offset 5, -32
 362              		.cfi_offset 6, -28
 363              		.cfi_offset 7, -24
 364              		.cfi_offset 8, -20
 365              		.cfi_offset 9, -16
 366              		.cfi_offset 10, -12
 367              		.cfi_offset 11, -8
 368              		.cfi_offset 14, -4
 369              		.loc 1 136 5 view .LVU109
 370 000e F1EE10FA 		vmrs	APSR_nzcv, FPSCR
 126:src/engine.cpp ****     // LED3 fixed-frequency PWM (200 Hz, 240 levels). Per-sample duty smoother
 371              		.loc 1 126 1 view .LVU110
 372 0012 0F46     		mov	r7, r1
 373 0014 2DED108B 		vpush.64	{d8, d9, d10, d11, d12, d13, d14, d15}
 374              		.cfi_def_cfa_offset 100
 375              		.cfi_offset 80, -100
 376              		.cfi_offset 81, -96
 377              		.cfi_offset 82, -92
 378              		.cfi_offset 83, -88
 379              		.cfi_offset 84, -84
 380              		.cfi_offset 85, -80
 381              		.cfi_offset 86, -76
 382              		.cfi_offset 87, -72
 383              		.cfi_offset 88, -68
 384              		.cfi_offset 89, -64
 385              		.cfi_offset 90, -60
 386              		.cfi_offset 91, -56
 387              		.cfi_offset 92, -52
 388              		.cfi_offset 93, -48
 389              		.cfi_offset 94, -44
 390              		.cfi_offset 95, -40
 391 0018 A5B0     		sub	sp, sp, #148
 392              		.cfi_def_cfa_offset 248
 126:src/engine.cpp ****     // LED3 fixed-frequency PWM (200 Hz, 240 levels). Per-sample duty smoother
 393              		.loc 1 126 1 view .LVU111
 394 001a 0692     		str	r2, [sp, #24]
 395              		.loc 1 136 5 view .LVU112
 396 001c 01F1E183 		bmi	.L204
 397 0020 B0EE677A 		vmov.f32	s14, s15
 398              		.loc 1 136 53 is_stmt 1 discriminator 2 view .LVU113
 399 0024 F7EE007A 		vmov.f32	s15, #1.0e+0
 400              	.LVL28:
 401              		.loc 1 136 88 is_stmt 0 discriminator 2 view .LVU114
 402 0028 B4EE677A 		vcmp.f32	s14, s15
 403 002c F1EE10FA 		vmrs	APSR_nzcv, FPSCR
 404 0030 77FE877A 		vselgt.f32	s15, s15, s14
 405 0034 CDED0A7A 		vstr.32	s15, [sp, #40]
 406              	.LVL29:
 407              	.L16:
 137:src/engine.cpp **** 
 138:src/engine.cpp ****     // Snapshot targets
 139:src/engine.cpp ****     float tfreq  = g_target_freq;
ARM GAS  /tmp/claude-502/ccU8FNgW.s 			page 12


 408              		.loc 1 139 5 is_stmt 1 view .LVU115
 409              		.loc 1 139 20 is_stmt 0 view .LVU116
 410 0038 7E49     		ldr	r1, .L354+4
 411              	.LVL30:
 140:src/engine.cpp ****     float tcut   = g_target_cutoff;
 412              		.loc 1 140 20 view .LVU117
 413 003a 7F4A     		ldr	r2, .L354+8
 414              	.LVL31:
 141:src/engine.cpp ****     float tdet   = g_target_detune;
 415              		.loc 1 141 20 view .LVU118
 416 003c 7F4B     		ldr	r3, .L354+12
 139:src/engine.cpp ****     float tcut   = g_target_cutoff;
 417              		.loc 1 139 20 view .LVU119
 418 003e D1ED007A 		vldr.32	s15, [r1]
 140:src/engine.cpp ****     float tcut   = g_target_cutoff;
 419              		.loc 1 140 20 view .LVU120
 420 0042 D2ED00CA 		vldr.32	s25, [r2]
 142:src/engine.cpp ****     float tdrv   = g_target_drive;
 421              		.loc 1 142 20 view .LVU121
 422 0046 7E49     		ldr	r1, .L354+16
 141:src/engine.cpp ****     float tdet   = g_target_detune;
 423              		.loc 1 141 20 view .LVU122
 424 0048 D3ED00FA 		vldr.32	s31, [r3]
 143:src/engine.cpp ****     float tvib   = g_vibrato_depth;
 425              		.loc 1 143 20 view .LVU123
 426 004c 7D4A     		ldr	r2, .L354+20
 144:src/engine.cpp ****     float tbc    = g_bitcrush;
 427              		.loc 1 144 20 view .LVU124
 428 004e 7E4B     		ldr	r3, .L354+24
 142:src/engine.cpp ****     float tdrv   = g_target_drive;
 429              		.loc 1 142 20 view .LVU125
 430 0050 D1ED009A 		vldr.32	s19, [r1]
 143:src/engine.cpp ****     float tvib   = g_vibrato_depth;
 431              		.loc 1 143 20 view .LVU126
 432 0054 92ED009A 		vldr.32	s18, [r2]
 145:src/engine.cpp ****     float trm    = g_ringmod;
 433              		.loc 1 145 20 view .LVU127
 434 0058 7C49     		ldr	r1, .L354+28
 144:src/engine.cpp ****     float tbc    = g_bitcrush;
 435              		.loc 1 144 20 view .LVU128
 436 005a 93ED00FA 		vldr.32	s30, [r3]
 146:src/engine.cpp ****     float tamp   = g_amp_target;
 437              		.loc 1 146 20 view .LVU129
 438 005e 7C4A     		ldr	r2, .L354+32
 147:src/engine.cpp ****     float tmvol  = g_master_vol;
 439              		.loc 1 147 20 view .LVU130
 440 0060 7C4B     		ldr	r3, .L354+36
 148:src/engine.cpp ****     float sr     = hw.AudioSampleRate();
 441              		.loc 1 148 38 view .LVU131
 442 0062 7D48     		ldr	r0, .L354+40
 145:src/engine.cpp ****     float tamp   = g_amp_target;
 443              		.loc 1 145 20 view .LVU132
 444 0064 D1ED00EA 		vldr.32	s29, [r1]
 139:src/engine.cpp ****     float tcut   = g_target_cutoff;
 445              		.loc 1 139 20 view .LVU133
 446 0068 CDED077A 		vstr.32	s15, [sp, #28]
 447              	.LVL32:
ARM GAS  /tmp/claude-502/ccU8FNgW.s 			page 13


 140:src/engine.cpp ****     float tdet   = g_target_detune;
 448              		.loc 1 140 5 is_stmt 1 view .LVU134
 141:src/engine.cpp ****     float tdrv   = g_target_drive;
 449              		.loc 1 141 5 view .LVU135
 142:src/engine.cpp ****     float tvib   = g_vibrato_depth;
 450              		.loc 1 142 5 view .LVU136
 143:src/engine.cpp ****     float tbc    = g_bitcrush;
 451              		.loc 1 143 5 view .LVU137
 144:src/engine.cpp ****     float trm    = g_ringmod;
 452              		.loc 1 144 5 view .LVU138
 145:src/engine.cpp ****     float tamp   = g_amp_target;
 453              		.loc 1 145 5 view .LVU139
 146:src/engine.cpp ****     float tmvol  = g_master_vol;
 454              		.loc 1 146 5 view .LVU140
 146:src/engine.cpp ****     float tmvol  = g_master_vol;
 455              		.loc 1 146 20 is_stmt 0 view .LVU141
 456 006c 92ED00CA 		vldr.32	s24, [r2]
 457              	.LVL33:
 147:src/engine.cpp ****     float sr     = hw.AudioSampleRate();
 458              		.loc 1 147 5 is_stmt 1 view .LVU142
 147:src/engine.cpp ****     float sr     = hw.AudioSampleRate();
 459              		.loc 1 147 20 is_stmt 0 view .LVU143
 460 0070 D3ED008A 		vldr.32	s17, [r3]
 461              	.LVL34:
 462              		.loc 1 148 5 is_stmt 1 view .LVU144
 463              		.loc 1 148 38 is_stmt 0 view .LVU145
 464 0074 FFF7FEFF 		bl	_ZN5daisy9DaisySeed15AudioSampleRateEv
 465              	.LVL35:
 149:src/engine.cpp **** 
 150:src/engine.cpp ****     // Snapshot the active voice once per block, so a mid-block switch from the
 151:src/engine.cpp ****     // touch loop can't tear fields across the block. All VOICE.* reads below
 152:src/engine.cpp ****     // resolve against this reference. g_active_voice tracks g_voice_idx except in
 153:src/engine.cpp ****     // MultiVoice mode, where the touch loop routes it per tap to a drum.
 154:src/engine.cpp ****     int vi = g_active_voice;
 466              		.loc 1 154 14 view .LVU146
 467 0078 784A     		ldr	r2, .L354+44
 148:src/engine.cpp **** 
 468              		.loc 1 148 38 view .LVU147
 469 007a B0EE408A 		vmov.f32	s16, s0
 470              	.LVL36:
 471              		.loc 1 154 5 is_stmt 1 view .LVU148
 155:src/engine.cpp ****     if(vi < 0 || vi >= NUM_VOICES) vi = 0;
 156:src/engine.cpp ****     const Voice& VOICE = VOICES[vi];
 157:src/engine.cpp **** 
 158:src/engine.cpp ****     // In the Drums MultiVoice the polyphonic drum engine plays instead of the
 159:src/engine.cpp ****     // mono path (which the touch loop holds silent). Decided once per block.
 160:src/engine.cpp ****     bool poly_drums = (g_voice_idx == MULTI_IDX);
 472              		.loc 1 160 36 is_stmt 0 view .LVU149
 473 007e 784B     		ldr	r3, .L354+48
 154:src/engine.cpp ****     if(vi < 0 || vi >= NUM_VOICES) vi = 0;
 474              		.loc 1 154 14 view .LVU150
 475 0080 1268     		ldr	r2, [r2]
 476              	.LVL37:
 155:src/engine.cpp ****     if(vi < 0 || vi >= NUM_VOICES) vi = 0;
 477              		.loc 1 155 5 is_stmt 1 view .LVU151
 161:src/engine.cpp **** 
 162:src/engine.cpp ****     // Per-voice envelope/glide coefficients (expf isn't constexpr). Recompute
ARM GAS  /tmp/claude-502/ccU8FNgW.s 			page 14


 163:src/engine.cpp ****     // only when the active voice changes.
 164:src/engine.cpp ****     static int   s_coeff_vi = -1;
 165:src/engine.cpp ****     static float s_glide_c, s_atk_c, s_rel_c;
 166:src/engine.cpp ****     static float s_penv_c;      // pitch-env decay coefficient
 167:src/engine.cpp ****     static float s_penv_start;  // pitch multiplier at onset = 2^pitch_env_oct
 168:src/engine.cpp ****     static float s_decay_c;     // amp decay-to-sustain coefficient (0 = no decay)
 169:src/engine.cpp ****     static float s_sustain;     // level the gated amp decays to (1 = hold full)
 170:src/engine.cpp ****     if(s_coeff_vi != vi){
 478              		.loc 1 170 19 is_stmt 0 view .LVU152
 479 0082 784C     		ldr	r4, .L354+52
 160:src/engine.cpp **** 
 480              		.loc 1 160 36 view .LVU153
 481 0084 1B68     		ldr	r3, [r3]
 155:src/engine.cpp ****     const Voice& VOICE = VOICES[vi];
 482              		.loc 1 155 39 view .LVU154
 483 0086 0E2A     		cmp	r2, #14
 160:src/engine.cpp **** 
 484              		.loc 1 160 36 view .LVU155
 485 0088 0893     		str	r3, [sp, #32]
 155:src/engine.cpp ****     const Voice& VOICE = VOICES[vi];
 486              		.loc 1 155 39 view .LVU156
 487 008a 28BF     		it	cs
 488 008c 0022     		movcs	r2, #0
 489              	.LVL38:
 490              		.loc 1 170 5 view .LVU157
 491 008e 2368     		ldr	r3, [r4]
 155:src/engine.cpp ****     const Voice& VOICE = VOICES[vi];
 492              		.loc 1 155 39 view .LVU158
 493 0090 0092     		str	r2, [sp]
 494              	.LVL39:
 156:src/engine.cpp **** 
 495              		.loc 1 156 5 is_stmt 1 view .LVU159
 160:src/engine.cpp **** 
 496              		.loc 1 160 5 view .LVU160
 164:src/engine.cpp ****     static float s_glide_c, s_atk_c, s_rel_c;
 497              		.loc 1 164 5 view .LVU161
 165:src/engine.cpp ****     static float s_penv_c;      // pitch-env decay coefficient
 498              		.loc 1 165 5 view .LVU162
 166:src/engine.cpp ****     static float s_penv_start;  // pitch multiplier at onset = 2^pitch_env_oct
 499              		.loc 1 166 5 view .LVU163
 167:src/engine.cpp ****     static float s_decay_c;     // amp decay-to-sustain coefficient (0 = no decay)
 500              		.loc 1 167 5 view .LVU164
 168:src/engine.cpp ****     static float s_sustain;     // level the gated amp decays to (1 = hold full)
 501              		.loc 1 168 5 view .LVU165
 169:src/engine.cpp ****     if(s_coeff_vi != vi){
 502              		.loc 1 169 5 view .LVU166
 503              		.loc 1 170 5 view .LVU167
 504 0092 9342     		cmp	r3, r2
 505 0094 00F0B380 		beq	.L19
 171:src/engine.cpp ****         s_glide_c    = ms_to_coeff(VOICE.glide_ms,     sr);
 506              		.loc 1 171 9 view .LVU168
 507              		.loc 1 171 42 is_stmt 0 view .LVU169
 508 0098 734D     		ldr	r5, .L354+56
 509 009a 9C23     		movs	r3, #156
 510 009c 03FB0253 		mla	r3, r3, r2, r5
 511 00a0 D3ED1B7A 		vldr.32	s15, [r3, #108]
 512              	.LVL40:
ARM GAS  /tmp/claude-502/ccU8FNgW.s 			page 15


 513              	.LBB323:
 514              	.LBI323:
  33:src/dsp.h     ****     if(ms <= 0.0f) return 0.0f;            // instant
 515              		.loc 2 33 21 is_stmt 1 view .LVU170
 516              	.LBB324:
  34:src/dsp.h     ****     return expf(-1.0f / (ms * 0.001f * sr));
 517              		.loc 2 34 5 view .LVU171
 518 00a4 F5EEC07A 		vcmpe.f32	s15, #0
 519 00a8 F1EE10FA 		vmrs	APSR_nzcv, FPSCR
 520 00ac 41F29183 		bls	.L205
 521              	.LVL41:
 522              	.LBB325:
 523              	.LBI325:
  33:src/dsp.h     ****     if(ms <= 0.0f) return 0.0f;            // instant
 524              		.loc 2 33 21 view .LVU172
 525              	.LBB326:
 526              		.loc 2 35 5 view .LVU173
 527              		.loc 2 35 29 is_stmt 0 view .LVU174
 528 00b0 9FED6E7A 		vldr.32	s14, .L354+60
 529              		.loc 2 35 16 view .LVU175
 530 00b4 BFEE000A 		vmov.f32	s0, #-1.0e+0
 531              	.LVL42:
 532              		.loc 2 35 29 view .LVU176
 533 00b8 67EE877A 		vmul.f32	s15, s15, s14
 534              	.LVL43:
 535              		.loc 2 35 38 view .LVU177
 536 00bc 67EE887A 		vmul.f32	s15, s15, s16
 537              		.loc 2 35 16 view .LVU178
 538 00c0 80EE270A 		vdiv.f32	s0, s0, s15
 539 00c4 FFF7FEFF 		bl	expf
 540              	.LVL44:
 541              	.L20:
 542              		.loc 2 35 16 view .LVU179
 543              	.LBE326:
 544              	.LBE325:
 545              	.LBE324:
 546              	.LBE323:
 172:src/engine.cpp ****         s_atk_c      = ms_to_coeff(VOICE.attack_ms,    sr);
 547              		.loc 1 172 42 view .LVU180
 548 00c8 9C23     		movs	r3, #156
 549 00ca 009A     		ldr	r2, [sp]
 550 00cc 03FB0253 		mla	r3, r3, r2, r5
 551 00d0 D3ED197A 		vldr.32	s15, [r3, #100]
 171:src/engine.cpp ****         s_atk_c      = ms_to_coeff(VOICE.attack_ms,    sr);
 552              		.loc 1 171 22 view .LVU181
 553 00d4 664B     		ldr	r3, .L354+64
 554              	.LBB328:
 555              	.LBB329:
  34:src/dsp.h     ****     return expf(-1.0f / (ms * 0.001f * sr));
 556              		.loc 2 34 5 view .LVU182
 557 00d6 F5EEC07A 		vcmpe.f32	s15, #0
 558              	.LBE329:
 559              	.LBE328:
 171:src/engine.cpp ****         s_atk_c      = ms_to_coeff(VOICE.attack_ms,    sr);
 560              		.loc 1 171 22 view .LVU183
 561 00da 83ED000A 		vstr.32	s0, [r3]
 562              		.loc 1 172 9 is_stmt 1 view .LVU184
ARM GAS  /tmp/claude-502/ccU8FNgW.s 			page 16


 563              	.LVL45:
 564              	.LBB334:
 565              	.LBI328:
  33:src/dsp.h     ****     if(ms <= 0.0f) return 0.0f;            // instant
 566              		.loc 2 33 21 view .LVU185
 567              	.LBB332:
  34:src/dsp.h     ****     return expf(-1.0f / (ms * 0.001f * sr));
 568              		.loc 2 34 5 view .LVU186
 569 00de F1EE10FA 		vmrs	APSR_nzcv, FPSCR
 570 00e2 41F29283 		bls	.L206
 571              	.LVL46:
 572              	.LBB330:
 573              	.LBI330:
  33:src/dsp.h     ****     if(ms <= 0.0f) return 0.0f;            // instant
 574              		.loc 2 33 21 view .LVU187
 575              	.LBB331:
 576              		.loc 2 35 5 view .LVU188
 577              		.loc 2 35 29 is_stmt 0 view .LVU189
 578 00e6 9FED617A 		vldr.32	s14, .L354+60
 579              		.loc 2 35 16 view .LVU190
 580 00ea BFEE000A 		vmov.f32	s0, #-1.0e+0
 581              		.loc 2 35 29 view .LVU191
 582 00ee 67EE877A 		vmul.f32	s15, s15, s14
 583              	.LVL47:
 584              		.loc 2 35 38 view .LVU192
 585 00f2 67EE887A 		vmul.f32	s15, s15, s16
 586              		.loc 2 35 16 view .LVU193
 587 00f6 80EE270A 		vdiv.f32	s0, s0, s15
 588 00fa FFF7FEFF 		bl	expf
 589              	.LVL48:
 590              	.L21:
 591              		.loc 2 35 16 view .LVU194
 592              	.LBE331:
 593              	.LBE330:
 594              	.LBE332:
 595              	.LBE334:
 173:src/engine.cpp ****         s_rel_c      = ms_to_coeff(VOICE.release_ms,   sr);
 596              		.loc 1 173 42 view .LVU195
 597 00fe 9C23     		movs	r3, #156
 598 0100 009A     		ldr	r2, [sp]
 599 0102 03FB0253 		mla	r3, r3, r2, r5
 600 0106 D3ED1A7A 		vldr.32	s15, [r3, #104]
 172:src/engine.cpp ****         s_rel_c      = ms_to_coeff(VOICE.release_ms,   sr);
 601              		.loc 1 172 22 view .LVU196
 602 010a 5A4B     		ldr	r3, .L354+68
 603              	.LBB335:
 604              	.LBB336:
  34:src/dsp.h     ****     return expf(-1.0f / (ms * 0.001f * sr));
 605              		.loc 2 34 5 view .LVU197
 606 010c F5EEC07A 		vcmpe.f32	s15, #0
 607              	.LBE336:
 608              	.LBE335:
 172:src/engine.cpp ****         s_rel_c      = ms_to_coeff(VOICE.release_ms,   sr);
 609              		.loc 1 172 22 view .LVU198
 610 0110 83ED000A 		vstr.32	s0, [r3]
 611              		.loc 1 173 9 is_stmt 1 view .LVU199
 612              	.LVL49:
ARM GAS  /tmp/claude-502/ccU8FNgW.s 			page 17


 613              	.LBB341:
 614              	.LBI335:
  33:src/dsp.h     ****     if(ms <= 0.0f) return 0.0f;            // instant
 615              		.loc 2 33 21 view .LVU200
 616              	.LBB339:
  34:src/dsp.h     ****     return expf(-1.0f / (ms * 0.001f * sr));
 617              		.loc 2 34 5 view .LVU201
 618 0114 F1EE10FA 		vmrs	APSR_nzcv, FPSCR
 619 0118 41F27383 		bls	.L207
 620              	.LVL50:
 621              	.LBB337:
 622              	.LBI337:
  33:src/dsp.h     ****     if(ms <= 0.0f) return 0.0f;            // instant
 623              		.loc 2 33 21 view .LVU202
 624              	.LBB338:
 625              		.loc 2 35 5 view .LVU203
 626              		.loc 2 35 29 is_stmt 0 view .LVU204
 627 011c 9FED537A 		vldr.32	s14, .L354+60
 628              		.loc 2 35 16 view .LVU205
 629 0120 BFEE000A 		vmov.f32	s0, #-1.0e+0
 630              		.loc 2 35 29 view .LVU206
 631 0124 67EE877A 		vmul.f32	s15, s15, s14
 632              	.LVL51:
 633              		.loc 2 35 38 view .LVU207
 634 0128 67EE887A 		vmul.f32	s15, s15, s16
 635              		.loc 2 35 16 view .LVU208
 636 012c 80EE270A 		vdiv.f32	s0, s0, s15
 637 0130 FFF7FEFF 		bl	expf
 638              	.LVL52:
 639              	.L22:
 640              		.loc 2 35 16 view .LVU209
 641              	.LBE338:
 642              	.LBE337:
 643              	.LBE339:
 644              	.LBE341:
 174:src/engine.cpp ****         s_penv_c     = ms_to_coeff(VOICE.pitch_env_ms, sr);
 645              		.loc 1 174 42 view .LVU210
 646 0134 009B     		ldr	r3, [sp]
 647 0136 9C26     		movs	r6, #156
 648 0138 06FB0356 		mla	r6, r6, r3, r5
 173:src/engine.cpp ****         s_penv_c     = ms_to_coeff(VOICE.pitch_env_ms, sr);
 649              		.loc 1 173 22 view .LVU211
 650 013c 4E4B     		ldr	r3, .L354+72
 651              		.loc 1 174 42 view .LVU212
 652 013e D6ED1D7A 		vldr.32	s15, [r6, #116]
 173:src/engine.cpp ****         s_penv_c     = ms_to_coeff(VOICE.pitch_env_ms, sr);
 653              		.loc 1 173 22 view .LVU213
 654 0142 83ED000A 		vstr.32	s0, [r3]
 655              		.loc 1 174 9 is_stmt 1 view .LVU214
 656              	.LVL53:
 657              	.LBB342:
 658              	.LBI342:
  33:src/dsp.h     ****     if(ms <= 0.0f) return 0.0f;            // instant
 659              		.loc 2 33 21 view .LVU215
 660              	.LBB343:
  34:src/dsp.h     ****     return expf(-1.0f / (ms * 0.001f * sr));
 661              		.loc 2 34 5 view .LVU216
ARM GAS  /tmp/claude-502/ccU8FNgW.s 			page 18


 662 0146 0023     		movs	r3, #0
 663 0148 F5EEC07A 		vcmpe.f32	s15, #0
 664 014c F1EE10FA 		vmrs	APSR_nzcv, FPSCR
 665 0150 41F25183 		bls	.L23
 666              	.LVL54:
 667              	.LBB344:
 668              	.LBI344:
  33:src/dsp.h     ****     if(ms <= 0.0f) return 0.0f;            // instant
 669              		.loc 2 33 21 view .LVU217
 670              	.LBB345:
 671              		.loc 2 35 5 view .LVU218
 672              		.loc 2 35 29 is_stmt 0 view .LVU219
 673 0154 9FED457A 		vldr.32	s14, .L354+60
 674              		.loc 2 35 16 view .LVU220
 675 0158 BFEE000A 		vmov.f32	s0, #-1.0e+0
 676              		.loc 2 35 29 view .LVU221
 677 015c 67EE877A 		vmul.f32	s15, s15, s14
 678              	.LVL55:
 679              		.loc 2 35 38 view .LVU222
 680 0160 67EE887A 		vmul.f32	s15, s15, s16
 681              		.loc 2 35 16 view .LVU223
 682 0164 80EE270A 		vdiv.f32	s0, s0, s15
 683 0168 FFF7FEFF 		bl	expf
 684              	.LVL56:
 685              		.loc 2 35 16 view .LVU224
 686              	.LBE345:
 687              	.LBE344:
 688              	.LBE343:
 689              	.LBE342:
 690              		.loc 1 174 22 view .LVU225
 691 016c 434B     		ldr	r3, .L354+76
 692              	.LBB349:
 693              	.LBB348:
 694              	.LBB347:
 695              	.LBB346:
 696              		.loc 2 35 16 view .LVU226
 697 016e F0EE407A 		vmov.f32	s15, s0
 698              	.LBE346:
 699              	.LBE347:
 700              	.LBE348:
 701              	.LBE349:
 175:src/engine.cpp ****         s_penv_start = exp2f(VOICE.pitch_env_oct);   // 1.0 when pitch_env_oct == 0
 702              		.loc 1 175 29 view .LVU227
 703 0172 96ED1C0A 		vldr.32	s0, [r6, #112]
 174:src/engine.cpp ****         s_penv_start = exp2f(VOICE.pitch_env_oct);   // 1.0 when pitch_env_oct == 0
 704              		.loc 1 174 22 view .LVU228
 705 0176 C3ED007A 		vstr.32	s15, [r3]
 706              	.L323:
 707              		.loc 1 175 9 is_stmt 1 view .LVU229
 708              		.loc 1 175 29 is_stmt 0 view .LVU230
 709 017a FFF7FEFF 		bl	exp2f
 710              	.LVL57:
 176:src/engine.cpp ****         // decay_ms == 0 → no decay: floor 1.0 so s_decay stays pinned at 1 (the
 177:src/engine.cpp ****         // gated note holds full, unchanged). decay_ms > 0 → decay toward sustain.
 178:src/engine.cpp ****         s_decay_c    = (VOICE.decay_ms > 0.0f) ? ms_to_coeff(VOICE.decay_ms, sr) : 0.0f;
 711              		.loc 1 178 31 view .LVU231
 712 017e D6ED257A 		vldr.32	s15, [r6, #148]
ARM GAS  /tmp/claude-502/ccU8FNgW.s 			page 19


 175:src/engine.cpp ****         // decay_ms == 0 → no decay: floor 1.0 so s_decay stays pinned at 1 (the
 713              		.loc 1 175 22 view .LVU232
 714 0182 3F4B     		ldr	r3, .L354+80
 715              		.loc 1 178 48 view .LVU233
 716 0184 F5EEC07A 		vcmpe.f32	s15, #0
 175:src/engine.cpp ****         // decay_ms == 0 → no decay: floor 1.0 so s_decay stays pinned at 1 (the
 717              		.loc 1 175 22 view .LVU234
 718 0188 83ED000A 		vstr.32	s0, [r3]
 719              		.loc 1 178 9 is_stmt 1 view .LVU235
 720              		.loc 1 178 48 is_stmt 0 view .LVU236
 721 018c F1EE10FA 		vmrs	APSR_nzcv, FPSCR
 722 0190 41F33F83 		ble	.L24
 723              	.LVL58:
 724              	.LBB350:
 725              	.LBB351:
 726              	.LBI351:
  33:src/dsp.h     ****     if(ms <= 0.0f) return 0.0f;            // instant
 727              		.loc 2 33 21 is_stmt 1 view .LVU237
 728              	.LBB352:
 729              		.loc 2 35 5 view .LVU238
 730              		.loc 2 35 29 is_stmt 0 view .LVU239
 731 0194 9FED357A 		vldr.32	s14, .L354+60
 732              		.loc 2 35 16 view .LVU240
 733 0198 BFEE000A 		vmov.f32	s0, #-1.0e+0
 734              		.loc 2 35 29 view .LVU241
 735 019c 67EE877A 		vmul.f32	s15, s15, s14
 736              	.LVL59:
 737              		.loc 2 35 38 view .LVU242
 738 01a0 67EE887A 		vmul.f32	s15, s15, s16
 739              		.loc 2 35 16 view .LVU243
 740 01a4 80EE270A 		vdiv.f32	s0, s0, s15
 741 01a8 FFF7FEFF 		bl	expf
 742              	.LVL60:
 743              		.loc 2 35 16 view .LVU244
 744              	.LBE352:
 745              	.LBE351:
 746              	.LBE350:
 747              		.loc 1 178 22 view .LVU245
 748 01ac 354B     		ldr	r3, .L354+84
 749 01ae 83ED000A 		vstr.32	s0, [r3]
 179:src/engine.cpp ****         s_sustain    = (VOICE.decay_ms > 0.0f) ? VOICE.sustain : 1.0f;
 750              		.loc 1 179 9 is_stmt 1 view .LVU246
 751              	.L26:
 752              		.loc 1 179 48 is_stmt 0 discriminator 1 view .LVU247
 753 01b2 009A     		ldr	r2, [sp]
 754 01b4 9C23     		movs	r3, #156
 755 01b6 03FB0255 		mla	r5, r3, r2, r5
 756 01ba D5F89820 		ldr	r2, [r5, #152]	@ float
 757              	.L27:
 180:src/engine.cpp ****         s_coeff_vi   = vi;
 758              		.loc 1 180 22 discriminator 4 view .LVU248
 759 01be 009B     		ldr	r3, [sp]
 181:src/engine.cpp ****         // New voice: snap the continuous DSP state to this voice's targets so the
 182:src/engine.cpp ****         // previous voice's settings don't bleed in (esp. the slow-closing cutoff
 183:src/engine.cpp ****         // and the ladder filter's stored energy). Voice changes only happen while
 184:src/engine.cpp ****         // silent (FSR gesture) or at a drum-tap onset, so snapping is clean and
 185:src/engine.cpp ****         // gives each MultiVoice hit a fresh start.
ARM GAS  /tmp/claude-502/ccU8FNgW.s 			page 20


 186:src/engine.cpp ****         s_freq     = tfreq;
 760              		.loc 1 186 20 discriminator 4 view .LVU249
 761 01c0 DFF8E490 		ldr	r9, .L354+120
 180:src/engine.cpp ****         s_coeff_vi   = vi;
 762              		.loc 1 180 22 discriminator 4 view .LVU250
 763 01c4 2360     		str	r3, [r4]
 187:src/engine.cpp ****         s_cutoff   = tcut;
 188:src/engine.cpp ****         s_drive    = tdrv;
 189:src/engine.cpp ****         s_detune   = tdet;
 190:src/engine.cpp ****         s_bitcrush = tbc;
 191:src/engine.cpp ****         s_ringmod  = trm;
 192:src/engine.cpp ****         s_flt[0] = s_flt[1] = s_flt[2] = s_flt[3] = 0.0f;
 764              		.loc 1 192 51 discriminator 4 view .LVU251
 765 01c6 0023     		movs	r3, #0
 766 01c8 2F4C     		ldr	r4, .L354+88
 186:src/engine.cpp ****         s_cutoff   = tcut;
 767              		.loc 1 186 20 discriminator 4 view .LVU252
 768 01ca DDED077A 		vldr.32	s15, [sp, #28]
 769              		.loc 1 192 51 discriminator 4 view .LVU253
 770 01ce E360     		str	r3, [r4, #12]	@ float
 771              		.loc 1 192 40 discriminator 4 view .LVU254
 772 01d0 A360     		str	r3, [r4, #8]	@ float
 773              		.loc 1 192 29 discriminator 4 view .LVU255
 774 01d2 6360     		str	r3, [r4, #4]	@ float
 775              		.loc 1 192 18 discriminator 4 view .LVU256
 776 01d4 2360     		str	r3, [r4]	@ float
 179:src/engine.cpp ****         s_coeff_vi   = vi;
 777              		.loc 1 179 22 discriminator 4 view .LVU257
 778 01d6 2D4B     		ldr	r3, .L354+92
 188:src/engine.cpp ****         s_detune   = tdet;
 779              		.loc 1 188 20 discriminator 4 view .LVU258
 780 01d8 DFF8D080 		ldr	r8, .L354+124
 179:src/engine.cpp ****         s_coeff_vi   = vi;
 781              		.loc 1 179 22 discriminator 4 view .LVU259
 782 01dc 1A60     		str	r2, [r3]	@ float
 180:src/engine.cpp ****         // New voice: snap the continuous DSP state to this voice's targets so the
 783              		.loc 1 180 9 is_stmt 1 discriminator 4 view .LVU260
 186:src/engine.cpp ****         s_cutoff   = tcut;
 784              		.loc 1 186 9 discriminator 4 view .LVU261
 187:src/engine.cpp ****         s_drive    = tdrv;
 785              		.loc 1 187 20 is_stmt 0 discriminator 4 view .LVU262
 786 01de 2C4B     		ldr	r3, .L354+96
 186:src/engine.cpp ****         s_cutoff   = tcut;
 787              		.loc 1 186 20 discriminator 4 view .LVU263
 788 01e0 C9ED007A 		vstr.32	s15, [r9]
 187:src/engine.cpp ****         s_drive    = tdrv;
 789              		.loc 1 187 9 is_stmt 1 discriminator 4 view .LVU264
 187:src/engine.cpp ****         s_drive    = tdrv;
 790              		.loc 1 187 20 is_stmt 0 discriminator 4 view .LVU265
 791 01e4 C3ED00CA 		vstr.32	s25, [r3]
 188:src/engine.cpp ****         s_detune   = tdet;
 792              		.loc 1 188 9 is_stmt 1 discriminator 4 view .LVU266
 189:src/engine.cpp ****         s_bitcrush = tbc;
 793              		.loc 1 189 20 is_stmt 0 discriminator 4 view .LVU267
 794 01e8 2A4B     		ldr	r3, .L354+100
 188:src/engine.cpp ****         s_detune   = tdet;
 795              		.loc 1 188 20 discriminator 4 view .LVU268
ARM GAS  /tmp/claude-502/ccU8FNgW.s 			page 21


 796 01ea C8ED009A 		vstr.32	s19, [r8]
 189:src/engine.cpp ****         s_bitcrush = tbc;
 797              		.loc 1 189 9 is_stmt 1 discriminator 4 view .LVU269
 189:src/engine.cpp ****         s_bitcrush = tbc;
 798              		.loc 1 189 20 is_stmt 0 discriminator 4 view .LVU270
 799 01ee C3ED00FA 		vstr.32	s31, [r3]
 190:src/engine.cpp ****         s_ringmod  = trm;
 800              		.loc 1 190 9 is_stmt 1 discriminator 4 view .LVU271
 190:src/engine.cpp ****         s_ringmod  = trm;
 801              		.loc 1 190 20 is_stmt 0 discriminator 4 view .LVU272
 802 01f2 294B     		ldr	r3, .L354+104
 803 01f4 83ED00FA 		vstr.32	s30, [r3]
 191:src/engine.cpp ****         s_flt[0] = s_flt[1] = s_flt[2] = s_flt[3] = 0.0f;
 804              		.loc 1 191 9 is_stmt 1 discriminator 4 view .LVU273
 191:src/engine.cpp ****         s_flt[0] = s_flt[1] = s_flt[2] = s_flt[3] = 0.0f;
 805              		.loc 1 191 20 is_stmt 0 discriminator 4 view .LVU274
 806 01f8 284B     		ldr	r3, .L354+108
 807 01fa C3ED00EA 		vstr.32	s29, [r3]
 808              		.loc 1 192 9 is_stmt 1 discriminator 4 view .LVU275
 809              	.L19:
 193:src/engine.cpp ****     }
 194:src/engine.cpp **** 
 195:src/engine.cpp ****     // Pitch-envelope trigger: on a note onset (amp target rising from silence),
 196:src/engine.cpp ****     // jump the pitch multiplier up; it decays back to 1.0 over pitch_env_ms.
 197:src/engine.cpp ****     static float s_pmult     = 1.0f;
 810              		.loc 1 197 5 view .LVU276
 198:src/engine.cpp ****     static float s_prev_tamp = 0.0f;
 811              		.loc 1 198 5 view .LVU277
 199:src/engine.cpp ****     static float s_decay     = 1.0f;   // amp decay-to-sustain level (1 = peak)
 812              		.loc 1 199 5 view .LVU278
 200:src/engine.cpp ****     bool onset = (tamp > 0.001f && s_prev_tamp <= 0.001f);
 813              		.loc 1 200 5 view .LVU279
 814              		.loc 1 200 33 is_stmt 0 view .LVU280
 815 01fe DFED1B7A 		vldr.32	s15, .L354+60
 816              		.loc 1 200 48 view .LVU281
 817 0202 274B     		ldr	r3, .L354+112
 818              		.loc 1 200 33 view .LVU282
 819 0204 B4EEE7CA 		vcmpe.f32	s24, s15
 820 0208 F1EE10FA 		vmrs	APSR_nzcv, FPSCR
 821 020c 50DD     		ble	.L29
 822              		.loc 1 200 33 discriminator 1 view .LVU283
 823 020e 93ED007A 		vldr.32	s14, [r3]
 824 0212 B4EEE77A 		vcmpe.f32	s14, s15
 825 0216 F1EE10FA 		vmrs	APSR_nzcv, FPSCR
 826 021a 49D8     		bhi	.L29
 827              	.LVL61:
 201:src/engine.cpp ****     // Mono re-articulation: a re-attack while the note is held restarts the amp
 202:src/engine.cpp ****     // envelope from zero and retriggers the pitch envelope (poly drums handle
 203:src/engine.cpp ****     // their own retrigger via drum_trigger, so ignore it here).
 204:src/engine.cpp ****     if(g_retrig){ g_retrig = false; if(!poly_drums){ onset = true; s_amp = 0.0f; } }
 828              		.loc 1 204 5 is_stmt 1 view .LVU284
 829              		.loc 1 204 8 is_stmt 0 view .LVU285
 830 021c 214A     		ldr	r2, .L354+116
 831 021e 1178     		ldrb	r1, [r2]	@ zero_extendqisi2
 832              		.loc 1 204 5 view .LVU286
 833 0220 0029     		cmp	r1, #0
 834 0222 51D0     		beq	.L34
ARM GAS  /tmp/claude-502/ccU8FNgW.s 			page 22


 835              		.loc 1 204 19 is_stmt 1 view .LVU287
 836              		.loc 1 204 28 is_stmt 0 view .LVU288
 837 0224 0021     		movs	r1, #0
 838 0226 1170     		strb	r1, [r2]
 839              		.loc 1 204 37 is_stmt 1 view .LVU289
 840 0228 089A     		ldr	r2, [sp, #32]
 841 022a 0D2A     		cmp	r2, #13
 842 022c 48D1     		bne	.L32
 843 022e 4BE0     		b	.L34
 844              	.L355:
 845              		.align	2
 846              	.L354:
 847 0230 00000000 		.word	.LANCHOR1
 848 0234 00000000 		.word	.LANCHOR2
 849 0238 00000000 		.word	.LANCHOR3
 850 023c 00000000 		.word	.LANCHOR4
 851 0240 00000000 		.word	.LANCHOR5
 852 0244 00000000 		.word	.LANCHOR6
 853 0248 00000000 		.word	.LANCHOR7
 854 024c 00000000 		.word	.LANCHOR8
 855 0250 00000000 		.word	.LANCHOR9
 856 0254 00000000 		.word	.LANCHOR10
 857 0258 00000000 		.word	hw
 858 025c 00000000 		.word	g_active_voice
 859 0260 00000000 		.word	g_voice_idx
 860 0264 00000000 		.word	.LANCHOR11
 861 0268 00000000 		.word	.LANCHOR0
 862 026c 6F12833A 		.word	981668463
 863 0270 00000000 		.word	.LANCHOR12
 864 0274 00000000 		.word	.LANCHOR13
 865 0278 00000000 		.word	.LANCHOR14
 866 027c 00000000 		.word	.LANCHOR15
 867 0280 00000000 		.word	.LANCHOR16
 868 0284 00000000 		.word	.LANCHOR17
 869 0288 00000000 		.word	.LANCHOR25
 870 028c 00000000 		.word	.LANCHOR18
 871 0290 00000000 		.word	.LANCHOR20
 872 0294 00000000 		.word	.LANCHOR22
 873 0298 00000000 		.word	.LANCHOR23
 874 029c 00000000 		.word	.LANCHOR24
 875 02a0 00000000 		.word	.LANCHOR26
 876 02a4 00000000 		.word	.LANCHOR27
 877 02a8 00000000 		.word	.LANCHOR19
 878 02ac 00000000 		.word	.LANCHOR21
 879              	.LVL62:
 880              	.L29:
 881              		.loc 1 204 5 view .LVU290
 882              		.loc 1 204 8 is_stmt 0 view .LVU291
 883 02b0 454A     		ldr	r2, .L356
 884 02b2 1178     		ldrb	r1, [r2]	@ zero_extendqisi2
 885              		.loc 1 204 5 view .LVU292
 886 02b4 91B1     		cbz	r1, .L33
 887              		.loc 1 204 19 is_stmt 1 view .LVU293
 888              		.loc 1 204 28 is_stmt 0 view .LVU294
 889 02b6 0021     		movs	r1, #0
 890 02b8 1170     		strb	r1, [r2]
 891              		.loc 1 204 37 is_stmt 1 view .LVU295
ARM GAS  /tmp/claude-502/ccU8FNgW.s 			page 23


 892 02ba 089A     		ldr	r2, [sp, #32]
 893 02bc 0D2A     		cmp	r2, #13
 894 02be 0DD0     		beq	.L33
 895              	.LVL63:
 896              	.L32:
 897              		.loc 1 204 54 view .LVU296
 898              		.loc 1 204 68 view .LVU297
 899              		.loc 1 204 74 is_stmt 0 view .LVU298
 900 02c0 424A     		ldr	r2, .L356+4
 901 02c2 1146     		mov	r1, r2
 902 02c4 0022     		movs	r2, #0
 903 02c6 0A60     		str	r2, [r1]	@ float
 205:src/engine.cpp ****     if(onset){ s_pmult = s_penv_start; s_decay = 1.0f; }  // fresh note → reset decay to peak
 904              		.loc 1 205 5 is_stmt 1 view .LVU299
 905              	.L34:
 906              	.LVL64:
 907              		.loc 1 205 16 discriminator 1 view .LVU300
 908              		.loc 1 205 24 is_stmt 0 discriminator 1 view .LVU301
 909 02c8 414A     		ldr	r2, .L356+8
 910 02ca 4248     		ldr	r0, .L356+12
 911 02cc 1168     		ldr	r1, [r2]	@ float
 912              		.loc 1 205 48 discriminator 1 view .LVU302
 913 02ce 4FF07E52 		mov	r2, #1065353216
 914 02d2 DFF834B1 		ldr	fp, .L356+64
 915              		.loc 1 205 24 discriminator 1 view .LVU303
 916 02d6 0160     		str	r1, [r0]	@ float
 917              		.loc 1 205 40 is_stmt 1 discriminator 1 view .LVU304
 918              		.loc 1 205 48 is_stmt 0 discriminator 1 view .LVU305
 919 02d8 CBF80020 		str	r2, [fp]	@ float
 920              	.L33:
 206:src/engine.cpp ****     s_prev_tamp = tamp;
 921              		.loc 1 206 5 is_stmt 1 view .LVU306
 922              		.loc 1 206 17 is_stmt 0 view .LVU307
 923 02dc 83ED00CA 		vstr.32	s24, [r3]
 207:src/engine.cpp **** 
 208:src/engine.cpp ****     for(size_t i=0;i<size;i++)
 924              		.loc 1 208 5 is_stmt 1 view .LVU308
 925              	.LVL65:
 926              	.LBB353:
 927              		.loc 1 208 21 view .LVU309
 928 02e0 069B     		ldr	r3, [sp, #24]
 929 02e2 002B     		cmp	r3, #0
 930 02e4 00F0EE87 		beq	.L15
 931              	.LBB354:
 209:src/engine.cpp ****     {
 210:src/engine.cpp ****         // Slew all parameters
 211:src/engine.cpp ****         s_freq    = s_freq   *s_glide_c + tfreq*(1.0f-s_glide_c);
 212:src/engine.cpp ****         // Cutoff: fast when opening (smoothed), slow when closing (with release)
 213:src/engine.cpp ****         { float sc = (tcut > s_cutoff) ? SLEW_CUT : s_rel_c;
 214:src/engine.cpp ****           s_cutoff = s_cutoff * sc + tcut * (1.0f - sc); }
 215:src/engine.cpp ****         s_drive   = s_drive   * SLEW_MISC + tdrv * (1.0f - SLEW_MISC);
 216:src/engine.cpp ****         s_vibdepth= s_vibdepth* SLEW_MISC + tvib * (1.0f - SLEW_MISC);
 217:src/engine.cpp ****         // Finger 2 params: fast attack, slow release
 218:src/engine.cpp ****         { float sa = tdet     > s_detune   ? SLEW_F2_A : SLEW_F2_R;
 219:src/engine.cpp ****           s_detune   = s_detune   * sa + tdet * (1.0f - sa); }
 220:src/engine.cpp ****         { float sa = tbc      > s_bitcrush ? SLEW_F2_A : SLEW_F2_R;
 221:src/engine.cpp ****           s_bitcrush = s_bitcrush * sa + tbc  * (1.0f - sa); }
ARM GAS  /tmp/claude-502/ccU8FNgW.s 			page 24


 222:src/engine.cpp ****         { float sa = trm      > s_ringmod  ? SLEW_F2_A : SLEW_F2_R;
 223:src/engine.cpp ****           s_ringmod  = s_ringmod  * sa + trm  * (1.0f - sa); }
 224:src/engine.cpp ****         // Amp decay-to-sustain: s_decay rides 1 → sustain over decay_ms while the
 225:src/engine.cpp ****         // note is gated (stays pinned at 1 when decay_ms == 0, i.e. every other
 226:src/engine.cpp ****         // voice). It scales the gated target so the note plucks down to `sustain`.
 227:src/engine.cpp ****         s_decay = s_decay * s_decay_c + s_sustain * (1.0f - s_decay_c);
 228:src/engine.cpp ****         float eff_tamp = tamp * s_decay;
 229:src/engine.cpp ****         // Asymmetric envelope: attack while rising OR decaying-while-held (track the
 230:src/engine.cpp ****         // decay shape quickly — its rate comes from s_decay); release only once the
 231:src/engine.cpp ****         // note is actually let go (tamp → 0).
 232:src/engine.cpp ****         float slew_amp = (eff_tamp > s_amp || tamp > 0.001f) ? s_atk_c : s_rel_c;
 233:src/engine.cpp ****         s_amp = s_amp * slew_amp + eff_tamp * (1.0f - slew_amp);
 234:src/engine.cpp ****         // Master volume slew (smooths FSR jitter / 16 Hz update steps).
 235:src/engine.cpp ****         s_master_vol = s_master_vol * SLEW_MISC + tmvol * (1.0f - SLEW_MISC);
 236:src/engine.cpp ****         // Pitch envelope decays toward 1.0 (no-op when pitch_env_oct == 0).
 237:src/engine.cpp ****         s_pmult = 1.0f + (s_pmult - 1.0f) * s_penv_c;
 238:src/engine.cpp **** 
 239:src/engine.cpp ****         // Bleed filter state toward zero when silent
 240:src/engine.cpp ****         // Prevents stale filter energy from clicking on next note onset
 241:src/engine.cpp ****         if(s_amp < 0.001f) {
 242:src/engine.cpp ****             s_flt[0] *= 0.999f;
 243:src/engine.cpp ****             s_flt[1] *= 0.999f;
 244:src/engine.cpp ****             s_flt[2] *= 0.999f;
 245:src/engine.cpp ****             s_flt[3] *= 0.999f;
 246:src/engine.cpp ****         }
 247:src/engine.cpp **** 
 248:src/engine.cpp ****         // During release, close cutoff in sync with amplitude
 249:src/engine.cpp ****         // This prevents clicks from abrupt filter state changes
 250:src/engine.cpp ****         if(tamp < 0.001f && s_amp > 0.0001f) {
 251:src/engine.cpp ****             // Pull cutoff toward silence-floor proportional to amp decay
 252:src/engine.cpp ****             float close_target = 30.0f + s_amp * tcut;
 253:src/engine.cpp ****             tcut = close_target;
 254:src/engine.cpp ****         }
 255:src/engine.cpp **** 
 256:src/engine.cpp ****         // LFO for vibrato (6 Hz sine approximation via triangle)
 257:src/engine.cpp ****         s_lfo_phase += 6.0f/sr;
 932              		.loc 1 257 28 is_stmt 0 view .LVU310
 933 02e8 B1EE087A 		vmov.f32	s14, #6.0e+0
 215:src/engine.cpp ****         s_vibdepth= s_vibdepth* SLEW_MISC + tvib * (1.0f - SLEW_MISC);
 934              		.loc 1 215 50 view .LVU311
 935 02ec DFED3A7A 		vldr.32	s15, .L356+16
 936              	.LBB355:
 258:src/engine.cpp ****         if(s_lfo_phase>=1.0f)s_lfo_phase-=1.0f;
 259:src/engine.cpp ****         float lfo = tri(s_lfo_phase); // -1..1
 260:src/engine.cpp **** 
 261:src/engine.cpp ****         // Vibrato: modulate frequency by ±1 semitone * depth
 262:src/engine.cpp ****         // powf(2, semitones/12) — approx for small values: exp(x*0.0578)
 263:src/engine.cpp ****         float vib_amt = lfo * s_vibdepth * 0.05f; // max ±~0.05 semitones*depth
 264:src/engine.cpp ****         float freq_vib = s_freq * (1.0f + vib_amt) * s_pmult;  // s_pmult: pitch-env sweep
 265:src/engine.cpp **** 
 266:src/engine.cpp ****         // Osc 2 frequency. Lead: finger-2 detune around the base ratio.
 267:src/engine.cpp ****         // Bass (and any fixed-interval voice): hold osc2_ratio (e.g. a 5th).
 268:src/engine.cpp ****         // VOICE is constexpr, so only the taken branch is compiled in.
 269:src/engine.cpp ****         float freq2;
 270:src/engine.cpp ****         if(VOICE.osc2_detune) {
 937              		.loc 1 270 18 view .LVU312
 938 02f0 009A     		ldr	r2, [sp]
ARM GAS  /tmp/claude-502/ccU8FNgW.s 			page 25


 939 02f2 9C23     		movs	r3, #156
 940 02f4 394D     		ldr	r5, .L356+20
 941              	.LBE355:
 942              	.LBE354:
 208:src/engine.cpp ****     {
 943              		.loc 1 208 16 view .LVU313
 944 02f6 0026     		movs	r6, #0
 945              	.LBB908:
 257:src/engine.cpp ****         if(s_lfo_phase>=1.0f)s_lfo_phase-=1.0f;
 946              		.loc 1 257 28 view .LVU314
 947 02f8 87EE087A 		vdiv.f32	s14, s14, s16
 948 02fc DFF80C91 		ldr	r9, .L356+68
 949              	.LBB357:
 950              		.loc 1 270 18 view .LVU315
 951 0300 03FB0253 		mla	r3, r3, r2, r5
 952 0304 DFF80881 		ldr	r8, .L356+72
 953 0308 354C     		ldr	r4, .L356+24
 954 030a 93F83D20 		ldrb	r2, [r3, #61]	@ zero_extendqisi2
 955 030e DFF8F8B0 		ldr	fp, .L356+64
 956 0312 0F92     		str	r2, [sp, #60]
 957              	.LBE357:
 271:src/engine.cpp ****             float det_ratio = 1.0f + s_detune * 0.05776f; // linear approx, good for ±1 oct
 272:src/engine.cpp ****             freq2 = freq_vib * VOICE.osc2_ratio * det_ratio;
 273:src/engine.cpp ****         } else {
 274:src/engine.cpp ****             freq2 = freq_vib * VOICE.osc2_ratio;
 275:src/engine.cpp ****         }
 276:src/engine.cpp **** 
 277:src/engine.cpp ****         // Sub and octave oscillators (ratios are voice-defined).
 278:src/engine.cpp ****         float freq_sub = freq_vib * VOICE.sub_ratio;
 279:src/engine.cpp ****         float freq_oct = freq_vib * VOICE.oct_ratio;
 280:src/engine.cpp **** 
 281:src/engine.cpp ****         // Ring mod carrier. ringmod_ratio=1.0 is unison; non-integer ratios give
 282:src/engine.cpp ****         // inharmonic bell/metallic tones.
 283:src/engine.cpp ****         float freq_rm = freq_vib * VOICE.ringmod_ratio;
 284:src/engine.cpp **** 
 285:src/engine.cpp ****         // Oscillators (mix levels are voice-defined).
 286:src/engine.cpp ****         float osc1    = osc(s_phase1,   VOICE.osc1_wave) * VOICE.osc1_level;
 958              		.loc 1 286 47 view .LVU316
 959 0314 1A7E     		ldrb	r2, [r3, #24]	@ zero_extendqisi2
 960 0316 1392     		str	r2, [sp, #76]
 287:src/engine.cpp ****         float osc2    = osc(s_phase2,   VOICE.osc2_wave) * VOICE.osc2_level;
 961              		.loc 1 287 47 view .LVU317
 962 0318 93F82420 		ldrb	r2, [r3, #36]	@ zero_extendqisi2
 963 031c 1492     		str	r2, [sp, #80]
 288:src/engine.cpp ****         float sub     = osc(s_phase_sub,VOICE.sub_wave)  * VOICE.sub_level;
 964              		.loc 1 288 47 view .LVU318
 965 031e 93F83020 		ldrb	r2, [r3, #48]	@ zero_extendqisi2
 966 0322 1592     		str	r2, [sp, #84]
 289:src/engine.cpp ****         float osc_oct = osc(s_phase_oct,VOICE.oct_wave)  * VOICE.oct_level;
 967              		.loc 1 289 47 view .LVU319
 968 0324 93F83C20 		ldrb	r2, [r3, #60]	@ zero_extendqisi2
 257:src/engine.cpp ****         if(s_lfo_phase>=1.0f)s_lfo_phase-=1.0f;
 969              		.loc 1 257 28 view .LVU320
 970 0328 8DED0E7A 		vstr.32	s14, [sp, #56]
 215:src/engine.cpp ****         s_vibdepth= s_vibdepth* SLEW_MISC + tvib * (1.0f - SLEW_MISC);
 971              		.loc 1 215 50 view .LVU321
 972 032c 29EEA77A 		vmul.f32	s14, s19, s15
ARM GAS  /tmp/claude-502/ccU8FNgW.s 			page 26


 973              		.loc 1 289 47 view .LVU322
 974 0330 1692     		str	r2, [sp, #88]
 215:src/engine.cpp ****         s_vibdepth= s_vibdepth* SLEW_MISC + tvib * (1.0f - SLEW_MISC);
 975              		.loc 1 215 50 view .LVU323
 976 0332 8DED0B7A 		vstr.32	s14, [sp, #44]
 216:src/engine.cpp ****         // Finger 2 params: fast attack, slow release
 977              		.loc 1 216 50 view .LVU324
 978 0336 29EE277A 		vmul.f32	s14, s18, s15
 235:src/engine.cpp ****         // Pitch envelope decays toward 1.0 (no-op when pitch_env_oct == 0).
 979              		.loc 1 235 57 view .LVU325
 980 033a 68EEA77A 		vmul.f32	s15, s17, s15
 216:src/engine.cpp ****         // Finger 2 params: fast attack, slow release
 981              		.loc 1 216 50 view .LVU326
 982 033e 8DED0C7A 		vstr.32	s14, [sp, #48]
 235:src/engine.cpp ****         // Pitch envelope decays toward 1.0 (no-op when pitch_env_oct == 0).
 983              		.loc 1 235 57 view .LVU327
 984 0342 CDED0D7A 		vstr.32	s15, [sp, #52]
 278:src/engine.cpp ****         float freq_oct = freq_vib * VOICE.oct_ratio;
 985              		.loc 1 278 43 view .LVU328
 986 0346 D3ED0A7A 		vldr.32	s15, [r3, #40]
 987              	.LBB358:
 988              	.LBB359:
 989              	.LBB360:
  36:src/dsp.h     **** }
  37:src/dsp.h     **** 
  38:src/dsp.h     **** // ── Oscillator waveforms (phase ph in [0,1) → sample in [-1,1]) ─────────
  39:src/dsp.h     **** // Triangle wave
  40:src/dsp.h     **** static inline float tri(float ph){
  41:src/dsp.h     ****     return ph<0.5f?(4.0f*ph-1.0f):(3.0f-4.0f*ph);
  42:src/dsp.h     **** }
  43:src/dsp.h     **** // Sine via parabolic approximation (no libm call) — matches sin(2π·ph).
  44:src/dsp.h     **** static inline float osc_sine(float ph){
  45:src/dsp.h     ****     constexpr float PI = 3.14159265f;
  46:src/dsp.h     ****     float x = ph*2.0f*PI - PI;                 // -π..π (angle shifted by π)
  47:src/dsp.h     ****     float y = 1.27323954f*x - 0.405284735f*x*(x<0?-x:x);
  48:src/dsp.h     ****     y = 0.225f*(y*(y<0?-y:y) - y) + y;         // one refinement pass
  49:src/dsp.h     ****     return -y;                                 // undo the π shift: sin(x+π) = -sin(x)
  50:src/dsp.h     **** }
  51:src/dsp.h     **** // Naive square / saw — alias at high pitch but sound rich on a bass voice.
  52:src/dsp.h     **** static inline float osc_square(float ph){ return ph<0.5f ? 1.0f : -1.0f; }
  53:src/dsp.h     **** static inline float osc_saw(float ph){ return 2.0f*ph - 1.0f; }
  54:src/dsp.h     **** 
  55:src/dsp.h     **** // Dispatch on a per-oscillator waveform (runtime, since the active voice can be
  56:src/dsp.h     **** // switched live). A small jump table — cheap at audio rate on the H750.
  57:src/dsp.h     **** static inline float osc(float ph, Waveform w){
  58:src/dsp.h     ****     switch(w){
  59:src/dsp.h     ****         case WAVE_SINE:   return osc_sine(ph);
  60:src/dsp.h     ****         case WAVE_SQUARE: return osc_square(ph);
  61:src/dsp.h     ****         case WAVE_SAW:    return osc_saw(ph);
  62:src/dsp.h     ****         case WAVE_TRI:
  63:src/dsp.h     ****         default:          return tri(ph);
  64:src/dsp.h     ****     }
  65:src/dsp.h     **** }
  66:src/dsp.h     **** 
  67:src/dsp.h     **** // Moog 4-pole ladder, operating on a caller-supplied state array (so multiple
  68:src/dsp.h     **** // voices can each have their own filter).
  69:src/dsp.h     **** static inline float moog_st(float in, float cutoff, float res, float sr, float st[4])
ARM GAS  /tmp/claude-502/ccU8FNgW.s 			page 27


  70:src/dsp.h     **** {
  71:src/dsp.h     ****     float f = 2.0f*cutoff/sr;
  72:src/dsp.h     ****     if(f>0.98f)f=0.98f;
  73:src/dsp.h     ****     float k  = 3.8f*res;
 990              		.loc 2 73 11 view .LVU329
 991 034a 9FED267A 		vldr.32	s14, .L356+28
 992              	.LBE360:
 993              	.LBE359:
 994              	.LBE358:
 278:src/engine.cpp ****         float freq_oct = freq_vib * VOICE.oct_ratio;
 995              		.loc 1 278 43 view .LVU330
 996 034e CDED107A 		vstr.32	s15, [sp, #64]
 279:src/engine.cpp **** 
 997              		.loc 1 279 43 view .LVU331
 998 0352 D3ED0D7A 		vldr.32	s15, [r3, #52]
 999 0356 CDED117A 		vstr.32	s15, [sp, #68]
 283:src/engine.cpp **** 
 1000              		.loc 1 283 42 view .LVU332
 1001 035a D3ED167A 		vldr.32	s15, [r3, #88]
 1002 035e CDED127A 		vstr.32	s15, [sp, #72]
 286:src/engine.cpp ****         float osc2    = osc(s_phase2,   VOICE.osc2_wave) * VOICE.osc2_level;
 1003              		.loc 1 286 66 view .LVU333
 1004 0362 D3ED057A 		vldr.32	s15, [r3, #20]
 1005 0366 CDED207A 		vstr.32	s15, [sp, #128]
 1006              	.LBB451:
 1007              	.LBB442:
 1008              	.LBB433:
 1009              		.loc 2 73 11 view .LVU334
 1010 036a D3ED127A 		vldr.32	s15, [r3, #72]
 1011 036e 67EE677A 		vnmul.f32	s15, s14, s15
 1012 0372 CDED1C7A 		vstr.32	s15, [sp, #112]
 1013              	.LBE433:
 1014              	.LBE442:
 1015              	.LBE451:
 287:src/engine.cpp ****         float sub     = osc(s_phase_sub,VOICE.sub_wave)  * VOICE.sub_level;
 1016              		.loc 1 287 66 view .LVU335
 1017 0376 D3ED087A 		vldr.32	s15, [r3, #32]
 1018 037a CDED217A 		vstr.32	s15, [sp, #132]
 288:src/engine.cpp ****         float osc_oct = osc(s_phase_oct,VOICE.oct_wave)  * VOICE.oct_level;
 1019              		.loc 1 288 66 view .LVU336
 1020 037e D3ED0B7A 		vldr.32	s15, [r3, #44]
 1021 0382 CDED227A 		vstr.32	s15, [sp, #136]
 1022              		.loc 1 289 66 view .LVU337
 1023 0386 D3ED0E7A 		vldr.32	s15, [r3, #56]
 1024 038a CDED237A 		vstr.32	s15, [sp, #140]
 1025              	.LBB452:
 290:src/engine.cpp **** 
 291:src/engine.cpp ****         // Noise (xorshift32 → -1..1), voice-defined level. Adds breath / chiff /
 292:src/engine.cpp ****         // hiss. noise_hp blends from full white ("shhh") to high-passed ("tsss",
 293:src/engine.cpp ****         // for hi-hats). The `if` folds away when a voice sets noise_level = 0.
 294:src/engine.cpp ****         float noise = 0.0f;
 295:src/engine.cpp ****         if(VOICE.noise_level > 0.0f){
 1026              		.loc 1 295 18 view .LVU338
 1027 038e D3ED147A 		vldr.32	s15, [r3, #80]
 1028 0392 CDED057A 		vstr.32	s15, [sp, #20]
 1029              	.LBE452:
 296:src/engine.cpp ****             s_noise_rng ^= s_noise_rng << 13;
ARM GAS  /tmp/claude-502/ccU8FNgW.s 			page 28


 297:src/engine.cpp ****             s_noise_rng ^= s_noise_rng >> 17;
 298:src/engine.cpp ****             s_noise_rng ^= s_noise_rng << 5;
 299:src/engine.cpp ****             float white = (float)(int32_t)s_noise_rng * (1.0f/2147483648.0f);
 300:src/engine.cpp ****             // One-pole high-pass = white minus its low-frequency content.
 301:src/engine.cpp ****             s_noise_lp += NOISE_HP_COEF * (white - s_noise_lp);
 302:src/engine.cpp ****             float bright = white - s_noise_lp;
 303:src/engine.cpp ****             // Blend white → high-passed by noise_hp (×2 to make up lost level).
 304:src/engine.cpp ****             float n = white + (bright * 2.0f - white) * VOICE.noise_hp;
 305:src/engine.cpp ****             noise = n * VOICE.noise_level;
 306:src/engine.cpp ****         }
 307:src/engine.cpp **** 
 308:src/engine.cpp ****         // Mix oscillator stack + noise
 309:src/engine.cpp ****         float mix = osc1 + osc2 + sub + osc_oct + noise;
 310:src/engine.cpp **** 
 311:src/engine.cpp ****         // Ring modulation (finger 2 pressure → metallic/bell edge)
 312:src/engine.cpp ****         float rm_carrier = tri(s_phase_rm);
 313:src/engine.cpp ****         mix = mix*(1.0f-s_ringmod) + (mix*rm_carrier)*s_ringmod;
 314:src/engine.cpp **** 
 315:src/engine.cpp ****         // Waveshaper drive before filter (adds harmonics, warms tone)
 316:src/engine.cpp ****         mix = fast_tanh(mix * s_drive);
 317:src/engine.cpp **** 
 318:src/engine.cpp ****         // Moog ladder filter — no attack boost (was causing onset clicks)
 319:src/engine.cpp ****         float eff_cutoff = clampf(s_cutoff, 20.0f, 20000.0f);
 320:src/engine.cpp ****         float filtered = moog(mix, eff_cutoff, VOICE.resonance, sr);
 321:src/engine.cpp **** 
 322:src/engine.cpp ****         // Wavefold distortion (finger 2 pressure)
 323:src/engine.cpp ****         float crushed = wavefold(filtered, s_bitcrush);
 324:src/engine.cpp **** 
 325:src/engine.cpp ****         // Soft clip output
 326:src/engine.cpp ****         float sample = fast_tanh(crushed * 1.3f) * s_amp * s_master_vol;
 327:src/engine.cpp **** 
 328:src/engine.cpp ****         // Drums MultiVoice: replace the (silent) mono output with the summed
 329:src/engine.cpp ****         // polyphonic drum voices, soft-clipped, at master volume.
 330:src/engine.cpp ****         if(poly_drums){
 331:src/engine.cpp ****             float m = 0.0f;
 332:src/engine.cpp ****             for(int k = 0; k < POLY; k++) m += drum_render(g_hits[k], sr);
 333:src/engine.cpp ****             sample = fast_tanh(m) * s_master_vol;
 334:src/engine.cpp ****         }
 335:src/engine.cpp **** 
 336:src/engine.cpp ****         out[0][i] = sample;
 337:src/engine.cpp ****         out[1][i] = sample;
 338:src/engine.cpp **** 
 339:src/engine.cpp ****         // Advance phases
 340:src/engine.cpp ****         s_phase1   += freq_vib*VOICE.osc1_ratio/sr;  if(s_phase1  >=1.0f)s_phase1  -=1.0f;
 1030              		.loc 1 340 38 view .LVU339
 1031 0396 D3ED047A 		vldr.32	s15, [r3, #16]
 1032 039a 134B     		ldr	r3, .L356+32
 1033 039c CDED177A 		vstr.32	s15, [sp, #92]
 1034 03a0 1893     		str	r3, [sp, #96]
 1035 03a2 124B     		ldr	r3, .L356+36
 1036 03a4 1993     		str	r3, [sp, #100]
 1037 03a6 124B     		ldr	r3, .L356+40
 1038 03a8 1A93     		str	r3, [sp, #104]
 1039 03aa 124B     		ldr	r3, .L356+44
 1040 03ac 1B93     		str	r3, [sp, #108]
 1041 03ae 124B     		ldr	r3, .L356+48
 1042 03b0 0193     		str	r3, [sp, #4]
ARM GAS  /tmp/claude-502/ccU8FNgW.s 			page 29


 1043 03b2 124B     		ldr	r3, .L356+52
 1044 03b4 1D93     		str	r3, [sp, #116]
 1045 03b6 124B     		ldr	r3, .L356+56
 1046 03b8 1E93     		str	r3, [sp, #120]
 1047 03ba 124B     		ldr	r3, .L356+60
 1048 03bc 1F93     		str	r3, [sp, #124]
 1049 03be 034B     		ldr	r3, .L356+4
 1050 03c0 0293     		str	r3, [sp, #8]
 1051 03c2 044B     		ldr	r3, .L356+12
 1052 03c4 9A46     		mov	r10, r3
 1053 03c6 61E2     		b	.L198
 1054              	.L357:
 1055              		.align	2
 1056              	.L356:
 1057 03c8 00000000 		.word	.LANCHOR27
 1058 03cc 00000000 		.word	.LANCHOR28
 1059 03d0 00000000 		.word	.LANCHOR16
 1060 03d4 00000000 		.word	.LANCHOR29
 1061 03d8 00D7233C 		.word	1008981760
 1062 03dc 00000000 		.word	.LANCHOR0
 1063 03e0 00000000 		.word	.LANCHOR25
 1064 03e4 33337340 		.word	1081291571
 1065 03e8 00000000 		.word	.LANCHOR12
 1066 03ec 00000000 		.word	.LANCHOR15
 1067 03f0 00000000 		.word	.LANCHOR17
 1068 03f4 00000000 		.word	.LANCHOR18
 1069 03f8 00000000 		.word	.LANCHOR20
 1070 03fc 00000000 		.word	.LANCHOR22
 1071 0400 00000000 		.word	.LANCHOR23
 1072 0404 00000000 		.word	.LANCHOR24
 1073 0408 00000000 		.word	.LANCHOR30
 1074 040c 00000000 		.word	.LANCHOR19
 1075 0410 00000000 		.word	.LANCHOR21
 1076 0414 00409C46 		.word	1184645120
 1077 0418 48E17A3F 		.word	1065017672
 1078 041c 0AD7233C 		.word	1008981770
 1079 0420 6666A63F 		.word	1067869798
 1080 0424 00007043 		.word	1131413504
 1081              	.LVL66:
 1082              	.L343:
 1083              	.LBB454:
 1084              	.LBB455:
  13:src/dsp.h     **** }
 1085              		.loc 2 13 24 view .LVU340
 1086 0428 1FED067A 		vldr.32	s14, .L356+76
 1087 042c F4EEC75A 		vcmpe.f32	s11, s14
 1088 0430 F1EE10FA 		vmrs	APSR_nzcv, FPSCR
 1089 0434 00F35686 		bgt	.L225
  13:src/dsp.h     **** }
 1090              		.loc 2 13 24 view .LVU341
 1091              	.LBE455:
 1092              	.LBE454:
 1093              	.LBB458:
 1094              	.LBB443:
 1095              	.LBB434:
  71:src/dsp.h     ****     if(f>0.98f)f=0.98f;
 1096              		.loc 2 71 19 view .LVU342
ARM GAS  /tmp/claude-502/ccU8FNgW.s 			page 30


 1097 0438 75EEA55A 		vadd.f32	s11, s11, s11
 1098              	.LVL67:
 1099              	.L102:
  71:src/dsp.h     ****     if(f>0.98f)f=0.98f;
 1100              		.loc 2 71 19 view .LVU343
 1101              	.LBE434:
 1102              	.LBE443:
 1103              	.LBE458:
 320:src/engine.cpp **** 
 1104              		.loc 1 320 9 is_stmt 1 view .LVU344
 1105              	.LBB459:
 1106              	.LBI358:
  64:src/engine.cpp **** {
 1107              		.loc 1 64 21 view .LVU345
 1108              	.LBE459:
 1109              	.LBE908:
 1110              	.LBE353:
  66:src/engine.cpp **** }
 1111              		.loc 1 66 5 view .LVU346
 1112              	.LBB921:
 1113              	.LBB909:
 1114              	.LBB460:
 1115              	.LBB444:
 1116              	.LBI359:
  69:src/dsp.h     **** {
 1117              		.loc 2 69 21 view .LVU347
 1118              	.LBB435:
  71:src/dsp.h     ****     if(f>0.98f)f=0.98f;
 1119              		.loc 2 71 5 view .LVU348
  71:src/dsp.h     ****     if(f>0.98f)f=0.98f;
 1120              		.loc 2 71 11 is_stmt 0 view .LVU349
 1121 043c 85EE887A 		vdiv.f32	s14, s11, s16
 1122              	.LVL68:
  72:src/dsp.h     ****     float k  = 3.8f*res;
 1123              		.loc 2 72 5 is_stmt 1 view .LVU350
  74:src/dsp.h     ****     float fb = k*st[3];
  75:src/dsp.h     ****     float x  = in - fb;
 1124              		.loc 2 75 11 is_stmt 0 view .LVU351
 1125 0440 DDED1C5A 		vldr.32	s11, [sp, #112]
 1126 0444 E5EE856A 		vfma.f32	s13, s11, s10
 1127              	.LVL69:
  72:src/dsp.h     ****     float k  = 3.8f*res;
 1128              		.loc 2 72 5 view .LVU352
 1129 0448 5FED0D5A 		vldr.32	s11, .L356+80
  72:src/dsp.h     ****     float k  = 3.8f*res;
 1130              		.loc 2 72 17 view .LVU353
 1131 044c B4EE657A 		vcmp.f32	s14, s11
 1132 0450 F1EE10FA 		vmrs	APSR_nzcv, FPSCR
 1133 0454 35FE877A 		vselgt.f32	s14, s11, s14
 1134              	.LVL70:
  73:src/dsp.h     ****     float fb = k*st[3];
 1135              		.loc 2 73 5 is_stmt 1 view .LVU354
  74:src/dsp.h     ****     float fb = k*st[3];
 1136              		.loc 2 74 5 view .LVU355
 1137              		.loc 2 75 5 view .LVU356
  76:src/dsp.h     ****     st[0]+=f*(fast_tanh(x)    -fast_tanh(st[0]));
 1138              		.loc 2 76 5 view .LVU357
ARM GAS  /tmp/claude-502/ccU8FNgW.s 			page 31


 1139              	.LBB361:
 1140              	.LBI361:
  23:src/dsp.h     **** {
 1141              		.loc 2 23 21 view .LVU358
 1142              	.LBB362:
  25:src/dsp.h     ****     if(x<-3.0f)return -1.0f;
 1143              		.loc 2 25 5 view .LVU359
 1144 0458 F0EE085A 		vmov.f32	s11, #3.0e+0
 1145 045c F4EEE56A 		vcmpe.f32	s13, s11
 1146 0460 F1EE10FA 		vmrs	APSR_nzcv, FPSCR
 1147 0464 00F33B85 		bgt	.L226
  26:src/dsp.h     ****     float x2=x*x;
 1148              		.loc 2 26 5 view .LVU360
 1149 0468 F8EE085A 		vmov.f32	s11, #-3.0e+0
 1150 046c F4EEE56A 		vcmpe.f32	s13, s11
 1151 0470 F1EE10FA 		vmrs	APSR_nzcv, FPSCR
 1152 0474 00F14986 		bmi	.L227
 1153              	.LVL71:
 1154              	.LBB363:
 1155              	.LBI363:
  23:src/dsp.h     **** {
 1156              		.loc 2 23 21 view .LVU361
 1157              	.LBB364:
  27:src/dsp.h     ****     return x*(27.0f+x2)/(27.0f+9.0f*x2);
 1158              		.loc 2 27 5 view .LVU362
  28:src/dsp.h     **** }
 1159              		.loc 2 28 20 is_stmt 0 view .LVU363
 1160 0478 F3EE0B4A 		vmov.f32	s9, #2.7e+1
  27:src/dsp.h     ****     return x*(27.0f+x2)/(27.0f+9.0f*x2);
 1161              		.loc 2 27 11 view .LVU364
 1162 047c 66EEA65A 		vmul.f32	s11, s13, s13
 1163              	.LVL72:
  28:src/dsp.h     **** }
 1164              		.loc 2 28 5 is_stmt 1 view .LVU365
  28:src/dsp.h     **** }
 1165              		.loc 2 28 31 is_stmt 0 view .LVU366
 1166 0480 B2EE021A 		vmov.f32	s2, #9.0e+0
 1167 0484 F0EE641A 		vmov.f32	s3, s9
 1168 0488 E5EE811A 		vfma.f32	s3, s11, s2
  28:src/dsp.h     **** }
 1169              		.loc 2 28 20 view .LVU367
 1170 048c 75EEA45A 		vadd.f32	s11, s11, s9
 1171              	.LVL73:
  28:src/dsp.h     **** }
 1172              		.loc 2 28 13 view .LVU368
 1173 0490 65EEA66A 		vmul.f32	s13, s11, s13
 1174              	.LVL74:
  28:src/dsp.h     **** }
 1175              		.loc 2 28 39 view .LVU369
 1176 0494 C6EEA15A 		vdiv.f32	s11, s13, s3
 1177              	.L105:
 1178              	.LVL75:
  28:src/dsp.h     **** }
 1179              		.loc 2 28 39 view .LVU370
 1180              	.LBE364:
 1181              	.LBE363:
 1182              	.LBE362:
ARM GAS  /tmp/claude-502/ccU8FNgW.s 			page 32


 1183              	.LBE361:
 1184              	.LBB367:
 1185              	.LBI367:
  23:src/dsp.h     **** {
 1186              		.loc 2 23 21 is_stmt 1 view .LVU371
 1187              	.LBB368:
  25:src/dsp.h     ****     if(x<-3.0f)return -1.0f;
 1188              		.loc 2 25 5 view .LVU372
 1189 0498 F0EE086A 		vmov.f32	s13, #3.0e+0
 1190 049c B4EEE63A 		vcmpe.f32	s6, s13
 1191 04a0 F1EE10FA 		vmrs	APSR_nzcv, FPSCR
 1192 04a4 00F31785 		bgt	.L228
  26:src/dsp.h     ****     float x2=x*x;
 1193              		.loc 2 26 5 view .LVU373
 1194 04a8 F8EE086A 		vmov.f32	s13, #-3.0e+0
 1195 04ac B4EEE63A 		vcmpe.f32	s6, s13
 1196 04b0 F1EE10FA 		vmrs	APSR_nzcv, FPSCR
 1197 04b4 00F1B286 		bmi	.L229
 1198              	.LVL76:
 1199              	.LBB369:
 1200              	.LBI369:
  23:src/dsp.h     **** {
 1201              		.loc 2 23 21 view .LVU374
 1202              	.LBB370:
  27:src/dsp.h     ****     return x*(27.0f+x2)/(27.0f+9.0f*x2);
 1203              		.loc 2 27 5 view .LVU375
  28:src/dsp.h     **** }
 1204              		.loc 2 28 20 is_stmt 0 view .LVU376
 1205 04b8 F3EE0B4A 		vmov.f32	s9, #2.7e+1
  27:src/dsp.h     ****     return x*(27.0f+x2)/(27.0f+9.0f*x2);
 1206              		.loc 2 27 11 view .LVU377
 1207 04bc 63EE036A 		vmul.f32	s13, s6, s6
 1208              	.LVL77:
  28:src/dsp.h     **** }
 1209              		.loc 2 28 5 is_stmt 1 view .LVU378
  28:src/dsp.h     **** }
 1210              		.loc 2 28 31 is_stmt 0 view .LVU379
 1211 04c0 B2EE021A 		vmov.f32	s2, #9.0e+0
 1212 04c4 F0EE641A 		vmov.f32	s3, s9
 1213 04c8 E6EE811A 		vfma.f32	s3, s13, s2
  28:src/dsp.h     **** }
 1214              		.loc 2 28 20 view .LVU380
 1215 04cc 76EEA46A 		vadd.f32	s13, s13, s9
 1216              	.LVL78:
  28:src/dsp.h     **** }
 1217              		.loc 2 28 13 view .LVU381
 1218 04d0 66EE836A 		vmul.f32	s13, s13, s6
  28:src/dsp.h     **** }
 1219              		.loc 2 28 39 view .LVU382
 1220 04d4 C6EEA14A 		vdiv.f32	s9, s13, s3
 1221              	.LVL79:
 1222              	.L106:
  28:src/dsp.h     **** }
 1223              		.loc 2 28 39 view .LVU383
 1224              	.LBE370:
 1225              	.LBE369:
 1226              	.LBE368:
ARM GAS  /tmp/claude-502/ccU8FNgW.s 			page 33


 1227              	.LBE367:
 1228              		.loc 2 76 31 view .LVU384
 1229 04d8 75EEE45A 		vsub.f32	s11, s11, s9
 1230              	.LBB373:
 1231              	.LBB374:
  25:src/dsp.h     ****     if(x<-3.0f)return -1.0f;
 1232              		.loc 2 25 5 view .LVU385
 1233 04dc F0EE086A 		vmov.f32	s13, #3.0e+0
 1234              	.LBE374:
 1235              	.LBE373:
 1236              		.loc 2 76 10 view .LVU386
 1237 04e0 A5EE873A 		vfma.f32	s6, s11, s14
 1238              	.LBB381:
 1239              	.LBB377:
  25:src/dsp.h     ****     if(x<-3.0f)return -1.0f;
 1240              		.loc 2 25 5 view .LVU387
 1241 04e4 B4EEE63A 		vcmpe.f32	s6, s13
 1242              	.LBE377:
 1243              	.LBE381:
 1244              		.loc 2 76 10 view .LVU388
 1245 04e8 84ED003A 		vstr.32	s6, [r4]
  77:src/dsp.h     ****     st[1]+=f*(fast_tanh(st[0])-fast_tanh(st[1]));
 1246              		.loc 2 77 5 is_stmt 1 view .LVU389
 1247              	.LVL80:
 1248              	.LBB382:
 1249              	.LBI373:
  23:src/dsp.h     **** {
 1250              		.loc 2 23 21 view .LVU390
 1251              	.LBB378:
  25:src/dsp.h     ****     if(x<-3.0f)return -1.0f;
 1252              		.loc 2 25 5 view .LVU391
 1253 04ec F1EE10FA 		vmrs	APSR_nzcv, FPSCR
 1254 04f0 00F3EA84 		bgt	.L230
  26:src/dsp.h     ****     float x2=x*x;
 1255              		.loc 2 26 5 view .LVU392
 1256 04f4 F8EE086A 		vmov.f32	s13, #-3.0e+0
 1257 04f8 B4EEE63A 		vcmpe.f32	s6, s13
 1258 04fc F1EE10FA 		vmrs	APSR_nzcv, FPSCR
 1259 0500 00F11B86 		bmi	.L231
 1260              	.LVL81:
 1261              	.LBB375:
 1262              	.LBI375:
  23:src/dsp.h     **** {
 1263              		.loc 2 23 21 view .LVU393
 1264              	.LBB376:
  27:src/dsp.h     ****     return x*(27.0f+x2)/(27.0f+9.0f*x2);
 1265              		.loc 2 27 5 view .LVU394
  28:src/dsp.h     **** }
 1266              		.loc 2 28 20 is_stmt 0 view .LVU395
 1267 0504 F3EE0B5A 		vmov.f32	s11, #2.7e+1
  27:src/dsp.h     ****     return x*(27.0f+x2)/(27.0f+9.0f*x2);
 1268              		.loc 2 27 11 view .LVU396
 1269 0508 63EE036A 		vmul.f32	s13, s6, s6
 1270              	.LVL82:
  28:src/dsp.h     **** }
 1271              		.loc 2 28 5 is_stmt 1 view .LVU397
  28:src/dsp.h     **** }
ARM GAS  /tmp/claude-502/ccU8FNgW.s 			page 34


 1272              		.loc 2 28 31 is_stmt 0 view .LVU398
 1273 050c F2EE021A 		vmov.f32	s3, #9.0e+0
 1274 0510 F0EE654A 		vmov.f32	s9, s11
 1275 0514 E6EEA14A 		vfma.f32	s9, s13, s3
  28:src/dsp.h     **** }
 1276              		.loc 2 28 20 view .LVU399
 1277 0518 76EEA56A 		vadd.f32	s13, s13, s11
 1278              	.LVL83:
  28:src/dsp.h     **** }
 1279              		.loc 2 28 13 view .LVU400
 1280 051c 26EE833A 		vmul.f32	s6, s13, s6
 1281              	.LVL84:
  28:src/dsp.h     **** }
 1282              		.loc 2 28 39 view .LVU401
 1283 0520 C3EE246A 		vdiv.f32	s13, s6, s9
 1284              	.LVL85:
 1285              	.L107:
  28:src/dsp.h     **** }
 1286              		.loc 2 28 39 view .LVU402
 1287              	.LBE376:
 1288              	.LBE375:
 1289              	.LBE378:
 1290              	.LBE382:
 1291              	.LBB383:
 1292              	.LBI383:
  23:src/dsp.h     **** {
 1293              		.loc 2 23 21 is_stmt 1 view .LVU403
 1294              	.LBB384:
  25:src/dsp.h     ****     if(x<-3.0f)return -1.0f;
 1295              		.loc 2 25 5 view .LVU404
 1296 0524 F0EE085A 		vmov.f32	s11, #3.0e+0
 1297 0528 F4EEE53A 		vcmpe.f32	s7, s11
 1298 052c F1EE10FA 		vmrs	APSR_nzcv, FPSCR
 1299 0530 00F3C684 		bgt	.L232
  26:src/dsp.h     ****     float x2=x*x;
 1300              		.loc 2 26 5 view .LVU405
 1301 0534 F8EE085A 		vmov.f32	s11, #-3.0e+0
 1302 0538 F4EEE53A 		vcmpe.f32	s7, s11
 1303 053c F1EE10FA 		vmrs	APSR_nzcv, FPSCR
 1304 0540 00F1F785 		bmi	.L233
 1305              	.LVL86:
 1306              	.LBB385:
 1307              	.LBI385:
  23:src/dsp.h     **** {
 1308              		.loc 2 23 21 view .LVU406
 1309              	.LBB386:
  27:src/dsp.h     ****     return x*(27.0f+x2)/(27.0f+9.0f*x2);
 1310              		.loc 2 27 5 view .LVU407
  28:src/dsp.h     **** }
 1311              		.loc 2 28 20 is_stmt 0 view .LVU408
 1312 0544 F3EE0B4A 		vmov.f32	s9, #2.7e+1
  27:src/dsp.h     ****     return x*(27.0f+x2)/(27.0f+9.0f*x2);
 1313              		.loc 2 27 11 view .LVU409
 1314 0548 63EEA35A 		vmul.f32	s11, s7, s7
 1315              	.LVL87:
  28:src/dsp.h     **** }
 1316              		.loc 2 28 5 is_stmt 1 view .LVU410
ARM GAS  /tmp/claude-502/ccU8FNgW.s 			page 35


  28:src/dsp.h     **** }
 1317              		.loc 2 28 31 is_stmt 0 view .LVU411
 1318 054c F2EE021A 		vmov.f32	s3, #9.0e+0
 1319 0550 B0EE643A 		vmov.f32	s6, s9
 1320 0554 A5EEA13A 		vfma.f32	s6, s11, s3
  28:src/dsp.h     **** }
 1321              		.loc 2 28 20 view .LVU412
 1322 0558 75EEA45A 		vadd.f32	s11, s11, s9
 1323              	.LVL88:
  28:src/dsp.h     **** }
 1324              		.loc 2 28 13 view .LVU413
 1325 055c 65EEA35A 		vmul.f32	s11, s11, s7
  28:src/dsp.h     **** }
 1326              		.loc 2 28 39 view .LVU414
 1327 0560 C5EE834A 		vdiv.f32	s9, s11, s6
 1328              	.LVL89:
 1329              	.L108:
  28:src/dsp.h     **** }
 1330              		.loc 2 28 39 view .LVU415
 1331              	.LBE386:
 1332              	.LBE385:
 1333              	.LBE384:
 1334              	.LBE383:
 1335              		.loc 2 77 31 view .LVU416
 1336 0564 76EEE46A 		vsub.f32	s13, s13, s9
 1337              		.loc 2 77 10 view .LVU417
 1338 0568 E7EE263A 		vfma.f32	s7, s14, s13
 1339              	.LBB389:
 1340              	.LBB390:
  25:src/dsp.h     ****     if(x<-3.0f)return -1.0f;
 1341              		.loc 2 25 5 view .LVU418
 1342 056c F0EE086A 		vmov.f32	s13, #3.0e+0
 1343 0570 F4EEE63A 		vcmpe.f32	s7, s13
 1344              	.LBE390:
 1345              	.LBE389:
 1346              		.loc 2 77 10 view .LVU419
 1347 0574 C4ED013A 		vstr.32	s7, [r4, #4]
  78:src/dsp.h     ****     st[2]+=f*(fast_tanh(st[1])-fast_tanh(st[2]));
 1348              		.loc 2 78 5 is_stmt 1 view .LVU420
 1349              	.LVL90:
 1350              	.LBB396:
 1351              	.LBI389:
  23:src/dsp.h     **** {
 1352              		.loc 2 23 21 view .LVU421
 1353              	.LBB393:
  25:src/dsp.h     ****     if(x<-3.0f)return -1.0f;
 1354              		.loc 2 25 5 view .LVU422
 1355 0578 F1EE10FA 		vmrs	APSR_nzcv, FPSCR
 1356 057c 00F39C84 		bgt	.L234
  26:src/dsp.h     ****     float x2=x*x;
 1357              		.loc 2 26 5 view .LVU423
 1358 0580 F8EE086A 		vmov.f32	s13, #-3.0e+0
 1359 0584 F4EEE63A 		vcmpe.f32	s7, s13
 1360 0588 F1EE10FA 		vmrs	APSR_nzcv, FPSCR
 1361 058c 00F1C585 		bmi	.L235
 1362              	.LVL91:
 1363              	.LBB391:
ARM GAS  /tmp/claude-502/ccU8FNgW.s 			page 36


 1364              	.LBI391:
  23:src/dsp.h     **** {
 1365              		.loc 2 23 21 view .LVU424
 1366              	.LBB392:
  27:src/dsp.h     ****     return x*(27.0f+x2)/(27.0f+9.0f*x2);
 1367              		.loc 2 27 5 view .LVU425
  28:src/dsp.h     **** }
 1368              		.loc 2 28 20 is_stmt 0 view .LVU426
 1369 0590 F3EE0B5A 		vmov.f32	s11, #2.7e+1
  27:src/dsp.h     ****     return x*(27.0f+x2)/(27.0f+9.0f*x2);
 1370              		.loc 2 27 11 view .LVU427
 1371 0594 63EEA36A 		vmul.f32	s13, s7, s7
 1372              	.LVL92:
  28:src/dsp.h     **** }
 1373              		.loc 2 28 5 is_stmt 1 view .LVU428
  28:src/dsp.h     **** }
 1374              		.loc 2 28 31 is_stmt 0 view .LVU429
 1375 0598 B2EE023A 		vmov.f32	s6, #9.0e+0
 1376 059c F0EE654A 		vmov.f32	s9, s11
 1377 05a0 E6EE834A 		vfma.f32	s9, s13, s6
  28:src/dsp.h     **** }
 1378              		.loc 2 28 20 view .LVU430
 1379 05a4 76EEA56A 		vadd.f32	s13, s13, s11
 1380              	.LVL93:
  28:src/dsp.h     **** }
 1381              		.loc 2 28 13 view .LVU431
 1382 05a8 66EEA33A 		vmul.f32	s7, s13, s7
 1383              	.LVL94:
  28:src/dsp.h     **** }
 1384              		.loc 2 28 39 view .LVU432
 1385 05ac C3EEA46A 		vdiv.f32	s13, s7, s9
 1386              	.LVL95:
 1387              	.L109:
  28:src/dsp.h     **** }
 1388              		.loc 2 28 39 view .LVU433
 1389              	.LBE392:
 1390              	.LBE391:
 1391              	.LBE393:
 1392              	.LBE396:
 1393              	.LBB397:
 1394              	.LBI397:
  23:src/dsp.h     **** {
 1395              		.loc 2 23 21 is_stmt 1 view .LVU434
 1396              	.LBB398:
  25:src/dsp.h     ****     if(x<-3.0f)return -1.0f;
 1397              		.loc 2 25 5 view .LVU435
 1398 05b0 F0EE085A 		vmov.f32	s11, #3.0e+0
 1399 05b4 B4EEE54A 		vcmpe.f32	s8, s11
 1400 05b8 F1EE10FA 		vmrs	APSR_nzcv, FPSCR
 1401 05bc 00F37884 		bgt	.L236
  26:src/dsp.h     ****     float x2=x*x;
 1402              		.loc 2 26 5 view .LVU436
 1403 05c0 F8EE085A 		vmov.f32	s11, #-3.0e+0
 1404 05c4 B4EEE54A 		vcmpe.f32	s8, s11
 1405 05c8 F1EE10FA 		vmrs	APSR_nzcv, FPSCR
 1406 05cc 00F1A185 		bmi	.L237
 1407              	.LVL96:
ARM GAS  /tmp/claude-502/ccU8FNgW.s 			page 37


 1408              	.LBB399:
 1409              	.LBI399:
  23:src/dsp.h     **** {
 1410              		.loc 2 23 21 view .LVU437
 1411              	.LBB400:
  27:src/dsp.h     ****     return x*(27.0f+x2)/(27.0f+9.0f*x2);
 1412              		.loc 2 27 5 view .LVU438
  28:src/dsp.h     **** }
 1413              		.loc 2 28 20 is_stmt 0 view .LVU439
 1414 05d0 F3EE0B4A 		vmov.f32	s9, #2.7e+1
  27:src/dsp.h     ****     return x*(27.0f+x2)/(27.0f+9.0f*x2);
 1415              		.loc 2 27 11 view .LVU440
 1416 05d4 64EE045A 		vmul.f32	s11, s8, s8
 1417              	.LVL97:
  28:src/dsp.h     **** }
 1418              		.loc 2 28 5 is_stmt 1 view .LVU441
  28:src/dsp.h     **** }
 1419              		.loc 2 28 31 is_stmt 0 view .LVU442
 1420 05d8 B2EE023A 		vmov.f32	s6, #9.0e+0
 1421 05dc F0EE643A 		vmov.f32	s7, s9
 1422 05e0 E5EE833A 		vfma.f32	s7, s11, s6
  28:src/dsp.h     **** }
 1423              		.loc 2 28 20 view .LVU443
 1424 05e4 75EEA45A 		vadd.f32	s11, s11, s9
 1425              	.LVL98:
  28:src/dsp.h     **** }
 1426              		.loc 2 28 13 view .LVU444
 1427 05e8 65EE845A 		vmul.f32	s11, s11, s8
  28:src/dsp.h     **** }
 1428              		.loc 2 28 39 view .LVU445
 1429 05ec C5EEA34A 		vdiv.f32	s9, s11, s7
 1430              	.LVL99:
 1431              	.L110:
  28:src/dsp.h     **** }
 1432              		.loc 2 28 39 view .LVU446
 1433              	.LBE400:
 1434              	.LBE399:
 1435              	.LBE398:
 1436              	.LBE397:
 1437              		.loc 2 78 31 view .LVU447
 1438 05f0 76EEE46A 		vsub.f32	s13, s13, s9
 1439              		.loc 2 78 10 view .LVU448
 1440 05f4 A7EE264A 		vfma.f32	s8, s14, s13
 1441              	.LBB403:
 1442              	.LBB404:
  25:src/dsp.h     ****     if(x<-3.0f)return -1.0f;
 1443              		.loc 2 25 5 view .LVU449
 1444 05f8 F0EE086A 		vmov.f32	s13, #3.0e+0
 1445 05fc B4EEE64A 		vcmpe.f32	s8, s13
 1446              	.LBE404:
 1447              	.LBE403:
 1448              		.loc 2 78 10 view .LVU450
 1449 0600 84ED024A 		vstr.32	s8, [r4, #8]
  79:src/dsp.h     ****     st[3]+=f*(fast_tanh(st[2])-fast_tanh(st[3]));
 1450              		.loc 2 79 5 is_stmt 1 view .LVU451
 1451              	.LVL100:
 1452              	.LBB410:
ARM GAS  /tmp/claude-502/ccU8FNgW.s 			page 38


 1453              	.LBI403:
  23:src/dsp.h     **** {
 1454              		.loc 2 23 21 view .LVU452
 1455              	.LBB407:
  25:src/dsp.h     ****     if(x<-3.0f)return -1.0f;
 1456              		.loc 2 25 5 view .LVU453
 1457 0604 F1EE10FA 		vmrs	APSR_nzcv, FPSCR
 1458 0608 00F34E84 		bgt	.L238
  26:src/dsp.h     ****     float x2=x*x;
 1459              		.loc 2 26 5 view .LVU454
 1460 060c F8EE086A 		vmov.f32	s13, #-3.0e+0
 1461 0610 B4EEE64A 		vcmpe.f32	s8, s13
 1462 0614 F1EE10FA 		vmrs	APSR_nzcv, FPSCR
 1463 0618 00F18785 		bmi	.L239
 1464              	.LVL101:
 1465              	.LBB405:
 1466              	.LBI405:
  23:src/dsp.h     **** {
 1467              		.loc 2 23 21 view .LVU455
 1468              	.LBB406:
  27:src/dsp.h     ****     return x*(27.0f+x2)/(27.0f+9.0f*x2);
 1469              		.loc 2 27 5 view .LVU456
  28:src/dsp.h     **** }
 1470              		.loc 2 28 20 is_stmt 0 view .LVU457
 1471 061c F3EE0B5A 		vmov.f32	s11, #2.7e+1
  27:src/dsp.h     ****     return x*(27.0f+x2)/(27.0f+9.0f*x2);
 1472              		.loc 2 27 11 view .LVU458
 1473 0620 64EE046A 		vmul.f32	s13, s8, s8
 1474              	.LVL102:
  28:src/dsp.h     **** }
 1475              		.loc 2 28 5 is_stmt 1 view .LVU459
  28:src/dsp.h     **** }
 1476              		.loc 2 28 31 is_stmt 0 view .LVU460
 1477 0624 F2EE023A 		vmov.f32	s7, #9.0e+0
 1478 0628 F0EE654A 		vmov.f32	s9, s11
 1479 062c E6EEA34A 		vfma.f32	s9, s13, s7
  28:src/dsp.h     **** }
 1480              		.loc 2 28 20 view .LVU461
 1481 0630 76EEA56A 		vadd.f32	s13, s13, s11
 1482              	.LVL103:
  28:src/dsp.h     **** }
 1483              		.loc 2 28 13 view .LVU462
 1484 0634 26EE844A 		vmul.f32	s8, s13, s8
 1485              	.LVL104:
  28:src/dsp.h     **** }
 1486              		.loc 2 28 39 view .LVU463
 1487 0638 C4EE246A 		vdiv.f32	s13, s8, s9
 1488              	.LVL105:
 1489              	.L111:
  28:src/dsp.h     **** }
 1490              		.loc 2 28 39 view .LVU464
 1491              	.LBE406:
 1492              	.LBE405:
 1493              	.LBE407:
 1494              	.LBE410:
 1495              	.LBB411:
 1496              	.LBI411:
ARM GAS  /tmp/claude-502/ccU8FNgW.s 			page 39


  23:src/dsp.h     **** {
 1497              		.loc 2 23 21 is_stmt 1 view .LVU465
 1498              	.LBB412:
  25:src/dsp.h     ****     if(x<-3.0f)return -1.0f;
 1499              		.loc 2 25 5 view .LVU466
 1500 063c F0EE085A 		vmov.f32	s11, #3.0e+0
 1501 0640 B4EEE55A 		vcmpe.f32	s10, s11
 1502 0644 F1EE10FA 		vmrs	APSR_nzcv, FPSCR
 1503 0648 00F32A84 		bgt	.L240
  26:src/dsp.h     ****     float x2=x*x;
 1504              		.loc 2 26 5 view .LVU467
 1505 064c F8EE085A 		vmov.f32	s11, #-3.0e+0
 1506 0650 B4EEE55A 		vcmpe.f32	s10, s11
 1507 0654 F1EE10FA 		vmrs	APSR_nzcv, FPSCR
 1508 0658 00F16385 		bmi	.L241
 1509              	.LVL106:
 1510              	.LBB413:
 1511              	.LBI413:
  23:src/dsp.h     **** {
 1512              		.loc 2 23 21 view .LVU468
 1513              	.LBB414:
  27:src/dsp.h     ****     return x*(27.0f+x2)/(27.0f+9.0f*x2);
 1514              		.loc 2 27 5 view .LVU469
  28:src/dsp.h     **** }
 1515              		.loc 2 28 20 is_stmt 0 view .LVU470
 1516 065c F3EE0B4A 		vmov.f32	s9, #2.7e+1
  27:src/dsp.h     ****     return x*(27.0f+x2)/(27.0f+9.0f*x2);
 1517              		.loc 2 27 11 view .LVU471
 1518 0660 65EE055A 		vmul.f32	s11, s10, s10
 1519              	.LVL107:
  28:src/dsp.h     **** }
 1520              		.loc 2 28 5 is_stmt 1 view .LVU472
  28:src/dsp.h     **** }
 1521              		.loc 2 28 31 is_stmt 0 view .LVU473
 1522 0664 F2EE023A 		vmov.f32	s7, #9.0e+0
 1523 0668 B0EE644A 		vmov.f32	s8, s9
 1524 066c A5EEA34A 		vfma.f32	s8, s11, s7
  28:src/dsp.h     **** }
 1525              		.loc 2 28 20 view .LVU474
 1526 0670 75EEA45A 		vadd.f32	s11, s11, s9
 1527              	.LVL108:
  28:src/dsp.h     **** }
 1528              		.loc 2 28 13 view .LVU475
 1529 0674 65EE855A 		vmul.f32	s11, s11, s10
  28:src/dsp.h     **** }
 1530              		.loc 2 28 39 view .LVU476
 1531 0678 C5EE844A 		vdiv.f32	s9, s11, s8
 1532              	.LVL109:
 1533              	.L112:
  28:src/dsp.h     **** }
 1534              		.loc 2 28 39 view .LVU477
 1535              	.LBE414:
 1536              	.LBE413:
 1537              	.LBE412:
 1538              	.LBE411:
 1539              		.loc 2 79 31 view .LVU478
 1540 067c 76EEE46A 		vsub.f32	s13, s13, s9
ARM GAS  /tmp/claude-502/ccU8FNgW.s 			page 40


 1541              		.loc 2 79 10 view .LVU479
 1542 0680 A7EE265A 		vfma.f32	s10, s14, s13
 1543              	.LVL110:
 1544              		.loc 2 79 10 view .LVU480
 1545              	.LBE435:
 1546              	.LBE444:
 1547              	.LBE460:
 1548              	.LBB461:
 1549              	.LBB462:
  80:src/dsp.h     ****     return st[3];
  81:src/dsp.h     **** }
  82:src/dsp.h     **** // Wavefolder distortion
  83:src/dsp.h     **** // Folds signal back when it exceeds threshold — creates rich harmonics.
  84:src/dsp.h     **** // amount 0 = clean, 1 = heavy folding (4 folds)
  85:src/dsp.h     **** static inline float wavefold(float in, float amount)
  86:src/dsp.h     **** {
  87:src/dsp.h     ****     if(amount < 0.01f) return in;
 1550              		.loc 2 87 5 view .LVU481
 1551 0684 1FED9B7A 		vldr.32	s14, .L356+84
 1552              	.LVL111:
 1553              		.loc 2 87 5 view .LVU482
 1554 0688 F4EEC72A 		vcmpe.f32	s5, s14
 1555 068c F1EE10FA 		vmrs	APSR_nzcv, FPSCR
 1556              	.LBE462:
 1557              	.LBE461:
 1558              	.LBB467:
 1559              	.LBB445:
 1560              	.LBB436:
  79:src/dsp.h     ****     return st[3];
 1561              		.loc 2 79 10 view .LVU483
 1562 0690 84ED035A 		vstr.32	s10, [r4, #12]
  80:src/dsp.h     ****     return st[3];
 1563              		.loc 2 80 5 is_stmt 1 view .LVU484
 1564              	.LVL112:
  80:src/dsp.h     ****     return st[3];
 1565              		.loc 2 80 5 is_stmt 0 view .LVU485
 1566              	.LBE436:
 1567              	.LBE445:
 1568              	.LBE467:
 323:src/engine.cpp **** 
 1569              		.loc 1 323 9 is_stmt 1 view .LVU486
 1570              	.LBB468:
 1571              	.LBI461:
  85:src/dsp.h     **** {
 1572              		.loc 2 85 21 view .LVU487
 1573              	.LBB466:
 1574              		.loc 2 87 5 view .LVU488
 1575 0694 3BD4     		bmi	.L113
  88:src/dsp.h     ****     // Drive the signal harder as amount increases (1x to 5x)
  89:src/dsp.h     ****     float driven = in * (1.0f + amount * 4.0f);
 1576              		.loc 2 89 5 view .LVU489
 1577              		.loc 2 89 31 is_stmt 0 view .LVU490
 1578 0696 B7EE004A 		vmov.f32	s8, #1.0e+0
 1579 069a B1EE007A 		vmov.f32	s14, #4.0e+0
 1580              	.LBB463:
  90:src/dsp.h     ****     // Fold: reflect signal at ±1 boundary repeatedly
  91:src/dsp.h     ****     // fold(x) = 1 - |((x+1) mod 2) - 1|  (triangle fold)
ARM GAS  /tmp/claude-502/ccU8FNgW.s 			page 41


  92:src/dsp.h     ****     float x = driven;
  93:src/dsp.h     ****     // 2 passes of folding for richness
  94:src/dsp.h     ****     for(int fold = 0; fold < 2; fold++) {
  95:src/dsp.h     ****         x = x * 0.5f + 0.5f;           // shift to 0..1
  96:src/dsp.h     ****         x = x - floorf(x);              // wrap to 0..1
  97:src/dsp.h     ****         x = 1.0f - fabsf(2.0f*x - 1.0f); // triangle fold
 1581              		.loc 2 97 33 view .LVU491
 1582 069e F0EE004A 		vmov.f32	s9, #2.0e+0
 1583              	.LBE463:
  89:src/dsp.h     ****     // Fold: reflect signal at ±1 boundary repeatedly
 1584              		.loc 2 89 31 view .LVU492
 1585 06a2 F0EE446A 		vmov.f32	s13, s8
  98:src/dsp.h     ****         x = x * 2.0f - 1.0f;           // back to -1..1
  99:src/dsp.h     ****     }
 100:src/dsp.h     ****     // Blend dry/wet so at low amounts it stays subtle
 101:src/dsp.h     ****     return in*(1.0f-amount) + x*amount;
 1586              		.loc 2 101 20 view .LVU493
 1587 06a6 74EE623A 		vsub.f32	s7, s8, s5
  89:src/dsp.h     ****     // Fold: reflect signal at ±1 boundary repeatedly
 1588              		.loc 2 89 31 view .LVU494
 1589 06aa E2EE876A 		vfma.f32	s13, s5, s14
 1590              	.LVL113:
  92:src/dsp.h     ****     // 2 passes of folding for richness
 1591              		.loc 2 92 5 is_stmt 1 view .LVU495
  94:src/dsp.h     ****         x = x * 0.5f + 0.5f;           // shift to 0..1
 1592              		.loc 2 94 5 view .LVU496
 1593              	.LBB464:
  94:src/dsp.h     ****         x = x * 0.5f + 0.5f;           // shift to 0..1
 1594              		.loc 2 94 28 view .LVU497
  95:src/dsp.h     ****         x = x - floorf(x);              // wrap to 0..1
 1595              		.loc 2 95 9 view .LVU498
  95:src/dsp.h     ****         x = x - floorf(x);              // wrap to 0..1
 1596              		.loc 2 95 11 is_stmt 0 view .LVU499
 1597 06ae B6EE007A 		vmov.f32	s14, #5.0e-1
 1598 06b2 F0EE475A 		vmov.f32	s11, s14
 1599              	.LBE464:
  89:src/dsp.h     ****     // Fold: reflect signal at ±1 boundary repeatedly
 1600              		.loc 2 89 11 view .LVU500
 1601 06b6 66EE856A 		vmul.f32	s13, s13, s10
 1602              	.LVL114:
 1603              	.LBB465:
  95:src/dsp.h     ****         x = x - floorf(x);              // wrap to 0..1
 1604              		.loc 2 95 11 view .LVU501
 1605 06ba E6EE875A 		vfma.f32	s11, s13, s14
 1606              	.LVL115:
  96:src/dsp.h     ****         x = 1.0f - fabsf(2.0f*x - 1.0f); // triangle fold
 1607              		.loc 2 96 9 is_stmt 1 view .LVU502
  97:src/dsp.h     ****         x = x * 2.0f - 1.0f;           // back to -1..1
 1608              		.loc 2 97 33 is_stmt 0 view .LVU503
 1609 06be FFEE006A 		vmov.f32	s13, #-1.0e+0
 1610              	.LVL116:
  96:src/dsp.h     ****         x = 1.0f - fabsf(2.0f*x - 1.0f); // triangle fold
 1611              		.loc 2 96 23 view .LVU504
 1612 06c2 BBFE653A 		vrintm.f32	s6, s11
 1613              	.LVL117:
  97:src/dsp.h     ****         x = x * 2.0f - 1.0f;           // back to -1..1
 1614              		.loc 2 97 9 is_stmt 1 view .LVU505
ARM GAS  /tmp/claude-502/ccU8FNgW.s 			page 42


  96:src/dsp.h     ****         x = 1.0f - fabsf(2.0f*x - 1.0f); // triangle fold
 1615              		.loc 2 96 11 is_stmt 0 view .LVU506
 1616 06c6 35EEC33A 		vsub.f32	s6, s11, s6
 1617              	.LVL118:
  97:src/dsp.h     ****         x = x * 2.0f - 1.0f;           // back to -1..1
 1618              		.loc 2 97 33 view .LVU507
 1619 06ca F0EE665A 		vmov.f32	s11, s13
 1620 06ce E3EE245A 		vfma.f32	s11, s6, s9
  98:src/dsp.h     ****     }
 1621              		.loc 2 98 11 view .LVU508
 1622 06d2 B0EE663A 		vmov.f32	s6, s13
 1623              	.LVL119:
  97:src/dsp.h     ****         x = x * 2.0f - 1.0f;           // back to -1..1
 1624              		.loc 2 97 25 view .LVU509
 1625 06d6 F0EEE55A 		vabs.f32	s11, s11
  97:src/dsp.h     ****         x = x * 2.0f - 1.0f;           // back to -1..1
 1626              		.loc 2 97 11 view .LVU510
 1627 06da 74EE655A 		vsub.f32	s11, s8, s11
 1628              	.LVL120:
  98:src/dsp.h     ****     }
 1629              		.loc 2 98 9 is_stmt 1 view .LVU511
  98:src/dsp.h     ****     }
 1630              		.loc 2 98 11 is_stmt 0 view .LVU512
 1631 06de A5EEA43A 		vfma.f32	s6, s11, s9
 1632              	.LVL121:
  94:src/dsp.h     ****         x = x * 0.5f + 0.5f;           // shift to 0..1
 1633              		.loc 2 94 5 is_stmt 1 view .LVU513
  94:src/dsp.h     ****         x = x * 0.5f + 0.5f;           // shift to 0..1
 1634              		.loc 2 94 28 view .LVU514
  95:src/dsp.h     ****         x = x - floorf(x);              // wrap to 0..1
 1635              		.loc 2 95 9 view .LVU515
  95:src/dsp.h     ****         x = x - floorf(x);              // wrap to 0..1
 1636              		.loc 2 95 11 is_stmt 0 view .LVU516
 1637 06e2 A3EE077A 		vfma.f32	s14, s6, s14
 1638              	.LVL122:
  96:src/dsp.h     ****         x = 1.0f - fabsf(2.0f*x - 1.0f); // triangle fold
 1639              		.loc 2 96 9 is_stmt 1 view .LVU517
  96:src/dsp.h     ****         x = 1.0f - fabsf(2.0f*x - 1.0f); // triangle fold
 1640              		.loc 2 96 23 is_stmt 0 view .LVU518
 1641 06e6 FBFE475A 		vrintm.f32	s11, s14
 1642              	.LVL123:
  97:src/dsp.h     ****         x = x * 2.0f - 1.0f;           // back to -1..1
 1643              		.loc 2 97 9 is_stmt 1 view .LVU519
  96:src/dsp.h     ****         x = 1.0f - fabsf(2.0f*x - 1.0f); // triangle fold
 1644              		.loc 2 96 11 is_stmt 0 view .LVU520
 1645 06ea 37EE657A 		vsub.f32	s14, s14, s11
 1646              	.LVL124:
  97:src/dsp.h     ****         x = x * 2.0f - 1.0f;           // back to -1..1
 1647              		.loc 2 97 33 view .LVU521
 1648 06ee F0EE665A 		vmov.f32	s11, s13
 1649 06f2 E7EE245A 		vfma.f32	s11, s14, s9
  97:src/dsp.h     ****         x = x * 2.0f - 1.0f;           // back to -1..1
 1650              		.loc 2 97 25 view .LVU522
 1651 06f6 F0EEE55A 		vabs.f32	s11, s11
  97:src/dsp.h     ****         x = x * 2.0f - 1.0f;           // back to -1..1
 1652              		.loc 2 97 11 view .LVU523
 1653 06fa 74EE655A 		vsub.f32	s11, s8, s11
ARM GAS  /tmp/claude-502/ccU8FNgW.s 			page 43


 1654              	.LVL125:
  98:src/dsp.h     ****     }
 1655              		.loc 2 98 9 is_stmt 1 view .LVU524
  98:src/dsp.h     ****     }
 1656              		.loc 2 98 11 is_stmt 0 view .LVU525
 1657 06fe E5EEA46A 		vfma.f32	s13, s11, s9
 1658              	.LVL126:
  94:src/dsp.h     ****         x = x * 0.5f + 0.5f;           // shift to 0..1
 1659              		.loc 2 94 5 is_stmt 1 view .LVU526
  94:src/dsp.h     ****         x = x * 0.5f + 0.5f;           // shift to 0..1
 1660              		.loc 2 94 28 view .LVU527
 1661              	.LBE465:
 1662              		.loc 2 101 5 view .LVU528
 1663              		.loc 2 101 32 is_stmt 0 view .LVU529
 1664 0702 62EEA66A 		vmul.f32	s13, s5, s13
 1665              	.LVL127:
 1666              		.loc 2 101 33 view .LVU530
 1667 0706 E3EE856A 		vfma.f32	s13, s7, s10
 1668 070a B0EE665A 		vmov.f32	s10, s13
 1669              	.LVL128:
 1670              	.L113:
 1671              		.loc 2 101 33 view .LVU531
 1672              	.LBE466:
 1673              	.LBE468:
 326:src/engine.cpp **** 
 1674              		.loc 1 326 9 is_stmt 1 view .LVU532
 326:src/engine.cpp **** 
 1675              		.loc 1 326 33 is_stmt 0 view .LVU533
 1676 070e 1FEDBC7A 		vldr.32	s14, .L356+88
 1677 0712 25EE075A 		vmul.f32	s10, s10, s14
 1678              	.LVL129:
 1679              	.LBB469:
 1680              	.LBI469:
  23:src/dsp.h     **** {
 1681              		.loc 2 23 21 is_stmt 1 view .LVU534
 1682              	.LBB470:
  25:src/dsp.h     ****     if(x<-3.0f)return -1.0f;
 1683              		.loc 2 25 5 view .LVU535
 1684 0716 B0EE087A 		vmov.f32	s14, #3.0e+0
 1685 071a B4EEC75A 		vcmpe.f32	s10, s14
 1686 071e F1EE10FA 		vmrs	APSR_nzcv, FPSCR
 1687 0722 19DC     		bgt	.L114
  26:src/dsp.h     ****     float x2=x*x;
 1688              		.loc 2 26 5 view .LVU536
 1689 0724 B8EE087A 		vmov.f32	s14, #-3.0e+0
 1690 0728 B4EEC75A 		vcmpe.f32	s10, s14
 1691 072c F1EE10FA 		vmrs	APSR_nzcv, FPSCR
 1692 0730 00F10785 		bmi	.L337
 1693              	.LVL130:
 1694              	.LBB471:
 1695              	.LBI471:
  23:src/dsp.h     **** {
 1696              		.loc 2 23 21 view .LVU537
 1697              	.LBB472:
  27:src/dsp.h     ****     return x*(27.0f+x2)/(27.0f+9.0f*x2);
 1698              		.loc 2 27 5 view .LVU538
  28:src/dsp.h     **** }
ARM GAS  /tmp/claude-502/ccU8FNgW.s 			page 44


 1699              		.loc 2 28 20 is_stmt 0 view .LVU539
 1700 0734 F3EE0B6A 		vmov.f32	s13, #2.7e+1
  27:src/dsp.h     ****     return x*(27.0f+x2)/(27.0f+9.0f*x2);
 1701              		.loc 2 27 11 view .LVU540
 1702 0738 25EE057A 		vmul.f32	s14, s10, s10
 1703              	.LVL131:
  28:src/dsp.h     **** }
 1704              		.loc 2 28 5 is_stmt 1 view .LVU541
  28:src/dsp.h     **** }
 1705              		.loc 2 28 31 is_stmt 0 view .LVU542
 1706 073c F2EE024A 		vmov.f32	s9, #9.0e+0
 1707 0740 F0EE665A 		vmov.f32	s11, s13
 1708 0744 E7EE245A 		vfma.f32	s11, s14, s9
 1709              	.LVL132:
  28:src/dsp.h     **** }
 1710              		.loc 2 28 20 view .LVU543
 1711 0748 37EE267A 		vadd.f32	s14, s14, s13
  28:src/dsp.h     **** }
 1712              		.loc 2 28 13 view .LVU544
 1713 074c 27EE055A 		vmul.f32	s10, s14, s10
 1714              	.LVL133:
  28:src/dsp.h     **** }
 1715              		.loc 2 28 39 view .LVU545
 1716 0750 85EE257A 		vdiv.f32	s14, s10, s11
 1717              	.LBE472:
 1718              	.LBE471:
 1719              	.LBE470:
 1720              	.LBE469:
 326:src/engine.cpp **** 
 1721              		.loc 1 326 50 view .LVU546
 1722 0754 26EE076A 		vmul.f32	s12, s12, s14
 1723              	.L114:
 1724              	.LBB473:
 330:src/engine.cpp ****             float m = 0.0f;
 1725              		.loc 1 330 9 view .LVU547
 1726 0758 089B     		ldr	r3, [sp, #32]
 1727              	.LBE473:
 326:src/engine.cpp **** 
 1728              		.loc 1 326 60 view .LVU548
 1729 075a 2AEE066A 		vmul.f32	s12, s20, s12
 1730              	.LVL134:
 330:src/engine.cpp ****             float m = 0.0f;
 1731              		.loc 1 330 9 is_stmt 1 view .LVU549
 1732              	.LBB632:
 1733 075e 0D2B     		cmp	r3, #13
 1734 0760 00F0F784 		beq	.L338
 1735              	.LVL135:
 1736              	.L117:
 330:src/engine.cpp ****             float m = 0.0f;
 1737              		.loc 1 330 9 is_stmt 0 view .LVU550
 1738              	.LBE632:
 336:src/engine.cpp ****         out[1][i] = sample;
 1739              		.loc 1 336 9 is_stmt 1 view .LVU551
 1740              		.loc 1 340 31 is_stmt 0 view .LVU552
 1741 0764 9DED177A 		vldr.32	s14, [sp, #92]
 336:src/engine.cpp ****         out[1][i] = sample;
 1742              		.loc 1 336 19 view .LVU553
ARM GAS  /tmp/claude-502/ccU8FNgW.s 			page 45


 1743 0768 3B68     		ldr	r3, [r7]
 1744              		.loc 1 340 31 view .LVU554
 1745 076a 67EE877A 		vmul.f32	s15, s15, s14
 1746              	.LVL136:
 341:src/engine.cpp ****         s_phase2   += freq2   /sr;  if(s_phase2  >=1.0f)s_phase2  -=1.0f;
 342:src/engine.cpp ****         s_phase_sub+= freq_sub/sr;  if(s_phase_sub>=1.0f)s_phase_sub-=1.0f;
 343:src/engine.cpp ****         s_phase_oct+= freq_oct/sr;  if(s_phase_oct>=1.0f)s_phase_oct-=1.0f;
 344:src/engine.cpp ****         s_phase_rm += freq_rm /sr;  if(s_phase_rm >=1.0f)s_phase_rm -=1.0f;
 345:src/engine.cpp **** 
 346:src/engine.cpp ****         // LED3 PWM tick. Smooth duty, recompute threshold, compare counter.
 347:src/engine.cpp ****         led3_duty_smooth += (duty_target - led3_duty_smooth) * DUTY_TC;
 1747              		.loc 1 347 42 view .LVU555
 1748 076e DDED0A5A 		vldr.32	s11, [sp, #40]
 336:src/engine.cpp ****         out[1][i] = sample;
 1749              		.loc 1 336 19 view .LVU556
 1750 0772 03EB8603 		add	r3, r3, r6, lsl #2
 348:src/engine.cpp ****         uint32_t threshold = (uint32_t)(led3_duty_smooth * (float)PWM_LEVELS + 0.5f);
 1751              		.loc 1 348 78 view .LVU557
 1752 0776 5FEDD56A 		vldr.32	s13, .L356+92
 349:src/engine.cpp ****         if(threshold > PWM_LEVELS) threshold = PWM_LEVELS;
 350:src/engine.cpp ****         if(++pwm_counter >= PWM_LEVELS) pwm_counter = 0;
 1753              		.loc 1 350 12 view .LVU558
 1754 077a E14A     		ldr	r2, .L358
 340:src/engine.cpp ****         s_phase2   += freq2   /sr;  if(s_phase2  >=1.0f)s_phase2  -=1.0f;
 1755              		.loc 1 340 48 view .LVU559
 1756 077c 87EE887A 		vdiv.f32	s14, s15, s16
 336:src/engine.cpp ****         out[1][i] = sample;
 1757              		.loc 1 336 19 view .LVU560
 1758 0780 83ED006A 		vstr.32	s12, [r3]
 1759              	.LVL137:
 337:src/engine.cpp **** 
 1760              		.loc 1 337 9 is_stmt 1 view .LVU561
 337:src/engine.cpp **** 
 1761              		.loc 1 337 19 is_stmt 0 view .LVU562
 1762 0784 7B68     		ldr	r3, [r7, #4]
 1763              		.loc 1 350 12 view .LVU563
 1764 0786 1168     		ldr	r1, [r2]
 337:src/engine.cpp **** 
 1765              		.loc 1 337 19 view .LVU564
 1766 0788 03EB8603 		add	r3, r3, r6, lsl #2
 341:src/engine.cpp ****         s_phase_sub+= freq_sub/sr;  if(s_phase_sub>=1.0f)s_phase_sub-=1.0f;
 1767              		.loc 1 341 31 view .LVU565
 1768 078c CDEE087A 		vdiv.f32	s15, s26, s16
 337:src/engine.cpp **** 
 1769              		.loc 1 337 19 view .LVU566
 1770 0790 83ED006A 		vstr.32	s12, [r3]
 340:src/engine.cpp ****         s_phase2   += freq2   /sr;  if(s_phase2  >=1.0f)s_phase2  -=1.0f;
 1771              		.loc 1 340 9 is_stmt 1 view .LVU567
 340:src/engine.cpp ****         s_phase2   += freq2   /sr;  if(s_phase2  >=1.0f)s_phase2  -=1.0f;
 1772              		.loc 1 340 54 view .LVU568
 340:src/engine.cpp ****         s_phase2   += freq2   /sr;  if(s_phase2  >=1.0f)s_phase2  -=1.0f;
 1773              		.loc 1 340 84 is_stmt 0 view .LVU569
 1774 0794 DB4B     		ldr	r3, .L358+4
 347:src/engine.cpp ****         uint32_t threshold = (uint32_t)(led3_duty_smooth * (float)PWM_LEVELS + 0.5f);
 1775              		.loc 1 347 26 view .LVU570
 1776 0796 9FEDDC6A 		vldr.32	s12, .L358+8
 1777              	.LVL138:
ARM GAS  /tmp/claude-502/ccU8FNgW.s 			page 46


 340:src/engine.cpp ****         s_phase2   += freq2   /sr;  if(s_phase2  >=1.0f)s_phase2  -=1.0f;
 1778              		.loc 1 340 20 view .LVU571
 1779 079a 37EE297A 		vadd.f32	s14, s14, s19
 340:src/engine.cpp ****         s_phase2   += freq2   /sr;  if(s_phase2  >=1.0f)s_phase2  -=1.0f;
 1780              		.loc 1 340 54 view .LVU572
 1781 079e F7EE009A 		vmov.f32	s19, #1.0e+0
 1782 07a2 B4EEE97A 		vcmpe.f32	s14, s19
 341:src/engine.cpp ****         s_phase_sub+= freq_sub/sr;  if(s_phase_sub>=1.0f)s_phase_sub-=1.0f;
 1783              		.loc 1 341 20 view .LVU573
 1784 07a6 37EE899A 		vadd.f32	s18, s15, s18
 342:src/engine.cpp ****         s_phase_oct+= freq_oct/sr;  if(s_phase_oct>=1.0f)s_phase_oct-=1.0f;
 1785              		.loc 1 342 31 view .LVU574
 1786 07aa CBEE887A 		vdiv.f32	s15, s23, s16
 340:src/engine.cpp ****         s_phase2   += freq2   /sr;  if(s_phase2  >=1.0f)s_phase2  -=1.0f;
 1787              		.loc 1 340 54 view .LVU575
 1788 07ae F1EE10FA 		vmrs	APSR_nzcv, FPSCR
 340:src/engine.cpp ****         s_phase2   += freq2   /sr;  if(s_phase2  >=1.0f)s_phase2  -=1.0f;
 1789              		.loc 1 340 74 is_stmt 1 view .LVU576
 340:src/engine.cpp ****         s_phase2   += freq2   /sr;  if(s_phase2  >=1.0f)s_phase2  -=1.0f;
 1790              		.loc 1 340 84 is_stmt 0 view .LVU577
 1791 07b2 A8BF     		it	ge
 1792 07b4 37EE697A 		vsubge.f32	s14, s14, s19
 1793 07b8 83ED007A 		vstr.32	s14, [r3]
 341:src/engine.cpp ****         s_phase_sub+= freq_sub/sr;  if(s_phase_sub>=1.0f)s_phase_sub-=1.0f;
 1794              		.loc 1 341 9 is_stmt 1 view .LVU578
 341:src/engine.cpp ****         s_phase_sub+= freq_sub/sr;  if(s_phase_sub>=1.0f)s_phase_sub-=1.0f;
 1795              		.loc 1 341 37 view .LVU579
 1796 07bc B7EE007A 		vmov.f32	s14, #1.0e+0
 341:src/engine.cpp ****         s_phase_sub+= freq_sub/sr;  if(s_phase_sub>=1.0f)s_phase_sub-=1.0f;
 1797              		.loc 1 341 67 is_stmt 0 view .LVU580
 1798 07c0 D24B     		ldr	r3, .L358+12
 341:src/engine.cpp ****         s_phase_sub+= freq_sub/sr;  if(s_phase_sub>=1.0f)s_phase_sub-=1.0f;
 1799              		.loc 1 341 37 view .LVU581
 1800 07c2 B4EEC79A 		vcmpe.f32	s18, s14
 342:src/engine.cpp ****         s_phase_oct+= freq_oct/sr;  if(s_phase_oct>=1.0f)s_phase_oct-=1.0f;
 1801              		.loc 1 342 20 view .LVU582
 1802 07c6 77EEA88A 		vadd.f32	s17, s15, s17
 343:src/engine.cpp ****         s_phase_rm += freq_rm /sr;  if(s_phase_rm >=1.0f)s_phase_rm -=1.0f;
 1803              		.loc 1 343 31 view .LVU583
 1804 07ca CEEE087A 		vdiv.f32	s15, s28, s16
 341:src/engine.cpp ****         s_phase_sub+= freq_sub/sr;  if(s_phase_sub>=1.0f)s_phase_sub-=1.0f;
 1805              		.loc 1 341 37 view .LVU584
 1806 07ce F1EE10FA 		vmrs	APSR_nzcv, FPSCR
 341:src/engine.cpp ****         s_phase_sub+= freq_sub/sr;  if(s_phase_sub>=1.0f)s_phase_sub-=1.0f;
 1807              		.loc 1 341 57 is_stmt 1 view .LVU585
 341:src/engine.cpp ****         s_phase_sub+= freq_sub/sr;  if(s_phase_sub>=1.0f)s_phase_sub-=1.0f;
 1808              		.loc 1 341 67 is_stmt 0 view .LVU586
 1809 07d2 A8BF     		it	ge
 1810 07d4 39EE479A 		vsubge.f32	s18, s18, s14
 342:src/engine.cpp ****         s_phase_oct+= freq_oct/sr;  if(s_phase_oct>=1.0f)s_phase_oct-=1.0f;
 1811              		.loc 1 342 37 view .LVU587
 1812 07d8 B7EE007A 		vmov.f32	s14, #1.0e+0
 341:src/engine.cpp ****         s_phase_sub+= freq_sub/sr;  if(s_phase_sub>=1.0f)s_phase_sub-=1.0f;
 1813              		.loc 1 341 67 view .LVU588
 1814 07dc 83ED009A 		vstr.32	s18, [r3]
 342:src/engine.cpp ****         s_phase_oct+= freq_oct/sr;  if(s_phase_oct>=1.0f)s_phase_oct-=1.0f;
 1815              		.loc 1 342 9 is_stmt 1 view .LVU589
ARM GAS  /tmp/claude-502/ccU8FNgW.s 			page 47


 342:src/engine.cpp ****         s_phase_oct+= freq_oct/sr;  if(s_phase_oct>=1.0f)s_phase_oct-=1.0f;
 1816              		.loc 1 342 37 view .LVU590
 1817 07e0 F4EEC78A 		vcmpe.f32	s17, s14
 342:src/engine.cpp ****         s_phase_oct+= freq_oct/sr;  if(s_phase_oct>=1.0f)s_phase_oct-=1.0f;
 1818              		.loc 1 342 69 is_stmt 0 view .LVU591
 1819 07e4 CA4B     		ldr	r3, .L358+16
 342:src/engine.cpp ****         s_phase_oct+= freq_oct/sr;  if(s_phase_oct>=1.0f)s_phase_oct-=1.0f;
 1820              		.loc 1 342 37 view .LVU592
 1821 07e6 F1EE10FA 		vmrs	APSR_nzcv, FPSCR
 342:src/engine.cpp ****         s_phase_oct+= freq_oct/sr;  if(s_phase_oct>=1.0f)s_phase_oct-=1.0f;
 1822              		.loc 1 342 58 is_stmt 1 view .LVU593
 343:src/engine.cpp ****         s_phase_rm += freq_rm /sr;  if(s_phase_rm >=1.0f)s_phase_rm -=1.0f;
 1823              		.loc 1 343 20 is_stmt 0 view .LVU594
 1824 07ea 37EE800A 		vadd.f32	s0, s15, s0
 344:src/engine.cpp **** 
 1825              		.loc 1 344 31 view .LVU595
 1826 07ee CDEE887A 		vdiv.f32	s15, s27, s16
 342:src/engine.cpp ****         s_phase_oct+= freq_oct/sr;  if(s_phase_oct>=1.0f)s_phase_oct-=1.0f;
 1827              		.loc 1 342 69 view .LVU596
 1828 07f2 A8BF     		it	ge
 1829 07f4 78EEC78A 		vsubge.f32	s17, s17, s14
 343:src/engine.cpp ****         s_phase_rm += freq_rm /sr;  if(s_phase_rm >=1.0f)s_phase_rm -=1.0f;
 1830              		.loc 1 343 37 view .LVU597
 1831 07f8 B7EE007A 		vmov.f32	s14, #1.0e+0
 342:src/engine.cpp ****         s_phase_oct+= freq_oct/sr;  if(s_phase_oct>=1.0f)s_phase_oct-=1.0f;
 1832              		.loc 1 342 69 view .LVU598
 1833 07fc C3ED008A 		vstr.32	s17, [r3]
 343:src/engine.cpp ****         s_phase_rm += freq_rm /sr;  if(s_phase_rm >=1.0f)s_phase_rm -=1.0f;
 1834              		.loc 1 343 9 is_stmt 1 view .LVU599
 343:src/engine.cpp ****         s_phase_rm += freq_rm /sr;  if(s_phase_rm >=1.0f)s_phase_rm -=1.0f;
 1835              		.loc 1 343 37 view .LVU600
 1836 0800 B4EEC70A 		vcmpe.f32	s0, s14
 343:src/engine.cpp ****         s_phase_rm += freq_rm /sr;  if(s_phase_rm >=1.0f)s_phase_rm -=1.0f;
 1837              		.loc 1 343 69 is_stmt 0 view .LVU601
 1838 0804 C34B     		ldr	r3, .L358+20
 343:src/engine.cpp ****         s_phase_rm += freq_rm /sr;  if(s_phase_rm >=1.0f)s_phase_rm -=1.0f;
 1839              		.loc 1 343 37 view .LVU602
 1840 0806 F1EE10FA 		vmrs	APSR_nzcv, FPSCR
 343:src/engine.cpp ****         s_phase_rm += freq_rm /sr;  if(s_phase_rm >=1.0f)s_phase_rm -=1.0f;
 1841              		.loc 1 343 58 is_stmt 1 view .LVU603
 343:src/engine.cpp ****         s_phase_rm += freq_rm /sr;  if(s_phase_rm >=1.0f)s_phase_rm -=1.0f;
 1842              		.loc 1 343 69 is_stmt 0 view .LVU604
 1843 080a A8BF     		it	ge
 1844 080c 30EE470A 		vsubge.f32	s0, s0, s14
 344:src/engine.cpp **** 
 1845              		.loc 1 344 20 view .LVU605
 1846 0810 37EE822A 		vadd.f32	s4, s15, s4
 344:src/engine.cpp **** 
 1847              		.loc 1 344 37 view .LVU606
 1848 0814 B7EE007A 		vmov.f32	s14, #1.0e+0
 343:src/engine.cpp ****         s_phase_rm += freq_rm /sr;  if(s_phase_rm >=1.0f)s_phase_rm -=1.0f;
 1849              		.loc 1 343 69 view .LVU607
 1850 0818 83ED000A 		vstr.32	s0, [r3]
 344:src/engine.cpp **** 
 1851              		.loc 1 344 9 is_stmt 1 view .LVU608
 344:src/engine.cpp **** 
 1852              		.loc 1 344 37 view .LVU609
ARM GAS  /tmp/claude-502/ccU8FNgW.s 			page 48


 348:src/engine.cpp ****         if(threshold > PWM_LEVELS) threshold = PWM_LEVELS;
 1853              		.loc 1 348 78 is_stmt 0 view .LVU610
 1854 081c F6EE007A 		vmov.f32	s15, #5.0e-1
 344:src/engine.cpp **** 
 1855              		.loc 1 344 69 view .LVU611
 1856 0820 BD4B     		ldr	r3, .L358+24
 344:src/engine.cpp **** 
 1857              		.loc 1 344 37 view .LVU612
 1858 0822 B4EEC72A 		vcmpe.f32	s4, s14
 1859 0826 F1EE10FA 		vmrs	APSR_nzcv, FPSCR
 344:src/engine.cpp **** 
 1860              		.loc 1 344 58 is_stmt 1 view .LVU613
 344:src/engine.cpp **** 
 1861              		.loc 1 344 69 is_stmt 0 view .LVU614
 1862 082a A8BF     		it	ge
 1863 082c 32EE472A 		vsubge.f32	s4, s4, s14
 1864 0830 83ED002A 		vstr.32	s4, [r3]
 347:src/engine.cpp ****         uint32_t threshold = (uint32_t)(led3_duty_smooth * (float)PWM_LEVELS + 0.5f);
 1865              		.loc 1 347 9 is_stmt 1 view .LVU615
 347:src/engine.cpp ****         uint32_t threshold = (uint32_t)(led3_duty_smooth * (float)PWM_LEVELS + 0.5f);
 1866              		.loc 1 347 42 is_stmt 0 view .LVU616
 1867 0834 B94B     		ldr	r3, .L358+28
 1868 0836 93ED007A 		vldr.32	s14, [r3]
 1869 083a 75EEC75A 		vsub.f32	s11, s11, s14
 347:src/engine.cpp ****         uint32_t threshold = (uint32_t)(led3_duty_smooth * (float)PWM_LEVELS + 0.5f);
 1870              		.loc 1 347 26 view .LVU617
 1871 083e A5EE867A 		vfma.f32	s14, s11, s12
 348:src/engine.cpp ****         if(threshold > PWM_LEVELS) threshold = PWM_LEVELS;
 1872              		.loc 1 348 78 view .LVU618
 1873 0842 E7EE267A 		vfma.f32	s15, s14, s13
 347:src/engine.cpp ****         uint32_t threshold = (uint32_t)(led3_duty_smooth * (float)PWM_LEVELS + 0.5f);
 1874              		.loc 1 347 26 view .LVU619
 1875 0846 83ED007A 		vstr.32	s14, [r3]
 348:src/engine.cpp ****         if(threshold > PWM_LEVELS) threshold = PWM_LEVELS;
 1876              		.loc 1 348 9 is_stmt 1 view .LVU620
 1877              		.loc 1 350 12 is_stmt 0 view .LVU621
 1878 084a 4B1C     		adds	r3, r1, #1
 348:src/engine.cpp ****         if(threshold > PWM_LEVELS) threshold = PWM_LEVELS;
 1879              		.loc 1 348 18 view .LVU622
 1880 084c FCEEE77A 		vcvt.u32.f32	s15, s15
 1881 0850 17EE901A 		vmov	r1, s15	@ int
 1882              	.LVL139:
 349:src/engine.cpp ****         if(++pwm_counter >= PWM_LEVELS) pwm_counter = 0;
 1883              		.loc 1 349 9 is_stmt 1 view .LVU623
 1884 0854 F029     		cmp	r1, #240
 1885 0856 28BF     		it	cs
 1886 0858 F021     		movcs	r1, #240
 1887              	.LVL140:
 1888              		.loc 1 350 9 view .LVU624
 1889 085a EF2B     		cmp	r3, #239
 1890              		.loc 1 350 41 view .LVU625
 351:src/engine.cpp ****         bool desired = (pwm_counter < threshold);
 1891              		.loc 1 351 9 view .LVU626
 350:src/engine.cpp ****         bool desired = (pwm_counter < threshold);
 1892              		.loc 1 350 53 is_stmt 0 view .LVU627
 1893 085c 84BF     		itt	hi
 1894 085e 0023     		movhi	r3, #0
ARM GAS  /tmp/claude-502/ccU8FNgW.s 			page 49


 1895 0860 A74A     		ldrhi	r2, .L358
 1896              		.loc 1 351 14 view .LVU628
 1897 0862 9942     		cmp	r1, r3
 350:src/engine.cpp ****         bool desired = (pwm_counter < threshold);
 1898              		.loc 1 350 53 view .LVU629
 1899 0864 1360     		str	r3, [r2]
 352:src/engine.cpp ****         if(desired != led3_state){ led3.Write(desired); led3_state = desired; }
 1900              		.loc 1 352 9 view .LVU630
 1901 0866 AE4B     		ldr	r3, .L358+32
 351:src/engine.cpp ****         bool desired = (pwm_counter < threshold);
 1902              		.loc 1 351 14 view .LVU631
 1903 0868 94BF     		ite	ls
 1904 086a 0021     		movls	r1, #0
 1905              	.LVL141:
 351:src/engine.cpp ****         bool desired = (pwm_counter < threshold);
 1906              		.loc 1 351 14 view .LVU632
 1907 086c 0121     		movhi	r1, #1
 1908              	.LVL142:
 1909              		.loc 1 352 9 is_stmt 1 view .LVU633
 1910 086e 1B78     		ldrb	r3, [r3]	@ zero_extendqisi2
 1911 0870 8B42     		cmp	r3, r1
 1912 0872 06D0     		beq	.L196
 1913              		.loc 1 352 36 discriminator 1 view .LVU634
 1914              		.loc 1 352 46 is_stmt 0 discriminator 1 view .LVU635
 1915 0874 AB48     		ldr	r0, .L358+36
 1916 0876 0391     		str	r1, [sp, #12]
 1917 0878 FFF7FEFF 		bl	_ZN5daisy4GPIO5WriteEb
 1918              	.LVL143:
 1919              		.loc 1 352 57 is_stmt 1 discriminator 1 view .LVU636
 1920              		.loc 1 352 68 is_stmt 0 discriminator 1 view .LVU637
 1921 087c A84B     		ldr	r3, .L358+32
 1922 087e 0399     		ldr	r1, [sp, #12]
 1923 0880 1970     		strb	r1, [r3]
 1924              	.LVL144:
 1925              	.L196:
 1926              		.loc 1 352 68 discriminator 1 view .LVU638
 1927              	.LBE909:
 208:src/engine.cpp ****     {
 1928              		.loc 1 208 5 is_stmt 1 discriminator 2 view .LVU639
 1929 0882 0136     		adds	r6, r6, #1
 1930              	.LVL145:
 208:src/engine.cpp ****     {
 1931              		.loc 1 208 21 discriminator 2 view .LVU640
 1932 0884 069B     		ldr	r3, [sp, #24]
 1933 0886 B342     		cmp	r3, r6
 1934 0888 00F01C85 		beq	.L15
 1935              	.LVL146:
 1936              	.L198:
 1937              	.LBB910:
 211:src/engine.cpp ****         // Cutoff: fast when opening (smoothed), slow when closing (with release)
 1938              		.loc 1 211 9 view .LVU641
 211:src/engine.cpp ****         // Cutoff: fast when opening (smoothed), slow when closing (with release)
 1939              		.loc 1 211 30 is_stmt 0 view .LVU642
 1940 088c 189B     		ldr	r3, [sp, #96]
 211:src/engine.cpp ****         // Cutoff: fast when opening (smoothed), slow when closing (with release)
 1941              		.loc 1 211 54 view .LVU643
 1942 088e F7EE005A 		vmov.f32	s11, #1.0e+0
ARM GAS  /tmp/claude-502/ccU8FNgW.s 			page 50


 211:src/engine.cpp ****         // Cutoff: fast when opening (smoothed), slow when closing (with release)
 1943              		.loc 1 211 48 view .LVU644
 1944 0892 9DED076A 		vldr.32	s12, [sp, #28]
 211:src/engine.cpp ****         // Cutoff: fast when opening (smoothed), slow when closing (with release)
 1945              		.loc 1 211 30 view .LVU645
 1946 0896 D3ED007A 		vldr.32	s15, [r3]
 1947              	.LBB633:
 213:src/engine.cpp ****           s_cutoff = s_cutoff * sc + tcut * (1.0f - sc); }
 1948              		.loc 1 213 28 view .LVU646
 1949 089a 019B     		ldr	r3, [sp, #4]
 1950              	.LBE633:
 211:src/engine.cpp ****         // Cutoff: fast when opening (smoothed), slow when closing (with release)
 1951              		.loc 1 211 54 view .LVU647
 1952 089c 35EEE77A 		vsub.f32	s14, s11, s15
 211:src/engine.cpp ****         // Cutoff: fast when opening (smoothed), slow when closing (with release)
 1953              		.loc 1 211 41 view .LVU648
 1954 08a0 D9ED006A 		vldr.32	s13, [r9]
 1955              	.LBB634:
 213:src/engine.cpp ****           s_cutoff = s_cutoff * sc + tcut * (1.0f - sc); }
 1956              		.loc 1 213 28 view .LVU649
 1957 08a4 93ED004A 		vldr.32	s8, [r3]
 1958              	.LBE634:
 211:src/engine.cpp ****         // Cutoff: fast when opening (smoothed), slow when closing (with release)
 1959              		.loc 1 211 48 view .LVU650
 1960 08a8 27EE067A 		vmul.f32	s14, s14, s12
 1961              	.LBB635:
 213:src/engine.cpp ****           s_cutoff = s_cutoff * sc + tcut * (1.0f - sc); }
 1962              		.loc 1 213 40 view .LVU651
 1963 08ac B4EEEC4A 		vcmpe.f32	s8, s25
 1964              	.LBE635:
 211:src/engine.cpp ****         // Cutoff: fast when opening (smoothed), slow when closing (with release)
 1965              		.loc 1 211 41 view .LVU652
 1966 08b0 A6EEA77A 		vfma.f32	s14, s13, s15
 1967              	.LBB636:
 213:src/engine.cpp ****           s_cutoff = s_cutoff * sc + tcut * (1.0f - sc); }
 1968              		.loc 1 213 40 view .LVU653
 1969 08b4 F1EE10FA 		vmrs	APSR_nzcv, FPSCR
 1970              	.LBE636:
 211:src/engine.cpp ****         // Cutoff: fast when opening (smoothed), slow when closing (with release)
 1971              		.loc 1 211 19 view .LVU654
 1972 08b8 89ED007A 		vstr.32	s14, [r9]
 213:src/engine.cpp ****           s_cutoff = s_cutoff * sc + tcut * (1.0f - sc); }
 1973              		.loc 1 213 9 is_stmt 1 view .LVU655
 1974              	.LBB637:
 213:src/engine.cpp ****           s_cutoff = s_cutoff * sc + tcut * (1.0f - sc); }
 1975              		.loc 1 213 11 view .LVU656
 213:src/engine.cpp ****           s_cutoff = s_cutoff * sc + tcut * (1.0f - sc); }
 1976              		.loc 1 213 40 is_stmt 0 view .LVU657
 1977 08bc 00F18082 		bmi	.L209
 213:src/engine.cpp ****           s_cutoff = s_cutoff * sc + tcut * (1.0f - sc); }
 1978              		.loc 1 213 40 discriminator 2 view .LVU658
 1979 08c0 994B     		ldr	r3, .L358+40
 1980 08c2 93ED003A 		vldr.32	s6, [r3]
 214:src/engine.cpp ****         s_drive   = s_drive   * SLEW_MISC + tdrv * (1.0f - SLEW_MISC);
 1981              		.loc 1 214 51 discriminator 2 view .LVU659
 1982 08c6 75EEC35A 		vsub.f32	s11, s11, s6
 1983              	.L36:
ARM GAS  /tmp/claude-502/ccU8FNgW.s 			page 51


 1984              	.LVL147:
 214:src/engine.cpp ****         s_drive   = s_drive   * SLEW_MISC + tdrv * (1.0f - SLEW_MISC);
 1985              		.loc 1 214 11 is_stmt 1 discriminator 4 view .LVU660
 214:src/engine.cpp ****         s_drive   = s_drive   * SLEW_MISC + tdrv * (1.0f - SLEW_MISC);
 1986              		.loc 1 214 43 is_stmt 0 discriminator 4 view .LVU661
 1987 08ca 6CEEA55A 		vmul.f32	s11, s25, s11
 1988              	.LBE637:
 1989              	.LBB638:
 218:src/engine.cpp ****           s_detune   = s_detune   * sa + tdet * (1.0f - sa); }
 1990              		.loc 1 218 31 discriminator 4 view .LVU662
 1991 08ce 1D9B     		ldr	r3, [sp, #116]
 1992              	.LBE638:
 1993              	.LBB639:
 214:src/engine.cpp ****         s_drive   = s_drive   * SLEW_MISC + tdrv * (1.0f - SLEW_MISC);
 1994              		.loc 1 214 20 discriminator 4 view .LVU663
 1995 08d0 019A     		ldr	r2, [sp, #4]
 1996              	.LBE639:
 1997              	.LBB640:
 218:src/engine.cpp ****           s_detune   = s_detune   * sa + tdet * (1.0f - sa); }
 1998              		.loc 1 218 31 discriminator 4 view .LVU664
 1999 08d2 D3ED007A 		vldr.32	s15, [r3]
 2000              	.LBE640:
 2001              	.LBB641:
 214:src/engine.cpp ****         s_drive   = s_drive   * SLEW_MISC + tdrv * (1.0f - SLEW_MISC);
 2002              		.loc 1 214 36 discriminator 4 view .LVU665
 2003 08d6 E4EE035A 		vfma.f32	s11, s8, s6
 2004              	.LBE641:
 2005              	.LBB642:
 218:src/engine.cpp ****           s_detune   = s_detune   * sa + tdet * (1.0f - sa); }
 2006              		.loc 1 218 44 discriminator 4 view .LVU666
 2007 08da DFED944A 		vldr.32	s9, .L358+44
 2008 08de F4EEEF7A 		vcmpe.f32	s15, s31
 2009 08e2 DFED936A 		vldr.32	s13, .L358+48
 2010 08e6 9FED936A 		vldr.32	s12, .L358+52
 2011 08ea 9FED935A 		vldr.32	s10, .L358+56
 2012 08ee F1EE10FA 		vmrs	APSR_nzcv, FPSCR
 2013              	.LBE642:
 215:src/engine.cpp ****         s_vibdepth= s_vibdepth* SLEW_MISC + tvib * (1.0f - SLEW_MISC);
 2014              		.loc 1 215 43 discriminator 4 view .LVU667
 2015 08f2 D8ED003A 		vldr.32	s7, [r8]
 2016 08f6 9FED914A 		vldr.32	s8, .L358+60
 2017              	.LBB643:
 214:src/engine.cpp ****         s_drive   = s_drive   * SLEW_MISC + tdrv * (1.0f - SLEW_MISC);
 2018              		.loc 1 214 20 discriminator 4 view .LVU668
 2019 08fa C2ED005A 		vstr.32	s11, [r2]
 2020              	.LBE643:
 215:src/engine.cpp ****         s_vibdepth= s_vibdepth* SLEW_MISC + tvib * (1.0f - SLEW_MISC);
 2021              		.loc 1 215 9 is_stmt 1 discriminator 4 view .LVU669
 2022              	.LBB644:
 220:src/engine.cpp ****           s_bitcrush = s_bitcrush * sa + tbc  * (1.0f - sa); }
 2023              		.loc 1 220 31 is_stmt 0 discriminator 4 view .LVU670
 2024 08fe 1E9A     		ldr	r2, [sp, #120]
 2025              	.LBE644:
 2026              	.LBB645:
 218:src/engine.cpp ****           s_detune   = s_detune   * sa + tdet * (1.0f - sa); }
 2027              		.loc 1 218 44 discriminator 4 view .LVU671
 2028 0900 54BF     		ite	pl
ARM GAS  /tmp/claude-502/ccU8FNgW.s 			page 52


 2029 0902 F0EE661A 		vmovpl.f32	s3, s13
 2030 0906 F0EE641A 		vmovmi.f32	s3, s9
 2031              	.LBE645:
 2032              	.LBB646:
 222:src/engine.cpp ****           s_ringmod  = s_ringmod  * sa + trm  * (1.0f - sa); }
 2033              		.loc 1 222 31 discriminator 4 view .LVU672
 2034 090a 1F99     		ldr	r1, [sp, #124]
 2035              	.LBE646:
 2036              	.LBB647:
 220:src/engine.cpp ****           s_bitcrush = s_bitcrush * sa + tbc  * (1.0f - sa); }
 2037              		.loc 1 220 31 discriminator 4 view .LVU673
 2038 090c 92ED002A 		vldr.32	s4, [r2]
 2039              	.LBE647:
 215:src/engine.cpp ****         s_vibdepth= s_vibdepth* SLEW_MISC + tvib * (1.0f - SLEW_MISC);
 2040              		.loc 1 215 43 discriminator 4 view .LVU674
 2041 0910 DDED0BAA 		vldr.32	s21, [sp, #44]
 2042              	.LBB648:
 219:src/engine.cpp ****         { float sa = tbc      > s_bitcrush ? SLEW_F2_A : SLEW_F2_R;
 2043              		.loc 1 219 47 discriminator 4 view .LVU675
 2044 0914 6FEEA11A 		vmul.f32	s3, s31, s3
 2045              	.LBE648:
 2046              	.LBB649:
 220:src/engine.cpp ****           s_bitcrush = s_bitcrush * sa + tbc  * (1.0f - sa); }
 2047              		.loc 1 220 44 discriminator 4 view .LVU676
 2048 0918 B4EECF2A 		vcmpe.f32	s4, s30
 2049              	.LBE649:
 2050              	.LBB650:
 222:src/engine.cpp ****           s_ringmod  = s_ringmod  * sa + trm  * (1.0f - sa); }
 2051              		.loc 1 222 31 discriminator 4 view .LVU677
 2052 091c 91ED003A 		vldr.32	s6, [r1]
 2053              	.LVL148:
 222:src/engine.cpp ****           s_ringmod  = s_ringmod  * sa + trm  * (1.0f - sa); }
 2054              		.loc 1 222 31 discriminator 4 view .LVU678
 2055              	.LBE650:
 215:src/engine.cpp ****         s_vibdepth= s_vibdepth* SLEW_MISC + tvib * (1.0f - SLEW_MISC);
 2056              		.loc 1 215 43 discriminator 4 view .LVU679
 2057 0920 E3EE84AA 		vfma.f32	s21, s7, s8
 2058              	.LBB651:
 218:src/engine.cpp ****           s_detune   = s_detune   * sa + tdet * (1.0f - sa); }
 2059              		.loc 1 218 44 discriminator 4 view .LVU680
 2060 0924 54BF     		ite	pl
 2061 0926 F0EE453A 		vmovpl.f32	s7, s10
 2062 092a F0EE463A 		vmovmi.f32	s7, s12
 2063              	.LBE651:
 2064              	.LBB652:
 220:src/engine.cpp ****           s_bitcrush = s_bitcrush * sa + tbc  * (1.0f - sa); }
 2065              		.loc 1 220 44 discriminator 4 view .LVU681
 2066 092e F1EE10FA 		vmrs	APSR_nzcv, FPSCR
 2067              	.LBE652:
 2068              	.LBB653:
 222:src/engine.cpp ****           s_ringmod  = s_ringmod  * sa + trm  * (1.0f - sa); }
 2069              		.loc 1 222 44 discriminator 4 view .LVU682
 2070 0932 B4EEEE3A 		vcmpe.f32	s6, s29
 2071              	.LBE653:
 2072              	.LBB654:
 219:src/engine.cpp ****         { float sa = tbc      > s_bitcrush ? SLEW_F2_A : SLEW_F2_R;
 2073              		.loc 1 219 40 discriminator 4 view .LVU683
ARM GAS  /tmp/claude-502/ccU8FNgW.s 			page 53


 2074 0936 E7EEA31A 		vfma.f32	s3, s15, s7
 2075              	.LBE654:
 2076              	.LBB655:
 220:src/engine.cpp ****           s_bitcrush = s_bitcrush * sa + tbc  * (1.0f - sa); }
 2077              		.loc 1 220 44 discriminator 4 view .LVU684
 2078 093a 54BF     		ite	pl
 2079 093c F0EE662A 		vmovpl.f32	s5, s13
 2080 0940 F0EE642A 		vmovmi.f32	s5, s9
 2081 0944 54BF     		ite	pl
 2082 0946 B0EE451A 		vmovpl.f32	s2, s10
 2083 094a B0EE461A 		vmovmi.f32	s2, s12
 2084              	.LBE655:
 215:src/engine.cpp ****         s_vibdepth= s_vibdepth* SLEW_MISC + tvib * (1.0f - SLEW_MISC);
 2085              		.loc 1 215 19 discriminator 4 view .LVU685
 2086 094e C8ED00AA 		vstr.32	s21, [r8]
 216:src/engine.cpp ****         // Finger 2 params: fast attack, slow release
 2087              		.loc 1 216 9 is_stmt 1 discriminator 4 view .LVU686
 2088              	.LBB656:
 222:src/engine.cpp ****           s_ringmod  = s_ringmod  * sa + trm  * (1.0f - sa); }
 2089              		.loc 1 222 44 is_stmt 0 discriminator 4 view .LVU687
 2090 0952 F1EE10FA 		vmrs	APSR_nzcv, FPSCR
 2091              	.LBE656:
 227:src/engine.cpp ****         float eff_tamp = tamp * s_decay;
 2092              		.loc 1 227 59 discriminator 4 view .LVU688
 2093 0956 F7EE007A 		vmov.f32	s15, #1.0e+0
 2094              	.LBB657:
 221:src/engine.cpp ****         { float sa = trm      > s_ringmod  ? SLEW_F2_A : SLEW_F2_R;
 2095              		.loc 1 221 47 discriminator 4 view .LVU689
 2096 095a 6FEE222A 		vmul.f32	s5, s30, s5
 2097              	.LBE657:
 2098              	.LBB658:
 222:src/engine.cpp ****           s_ringmod  = s_ringmod  * sa + trm  * (1.0f - sa); }
 2099              		.loc 1 222 44 discriminator 4 view .LVU690
 2100 095e 48BF     		it	mi
 2101 0960 F0EE646A 		vmovmi.f32	s13, s9
 2102              	.LBE658:
 2103              	.LBB659:
 219:src/engine.cpp ****         { float sa = tbc      > s_bitcrush ? SLEW_F2_A : SLEW_F2_R;
 2104              		.loc 1 219 22 discriminator 4 view .LVU691
 2105 0964 C3ED001A 		vstr.32	s3, [r3]
 2106              	.LBE659:
 227:src/engine.cpp ****         float eff_tamp = tamp * s_decay;
 2107              		.loc 1 227 27 discriminator 4 view .LVU692
 2108 0968 1A9B     		ldr	r3, [sp, #104]
 2109              	.LBB660:
 222:src/engine.cpp ****           s_ringmod  = s_ringmod  * sa + trm  * (1.0f - sa); }
 2110              		.loc 1 222 44 discriminator 4 view .LVU693
 2111 096a 58BF     		it	pl
 2112 096c B0EE456A 		vmovpl.f32	s12, s10
 2113              	.LBE660:
 2114              	.LBB661:
 221:src/engine.cpp ****         { float sa = trm      > s_ringmod  ? SLEW_F2_A : SLEW_F2_R;
 2115              		.loc 1 221 40 discriminator 4 view .LVU694
 2116 0970 E2EE012A 		vfma.f32	s5, s4, s2
 2117              	.LBE661:
 216:src/engine.cpp ****         // Finger 2 params: fast attack, slow release
 2118              		.loc 1 216 43 discriminator 4 view .LVU695
ARM GAS  /tmp/claude-502/ccU8FNgW.s 			page 54


 2119 0974 9DED0C1A 		vldr.32	s2, [sp, #48]
 227:src/engine.cpp ****         float eff_tamp = tamp * s_decay;
 2120              		.loc 1 227 27 discriminator 4 view .LVU696
 2121 0978 D3ED003A 		vldr.32	s7, [r3]
 2122              	.LBB662:
 223:src/engine.cpp ****         // Amp decay-to-sustain: s_decay rides 1 → sustain over decay_ms while the
 2123              		.loc 1 223 47 discriminator 4 view .LVU697
 2124 097c 6EEEA66A 		vmul.f32	s13, s29, s13
 2125              	.LBE662:
 227:src/engine.cpp ****         float eff_tamp = tamp * s_decay;
 2126              		.loc 1 227 51 discriminator 4 view .LVU698
 2127 0980 1B9B     		ldr	r3, [sp, #108]
 227:src/engine.cpp ****         float eff_tamp = tamp * s_decay;
 2128              		.loc 1 227 59 discriminator 4 view .LVU699
 2129 0982 77EEE37A 		vsub.f32	s15, s15, s7
 2130              	.LBB663:
 223:src/engine.cpp ****         // Amp decay-to-sustain: s_decay rides 1 → sustain over decay_ms while the
 2131              		.loc 1 223 40 discriminator 4 view .LVU700
 2132 0986 E3EE066A 		vfma.f32	s13, s6, s12
 2133              	.LBE663:
 227:src/engine.cpp ****         float eff_tamp = tamp * s_decay;
 2134              		.loc 1 227 51 discriminator 4 view .LVU701
 2135 098a 93ED006A 		vldr.32	s12, [r3]
 216:src/engine.cpp ****         // Finger 2 params: fast attack, slow release
 2136              		.loc 1 216 43 discriminator 4 view .LVU702
 2137 098e 6C4B     		ldr	r3, .L358+64
 227:src/engine.cpp ****         float eff_tamp = tamp * s_decay;
 2138              		.loc 1 227 51 discriminator 4 view .LVU703
 2139 0990 67EE867A 		vmul.f32	s15, s15, s12
 227:src/engine.cpp ****         float eff_tamp = tamp * s_decay;
 2140              		.loc 1 227 39 discriminator 4 view .LVU704
 2141 0994 9BED006A 		vldr.32	s12, [fp]
 2142              	.LBB664:
 221:src/engine.cpp ****         { float sa = trm      > s_ringmod  ? SLEW_F2_A : SLEW_F2_R;
 2143              		.loc 1 221 22 discriminator 4 view .LVU705
 2144 0998 C2ED002A 		vstr.32	s5, [r2]
 2145              	.LBE664:
 227:src/engine.cpp ****         float eff_tamp = tamp * s_decay;
 2146              		.loc 1 227 39 discriminator 4 view .LVU706
 2147 099c E6EE237A 		vfma.f32	s15, s12, s7
 2148              	.LBB665:
 223:src/engine.cpp ****         // Amp decay-to-sustain: s_decay rides 1 → sustain over decay_ms while the
 2149              		.loc 1 223 22 discriminator 4 view .LVU707
 2150 09a0 C1ED006A 		vstr.32	s13, [r1]
 2151              	.LBE665:
 228:src/engine.cpp ****         // Asymmetric envelope: attack while rising OR decaying-while-held (track the
 2152              		.loc 1 228 15 discriminator 4 view .LVU708
 2153 09a4 27EE8C6A 		vmul.f32	s12, s15, s24
 227:src/engine.cpp ****         float eff_tamp = tamp * s_decay;
 2154              		.loc 1 227 17 discriminator 4 view .LVU709
 2155 09a8 CBED007A 		vstr.32	s15, [fp]
 216:src/engine.cpp ****         // Finger 2 params: fast attack, slow release
 2156              		.loc 1 216 43 discriminator 4 view .LVU710
 2157 09ac D3ED007A 		vldr.32	s15, [r3]
 2158 09b0 A7EE841A 		vfma.f32	s2, s15, s8
 216:src/engine.cpp ****         // Finger 2 params: fast attack, slow release
 2159              		.loc 1 216 19 discriminator 4 view .LVU711
ARM GAS  /tmp/claude-502/ccU8FNgW.s 			page 55


 2160 09b4 83ED001A 		vstr.32	s2, [r3]
 218:src/engine.cpp ****           s_detune   = s_detune   * sa + tdet * (1.0f - sa); }
 2161              		.loc 1 218 9 is_stmt 1 discriminator 4 view .LVU712
 2162              	.LBB666:
 218:src/engine.cpp ****           s_detune   = s_detune   * sa + tdet * (1.0f - sa); }
 2163              		.loc 1 218 11 discriminator 4 view .LVU713
 219:src/engine.cpp ****         { float sa = tbc      > s_bitcrush ? SLEW_F2_A : SLEW_F2_R;
 2164              		.loc 1 219 11 discriminator 4 view .LVU714
 2165              	.LBE666:
 220:src/engine.cpp ****           s_bitcrush = s_bitcrush * sa + tbc  * (1.0f - sa); }
 2166              		.loc 1 220 9 discriminator 4 view .LVU715
 2167              	.LBB667:
 220:src/engine.cpp ****           s_bitcrush = s_bitcrush * sa + tbc  * (1.0f - sa); }
 2168              		.loc 1 220 11 discriminator 4 view .LVU716
 2169              	.LVL149:
 221:src/engine.cpp ****         { float sa = trm      > s_ringmod  ? SLEW_F2_A : SLEW_F2_R;
 2170              		.loc 1 221 11 discriminator 4 view .LVU717
 2171              	.LBE667:
 222:src/engine.cpp ****           s_ringmod  = s_ringmod  * sa + trm  * (1.0f - sa); }
 2172              		.loc 1 222 9 discriminator 4 view .LVU718
 2173              	.LBB668:
 222:src/engine.cpp ****           s_ringmod  = s_ringmod  * sa + trm  * (1.0f - sa); }
 2174              		.loc 1 222 11 discriminator 4 view .LVU719
 223:src/engine.cpp ****         // Amp decay-to-sustain: s_decay rides 1 → sustain over decay_ms while the
 2175              		.loc 1 223 11 discriminator 4 view .LVU720
 2176              	.LBE668:
 227:src/engine.cpp ****         float eff_tamp = tamp * s_decay;
 2177              		.loc 1 227 9 discriminator 4 view .LVU721
 228:src/engine.cpp ****         // Asymmetric envelope: attack while rising OR decaying-while-held (track the
 2178              		.loc 1 228 9 discriminator 4 view .LVU722
 232:src/engine.cpp ****         s_amp = s_amp * slew_amp + eff_tamp * (1.0f - slew_amp);
 2179              		.loc 1 232 9 discriminator 4 view .LVU723
 232:src/engine.cpp ****         s_amp = s_amp * slew_amp + eff_tamp * (1.0f - slew_amp);
 2180              		.loc 1 232 36 is_stmt 0 discriminator 4 view .LVU724
 2181 09b8 029B     		ldr	r3, [sp, #8]
 2182 09ba D3ED004A 		vldr.32	s9, [r3]
 232:src/engine.cpp ****         s_amp = s_amp * slew_amp + eff_tamp * (1.0f - slew_amp);
 2183              		.loc 1 232 62 discriminator 4 view .LVU725
 2184 09be F4EEC64A 		vcmpe.f32	s9, s12
 2185 09c2 F1EE10FA 		vmrs	APSR_nzcv, FPSCR
 2186              	.LVL150:
 232:src/engine.cpp ****         s_amp = s_amp * slew_amp + eff_tamp * (1.0f - slew_amp);
 2187              		.loc 1 232 62 discriminator 4 view .LVU726
 2188 09c6 00F1DC81 		bmi	.L40
 232:src/engine.cpp ****         s_amp = s_amp * slew_amp + eff_tamp * (1.0f - slew_amp);
 2189              		.loc 1 232 44 discriminator 2 view .LVU727
 2190 09ca DFED4F7A 		vldr.32	s15, .L358+8
 2191 09ce B4EEE7CA 		vcmpe.f32	s24, s15
 2192 09d2 F1EE10FA 		vmrs	APSR_nzcv, FPSCR
 2193 09d6 00F3D481 		bgt	.L40
 232:src/engine.cpp ****         s_amp = s_amp * slew_amp + eff_tamp * (1.0f - slew_amp);
 2194              		.loc 1 232 62 discriminator 4 view .LVU728
 2195 09da 534B     		ldr	r3, .L358+40
 2196 09dc 93ED004A 		vldr.32	s8, [r3]
 2197              	.L43:
 2198              	.LVL151:
 233:src/engine.cpp ****         // Master volume slew (smooths FSR jitter / 16 Hz update steps).
ARM GAS  /tmp/claude-502/ccU8FNgW.s 			page 56


 2199              		.loc 1 233 9 is_stmt 1 discriminator 6 view .LVU729
 233:src/engine.cpp ****         // Master volume slew (smooths FSR jitter / 16 Hz update steps).
 2200              		.loc 1 233 53 is_stmt 0 discriminator 6 view .LVU730
 2201 09e0 F7EE007A 		vmov.f32	s15, #1.0e+0
 233:src/engine.cpp ****         // Master volume slew (smooths FSR jitter / 16 Hz update steps).
 2202              		.loc 1 233 15 discriminator 6 view .LVU731
 2203 09e4 029B     		ldr	r3, [sp, #8]
 235:src/engine.cpp ****         // Pitch envelope decays toward 1.0 (no-op when pitch_env_oct == 0).
 2204              		.loc 1 235 49 discriminator 6 view .LVU732
 2205 09e6 9DED0DAA 		vldr.32	s20, [sp, #52]
 237:src/engine.cpp **** 
 2206              		.loc 1 237 35 discriminator 6 view .LVU733
 2207 09ea 9AED005A 		vldr.32	s10, [r10]
 2208              	.LVL152:
 233:src/engine.cpp ****         // Master volume slew (smooths FSR jitter / 16 Hz update steps).
 2209              		.loc 1 233 53 discriminator 6 view .LVU734
 2210 09ee 77EEC43A 		vsub.f32	s7, s15, s8
 237:src/engine.cpp **** 
 2211              		.loc 1 237 35 discriminator 6 view .LVU735
 2212 09f2 35EE675A 		vsub.f32	s10, s10, s15
 233:src/engine.cpp ****         // Master volume slew (smooths FSR jitter / 16 Hz update steps).
 2213              		.loc 1 233 45 discriminator 6 view .LVU736
 2214 09f6 23EE866A 		vmul.f32	s12, s7, s12
 2215              	.LVL153:
 233:src/engine.cpp ****         // Master volume slew (smooths FSR jitter / 16 Hz update steps).
 2216              		.loc 1 233 34 discriminator 6 view .LVU737
 2217 09fa A4EE846A 		vfma.f32	s12, s9, s8
 235:src/engine.cpp ****         // Pitch envelope decays toward 1.0 (no-op when pitch_env_oct == 0).
 2218              		.loc 1 235 49 discriminator 6 view .LVU738
 2219 09fe DFED4F4A 		vldr.32	s9, .L358+60
 233:src/engine.cpp ****         // Master volume slew (smooths FSR jitter / 16 Hz update steps).
 2220              		.loc 1 233 15 discriminator 6 view .LVU739
 2221 0a02 83ED006A 		vstr.32	s12, [r3]
 235:src/engine.cpp ****         // Pitch envelope decays toward 1.0 (no-op when pitch_env_oct == 0).
 2222              		.loc 1 235 9 is_stmt 1 discriminator 6 view .LVU740
 235:src/engine.cpp ****         // Pitch envelope decays toward 1.0 (no-op when pitch_env_oct == 0).
 2223              		.loc 1 235 49 is_stmt 0 discriminator 6 view .LVU741
 2224 0a06 4F4B     		ldr	r3, .L358+68
 2225 0a08 93ED004A 		vldr.32	s8, [r3]
 2226              	.LVL154:
 235:src/engine.cpp ****         // Pitch envelope decays toward 1.0 (no-op when pitch_env_oct == 0).
 2227              		.loc 1 235 49 discriminator 6 view .LVU742
 2228 0a0c A4EE24AA 		vfma.f32	s20, s8, s9
 235:src/engine.cpp ****         // Pitch envelope decays toward 1.0 (no-op when pitch_env_oct == 0).
 2229              		.loc 1 235 22 discriminator 6 view .LVU743
 2230 0a10 83ED00AA 		vstr.32	s20, [r3]
 237:src/engine.cpp **** 
 2231              		.loc 1 237 9 is_stmt 1 discriminator 6 view .LVU744
 237:src/engine.cpp **** 
 2232              		.loc 1 237 24 is_stmt 0 discriminator 6 view .LVU745
 2233 0a14 199B     		ldr	r3, [sp, #100]
 2234 0a16 D3ED004A 		vldr.32	s9, [r3]
 2235 0a1a E5EE247A 		vfma.f32	s15, s10, s9
 2236 0a1e B0EE672A 		vmov.f32	s4, s15
 2237              	.LVL155:
 237:src/engine.cpp **** 
 2238              		.loc 1 237 17 discriminator 6 view .LVU746
ARM GAS  /tmp/claude-502/ccU8FNgW.s 			page 57


 2239 0a22 CAED007A 		vstr.32	s15, [r10]
 241:src/engine.cpp ****             s_flt[0] *= 0.999f;
 2240              		.loc 1 241 9 is_stmt 1 discriminator 6 view .LVU747
 2241 0a26 DFED387A 		vldr.32	s15, .L358+8
 2242 0a2a B4EEE76A 		vcmpe.f32	s12, s15
 2243 0a2e F1EE10FA 		vmrs	APSR_nzcv, FPSCR
 2244 0a32 00F1AA81 		bmi	.L44
 2245              	.LBB669:
 2246              	.LBB446:
 2247              	.LBB437:
  74:src/dsp.h     ****     float x  = in - fb;
 2248              		.loc 2 74 22 is_stmt 0 view .LVU748
 2249 0a36 94ED035A 		vldr.32	s10, [r4, #12]
  76:src/dsp.h     ****     st[1]+=f*(fast_tanh(st[0])-fast_tanh(st[1]));
 2250              		.loc 2 76 41 view .LVU749
 2251 0a3a 94ED003A 		vldr.32	s6, [r4]
 2252              	.LVL156:
  77:src/dsp.h     ****     st[2]+=f*(fast_tanh(st[1])-fast_tanh(st[2]));
 2253              		.loc 2 77 41 view .LVU750
 2254 0a3e D4ED013A 		vldr.32	s7, [r4, #4]
  78:src/dsp.h     ****     st[3]+=f*(fast_tanh(st[2])-fast_tanh(st[3]));
 2255              		.loc 2 78 41 view .LVU751
 2256 0a42 94ED024A 		vldr.32	s8, [r4, #8]
 2257              	.L45:
 2258              	.LBE437:
 2259              	.LBE446:
 2260              	.LBE669:
 250:src/engine.cpp ****             // Pull cutoff toward silence-floor proportional to amp decay
 2261              		.loc 1 250 9 is_stmt 1 view .LVU752
 2262              	.LBB670:
 2263 0a46 DFED307A 		vldr.32	s15, .L358+8
 2264 0a4a B4EEE7CA 		vcmpe.f32	s24, s15
 2265 0a4e F1EE10FA 		vmrs	APSR_nzcv, FPSCR
 2266 0a52 0CD5     		bpl	.L46
 250:src/engine.cpp ****             // Pull cutoff toward silence-floor proportional to amp decay
 2267              		.loc 1 250 26 is_stmt 0 discriminator 1 view .LVU753
 2268 0a54 DFED3C7A 		vldr.32	s15, .L358+72
 2269 0a58 B4EEE76A 		vcmpe.f32	s12, s15
 2270 0a5c F1EE10FA 		vmrs	APSR_nzcv, FPSCR
 2271 0a60 05DD     		ble	.L46
 2272              	.LBB671:
 252:src/engine.cpp ****             tcut = close_target;
 2273              		.loc 1 252 13 is_stmt 1 view .LVU754
 252:src/engine.cpp ****             tcut = close_target;
 2274              		.loc 1 252 19 is_stmt 0 view .LVU755
 2275 0a62 F3EE0E7A 		vmov.f32	s15, #3.0e+1
 2276 0a66 E6EE2C7A 		vfma.f32	s15, s12, s25
 2277 0a6a F0EE67CA 		vmov.f32	s25, s15
 2278              	.LVL157:
 253:src/engine.cpp ****         }
 2279              		.loc 1 253 13 is_stmt 1 view .LVU756
 2280              	.L46:
 253:src/engine.cpp ****         }
 2281              		.loc 1 253 13 is_stmt 0 view .LVU757
 2282              	.LBE671:
 2283              	.LBE670:
 257:src/engine.cpp ****         if(s_lfo_phase>=1.0f)s_lfo_phase-=1.0f;
ARM GAS  /tmp/claude-502/ccU8FNgW.s 			page 58


 2284              		.loc 1 257 9 is_stmt 1 view .LVU758
 257:src/engine.cpp ****         if(s_lfo_phase>=1.0f)s_lfo_phase-=1.0f;
 2285              		.loc 1 257 21 is_stmt 0 view .LVU759
 2286 0a6e 374B     		ldr	r3, .L358+76
 2287              	.LBB672:
 2288              	.LBB673:
  41:src/dsp.h     **** }
 2289              		.loc 2 41 19 view .LVU760
 2290 0a70 F1EE000A 		vmov.f32	s1, #4.0e+0
 2291              	.LBE673:
 2292              	.LBE672:
 257:src/engine.cpp ****         if(s_lfo_phase>=1.0f)s_lfo_phase-=1.0f;
 2293              		.loc 1 257 21 view .LVU761
 2294 0a74 DDED0E7A 		vldr.32	s15, [sp, #56]
 2295 0a78 D3ED004A 		vldr.32	s9, [r3]
 2296 0a7c 77EEA44A 		vadd.f32	s9, s15, s9
 258:src/engine.cpp ****         float lfo = tri(s_lfo_phase); // -1..1
 2297              		.loc 1 258 9 is_stmt 1 view .LVU762
 2298 0a80 F7EE007A 		vmov.f32	s15, #1.0e+0
 2299 0a84 F4EEE74A 		vcmpe.f32	s9, s15
 2300 0a88 F1EE10FA 		vmrs	APSR_nzcv, FPSCR
 258:src/engine.cpp ****         float lfo = tri(s_lfo_phase); // -1..1
 2301              		.loc 1 258 30 view .LVU763
 258:src/engine.cpp ****         float lfo = tri(s_lfo_phase); // -1..1
 2302              		.loc 1 258 41 is_stmt 0 view .LVU764
 2303 0a8c A4BF     		itt	ge
 2304 0a8e 74EEE74A 		vsubge.f32	s9, s9, s15
 2305 0a92 2E4B     		ldrge	r3, .L358+76
 2306              	.LBB677:
 2307              	.LBB674:
  41:src/dsp.h     **** }
 2308              		.loc 2 41 19 view .LVU765
 2309 0a94 F6EE007A 		vmov.f32	s15, #5.0e-1
 2310              	.LBE674:
 2311              	.LBE677:
 258:src/engine.cpp ****         float lfo = tri(s_lfo_phase); // -1..1
 2312              		.loc 1 258 41 view .LVU766
 2313 0a98 C3ED004A 		vstr.32	s9, [r3]
 259:src/engine.cpp **** 
 2314              		.loc 1 259 9 is_stmt 1 view .LVU767
 2315              	.LVL158:
 2316              	.LBB678:
 2317              	.LBI672:
  40:src/dsp.h     ****     return ph<0.5f?(4.0f*ph-1.0f):(3.0f-4.0f*ph);
 2318              		.loc 2 40 21 view .LVU768
 2319              	.LBB675:
  41:src/dsp.h     **** }
 2320              		.loc 2 41 5 view .LVU769
  41:src/dsp.h     **** }
 2321              		.loc 2 41 19 is_stmt 0 view .LVU770
 2322 0a9c F4EEE74A 		vcmpe.f32	s9, s15
 2323 0aa0 F1EE10FA 		vmrs	APSR_nzcv, FPSCR
 2324 0aa4 40F19A81 		bpl	.L299
  41:src/dsp.h     **** }
 2325              		.loc 2 41 19 view .LVU771
 2326 0aa8 FFEE007A 		vmov.f32	s15, #-1.0e+0
 2327 0aac E4EEA07A 		vfma.f32	s15, s9, s1
ARM GAS  /tmp/claude-502/ccU8FNgW.s 			page 59


 2328              	.L53:
 2329              	.LVL159:
  41:src/dsp.h     **** }
 2330              		.loc 2 41 19 view .LVU772
 2331              	.LBE675:
 2332              	.LBE678:
 263:src/engine.cpp ****         float freq_vib = s_freq * (1.0f + vib_amt) * s_pmult;  // s_pmult: pitch-env sweep
 2333              		.loc 1 263 9 is_stmt 1 view .LVU773
 264:src/engine.cpp **** 
 2334              		.loc 1 264 9 view .LVU774
 264:src/engine.cpp **** 
 2335              		.loc 1 264 41 is_stmt 0 view .LVU775
 2336 0ab0 F7EE004A 		vmov.f32	s9, #1.0e+0
 2337 0ab4 DFED260A 		vldr.32	s1, .L358+80
 263:src/engine.cpp ****         float freq_vib = s_freq * (1.0f + vib_amt) * s_pmult;  // s_pmult: pitch-env sweep
 2338              		.loc 1 263 29 view .LVU776
 2339 0ab8 21EE271A 		vmul.f32	s2, s2, s15
 2340              	.LVL160:
 2341              	.LBB679:
 270:src/engine.cpp ****             float det_ratio = 1.0f + s_detune * 0.05776f; // linear approx, good for ±1 oct
 2342              		.loc 1 270 9 view .LVU777
 2343 0abc 0F9B     		ldr	r3, [sp, #60]
 2344              	.LBE679:
 264:src/engine.cpp **** 
 2345              		.loc 1 264 41 view .LVU778
 2346 0abe F0EE647A 		vmov.f32	s15, s9
 2347              	.LVL161:
 264:src/engine.cpp **** 
 2348              		.loc 1 264 41 view .LVU779
 2349 0ac2 E1EE207A 		vfma.f32	s15, s2, s1
 264:src/engine.cpp **** 
 2350              		.loc 1 264 33 view .LVU780
 2351 0ac6 67EE277A 		vmul.f32	s15, s14, s15
 264:src/engine.cpp **** 
 2352              		.loc 1 264 15 view .LVU781
 2353 0aca 67EE827A 		vmul.f32	s15, s15, s4
 2354              	.LVL162:
 269:src/engine.cpp ****         if(VOICE.osc2_detune) {
 2355              		.loc 1 269 9 is_stmt 1 view .LVU782
 270:src/engine.cpp ****             float det_ratio = 1.0f + s_detune * 0.05776f; // linear approx, good for ±1 oct
 2356              		.loc 1 270 9 view .LVU783
 2357              	.LBB680:
 2358 0ace 002B     		cmp	r3, #0
 2359 0ad0 00F07B81 		beq	.L54
 2360              	.LBB356:
 271:src/engine.cpp ****             freq2 = freq_vib * VOICE.osc2_ratio * det_ratio;
 2361              		.loc 1 271 13 view .LVU784
 272:src/engine.cpp ****         } else {
 2362              		.loc 1 272 38 is_stmt 0 view .LVU785
 2363 0ad4 9C23     		movs	r3, #156
 2364 0ad6 009A     		ldr	r2, [sp]
 271:src/engine.cpp ****             freq2 = freq_vib * VOICE.osc2_ratio * det_ratio;
 2365              		.loc 1 271 19 view .LVU786
 2366 0ad8 9FED1E2A 		vldr.32	s4, .L358+84
 272:src/engine.cpp ****         } else {
 2367              		.loc 1 272 38 view .LVU787
 2368 0adc 03FB0253 		mla	r3, r3, r2, r5
ARM GAS  /tmp/claude-502/ccU8FNgW.s 			page 60


 271:src/engine.cpp ****             freq2 = freq_vib * VOICE.osc2_ratio * det_ratio;
 2369              		.loc 1 271 19 view .LVU788
 2370 0ae0 E1EE824A 		vfma.f32	s9, s3, s4
 2371              	.LVL163:
 272:src/engine.cpp ****         } else {
 2372              		.loc 1 272 13 is_stmt 1 view .LVU789
 272:src/engine.cpp ****         } else {
 2373              		.loc 1 272 30 is_stmt 0 view .LVU790
 2374 0ae4 93ED077A 		vldr.32	s14, [r3, #28]
 2375 0ae8 27EE877A 		vmul.f32	s14, s15, s14
 272:src/engine.cpp ****         } else {
 2376              		.loc 1 272 19 view .LVU791
 2377 0aec 27EE24DA 		vmul.f32	s26, s14, s9
 2378              	.LVL164:
 2379              	.L55:
 272:src/engine.cpp ****         } else {
 2380              		.loc 1 272 19 view .LVU792
 2381              	.LBE356:
 2382              	.LBE680:
 278:src/engine.cpp ****         float freq_oct = freq_vib * VOICE.oct_ratio;
 2383              		.loc 1 278 9 is_stmt 1 view .LVU793
 278:src/engine.cpp ****         float freq_oct = freq_vib * VOICE.oct_ratio;
 2384              		.loc 1 278 15 is_stmt 0 view .LVU794
 2385 0af0 9DED107A 		vldr.32	s14, [sp, #64]
 286:src/engine.cpp ****         float osc2    = osc(s_phase2,   VOICE.osc2_wave) * VOICE.osc2_level;
 2386              		.loc 1 286 28 view .LVU795
 2387 0af4 034B     		ldr	r3, .L358+4
 278:src/engine.cpp ****         float freq_oct = freq_vib * VOICE.oct_ratio;
 2388              		.loc 1 278 15 view .LVU796
 2389 0af6 67EE87BA 		vmul.f32	s23, s15, s14
 2390              	.LVL165:
 279:src/engine.cpp **** 
 2391              		.loc 1 279 9 is_stmt 1 view .LVU797
 279:src/engine.cpp **** 
 2392              		.loc 1 279 15 is_stmt 0 view .LVU798
 2393 0afa 9DED117A 		vldr.32	s14, [sp, #68]
 2394 0afe 2BE0     		b	.L359
 2395              	.L360:
 2396              		.align	2
 2397              	.L358:
 2398 0b00 00000000 		.word	.LANCHOR43
 2399 0b04 00000000 		.word	.LANCHOR34
 2400 0b08 6F12833A 		.word	981668463
 2401 0b0c 00000000 		.word	.LANCHOR35
 2402 0b10 00000000 		.word	.LANCHOR36
 2403 0b14 00000000 		.word	.LANCHOR37
 2404 0b18 00000000 		.word	.LANCHOR40
 2405 0b1c 00000000 		.word	.LANCHOR42
 2406 0b20 00000000 		.word	.LANCHOR44
 2407 0b24 00000000 		.word	led3
 2408 0b28 00000000 		.word	.LANCHOR14
 2409 0b2c 00D7A33C 		.word	1017370368
 2410 0b30 0012833A 		.word	981668352
 2411 0b34 48E17A3F 		.word	1065017672
 2412 0b38 77BE7F3F 		.word	1065336439
 2413 0b3c A4707D3F 		.word	1065185444
 2414 0b40 00000000 		.word	.LANCHOR31
ARM GAS  /tmp/claude-502/ccU8FNgW.s 			page 61


 2415 0b44 00000000 		.word	.LANCHOR32
 2416 0b48 17B7D138 		.word	953267991
 2417 0b4c 00000000 		.word	.LANCHOR33
 2418 0b50 CDCC4C3D 		.word	1028443341
 2419 0b54 C0956C3D 		.word	1030526400
 2420              	.L359:
 286:src/engine.cpp ****         float osc2    = osc(s_phase2,   VOICE.osc2_wave) * VOICE.osc2_level;
 2421              		.loc 1 286 28 view .LVU799
 2422 0b58 D3ED009A 		vldr.32	s19, [r3]
 2423              	.LBB681:
 2424              	.LBB682:
  58:src/dsp.h     ****         case WAVE_SINE:   return osc_sine(ph);
 2425              		.loc 2 58 5 view .LVU800
 2426 0b5c 139B     		ldr	r3, [sp, #76]
 2427              	.LBE682:
 2428              	.LBE681:
 279:src/engine.cpp **** 
 2429              		.loc 1 279 15 view .LVU801
 2430 0b5e 27EE87EA 		vmul.f32	s28, s15, s14
 2431              	.LVL166:
 283:src/engine.cpp **** 
 2432              		.loc 1 283 9 is_stmt 1 view .LVU802
 283:src/engine.cpp **** 
 2433              		.loc 1 283 15 is_stmt 0 view .LVU803
 2434 0b62 9DED127A 		vldr.32	s14, [sp, #72]
 2435              	.LBB710:
 2436              	.LBB701:
  58:src/dsp.h     ****         case WAVE_SINE:   return osc_sine(ph);
 2437              		.loc 2 58 5 view .LVU804
 2438 0b66 022B     		cmp	r3, #2
 2439              	.LBE701:
 2440              	.LBE710:
 283:src/engine.cpp **** 
 2441              		.loc 1 283 15 view .LVU805
 2442 0b68 67EE87DA 		vmul.f32	s27, s15, s14
 2443              	.LVL167:
 286:src/engine.cpp ****         float osc2    = osc(s_phase2,   VOICE.osc2_wave) * VOICE.osc2_level;
 2444              		.loc 1 286 9 is_stmt 1 view .LVU806
 2445              	.LBB711:
 2446              	.LBI681:
  57:src/dsp.h     ****     switch(w){
 2447              		.loc 2 57 21 view .LVU807
 2448              	.LBB702:
  58:src/dsp.h     ****         case WAVE_SINE:   return osc_sine(ph);
 2449              		.loc 2 58 5 view .LVU808
 2450 0b6c 00F0BE82 		beq	.L56
  58:src/dsp.h     ****         case WAVE_SINE:   return osc_sine(ph);
 2451              		.loc 2 58 5 is_stmt 0 view .LVU809
 2452 0b70 032B     		cmp	r3, #3
 2453 0b72 00F04D81 		beq	.L57
 2454 0b76 012B     		cmp	r3, #1
 2455 0b78 00F03E82 		beq	.L339
 2456              	.LVL168:
 2457              	.LBB683:
 2458              	.LBI683:
  57:src/dsp.h     ****     switch(w){
 2459              		.loc 2 57 21 is_stmt 1 view .LVU810
ARM GAS  /tmp/claude-502/ccU8FNgW.s 			page 62


  57:src/dsp.h     ****     switch(w){
 2460              		.loc 2 57 21 is_stmt 0 view .LVU811
 2461              	.LBE683:
 2462              	.LBE702:
 2463              	.LBE711:
 2464              	.LBE910:
 2465              	.LBE921:
  62:src/dsp.h     ****         default:          return tri(ph);
 2466              		.loc 2 62 9 is_stmt 1 view .LVU812
  63:src/dsp.h     ****     }
 2467              		.loc 2 63 9 view .LVU813
  63:src/dsp.h     ****     }
 2468              		.loc 2 63 27 view .LVU814
 2469              	.LBB922:
 2470              	.LBB911:
 2471              	.LBB712:
 2472              	.LBB703:
 2473              	.LBB690:
 2474              	.LBB684:
 2475              	.LBI684:
  40:src/dsp.h     ****     return ph<0.5f?(4.0f*ph-1.0f):(3.0f-4.0f*ph);
 2476              		.loc 2 40 21 view .LVU815
 2477              	.LBB685:
  41:src/dsp.h     **** }
 2478              		.loc 2 41 5 view .LVU816
  41:src/dsp.h     **** }
 2479              		.loc 2 41 19 is_stmt 0 view .LVU817
 2480 0b7c B6EE007A 		vmov.f32	s14, #5.0e-1
 2481 0b80 F1EE004A 		vmov.f32	s9, #4.0e+0
 2482 0b84 F4EEC79A 		vcmpe.f32	s19, s14
 2483 0b88 F1EE10FA 		vmrs	APSR_nzcv, FPSCR
 2484 0b8c 00F14281 		bmi	.L325
 2485 0b90 B0EE087A 		vmov.f32	s14, #3.0e+0
 2486 0b94 A9EEE47A 		vfms.f32	s14, s19, s9
 2487              	.LBE685:
 2488              	.LBE684:
 2489              	.LBE690:
 2490              	.LBE703:
 2491              	.LBE712:
 286:src/engine.cpp ****         float osc2    = osc(s_phase2,   VOICE.osc2_wave) * VOICE.osc2_level;
 2492              		.loc 1 286 66 view .LVU818
 2493 0b98 DDED204A 		vldr.32	s9, [sp, #128]
 2494 0b9c 27EE247A 		vmul.f32	s14, s14, s9
 2495 0ba0 8DED037A 		vstr.32	s14, [sp, #12]
 2496              	.LVL169:
 2497              	.L63:
 287:src/engine.cpp ****         float sub     = osc(s_phase_sub,VOICE.sub_wave)  * VOICE.sub_level;
 2498              		.loc 1 287 9 is_stmt 1 view .LVU819
 287:src/engine.cpp ****         float sub     = osc(s_phase_sub,VOICE.sub_wave)  * VOICE.sub_level;
 2499              		.loc 1 287 28 is_stmt 0 view .LVU820
 2500 0ba4 D04B     		ldr	r3, .L361
 2501 0ba6 93ED009A 		vldr.32	s18, [r3]
 2502              	.LVL170:
 2503              	.LBB713:
 2504              	.LBI713:
  57:src/dsp.h     ****     switch(w){
 2505              		.loc 2 57 21 is_stmt 1 view .LVU821
ARM GAS  /tmp/claude-502/ccU8FNgW.s 			page 63


 2506              	.LBB714:
  58:src/dsp.h     ****         case WAVE_SINE:   return osc_sine(ph);
 2507              		.loc 2 58 5 view .LVU822
 2508 0baa 149B     		ldr	r3, [sp, #80]
 2509 0bac 022B     		cmp	r3, #2
 2510 0bae 00F04281 		beq	.L66
 2511              	.L344:
  58:src/dsp.h     ****         case WAVE_SINE:   return osc_sine(ph);
 2512              		.loc 2 58 5 is_stmt 0 view .LVU823
 2513 0bb2 032B     		cmp	r3, #3
 2514 0bb4 00F05182 		beq	.L67
 2515 0bb8 012B     		cmp	r3, #1
 2516 0bba 00F06482 		beq	.L340
 2517              	.LVL171:
 2518              	.LBB715:
 2519              	.LBI715:
  57:src/dsp.h     ****     switch(w){
 2520              		.loc 2 57 21 is_stmt 1 view .LVU824
  57:src/dsp.h     ****     switch(w){
 2521              		.loc 2 57 21 is_stmt 0 view .LVU825
 2522              	.LBE715:
 2523              	.LBE714:
 2524              	.LBE713:
 2525              	.LBE911:
 2526              	.LBE922:
  62:src/dsp.h     ****         default:          return tri(ph);
 2527              		.loc 2 62 9 is_stmt 1 view .LVU826
  63:src/dsp.h     ****     }
 2528              		.loc 2 63 9 view .LVU827
  63:src/dsp.h     ****     }
 2529              		.loc 2 63 27 view .LVU828
 2530              	.LBB923:
 2531              	.LBB912:
 2532              	.LBB753:
 2533              	.LBB740:
 2534              	.LBB724:
 2535              	.LBB716:
 2536              	.LBI716:
  40:src/dsp.h     ****     return ph<0.5f?(4.0f*ph-1.0f):(3.0f-4.0f*ph);
 2537              		.loc 2 40 21 view .LVU829
 2538              	.LBB717:
  41:src/dsp.h     **** }
 2539              		.loc 2 41 5 view .LVU830
  41:src/dsp.h     **** }
 2540              		.loc 2 41 19 is_stmt 0 view .LVU831
 2541 0bbe F6EE004A 		vmov.f32	s9, #5.0e-1
 2542 0bc2 B4EEE49A 		vcmpe.f32	s18, s9
 2543 0bc6 F1EE004A 		vmov.f32	s9, #4.0e+0
 2544 0bca F1EE10FA 		vmrs	APSR_nzcv, FPSCR
 2545 0bce 40F15E83 		bpl	.L303
  41:src/dsp.h     **** }
 2546              		.loc 2 41 19 view .LVU832
 2547 0bd2 FFEE000A 		vmov.f32	s1, #-1.0e+0
 2548              	.LBE717:
 2549              	.LBE716:
 2550              	.LBE724:
 2551              	.LBE740:
ARM GAS  /tmp/claude-502/ccU8FNgW.s 			page 64


 2552              	.LBE753:
 287:src/engine.cpp ****         float sub     = osc(s_phase_sub,VOICE.sub_wave)  * VOICE.sub_level;
 2553              		.loc 1 287 66 view .LVU833
 2554 0bd6 9DED217A 		vldr.32	s14, [sp, #132]
 2555              	.LBB754:
 2556              	.LBB741:
 2557              	.LBB725:
 2558              	.LBB721:
 2559              	.LBB718:
  41:src/dsp.h     **** }
 2560              		.loc 2 41 19 view .LVU834
 2561 0bda E9EE240A 		vfma.f32	s1, s18, s9
 2562              	.LBE718:
 2563              	.LBE721:
 2564              	.LBE725:
 2565              	.LBE741:
 2566              	.LBE754:
 287:src/engine.cpp ****         float sub     = osc(s_phase_sub,VOICE.sub_wave)  * VOICE.sub_level;
 2567              		.loc 1 287 66 view .LVU835
 2568 0bde 60EE870A 		vmul.f32	s1, s1, s14
 2569              	.LVL172:
 2570              	.L73:
 288:src/engine.cpp ****         float osc_oct = osc(s_phase_oct,VOICE.oct_wave)  * VOICE.oct_level;
 2571              		.loc 1 288 9 is_stmt 1 view .LVU836
 288:src/engine.cpp ****         float osc_oct = osc(s_phase_oct,VOICE.oct_wave)  * VOICE.oct_level;
 2572              		.loc 1 288 28 is_stmt 0 view .LVU837
 2573 0be2 C24B     		ldr	r3, .L361+4
 2574 0be4 D3ED008A 		vldr.32	s17, [r3]
 2575              	.LVL173:
 2576              	.LBB755:
 2577              	.LBI755:
  57:src/dsp.h     ****     switch(w){
 2578              		.loc 2 57 21 is_stmt 1 view .LVU838
 2579              	.LBB756:
  58:src/dsp.h     ****         case WAVE_SINE:   return osc_sine(ph);
 2580              		.loc 2 58 5 view .LVU839
 2581 0be8 159B     		ldr	r3, [sp, #84]
 2582 0bea 022B     		cmp	r3, #2
 2583 0bec 00F03681 		beq	.L76
 2584              	.L345:
  58:src/dsp.h     ****         case WAVE_SINE:   return osc_sine(ph);
 2585              		.loc 2 58 5 is_stmt 0 view .LVU840
 2586 0bf0 032B     		cmp	r3, #3
 2587 0bf2 00F03D82 		beq	.L77
 2588 0bf6 012B     		cmp	r3, #1
 2589 0bf8 00F09E81 		beq	.L341
 2590              	.LVL174:
 2591              	.LBB757:
 2592              	.LBI757:
  57:src/dsp.h     ****     switch(w){
 2593              		.loc 2 57 21 is_stmt 1 view .LVU841
  57:src/dsp.h     ****     switch(w){
 2594              		.loc 2 57 21 is_stmt 0 view .LVU842
 2595              	.LBE757:
 2596              	.LBE756:
 2597              	.LBE755:
 2598              	.LBE912:
ARM GAS  /tmp/claude-502/ccU8FNgW.s 			page 65


 2599              	.LBE923:
  62:src/dsp.h     ****         default:          return tri(ph);
 2600              		.loc 2 62 9 is_stmt 1 view .LVU843
  63:src/dsp.h     ****     }
 2601              		.loc 2 63 9 view .LVU844
  63:src/dsp.h     ****     }
 2602              		.loc 2 63 27 view .LVU845
 2603              	.LBB924:
 2604              	.LBB913:
 2605              	.LBB795:
 2606              	.LBB782:
 2607              	.LBB766:
 2608              	.LBB758:
 2609              	.LBI758:
  40:src/dsp.h     ****     return ph<0.5f?(4.0f*ph-1.0f):(3.0f-4.0f*ph);
 2610              		.loc 2 40 21 view .LVU846
 2611              	.LBB759:
  41:src/dsp.h     **** }
 2612              		.loc 2 41 5 view .LVU847
  41:src/dsp.h     **** }
 2613              		.loc 2 41 19 is_stmt 0 view .LVU848
 2614 0bfc F6EE004A 		vmov.f32	s9, #5.0e-1
 2615 0c00 F4EEE48A 		vcmpe.f32	s17, s9
 2616 0c04 F1EE004A 		vmov.f32	s9, #4.0e+0
 2617 0c08 F1EE10FA 		vmrs	APSR_nzcv, FPSCR
 2618 0c0c 40F14B83 		bpl	.L305
  41:src/dsp.h     **** }
 2619              		.loc 2 41 19 view .LVU849
 2620 0c10 BFEE001A 		vmov.f32	s2, #-1.0e+0
 2621              	.LBE759:
 2622              	.LBE758:
 2623              	.LBE766:
 2624              	.LBE782:
 2625              	.LBE795:
 288:src/engine.cpp ****         float osc_oct = osc(s_phase_oct,VOICE.oct_wave)  * VOICE.oct_level;
 2626              		.loc 1 288 66 view .LVU850
 2627 0c14 9DED227A 		vldr.32	s14, [sp, #136]
 2628              	.LBB796:
 2629              	.LBB783:
 2630              	.LBB767:
 2631              	.LBB763:
 2632              	.LBB760:
  41:src/dsp.h     **** }
 2633              		.loc 2 41 19 view .LVU851
 2634 0c18 A8EEA41A 		vfma.f32	s2, s17, s9
 2635              	.LBE760:
 2636              	.LBE763:
 2637              	.LBE767:
 2638              	.LBE783:
 2639              	.LBE796:
 288:src/engine.cpp ****         float osc_oct = osc(s_phase_oct,VOICE.oct_wave)  * VOICE.oct_level;
 2640              		.loc 1 288 66 view .LVU852
 2641 0c1c 21EE071A 		vmul.f32	s2, s2, s14
 2642              	.LVL175:
 2643              	.L83:
 289:src/engine.cpp **** 
 2644              		.loc 1 289 9 is_stmt 1 view .LVU853
ARM GAS  /tmp/claude-502/ccU8FNgW.s 			page 66


 289:src/engine.cpp **** 
 2645              		.loc 1 289 28 is_stmt 0 view .LVU854
 2646 0c20 B34B     		ldr	r3, .L361+8
 2647 0c22 93ED000A 		vldr.32	s0, [r3]
 2648              	.LVL176:
 2649              	.LBB797:
 2650              	.LBI797:
  57:src/dsp.h     ****     switch(w){
 2651              		.loc 2 57 21 is_stmt 1 view .LVU855
 2652              	.LBB798:
  58:src/dsp.h     ****         case WAVE_SINE:   return osc_sine(ph);
 2653              		.loc 2 58 5 view .LVU856
 2654 0c26 169B     		ldr	r3, [sp, #88]
 2655 0c28 022B     		cmp	r3, #2
 2656 0c2a 00F02A81 		beq	.L86
 2657              	.L346:
  58:src/dsp.h     ****         case WAVE_SINE:   return osc_sine(ph);
 2658              		.loc 2 58 5 is_stmt 0 view .LVU857
 2659 0c2e 032B     		cmp	r3, #3
 2660 0c30 00F0E180 		beq	.L87
 2661 0c34 012B     		cmp	r3, #1
 2662 0c36 00F0AE81 		beq	.L342
 2663              	.LVL177:
 2664              	.LBB799:
 2665              	.LBI799:
  57:src/dsp.h     ****     switch(w){
 2666              		.loc 2 57 21 is_stmt 1 view .LVU858
  57:src/dsp.h     ****     switch(w){
 2667              		.loc 2 57 21 is_stmt 0 view .LVU859
 2668              	.LBE799:
 2669              	.LBE798:
 2670              	.LBE797:
 2671              	.LBE913:
 2672              	.LBE924:
  62:src/dsp.h     ****         default:          return tri(ph);
 2673              		.loc 2 62 9 is_stmt 1 view .LVU860
  63:src/dsp.h     ****     }
 2674              		.loc 2 63 9 view .LVU861
  63:src/dsp.h     ****     }
 2675              		.loc 2 63 27 view .LVU862
 2676              	.LBB925:
 2677              	.LBB914:
 2678              	.LBB836:
 2679              	.LBB825:
 2680              	.LBB810:
 2681              	.LBB800:
 2682              	.LBI800:
  40:src/dsp.h     ****     return ph<0.5f?(4.0f*ph-1.0f):(3.0f-4.0f*ph);
 2683              		.loc 2 40 21 view .LVU863
 2684              	.LBB801:
  41:src/dsp.h     **** }
 2685              		.loc 2 41 5 view .LVU864
  41:src/dsp.h     **** }
 2686              		.loc 2 41 19 is_stmt 0 view .LVU865
 2687 0c3a F6EE004A 		vmov.f32	s9, #5.0e-1
 2688 0c3e B4EEE40A 		vcmpe.f32	s0, s9
 2689 0c42 F1EE004A 		vmov.f32	s9, #4.0e+0
ARM GAS  /tmp/claude-502/ccU8FNgW.s 			page 67


 2690 0c46 F1EE10FA 		vmrs	APSR_nzcv, FPSCR
 2691 0c4a 00F1D680 		bmi	.L326
  41:src/dsp.h     **** }
 2692              		.loc 2 41 19 view .LVU866
 2693 0c4e F0EE081A 		vmov.f32	s3, #3.0e+0
 2694              	.LBE801:
 2695              	.LBE800:
 2696              	.LBE810:
 2697              	.LBE825:
 2698              	.LBE836:
 289:src/engine.cpp **** 
 2699              		.loc 1 289 66 view .LVU867
 2700 0c52 9DED237A 		vldr.32	s14, [sp, #140]
 2701              	.LBB837:
 2702              	.LBB826:
 2703              	.LBB811:
 2704              	.LBB806:
 2705              	.LBB802:
  41:src/dsp.h     **** }
 2706              		.loc 2 41 19 view .LVU868
 2707 0c56 E0EE641A 		vfms.f32	s3, s0, s9
 2708              	.LBE802:
 2709              	.LBE806:
 2710              	.LBE811:
 2711              	.LBE826:
 2712              	.LBE837:
 289:src/engine.cpp **** 
 2713              		.loc 1 289 66 view .LVU869
 2714 0c5a 21EE877A 		vmul.f32	s14, s3, s14
 2715 0c5e 8DED047A 		vstr.32	s14, [sp, #16]
 2716              	.LVL178:
 2717              	.L93:
 294:src/engine.cpp ****         if(VOICE.noise_level > 0.0f){
 2718              		.loc 1 294 9 is_stmt 1 view .LVU870
 295:src/engine.cpp ****             s_noise_rng ^= s_noise_rng << 13;
 2719              		.loc 1 295 9 view .LVU871
 2720              	.LBB838:
 2721 0c62 DDED054A 		vldr.32	s9, [sp, #20]
 2722 0c66 F5EEC04A 		vcmpe.f32	s9, #0
 2723 0c6a F1EE10FA 		vmrs	APSR_nzcv, FPSCR
 2724 0c6e 40F3BF80 		ble	.L308
 2725              	.LBB453:
 296:src/engine.cpp ****             s_noise_rng ^= s_noise_rng >> 17;
 2726              		.loc 1 296 13 view .LVU872
 296:src/engine.cpp ****             s_noise_rng ^= s_noise_rng >> 17;
 2727              		.loc 1 296 40 is_stmt 0 view .LVU873
 2728 0c72 A049     		ldr	r1, .L361+12
 301:src/engine.cpp ****             float bright = white - s_noise_lp;
 2729              		.loc 1 301 50 view .LVU874
 2730 0c74 A04A     		ldr	r2, .L361+16
 296:src/engine.cpp ****             s_noise_rng ^= s_noise_rng >> 17;
 2731              		.loc 1 296 40 view .LVU875
 2732 0c76 0B68     		ldr	r3, [r1]
 301:src/engine.cpp ****             float bright = white - s_noise_lp;
 2733              		.loc 1 301 50 view .LVU876
 2734 0c78 D2ED004A 		vldr.32	s9, [r2]
 296:src/engine.cpp ****             s_noise_rng ^= s_noise_rng >> 17;
ARM GAS  /tmp/claude-502/ccU8FNgW.s 			page 68


 2735              		.loc 1 296 25 view .LVU877
 2736 0c7c 83EA4333 		eor	r3, r3, r3, lsl #13
 297:src/engine.cpp ****             s_noise_rng ^= s_noise_rng << 5;
 2737              		.loc 1 297 13 is_stmt 1 view .LVU878
 301:src/engine.cpp ****             float bright = white - s_noise_lp;
 2738              		.loc 1 301 50 is_stmt 0 view .LVU879
 2739 0c80 9FED9EBA 		vldr.32	s22, .L361+20
 301:src/engine.cpp ****             float bright = white - s_noise_lp;
 2740              		.loc 1 301 24 view .LVU880
 2741 0c84 DFED9E1A 		vldr.32	s3, .L361+24
 297:src/engine.cpp ****             s_noise_rng ^= s_noise_rng << 5;
 2742              		.loc 1 297 25 view .LVU881
 2743 0c88 83EA5343 		eor	r3, r3, r3, lsr #17
 298:src/engine.cpp ****             float white = (float)(int32_t)s_noise_rng * (1.0f/2147483648.0f);
 2744              		.loc 1 298 13 is_stmt 1 view .LVU882
 298:src/engine.cpp ****             float white = (float)(int32_t)s_noise_rng * (1.0f/2147483648.0f);
 2745              		.loc 1 298 25 is_stmt 0 view .LVU883
 2746 0c8c 83EA4313 		eor	r3, r3, r3, lsl #5
 299:src/engine.cpp ****             // One-pole high-pass = white minus its low-frequency content.
 2747              		.loc 1 299 27 view .LVU884
 2748 0c90 07EE103A 		vmov	s14, r3	@ int
 298:src/engine.cpp ****             float white = (float)(int32_t)s_noise_rng * (1.0f/2147483648.0f);
 2749              		.loc 1 298 25 view .LVU885
 2750 0c94 0B60     		str	r3, [r1]
 299:src/engine.cpp ****             // One-pole high-pass = white minus its low-frequency content.
 2751              		.loc 1 299 13 is_stmt 1 view .LVU886
 304:src/engine.cpp ****             noise = n * VOICE.noise_level;
 2752              		.loc 1 304 63 is_stmt 0 view .LVU887
 2753 0c96 9C23     		movs	r3, #156
 2754 0c98 0099     		ldr	r1, [sp]
 299:src/engine.cpp ****             // One-pole high-pass = white minus its low-frequency content.
 2755              		.loc 1 299 27 view .LVU888
 2756 0c9a B8EEC72A 		vcvt.f32.s32	s4, s14
 2757              	.LVL179:
 301:src/engine.cpp ****             float bright = white - s_noise_lp;
 2758              		.loc 1 301 13 is_stmt 1 view .LVU889
 304:src/engine.cpp ****             noise = n * VOICE.noise_level;
 2759              		.loc 1 304 63 is_stmt 0 view .LVU890
 2760 0c9e 03FB0153 		mla	r3, r3, r1, r5
 304:src/engine.cpp ****             noise = n * VOICE.noise_level;
 2761              		.loc 1 304 55 view .LVU891
 2762 0ca2 93ED1E7A 		vldr.32	s14, [r3, #120]
 2763 0ca6 8DED097A 		vstr.32	s14, [sp, #36]
 301:src/engine.cpp ****             float bright = white - s_noise_lp;
 2764              		.loc 1 301 50 view .LVU892
 2765 0caa B0EE647A 		vmov.f32	s14, s9
 2766 0cae 92EE0B7A 		vfnms.f32	s14, s4, s22
 301:src/engine.cpp ****             float bright = white - s_noise_lp;
 2767              		.loc 1 301 24 view .LVU893
 2768 0cb2 E7EE214A 		vfma.f32	s9, s14, s3
 304:src/engine.cpp ****             noise = n * VOICE.noise_level;
 2769              		.loc 1 304 55 view .LVU894
 2770 0cb6 9DED097A 		vldr.32	s14, [sp, #36]
 301:src/engine.cpp ****             float bright = white - s_noise_lp;
 2771              		.loc 1 301 24 view .LVU895
 2772 0cba C2ED004A 		vstr.32	s9, [r2]
 302:src/engine.cpp ****             // Blend white → high-passed by noise_hp (×2 to make up lost level).
ARM GAS  /tmp/claude-502/ccU8FNgW.s 			page 69


 2773              		.loc 1 302 13 is_stmt 1 view .LVU896
 302:src/engine.cpp ****             // Blend white → high-passed by noise_hp (×2 to make up lost level).
 2774              		.loc 1 302 19 is_stmt 0 view .LVU897
 2775 0cbe D2EE0B4A 		vfnms.f32	s9, s4, s22
 2776              	.LVL180:
 304:src/engine.cpp ****             noise = n * VOICE.noise_level;
 2777              		.loc 1 304 13 is_stmt 1 view .LVU898
 304:src/engine.cpp ****             noise = n * VOICE.noise_level;
 2778              		.loc 1 304 39 is_stmt 0 view .LVU899
 2779 0cc2 74EEA44A 		vadd.f32	s9, s9, s9
 2780              	.LVL181:
 304:src/engine.cpp ****             noise = n * VOICE.noise_level;
 2781              		.loc 1 304 46 view .LVU900
 2782 0cc6 E2EE4B4A 		vfms.f32	s9, s4, s22
 304:src/engine.cpp ****             noise = n * VOICE.noise_level;
 2783              		.loc 1 304 55 view .LVU901
 2784 0cca 64EE874A 		vmul.f32	s9, s9, s14
 304:src/engine.cpp ****             noise = n * VOICE.noise_level;
 2785              		.loc 1 304 19 view .LVU902
 2786 0cce E2EE0B4A 		vfma.f32	s9, s4, s22
 2787              	.LVL182:
 305:src/engine.cpp ****         }
 2788              		.loc 1 305 13 is_stmt 1 view .LVU903
 305:src/engine.cpp ****         }
 2789              		.loc 1 305 19 is_stmt 0 view .LVU904
 2790 0cd2 9DED052A 		vldr.32	s4, [sp, #20]
 2791              	.LVL183:
 305:src/engine.cpp ****         }
 2792              		.loc 1 305 19 view .LVU905
 2793 0cd6 64EE824A 		vmul.f32	s9, s9, s4
 2794              	.LVL184:
 2795              	.L96:
 305:src/engine.cpp ****         }
 2796              		.loc 1 305 19 view .LVU906
 2797              	.LBE453:
 2798              	.LBE838:
 309:src/engine.cpp **** 
 2799              		.loc 1 309 9 is_stmt 1 view .LVU907
 309:src/engine.cpp **** 
 2800              		.loc 1 309 26 is_stmt 0 view .LVU908
 2801 0cda 9DED037A 		vldr.32	s14, [sp, #12]
 309:src/engine.cpp **** 
 2802              		.loc 1 309 39 view .LVU909
 2803 0cde 9DED042A 		vldr.32	s4, [sp, #16]
 309:src/engine.cpp **** 
 2804              		.loc 1 309 26 view .LVU910
 2805 0ce2 37EE207A 		vadd.f32	s14, s14, s1
 312:src/engine.cpp ****         mix = mix*(1.0f-s_ringmod) + (mix*rm_carrier)*s_ringmod;
 2806              		.loc 1 312 31 view .LVU911
 2807 0ce6 874B     		ldr	r3, .L361+28
 309:src/engine.cpp **** 
 2808              		.loc 1 309 33 view .LVU912
 2809 0ce8 37EE017A 		vadd.f32	s14, s14, s2
 309:src/engine.cpp **** 
 2810              		.loc 1 309 39 view .LVU913
 2811 0cec 37EE027A 		vadd.f32	s14, s14, s4
 312:src/engine.cpp ****         mix = mix*(1.0f-s_ringmod) + (mix*rm_carrier)*s_ringmod;
ARM GAS  /tmp/claude-502/ccU8FNgW.s 			page 70


 2812              		.loc 1 312 31 view .LVU914
 2813 0cf0 93ED002A 		vldr.32	s4, [r3]
 309:src/engine.cpp **** 
 2814              		.loc 1 309 15 view .LVU915
 2815 0cf4 77EE244A 		vadd.f32	s9, s14, s9
 2816              	.LVL185:
 312:src/engine.cpp ****         mix = mix*(1.0f-s_ringmod) + (mix*rm_carrier)*s_ringmod;
 2817              		.loc 1 312 9 is_stmt 1 view .LVU916
 2818              	.LBB839:
 2819              	.LBI839:
  40:src/dsp.h     ****     return ph<0.5f?(4.0f*ph-1.0f):(3.0f-4.0f*ph);
 2820              		.loc 2 40 21 view .LVU917
 2821              	.LBB840:
  41:src/dsp.h     **** }
 2822              		.loc 2 41 5 view .LVU918
  41:src/dsp.h     **** }
 2823              		.loc 2 41 19 is_stmt 0 view .LVU919
 2824 0cf8 B6EE007A 		vmov.f32	s14, #5.0e-1
 2825 0cfc B4EEC72A 		vcmpe.f32	s4, s14
 2826 0d00 B1EE007A 		vmov.f32	s14, #4.0e+0
 2827 0d04 F1EE10FA 		vmrs	APSR_nzcv, FPSCR
 2828 0d08 6DD5     		bpl	.L309
 2829 0d0a FFEE001A 		vmov.f32	s3, #-1.0e+0
 2830 0d0e E2EE071A 		vfma.f32	s3, s4, s14
 2831              	.L100:
 2832              	.LVL186:
  41:src/dsp.h     **** }
 2833              		.loc 2 41 19 view .LVU920
 2834              	.LBE840:
 2835              	.LBE839:
 313:src/engine.cpp **** 
 2836              		.loc 1 313 9 is_stmt 1 view .LVU921
 313:src/engine.cpp **** 
 2837              		.loc 1 313 42 is_stmt 0 view .LVU922
 2838 0d12 64EEA11A 		vmul.f32	s3, s9, s3
 2839              	.LVL187:
 313:src/engine.cpp **** 
 2840              		.loc 1 313 24 view .LVU923
 2841 0d16 B7EE007A 		vmov.f32	s14, #1.0e+0
 313:src/engine.cpp **** 
 2842              		.loc 1 313 54 view .LVU924
 2843 0d1a 61EEA61A 		vmul.f32	s3, s3, s13
 313:src/engine.cpp **** 
 2844              		.loc 1 313 24 view .LVU925
 2845 0d1e 77EE666A 		vsub.f32	s13, s14, s13
 313:src/engine.cpp **** 
 2846              		.loc 1 313 13 view .LVU926
 2847 0d22 E6EEA41A 		vfma.f32	s3, s13, s9
 2848              	.LVL188:
 316:src/engine.cpp **** 
 2849              		.loc 1 316 9 is_stmt 1 view .LVU927
 2850              	.LBB842:
 2851              	.LBB843:
  25:src/dsp.h     ****     if(x<-3.0f)return -1.0f;
 2852              		.loc 2 25 5 is_stmt 0 view .LVU928
 2853 0d26 F0EE086A 		vmov.f32	s13, #3.0e+0
 2854              	.LBE843:
ARM GAS  /tmp/claude-502/ccU8FNgW.s 			page 71


 2855              	.LBE842:
 316:src/engine.cpp **** 
 2856              		.loc 1 316 24 view .LVU929
 2857 0d2a 6AEEA1AA 		vmul.f32	s21, s21, s3
 2858              	.LVL189:
 2859              	.LBB849:
 2860              	.LBI842:
  23:src/dsp.h     **** {
 2861              		.loc 2 23 21 is_stmt 1 view .LVU930
 2862              	.LBB846:
  25:src/dsp.h     ****     if(x<-3.0f)return -1.0f;
 2863              		.loc 2 25 5 view .LVU931
 2864 0d2e F4EEE6AA 		vcmpe.f32	s21, s13
 2865 0d32 F1EE10FA 		vmrs	APSR_nzcv, FPSCR
 2866 0d36 00F3CB80 		bgt	.L222
  26:src/dsp.h     ****     float x2=x*x;
 2867              		.loc 2 26 5 view .LVU932
 2868 0d3a B8EE087A 		vmov.f32	s14, #-3.0e+0
 2869 0d3e F4EEC7AA 		vcmpe.f32	s21, s14
 2870 0d42 F1EE10FA 		vmrs	APSR_nzcv, FPSCR
 2871 0d46 00F16682 		bmi	.L223
 2872              	.LVL190:
 2873              	.LBB844:
 2874              	.LBI844:
  23:src/dsp.h     **** {
 2875              		.loc 2 23 21 view .LVU933
 2876              	.LBB845:
  27:src/dsp.h     ****     return x*(27.0f+x2)/(27.0f+9.0f*x2);
 2877              		.loc 2 27 5 view .LVU934
  28:src/dsp.h     **** }
 2878              		.loc 2 28 20 is_stmt 0 view .LVU935
 2879 0d4a F3EE0B6A 		vmov.f32	s13, #2.7e+1
  27:src/dsp.h     ****     return x*(27.0f+x2)/(27.0f+9.0f*x2);
 2880              		.loc 2 27 11 view .LVU936
 2881 0d4e 2AEEAA7A 		vmul.f32	s14, s21, s21
 2882              	.LVL191:
  28:src/dsp.h     **** }
 2883              		.loc 2 28 5 is_stmt 1 view .LVU937
  28:src/dsp.h     **** }
 2884              		.loc 2 28 31 is_stmt 0 view .LVU938
 2885 0d52 F2EE021A 		vmov.f32	s3, #9.0e+0
 2886              	.LVL192:
  28:src/dsp.h     **** }
 2887              		.loc 2 28 31 view .LVU939
 2888 0d56 F0EE664A 		vmov.f32	s9, s13
  28:src/dsp.h     **** }
 2889              		.loc 2 28 31 view .LVU940
 2890 0d5a E7EE214A 		vfma.f32	s9, s14, s3
  28:src/dsp.h     **** }
 2891              		.loc 2 28 20 view .LVU941
 2892 0d5e 37EE267A 		vadd.f32	s14, s14, s13
 2893              	.LVL193:
  28:src/dsp.h     **** }
 2894              		.loc 2 28 13 view .LVU942
 2895 0d62 67EE2AAA 		vmul.f32	s21, s14, s21
 2896              	.LVL194:
  28:src/dsp.h     **** }
ARM GAS  /tmp/claude-502/ccU8FNgW.s 			page 72


 2897              		.loc 2 28 39 view .LVU943
 2898 0d66 CAEEA46A 		vdiv.f32	s13, s21, s9
 2899              	.L101:
 2900              	.LVL195:
  28:src/dsp.h     **** }
 2901              		.loc 2 28 39 view .LVU944
 2902              	.LBE845:
 2903              	.LBE844:
 2904              	.LBE846:
 2905              	.LBE849:
 319:src/engine.cpp ****         float filtered = moog(mix, eff_cutoff, VOICE.resonance, sr);
 2906              		.loc 1 319 9 is_stmt 1 view .LVU945
 2907              	.LBB850:
 2908              	.LBI454:
  12:src/dsp.h     ****     return v<lo?lo:v>hi?hi:v;
 2909              		.loc 2 12 21 view .LVU946
 2910              	.LBB456:
  13:src/dsp.h     **** }
 2911              		.loc 2 13 5 view .LVU947
  13:src/dsp.h     **** }
 2912              		.loc 2 13 16 is_stmt 0 view .LVU948
 2913 0d6a B3EE047A 		vmov.f32	s14, #2.0e+1
 2914 0d6e F4EEC75A 		vcmpe.f32	s11, s14
 2915 0d72 F1EE10FA 		vmrs	APSR_nzcv, FPSCR
 2916 0d76 7FF557AB 		bpl	.L343
 2917 0d7a DFED635A 		vldr.32	s11, .L361+32
 2918              	.LVL196:
  13:src/dsp.h     **** }
 2919              		.loc 2 13 16 view .LVU949
 2920 0d7e FFF75DBB 		b	.L102
 2921              	.LVL197:
 2922              	.L40:
  13:src/dsp.h     **** }
 2923              		.loc 2 13 16 view .LVU950
 2924              	.LBE456:
 2925              	.LBE850:
 232:src/engine.cpp ****         s_amp = s_amp * slew_amp + eff_tamp * (1.0f - slew_amp);
 2926              		.loc 1 232 62 discriminator 3 view .LVU951
 2927 0d82 624B     		ldr	r3, .L361+36
 2928 0d84 93ED004A 		vldr.32	s8, [r3]
 2929 0d88 2AE6     		b	.L43
 2930              	.LVL198:
 2931              	.L44:
 242:src/engine.cpp ****             s_flt[1] *= 0.999f;
 2932              		.loc 1 242 13 is_stmt 1 view .LVU952
 242:src/engine.cpp ****             s_flt[1] *= 0.999f;
 2933              		.loc 1 242 22 is_stmt 0 view .LVU953
 2934 0d8a DFED617A 		vldr.32	s15, .L361+40
 2935              	.LVL199:
 242:src/engine.cpp ****             s_flt[1] *= 0.999f;
 2936              		.loc 1 242 22 view .LVU954
 2937 0d8e 94ED003A 		vldr.32	s6, [r4]
 2938              	.LVL200:
 243:src/engine.cpp ****             s_flt[2] *= 0.999f;
 2939              		.loc 1 243 22 view .LVU955
 2940 0d92 D4ED013A 		vldr.32	s7, [r4, #4]
 244:src/engine.cpp ****             s_flt[3] *= 0.999f;
ARM GAS  /tmp/claude-502/ccU8FNgW.s 			page 73


 2941              		.loc 1 244 22 view .LVU956
 2942 0d96 94ED024A 		vldr.32	s8, [r4, #8]
 242:src/engine.cpp ****             s_flt[1] *= 0.999f;
 2943              		.loc 1 242 22 view .LVU957
 2944 0d9a 23EE273A 		vmul.f32	s6, s6, s15
 245:src/engine.cpp ****         }
 2945              		.loc 1 245 22 view .LVU958
 2946 0d9e 94ED035A 		vldr.32	s10, [r4, #12]
 243:src/engine.cpp ****             s_flt[2] *= 0.999f;
 2947              		.loc 1 243 22 view .LVU959
 2948 0da2 63EEA73A 		vmul.f32	s7, s7, s15
 244:src/engine.cpp ****             s_flt[3] *= 0.999f;
 2949              		.loc 1 244 22 view .LVU960
 2950 0da6 24EE274A 		vmul.f32	s8, s8, s15
 245:src/engine.cpp ****         }
 2951              		.loc 1 245 22 view .LVU961
 2952 0daa 25EE275A 		vmul.f32	s10, s10, s15
 242:src/engine.cpp ****             s_flt[1] *= 0.999f;
 2953              		.loc 1 242 22 view .LVU962
 2954 0dae 84ED003A 		vstr.32	s6, [r4]
 243:src/engine.cpp ****             s_flt[2] *= 0.999f;
 2955              		.loc 1 243 13 is_stmt 1 view .LVU963
 243:src/engine.cpp ****             s_flt[2] *= 0.999f;
 2956              		.loc 1 243 22 is_stmt 0 view .LVU964
 2957 0db2 C4ED013A 		vstr.32	s7, [r4, #4]
 244:src/engine.cpp ****             s_flt[3] *= 0.999f;
 2958              		.loc 1 244 13 is_stmt 1 view .LVU965
 244:src/engine.cpp ****             s_flt[3] *= 0.999f;
 2959              		.loc 1 244 22 is_stmt 0 view .LVU966
 2960 0db6 84ED024A 		vstr.32	s8, [r4, #8]
 245:src/engine.cpp ****         }
 2961              		.loc 1 245 13 is_stmt 1 view .LVU967
 245:src/engine.cpp ****         }
 2962              		.loc 1 245 22 is_stmt 0 view .LVU968
 2963 0dba 84ED035A 		vstr.32	s10, [r4, #12]
 2964 0dbe 42E6     		b	.L45
 2965              	.LVL201:
 2966              	.L209:
 2967              	.LBB851:
 245:src/engine.cpp ****         }
 2968              		.loc 1 245 22 view .LVU969
 2969 0dc0 DFED545A 		vldr.32	s11, .L361+44
 213:src/engine.cpp ****           s_cutoff = s_cutoff * sc + tcut * (1.0f - sc); }
 2970              		.loc 1 213 40 view .LVU970
 2971 0dc4 9FED543A 		vldr.32	s6, .L361+48
 2972 0dc8 7FE5     		b	.L36
 2973              	.LVL202:
 2974              	.L54:
 213:src/engine.cpp ****           s_cutoff = s_cutoff * sc + tcut * (1.0f - sc); }
 2975              		.loc 1 213 40 view .LVU971
 2976              	.LBE851:
 2977              	.LBB852:
 274:src/engine.cpp ****         }
 2978              		.loc 1 274 13 is_stmt 1 view .LVU972
 274:src/engine.cpp ****         }
 2979              		.loc 1 274 38 is_stmt 0 view .LVU973
 2980 0dca 9C23     		movs	r3, #156
ARM GAS  /tmp/claude-502/ccU8FNgW.s 			page 74


 2981 0dcc 009A     		ldr	r2, [sp]
 2982 0dce 03FB0253 		mla	r3, r3, r2, r5
 274:src/engine.cpp ****         }
 2983              		.loc 1 274 19 view .LVU974
 2984 0dd2 93ED077A 		vldr.32	s14, [r3, #28]
 2985 0dd6 27EE87DA 		vmul.f32	s26, s15, s14
 2986              	.LVL203:
 274:src/engine.cpp ****         }
 2987              		.loc 1 274 19 view .LVU975
 2988 0dda 89E6     		b	.L55
 2989              	.LVL204:
 2990              	.L299:
 274:src/engine.cpp ****         }
 2991              		.loc 1 274 19 view .LVU976
 2992              	.LBE852:
 2993              	.LBB853:
 2994              	.LBB676:
  41:src/dsp.h     **** }
 2995              		.loc 2 41 19 view .LVU977
 2996 0ddc F0EE087A 		vmov.f32	s15, #3.0e+0
 2997 0de0 E4EEE07A 		vfms.f32	s15, s9, s1
 2998 0de4 64E6     		b	.L53
 2999              	.LVL205:
 3000              	.L309:
  41:src/dsp.h     **** }
 3001              		.loc 2 41 19 view .LVU978
 3002              	.LBE676:
 3003              	.LBE853:
 3004              	.LBB854:
 3005              	.LBB841:
 3006 0de6 F0EE081A 		vmov.f32	s3, #3.0e+0
 3007 0dea E2EE471A 		vfms.f32	s3, s4, s14
 3008 0dee 90E7     		b	.L100
 3009              	.LVL206:
 3010              	.L308:
  41:src/dsp.h     **** }
 3011              		.loc 2 41 19 view .LVU979
 3012              	.LBE841:
 3013              	.LBE854:
 294:src/engine.cpp ****         if(VOICE.noise_level > 0.0f){
 3014              		.loc 1 294 15 view .LVU980
 3015 0df0 DFED4A4A 		vldr.32	s9, .L361+52
 3016 0df4 71E7     		b	.L96
 3017              	.LVL207:
 3018              	.L87:
 3019              	.LBB855:
 3020              	.LBB827:
  61:src/dsp.h     ****         case WAVE_TRI:
 3021              		.loc 2 61 9 is_stmt 1 view .LVU981
  61:src/dsp.h     ****         case WAVE_TRI:
 3022              		.loc 2 61 27 view .LVU982
 3023              	.LBB812:
 3024              	.LBI812:
  53:src/dsp.h     **** 
 3025              		.loc 2 53 21 view .LVU983
 3026              	.LBB813:
  53:src/dsp.h     **** 
ARM GAS  /tmp/claude-502/ccU8FNgW.s 			page 75


 3027              		.loc 2 53 40 view .LVU984
  53:src/dsp.h     **** 
 3028              		.loc 2 53 57 is_stmt 0 view .LVU985
 3029 0df6 F0EE004A 		vmov.f32	s9, #2.0e+0
 3030              	.LVL208:
 3031              	.L326:
  53:src/dsp.h     **** 
 3032              		.loc 2 53 57 view .LVU986
 3033              	.LBE813:
 3034              	.LBE812:
 3035              	.LBB814:
 3036              	.LBB807:
 3037              	.LBB803:
  41:src/dsp.h     **** }
 3038              		.loc 2 41 19 view .LVU987
 3039 0dfa FFEE001A 		vmov.f32	s3, #-1.0e+0
 3040              	.LBE803:
 3041              	.LBE807:
 3042              	.LBE814:
 3043              	.LBE827:
 3044              	.LBE855:
 289:src/engine.cpp **** 
 3045              		.loc 1 289 66 view .LVU988
 3046 0dfe 9DED237A 		vldr.32	s14, [sp, #140]
 3047              	.LBB856:
 3048              	.LBB828:
 3049              	.LBB815:
 3050              	.LBB808:
 3051              	.LBB804:
  41:src/dsp.h     **** }
 3052              		.loc 2 41 19 view .LVU989
 3053 0e02 E0EE241A 		vfma.f32	s3, s0, s9
 3054              	.LBE804:
 3055              	.LBE808:
 3056              	.LBE815:
 3057              	.LBE828:
 3058              	.LBE856:
 289:src/engine.cpp **** 
 3059              		.loc 1 289 66 view .LVU990
 3060 0e06 21EE877A 		vmul.f32	s14, s3, s14
 3061 0e0a 8DED047A 		vstr.32	s14, [sp, #16]
 3062              	.LBB857:
 3063              	.LBB829:
 3064              	.LBB816:
 3065              	.LBB809:
 3066              	.LBB805:
 3067 0e0e 28E7     		b	.L93
 3068              	.LVL209:
 3069              	.L57:
 289:src/engine.cpp **** 
 3070              		.loc 1 289 66 view .LVU991
 3071              	.LBE805:
 3072              	.LBE809:
 3073              	.LBE816:
 3074              	.LBE829:
 3075              	.LBE857:
 3076              	.LBB858:
ARM GAS  /tmp/claude-502/ccU8FNgW.s 			page 76


 3077              	.LBB704:
  61:src/dsp.h     ****         case WAVE_TRI:
 3078              		.loc 2 61 9 is_stmt 1 view .LVU992
  61:src/dsp.h     ****         case WAVE_TRI:
 3079              		.loc 2 61 27 view .LVU993
 3080              	.LBB691:
 3081              	.LBI691:
  53:src/dsp.h     **** 
 3082              		.loc 2 53 21 view .LVU994
 3083              	.LBB692:
  53:src/dsp.h     **** 
 3084              		.loc 2 53 40 view .LVU995
  53:src/dsp.h     **** 
 3085              		.loc 2 53 57 is_stmt 0 view .LVU996
 3086 0e10 F0EE004A 		vmov.f32	s9, #2.0e+0
 3087              	.LVL210:
 3088              	.L325:
  53:src/dsp.h     **** 
 3089              		.loc 2 53 57 view .LVU997
 3090              	.LBE692:
 3091              	.LBE691:
 3092              	.LBB693:
 3093              	.LBB688:
 3094              	.LBB686:
  41:src/dsp.h     **** }
 3095              		.loc 2 41 19 view .LVU998
 3096 0e14 BFEE007A 		vmov.f32	s14, #-1.0e+0
 3097              	.LBE686:
 3098              	.LBE688:
 3099              	.LBE693:
 3100              	.LBE704:
 3101              	.LBE858:
 287:src/engine.cpp ****         float sub     = osc(s_phase_sub,VOICE.sub_wave)  * VOICE.sub_level;
 3102              		.loc 1 287 28 view .LVU999
 3103 0e18 334B     		ldr	r3, .L361
 3104 0e1a 93ED009A 		vldr.32	s18, [r3]
 3105              	.LBB859:
 3106              	.LBB705:
 3107              	.LBB694:
 3108              	.LBB689:
 3109              	.LBB687:
  41:src/dsp.h     **** }
 3110              		.loc 2 41 19 view .LVU1000
 3111 0e1e A9EEA47A 		vfma.f32	s14, s19, s9
 3112              	.LBE687:
 3113              	.LBE689:
 3114              	.LBE694:
 3115              	.LBE705:
 3116              	.LBE859:
 286:src/engine.cpp ****         float osc2    = osc(s_phase2,   VOICE.osc2_wave) * VOICE.osc2_level;
 3117              		.loc 1 286 66 view .LVU1001
 3118 0e22 DDED204A 		vldr.32	s9, [sp, #128]
 3119              	.LBB860:
 3120              	.LBB742:
  58:src/dsp.h     ****         case WAVE_SINE:   return osc_sine(ph);
 3121              		.loc 2 58 5 view .LVU1002
 3122 0e26 149B     		ldr	r3, [sp, #80]
ARM GAS  /tmp/claude-502/ccU8FNgW.s 			page 77


 3123 0e28 022B     		cmp	r3, #2
 3124              	.LBE742:
 3125              	.LBE860:
 286:src/engine.cpp ****         float osc2    = osc(s_phase2,   VOICE.osc2_wave) * VOICE.osc2_level;
 3126              		.loc 1 286 66 view .LVU1003
 3127 0e2a 27EE247A 		vmul.f32	s14, s14, s9
 3128 0e2e 8DED037A 		vstr.32	s14, [sp, #12]
 3129              	.LVL211:
 287:src/engine.cpp ****         float sub     = osc(s_phase_sub,VOICE.sub_wave)  * VOICE.sub_level;
 3130              		.loc 1 287 9 is_stmt 1 view .LVU1004
 3131              	.LBB861:
  57:src/dsp.h     ****     switch(w){
 3132              		.loc 2 57 21 view .LVU1005
 3133              	.LBB743:
  58:src/dsp.h     ****         case WAVE_SINE:   return osc_sine(ph);
 3134              		.loc 2 58 5 view .LVU1006
 3135 0e32 7FF4BEAE 		bne	.L344
 3136              	.L66:
  60:src/dsp.h     ****         case WAVE_SAW:    return osc_saw(ph);
 3137              		.loc 2 60 9 view .LVU1007
  60:src/dsp.h     ****         case WAVE_SAW:    return osc_saw(ph);
 3138              		.loc 2 60 27 view .LVU1008
 3139              	.LVL212:
 3140              	.LBB726:
 3141              	.LBI726:
  52:src/dsp.h     **** static inline float osc_saw(float ph){ return 2.0f*ph - 1.0f; }
 3142              		.loc 2 52 21 view .LVU1009
 3143              	.LBB727:
  52:src/dsp.h     **** static inline float osc_saw(float ph){ return 2.0f*ph - 1.0f; }
 3144              		.loc 2 52 43 view .LVU1010
  52:src/dsp.h     **** static inline float osc_saw(float ph){ return 2.0f*ph - 1.0f; }
 3145              		.loc 2 52 58 is_stmt 0 view .LVU1011
 3146 0e36 F6EE004A 		vmov.f32	s9, #5.0e-1
 3147 0e3a B4EEE49A 		vcmpe.f32	s18, s9
 3148 0e3e F1EE10FA 		vmrs	APSR_nzcv, FPSCR
 3149 0e42 00F13C82 		bmi	.L216
  52:src/dsp.h     **** static inline float osc_saw(float ph){ return 2.0f*ph - 1.0f; }
 3150              		.loc 2 52 58 view .LVU1012
 3151              	.LBE727:
 3152              	.LBE726:
 3153              	.LBE743:
 3154              	.LBE861:
 288:src/engine.cpp ****         float osc_oct = osc(s_phase_oct,VOICE.oct_wave)  * VOICE.oct_level;
 3155              		.loc 1 288 28 view .LVU1013
 3156 0e46 294B     		ldr	r3, .L361+4
 3157 0e48 9DED217A 		vldr.32	s14, [sp, #132]
 3158 0e4c D3ED008A 		vldr.32	s17, [r3]
 3159              	.LBB862:
 3160              	.LBB784:
  58:src/dsp.h     ****         case WAVE_SINE:   return osc_sine(ph);
 3161              		.loc 2 58 5 view .LVU1014
 3162 0e50 159B     		ldr	r3, [sp, #84]
 3163 0e52 F1EE470A 		vneg.f32	s1, s14
 3164              	.LVL213:
  58:src/dsp.h     ****         case WAVE_SINE:   return osc_sine(ph);
 3165              		.loc 2 58 5 view .LVU1015
 3166              	.LBE784:
ARM GAS  /tmp/claude-502/ccU8FNgW.s 			page 78


 3167              	.LBE862:
 288:src/engine.cpp ****         float osc_oct = osc(s_phase_oct,VOICE.oct_wave)  * VOICE.oct_level;
 3168              		.loc 1 288 9 is_stmt 1 view .LVU1016
 3169              	.LBB863:
  57:src/dsp.h     ****     switch(w){
 3170              		.loc 2 57 21 view .LVU1017
 3171              	.LBB785:
  58:src/dsp.h     ****         case WAVE_SINE:   return osc_sine(ph);
 3172              		.loc 2 58 5 view .LVU1018
 3173 0e56 022B     		cmp	r3, #2
 3174 0e58 7FF4CAAE 		bne	.L345
 3175              	.L76:
  60:src/dsp.h     ****         case WAVE_SAW:    return osc_saw(ph);
 3176              		.loc 2 60 9 view .LVU1019
  60:src/dsp.h     ****         case WAVE_SAW:    return osc_saw(ph);
 3177              		.loc 2 60 27 view .LVU1020
 3178              	.LVL214:
 3179              	.LBB768:
 3180              	.LBI768:
  52:src/dsp.h     **** static inline float osc_saw(float ph){ return 2.0f*ph - 1.0f; }
 3181              		.loc 2 52 21 view .LVU1021
 3182              	.LBB769:
  52:src/dsp.h     **** static inline float osc_saw(float ph){ return 2.0f*ph - 1.0f; }
 3183              		.loc 2 52 43 view .LVU1022
  52:src/dsp.h     **** static inline float osc_saw(float ph){ return 2.0f*ph - 1.0f; }
 3184              		.loc 2 52 58 is_stmt 0 view .LVU1023
 3185 0e5c F6EE004A 		vmov.f32	s9, #5.0e-1
 3186 0e60 F4EEE48A 		vcmpe.f32	s17, s9
 3187 0e64 F1EE10FA 		vmrs	APSR_nzcv, FPSCR
 3188 0e68 00F10E82 		bmi	.L218
  52:src/dsp.h     **** static inline float osc_saw(float ph){ return 2.0f*ph - 1.0f; }
 3189              		.loc 2 52 58 view .LVU1024
 3190              	.LBE769:
 3191              	.LBE768:
 3192              	.LBE785:
 3193              	.LBE863:
 289:src/engine.cpp **** 
 3194              		.loc 1 289 28 view .LVU1025
 3195 0e6c 204B     		ldr	r3, .L361+8
 3196 0e6e 9DED227A 		vldr.32	s14, [sp, #136]
 3197 0e72 93ED000A 		vldr.32	s0, [r3]
 3198              	.LBB864:
 3199              	.LBB830:
  58:src/dsp.h     ****         case WAVE_SINE:   return osc_sine(ph);
 3200              		.loc 2 58 5 view .LVU1026
 3201 0e76 169B     		ldr	r3, [sp, #88]
 3202 0e78 B1EE471A 		vneg.f32	s2, s14
 3203              	.LVL215:
  58:src/dsp.h     ****         case WAVE_SINE:   return osc_sine(ph);
 3204              		.loc 2 58 5 view .LVU1027
 3205              	.LBE830:
 3206              	.LBE864:
 289:src/engine.cpp **** 
 3207              		.loc 1 289 9 is_stmt 1 view .LVU1028
 3208              	.LBB865:
  57:src/dsp.h     ****     switch(w){
 3209              		.loc 2 57 21 view .LVU1029
ARM GAS  /tmp/claude-502/ccU8FNgW.s 			page 79


 3210              	.LBB831:
  58:src/dsp.h     ****         case WAVE_SINE:   return osc_sine(ph);
 3211              		.loc 2 58 5 view .LVU1030
 3212 0e7c 022B     		cmp	r3, #2
 3213 0e7e 7FF4D6AE 		bne	.L346
 3214              	.L86:
  60:src/dsp.h     ****         case WAVE_SAW:    return osc_saw(ph);
 3215              		.loc 2 60 9 view .LVU1031
  60:src/dsp.h     ****         case WAVE_SAW:    return osc_saw(ph);
 3216              		.loc 2 60 27 view .LVU1032
 3217              	.LVL216:
 3218              	.LBB817:
 3219              	.LBI817:
  52:src/dsp.h     **** static inline float osc_saw(float ph){ return 2.0f*ph - 1.0f; }
 3220              		.loc 2 52 21 view .LVU1033
 3221              	.LBB818:
  52:src/dsp.h     **** static inline float osc_saw(float ph){ return 2.0f*ph - 1.0f; }
 3222              		.loc 2 52 43 view .LVU1034
  52:src/dsp.h     **** static inline float osc_saw(float ph){ return 2.0f*ph - 1.0f; }
 3223              		.loc 2 52 58 is_stmt 0 view .LVU1035
 3224 0e82 F6EE004A 		vmov.f32	s9, #5.0e-1
 3225 0e86 9DED237A 		vldr.32	s14, [sp, #140]
 3226 0e8a B4EEE40A 		vcmpe.f32	s0, s9
 3227 0e8e F1EE10FA 		vmrs	APSR_nzcv, FPSCR
 3228 0e92 00F11182 		bmi	.L220
  52:src/dsp.h     **** static inline float osc_saw(float ph){ return 2.0f*ph - 1.0f; }
 3229              		.loc 2 52 58 view .LVU1036
 3230 0e96 B1EE477A 		vneg.f32	s14, s14
 3231 0e9a 8DED047A 		vstr.32	s14, [sp, #16]
 3232 0e9e E0E6     		b	.L93
 3233              	.LVL217:
 3234              	.L240:
  52:src/dsp.h     **** static inline float osc_saw(float ph){ return 2.0f*ph - 1.0f; }
 3235              		.loc 2 52 58 view .LVU1037
 3236              	.LBE818:
 3237              	.LBE817:
 3238              	.LBE831:
 3239              	.LBE865:
 3240              	.LBB866:
 3241              	.LBB447:
 3242              	.LBB438:
 3243              	.LBB417:
 3244              	.LBB415:
  25:src/dsp.h     ****     if(x<-3.0f)return -1.0f;
 3245              		.loc 2 25 24 view .LVU1038
 3246 0ea0 F7EE004A 		vmov.f32	s9, #1.0e+0
 3247 0ea4 FFF7EABB 		b	.L112
 3248              	.LVL218:
 3249              	.L238:
  25:src/dsp.h     ****     if(x<-3.0f)return -1.0f;
 3250              		.loc 2 25 24 view .LVU1039
 3251              	.LBE415:
 3252              	.LBE417:
 3253              	.LBB418:
 3254              	.LBB408:
 3255 0ea8 F7EE006A 		vmov.f32	s13, #1.0e+0
 3256 0eac FFF7C6BB 		b	.L111
ARM GAS  /tmp/claude-502/ccU8FNgW.s 			page 80


 3257              	.LVL219:
 3258              	.L236:
  25:src/dsp.h     ****     if(x<-3.0f)return -1.0f;
 3259              		.loc 2 25 24 view .LVU1040
 3260              	.LBE408:
 3261              	.LBE418:
 3262              	.LBB419:
 3263              	.LBB401:
 3264 0eb0 F7EE004A 		vmov.f32	s9, #1.0e+0
 3265 0eb4 FFF79CBB 		b	.L110
 3266              	.LVL220:
 3267              	.L234:
  25:src/dsp.h     ****     if(x<-3.0f)return -1.0f;
 3268              		.loc 2 25 24 view .LVU1041
 3269              	.LBE401:
 3270              	.LBE419:
 3271              	.LBB420:
 3272              	.LBB394:
 3273 0eb8 F7EE006A 		vmov.f32	s13, #1.0e+0
 3274 0ebc FFF778BB 		b	.L109
 3275              	.LVL221:
 3276              	.L232:
  25:src/dsp.h     ****     if(x<-3.0f)return -1.0f;
 3277              		.loc 2 25 24 view .LVU1042
 3278              	.LBE394:
 3279              	.LBE420:
 3280              	.LBB421:
 3281              	.LBB387:
 3282 0ec0 F7EE004A 		vmov.f32	s9, #1.0e+0
 3283 0ec4 FFF74EBB 		b	.L108
 3284              	.LVL222:
 3285              	.L230:
  25:src/dsp.h     ****     if(x<-3.0f)return -1.0f;
 3286              		.loc 2 25 24 view .LVU1043
 3287              	.LBE387:
 3288              	.LBE421:
 3289              	.LBB422:
 3290              	.LBB379:
 3291 0ec8 F7EE006A 		vmov.f32	s13, #1.0e+0
 3292 0ecc FFF72ABB 		b	.L107
 3293              	.LVL223:
 3294              	.L222:
  25:src/dsp.h     ****     if(x<-3.0f)return -1.0f;
 3295              		.loc 2 25 24 view .LVU1044
 3296              	.LBE379:
 3297              	.LBE422:
 3298              	.LBE438:
 3299              	.LBE447:
 3300              	.LBE866:
 3301              	.LBB867:
 3302              	.LBB847:
 3303 0ed0 F0EE476A 		vmov.f32	s13, s14
 3304 0ed4 49E7     		b	.L101
 3305              	.LVL224:
 3306              	.L228:
  25:src/dsp.h     ****     if(x<-3.0f)return -1.0f;
 3307              		.loc 2 25 24 view .LVU1045
ARM GAS  /tmp/claude-502/ccU8FNgW.s 			page 81


 3308              	.LBE847:
 3309              	.LBE867:
 3310              	.LBB868:
 3311              	.LBB448:
 3312              	.LBB439:
 3313              	.LBB423:
 3314              	.LBB371:
 3315 0ed6 F7EE004A 		vmov.f32	s9, #1.0e+0
 3316 0eda FFF7FDBA 		b	.L106
 3317              	.LVL225:
 3318              	.L226:
  25:src/dsp.h     ****     if(x<-3.0f)return -1.0f;
 3319              		.loc 2 25 24 view .LVU1046
 3320              	.LBE371:
 3321              	.LBE423:
 3322              	.LBB424:
 3323              	.LBB365:
 3324 0ede F7EE005A 		vmov.f32	s11, #1.0e+0
 3325 0ee2 FFF7D9BA 		b	.L105
 3326              	.L362:
 3327 0ee6 00BF     		.align	2
 3328              	.L361:
 3329 0ee8 00000000 		.word	.LANCHOR35
 3330 0eec 00000000 		.word	.LANCHOR36
 3331 0ef0 00000000 		.word	.LANCHOR37
 3332 0ef4 00000000 		.word	.LANCHOR38
 3333 0ef8 00000000 		.word	.LANCHOR39
 3334 0efc 00000030 		.word	805306368
 3335 0f00 CDCC4C3F 		.word	1061997773
 3336 0f04 00000000 		.word	.LANCHOR40
 3337 0f08 00002042 		.word	1109393408
 3338 0f0c 00000000 		.word	.LANCHOR13
 3339 0f10 77BE7F3F 		.word	1065336439
 3340 0f14 00481D3A 		.word	974997504
 3341 0f18 AED87F3F 		.word	1065343150
 3342 0f1c 00000000 		.word	0
 3343 0f20 DB0F4940 		.word	1078530011
 3344 0f24 DB0F49C0 		.word	-1068953637
 3345 0f28 83F9A23F 		.word	1067645315
 3346 0f2c 7B81CF3E 		.word	1053786491
 3347 0f30 6666663E 		.word	1046898278
 3348 0f34 00401C47 		.word	1193033728
 3349              	.LVL226:
 3350              	.L341:
  25:src/dsp.h     ****     if(x<-3.0f)return -1.0f;
 3351              		.loc 2 25 24 view .LVU1047
 3352              	.LBE365:
 3353              	.LBE424:
 3354              	.LBE439:
 3355              	.LBE448:
 3356              	.LBE868:
 3357              	.LBB869:
 3358              	.LBB786:
  59:src/dsp.h     ****         case WAVE_SQUARE: return osc_square(ph);
 3359              		.loc 2 59 9 is_stmt 1 view .LVU1048
  59:src/dsp.h     ****         case WAVE_SQUARE: return osc_square(ph);
 3360              		.loc 2 59 27 view .LVU1049
ARM GAS  /tmp/claude-502/ccU8FNgW.s 			page 82


 3361              	.LBB771:
 3362              	.LBI771:
  44:src/dsp.h     ****     constexpr float PI = 3.14159265f;
 3363              		.loc 2 44 21 view .LVU1050
 3364              	.LBB772:
  45:src/dsp.h     ****     float x = ph*2.0f*PI - PI;                 // -π..π (angle shifted by π)
 3365              		.loc 2 45 5 view .LVU1051
  46:src/dsp.h     ****     float y = 1.27323954f*x - 0.405284735f*x*(x<0?-x:x);
 3366              		.loc 2 46 5 view .LVU1052
  46:src/dsp.h     ****     float y = 1.27323954f*x - 0.405284735f*x*(x<0?-x:x);
 3367              		.loc 2 46 17 is_stmt 0 view .LVU1053
 3368 0f38 78EEA81A 		vadd.f32	s3, s17, s17
  46:src/dsp.h     ****     float y = 1.27323954f*x - 0.405284735f*x*(x<0?-x:x);
 3369              		.loc 2 46 11 view .LVU1054
 3370 0f3c 1FED082A 		vldr.32	s4, .L361+56
 3371 0f40 5FED084A 		vldr.32	s9, .L361+60
  47:src/dsp.h     ****     y = 0.225f*(y*(y<0?-y:y) - y) + y;         // one refinement pass
 3372              		.loc 2 47 26 view .LVU1055
 3373 0f44 1FED081A 		vldr.32	s2, .L361+64
  46:src/dsp.h     ****     float y = 1.27323954f*x - 0.405284735f*x*(x<0?-x:x);
 3374              		.loc 2 46 11 view .LVU1056
 3375 0f48 E1EE824A 		vfma.f32	s9, s3, s4
 3376              	.LVL227:
  47:src/dsp.h     ****     y = 0.225f*(y*(y<0?-y:y) - y) + y;         // one refinement pass
 3377              		.loc 2 47 5 is_stmt 1 view .LVU1057
  47:src/dsp.h     ****     y = 0.225f*(y*(y<0?-y:y) - y) + y;         // one refinement pass
 3378              		.loc 2 47 43 is_stmt 0 view .LVU1058
 3379 0f4c 1FED092A 		vldr.32	s4, .L361+68
 3380              	.LBE772:
 3381              	.LBE771:
 3382              	.LBE786:
 3383              	.LBE869:
 288:src/engine.cpp ****         float osc_oct = osc(s_phase_oct,VOICE.oct_wave)  * VOICE.oct_level;
 3384              		.loc 1 288 66 view .LVU1059
 3385 0f50 9DED227A 		vldr.32	s14, [sp, #136]
 3386              	.LBB870:
 3387              	.LBB787:
 3388              	.LBB774:
 3389              	.LBB773:
  47:src/dsp.h     ****     y = 0.225f*(y*(y<0?-y:y) - y) + y;         // one refinement pass
 3390              		.loc 2 47 50 view .LVU1060
 3391 0f54 F5EEC04A 		vcmpe.f32	s9, #0
  47:src/dsp.h     ****     y = 0.225f*(y*(y<0?-y:y) - y) + y;         // one refinement pass
 3392              		.loc 2 47 43 view .LVU1061
 3393 0f58 24EE822A 		vmul.f32	s4, s9, s4
  47:src/dsp.h     ****     y = 0.225f*(y*(y<0?-y:y) - y) + y;         // one refinement pass
 3394              		.loc 2 47 26 view .LVU1062
 3395 0f5c 24EE811A 		vmul.f32	s2, s9, s2
  47:src/dsp.h     ****     y = 0.225f*(y*(y<0?-y:y) - y) + y;         // one refinement pass
 3396              		.loc 2 47 50 view .LVU1063
 3397 0f60 F1EE10FA 		vmrs	APSR_nzcv, FPSCR
 3398 0f64 48BF     		it	mi
 3399 0f66 F1EE644A 		vnegmi.f32	s9, s9
 3400              	.LVL228:
  47:src/dsp.h     ****     y = 0.225f*(y*(y<0?-y:y) - y) + y;         // one refinement pass
 3401              		.loc 2 47 11 view .LVU1064
 3402 0f6a A2EE641A 		vfms.f32	s2, s4, s9
ARM GAS  /tmp/claude-502/ccU8FNgW.s 			page 83


 3403              	.LVL229:
  48:src/dsp.h     ****     return -y;                                 // undo the π shift: sin(x+π) = -sin(x)
 3404              		.loc 2 48 5 is_stmt 1 view .LVU1065
  48:src/dsp.h     ****     return -y;                                 // undo the π shift: sin(x+π) = -sin(x)
 3405              		.loc 2 48 23 is_stmt 0 view .LVU1066
 3406 0f6e B5EEC01A 		vcmpe.f32	s2, #0
 3407 0f72 F1EE414A 		vneg.f32	s9, s2
 3408 0f76 F1EE10FA 		vmrs	APSR_nzcv, FPSCR
 3409 0f7a 54BF     		ite	pl
 3410 0f7c B0EE412A 		vmovpl.f32	s4, s2
 3411 0f80 B0EE642A 		vmovmi.f32	s4, s9
  48:src/dsp.h     ****     return -y;                                 // undo the π shift: sin(x+π) = -sin(x)
 3412              		.loc 2 48 30 view .LVU1067
 3413 0f84 E1EE024A 		vfma.f32	s9, s2, s4
  48:src/dsp.h     ****     return -y;                                 // undo the π shift: sin(x+π) = -sin(x)
 3414              		.loc 2 48 7 view .LVU1068
 3415 0f88 1FED172A 		vldr.32	s4, .L361+72
 3416 0f8c A4EE821A 		vfma.f32	s2, s9, s4
 3417              	.LVL230:
  49:src/dsp.h     **** }
 3418              		.loc 2 49 5 is_stmt 1 view .LVU1069
  49:src/dsp.h     **** }
 3419              		.loc 2 49 5 is_stmt 0 view .LVU1070
 3420              	.LBE773:
 3421              	.LBE774:
 3422              	.LBE787:
 3423              	.LBE870:
 288:src/engine.cpp ****         float osc_oct = osc(s_phase_oct,VOICE.oct_wave)  * VOICE.oct_level;
 3424              		.loc 1 288 66 view .LVU1071
 3425 0f90 21EE471A 		vnmul.f32	s2, s2, s14
 3426              	.LBB871:
 3427              	.LBB788:
  59:src/dsp.h     ****         case WAVE_SQUARE: return osc_square(ph);
 3428              		.loc 2 59 45 view .LVU1072
 3429 0f94 44E6     		b	.L83
 3430              	.LVL231:
 3431              	.L342:
  59:src/dsp.h     ****         case WAVE_SQUARE: return osc_square(ph);
 3432              		.loc 2 59 45 view .LVU1073
 3433              	.LBE788:
 3434              	.LBE871:
 3435              	.LBB872:
 3436              	.LBB832:
  59:src/dsp.h     ****         case WAVE_SQUARE: return osc_square(ph);
 3437              		.loc 2 59 9 is_stmt 1 view .LVU1074
  59:src/dsp.h     ****         case WAVE_SQUARE: return osc_square(ph);
 3438              		.loc 2 59 27 view .LVU1075
 3439              	.LBB820:
 3440              	.LBI820:
  44:src/dsp.h     ****     constexpr float PI = 3.14159265f;
 3441              		.loc 2 44 21 view .LVU1076
 3442              	.LBB821:
  45:src/dsp.h     ****     float x = ph*2.0f*PI - PI;                 // -π..π (angle shifted by π)
 3443              		.loc 2 45 5 view .LVU1077
  46:src/dsp.h     ****     float y = 1.27323954f*x - 0.405284735f*x*(x<0?-x:x);
 3444              		.loc 2 46 5 view .LVU1078
  46:src/dsp.h     ****     float y = 1.27323954f*x - 0.405284735f*x*(x<0?-x:x);
ARM GAS  /tmp/claude-502/ccU8FNgW.s 			page 84


 3445              		.loc 2 46 17 is_stmt 0 view .LVU1079
 3446 0f96 70EE001A 		vadd.f32	s3, s0, s0
  46:src/dsp.h     ****     float y = 1.27323954f*x - 0.405284735f*x*(x<0?-x:x);
 3447              		.loc 2 46 11 view .LVU1080
 3448 0f9a 1FED1F2A 		vldr.32	s4, .L361+56
 3449 0f9e 5FED1F4A 		vldr.32	s9, .L361+60
 3450              	.LBE821:
 3451              	.LBE820:
 3452              	.LBE832:
 3453              	.LBE872:
 289:src/engine.cpp **** 
 3454              		.loc 1 289 66 view .LVU1081
 3455 0fa2 9DED237A 		vldr.32	s14, [sp, #140]
 3456              	.LBB873:
 3457              	.LBB833:
 3458              	.LBB823:
 3459              	.LBB822:
  46:src/dsp.h     ****     float y = 1.27323954f*x - 0.405284735f*x*(x<0?-x:x);
 3460              		.loc 2 46 11 view .LVU1082
 3461 0fa6 E1EE824A 		vfma.f32	s9, s3, s4
 3462              	.LVL232:
  47:src/dsp.h     ****     y = 0.225f*(y*(y<0?-y:y) - y) + y;         // one refinement pass
 3463              		.loc 2 47 5 is_stmt 1 view .LVU1083
  47:src/dsp.h     ****     y = 0.225f*(y*(y<0?-y:y) - y) + y;         // one refinement pass
 3464              		.loc 2 47 26 is_stmt 0 view .LVU1084
 3465 0faa 5FED211A 		vldr.32	s3, .L361+64
  47:src/dsp.h     ****     y = 0.225f*(y*(y<0?-y:y) - y) + y;         // one refinement pass
 3466              		.loc 2 47 43 view .LVU1085
 3467 0fae 1FED212A 		vldr.32	s4, .L361+68
  47:src/dsp.h     ****     y = 0.225f*(y*(y<0?-y:y) - y) + y;         // one refinement pass
 3468              		.loc 2 47 50 view .LVU1086
 3469 0fb2 F5EEC04A 		vcmpe.f32	s9, #0
  47:src/dsp.h     ****     y = 0.225f*(y*(y<0?-y:y) - y) + y;         // one refinement pass
 3470              		.loc 2 47 43 view .LVU1087
 3471 0fb6 24EE822A 		vmul.f32	s4, s9, s4
  47:src/dsp.h     ****     y = 0.225f*(y*(y<0?-y:y) - y) + y;         // one refinement pass
 3472              		.loc 2 47 26 view .LVU1088
 3473 0fba 64EEA11A 		vmul.f32	s3, s9, s3
  47:src/dsp.h     ****     y = 0.225f*(y*(y<0?-y:y) - y) + y;         // one refinement pass
 3474              		.loc 2 47 50 view .LVU1089
 3475 0fbe F1EE10FA 		vmrs	APSR_nzcv, FPSCR
 3476 0fc2 48BF     		it	mi
 3477 0fc4 F1EE644A 		vnegmi.f32	s9, s9
 3478              	.LVL233:
  47:src/dsp.h     ****     y = 0.225f*(y*(y<0?-y:y) - y) + y;         // one refinement pass
 3479              		.loc 2 47 11 view .LVU1090
 3480 0fc8 E2EE641A 		vfms.f32	s3, s4, s9
 3481              	.LVL234:
  48:src/dsp.h     ****     return -y;                                 // undo the π shift: sin(x+π) = -sin(x)
 3482              		.loc 2 48 5 is_stmt 1 view .LVU1091
  48:src/dsp.h     ****     return -y;                                 // undo the π shift: sin(x+π) = -sin(x)
 3483              		.loc 2 48 23 is_stmt 0 view .LVU1092
 3484 0fcc F5EEC01A 		vcmpe.f32	s3, #0
 3485 0fd0 F1EE614A 		vneg.f32	s9, s3
 3486 0fd4 F1EE10FA 		vmrs	APSR_nzcv, FPSCR
 3487 0fd8 54BF     		ite	pl
 3488 0fda B0EE612A 		vmovpl.f32	s4, s3
ARM GAS  /tmp/claude-502/ccU8FNgW.s 			page 85


 3489 0fde B0EE642A 		vmovmi.f32	s4, s9
  48:src/dsp.h     ****     return -y;                                 // undo the π shift: sin(x+π) = -sin(x)
 3490              		.loc 2 48 30 view .LVU1093
 3491 0fe2 E1EE824A 		vfma.f32	s9, s3, s4
  48:src/dsp.h     ****     return -y;                                 // undo the π shift: sin(x+π) = -sin(x)
 3492              		.loc 2 48 7 view .LVU1094
 3493 0fe6 1FED2E2A 		vldr.32	s4, .L361+72
 3494 0fea E4EE821A 		vfma.f32	s3, s9, s4
 3495              	.LVL235:
  49:src/dsp.h     **** }
 3496              		.loc 2 49 5 is_stmt 1 view .LVU1095
  49:src/dsp.h     **** }
 3497              		.loc 2 49 5 is_stmt 0 view .LVU1096
 3498              	.LBE822:
 3499              	.LBE823:
 3500              	.LBE833:
 3501              	.LBE873:
 289:src/engine.cpp **** 
 3502              		.loc 1 289 66 view .LVU1097
 3503 0fee 21EEC77A 		vnmul.f32	s14, s3, s14
 3504 0ff2 8DED047A 		vstr.32	s14, [sp, #16]
 3505              	.LBB874:
 3506              	.LBB834:
  59:src/dsp.h     ****         case WAVE_SQUARE: return osc_square(ph);
 3507              		.loc 2 59 45 view .LVU1098
 3508 0ff6 34E6     		b	.L93
 3509              	.LVL236:
 3510              	.L339:
  59:src/dsp.h     ****         case WAVE_SQUARE: return osc_square(ph);
 3511              		.loc 2 59 45 view .LVU1099
 3512              	.LBE834:
 3513              	.LBE874:
 3514              	.LBB875:
 3515              	.LBB706:
  59:src/dsp.h     ****         case WAVE_SQUARE: return osc_square(ph);
 3516              		.loc 2 59 9 is_stmt 1 view .LVU1100
  59:src/dsp.h     ****         case WAVE_SQUARE: return osc_square(ph);
 3517              		.loc 2 59 27 view .LVU1101
 3518              	.LBB695:
 3519              	.LBI695:
  44:src/dsp.h     ****     constexpr float PI = 3.14159265f;
 3520              		.loc 2 44 21 view .LVU1102
 3521              	.LBB696:
  45:src/dsp.h     ****     float x = ph*2.0f*PI - PI;                 // -π..π (angle shifted by π)
 3522              		.loc 2 45 5 view .LVU1103
  46:src/dsp.h     ****     float y = 1.27323954f*x - 0.405284735f*x*(x<0?-x:x);
 3523              		.loc 2 46 5 view .LVU1104
  46:src/dsp.h     ****     float y = 1.27323954f*x - 0.405284735f*x*(x<0?-x:x);
 3524              		.loc 2 46 17 is_stmt 0 view .LVU1105
 3525 0ff8 39EEA92A 		vadd.f32	s4, s19, s19
  46:src/dsp.h     ****     float y = 1.27323954f*x - 0.405284735f*x*(x<0?-x:x);
 3526              		.loc 2 46 11 view .LVU1106
 3527 0ffc 1FED387A 		vldr.32	s14, .L361+56
 3528 1000 5FED384A 		vldr.32	s9, .L361+60
 3529 1004 E2EE074A 		vfma.f32	s9, s4, s14
 3530              	.LVL237:
  47:src/dsp.h     ****     y = 0.225f*(y*(y<0?-y:y) - y) + y;         // one refinement pass
ARM GAS  /tmp/claude-502/ccU8FNgW.s 			page 86


 3531              		.loc 2 47 5 is_stmt 1 view .LVU1107
  47:src/dsp.h     ****     y = 0.225f*(y*(y<0?-y:y) - y) + y;         // one refinement pass
 3532              		.loc 2 47 26 is_stmt 0 view .LVU1108
 3533 1008 1FED397A 		vldr.32	s14, .L361+64
  47:src/dsp.h     ****     y = 0.225f*(y*(y<0?-y:y) - y) + y;         // one refinement pass
 3534              		.loc 2 47 43 view .LVU1109
 3535 100c 1FED392A 		vldr.32	s4, .L361+68
  47:src/dsp.h     ****     y = 0.225f*(y*(y<0?-y:y) - y) + y;         // one refinement pass
 3536              		.loc 2 47 50 view .LVU1110
 3537 1010 F5EEC04A 		vcmpe.f32	s9, #0
  47:src/dsp.h     ****     y = 0.225f*(y*(y<0?-y:y) - y) + y;         // one refinement pass
 3538              		.loc 2 47 43 view .LVU1111
 3539 1014 24EE822A 		vmul.f32	s4, s9, s4
  47:src/dsp.h     ****     y = 0.225f*(y*(y<0?-y:y) - y) + y;         // one refinement pass
 3540              		.loc 2 47 26 view .LVU1112
 3541 1018 24EE877A 		vmul.f32	s14, s9, s14
  47:src/dsp.h     ****     y = 0.225f*(y*(y<0?-y:y) - y) + y;         // one refinement pass
 3542              		.loc 2 47 50 view .LVU1113
 3543 101c F1EE10FA 		vmrs	APSR_nzcv, FPSCR
 3544 1020 48BF     		it	mi
 3545 1022 F1EE644A 		vnegmi.f32	s9, s9
 3546              	.LVL238:
  47:src/dsp.h     ****     y = 0.225f*(y*(y<0?-y:y) - y) + y;         // one refinement pass
 3547              		.loc 2 47 11 view .LVU1114
 3548 1026 A2EE647A 		vfms.f32	s14, s4, s9
 3549              	.LVL239:
  48:src/dsp.h     ****     return -y;                                 // undo the π shift: sin(x+π) = -sin(x)
 3550              		.loc 2 48 5 is_stmt 1 view .LVU1115
  48:src/dsp.h     ****     return -y;                                 // undo the π shift: sin(x+π) = -sin(x)
 3551              		.loc 2 48 23 is_stmt 0 view .LVU1116
 3552 102a B5EEC07A 		vcmpe.f32	s14, #0
 3553 102e F1EE474A 		vneg.f32	s9, s14
 3554 1032 F1EE10FA 		vmrs	APSR_nzcv, FPSCR
 3555 1036 54BF     		ite	pl
 3556 1038 B0EE472A 		vmovpl.f32	s4, s14
 3557 103c B0EE642A 		vmovmi.f32	s4, s9
  48:src/dsp.h     ****     return -y;                                 // undo the π shift: sin(x+π) = -sin(x)
 3558              		.loc 2 48 30 view .LVU1117
 3559 1040 E7EE024A 		vfma.f32	s9, s14, s4
  48:src/dsp.h     ****     return -y;                                 // undo the π shift: sin(x+π) = -sin(x)
 3560              		.loc 2 48 7 view .LVU1118
 3561 1044 1FED462A 		vldr.32	s4, .L361+72
 3562 1048 A4EE827A 		vfma.f32	s14, s9, s4
 3563              	.LVL240:
  49:src/dsp.h     **** }
 3564              		.loc 2 49 5 is_stmt 1 view .LVU1119
  49:src/dsp.h     **** }
 3565              		.loc 2 49 5 is_stmt 0 view .LVU1120
 3566              	.LBE696:
 3567              	.LBE695:
 3568              	.LBE706:
 3569              	.LBE875:
 286:src/engine.cpp ****         float osc2    = osc(s_phase2,   VOICE.osc2_wave) * VOICE.osc2_level;
 3570              		.loc 1 286 66 view .LVU1121
 3571 104c DDED204A 		vldr.32	s9, [sp, #128]
 3572 1050 27EE647A 		vnmul.f32	s14, s14, s9
 3573 1054 8DED037A 		vstr.32	s14, [sp, #12]
ARM GAS  /tmp/claude-502/ccU8FNgW.s 			page 87


 3574              	.LBB876:
 3575              	.LBB707:
  59:src/dsp.h     ****         case WAVE_SQUARE: return osc_square(ph);
 3576              		.loc 2 59 45 view .LVU1122
 3577 1058 A4E5     		b	.L63
 3578              	.LVL241:
 3579              	.L67:
  59:src/dsp.h     ****         case WAVE_SQUARE: return osc_square(ph);
 3580              		.loc 2 59 45 view .LVU1123
 3581              	.LBE707:
 3582              	.LBE876:
 3583              	.LBB877:
 3584              	.LBB744:
  61:src/dsp.h     ****         case WAVE_TRI:
 3585              		.loc 2 61 9 is_stmt 1 view .LVU1124
  61:src/dsp.h     ****         case WAVE_TRI:
 3586              		.loc 2 61 27 view .LVU1125
 3587              	.LBB729:
 3588              	.LBI729:
  53:src/dsp.h     **** 
 3589              		.loc 2 53 21 view .LVU1126
 3590              	.LBB730:
  53:src/dsp.h     **** 
 3591              		.loc 2 53 40 view .LVU1127
  53:src/dsp.h     **** 
 3592              		.loc 2 53 57 is_stmt 0 view .LVU1128
 3593 105a F0EE004A 		vmov.f32	s9, #2.0e+0
 3594              	.LBE730:
 3595              	.LBE729:
 3596              	.LBE744:
 3597              	.LBE877:
 287:src/engine.cpp ****         float sub     = osc(s_phase_sub,VOICE.sub_wave)  * VOICE.sub_level;
 3598              		.loc 1 287 66 view .LVU1129
 3599 105e 9DED217A 		vldr.32	s14, [sp, #132]
 3600              	.LBB878:
 3601              	.LBB745:
 3602              	.LBB732:
 3603              	.LBB731:
  53:src/dsp.h     **** 
 3604              		.loc 2 53 57 view .LVU1130
 3605 1062 FFEE000A 		vmov.f32	s1, #-1.0e+0
 3606 1066 E9EE240A 		vfma.f32	s1, s18, s9
 3607              	.LVL242:
  53:src/dsp.h     **** 
 3608              		.loc 2 53 57 view .LVU1131
 3609              	.LBE731:
 3610              	.LBE732:
 3611              	.LBE745:
 3612              	.LBE878:
 287:src/engine.cpp ****         float sub     = osc(s_phase_sub,VOICE.sub_wave)  * VOICE.sub_level;
 3613              		.loc 1 287 66 view .LVU1132
 3614 106a 60EE870A 		vmul.f32	s1, s1, s14
 3615              	.LBB879:
 3616              	.LBB746:
  61:src/dsp.h     ****         case WAVE_TRI:
 3617              		.loc 2 61 44 view .LVU1133
 3618 106e B8E5     		b	.L73
ARM GAS  /tmp/claude-502/ccU8FNgW.s 			page 88


 3619              	.LVL243:
 3620              	.L77:
  61:src/dsp.h     ****         case WAVE_TRI:
 3621              		.loc 2 61 44 view .LVU1134
 3622              	.LBE746:
 3623              	.LBE879:
 3624              	.LBB880:
 3625              	.LBB789:
  61:src/dsp.h     ****         case WAVE_TRI:
 3626              		.loc 2 61 9 is_stmt 1 view .LVU1135
  61:src/dsp.h     ****         case WAVE_TRI:
 3627              		.loc 2 61 27 view .LVU1136
 3628              	.LBB775:
 3629              	.LBI775:
  53:src/dsp.h     **** 
 3630              		.loc 2 53 21 view .LVU1137
 3631              	.LBB776:
  53:src/dsp.h     **** 
 3632              		.loc 2 53 40 view .LVU1138
  53:src/dsp.h     **** 
 3633              		.loc 2 53 57 is_stmt 0 view .LVU1139
 3634 1070 F0EE004A 		vmov.f32	s9, #2.0e+0
 3635              	.LBE776:
 3636              	.LBE775:
 3637              	.LBE789:
 3638              	.LBE880:
 288:src/engine.cpp ****         float osc_oct = osc(s_phase_oct,VOICE.oct_wave)  * VOICE.oct_level;
 3639              		.loc 1 288 66 view .LVU1140
 3640 1074 9DED227A 		vldr.32	s14, [sp, #136]
 3641              	.LBB881:
 3642              	.LBB790:
 3643              	.LBB778:
 3644              	.LBB777:
  53:src/dsp.h     **** 
 3645              		.loc 2 53 57 view .LVU1141
 3646 1078 BFEE001A 		vmov.f32	s2, #-1.0e+0
 3647 107c A8EEA41A 		vfma.f32	s2, s17, s9
 3648              	.LVL244:
  53:src/dsp.h     **** 
 3649              		.loc 2 53 57 view .LVU1142
 3650              	.LBE777:
 3651              	.LBE778:
 3652              	.LBE790:
 3653              	.LBE881:
 288:src/engine.cpp ****         float osc_oct = osc(s_phase_oct,VOICE.oct_wave)  * VOICE.oct_level;
 3654              		.loc 1 288 66 view .LVU1143
 3655 1080 21EE071A 		vmul.f32	s2, s2, s14
 3656              	.LBB882:
 3657              	.LBB791:
  61:src/dsp.h     ****         case WAVE_TRI:
 3658              		.loc 2 61 44 view .LVU1144
 3659 1084 CCE5     		b	.L83
 3660              	.LVL245:
 3661              	.L340:
  61:src/dsp.h     ****         case WAVE_TRI:
 3662              		.loc 2 61 44 view .LVU1145
 3663              	.LBE791:
ARM GAS  /tmp/claude-502/ccU8FNgW.s 			page 89


 3664              	.LBE882:
 3665              	.LBB883:
 3666              	.LBB747:
  59:src/dsp.h     ****         case WAVE_SQUARE: return osc_square(ph);
 3667              		.loc 2 59 9 is_stmt 1 view .LVU1146
  59:src/dsp.h     ****         case WAVE_SQUARE: return osc_square(ph);
 3668              		.loc 2 59 27 view .LVU1147
 3669              	.LBB733:
 3670              	.LBI733:
  44:src/dsp.h     ****     constexpr float PI = 3.14159265f;
 3671              		.loc 2 44 21 view .LVU1148
 3672              	.LBB734:
  45:src/dsp.h     ****     float x = ph*2.0f*PI - PI;                 // -π..π (angle shifted by π)
 3673              		.loc 2 45 5 view .LVU1149
  46:src/dsp.h     ****     float y = 1.27323954f*x - 0.405284735f*x*(x<0?-x:x);
 3674              		.loc 2 46 5 view .LVU1150
  46:src/dsp.h     ****     float y = 1.27323954f*x - 0.405284735f*x*(x<0?-x:x);
 3675              		.loc 2 46 17 is_stmt 0 view .LVU1151
 3676 1086 79EE091A 		vadd.f32	s3, s18, s18
  46:src/dsp.h     ****     float y = 1.27323954f*x - 0.405284735f*x*(x<0?-x:x);
 3677              		.loc 2 46 11 view .LVU1152
 3678 108a 1FED5B2A 		vldr.32	s4, .L361+56
 3679 108e 5FED5B4A 		vldr.32	s9, .L361+60
  47:src/dsp.h     ****     y = 0.225f*(y*(y<0?-y:y) - y) + y;         // one refinement pass
 3680              		.loc 2 47 26 view .LVU1153
 3681 1092 5FED5B0A 		vldr.32	s1, .L361+64
  46:src/dsp.h     ****     float y = 1.27323954f*x - 0.405284735f*x*(x<0?-x:x);
 3682              		.loc 2 46 11 view .LVU1154
 3683 1096 E1EE824A 		vfma.f32	s9, s3, s4
 3684              	.LVL246:
  47:src/dsp.h     ****     y = 0.225f*(y*(y<0?-y:y) - y) + y;         // one refinement pass
 3685              		.loc 2 47 5 is_stmt 1 view .LVU1155
  47:src/dsp.h     ****     y = 0.225f*(y*(y<0?-y:y) - y) + y;         // one refinement pass
 3686              		.loc 2 47 43 is_stmt 0 view .LVU1156
 3687 109a 1FED5C2A 		vldr.32	s4, .L361+68
 3688              	.LBE734:
 3689              	.LBE733:
 3690              	.LBE747:
 3691              	.LBE883:
 287:src/engine.cpp ****         float sub     = osc(s_phase_sub,VOICE.sub_wave)  * VOICE.sub_level;
 3692              		.loc 1 287 66 view .LVU1157
 3693 109e 9DED217A 		vldr.32	s14, [sp, #132]
 3694              	.LBB884:
 3695              	.LBB748:
 3696              	.LBB736:
 3697              	.LBB735:
  47:src/dsp.h     ****     y = 0.225f*(y*(y<0?-y:y) - y) + y;         // one refinement pass
 3698              		.loc 2 47 50 view .LVU1158
 3699 10a2 F5EEC04A 		vcmpe.f32	s9, #0
  47:src/dsp.h     ****     y = 0.225f*(y*(y<0?-y:y) - y) + y;         // one refinement pass
 3700              		.loc 2 47 43 view .LVU1159
 3701 10a6 24EE822A 		vmul.f32	s4, s9, s4
  47:src/dsp.h     ****     y = 0.225f*(y*(y<0?-y:y) - y) + y;         // one refinement pass
 3702              		.loc 2 47 26 view .LVU1160
 3703 10aa 64EEA00A 		vmul.f32	s1, s9, s1
  47:src/dsp.h     ****     y = 0.225f*(y*(y<0?-y:y) - y) + y;         // one refinement pass
 3704              		.loc 2 47 50 view .LVU1161
ARM GAS  /tmp/claude-502/ccU8FNgW.s 			page 90


 3705 10ae F1EE10FA 		vmrs	APSR_nzcv, FPSCR
 3706 10b2 48BF     		it	mi
 3707 10b4 F1EE644A 		vnegmi.f32	s9, s9
 3708              	.LVL247:
  47:src/dsp.h     ****     y = 0.225f*(y*(y<0?-y:y) - y) + y;         // one refinement pass
 3709              		.loc 2 47 11 view .LVU1162
 3710 10b8 E2EE640A 		vfms.f32	s1, s4, s9
 3711              	.LVL248:
  48:src/dsp.h     ****     return -y;                                 // undo the π shift: sin(x+π) = -sin(x)
 3712              		.loc 2 48 5 is_stmt 1 view .LVU1163
  48:src/dsp.h     ****     return -y;                                 // undo the π shift: sin(x+π) = -sin(x)
 3713              		.loc 2 48 23 is_stmt 0 view .LVU1164
 3714 10bc F5EEC00A 		vcmpe.f32	s1, #0
 3715 10c0 F1EE604A 		vneg.f32	s9, s1
 3716 10c4 F1EE10FA 		vmrs	APSR_nzcv, FPSCR
 3717 10c8 54BF     		ite	pl
 3718 10ca B0EE602A 		vmovpl.f32	s4, s1
 3719 10ce B0EE642A 		vmovmi.f32	s4, s9
  48:src/dsp.h     ****     return -y;                                 // undo the π shift: sin(x+π) = -sin(x)
 3720              		.loc 2 48 30 view .LVU1165
 3721 10d2 E0EE824A 		vfma.f32	s9, s1, s4
  48:src/dsp.h     ****     return -y;                                 // undo the π shift: sin(x+π) = -sin(x)
 3722              		.loc 2 48 7 view .LVU1166
 3723 10d6 1FED6A2A 		vldr.32	s4, .L361+72
 3724 10da E4EE820A 		vfma.f32	s1, s9, s4
 3725              	.LVL249:
  49:src/dsp.h     **** }
 3726              		.loc 2 49 5 is_stmt 1 view .LVU1167
  49:src/dsp.h     **** }
 3727              		.loc 2 49 5 is_stmt 0 view .LVU1168
 3728              	.LBE735:
 3729              	.LBE736:
 3730              	.LBE748:
 3731              	.LBE884:
 287:src/engine.cpp ****         float sub     = osc(s_phase_sub,VOICE.sub_wave)  * VOICE.sub_level;
 3732              		.loc 1 287 66 view .LVU1169
 3733 10de 60EEC70A 		vnmul.f32	s1, s1, s14
 3734              	.LBB885:
 3735              	.LBB749:
  59:src/dsp.h     ****         case WAVE_SQUARE: return osc_square(ph);
 3736              		.loc 2 59 45 view .LVU1170
 3737 10e2 7EE5     		b	.L73
 3738              	.LVL250:
 3739              	.L225:
  59:src/dsp.h     ****         case WAVE_SQUARE: return osc_square(ph);
 3740              		.loc 2 59 45 view .LVU1171
 3741              	.LBE749:
 3742              	.LBE885:
 3743              	.LBB886:
 3744              	.LBB457:
 3745 10e4 5FED6D5A 		vldr.32	s11, .L361+76
 3746              	.LVL251:
  59:src/dsp.h     ****         case WAVE_SQUARE: return osc_square(ph);
 3747              		.loc 2 59 45 view .LVU1172
 3748 10e8 FFF7A8B9 		b	.L102
 3749              	.LVL252:
 3750              	.L56:
ARM GAS  /tmp/claude-502/ccU8FNgW.s 			page 91


  59:src/dsp.h     ****         case WAVE_SQUARE: return osc_square(ph);
 3751              		.loc 2 59 45 view .LVU1173
 3752              	.LBE457:
 3753              	.LBE886:
 3754              	.LBB887:
 3755              	.LBB708:
  60:src/dsp.h     ****         case WAVE_SAW:    return osc_saw(ph);
 3756              		.loc 2 60 9 is_stmt 1 view .LVU1174
  60:src/dsp.h     ****         case WAVE_SAW:    return osc_saw(ph);
 3757              		.loc 2 60 27 view .LVU1175
 3758              	.LBB697:
 3759              	.LBI697:
  52:src/dsp.h     **** static inline float osc_saw(float ph){ return 2.0f*ph - 1.0f; }
 3760              		.loc 2 52 21 view .LVU1176
 3761              	.LBB698:
  52:src/dsp.h     **** static inline float osc_saw(float ph){ return 2.0f*ph - 1.0f; }
 3762              		.loc 2 52 43 view .LVU1177
  52:src/dsp.h     **** static inline float osc_saw(float ph){ return 2.0f*ph - 1.0f; }
 3763              		.loc 2 52 58 is_stmt 0 view .LVU1178
 3764 10ec B6EE007A 		vmov.f32	s14, #5.0e-1
 3765 10f0 F4EEC79A 		vcmpe.f32	s19, s14
 3766 10f4 9DED207A 		vldr.32	s14, [sp, #128]
 3767 10f8 F1EE10FA 		vmrs	APSR_nzcv, FPSCR
 3768 10fc 00F1D080 		bmi	.L214
 3769 1100 B1EE477A 		vneg.f32	s14, s14
 3770 1104 8DED037A 		vstr.32	s14, [sp, #12]
 3771 1108 4CE5     		b	.L63
 3772              	.LVL253:
 3773              	.L227:
  52:src/dsp.h     **** static inline float osc_saw(float ph){ return 2.0f*ph - 1.0f; }
 3774              		.loc 2 52 58 view .LVU1179
 3775              	.LBE698:
 3776              	.LBE697:
 3777              	.LBE708:
 3778              	.LBE887:
 3779              	.LBB888:
 3780              	.LBB449:
 3781              	.LBB440:
 3782              	.LBB425:
 3783              	.LBB366:
  26:src/dsp.h     ****     float x2=x*x;
 3784              		.loc 2 26 24 view .LVU1180
 3785 110a FFEE005A 		vmov.f32	s11, #-1.0e+0
 3786 110e FFF7C3B9 		b	.L105
 3787              	.LVL254:
 3788              	.L237:
  26:src/dsp.h     ****     float x2=x*x;
 3789              		.loc 2 26 24 view .LVU1181
 3790              	.LBE366:
 3791              	.LBE425:
 3792              	.LBB426:
 3793              	.LBB402:
 3794 1112 FFEE004A 		vmov.f32	s9, #-1.0e+0
 3795 1116 FFF76BBA 		b	.L110
 3796              	.LVL255:
 3797              	.L235:
  26:src/dsp.h     ****     float x2=x*x;
ARM GAS  /tmp/claude-502/ccU8FNgW.s 			page 92


 3798              		.loc 2 26 24 view .LVU1182
 3799              	.LBE402:
 3800              	.LBE426:
 3801              	.LBB427:
 3802              	.LBB395:
 3803 111a FFEE006A 		vmov.f32	s13, #-1.0e+0
 3804 111e FFF747BA 		b	.L109
 3805              	.LVL256:
 3806              	.L241:
  26:src/dsp.h     ****     float x2=x*x;
 3807              		.loc 2 26 24 view .LVU1183
 3808              	.LBE395:
 3809              	.LBE427:
 3810              	.LBB428:
 3811              	.LBB416:
 3812 1122 FFEE004A 		vmov.f32	s9, #-1.0e+0
 3813 1126 FFF7A9BA 		b	.L112
 3814              	.LVL257:
 3815              	.L239:
  26:src/dsp.h     ****     float x2=x*x;
 3816              		.loc 2 26 24 view .LVU1184
 3817              	.LBE416:
 3818              	.LBE428:
 3819              	.LBB429:
 3820              	.LBB409:
 3821 112a FFEE006A 		vmov.f32	s13, #-1.0e+0
 3822 112e FFF785BA 		b	.L111
 3823              	.LVL258:
 3824              	.L233:
  26:src/dsp.h     ****     float x2=x*x;
 3825              		.loc 2 26 24 view .LVU1185
 3826              	.LBE409:
 3827              	.LBE429:
 3828              	.LBB430:
 3829              	.LBB388:
 3830 1132 FFEE004A 		vmov.f32	s9, #-1.0e+0
 3831 1136 FFF715BA 		b	.L108
 3832              	.LVL259:
 3833              	.L231:
  26:src/dsp.h     ****     float x2=x*x;
 3834              		.loc 2 26 24 view .LVU1186
 3835              	.LBE388:
 3836              	.LBE430:
 3837              	.LBB431:
 3838              	.LBB380:
 3839 113a FFEE006A 		vmov.f32	s13, #-1.0e+0
 3840 113e FFF7F1B9 		b	.L107
 3841              	.LVL260:
 3842              	.L337:
  26:src/dsp.h     ****     float x2=x*x;
 3843              		.loc 2 26 24 view .LVU1187
 3844              	.LBE380:
 3845              	.LBE431:
 3846              	.LBE440:
 3847              	.LBE449:
 3848              	.LBE888:
 3849              	.LBB889:
ARM GAS  /tmp/claude-502/ccU8FNgW.s 			page 93


 330:src/engine.cpp ****             float m = 0.0f;
 3850              		.loc 1 330 9 view .LVU1188
 3851 1142 089B     		ldr	r3, [sp, #32]
 3852 1144 B1EE466A 		vneg.f32	s12, s12
 3853              	.LVL261:
 330:src/engine.cpp ****             float m = 0.0f;
 3854              		.loc 1 330 9 view .LVU1189
 3855 1148 0D2B     		cmp	r3, #13
 3856              	.LBE889:
 326:src/engine.cpp **** 
 3857              		.loc 1 326 60 view .LVU1190
 3858 114a 2AEE066A 		vmul.f32	s12, s20, s12
 3859              	.LVL262:
 330:src/engine.cpp ****             float m = 0.0f;
 3860              		.loc 1 330 9 is_stmt 1 view .LVU1191
 3861              	.LBB890:
 3862 114e 7FF409AB 		bne	.L117
 3863              	.L338:
 330:src/engine.cpp ****             float m = 0.0f;
 3864              		.loc 1 330 9 is_stmt 0 view .LVU1192
 3865 1152 0022     		movs	r2, #0
 3866 1154 BF4B     		ldr	r3, .L363
 3867              	.LBB474:
 331:src/engine.cpp ****             for(int k = 0; k < POLY; k++) m += drum_render(g_hits[k], sr);
 3868              		.loc 1 331 19 view .LVU1193
 3869 1156 9FEDCA5A 		vldr.32	s10, .L363+44
 3870              	.LBE474:
 330:src/engine.cpp ****             float m = 0.0f;
 3871              		.loc 1 330 9 view .LVU1194
 3872 115a 0392     		str	r2, [sp, #12]
 3873 115c 03F5987E 		add	lr, r3, #304
 3874 1160 BD4A     		ldr	r2, .L363+4
 3875 1162 1168     		ldr	r1, [r2]
 3876              	.LVL263:
 3877              	.L179:
 3878              	.LBB624:
 3879              	.LBB475:
 332:src/engine.cpp ****             sample = fast_tanh(m) * s_master_vol;
 3880              		.loc 1 332 43 is_stmt 1 discriminator 2 view .LVU1195
 3881              	.LBB476:
 3882              	.LBI476:
  89:src/engine.cpp **** {
 3883              		.loc 1 89 14 discriminator 2 view .LVU1196
 3884              	.LBB477:
  91:src/engine.cpp ****     const Voice& V = VOICES[h.vidx];
 3885              		.loc 1 91 5 discriminator 2 view .LVU1197
  91:src/engine.cpp ****     const Voice& V = VOICES[h.vidx];
 3886              		.loc 1 91 11 is_stmt 0 discriminator 2 view .LVU1198
 3887 1164 93F800C0 		ldrb	ip, [r3]	@ zero_extendqisi2
  91:src/engine.cpp ****     const Voice& V = VOICES[h.vidx];
 3888              		.loc 1 91 5 discriminator 2 view .LVU1199
 3889 1168 BCF1000F 		cmp	ip, #0
 3890 116c 5AD0     		beq	.L242
  92:src/engine.cpp ****     // Amp envelope: attack while gated, release on lift; free the slot when done.
 3891              		.loc 1 92 5 is_stmt 1 view .LVU1200
  94:src/engine.cpp ****     float c   = (tgt > h.amp) ? h.atk_c : h.rel_c;
 3892              		.loc 1 94 19 is_stmt 0 view .LVU1201
ARM GAS  /tmp/claude-502/ccU8FNgW.s 			page 94


 3893 116e 5878     		ldrb	r0, [r3, #1]	@ zero_extendqisi2
  92:src/engine.cpp ****     // Amp envelope: attack while gated, release on lift; free the slot when done.
 3894              		.loc 1 92 31 view .LVU1202
 3895 1170 5A68     		ldr	r2, [r3, #4]
 3896              	.LVL264:
  94:src/engine.cpp ****     float c   = (tgt > h.amp) ? h.atk_c : h.rel_c;
 3897              		.loc 1 94 5 is_stmt 1 view .LVU1203
  94:src/engine.cpp ****     float c   = (tgt > h.amp) ? h.atk_c : h.rel_c;
 3898              		.loc 1 94 24 is_stmt 0 view .LVU1204
 3899 1172 0028     		cmp	r0, #0
 3900 1174 00F08580 		beq	.L243
 3901 1178 D3ED035A 		vldr.32	s11, [r3, #12]
 3902              	.L119:
 3903              	.LVL265:
  95:src/engine.cpp ****     h.amp = h.amp*c + tgt*(1.0f-c);
 3904              		.loc 1 95 5 is_stmt 1 view .LVU1205
  95:src/engine.cpp ****     h.amp = h.amp*c + tgt*(1.0f-c);
 3905              		.loc 1 95 26 is_stmt 0 view .LVU1206
 3906 117c 93ED0A7A 		vldr.32	s14, [r3, #40]
  96:src/engine.cpp ****     if(!h.gate && h.amp < 0.0004f){ h.active=false; return 0.0f; }
 3907              		.loc 1 96 32 view .LVU1207
 3908 1180 F7EE006A 		vmov.f32	s13, #1.0e+0
  95:src/engine.cpp ****     h.amp = h.amp*c + tgt*(1.0f-c);
 3909              		.loc 1 95 31 view .LVU1208
 3910 1184 B4EEE57A 		vcmpe.f32	s14, s11
 3911 1188 F1EE10FA 		vmrs	APSR_nzcv, FPSCR
 3912 118c 4CBF     		ite	mi
 3913 118e 93ED0F6A 		vldrmi.32	s12, [r3, #60]
 3914 1192 93ED106A 		vldrpl.32	s12, [r3, #64]
 3915              	.LVL266:
  96:src/engine.cpp ****     if(!h.gate && h.amp < 0.0004f){ h.active=false; return 0.0f; }
 3916              		.loc 1 96 5 is_stmt 1 view .LVU1209
  96:src/engine.cpp ****     if(!h.gate && h.amp < 0.0004f){ h.active=false; return 0.0f; }
 3917              		.loc 1 96 32 is_stmt 0 view .LVU1210
 3918 1196 76EEC66A 		vsub.f32	s13, s13, s12
  96:src/engine.cpp ****     if(!h.gate && h.amp < 0.0004f){ h.active=false; return 0.0f; }
 3919              		.loc 1 96 26 view .LVU1211
 3920 119a 66EEA56A 		vmul.f32	s13, s13, s11
  96:src/engine.cpp ****     if(!h.gate && h.amp < 0.0004f){ h.active=false; return 0.0f; }
 3921              		.loc 1 96 21 view .LVU1212
 3922 119e E7EE066A 		vfma.f32	s13, s14, s12
  96:src/engine.cpp ****     if(!h.gate && h.amp < 0.0004f){ h.active=false; return 0.0f; }
 3923              		.loc 1 96 11 view .LVU1213
 3924 11a2 C3ED0A6A 		vstr.32	s13, [r3, #40]
  97:src/engine.cpp ****     // Pitch envelope decays to 1.0.
 3925              		.loc 1 97 5 is_stmt 1 view .LVU1214
 3926 11a6 38B9     		cbnz	r0, .L123
  97:src/engine.cpp ****     // Pitch envelope decays to 1.0.
 3927              		.loc 1 97 16 is_stmt 0 view .LVU1215
 3928 11a8 9FEDAC7A 		vldr.32	s14, .L363+8
 3929 11ac F4EEC76A 		vcmpe.f32	s13, s14
 3930 11b0 F1EE10FA 		vmrs	APSR_nzcv, FPSCR
 3931 11b4 00F1F582 		bmi	.L347
 3932              	.L123:
  99:src/engine.cpp ****     float f = h.freq * h.pmult;
 3933              		.loc 1 99 5 is_stmt 1 view .LVU1216
  99:src/engine.cpp ****     float f = h.freq * h.pmult;
ARM GAS  /tmp/claude-502/ccU8FNgW.s 			page 95


 3934              		.loc 1 99 31 is_stmt 0 view .LVU1217
 3935 11b8 B7EE007A 		vmov.f32	s14, #1.0e+0
 3936 11bc D3ED0B5A 		vldr.32	s11, [r3, #44]
 3937              	.LVL267:
  99:src/engine.cpp ****     float f = h.freq * h.pmult;
 3938              		.loc 1 99 20 view .LVU1218
 3939 11c0 D3ED114A 		vldr.32	s9, [r3, #68]
 102:src/engine.cpp ****               + osc(h.ph2,V.osc2_wave)*V.osc2_level
 3940              		.loc 1 102 29 view .LVU1219
 3941 11c4 9C20     		movs	r0, #156
 102:src/engine.cpp ****               + osc(h.ph2,V.osc2_wave)*V.osc2_level
 3942              		.loc 1 102 20 view .LVU1220
 3943 11c6 93ED063A 		vldr.32	s6, [r3, #24]
  99:src/engine.cpp ****     float f = h.freq * h.pmult;
 3944              		.loc 1 99 31 view .LVU1221
 3945 11ca 75EEC75A 		vsub.f32	s11, s11, s14
 102:src/engine.cpp ****               + osc(h.ph2,V.osc2_wave)*V.osc2_level
 3946              		.loc 1 102 29 view .LVU1222
 3947 11ce 00FB0250 		mla	r0, r0, r2, r5
  99:src/engine.cpp ****     float f = h.freq * h.pmult;
 3948              		.loc 1 99 20 view .LVU1223
 3949 11d2 B0EE476A 		vmov.f32	s12, s14
 3950              	.LVL268:
 102:src/engine.cpp ****               + osc(h.ph2,V.osc2_wave)*V.osc2_level
 3951              		.loc 1 102 29 view .LVU1224
 3952 11d6 007E     		ldrb	r0, [r0, #24]	@ zero_extendqisi2
  99:src/engine.cpp ****     float f = h.freq * h.pmult;
 3953              		.loc 1 99 20 view .LVU1225
 3954 11d8 A5EEA46A 		vfma.f32	s12, s11, s9
 3955              	.LBB478:
 3956              	.LBB479:
  58:src/dsp.h     ****         case WAVE_SINE:   return osc_sine(ph);
 3957              		.loc 2 58 5 view .LVU1226
 3958 11dc 0228     		cmp	r0, #2
 3959              	.LBE479:
 3960              	.LBE478:
 100:src/engine.cpp ****     // Oscillators + noise
 3961              		.loc 1 100 11 view .LVU1227
 3962 11de D3ED025A 		vldr.32	s11, [r3, #8]
  99:src/engine.cpp ****     float f = h.freq * h.pmult;
 3963              		.loc 1 99 13 view .LVU1228
 3964 11e2 83ED0B6A 		vstr.32	s12, [r3, #44]
 100:src/engine.cpp ****     // Oscillators + noise
 3965              		.loc 1 100 5 is_stmt 1 view .LVU1229
 100:src/engine.cpp ****     // Oscillators + noise
 3966              		.loc 1 100 11 is_stmt 0 view .LVU1230
 3967 11e6 26EE256A 		vmul.f32	s12, s12, s11
 3968              	.LVL269:
 102:src/engine.cpp ****               + osc(h.ph2,V.osc2_wave)*V.osc2_level
 3969              		.loc 1 102 5 is_stmt 1 view .LVU1231
 3970              	.LBB498:
 3971              	.LBI478:
  57:src/dsp.h     ****     switch(w){
 3972              		.loc 2 57 21 view .LVU1232
 3973              	.LBB493:
  58:src/dsp.h     ****         case WAVE_SINE:   return osc_sine(ph);
 3974              		.loc 2 58 5 view .LVU1233
ARM GAS  /tmp/claude-502/ccU8FNgW.s 			page 96


 3975 11ea 00F0C380 		beq	.L125
 3976 11ee 0328     		cmp	r0, #3
 3977 11f0 00F0B980 		beq	.L126
 3978 11f4 0128     		cmp	r0, #1
 3979 11f6 6AD0     		beq	.L348
 3980              	.LVL270:
 3981              	.LBB480:
 3982              	.LBI480:
  57:src/dsp.h     ****     switch(w){
 3983              		.loc 2 57 21 view .LVU1234
  57:src/dsp.h     ****     switch(w){
 3984              		.loc 2 57 21 is_stmt 0 view .LVU1235
 3985              	.LBE480:
 3986              	.LBE493:
 3987              	.LBE498:
 3988              	.LBE477:
 3989              	.LBE476:
 3990              	.LBE475:
 3991              	.LBE624:
 3992              	.LBE890:
 3993              	.LBE914:
 3994              	.LBE925:
  62:src/dsp.h     ****         default:          return tri(ph);
 3995              		.loc 2 62 9 is_stmt 1 view .LVU1236
  63:src/dsp.h     ****     }
 3996              		.loc 2 63 9 view .LVU1237
  63:src/dsp.h     ****     }
 3997              		.loc 2 63 27 view .LVU1238
 3998              	.LBB926:
 3999              	.LBB915:
 4000              	.LBB891:
 4001              	.LBB625:
 4002              	.LBB611:
 4003              	.LBB604:
 4004              	.LBB597:
 4005              	.LBB499:
 4006              	.LBB494:
 4007              	.LBB485:
 4008              	.LBB481:
 4009              	.LBI481:
  40:src/dsp.h     ****     return ph<0.5f?(4.0f*ph-1.0f):(3.0f-4.0f*ph);
 4010              		.loc 2 40 21 view .LVU1239
 4011              	.LBB482:
  41:src/dsp.h     **** }
 4012              		.loc 2 41 5 view .LVU1240
  41:src/dsp.h     **** }
 4013              		.loc 2 41 19 is_stmt 0 view .LVU1241
 4014 11f8 B6EE007A 		vmov.f32	s14, #5.0e-1
 4015 11fc F1EE005A 		vmov.f32	s11, #4.0e+0
 4016 1200 B4EEC73A 		vcmpe.f32	s6, s14
 4017 1204 F1EE10FA 		vmrs	APSR_nzcv, FPSCR
 4018 1208 40F1DE82 		bpl	.L313
 4019 120c BFEE007A 		vmov.f32	s14, #-1.0e+0
 4020 1210 A3EE257A 		vfma.f32	s14, s6, s11
 4021 1214 87E0     		b	.L132
 4022              	.LVL271:
 4023              	.L223:
ARM GAS  /tmp/claude-502/ccU8FNgW.s 			page 97


  41:src/dsp.h     **** }
 4024              		.loc 2 41 19 view .LVU1242
 4025              	.LBE482:
 4026              	.LBE481:
 4027              	.LBE485:
 4028              	.LBE494:
 4029              	.LBE499:
 4030              	.LBE597:
 4031              	.LBE604:
 4032              	.LBE611:
 4033              	.LBE625:
 4034              	.LBE891:
 4035              	.LBB892:
 4036              	.LBB848:
  26:src/dsp.h     ****     float x2=x*x;
 4037              		.loc 2 26 24 view .LVU1243
 4038 1216 FFEE006A 		vmov.f32	s13, #-1.0e+0
 4039 121a A6E5     		b	.L101
 4040              	.LVL272:
 4041              	.L229:
  26:src/dsp.h     ****     float x2=x*x;
 4042              		.loc 2 26 24 view .LVU1244
 4043              	.LBE848:
 4044              	.LBE892:
 4045              	.LBB893:
 4046              	.LBB450:
 4047              	.LBB441:
 4048              	.LBB432:
 4049              	.LBB372:
 4050 121c FFEE004A 		vmov.f32	s9, #-1.0e+0
 4051 1220 FFF75AB9 		b	.L106
 4052              	.LVL273:
 4053              	.L242:
  26:src/dsp.h     ****     float x2=x*x;
 4054              		.loc 2 26 24 view .LVU1245
 4055              	.LBE372:
 4056              	.LBE432:
 4057              	.LBE441:
 4058              	.LBE450:
 4059              	.LBE893:
 4060              	.LBB894:
 4061              	.LBB626:
 4062              	.LBB612:
 4063              	.LBB605:
 4064              	.LBB598:
  91:src/engine.cpp ****     const Voice& V = VOICES[h.vidx];
 4065              		.loc 1 91 26 view .LVU1246
 4066 1224 DFED966A 		vldr.32	s13, .L363+44
 4067              	.L118:
  91:src/engine.cpp ****     const Voice& V = VOICES[h.vidx];
 4068              		.loc 1 91 26 view .LVU1247
 4069              	.LBE598:
 4070              	.LBE605:
 332:src/engine.cpp ****             sample = fast_tanh(m) * s_master_vol;
 4071              		.loc 1 332 30 view .LVU1248
 4072 1228 4C33     		adds	r3, r3, #76
 332:src/engine.cpp ****             sample = fast_tanh(m) * s_master_vol;
ARM GAS  /tmp/claude-502/ccU8FNgW.s 			page 98


 4073              		.loc 1 332 45 view .LVU1249
 4074 122a 35EE265A 		vadd.f32	s10, s10, s13
 4075              	.LVL274:
 332:src/engine.cpp ****             sample = fast_tanh(m) * s_master_vol;
 4076              		.loc 1 332 13 is_stmt 1 view .LVU1250
 332:src/engine.cpp ****             sample = fast_tanh(m) * s_master_vol;
 4077              		.loc 1 332 30 view .LVU1251
 4078 122e 7345     		cmp	r3, lr
 4079 1230 98D1     		bne	.L179
 4080 1232 039B     		ldr	r3, [sp, #12]
 4081 1234 0BB1     		cbz	r3, .L180
 4082 1236 884B     		ldr	r3, .L363+4
 4083 1238 1960     		str	r1, [r3]
 4084              	.L180:
 4085              	.LBE612:
 333:src/engine.cpp ****         }
 4086              		.loc 1 333 13 view .LVU1252
 4087              	.LVL275:
 4088              	.LBB613:
 4089              	.LBI613:
  23:src/dsp.h     **** {
 4090              		.loc 2 23 21 view .LVU1253
 4091              	.LBB614:
  25:src/dsp.h     ****     if(x<-3.0f)return -1.0f;
 4092              		.loc 2 25 5 view .LVU1254
 4093 123a B0EE087A 		vmov.f32	s14, #3.0e+0
 4094 123e B4EEC75A 		vcmpe.f32	s10, s14
 4095 1242 F1EE10FA 		vmrs	APSR_nzcv, FPSCR
 4096 1246 00F3C882 		bgt	.L254
  26:src/dsp.h     ****     float x2=x*x;
 4097              		.loc 2 26 5 view .LVU1255
 4098 124a B8EE087A 		vmov.f32	s14, #-3.0e+0
 4099 124e B4EEC75A 		vcmpe.f32	s10, s14
 4100 1252 F1EE10FA 		vmrs	APSR_nzcv, FPSCR
 4101 1256 00F1CA82 		bmi	.L349
 4102              	.LVL276:
 4103              	.LBB615:
 4104              	.LBI615:
  23:src/dsp.h     **** {
 4105              		.loc 2 23 21 view .LVU1256
 4106              	.LBB616:
  27:src/dsp.h     ****     return x*(27.0f+x2)/(27.0f+9.0f*x2);
 4107              		.loc 2 27 5 view .LVU1257
  28:src/dsp.h     **** }
 4108              		.loc 2 28 20 is_stmt 0 view .LVU1258
 4109 125a F3EE0B6A 		vmov.f32	s13, #2.7e+1
  27:src/dsp.h     ****     return x*(27.0f+x2)/(27.0f+9.0f*x2);
 4110              		.loc 2 27 11 view .LVU1259
 4111 125e 25EE057A 		vmul.f32	s14, s10, s10
 4112              	.LVL277:
  28:src/dsp.h     **** }
 4113              		.loc 2 28 5 is_stmt 1 view .LVU1260
  28:src/dsp.h     **** }
 4114              		.loc 2 28 31 is_stmt 0 view .LVU1261
 4115 1262 B2EE026A 		vmov.f32	s12, #9.0e+0
 4116 1266 F0EE665A 		vmov.f32	s11, s13
 4117 126a E7EE065A 		vfma.f32	s11, s14, s12
ARM GAS  /tmp/claude-502/ccU8FNgW.s 			page 99


 4118              	.LVL278:
  28:src/dsp.h     **** }
 4119              		.loc 2 28 20 view .LVU1262
 4120 126e 37EE267A 		vadd.f32	s14, s14, s13
  28:src/dsp.h     **** }
 4121              		.loc 2 28 13 view .LVU1263
 4122 1272 27EE055A 		vmul.f32	s10, s14, s10
 4123              	.LVL279:
  28:src/dsp.h     **** }
 4124              		.loc 2 28 39 view .LVU1264
 4125 1276 85EE256A 		vdiv.f32	s12, s10, s11
 4126              	.LBE616:
 4127              	.LBE615:
 4128              	.LBE614:
 4129              	.LBE613:
 333:src/engine.cpp ****         }
 4130              		.loc 1 333 20 view .LVU1265
 4131 127a 26EE0A6A 		vmul.f32	s12, s12, s20
 4132 127e FFF771BA 		b	.L117
 4133              	.LVL280:
 4134              	.L243:
 4135              	.LBB618:
 4136              	.LBB606:
 4137              	.LBB599:
  94:src/engine.cpp ****     float c   = (tgt > h.amp) ? h.atk_c : h.rel_c;
 4138              		.loc 1 94 24 view .LVU1266
 4139 1282 DFED7F5A 		vldr.32	s11, .L363+44
 4140 1286 79E7     		b	.L119
 4141              	.LVL281:
 4142              	.L218:
  94:src/engine.cpp ****     float c   = (tgt > h.amp) ? h.atk_c : h.rel_c;
 4143              		.loc 1 94 24 view .LVU1267
 4144              	.LBE599:
 4145              	.LBE606:
 4146              	.LBE618:
 4147              	.LBE626:
 4148              	.LBE894:
 4149              	.LBB895:
 4150              	.LBB792:
 4151              	.LBB779:
 4152              	.LBB770:
 4153 1288 9DED221A 		vldr.32	s2, [sp, #136]
 4154 128c C8E4     		b	.L83
 4155              	.LVL282:
 4156              	.L303:
  94:src/engine.cpp ****     float c   = (tgt > h.amp) ? h.atk_c : h.rel_c;
 4157              		.loc 1 94 24 view .LVU1268
 4158              	.LBE770:
 4159              	.LBE779:
 4160              	.LBE792:
 4161              	.LBE895:
 4162              	.LBB896:
 4163              	.LBB750:
 4164              	.LBB737:
 4165              	.LBB722:
 4166              	.LBB719:
  41:src/dsp.h     **** }
ARM GAS  /tmp/claude-502/ccU8FNgW.s 			page 100


 4167              		.loc 2 41 19 view .LVU1269
 4168 128e F0EE080A 		vmov.f32	s1, #3.0e+0
 4169              	.LBE719:
 4170              	.LBE722:
 4171              	.LBE737:
 4172              	.LBE750:
 4173              	.LBE896:
 287:src/engine.cpp ****         float sub     = osc(s_phase_sub,VOICE.sub_wave)  * VOICE.sub_level;
 4174              		.loc 1 287 66 view .LVU1270
 4175 1292 9DED217A 		vldr.32	s14, [sp, #132]
 4176              	.LBB897:
 4177              	.LBB751:
 4178              	.LBB738:
 4179              	.LBB723:
 4180              	.LBB720:
  41:src/dsp.h     **** }
 4181              		.loc 2 41 19 view .LVU1271
 4182 1296 E9EE640A 		vfms.f32	s1, s18, s9
 4183              	.LBE720:
 4184              	.LBE723:
 4185              	.LBE738:
 4186              	.LBE751:
 4187              	.LBE897:
 287:src/engine.cpp ****         float sub     = osc(s_phase_sub,VOICE.sub_wave)  * VOICE.sub_level;
 4188              		.loc 1 287 66 view .LVU1272
 4189 129a 60EE870A 		vmul.f32	s1, s1, s14
 4190 129e A0E4     		b	.L73
 4191              	.LVL283:
 4192              	.L214:
 4193              	.LBB898:
 4194              	.LBB709:
 4195              	.LBB700:
 4196              	.LBB699:
 287:src/engine.cpp ****         float sub     = osc(s_phase_sub,VOICE.sub_wave)  * VOICE.sub_level;
 4197              		.loc 1 287 66 view .LVU1273
 4198 12a0 8DED037A 		vstr.32	s14, [sp, #12]
 4199 12a4 7EE4     		b	.L63
 4200              	.LVL284:
 4201              	.L305:
 287:src/engine.cpp ****         float sub     = osc(s_phase_sub,VOICE.sub_wave)  * VOICE.sub_level;
 4202              		.loc 1 287 66 view .LVU1274
 4203              	.LBE699:
 4204              	.LBE700:
 4205              	.LBE709:
 4206              	.LBE898:
 4207              	.LBB899:
 4208              	.LBB793:
 4209              	.LBB780:
 4210              	.LBB764:
 4211              	.LBB761:
  41:src/dsp.h     **** }
 4212              		.loc 2 41 19 view .LVU1275
 4213 12a6 B0EE081A 		vmov.f32	s2, #3.0e+0
 4214              	.LBE761:
 4215              	.LBE764:
 4216              	.LBE780:
 4217              	.LBE793:
ARM GAS  /tmp/claude-502/ccU8FNgW.s 			page 101


 4218              	.LBE899:
 288:src/engine.cpp ****         float osc_oct = osc(s_phase_oct,VOICE.oct_wave)  * VOICE.oct_level;
 4219              		.loc 1 288 66 view .LVU1276
 4220 12aa 9DED227A 		vldr.32	s14, [sp, #136]
 4221              	.LBB900:
 4222              	.LBB794:
 4223              	.LBB781:
 4224              	.LBB765:
 4225              	.LBB762:
  41:src/dsp.h     **** }
 4226              		.loc 2 41 19 view .LVU1277
 4227 12ae A8EEE41A 		vfms.f32	s2, s17, s9
 4228              	.LBE762:
 4229              	.LBE765:
 4230              	.LBE781:
 4231              	.LBE794:
 4232              	.LBE900:
 288:src/engine.cpp ****         float osc_oct = osc(s_phase_oct,VOICE.oct_wave)  * VOICE.oct_level;
 4233              		.loc 1 288 66 view .LVU1278
 4234 12b2 21EE071A 		vmul.f32	s2, s2, s14
 4235 12b6 B3E4     		b	.L83
 4236              	.LVL285:
 4237              	.L220:
 4238              	.LBB901:
 4239              	.LBB835:
 4240              	.LBB824:
 4241              	.LBB819:
 288:src/engine.cpp ****         float osc_oct = osc(s_phase_oct,VOICE.oct_wave)  * VOICE.oct_level;
 4242              		.loc 1 288 66 view .LVU1279
 4243 12b8 8DED047A 		vstr.32	s14, [sp, #16]
 4244 12bc D1E4     		b	.L93
 4245              	.LVL286:
 4246              	.L216:
 288:src/engine.cpp ****         float osc_oct = osc(s_phase_oct,VOICE.oct_wave)  * VOICE.oct_level;
 4247              		.loc 1 288 66 view .LVU1280
 4248              	.LBE819:
 4249              	.LBE824:
 4250              	.LBE835:
 4251              	.LBE901:
 4252              	.LBB902:
 4253              	.LBB752:
 4254              	.LBB739:
 4255              	.LBB728:
 4256 12be DDED210A 		vldr.32	s1, [sp, #132]
 4257 12c2 8EE4     		b	.L73
 4258              	.LVL287:
 4259              	.L15:
 288:src/engine.cpp ****         float osc_oct = osc(s_phase_oct,VOICE.oct_wave)  * VOICE.oct_level;
 4260              		.loc 1 288 66 view .LVU1281
 4261              	.LBE728:
 4262              	.LBE739:
 4263              	.LBE752:
 4264              	.LBE902:
 4265              	.LBE915:
 4266              	.LBE926:
 353:src/engine.cpp ****     }
 354:src/engine.cpp **** }
ARM GAS  /tmp/claude-502/ccU8FNgW.s 			page 102


 4267              		.loc 1 354 1 view .LVU1282
 4268 12c4 25B0     		add	sp, sp, #148
 4269              		.cfi_remember_state
 4270              		.cfi_def_cfa_offset 100
 4271              	.LVL288:
 4272              		.loc 1 354 1 view .LVU1283
 4273              		@ sp needed
 4274 12c6 BDEC108B 		vldm	sp!, {d8-d15}
 4275              		.cfi_restore 94
 4276              		.cfi_restore 95
 4277              		.cfi_restore 92
 4278              		.cfi_restore 93
 4279              		.cfi_restore 90
 4280              		.cfi_restore 91
 4281              		.cfi_restore 88
 4282              		.cfi_restore 89
 4283              		.cfi_restore 86
 4284              		.cfi_restore 87
 4285              		.cfi_restore 84
 4286              		.cfi_restore 85
 4287              		.cfi_restore 82
 4288              		.cfi_restore 83
 4289              		.cfi_restore 80
 4290              		.cfi_restore 81
 4291              		.cfi_def_cfa_offset 36
 4292              	.LVL289:
 4293              		.loc 1 354 1 view .LVU1284
 4294 12ca BDE8F08F 		pop	{r4, r5, r6, r7, r8, r9, r10, fp, pc}
 4295              	.LVL290:
 4296              	.L348:
 4297              		.cfi_restore_state
 4298              	.LBB927:
 4299              	.LBB916:
 4300              	.LBB903:
 4301              	.LBB627:
 4302              	.LBB619:
 4303              	.LBB607:
 4304              	.LBB600:
 4305              	.LBB500:
 4306              	.LBB495:
  59:src/dsp.h     ****         case WAVE_SQUARE: return osc_square(ph);
 4307              		.loc 2 59 9 is_stmt 1 view .LVU1285
  59:src/dsp.h     ****         case WAVE_SQUARE: return osc_square(ph);
 4308              		.loc 2 59 27 view .LVU1286
 4309              	.LBB486:
 4310              	.LBI486:
  44:src/dsp.h     ****     constexpr float PI = 3.14159265f;
 4311              		.loc 2 44 21 view .LVU1287
 4312              	.LBB487:
  45:src/dsp.h     ****     float x = ph*2.0f*PI - PI;                 // -π..π (angle shifted by π)
 4313              		.loc 2 45 5 view .LVU1288
  46:src/dsp.h     ****     float y = 1.27323954f*x - 0.405284735f*x*(x<0?-x:x);
 4314              		.loc 2 46 5 view .LVU1289
  46:src/dsp.h     ****     float y = 1.27323954f*x - 0.405284735f*x*(x<0?-x:x);
 4315              		.loc 2 46 17 is_stmt 0 view .LVU1290
 4316 12ce 73EE034A 		vadd.f32	s9, s6, s6
  46:src/dsp.h     ****     float y = 1.27323954f*x - 0.405284735f*x*(x<0?-x:x);
ARM GAS  /tmp/claude-502/ccU8FNgW.s 			page 103


 4317              		.loc 2 46 11 view .LVU1291
 4318 12d2 9FED637A 		vldr.32	s14, .L363+12
 4319 12d6 DFED635A 		vldr.32	s11, .L363+16
 4320 12da E4EE875A 		vfma.f32	s11, s9, s14
 4321              	.LVL291:
  47:src/dsp.h     ****     y = 0.225f*(y*(y<0?-y:y) - y) + y;         // one refinement pass
 4322              		.loc 2 47 5 is_stmt 1 view .LVU1292
  47:src/dsp.h     ****     y = 0.225f*(y*(y<0?-y:y) - y) + y;         // one refinement pass
 4323              		.loc 2 47 26 is_stmt 0 view .LVU1293
 4324 12de 9FED627A 		vldr.32	s14, .L363+20
  47:src/dsp.h     ****     y = 0.225f*(y*(y<0?-y:y) - y) + y;         // one refinement pass
 4325              		.loc 2 47 43 view .LVU1294
 4326 12e2 DFED624A 		vldr.32	s9, .L363+24
  47:src/dsp.h     ****     y = 0.225f*(y*(y<0?-y:y) - y) + y;         // one refinement pass
 4327              		.loc 2 47 50 view .LVU1295
 4328 12e6 F5EEC05A 		vcmpe.f32	s11, #0
  47:src/dsp.h     ****     y = 0.225f*(y*(y<0?-y:y) - y) + y;         // one refinement pass
 4329              		.loc 2 47 43 view .LVU1296
 4330 12ea 65EEA44A 		vmul.f32	s9, s11, s9
  47:src/dsp.h     ****     y = 0.225f*(y*(y<0?-y:y) - y) + y;         // one refinement pass
 4331              		.loc 2 47 26 view .LVU1297
 4332 12ee 25EE877A 		vmul.f32	s14, s11, s14
  47:src/dsp.h     ****     y = 0.225f*(y*(y<0?-y:y) - y) + y;         // one refinement pass
 4333              		.loc 2 47 50 view .LVU1298
 4334 12f2 F1EE10FA 		vmrs	APSR_nzcv, FPSCR
 4335 12f6 48BF     		it	mi
 4336 12f8 F1EE655A 		vnegmi.f32	s11, s11
 4337              	.LVL292:
  47:src/dsp.h     ****     y = 0.225f*(y*(y<0?-y:y) - y) + y;         // one refinement pass
 4338              		.loc 2 47 11 view .LVU1299
 4339 12fc A4EEE57A 		vfms.f32	s14, s9, s11
 4340              	.LVL293:
  48:src/dsp.h     ****     return -y;                                 // undo the π shift: sin(x+π) = -sin(x)
 4341              		.loc 2 48 5 is_stmt 1 view .LVU1300
  48:src/dsp.h     ****     return -y;                                 // undo the π shift: sin(x+π) = -sin(x)
 4342              		.loc 2 48 23 is_stmt 0 view .LVU1301
 4343 1300 B5EEC07A 		vcmpe.f32	s14, #0
 4344 1304 F1EE475A 		vneg.f32	s11, s14
 4345 1308 F1EE10FA 		vmrs	APSR_nzcv, FPSCR
 4346 130c 54BF     		ite	pl
 4347 130e F0EE474A 		vmovpl.f32	s9, s14
 4348 1312 F0EE654A 		vmovmi.f32	s9, s11
  48:src/dsp.h     ****     return -y;                                 // undo the π shift: sin(x+π) = -sin(x)
 4349              		.loc 2 48 30 view .LVU1302
 4350 1316 E7EE245A 		vfma.f32	s11, s14, s9
  48:src/dsp.h     ****     return -y;                                 // undo the π shift: sin(x+π) = -sin(x)
 4351              		.loc 2 48 7 view .LVU1303
 4352 131a DFED554A 		vldr.32	s9, .L363+28
 4353 131e A5EEA47A 		vfma.f32	s14, s11, s9
 4354              	.LVL294:
  49:src/dsp.h     **** }
 4355              		.loc 2 49 5 is_stmt 1 view .LVU1304
  49:src/dsp.h     **** }
 4356              		.loc 2 49 13 is_stmt 0 view .LVU1305
 4357 1322 B1EE477A 		vneg.f32	s14, s14
 4358              	.LVL295:
 4359              	.L132:
ARM GAS  /tmp/claude-502/ccU8FNgW.s 			page 104


  49:src/dsp.h     **** }
 4360              		.loc 2 49 13 view .LVU1306
 4361              	.LBE487:
 4362              	.LBE486:
 4363              	.LBE495:
 4364              	.LBE500:
 102:src/engine.cpp ****               + osc(h.ph2,V.osc2_wave)*V.osc2_level
 4365              		.loc 1 102 42 view .LVU1307
 4366 1326 9C20     		movs	r0, #156
 103:src/engine.cpp ****               + osc(h.phs,V.sub_wave )*V.sub_level
 4367              		.loc 1 103 20 view .LVU1308
 4368 1328 D3ED073A 		vldr.32	s7, [r3, #28]
 102:src/engine.cpp ****               + osc(h.ph2,V.osc2_wave)*V.osc2_level
 4369              		.loc 1 102 42 view .LVU1309
 4370 132c 00FB0250 		mla	r0, r0, r2, r5
 102:src/engine.cpp ****               + osc(h.ph2,V.osc2_wave)*V.osc2_level
 4371              		.loc 1 102 39 view .LVU1310
 4372 1330 D0ED055A 		vldr.32	s11, [r0, #20]
 103:src/engine.cpp ****               + osc(h.phs,V.sub_wave )*V.sub_level
 4373              		.loc 1 103 29 view .LVU1311
 4374 1334 90F82400 		ldrb	r0, [r0, #36]	@ zero_extendqisi2
 4375              	.LVL296:
 4376              	.LBB501:
 4377              	.LBI501:
  57:src/dsp.h     ****     switch(w){
 4378              		.loc 2 57 21 is_stmt 1 view .LVU1312
 4379              	.LBB502:
  58:src/dsp.h     ****         case WAVE_SINE:   return osc_sine(ph);
 4380              		.loc 2 58 5 view .LVU1313
 4381              	.LBE502:
 4382              	.LBE501:
 102:src/engine.cpp ****               + osc(h.ph2,V.osc2_wave)*V.osc2_level
 4383              		.loc 1 102 39 is_stmt 0 view .LVU1314
 4384 1338 27EE257A 		vmul.f32	s14, s14, s11
 4385              	.LBB521:
 4386              	.LBB516:
  58:src/dsp.h     ****         case WAVE_SINE:   return osc_sine(ph);
 4387              		.loc 2 58 5 view .LVU1315
 4388 133c 0228     		cmp	r0, #2
 4389 133e 7AD0     		beq	.L135
 4390 1340 0328     		cmp	r0, #3
 4391 1342 71D0     		beq	.L136
 4392 1344 0128     		cmp	r0, #1
 4393 1346 21D0     		beq	.L350
 4394              	.LVL297:
 4395              	.LBB503:
 4396              	.LBI503:
  57:src/dsp.h     ****     switch(w){
 4397              		.loc 2 57 21 is_stmt 1 view .LVU1316
  57:src/dsp.h     ****     switch(w){
 4398              		.loc 2 57 21 is_stmt 0 view .LVU1317
 4399              	.LBE503:
 4400              	.LBE516:
 4401              	.LBE521:
 4402              	.LBE600:
 4403              	.LBE607:
 4404              	.LBE619:
ARM GAS  /tmp/claude-502/ccU8FNgW.s 			page 105


 4405              	.LBE627:
 4406              	.LBE903:
 4407              	.LBE916:
 4408              	.LBE927:
  62:src/dsp.h     ****         default:          return tri(ph);
 4409              		.loc 2 62 9 is_stmt 1 view .LVU1318
  63:src/dsp.h     ****     }
 4410              		.loc 2 63 9 view .LVU1319
  63:src/dsp.h     ****     }
 4411              		.loc 2 63 27 view .LVU1320
 4412              	.LBB928:
 4413              	.LBB917:
 4414              	.LBB904:
 4415              	.LBB628:
 4416              	.LBB620:
 4417              	.LBB608:
 4418              	.LBB601:
 4419              	.LBB522:
 4420              	.LBB517:
 4421              	.LBB508:
 4422              	.LBB504:
 4423              	.LBI504:
  40:src/dsp.h     ****     return ph<0.5f?(4.0f*ph-1.0f):(3.0f-4.0f*ph);
 4424              		.loc 2 40 21 view .LVU1321
 4425              	.LBB505:
  41:src/dsp.h     **** }
 4426              		.loc 2 41 5 view .LVU1322
  41:src/dsp.h     **** }
 4427              		.loc 2 41 19 is_stmt 0 view .LVU1323
 4428 1348 F6EE005A 		vmov.f32	s11, #5.0e-1
 4429 134c F1EE004A 		vmov.f32	s9, #4.0e+0
 4430 1350 F4EEE53A 		vcmpe.f32	s7, s11
 4431 1354 F1EE10FA 		vmrs	APSR_nzcv, FPSCR
 4432 1358 40F13182 		bpl	.L315
 4433 135c FFEE005A 		vmov.f32	s11, #-1.0e+0
 4434 1360 E3EEA45A 		vfma.f32	s11, s7, s9
 4435 1364 3EE0     		b	.L142
 4436              	.LVL298:
 4437              	.L126:
  41:src/dsp.h     **** }
 4438              		.loc 2 41 19 view .LVU1324
 4439              	.LBE505:
 4440              	.LBE504:
 4441              	.LBE508:
 4442              	.LBE517:
 4443              	.LBE522:
 4444              	.LBB523:
 4445              	.LBB496:
  61:src/dsp.h     ****         case WAVE_TRI:
 4446              		.loc 2 61 9 is_stmt 1 view .LVU1325
  61:src/dsp.h     ****         case WAVE_TRI:
 4447              		.loc 2 61 27 view .LVU1326
 4448              	.LBB488:
 4449              	.LBI488:
  53:src/dsp.h     **** 
 4450              		.loc 2 53 21 view .LVU1327
 4451              	.LBB489:
ARM GAS  /tmp/claude-502/ccU8FNgW.s 			page 106


  53:src/dsp.h     **** 
 4452              		.loc 2 53 40 view .LVU1328
  53:src/dsp.h     **** 
 4453              		.loc 2 53 57 is_stmt 0 view .LVU1329
 4454 1366 F0EE005A 		vmov.f32	s11, #2.0e+0
 4455 136a BFEE007A 		vmov.f32	s14, #-1.0e+0
 4456 136e A3EE257A 		vfma.f32	s14, s6, s11
 4457              	.LVL299:
  53:src/dsp.h     **** 
 4458              		.loc 2 53 57 view .LVU1330
 4459              	.LBE489:
 4460              	.LBE488:
  61:src/dsp.h     ****         case WAVE_TRI:
 4461              		.loc 2 61 44 view .LVU1331
 4462 1372 D8E7     		b	.L132
 4463              	.L125:
  60:src/dsp.h     ****         case WAVE_SAW:    return osc_saw(ph);
 4464              		.loc 2 60 9 is_stmt 1 view .LVU1332
  60:src/dsp.h     ****         case WAVE_SAW:    return osc_saw(ph);
 4465              		.loc 2 60 27 view .LVU1333
 4466              	.LVL300:
 4467              	.LBB490:
 4468              	.LBI490:
  52:src/dsp.h     **** static inline float osc_saw(float ph){ return 2.0f*ph - 1.0f; }
 4469              		.loc 2 52 21 view .LVU1334
 4470              	.LBB491:
  52:src/dsp.h     **** static inline float osc_saw(float ph){ return 2.0f*ph - 1.0f; }
 4471              		.loc 2 52 43 view .LVU1335
  52:src/dsp.h     **** static inline float osc_saw(float ph){ return 2.0f*ph - 1.0f; }
 4472              		.loc 2 52 58 is_stmt 0 view .LVU1336
 4473 1374 F6EE005A 		vmov.f32	s11, #5.0e-1
 4474 1378 B4EEE53A 		vcmpe.f32	s6, s11
 4475 137c FFEE005A 		vmov.f32	s11, #-1.0e+0
 4476 1380 F1EE10FA 		vmrs	APSR_nzcv, FPSCR
 4477 1384 58BF     		it	pl
 4478 1386 B0EE657A 		vmovpl.f32	s14, s11
 4479 138a CCE7     		b	.L132
 4480              	.LVL301:
 4481              	.L350:
  52:src/dsp.h     **** static inline float osc_saw(float ph){ return 2.0f*ph - 1.0f; }
 4482              		.loc 2 52 58 view .LVU1337
 4483              	.LBE491:
 4484              	.LBE490:
 4485              	.LBE496:
 4486              	.LBE523:
 4487              	.LBB524:
 4488              	.LBB518:
  59:src/dsp.h     ****         case WAVE_SQUARE: return osc_square(ph);
 4489              		.loc 2 59 9 is_stmt 1 view .LVU1338
  59:src/dsp.h     ****         case WAVE_SQUARE: return osc_square(ph);
 4490              		.loc 2 59 27 view .LVU1339
 4491              	.LBB509:
 4492              	.LBI509:
  44:src/dsp.h     ****     constexpr float PI = 3.14159265f;
 4493              		.loc 2 44 21 view .LVU1340
 4494              	.LBB510:
  45:src/dsp.h     ****     float x = ph*2.0f*PI - PI;                 // -π..π (angle shifted by π)
ARM GAS  /tmp/claude-502/ccU8FNgW.s 			page 107


 4495              		.loc 2 45 5 view .LVU1341
  46:src/dsp.h     ****     float y = 1.27323954f*x - 0.405284735f*x*(x<0?-x:x);
 4496              		.loc 2 46 5 view .LVU1342
  46:src/dsp.h     ****     float y = 1.27323954f*x - 0.405284735f*x*(x<0?-x:x);
 4497              		.loc 2 46 17 is_stmt 0 view .LVU1343
 4498 138c 33EEA34A 		vadd.f32	s8, s7, s7
  46:src/dsp.h     ****     float y = 1.27323954f*x - 0.405284735f*x*(x<0?-x:x);
 4499              		.loc 2 46 11 view .LVU1344
 4500 1390 DFED335A 		vldr.32	s11, .L363+12
 4501 1394 DFED334A 		vldr.32	s9, .L363+16
 4502 1398 E4EE254A 		vfma.f32	s9, s8, s11
 4503              	.LVL302:
  47:src/dsp.h     ****     y = 0.225f*(y*(y<0?-y:y) - y) + y;         // one refinement pass
 4504              		.loc 2 47 5 is_stmt 1 view .LVU1345
  47:src/dsp.h     ****     y = 0.225f*(y*(y<0?-y:y) - y) + y;         // one refinement pass
 4505              		.loc 2 47 26 is_stmt 0 view .LVU1346
 4506 139c DFED325A 		vldr.32	s11, .L363+20
  47:src/dsp.h     ****     y = 0.225f*(y*(y<0?-y:y) - y) + y;         // one refinement pass
 4507              		.loc 2 47 43 view .LVU1347
 4508 13a0 9FED324A 		vldr.32	s8, .L363+24
  47:src/dsp.h     ****     y = 0.225f*(y*(y<0?-y:y) - y) + y;         // one refinement pass
 4509              		.loc 2 47 50 view .LVU1348
 4510 13a4 F5EEC04A 		vcmpe.f32	s9, #0
  47:src/dsp.h     ****     y = 0.225f*(y*(y<0?-y:y) - y) + y;         // one refinement pass
 4511              		.loc 2 47 43 view .LVU1349
 4512 13a8 24EE844A 		vmul.f32	s8, s9, s8
  47:src/dsp.h     ****     y = 0.225f*(y*(y<0?-y:y) - y) + y;         // one refinement pass
 4513              		.loc 2 47 26 view .LVU1350
 4514 13ac 64EEA55A 		vmul.f32	s11, s9, s11
  47:src/dsp.h     ****     y = 0.225f*(y*(y<0?-y:y) - y) + y;         // one refinement pass
 4515              		.loc 2 47 50 view .LVU1351
 4516 13b0 F1EE10FA 		vmrs	APSR_nzcv, FPSCR
 4517 13b4 48BF     		it	mi
 4518 13b6 F1EE644A 		vnegmi.f32	s9, s9
 4519              	.LVL303:
  47:src/dsp.h     ****     y = 0.225f*(y*(y<0?-y:y) - y) + y;         // one refinement pass
 4520              		.loc 2 47 11 view .LVU1352
 4521 13ba E4EE645A 		vfms.f32	s11, s8, s9
 4522              	.LVL304:
  48:src/dsp.h     ****     return -y;                                 // undo the π shift: sin(x+π) = -sin(x)
 4523              		.loc 2 48 5 is_stmt 1 view .LVU1353
  48:src/dsp.h     ****     return -y;                                 // undo the π shift: sin(x+π) = -sin(x)
 4524              		.loc 2 48 23 is_stmt 0 view .LVU1354
 4525 13be F5EEC05A 		vcmpe.f32	s11, #0
 4526 13c2 F1EE654A 		vneg.f32	s9, s11
 4527 13c6 F1EE10FA 		vmrs	APSR_nzcv, FPSCR
 4528 13ca 54BF     		ite	pl
 4529 13cc B0EE654A 		vmovpl.f32	s8, s11
 4530 13d0 B0EE644A 		vmovmi.f32	s8, s9
  48:src/dsp.h     ****     return -y;                                 // undo the π shift: sin(x+π) = -sin(x)
 4531              		.loc 2 48 30 view .LVU1355
 4532 13d4 E5EE844A 		vfma.f32	s9, s11, s8
  48:src/dsp.h     ****     return -y;                                 // undo the π shift: sin(x+π) = -sin(x)
 4533              		.loc 2 48 7 view .LVU1356
 4534 13d8 9FED254A 		vldr.32	s8, .L363+28
 4535 13dc E4EE845A 		vfma.f32	s11, s9, s8
 4536              	.LVL305:
ARM GAS  /tmp/claude-502/ccU8FNgW.s 			page 108


  49:src/dsp.h     **** }
 4537              		.loc 2 49 5 is_stmt 1 view .LVU1357
  49:src/dsp.h     **** }
 4538              		.loc 2 49 13 is_stmt 0 view .LVU1358
 4539 13e0 F1EE655A 		vneg.f32	s11, s11
 4540              	.LVL306:
 4541              	.L142:
  49:src/dsp.h     **** }
 4542              		.loc 2 49 13 view .LVU1359
 4543              	.LBE510:
 4544              	.LBE509:
 4545              	.LBE518:
 4546              	.LBE524:
 103:src/engine.cpp ****               + osc(h.phs,V.sub_wave )*V.sub_level
 4547              		.loc 1 103 42 view .LVU1360
 4548 13e4 9C20     		movs	r0, #156
 104:src/engine.cpp ****               + osc(h.pho,V.oct_wave )*V.oct_level;
 4549              		.loc 1 104 20 view .LVU1361
 4550 13e6 93ED084A 		vldr.32	s8, [r3, #32]
 103:src/engine.cpp ****               + osc(h.phs,V.sub_wave )*V.sub_level
 4551              		.loc 1 103 42 view .LVU1362
 4552 13ea 00FB0250 		mla	r0, r0, r2, r5
 103:src/engine.cpp ****               + osc(h.phs,V.sub_wave )*V.sub_level
 4553              		.loc 1 103 15 view .LVU1363
 4554 13ee D0ED084A 		vldr.32	s9, [r0, #32]
 104:src/engine.cpp ****               + osc(h.pho,V.oct_wave )*V.oct_level;
 4555              		.loc 1 104 29 view .LVU1364
 4556 13f2 90F83000 		ldrb	r0, [r0, #48]	@ zero_extendqisi2
 4557              	.LVL307:
 4558              	.LBB525:
 4559              	.LBI525:
  57:src/dsp.h     ****     switch(w){
 4560              		.loc 2 57 21 is_stmt 1 view .LVU1365
 4561              	.LBB526:
  58:src/dsp.h     ****         case WAVE_SINE:   return osc_sine(ph);
 4562              		.loc 2 58 5 view .LVU1366
 4563              	.LBE526:
 4564              	.LBE525:
 103:src/engine.cpp ****               + osc(h.phs,V.sub_wave )*V.sub_level
 4565              		.loc 1 103 15 is_stmt 0 view .LVU1367
 4566 13f6 A4EEA57A 		vfma.f32	s14, s9, s11
 4567              	.LBB545:
 4568              	.LBB540:
  58:src/dsp.h     ****         case WAVE_SINE:   return osc_sine(ph);
 4569              		.loc 2 58 5 view .LVU1368
 4570 13fa 0228     		cmp	r0, #2
 4571 13fc 00F09780 		beq	.L145
 4572 1400 0328     		cmp	r0, #3
 4573 1402 00F08D80 		beq	.L146
 4574 1406 0128     		cmp	r0, #1
 4575 1408 3CD0     		beq	.L351
 4576              	.LVL308:
 4577              	.LBB527:
 4578              	.LBI527:
  57:src/dsp.h     ****     switch(w){
 4579              		.loc 2 57 21 is_stmt 1 view .LVU1369
  57:src/dsp.h     ****     switch(w){
ARM GAS  /tmp/claude-502/ccU8FNgW.s 			page 109


 4580              		.loc 2 57 21 is_stmt 0 view .LVU1370
 4581              	.LBE527:
 4582              	.LBE540:
 4583              	.LBE545:
 4584              	.LBE601:
 4585              	.LBE608:
 4586              	.LBE620:
 4587              	.LBE628:
 4588              	.LBE904:
 4589              	.LBE917:
 4590              	.LBE928:
  62:src/dsp.h     ****         default:          return tri(ph);
 4591              		.loc 2 62 9 is_stmt 1 view .LVU1371
  63:src/dsp.h     ****     }
 4592              		.loc 2 63 9 view .LVU1372
  63:src/dsp.h     ****     }
 4593              		.loc 2 63 27 view .LVU1373
 4594              	.LBB929:
 4595              	.LBB918:
 4596              	.LBB905:
 4597              	.LBB629:
 4598              	.LBB621:
 4599              	.LBB609:
 4600              	.LBB602:
 4601              	.LBB546:
 4602              	.LBB541:
 4603              	.LBB532:
 4604              	.LBB528:
 4605              	.LBI528:
  40:src/dsp.h     ****     return ph<0.5f?(4.0f*ph-1.0f):(3.0f-4.0f*ph);
 4606              		.loc 2 40 21 view .LVU1374
 4607              	.LBB529:
  41:src/dsp.h     **** }
 4608              		.loc 2 41 5 view .LVU1375
  41:src/dsp.h     **** }
 4609              		.loc 2 41 19 is_stmt 0 view .LVU1376
 4610 140a F6EE005A 		vmov.f32	s11, #5.0e-1
 4611 140e F1EE004A 		vmov.f32	s9, #4.0e+0
 4612 1412 B4EEE54A 		vcmpe.f32	s8, s11
 4613 1416 F1EE10FA 		vmrs	APSR_nzcv, FPSCR
 4614 141a 40F1CB81 		bpl	.L317
 4615 141e FFEE005A 		vmov.f32	s11, #-1.0e+0
 4616 1422 E4EE245A 		vfma.f32	s11, s8, s9
 4617 1426 59E0     		b	.L152
 4618              	.LVL309:
 4619              	.L136:
  41:src/dsp.h     **** }
 4620              		.loc 2 41 19 view .LVU1377
 4621              	.LBE529:
 4622              	.LBE528:
 4623              	.LBE532:
 4624              	.LBE541:
 4625              	.LBE546:
 4626              	.LBB547:
 4627              	.LBB519:
  61:src/dsp.h     ****         case WAVE_TRI:
 4628              		.loc 2 61 9 is_stmt 1 view .LVU1378
ARM GAS  /tmp/claude-502/ccU8FNgW.s 			page 110


  61:src/dsp.h     ****         case WAVE_TRI:
 4629              		.loc 2 61 27 view .LVU1379
 4630              	.LBB511:
 4631              	.LBI511:
  53:src/dsp.h     **** 
 4632              		.loc 2 53 21 view .LVU1380
 4633              	.LBB512:
  53:src/dsp.h     **** 
 4634              		.loc 2 53 40 view .LVU1381
  53:src/dsp.h     **** 
 4635              		.loc 2 53 57 is_stmt 0 view .LVU1382
 4636 1428 F0EE004A 		vmov.f32	s9, #2.0e+0
 4637 142c FFEE005A 		vmov.f32	s11, #-1.0e+0
 4638 1430 E3EEA45A 		vfma.f32	s11, s7, s9
 4639              	.LVL310:
  53:src/dsp.h     **** 
 4640              		.loc 2 53 57 view .LVU1383
 4641              	.LBE512:
 4642              	.LBE511:
  61:src/dsp.h     ****         case WAVE_TRI:
 4643              		.loc 2 61 44 view .LVU1384
 4644 1434 D6E7     		b	.L142
 4645              	.L135:
  60:src/dsp.h     ****         case WAVE_SAW:    return osc_saw(ph);
 4646              		.loc 2 60 9 is_stmt 1 view .LVU1385
  60:src/dsp.h     ****         case WAVE_SAW:    return osc_saw(ph);
 4647              		.loc 2 60 27 view .LVU1386
 4648              	.LVL311:
 4649              	.LBB513:
 4650              	.LBI513:
  52:src/dsp.h     **** static inline float osc_saw(float ph){ return 2.0f*ph - 1.0f; }
 4651              		.loc 2 52 21 view .LVU1387
 4652              	.LBB514:
  52:src/dsp.h     **** static inline float osc_saw(float ph){ return 2.0f*ph - 1.0f; }
 4653              		.loc 2 52 43 view .LVU1388
  52:src/dsp.h     **** static inline float osc_saw(float ph){ return 2.0f*ph - 1.0f; }
 4654              		.loc 2 52 58 is_stmt 0 view .LVU1389
 4655 1436 F6EE005A 		vmov.f32	s11, #5.0e-1
 4656 143a FFEE004A 		vmov.f32	s9, #-1.0e+0
 4657 143e F4EEE53A 		vcmpe.f32	s7, s11
 4658 1442 F7EE005A 		vmov.f32	s11, #1.0e+0
 4659 1446 F1EE10FA 		vmrs	APSR_nzcv, FPSCR
 4660 144a 58BF     		it	pl
 4661 144c F0EE645A 		vmovpl.f32	s11, s9
 4662 1450 C8E7     		b	.L142
 4663              	.L364:
 4664 1452 00BF     		.align	2
 4665              	.L363:
 4666 1454 00000000 		.word	.LANCHOR41
 4667 1458 00000000 		.word	.LANCHOR38
 4668 145c 17B7D139 		.word	970045207
 4669 1460 DB0F4940 		.word	1078530011
 4670 1464 DB0F49C0 		.word	-1068953637
 4671 1468 83F9A23F 		.word	1067645315
 4672 146c 7B81CF3E 		.word	1053786491
 4673 1470 6666663E 		.word	1046898278
 4674 1474 00000030 		.word	805306368
ARM GAS  /tmp/claude-502/ccU8FNgW.s 			page 111


 4675 1478 CDCC4C3F 		.word	1061997773
 4676 147c 6666A63F 		.word	1067869798
 4677 1480 00000000 		.word	0
 4678              	.LVL312:
 4679              	.L351:
  52:src/dsp.h     **** static inline float osc_saw(float ph){ return 2.0f*ph - 1.0f; }
 4680              		.loc 2 52 58 view .LVU1390
 4681              	.LBE514:
 4682              	.LBE513:
 4683              	.LBE519:
 4684              	.LBE547:
 4685              	.LBB548:
 4686              	.LBB542:
  59:src/dsp.h     ****         case WAVE_SQUARE: return osc_square(ph);
 4687              		.loc 2 59 9 is_stmt 1 view .LVU1391
  59:src/dsp.h     ****         case WAVE_SQUARE: return osc_square(ph);
 4688              		.loc 2 59 27 view .LVU1392
 4689              	.LBB533:
 4690              	.LBI533:
  44:src/dsp.h     ****     constexpr float PI = 3.14159265f;
 4691              		.loc 2 44 21 view .LVU1393
 4692              	.LBB534:
  45:src/dsp.h     ****     float x = ph*2.0f*PI - PI;                 // -π..π (angle shifted by π)
 4693              		.loc 2 45 5 view .LVU1394
  46:src/dsp.h     ****     float y = 1.27323954f*x - 0.405284735f*x*(x<0?-x:x);
 4694              		.loc 2 46 5 view .LVU1395
  46:src/dsp.h     ****     float y = 1.27323954f*x - 0.405284735f*x*(x<0?-x:x);
 4695              		.loc 2 46 17 is_stmt 0 view .LVU1396
 4696 1484 74EE042A 		vadd.f32	s5, s8, s8
  46:src/dsp.h     ****     float y = 1.27323954f*x - 0.405284735f*x*(x<0?-x:x);
 4697              		.loc 2 46 11 view .LVU1397
 4698 1488 5FED0B5A 		vldr.32	s11, .L363+12
 4699 148c 5FED0B4A 		vldr.32	s9, .L363+16
 4700 1490 E2EEA54A 		vfma.f32	s9, s5, s11
 4701              	.LVL313:
  47:src/dsp.h     ****     y = 0.225f*(y*(y<0?-y:y) - y) + y;         // one refinement pass
 4702              		.loc 2 47 5 is_stmt 1 view .LVU1398
  47:src/dsp.h     ****     y = 0.225f*(y*(y<0?-y:y) - y) + y;         // one refinement pass
 4703              		.loc 2 47 26 is_stmt 0 view .LVU1399
 4704 1494 5FED0C5A 		vldr.32	s11, .L363+20
  47:src/dsp.h     ****     y = 0.225f*(y*(y<0?-y:y) - y) + y;         // one refinement pass
 4705              		.loc 2 47 43 view .LVU1400
 4706 1498 5FED0C2A 		vldr.32	s5, .L363+24
  47:src/dsp.h     ****     y = 0.225f*(y*(y<0?-y:y) - y) + y;         // one refinement pass
 4707              		.loc 2 47 50 view .LVU1401
 4708 149c F5EEC04A 		vcmpe.f32	s9, #0
  47:src/dsp.h     ****     y = 0.225f*(y*(y<0?-y:y) - y) + y;         // one refinement pass
 4709              		.loc 2 47 43 view .LVU1402
 4710 14a0 64EEA22A 		vmul.f32	s5, s9, s5
  47:src/dsp.h     ****     y = 0.225f*(y*(y<0?-y:y) - y) + y;         // one refinement pass
 4711              		.loc 2 47 26 view .LVU1403
 4712 14a4 64EEA55A 		vmul.f32	s11, s9, s11
  47:src/dsp.h     ****     y = 0.225f*(y*(y<0?-y:y) - y) + y;         // one refinement pass
 4713              		.loc 2 47 50 view .LVU1404
 4714 14a8 F1EE10FA 		vmrs	APSR_nzcv, FPSCR
 4715 14ac 48BF     		it	mi
 4716 14ae F1EE644A 		vnegmi.f32	s9, s9
ARM GAS  /tmp/claude-502/ccU8FNgW.s 			page 112


 4717              	.LVL314:
  47:src/dsp.h     ****     y = 0.225f*(y*(y<0?-y:y) - y) + y;         // one refinement pass
 4718              		.loc 2 47 11 view .LVU1405
 4719 14b2 E2EEE45A 		vfms.f32	s11, s5, s9
 4720              	.LVL315:
  48:src/dsp.h     ****     return -y;                                 // undo the π shift: sin(x+π) = -sin(x)
 4721              		.loc 2 48 5 is_stmt 1 view .LVU1406
  48:src/dsp.h     ****     return -y;                                 // undo the π shift: sin(x+π) = -sin(x)
 4722              		.loc 2 48 23 is_stmt 0 view .LVU1407
 4723 14b6 F5EEC05A 		vcmpe.f32	s11, #0
 4724 14ba F1EE654A 		vneg.f32	s9, s11
 4725 14be F1EE10FA 		vmrs	APSR_nzcv, FPSCR
 4726 14c2 54BF     		ite	pl
 4727 14c4 F0EE652A 		vmovpl.f32	s5, s11
 4728 14c8 F0EE642A 		vmovmi.f32	s5, s9
  48:src/dsp.h     ****     return -y;                                 // undo the π shift: sin(x+π) = -sin(x)
 4729              		.loc 2 48 30 view .LVU1408
 4730 14cc E5EEA24A 		vfma.f32	s9, s11, s5
  48:src/dsp.h     ****     return -y;                                 // undo the π shift: sin(x+π) = -sin(x)
 4731              		.loc 2 48 7 view .LVU1409
 4732 14d0 5FED192A 		vldr.32	s5, .L363+28
 4733 14d4 E4EEA25A 		vfma.f32	s11, s9, s5
 4734              	.LVL316:
  49:src/dsp.h     **** }
 4735              		.loc 2 49 5 is_stmt 1 view .LVU1410
  49:src/dsp.h     **** }
 4736              		.loc 2 49 13 is_stmt 0 view .LVU1411
 4737 14d8 F1EE655A 		vneg.f32	s11, s11
 4738              	.LVL317:
 4739              	.L152:
  49:src/dsp.h     **** }
 4740              		.loc 2 49 13 view .LVU1412
 4741              	.LBE534:
 4742              	.LBE533:
 4743              	.LBE542:
 4744              	.LBE548:
 104:src/engine.cpp ****               + osc(h.pho,V.oct_wave )*V.oct_level;
 4745              		.loc 1 104 42 view .LVU1413
 4746 14dc 9C20     		movs	r0, #156
 105:src/engine.cpp ****     if(V.noise_level > 0.0f){
 4747              		.loc 1 105 20 view .LVU1414
 4748 14de D3ED094A 		vldr.32	s9, [r3, #36]
 104:src/engine.cpp ****               + osc(h.pho,V.oct_wave )*V.oct_level;
 4749              		.loc 1 104 42 view .LVU1415
 4750 14e2 00FB0250 		mla	r0, r0, r2, r5
 104:src/engine.cpp ****               + osc(h.pho,V.oct_wave )*V.oct_level;
 4751              		.loc 1 104 15 view .LVU1416
 4752 14e6 D0ED0B2A 		vldr.32	s5, [r0, #44]
 105:src/engine.cpp ****     if(V.noise_level > 0.0f){
 4753              		.loc 1 105 29 view .LVU1417
 4754 14ea 90F83C00 		ldrb	r0, [r0, #60]	@ zero_extendqisi2
 4755              	.LVL318:
 4756              	.LBB549:
 4757              	.LBI549:
  57:src/dsp.h     ****     switch(w){
 4758              		.loc 2 57 21 is_stmt 1 view .LVU1418
 4759              	.LBB550:
ARM GAS  /tmp/claude-502/ccU8FNgW.s 			page 113


  58:src/dsp.h     ****         case WAVE_SINE:   return osc_sine(ph);
 4760              		.loc 2 58 5 view .LVU1419
 4761              	.LBE550:
 4762              	.LBE549:
 104:src/engine.cpp ****               + osc(h.pho,V.oct_wave )*V.oct_level;
 4763              		.loc 1 104 15 is_stmt 0 view .LVU1420
 4764 14ee A2EEA57A 		vfma.f32	s14, s5, s11
 4765              	.LBB569:
 4766              	.LBB564:
  58:src/dsp.h     ****         case WAVE_SINE:   return osc_sine(ph);
 4767              		.loc 2 58 5 view .LVU1421
 4768 14f2 0228     		cmp	r0, #2
 4769 14f4 00F04181 		beq	.L155
 4770 14f8 0328     		cmp	r0, #3
 4771 14fa 00F03781 		beq	.L156
 4772 14fe 0128     		cmp	r0, #1
 4773 1500 23D0     		beq	.L352
 4774              	.LVL319:
 4775              	.LBB551:
 4776              	.LBI551:
  57:src/dsp.h     ****     switch(w){
 4777              		.loc 2 57 21 is_stmt 1 view .LVU1422
  57:src/dsp.h     ****     switch(w){
 4778              		.loc 2 57 21 is_stmt 0 view .LVU1423
 4779              	.LBE551:
 4780              	.LBE564:
 4781              	.LBE569:
 4782              	.LBE602:
 4783              	.LBE609:
 4784              	.LBE621:
 4785              	.LBE629:
 4786              	.LBE905:
 4787              	.LBE918:
 4788              	.LBE929:
  62:src/dsp.h     ****         default:          return tri(ph);
 4789              		.loc 2 62 9 is_stmt 1 view .LVU1424
  63:src/dsp.h     ****     }
 4790              		.loc 2 63 9 view .LVU1425
  63:src/dsp.h     ****     }
 4791              		.loc 2 63 27 view .LVU1426
 4792              	.LBB930:
 4793              	.LBB919:
 4794              	.LBB906:
 4795              	.LBB630:
 4796              	.LBB622:
 4797              	.LBB610:
 4798              	.LBB603:
 4799              	.LBB570:
 4800              	.LBB565:
 4801              	.LBB556:
 4802              	.LBB552:
 4803              	.LBI552:
  40:src/dsp.h     ****     return ph<0.5f?(4.0f*ph-1.0f):(3.0f-4.0f*ph);
 4804              		.loc 2 40 21 view .LVU1427
 4805              	.LBB553:
  41:src/dsp.h     **** }
 4806              		.loc 2 41 5 view .LVU1428
ARM GAS  /tmp/claude-502/ccU8FNgW.s 			page 114


  41:src/dsp.h     **** }
 4807              		.loc 2 41 19 is_stmt 0 view .LVU1429
 4808 1502 F6EE005A 		vmov.f32	s11, #5.0e-1
 4809 1506 F1EE002A 		vmov.f32	s5, #4.0e+0
 4810 150a F4EEE54A 		vcmpe.f32	s9, s11
 4811 150e F1EE10FA 		vmrs	APSR_nzcv, FPSCR
 4812 1512 40F14A81 		bpl	.L319
 4813 1516 FFEE005A 		vmov.f32	s11, #-1.0e+0
 4814 151a E4EEA25A 		vfma.f32	s11, s9, s5
 4815 151e 40E0     		b	.L162
 4816              	.LVL320:
 4817              	.L146:
  41:src/dsp.h     **** }
 4818              		.loc 2 41 19 view .LVU1430
 4819              	.LBE553:
 4820              	.LBE552:
 4821              	.LBE556:
 4822              	.LBE565:
 4823              	.LBE570:
 4824              	.LBB571:
 4825              	.LBB543:
  61:src/dsp.h     ****         case WAVE_TRI:
 4826              		.loc 2 61 9 is_stmt 1 view .LVU1431
  61:src/dsp.h     ****         case WAVE_TRI:
 4827              		.loc 2 61 27 view .LVU1432
 4828              	.LBB535:
 4829              	.LBI535:
  53:src/dsp.h     **** 
 4830              		.loc 2 53 21 view .LVU1433
 4831              	.LBB536:
  53:src/dsp.h     **** 
 4832              		.loc 2 53 40 view .LVU1434
  53:src/dsp.h     **** 
 4833              		.loc 2 53 57 is_stmt 0 view .LVU1435
 4834 1520 F0EE004A 		vmov.f32	s9, #2.0e+0
 4835 1524 FFEE005A 		vmov.f32	s11, #-1.0e+0
 4836 1528 E4EE245A 		vfma.f32	s11, s8, s9
 4837              	.LVL321:
  53:src/dsp.h     **** 
 4838              		.loc 2 53 57 view .LVU1436
 4839              	.LBE536:
 4840              	.LBE535:
  61:src/dsp.h     ****         case WAVE_TRI:
 4841              		.loc 2 61 44 view .LVU1437
 4842 152c D6E7     		b	.L152
 4843              	.L145:
  60:src/dsp.h     ****         case WAVE_SAW:    return osc_saw(ph);
 4844              		.loc 2 60 9 is_stmt 1 view .LVU1438
  60:src/dsp.h     ****         case WAVE_SAW:    return osc_saw(ph);
 4845              		.loc 2 60 27 view .LVU1439
 4846              	.LVL322:
 4847              	.LBB537:
 4848              	.LBI537:
  52:src/dsp.h     **** static inline float osc_saw(float ph){ return 2.0f*ph - 1.0f; }
 4849              		.loc 2 52 21 view .LVU1440
 4850              	.LBB538:
  52:src/dsp.h     **** static inline float osc_saw(float ph){ return 2.0f*ph - 1.0f; }
ARM GAS  /tmp/claude-502/ccU8FNgW.s 			page 115


 4851              		.loc 2 52 43 view .LVU1441
  52:src/dsp.h     **** static inline float osc_saw(float ph){ return 2.0f*ph - 1.0f; }
 4852              		.loc 2 52 58 is_stmt 0 view .LVU1442
 4853 152e F6EE005A 		vmov.f32	s11, #5.0e-1
 4854 1532 FFEE004A 		vmov.f32	s9, #-1.0e+0
 4855 1536 B4EEE54A 		vcmpe.f32	s8, s11
 4856 153a F7EE005A 		vmov.f32	s11, #1.0e+0
 4857 153e F1EE10FA 		vmrs	APSR_nzcv, FPSCR
 4858 1542 58BF     		it	pl
 4859 1544 F0EE645A 		vmovpl.f32	s11, s9
 4860 1548 C8E7     		b	.L152
 4861              	.LVL323:
 4862              	.L352:
  52:src/dsp.h     **** static inline float osc_saw(float ph){ return 2.0f*ph - 1.0f; }
 4863              		.loc 2 52 58 view .LVU1443
 4864              	.LBE538:
 4865              	.LBE537:
 4866              	.LBE543:
 4867              	.LBE571:
 4868              	.LBB572:
 4869              	.LBB566:
  59:src/dsp.h     ****         case WAVE_SQUARE: return osc_square(ph);
 4870              		.loc 2 59 9 is_stmt 1 view .LVU1444
  59:src/dsp.h     ****         case WAVE_SQUARE: return osc_square(ph);
 4871              		.loc 2 59 27 view .LVU1445
 4872              	.LBB557:
 4873              	.LBI557:
  44:src/dsp.h     ****     constexpr float PI = 3.14159265f;
 4874              		.loc 2 44 21 view .LVU1446
 4875              	.LBB558:
  45:src/dsp.h     ****     float x = ph*2.0f*PI - PI;                 // -π..π (angle shifted by π)
 4876              		.loc 2 45 5 view .LVU1447
  46:src/dsp.h     ****     float y = 1.27323954f*x - 0.405284735f*x*(x<0?-x:x);
 4877              		.loc 2 46 5 view .LVU1448
  46:src/dsp.h     ****     float y = 1.27323954f*x - 0.405284735f*x*(x<0?-x:x);
 4878              		.loc 2 46 17 is_stmt 0 view .LVU1449
 4879 154a 74EEA41A 		vadd.f32	s3, s9, s9
  46:src/dsp.h     ****     float y = 1.27323954f*x - 0.405284735f*x*(x<0?-x:x);
 4880              		.loc 2 46 11 view .LVU1450
 4881 154e 5FED3C5A 		vldr.32	s11, .L363+12
 4882 1552 5FED3C2A 		vldr.32	s5, .L363+16
 4883 1556 E1EEA52A 		vfma.f32	s5, s3, s11
 4884              	.LVL324:
  47:src/dsp.h     ****     y = 0.225f*(y*(y<0?-y:y) - y) + y;         // one refinement pass
 4885              		.loc 2 47 5 is_stmt 1 view .LVU1451
  47:src/dsp.h     ****     y = 0.225f*(y*(y<0?-y:y) - y) + y;         // one refinement pass
 4886              		.loc 2 47 26 is_stmt 0 view .LVU1452
 4887 155a 5FED3D5A 		vldr.32	s11, .L363+20
  47:src/dsp.h     ****     y = 0.225f*(y*(y<0?-y:y) - y) + y;         // one refinement pass
 4888              		.loc 2 47 43 view .LVU1453
 4889 155e 5FED3D1A 		vldr.32	s3, .L363+24
  47:src/dsp.h     ****     y = 0.225f*(y*(y<0?-y:y) - y) + y;         // one refinement pass
 4890              		.loc 2 47 50 view .LVU1454
 4891 1562 F5EEC02A 		vcmpe.f32	s5, #0
  47:src/dsp.h     ****     y = 0.225f*(y*(y<0?-y:y) - y) + y;         // one refinement pass
 4892              		.loc 2 47 43 view .LVU1455
 4893 1566 62EEA11A 		vmul.f32	s3, s5, s3
ARM GAS  /tmp/claude-502/ccU8FNgW.s 			page 116


  47:src/dsp.h     ****     y = 0.225f*(y*(y<0?-y:y) - y) + y;         // one refinement pass
 4894              		.loc 2 47 26 view .LVU1456
 4895 156a 62EEA55A 		vmul.f32	s11, s5, s11
  47:src/dsp.h     ****     y = 0.225f*(y*(y<0?-y:y) - y) + y;         // one refinement pass
 4896              		.loc 2 47 50 view .LVU1457
 4897 156e F1EE10FA 		vmrs	APSR_nzcv, FPSCR
 4898 1572 48BF     		it	mi
 4899 1574 F1EE622A 		vnegmi.f32	s5, s5
 4900              	.LVL325:
  47:src/dsp.h     ****     y = 0.225f*(y*(y<0?-y:y) - y) + y;         // one refinement pass
 4901              		.loc 2 47 11 view .LVU1458
 4902 1578 E1EEE25A 		vfms.f32	s11, s3, s5
 4903              	.LVL326:
  48:src/dsp.h     ****     return -y;                                 // undo the π shift: sin(x+π) = -sin(x)
 4904              		.loc 2 48 5 is_stmt 1 view .LVU1459
  48:src/dsp.h     ****     return -y;                                 // undo the π shift: sin(x+π) = -sin(x)
 4905              		.loc 2 48 23 is_stmt 0 view .LVU1460
 4906 157c F5EEC05A 		vcmpe.f32	s11, #0
 4907 1580 F1EE652A 		vneg.f32	s5, s11
 4908 1584 F1EE10FA 		vmrs	APSR_nzcv, FPSCR
 4909 1588 54BF     		ite	pl
 4910 158a F0EE651A 		vmovpl.f32	s3, s11
 4911 158e F0EE621A 		vmovmi.f32	s3, s5
  48:src/dsp.h     ****     return -y;                                 // undo the π shift: sin(x+π) = -sin(x)
 4912              		.loc 2 48 30 view .LVU1461
 4913 1592 E5EEA12A 		vfma.f32	s5, s11, s3
  48:src/dsp.h     ****     return -y;                                 // undo the π shift: sin(x+π) = -sin(x)
 4914              		.loc 2 48 7 view .LVU1462
 4915 1596 5FED4A1A 		vldr.32	s3, .L363+28
 4916 159a E2EEA15A 		vfma.f32	s11, s5, s3
 4917              	.LVL327:
  49:src/dsp.h     **** }
 4918              		.loc 2 49 5 is_stmt 1 view .LVU1463
  49:src/dsp.h     **** }
 4919              		.loc 2 49 13 is_stmt 0 view .LVU1464
 4920 159e F1EE655A 		vneg.f32	s11, s11
 4921              	.LVL328:
 4922              	.L162:
  49:src/dsp.h     **** }
 4923              		.loc 2 49 13 view .LVU1465
 4924              	.LBE558:
 4925              	.LBE557:
 4926              	.LBE566:
 4927              	.LBE572:
 105:src/engine.cpp ****     if(V.noise_level > 0.0f){
 4928              		.loc 1 105 42 view .LVU1466
 4929 15a2 9C20     		movs	r0, #156
 4930 15a4 00FB0250 		mla	r0, r0, r2, r5
 4931              	.LBB573:
 106:src/engine.cpp ****         s_noise_rng ^= s_noise_rng<<13; s_noise_rng ^= s_noise_rng>>17; s_noise_rng ^= s_noise_rng<
 4932              		.loc 1 106 10 view .LVU1467
 4933 15a8 90ED141A 		vldr.32	s2, [r0, #80]
 4934              	.LBE573:
 105:src/engine.cpp ****     if(V.noise_level > 0.0f){
 4935              		.loc 1 105 42 view .LVU1468
 4936 15ac D0ED0E2A 		vldr.32	s5, [r0, #56]
 4937              	.LBB576:
ARM GAS  /tmp/claude-502/ccU8FNgW.s 			page 117


 106:src/engine.cpp ****         s_noise_rng ^= s_noise_rng<<13; s_noise_rng ^= s_noise_rng>>17; s_noise_rng ^= s_noise_rng<
 4938              		.loc 1 106 5 view .LVU1469
 4939 15b0 B5EEC01A 		vcmpe.f32	s2, #0
 4940              	.LBE576:
 105:src/engine.cpp ****     if(V.noise_level > 0.0f){
 4941              		.loc 1 105 42 view .LVU1470
 4942 15b4 A2EEA57A 		vfma.f32	s14, s5, s11
 4943              	.LVL329:
 106:src/engine.cpp ****         s_noise_rng ^= s_noise_rng<<13; s_noise_rng ^= s_noise_rng>>17; s_noise_rng ^= s_noise_rng<
 4944              		.loc 1 106 5 is_stmt 1 view .LVU1471
 4945              	.LBB577:
 4946 15b8 F1EE10FA 		vmrs	APSR_nzcv, FPSCR
 4947 15bc 27DD     		ble	.L165
 4948              	.LBB574:
 107:src/engine.cpp ****         float white  = (float)(int32_t)s_noise_rng * (1.0f/2147483648.0f);
 4949              		.loc 1 107 9 view .LVU1472
 107:src/engine.cpp ****         float white  = (float)(int32_t)s_noise_rng * (1.0f/2147483648.0f);
 4950              		.loc 1 107 21 is_stmt 0 view .LVU1473
 4951 15be 81EA4131 		eor	r1, r1, r1, lsl #13
 107:src/engine.cpp ****         float white  = (float)(int32_t)s_noise_rng * (1.0f/2147483648.0f);
 4952              		.loc 1 107 41 is_stmt 1 view .LVU1474
 109:src/engine.cpp ****         float bright = white - h.noise_lp;
 4953              		.loc 1 109 21 is_stmt 0 view .LVU1475
 4954 15c2 D3ED0C5A 		vldr.32	s11, [r3, #48]
 109:src/engine.cpp ****         float bright = white - h.noise_lp;
 4955              		.loc 1 109 47 view .LVU1476
 4956 15c6 5FED552A 		vldr.32	s5, .L363+32
 107:src/engine.cpp ****         float white  = (float)(int32_t)s_noise_rng * (1.0f/2147483648.0f);
 4957              		.loc 1 107 53 view .LVU1477
 4958 15ca 81EA5141 		eor	r1, r1, r1, lsr #17
 107:src/engine.cpp ****         float white  = (float)(int32_t)s_noise_rng * (1.0f/2147483648.0f);
 4959              		.loc 1 107 73 is_stmt 1 view .LVU1478
 109:src/engine.cpp ****         float bright = white - h.noise_lp;
 4960              		.loc 1 109 47 is_stmt 0 view .LVU1479
 4961 15ce B0EE65BA 		vmov.f32	s22, s11
 109:src/engine.cpp ****         float bright = white - h.noise_lp;
 4962              		.loc 1 109 21 view .LVU1480
 4963 15d2 5FED57AA 		vldr.32	s21, .L363+36
 107:src/engine.cpp ****         float white  = (float)(int32_t)s_noise_rng * (1.0f/2147483648.0f);
 4964              		.loc 1 107 85 view .LVU1481
 4965 15d6 81EA4111 		eor	r1, r1, r1, lsl #5
 108:src/engine.cpp ****         h.noise_lp  += NOISE_HP_COEF * (white - h.noise_lp);
 4966              		.loc 1 108 9 is_stmt 1 view .LVU1482
 111:src/engine.cpp ****     }
 4967              		.loc 1 111 46 is_stmt 0 view .LVU1483
 4968 15da D0ED1E0A 		vldr.32	s1, [r0, #120]
 4969              	.LBE574:
 4970 15de CDF80CC0 		str	ip, [sp, #12]
 4971              	.LBB575:
 108:src/engine.cpp ****         h.noise_lp  += NOISE_HP_COEF * (white - h.noise_lp);
 4972              		.loc 1 108 24 view .LVU1484
 4973 15e2 01EE901A 		vmov	s3, r1	@ int
 4974 15e6 F8EEE11A 		vcvt.f32.s32	s3, s3
 4975              	.LVL330:
 109:src/engine.cpp ****         float bright = white - h.noise_lp;
 4976              		.loc 1 109 9 is_stmt 1 view .LVU1485
 109:src/engine.cpp ****         float bright = white - h.noise_lp;
ARM GAS  /tmp/claude-502/ccU8FNgW.s 			page 118


 4977              		.loc 1 109 47 is_stmt 0 view .LVU1486
 4978 15ea 91EEA2BA 		vfnms.f32	s22, s3, s5
 109:src/engine.cpp ****         float bright = white - h.noise_lp;
 4979              		.loc 1 109 21 view .LVU1487
 4980 15ee EBEE2A5A 		vfma.f32	s11, s22, s21
 4981 15f2 C3ED0C5A 		vstr.32	s11, [r3, #48]
 110:src/engine.cpp ****         mix += (white + (bright*2.0f - white)*V.noise_hp) * V.noise_level;
 4982              		.loc 1 110 9 is_stmt 1 view .LVU1488
 110:src/engine.cpp ****         mix += (white + (bright*2.0f - white)*V.noise_hp) * V.noise_level;
 4983              		.loc 1 110 15 is_stmt 0 view .LVU1489
 4984 15f6 D1EEA25A 		vfnms.f32	s11, s3, s5
 4985              	.LVL331:
 111:src/engine.cpp ****     }
 4986              		.loc 1 111 9 is_stmt 1 view .LVU1490
 111:src/engine.cpp ****     }
 4987              		.loc 1 111 32 is_stmt 0 view .LVU1491
 4988 15fa 75EEA55A 		vadd.f32	s11, s11, s11
 4989              	.LVL332:
 111:src/engine.cpp ****     }
 4990              		.loc 1 111 38 view .LVU1492
 4991 15fe E1EEE25A 		vfms.f32	s11, s3, s5
 111:src/engine.cpp ****     }
 4992              		.loc 1 111 46 view .LVU1493
 4993 1602 65EEA00A 		vmul.f32	s1, s11, s1
 111:src/engine.cpp ****     }
 4994              		.loc 1 111 23 view .LVU1494
 4995 1606 E1EEA20A 		vfma.f32	s1, s3, s5
 111:src/engine.cpp ****     }
 4996              		.loc 1 111 13 view .LVU1495
 4997 160a A1EE207A 		vfma.f32	s14, s2, s1
 4998              	.LVL333:
 4999              	.L165:
 111:src/engine.cpp ****     }
 5000              		.loc 1 111 13 view .LVU1496
 5001              	.LBE575:
 5002              	.LBE577:
 113:src/engine.cpp ****     // Per-drum 1-pole lowpass (cheap — one multiply-add — instead of the 4-pole
 5003              		.loc 1 113 5 is_stmt 1 view .LVU1497
 113:src/engine.cpp ****     // Per-drum 1-pole lowpass (cheap — one multiply-add — instead of the 4-pole
 5004              		.loc 1 113 20 is_stmt 0 view .LVU1498
 5005 160e D3ED055A 		vldr.32	s11, [r3, #20]
 5006 1612 27EE257A 		vmul.f32	s14, s14, s11
 5007              	.LVL334:
 5008              	.LBB578:
 5009              	.LBI578:
  23:src/dsp.h     **** {
 5010              		.loc 2 23 21 is_stmt 1 view .LVU1499
 5011              	.LBB579:
  25:src/dsp.h     ****     if(x<-3.0f)return -1.0f;
 5012              		.loc 2 25 5 view .LVU1500
 5013 1616 F0EE085A 		vmov.f32	s11, #3.0e+0
 5014 161a B4EEE57A 		vcmpe.f32	s14, s11
 5015 161e F1EE10FA 		vmrs	APSR_nzcv, FPSCR
 5016 1622 00F3A080 		bgt	.L252
  26:src/dsp.h     ****     float x2=x*x;
 5017              		.loc 2 26 5 view .LVU1501
 5018 1626 F8EE085A 		vmov.f32	s11, #-3.0e+0
ARM GAS  /tmp/claude-502/ccU8FNgW.s 			page 119


 5019 162a B4EEE57A 		vcmpe.f32	s14, s11
 5020 162e F1EE10FA 		vmrs	APSR_nzcv, FPSCR
 5021 1632 00F1B380 		bmi	.L253
 5022              	.LVL335:
 5023              	.LBB580:
 5024              	.LBI580:
  23:src/dsp.h     **** {
 5025              		.loc 2 23 21 view .LVU1502
 5026              	.LBB581:
  27:src/dsp.h     ****     return x*(27.0f+x2)/(27.0f+9.0f*x2);
 5027              		.loc 2 27 5 view .LVU1503
  28:src/dsp.h     **** }
 5028              		.loc 2 28 20 is_stmt 0 view .LVU1504
 5029 1636 F3EE0B2A 		vmov.f32	s5, #2.7e+1
  27:src/dsp.h     ****     return x*(27.0f+x2)/(27.0f+9.0f*x2);
 5030              		.loc 2 27 11 view .LVU1505
 5031 163a 67EE075A 		vmul.f32	s11, s14, s14
 5032              	.LVL336:
  28:src/dsp.h     **** }
 5033              		.loc 2 28 5 is_stmt 1 view .LVU1506
  28:src/dsp.h     **** }
 5034              		.loc 2 28 31 is_stmt 0 view .LVU1507
 5035 163e B2EE021A 		vmov.f32	s2, #9.0e+0
 5036 1642 F0EE621A 		vmov.f32	s3, s5
 5037 1646 E5EE811A 		vfma.f32	s3, s11, s2
  28:src/dsp.h     **** }
 5038              		.loc 2 28 20 view .LVU1508
 5039 164a 75EEA25A 		vadd.f32	s11, s11, s5
 5040              	.LVL337:
  28:src/dsp.h     **** }
 5041              		.loc 2 28 13 view .LVU1509
 5042 164e 25EE877A 		vmul.f32	s14, s11, s14
 5043              	.LVL338:
  28:src/dsp.h     **** }
 5044              		.loc 2 28 39 view .LVU1510
 5045 1652 C7EE212A 		vdiv.f32	s5, s14, s3
 5046              	.L167:
 5047              	.LVL339:
  28:src/dsp.h     **** }
 5048              		.loc 2 28 39 view .LVU1511
 5049              	.LBE581:
 5050              	.LBE580:
 5051              	.LBE579:
 5052              	.LBE578:
 116:src/engine.cpp ****     h.ph1 += f*V.osc1_ratio/sr; if(h.ph1>=1.0f)h.ph1-=1.0f;
 5053              		.loc 1 116 5 is_stmt 1 view .LVU1512
 117:src/engine.cpp ****     h.ph2 += f*V.osc2_ratio/sr; if(h.ph2>=1.0f)h.ph2-=1.0f;
 5054              		.loc 1 117 18 is_stmt 0 view .LVU1513
 5055 1656 9C20     		movs	r0, #156
 5056 1658 00FB0250 		mla	r0, r0, r2, r5
 117:src/engine.cpp ****     h.ph2 += f*V.osc2_ratio/sr; if(h.ph2>=1.0f)h.ph2-=1.0f;
 5057              		.loc 1 117 15 view .LVU1514
 5058 165c D0ED045A 		vldr.32	s11, [r0, #16]
 118:src/engine.cpp ****     h.phs += f*V.sub_ratio /sr; if(h.phs>=1.0f)h.phs-=1.0f;
 5059              		.loc 1 118 18 view .LVU1515
 5060 1660 9C20     		movs	r0, #156
 117:src/engine.cpp ****     h.ph2 += f*V.osc2_ratio/sr; if(h.ph2>=1.0f)h.ph2-=1.0f;
ARM GAS  /tmp/claude-502/ccU8FNgW.s 			page 120


 5061              		.loc 1 117 15 view .LVU1516
 5062 1662 66EE255A 		vmul.f32	s11, s12, s11
 118:src/engine.cpp ****     h.phs += f*V.sub_ratio /sr; if(h.phs>=1.0f)h.phs-=1.0f;
 5063              		.loc 1 118 18 view .LVU1517
 5064 1666 00FB0250 		mla	r0, r0, r2, r5
 117:src/engine.cpp ****     h.ph2 += f*V.osc2_ratio/sr; if(h.ph2>=1.0f)h.ph2-=1.0f;
 5065              		.loc 1 117 28 view .LVU1518
 5066 166a 85EE887A 		vdiv.f32	s14, s11, s16
 117:src/engine.cpp ****     h.ph2 += f*V.osc2_ratio/sr; if(h.ph2>=1.0f)h.ph2-=1.0f;
 5067              		.loc 1 117 11 view .LVU1519
 5068 166e 37EE033A 		vadd.f32	s6, s14, s6
 116:src/engine.cpp ****     h.ph1 += f*V.osc1_ratio/sr; if(h.ph1>=1.0f)h.ph1-=1.0f;
 5069              		.loc 1 116 16 view .LVU1520
 5070 1672 93ED0D7A 		vldr.32	s14, [r3, #52]
 116:src/engine.cpp ****     h.ph1 += f*V.osc1_ratio/sr; if(h.ph1>=1.0f)h.ph1-=1.0f;
 5071              		.loc 1 116 37 view .LVU1521
 5072 1676 72EEC75A 		vsub.f32	s11, s5, s14
 116:src/engine.cpp ****     h.ph1 += f*V.osc1_ratio/sr; if(h.ph1>=1.0f)h.ph1-=1.0f;
 5073              		.loc 1 116 16 view .LVU1522
 5074 167a D3ED0E2A 		vldr.32	s5, [r3, #56]
 5075              	.LVL340:
 116:src/engine.cpp ****     h.ph1 += f*V.osc1_ratio/sr; if(h.ph1>=1.0f)h.ph1-=1.0f;
 5076              		.loc 1 116 16 view .LVU1523
 5077 167e A2EEA57A 		vfma.f32	s14, s5, s11
 117:src/engine.cpp ****     h.ph2 += f*V.osc2_ratio/sr; if(h.ph2>=1.0f)h.ph2-=1.0f;
 5078              		.loc 1 117 33 view .LVU1524
 5079 1682 F7EE005A 		vmov.f32	s11, #1.0e+0
 5080 1686 B4EEE53A 		vcmpe.f32	s6, s11
 116:src/engine.cpp ****     h.ph1 += f*V.osc1_ratio/sr; if(h.ph1>=1.0f)h.ph1-=1.0f;
 5081              		.loc 1 116 16 view .LVU1525
 5082 168a 83ED0D7A 		vstr.32	s14, [r3, #52]
 117:src/engine.cpp ****     h.ph2 += f*V.osc2_ratio/sr; if(h.ph2>=1.0f)h.ph2-=1.0f;
 5083              		.loc 1 117 5 is_stmt 1 view .LVU1526
 117:src/engine.cpp ****     h.ph2 += f*V.osc2_ratio/sr; if(h.ph2>=1.0f)h.ph2-=1.0f;
 5084              		.loc 1 117 33 view .LVU1527
 5085 168e F1EE10FA 		vmrs	APSR_nzcv, FPSCR
 117:src/engine.cpp ****     h.ph2 += f*V.osc2_ratio/sr; if(h.ph2>=1.0f)h.ph2-=1.0f;
 5086              		.loc 1 117 48 view .LVU1528
 118:src/engine.cpp ****     h.phs += f*V.sub_ratio /sr; if(h.phs>=1.0f)h.phs-=1.0f;
 5087              		.loc 1 118 5 view .LVU1529
 117:src/engine.cpp ****     h.ph2 += f*V.osc2_ratio/sr; if(h.ph2>=1.0f)h.ph2-=1.0f;
 5088              		.loc 1 117 53 is_stmt 0 view .LVU1530
 5089 1692 A8BF     		it	ge
 5090 1694 33EE653A 		vsubge.f32	s6, s6, s11
 5091 1698 83ED063A 		vstr.32	s6, [r3, #24]
 118:src/engine.cpp ****     h.phs += f*V.sub_ratio /sr; if(h.phs>=1.0f)h.phs-=1.0f;
 5092              		.loc 1 118 15 view .LVU1531
 5093 169c 90ED073A 		vldr.32	s6, [r0, #28]
 119:src/engine.cpp ****     h.pho += f*V.oct_ratio /sr; if(h.pho>=1.0f)h.pho-=1.0f;
 5094              		.loc 1 119 18 view .LVU1532
 5095 16a0 9C20     		movs	r0, #156
 118:src/engine.cpp ****     h.phs += f*V.sub_ratio /sr; if(h.phs>=1.0f)h.phs-=1.0f;
 5096              		.loc 1 118 15 view .LVU1533
 5097 16a2 26EE033A 		vmul.f32	s6, s12, s6
 119:src/engine.cpp ****     h.pho += f*V.oct_ratio /sr; if(h.pho>=1.0f)h.pho-=1.0f;
 5098              		.loc 1 119 18 view .LVU1534
 5099 16a6 00FB0250 		mla	r0, r0, r2, r5
ARM GAS  /tmp/claude-502/ccU8FNgW.s 			page 121


 118:src/engine.cpp ****     h.phs += f*V.sub_ratio /sr; if(h.phs>=1.0f)h.phs-=1.0f;
 5100              		.loc 1 118 28 view .LVU1535
 5101 16aa C3EE085A 		vdiv.f32	s11, s6, s16
 118:src/engine.cpp ****     h.phs += f*V.sub_ratio /sr; if(h.phs>=1.0f)h.phs-=1.0f;
 5102              		.loc 1 118 11 view .LVU1536
 5103 16ae 75EEA33A 		vadd.f32	s7, s11, s7
 118:src/engine.cpp ****     h.phs += f*V.sub_ratio /sr; if(h.phs>=1.0f)h.phs-=1.0f;
 5104              		.loc 1 118 33 is_stmt 1 view .LVU1537
 5105 16b2 F7EE005A 		vmov.f32	s11, #1.0e+0
 5106 16b6 F4EEE53A 		vcmpe.f32	s7, s11
 5107 16ba F1EE10FA 		vmrs	APSR_nzcv, FPSCR
 118:src/engine.cpp ****     h.phs += f*V.sub_ratio /sr; if(h.phs>=1.0f)h.phs-=1.0f;
 5108              		.loc 1 118 48 view .LVU1538
 119:src/engine.cpp ****     h.pho += f*V.oct_ratio /sr; if(h.pho>=1.0f)h.pho-=1.0f;
 5109              		.loc 1 119 5 view .LVU1539
 118:src/engine.cpp ****     h.phs += f*V.sub_ratio /sr; if(h.phs>=1.0f)h.phs-=1.0f;
 5110              		.loc 1 118 53 is_stmt 0 view .LVU1540
 5111 16be A8BF     		it	ge
 5112 16c0 73EEE53A 		vsubge.f32	s7, s7, s11
 5113 16c4 C3ED073A 		vstr.32	s7, [r3, #28]
 119:src/engine.cpp ****     h.pho += f*V.oct_ratio /sr; if(h.pho>=1.0f)h.pho-=1.0f;
 5114              		.loc 1 119 15 view .LVU1541
 5115 16c8 D0ED0A3A 		vldr.32	s7, [r0, #40]
 120:src/engine.cpp ****     return fast_tanh(h.lp_state*1.3f) * h.amp;
 5116              		.loc 1 120 18 view .LVU1542
 5117 16cc 9C20     		movs	r0, #156
 119:src/engine.cpp ****     h.pho += f*V.oct_ratio /sr; if(h.pho>=1.0f)h.pho-=1.0f;
 5118              		.loc 1 119 15 view .LVU1543
 5119 16ce 66EE233A 		vmul.f32	s7, s12, s7
 120:src/engine.cpp ****     return fast_tanh(h.lp_state*1.3f) * h.amp;
 5120              		.loc 1 120 18 view .LVU1544
 5121 16d2 00FB0252 		mla	r2, r0, r2, r5
 5122              	.LVL341:
 119:src/engine.cpp ****     h.pho += f*V.oct_ratio /sr; if(h.pho>=1.0f)h.pho-=1.0f;
 5123              		.loc 1 119 28 view .LVU1545
 5124 16d6 C3EE885A 		vdiv.f32	s11, s7, s16
 119:src/engine.cpp ****     h.pho += f*V.oct_ratio /sr; if(h.pho>=1.0f)h.pho-=1.0f;
 5125              		.loc 1 119 11 view .LVU1546
 5126 16da 35EE844A 		vadd.f32	s8, s11, s8
 119:src/engine.cpp ****     h.pho += f*V.oct_ratio /sr; if(h.pho>=1.0f)h.pho-=1.0f;
 5127              		.loc 1 119 33 is_stmt 1 view .LVU1547
 5128 16de F7EE005A 		vmov.f32	s11, #1.0e+0
 5129 16e2 B4EEE54A 		vcmpe.f32	s8, s11
 5130 16e6 F1EE10FA 		vmrs	APSR_nzcv, FPSCR
 119:src/engine.cpp ****     h.pho += f*V.oct_ratio /sr; if(h.pho>=1.0f)h.pho-=1.0f;
 5131              		.loc 1 119 48 view .LVU1548
 120:src/engine.cpp ****     return fast_tanh(h.lp_state*1.3f) * h.amp;
 5132              		.loc 1 120 5 view .LVU1549
 119:src/engine.cpp ****     h.pho += f*V.oct_ratio /sr; if(h.pho>=1.0f)h.pho-=1.0f;
 5133              		.loc 1 119 53 is_stmt 0 view .LVU1550
 5134 16ea A8BF     		it	ge
 5135 16ec 34EE654A 		vsubge.f32	s8, s8, s11
 120:src/engine.cpp ****     return fast_tanh(h.lp_state*1.3f) * h.amp;
 5136              		.loc 1 120 15 view .LVU1551
 5137 16f0 D2ED0D5A 		vldr.32	s11, [r2, #52]
 5138 16f4 26EE256A 		vmul.f32	s12, s12, s11
 5139              	.LVL342:
ARM GAS  /tmp/claude-502/ccU8FNgW.s 			page 122


 119:src/engine.cpp ****     h.pho += f*V.oct_ratio /sr; if(h.pho>=1.0f)h.pho-=1.0f;
 5140              		.loc 1 119 53 view .LVU1552
 5141 16f8 83ED084A 		vstr.32	s8, [r3, #32]
 120:src/engine.cpp ****     return fast_tanh(h.lp_state*1.3f) * h.amp;
 5142              		.loc 1 120 28 view .LVU1553
 5143 16fc C6EE085A 		vdiv.f32	s11, s12, s16
 120:src/engine.cpp ****     return fast_tanh(h.lp_state*1.3f) * h.amp;
 5144              		.loc 1 120 33 view .LVU1554
 5145 1700 B7EE006A 		vmov.f32	s12, #1.0e+0
 120:src/engine.cpp ****     return fast_tanh(h.lp_state*1.3f) * h.amp;
 5146              		.loc 1 120 11 view .LVU1555
 5147 1704 75EEA44A 		vadd.f32	s9, s11, s9
 120:src/engine.cpp ****     return fast_tanh(h.lp_state*1.3f) * h.amp;
 5148              		.loc 1 120 33 is_stmt 1 view .LVU1556
 5149 1708 F4EEC64A 		vcmpe.f32	s9, s12
 5150 170c F1EE10FA 		vmrs	APSR_nzcv, FPSCR
 120:src/engine.cpp ****     return fast_tanh(h.lp_state*1.3f) * h.amp;
 5151              		.loc 1 120 48 view .LVU1557
 120:src/engine.cpp ****     return fast_tanh(h.lp_state*1.3f) * h.amp;
 5152              		.loc 1 120 53 is_stmt 0 view .LVU1558
 5153 1710 A8BF     		it	ge
 5154 1712 74EEC64A 		vsubge.f32	s9, s9, s12
 121:src/engine.cpp **** }
 5155              		.loc 1 121 21 view .LVU1559
 5156 1716 1FEDA76A 		vldr.32	s12, .L363+40
 5157 171a 27EE067A 		vmul.f32	s14, s14, s12
 5158              	.LBB584:
 5159              	.LBB585:
  25:src/dsp.h     ****     if(x<-3.0f)return -1.0f;
 5160              		.loc 2 25 5 view .LVU1560
 5161 171e B0EE086A 		vmov.f32	s12, #3.0e+0
 5162              	.LBE585:
 5163              	.LBE584:
 120:src/engine.cpp ****     return fast_tanh(h.lp_state*1.3f) * h.amp;
 5164              		.loc 1 120 53 view .LVU1561
 5165 1722 C3ED094A 		vstr.32	s9, [r3, #36]
 121:src/engine.cpp **** }
 5166              		.loc 1 121 5 is_stmt 1 view .LVU1562
 5167              	.LVL343:
 5168              	.LBB589:
 5169              	.LBI584:
  23:src/dsp.h     **** {
 5170              		.loc 2 23 21 view .LVU1563
 5171              	.LBB588:
  25:src/dsp.h     ****     if(x<-3.0f)return -1.0f;
 5172              		.loc 2 25 5 view .LVU1564
 5173 1726 B4EEC67A 		vcmpe.f32	s14, s12
 5174 172a F1EE10FA 		vmrs	APSR_nzcv, FPSCR
 5175 172e 3FF77BAD 		bgt	.L118
  26:src/dsp.h     ****     float x2=x*x;
 5176              		.loc 2 26 5 view .LVU1565
 5177 1732 B8EE086A 		vmov.f32	s12, #-3.0e+0
 5178 1736 B4EEC67A 		vcmpe.f32	s14, s12
 5179 173a F1EE10FA 		vmrs	APSR_nzcv, FPSCR
 5180 173e 2AD4     		bmi	.L353
 5181              	.LVL344:
 5182              	.LBB586:
ARM GAS  /tmp/claude-502/ccU8FNgW.s 			page 123


 5183              	.LBI586:
  23:src/dsp.h     **** {
 5184              		.loc 2 23 21 view .LVU1566
 5185              	.LBB587:
  27:src/dsp.h     ****     return x*(27.0f+x2)/(27.0f+9.0f*x2);
 5186              		.loc 2 27 5 view .LVU1567
  28:src/dsp.h     **** }
 5187              		.loc 2 28 20 is_stmt 0 view .LVU1568
 5188 1740 F3EE0B5A 		vmov.f32	s11, #2.7e+1
  27:src/dsp.h     ****     return x*(27.0f+x2)/(27.0f+9.0f*x2);
 5189              		.loc 2 27 11 view .LVU1569
 5190 1744 27EE076A 		vmul.f32	s12, s14, s14
 5191              	.LVL345:
  28:src/dsp.h     **** }
 5192              		.loc 2 28 5 is_stmt 1 view .LVU1570
  28:src/dsp.h     **** }
 5193              		.loc 2 28 31 is_stmt 0 view .LVU1571
 5194 1748 B2EE024A 		vmov.f32	s8, #9.0e+0
 5195 174c F0EE654A 		vmov.f32	s9, s11
 5196 1750 E6EE044A 		vfma.f32	s9, s12, s8
 5197              	.LVL346:
  28:src/dsp.h     **** }
 5198              		.loc 2 28 20 view .LVU1572
 5199 1754 36EE256A 		vadd.f32	s12, s12, s11
  28:src/dsp.h     **** }
 5200              		.loc 2 28 13 view .LVU1573
 5201 1758 26EE077A 		vmul.f32	s14, s12, s14
 5202              	.LVL347:
  28:src/dsp.h     **** }
 5203              		.loc 2 28 39 view .LVU1574
 5204 175c 87EE246A 		vdiv.f32	s12, s14, s9
 5205              	.LBE587:
 5206              	.LBE586:
 5207              	.LBE588:
 5208              	.LBE589:
 121:src/engine.cpp **** }
 5209              		.loc 1 121 43 view .LVU1575
 5210 1760 66EE866A 		vmul.f32	s13, s13, s12
 5211              	.LVL348:
 121:src/engine.cpp **** }
 5212              		.loc 1 121 43 view .LVU1576
 5213 1764 60E5     		b	.L118
 5214              	.LVL349:
 5215              	.L252:
 5216              	.LBB590:
 5217              	.LBB582:
  25:src/dsp.h     ****     if(x<-3.0f)return -1.0f;
 5218              		.loc 2 25 24 view .LVU1577
 5219 1766 F7EE002A 		vmov.f32	s5, #1.0e+0
 5220 176a 74E7     		b	.L167
 5221              	.LVL350:
 5222              	.L156:
  25:src/dsp.h     ****     if(x<-3.0f)return -1.0f;
 5223              		.loc 2 25 24 view .LVU1578
 5224              	.LBE582:
 5225              	.LBE590:
 5226              	.LBB591:
ARM GAS  /tmp/claude-502/ccU8FNgW.s 			page 124


 5227              	.LBB567:
  61:src/dsp.h     ****         case WAVE_TRI:
 5228              		.loc 2 61 9 is_stmt 1 view .LVU1579
  61:src/dsp.h     ****         case WAVE_TRI:
 5229              		.loc 2 61 27 view .LVU1580
 5230              	.LBB559:
 5231              	.LBI559:
  53:src/dsp.h     **** 
 5232              		.loc 2 53 21 view .LVU1581
 5233              	.LBB560:
  53:src/dsp.h     **** 
 5234              		.loc 2 53 40 view .LVU1582
  53:src/dsp.h     **** 
 5235              		.loc 2 53 57 is_stmt 0 view .LVU1583
 5236 176c F0EE002A 		vmov.f32	s5, #2.0e+0
 5237 1770 FFEE005A 		vmov.f32	s11, #-1.0e+0
 5238 1774 E4EEA25A 		vfma.f32	s11, s9, s5
 5239              	.LVL351:
  53:src/dsp.h     **** 
 5240              		.loc 2 53 57 view .LVU1584
 5241              	.LBE560:
 5242              	.LBE559:
  61:src/dsp.h     ****         case WAVE_TRI:
 5243              		.loc 2 61 44 view .LVU1585
 5244 1778 13E7     		b	.L162
 5245              	.L155:
  60:src/dsp.h     ****         case WAVE_SAW:    return osc_saw(ph);
 5246              		.loc 2 60 9 is_stmt 1 view .LVU1586
  60:src/dsp.h     ****         case WAVE_SAW:    return osc_saw(ph);
 5247              		.loc 2 60 27 view .LVU1587
 5248              	.LVL352:
 5249              	.LBB561:
 5250              	.LBI561:
  52:src/dsp.h     **** static inline float osc_saw(float ph){ return 2.0f*ph - 1.0f; }
 5251              		.loc 2 52 21 view .LVU1588
 5252              	.LBB562:
  52:src/dsp.h     **** static inline float osc_saw(float ph){ return 2.0f*ph - 1.0f; }
 5253              		.loc 2 52 43 view .LVU1589
  52:src/dsp.h     **** static inline float osc_saw(float ph){ return 2.0f*ph - 1.0f; }
 5254              		.loc 2 52 58 is_stmt 0 view .LVU1590
 5255 177a F6EE005A 		vmov.f32	s11, #5.0e-1
 5256 177e FFEE002A 		vmov.f32	s5, #-1.0e+0
 5257 1782 F4EEE54A 		vcmpe.f32	s9, s11
 5258 1786 F7EE005A 		vmov.f32	s11, #1.0e+0
 5259 178a F1EE10FA 		vmrs	APSR_nzcv, FPSCR
 5260 178e 58BF     		it	pl
 5261 1790 F0EE625A 		vmovpl.f32	s11, s5
 5262 1794 05E7     		b	.L162
 5263              	.LVL353:
 5264              	.L353:
  52:src/dsp.h     **** static inline float osc_saw(float ph){ return 2.0f*ph - 1.0f; }
 5265              		.loc 2 52 58 view .LVU1591
 5266 1796 F1EE666A 		vneg.f32	s13, s13
 5267 179a 45E5     		b	.L118
 5268              	.LVL354:
 5269              	.L253:
  52:src/dsp.h     **** static inline float osc_saw(float ph){ return 2.0f*ph - 1.0f; }
ARM GAS  /tmp/claude-502/ccU8FNgW.s 			page 125


 5270              		.loc 2 52 58 view .LVU1592
 5271              	.LBE562:
 5272              	.LBE561:
 5273              	.LBE567:
 5274              	.LBE591:
 5275              	.LBB592:
 5276              	.LBB583:
  26:src/dsp.h     ****     float x2=x*x;
 5277              		.loc 2 26 24 view .LVU1593
 5278 179c FFEE002A 		vmov.f32	s5, #-1.0e+0
 5279 17a0 59E7     		b	.L167
 5280              	.LVL355:
 5281              	.L347:
  26:src/dsp.h     ****     float x2=x*x;
 5282              		.loc 2 26 24 view .LVU1594
 5283              	.LBE583:
 5284              	.LBE592:
  97:src/engine.cpp ****     // Pitch envelope decays to 1.0.
 5285              		.loc 1 97 37 is_stmt 1 view .LVU1595
  97:src/engine.cpp ****     // Pitch envelope decays to 1.0.
 5286              		.loc 1 97 60 is_stmt 0 view .LVU1596
 5287 17a2 5FEDC96A 		vldr.32	s13, .L363+44
  97:src/engine.cpp ****     // Pitch envelope decays to 1.0.
 5288              		.loc 1 97 45 view .LVU1597
 5289 17a6 1870     		strb	r0, [r3]
  97:src/engine.cpp ****     // Pitch envelope decays to 1.0.
 5290              		.loc 1 97 53 is_stmt 1 view .LVU1598
  97:src/engine.cpp ****     // Pitch envelope decays to 1.0.
 5291              		.loc 1 97 60 is_stmt 0 view .LVU1599
 5292 17a8 3EE5     		b	.L118
 5293              	.LVL356:
 5294              	.L319:
 5295              	.LBB593:
 5296              	.LBB568:
 5297              	.LBB563:
 5298              	.LBB555:
 5299              	.LBB554:
  41:src/dsp.h     **** }
 5300              		.loc 2 41 19 view .LVU1600
 5301 17aa F0EE085A 		vmov.f32	s11, #3.0e+0
 5302 17ae E4EEE25A 		vfms.f32	s11, s9, s5
 5303 17b2 F6E6     		b	.L162
 5304              	.LVL357:
 5305              	.L317:
  41:src/dsp.h     **** }
 5306              		.loc 2 41 19 view .LVU1601
 5307              	.LBE554:
 5308              	.LBE555:
 5309              	.LBE563:
 5310              	.LBE568:
 5311              	.LBE593:
 5312              	.LBB594:
 5313              	.LBB544:
 5314              	.LBB539:
 5315              	.LBB531:
 5316              	.LBB530:
 5317 17b4 F0EE085A 		vmov.f32	s11, #3.0e+0
ARM GAS  /tmp/claude-502/ccU8FNgW.s 			page 126


 5318 17b8 E4EE645A 		vfms.f32	s11, s8, s9
 5319 17bc 8EE6     		b	.L152
 5320              	.LVL358:
 5321              	.L315:
  41:src/dsp.h     **** }
 5322              		.loc 2 41 19 view .LVU1602
 5323              	.LBE530:
 5324              	.LBE531:
 5325              	.LBE539:
 5326              	.LBE544:
 5327              	.LBE594:
 5328              	.LBB595:
 5329              	.LBB520:
 5330              	.LBB515:
 5331              	.LBB507:
 5332              	.LBB506:
 5333 17be F0EE085A 		vmov.f32	s11, #3.0e+0
 5334 17c2 E3EEE45A 		vfms.f32	s11, s7, s9
 5335 17c6 0DE6     		b	.L142
 5336              	.LVL359:
 5337              	.L313:
  41:src/dsp.h     **** }
 5338              		.loc 2 41 19 view .LVU1603
 5339              	.LBE506:
 5340              	.LBE507:
 5341              	.LBE515:
 5342              	.LBE520:
 5343              	.LBE595:
 5344              	.LBB596:
 5345              	.LBB497:
 5346              	.LBB492:
 5347              	.LBB484:
 5348              	.LBB483:
 5349 17c8 B0EE087A 		vmov.f32	s14, #3.0e+0
 5350 17cc A3EE657A 		vfms.f32	s14, s6, s11
 5351 17d0 A9E5     		b	.L132
 5352              	.LVL360:
 5353              	.L205:
  41:src/dsp.h     **** }
 5354              		.loc 2 41 19 view .LVU1604
 5355              	.LBE483:
 5356              	.LBE484:
 5357              	.LBE492:
 5358              	.LBE497:
 5359              	.LBE596:
 5360              	.LBE603:
 5361              	.LBE610:
 5362              	.LBE622:
 5363              	.LBE630:
 5364              	.LBE906:
 5365              	.LBE919:
 5366              	.LBE930:
 5367              	.LBB931:
 5368              	.LBB327:
  34:src/dsp.h     ****     return expf(-1.0f / (ms * 0.001f * sr));
 5369              		.loc 2 34 27 view .LVU1605
 5370 17d2 1FEDD50A 		vldr.32	s0, .L363+44
ARM GAS  /tmp/claude-502/ccU8FNgW.s 			page 127


 5371              	.LVL361:
  34:src/dsp.h     ****     return expf(-1.0f / (ms * 0.001f * sr));
 5372              		.loc 2 34 27 view .LVU1606
 5373 17d6 FEF777BC 		b	.L20
 5374              	.LVL362:
 5375              	.L254:
  34:src/dsp.h     ****     return expf(-1.0f / (ms * 0.001f * sr));
 5376              		.loc 2 34 27 view .LVU1607
 5377              	.LBE327:
 5378              	.LBE931:
 5379              	.LBB932:
 5380              	.LBB920:
 5381              	.LBB907:
 5382              	.LBB631:
 5383              	.LBB623:
 5384              	.LBB617:
 5385 17da B0EE4A6A 		vmov.f32	s12, s20
 5386              	.LVL363:
  34:src/dsp.h     ****     return expf(-1.0f / (ms * 0.001f * sr));
 5387              		.loc 2 34 27 view .LVU1608
 5388 17de FEF7C1BF 		b	.L117
 5389              	.LVL364:
 5390              	.L204:
  34:src/dsp.h     ****     return expf(-1.0f / (ms * 0.001f * sr));
 5391              		.loc 2 34 27 view .LVU1609
 5392              	.LBE617:
 5393              	.LBE623:
 5394              	.LBE631:
 5395              	.LBE907:
 5396              	.LBE920:
 5397              	.LBE932:
 136:src/engine.cpp **** 
 5398              		.loc 1 136 40 view .LVU1610
 5399 17e2 5FEDD97A 		vldr.32	s15, .L363+44
 5400              	.LVL365:
 136:src/engine.cpp **** 
 5401              		.loc 1 136 40 view .LVU1611
 5402 17e6 CDED0A7A 		vstr.32	s15, [sp, #40]
 5403 17ea FEF725BC 		b	.L16
 5404              	.LVL366:
 5405              	.L349:
 136:src/engine.cpp **** 
 5406              		.loc 1 136 40 view .LVU1612
 5407 17ee B1EE4A6A 		vneg.f32	s12, s20
 5408 17f2 FEF7B7BF 		b	.L117
 5409              	.LVL367:
 5410              	.L23:
 174:src/engine.cpp ****         s_penv_start = exp2f(VOICE.pitch_env_oct);   // 1.0 when pitch_env_oct == 0
 5411              		.loc 1 174 22 view .LVU1613
 5412 17f6 0E4A     		ldr	r2, .L365
 175:src/engine.cpp ****         // decay_ms == 0 → no decay: floor 1.0 so s_decay stays pinned at 1 (the
 5413              		.loc 1 175 29 view .LVU1614
 5414 17f8 96ED1C0A 		vldr.32	s0, [r6, #112]
 174:src/engine.cpp ****         s_penv_start = exp2f(VOICE.pitch_env_oct);   // 1.0 when pitch_env_oct == 0
 5415              		.loc 1 174 22 view .LVU1615
 5416 17fc 1360     		str	r3, [r2]	@ float
 175:src/engine.cpp ****         // decay_ms == 0 → no decay: floor 1.0 so s_decay stays pinned at 1 (the
ARM GAS  /tmp/claude-502/ccU8FNgW.s 			page 128


 5417              		.loc 1 175 9 is_stmt 1 view .LVU1616
 5418 17fe FEF7BCBC 		b	.L323
 5419              	.LVL368:
 5420              	.L207:
 5421              	.LBB933:
 5422              	.LBB340:
  34:src/dsp.h     ****     return expf(-1.0f / (ms * 0.001f * sr));
 5423              		.loc 2 34 27 is_stmt 0 view .LVU1617
 5424 1802 9FED0C0A 		vldr.32	s0, .L365+4
 5425 1806 FEF795BC 		b	.L22
 5426              	.LVL369:
 5427              	.L206:
  34:src/dsp.h     ****     return expf(-1.0f / (ms * 0.001f * sr));
 5428              		.loc 2 34 27 view .LVU1618
 5429              	.LBE340:
 5430              	.LBE933:
 5431              	.LBB934:
 5432              	.LBB333:
 5433 180a 9FED0A0A 		vldr.32	s0, .L365+4
 5434 180e FEF776BC 		b	.L21
 5435              	.LVL370:
 5436              	.L24:
  34:src/dsp.h     ****     return expf(-1.0f / (ms * 0.001f * sr));
 5437              		.loc 2 34 27 view .LVU1619
 5438              	.LBE333:
 5439              	.LBE934:
 179:src/engine.cpp ****         s_coeff_vi   = vi;
 5440              		.loc 1 179 48 discriminator 4 view .LVU1620
 5441 1812 F5EEC07A 		vcmpe.f32	s15, #0
 178:src/engine.cpp ****         s_sustain    = (VOICE.decay_ms > 0.0f) ? VOICE.sustain : 1.0f;
 5442              		.loc 1 178 22 discriminator 4 view .LVU1621
 5443 1816 084B     		ldr	r3, .L365+8
 5444 1818 1A46     		mov	r2, r3
 5445 181a 0023     		movs	r3, #0
 179:src/engine.cpp ****         s_coeff_vi   = vi;
 5446              		.loc 1 179 48 discriminator 4 view .LVU1622
 5447 181c F1EE10FA 		vmrs	APSR_nzcv, FPSCR
 178:src/engine.cpp ****         s_sustain    = (VOICE.decay_ms > 0.0f) ? VOICE.sustain : 1.0f;
 5448              		.loc 1 178 22 discriminator 4 view .LVU1623
 5449 1820 1360     		str	r3, [r2]	@ float
 179:src/engine.cpp ****         s_coeff_vi   = vi;
 5450              		.loc 1 179 9 is_stmt 1 discriminator 4 view .LVU1624
 179:src/engine.cpp ****         s_coeff_vi   = vi;
 5451              		.loc 1 179 48 is_stmt 0 discriminator 4 view .LVU1625
 5452 1822 3EF7C6AC 		bgt	.L26
 179:src/engine.cpp ****         s_coeff_vi   = vi;
 5453              		.loc 1 179 48 view .LVU1626
 5454 1826 4FF07E52 		mov	r2, #1065353216
 5455 182a FEF7C8BC 		b	.L27
 5456              	.L366:
 5457 182e 00BF     		.align	2
 5458              	.L365:
 5459 1830 00000000 		.word	.LANCHOR15
 5460 1834 00000000 		.word	0
 5461 1838 00000000 		.word	.LANCHOR17
 5462              		.cfi_endproc
 5463              	.LFE2582:
ARM GAS  /tmp/claude-502/ccU8FNgW.s 			page 129


 5465              		.global	g_hits
 5466              		.global	g_master_vol
 5467              		.global	g_led3_duty
 5468              		.global	g_retrig
 5469              		.global	g_amp_target
 5470              		.global	g_finger_on
 5471              		.global	g_ringmod
 5472              		.global	g_bitcrush
 5473              		.global	g_vibrato_depth
 5474              		.global	g_target_drive
 5475              		.global	g_target_detune
 5476              		.global	g_target_cutoff
 5477              		.global	g_target_freq
 5478              		.section	.rodata.str1.4,"aMS",%progbits,1
 5479              		.align	2
 5480              	.LC0:
 5481 0000 4C656164 		.ascii	"Lead\000"
 5481      00
 5482 0005 000000   		.align	2
 5483              	.LC1:
 5484 0008 42617373 		.ascii	"Bass\000"
 5484      00
 5485 000d 000000   		.align	2
 5486              	.LC2:
 5487 0010 4F70656E 		.ascii	"OpenBass\000"
 5487      42617373 
 5487      00
 5488 0019 000000   		.align	2
 5489              	.LC3:
 5490 001c 52696368 		.ascii	"RichBass\000"
 5490      42617373 
 5490      00
 5491 0025 000000   		.align	2
 5492              	.LC4:
 5493 0028 4F726761 		.ascii	"Organ\000"
 5493      6E00
 5494 002e 0000     		.align	2
 5495              	.LC5:
 5496 0030 53637265 		.ascii	"Scream\000"
 5496      616D00
 5497 0037 00       		.align	2
 5498              	.LC6:
 5499 0038 47756974 		.ascii	"Guitar\000"
 5499      617200
 5500 003f 00       		.align	2
 5501              	.LC7:
 5502 0040 50616400 		.ascii	"Pad\000"
 5503              		.align	2
 5504              	.LC8:
 5505 0044 546F6D00 		.ascii	"Tom\000"
 5506              		.align	2
 5507              	.LC9:
 5508 0048 4B69636B 		.ascii	"Kick\000"
 5508      00
 5509 004d 000000   		.align	2
 5510              	.LC10:
 5511 0050 536E6172 		.ascii	"Snare\000"
ARM GAS  /tmp/claude-502/ccU8FNgW.s 			page 130


 5511      6500
 5512 0056 0000     		.align	2
 5513              	.LC11:
 5514 0058 48694861 		.ascii	"HiHat\000"
 5514      7400
 5515 005e 0000     		.align	2
 5516              	.LC12:
 5517 0060 53482D31 		.ascii	"SH-101\000"
 5517      303100
 5518 0067 00       		.align	2
 5519              	.LC13:
 5520 0068 4472756D 		.ascii	"Drums\000"
 5520      7300
 5521              		.section	.bss._ZL10s_bitcrush,"aw",%nobits
 5522              		.align	2
 5523              		.set	.LANCHOR23,. + 0
 5526              	_ZL10s_bitcrush:
 5527 0000 00000000 		.space	4
 5528              		.section	.bss._ZL10s_noise_lp,"aw",%nobits
 5529              		.align	2
 5530              		.set	.LANCHOR39,. + 0
 5533              	_ZL10s_noise_lp:
 5534 0000 00000000 		.space	4
 5535              		.section	.bss._ZL10s_phase_rm,"aw",%nobits
 5536              		.align	2
 5537              		.set	.LANCHOR40,. + 0
 5540              	_ZL10s_phase_rm:
 5541 0000 00000000 		.space	4
 5542              		.section	.bss._ZL10s_vibdepth,"aw",%nobits
 5543              		.align	2
 5544              		.set	.LANCHOR31,. + 0
 5547              	_ZL10s_vibdepth:
 5548 0000 00000000 		.space	4
 5549              		.section	.bss._ZL11s_lfo_phase,"aw",%nobits
 5550              		.align	2
 5551              		.set	.LANCHOR33,. + 0
 5554              	_ZL11s_lfo_phase:
 5555 0000 00000000 		.space	4
 5556              		.section	.bss._ZL11s_phase_oct,"aw",%nobits
 5557              		.align	2
 5558              		.set	.LANCHOR37,. + 0
 5561              	_ZL11s_phase_oct:
 5562 0000 00000000 		.space	4
 5563              		.section	.bss._ZL11s_phase_sub,"aw",%nobits
 5564              		.align	2
 5565              		.set	.LANCHOR36,. + 0
 5568              	_ZL11s_phase_sub:
 5569 0000 00000000 		.space	4
 5570              		.section	.bss._ZL5s_amp,"aw",%nobits
 5571              		.align	2
 5572              		.set	.LANCHOR28,. + 0
 5575              	_ZL5s_amp:
 5576 0000 00000000 		.space	4
 5577              		.section	.bss._ZL5s_flt,"aw",%nobits
 5578              		.align	2
 5579              		.set	.LANCHOR25,. + 0
 5582              	_ZL5s_flt:
ARM GAS  /tmp/claude-502/ccU8FNgW.s 			page 131


 5583 0000 00000000 		.space	16
 5583      00000000 
 5583      00000000 
 5583      00000000 
 5584              		.section	.bss._ZL8s_detune,"aw",%nobits
 5585              		.align	2
 5586              		.set	.LANCHOR22,. + 0
 5589              	_ZL8s_detune:
 5590 0000 00000000 		.space	4
 5591              		.section	.bss._ZL8s_phase1,"aw",%nobits
 5592              		.align	2
 5593              		.set	.LANCHOR34,. + 0
 5596              	_ZL8s_phase1:
 5597 0000 00000000 		.space	4
 5598              		.section	.bss._ZL8s_phase2,"aw",%nobits
 5599              		.align	2
 5600              		.set	.LANCHOR35,. + 0
 5603              	_ZL8s_phase2:
 5604 0000 00000000 		.space	4
 5605              		.section	.bss._ZL9s_ringmod,"aw",%nobits
 5606              		.align	2
 5607              		.set	.LANCHOR24,. + 0
 5610              	_ZL9s_ringmod:
 5611 0000 00000000 		.space	4
 5612              		.section	.bss._ZZ13AudioCallbackPKPKfPPfjE10led3_state,"aw",%nobits
 5613              		.set	.LANCHOR44,. + 0
 5616              	_ZZ13AudioCallbackPKPKfPPfjE10led3_state:
 5617 0000 00       		.space	1
 5618              		.section	.bss._ZZ13AudioCallbackPKPKfPPfjE11pwm_counter,"aw",%nobits
 5619              		.align	2
 5620              		.set	.LANCHOR43,. + 0
 5623              	_ZZ13AudioCallbackPKPKfPPfjE11pwm_counter:
 5624 0000 00000000 		.space	4
 5625              		.section	.bss._ZZ13AudioCallbackPKPKfPPfjE11s_prev_tamp,"aw",%nobits
 5626              		.align	2
 5627              		.set	.LANCHOR26,. + 0
 5630              	_ZZ13AudioCallbackPKPKfPPfjE11s_prev_tamp:
 5631 0000 00000000 		.space	4
 5632              		.section	.bss._ZZ13AudioCallbackPKPKfPPfjE12s_penv_start,"aw",%nobits
 5633              		.align	2
 5634              		.set	.LANCHOR16,. + 0
 5637              	_ZZ13AudioCallbackPKPKfPPfjE12s_penv_start:
 5638 0000 00000000 		.space	4
 5639              		.section	.bss._ZZ13AudioCallbackPKPKfPPfjE16led3_duty_smooth,"aw",%nobits
 5640              		.align	2
 5641              		.set	.LANCHOR42,. + 0
 5644              	_ZZ13AudioCallbackPKPKfPPfjE16led3_duty_smooth:
 5645 0000 00000000 		.space	4
 5646              		.section	.bss._ZZ13AudioCallbackPKPKfPPfjE7s_atk_c,"aw",%nobits
 5647              		.align	2
 5648              		.set	.LANCHOR13,. + 0
 5651              	_ZZ13AudioCallbackPKPKfPPfjE7s_atk_c:
 5652 0000 00000000 		.space	4
 5653              		.section	.bss._ZZ13AudioCallbackPKPKfPPfjE7s_rel_c,"aw",%nobits
 5654              		.align	2
 5655              		.set	.LANCHOR14,. + 0
 5658              	_ZZ13AudioCallbackPKPKfPPfjE7s_rel_c:
ARM GAS  /tmp/claude-502/ccU8FNgW.s 			page 132


 5659 0000 00000000 		.space	4
 5660              		.section	.bss._ZZ13AudioCallbackPKPKfPPfjE8s_penv_c,"aw",%nobits
 5661              		.align	2
 5662              		.set	.LANCHOR15,. + 0
 5665              	_ZZ13AudioCallbackPKPKfPPfjE8s_penv_c:
 5666 0000 00000000 		.space	4
 5667              		.section	.bss._ZZ13AudioCallbackPKPKfPPfjE9s_decay_c,"aw",%nobits
 5668              		.align	2
 5669              		.set	.LANCHOR17,. + 0
 5672              	_ZZ13AudioCallbackPKPKfPPfjE9s_decay_c:
 5673 0000 00000000 		.space	4
 5674              		.section	.bss._ZZ13AudioCallbackPKPKfPPfjE9s_glide_c,"aw",%nobits
 5675              		.align	2
 5676              		.set	.LANCHOR12,. + 0
 5679              	_ZZ13AudioCallbackPKPKfPPfjE9s_glide_c:
 5680 0000 00000000 		.space	4
 5681              		.section	.bss._ZZ13AudioCallbackPKPKfPPfjE9s_sustain,"aw",%nobits
 5682              		.align	2
 5683              		.set	.LANCHOR18,. + 0
 5686              	_ZZ13AudioCallbackPKPKfPPfjE9s_sustain:
 5687 0000 00000000 		.space	4
 5688              		.section	.bss.g_amp_target,"aw",%nobits
 5689              		.align	2
 5690              		.set	.LANCHOR9,. + 0
 5693              	g_amp_target:
 5694 0000 00000000 		.space	4
 5695              		.section	.bss.g_bitcrush,"aw",%nobits
 5696              		.align	2
 5697              		.set	.LANCHOR7,. + 0
 5700              	g_bitcrush:
 5701 0000 00000000 		.space	4
 5702              		.section	.bss.g_finger_on,"aw",%nobits
 5705              	g_finger_on:
 5706 0000 00       		.space	1
 5707              		.section	.bss.g_led3_duty,"aw",%nobits
 5708              		.align	2
 5709              		.set	.LANCHOR1,. + 0
 5712              	g_led3_duty:
 5713 0000 00000000 		.space	4
 5714              		.section	.bss.g_retrig,"aw",%nobits
 5715              		.set	.LANCHOR27,. + 0
 5718              	g_retrig:
 5719 0000 00       		.space	1
 5720              		.section	.bss.g_ringmod,"aw",%nobits
 5721              		.align	2
 5722              		.set	.LANCHOR8,. + 0
 5725              	g_ringmod:
 5726 0000 00000000 		.space	4
 5727              		.section	.bss.g_target_detune,"aw",%nobits
 5728              		.align	2
 5729              		.set	.LANCHOR4,. + 0
 5732              	g_target_detune:
 5733 0000 00000000 		.space	4
 5734              		.section	.bss.g_vibrato_depth,"aw",%nobits
 5735              		.align	2
 5736              		.set	.LANCHOR6,. + 0
 5739              	g_vibrato_depth:
ARM GAS  /tmp/claude-502/ccU8FNgW.s 			page 133


 5740 0000 00000000 		.space	4
 5741              		.section	.data._ZL11s_noise_rng,"aw"
 5742              		.align	2
 5743              		.set	.LANCHOR38,. + 0
 5746              	_ZL11s_noise_rng:
 5747 0000 67452301 		.word	19088743
 5748              		.section	.data._ZL12s_master_vol,"aw"
 5749              		.align	2
 5750              		.set	.LANCHOR32,. + 0
 5753              	_ZL12s_master_vol:
 5754 0000 0000803F 		.word	1065353216
 5755              		.section	.data._ZL6s_freq,"aw"
 5756              		.align	2
 5757              		.set	.LANCHOR19,. + 0
 5760              	_ZL6s_freq:
 5761 0000 ECD18242 		.word	1115869676
 5762              		.section	.data._ZL7s_drive,"aw"
 5763              		.align	2
 5764              		.set	.LANCHOR21,. + 0
 5767              	_ZL7s_drive:
 5768 0000 0000803F 		.word	1065353216
 5769              		.section	.data._ZL8s_cutoff,"aw"
 5770              		.align	2
 5771              		.set	.LANCHOR20,. + 0
 5774              	_ZL8s_cutoff:
 5775 0000 0000C842 		.word	1120403456
 5776              		.section	.data._ZZ13AudioCallbackPKPKfPPfjE10s_coeff_vi,"aw"
 5777              		.align	2
 5778              		.set	.LANCHOR11,. + 0
 5781              	_ZZ13AudioCallbackPKPKfPPfjE10s_coeff_vi:
 5782 0000 FFFFFFFF 		.word	-1
 5783              		.section	.data._ZZ13AudioCallbackPKPKfPPfjE7s_decay,"aw"
 5784              		.align	2
 5785              		.set	.LANCHOR30,. + 0
 5788              	_ZZ13AudioCallbackPKPKfPPfjE7s_decay:
 5789 0000 0000803F 		.word	1065353216
 5790              		.section	.data._ZZ13AudioCallbackPKPKfPPfjE7s_pmult,"aw"
 5791              		.align	2
 5792              		.set	.LANCHOR29,. + 0
 5795              	_ZZ13AudioCallbackPKPKfPPfjE7s_pmult:
 5796 0000 0000803F 		.word	1065353216
 5797              		.section	.data.g_hits,"aw"
 5798              		.align	2
 5799              		.set	.LANCHOR41,. + 0
 5802              	g_hits:
 5803 0000 00       		.byte	0
 5804 0001 00       		.byte	0
 5805 0002 0000     		.space	2
 5806 0004 09000000 		.word	9
 5807 0008 0000A042 		.word	1117782016
 5808 000c 00000000 		.word	0
 5809 0010 00004843 		.word	1128792064
 5810 0014 0000803F 		.word	1065353216
 5811 0018 00000000 		.word	0
 5812 001c 00000000 		.word	0
 5813 0020 00000000 		.word	0
 5814 0024 00000000 		.word	0
ARM GAS  /tmp/claude-502/ccU8FNgW.s 			page 134


 5815 0028 00000000 		.word	0
 5816 002c 0000803F 		.word	1065353216
 5817 0030 00000000 		.word	0
 5818 0034 00000000 		.word	0
 5819 0038 0000803F 		.word	1065353216
 5820 003c 00000000 		.word	0
 5821 0040 00000000 		.word	0
 5822 0044 00000000 		.word	0
 5823 0048 0000803F 		.word	1065353216
 5824 004c 00       		.byte	0
 5825 004d 00       		.byte	0
 5826 004e 0000     		.space	2
 5827 0050 09000000 		.word	9
 5828 0054 0000A042 		.word	1117782016
 5829 0058 00000000 		.word	0
 5830 005c 00004843 		.word	1128792064
 5831 0060 0000803F 		.word	1065353216
 5832 0064 00000000 		.word	0
 5833 0068 00000000 		.word	0
 5834 006c 00000000 		.word	0
 5835 0070 00000000 		.word	0
 5836 0074 00000000 		.word	0
 5837 0078 0000803F 		.word	1065353216
 5838 007c 00000000 		.word	0
 5839 0080 00000000 		.word	0
 5840 0084 0000803F 		.word	1065353216
 5841 0088 00000000 		.word	0
 5842 008c 00000000 		.word	0
 5843 0090 00000000 		.word	0
 5844 0094 0000803F 		.word	1065353216
 5845 0098 00       		.byte	0
 5846 0099 00       		.byte	0
 5847 009a 0000     		.space	2
 5848 009c 09000000 		.word	9
 5849 00a0 0000A042 		.word	1117782016
 5850 00a4 00000000 		.word	0
 5851 00a8 00004843 		.word	1128792064
 5852 00ac 0000803F 		.word	1065353216
 5853 00b0 00000000 		.word	0
 5854 00b4 00000000 		.word	0
 5855 00b8 00000000 		.word	0
 5856 00bc 00000000 		.word	0
 5857 00c0 00000000 		.word	0
 5858 00c4 0000803F 		.word	1065353216
 5859 00c8 00000000 		.word	0
 5860 00cc 00000000 		.word	0
 5861 00d0 0000803F 		.word	1065353216
 5862 00d4 00000000 		.word	0
 5863 00d8 00000000 		.word	0
 5864 00dc 00000000 		.word	0
 5865 00e0 0000803F 		.word	1065353216
 5866 00e4 00       		.byte	0
 5867 00e5 00       		.byte	0
 5868 00e6 0000     		.space	2
 5869 00e8 09000000 		.word	9
 5870 00ec 0000A042 		.word	1117782016
 5871 00f0 00000000 		.word	0
ARM GAS  /tmp/claude-502/ccU8FNgW.s 			page 135


 5872 00f4 00004843 		.word	1128792064
 5873 00f8 0000803F 		.word	1065353216
 5874 00fc 00000000 		.word	0
 5875 0100 00000000 		.word	0
 5876 0104 00000000 		.word	0
 5877 0108 00000000 		.word	0
 5878 010c 00000000 		.word	0
 5879 0110 0000803F 		.word	1065353216
 5880 0114 00000000 		.word	0
 5881 0118 00000000 		.word	0
 5882 011c 0000803F 		.word	1065353216
 5883 0120 00000000 		.word	0
 5884 0124 00000000 		.word	0
 5885 0128 00000000 		.word	0
 5886 012c 0000803F 		.word	1065353216
 5887              		.section	.data.g_master_vol,"aw"
 5888              		.align	2
 5889              		.set	.LANCHOR10,. + 0
 5892              	g_master_vol:
 5893 0000 0000803F 		.word	1065353216
 5894              		.section	.data.g_target_cutoff,"aw"
 5895              		.align	2
 5896              		.set	.LANCHOR3,. + 0
 5899              	g_target_cutoff:
 5900 0000 0000C842 		.word	1120403456
 5901              		.section	.data.g_target_drive,"aw"
 5902              		.align	2
 5903              		.set	.LANCHOR5,. + 0
 5906              	g_target_drive:
 5907 0000 0000803F 		.word	1065353216
 5908              		.section	.data.g_target_freq,"aw"
 5909              		.align	2
 5910              		.set	.LANCHOR2,. + 0
 5913              	g_target_freq:
 5914 0000 ECD18242 		.word	1115869676
 5915              		.section	.rodata._ZL11SCALE_MAJOR,"a"
 5916              		.align	2
 5919              	_ZL11SCALE_MAJOR:
 5920 0000 00020405 		.ascii	"\000\002\004\005\007\011\013"
 5920      07090B
 5921              		.section	.rodata._ZL11SCALE_MINOR,"a"
 5922              		.align	2
 5925              	_ZL11SCALE_MINOR:
 5926 0000 00020305 		.ascii	"\000\002\003\005\007\010\012"
 5926      07080A
 5927              		.section	.rodata._ZL15SCALE_CHROMATIC,"a"
 5928              		.align	2
 5931              	_ZL15SCALE_CHROMATIC:
 5932 0000 00010203 		.ascii	"\000\001\002\003\004\005\006\007\010\011\012\013"
 5932      04050607 
 5932      08090A0B 
 5933              		.section	.rodata._ZL6VOICES,"a"
 5934              		.align	2
 5935              		.set	.LANCHOR0,. + 0
 5938              	_ZL6VOICES:
 5939 0000 00000000 		.word	.LC0
 5940 0004 00004842 		.word	1112014848
ARM GAS  /tmp/claude-502/ccU8FNgW.s 			page 136


 5941 0008 00009643 		.word	1133903872
 5942 000c 6458E53F 		.word	1071994980
 5943 0010 0000803F 		.word	1065353216
 5944 0014 0000003F 		.word	1056964608
 5945 0018 00       		.byte	0
 5946 0019 000000   		.space	3
 5947 001c 0000803F 		.word	1065353216
 5948 0020 AE47613E 		.word	1046562734
 5949 0024 00       		.byte	0
 5950 0025 000000   		.space	3
 5951 0028 0000003F 		.word	1056964608
 5952 002c EC51383E 		.word	1043878380
 5953 0030 00       		.byte	0
 5954 0031 000000   		.space	3
 5955 0034 00000040 		.word	1073741824
 5956 0038 9A99193E 		.word	1041865114
 5957 003c 00       		.byte	0
 5958 003d 01       		.byte	1
 5959 003e 0000     		.space	2
 5960 0040 9A99993E 		.word	1050253722
 5961 0044 00004041 		.word	1094713344
 5962 0048 0000403F 		.word	1061158912
 5963 004c 00002040 		.word	1075838976
 5964 0050 00000000 		.word	0
 5965 0054 0000803F 		.word	1065353216
 5966 0058 0000803F 		.word	1065353216
 5967 005c 9A99193E 		.word	1041865114
 5968 0060 EC51383E 		.word	1043878380
 5969 0064 00008040 		.word	1082130432
 5970 0068 0000C843 		.word	1137180672
 5971 006c 00002042 		.word	1109393408
 5972 0070 00000000 		.space	44
 5972      00000000 
 5972      00000000 
 5972      00000000 
 5972      00000000 
 5973 009c 08000000 		.word	.LC1
 5974 00a0 00002042 		.word	1109393408
 5975 00a4 00002043 		.word	1126170624
 5976 00a8 F371B13F 		.word	1068593651
 5977 00ac 0000803F 		.word	1065353216
 5978 00b0 6666E63E 		.word	1055286886
 5979 00b4 00       		.byte	0
 5980 00b5 000000   		.space	3
 5981 00b8 9FC8BF3F 		.word	1069533343
 5982 00bc 9A99993E 		.word	1050253722
 5983 00c0 00       		.byte	0
 5984 00c1 000000   		.space	3
 5985 00c4 0000003F 		.word	1056964608
 5986 00c8 7B14AE3E 		.word	1051595899
 5987 00cc 00       		.byte	0
 5988 00cd 000000   		.space	3
 5989 00d0 00000040 		.word	1073741824
 5990 00d4 CDCC4C3E 		.word	1045220557
 5991 00d8 00       		.byte	0
 5992 00d9 00       		.byte	0
 5993 00da 0000     		.space	2
ARM GAS  /tmp/claude-502/ccU8FNgW.s 			page 137


 5994 00dc 0000803E 		.word	1048576000
 5995 00e0 0000E040 		.word	1088421888
 5996 00e4 0000003F 		.word	1056964608
 5997 00e8 0000803F 		.word	1065353216
 5998 00ec 00000000 		.word	0
 5999 00f0 0000803F 		.word	1065353216
 6000 00f4 0000803F 		.word	1065353216
 6001 00f8 8FC2F53D 		.word	1039516303
 6002 00fc 8FC2F53D 		.word	1039516303
 6003 0100 0000C040 		.word	1086324736
 6004 0104 00009643 		.word	1133903872
 6005 0108 0000C841 		.word	1103626240
 6006 010c 00000000 		.space	44
 6006      00000000 
 6006      00000000 
 6006      00000000 
 6006      00000000 
 6007 0138 10000000 		.word	.LC2
 6008 013c 00002042 		.word	1109393408
 6009 0140 00003443 		.word	1127481344
 6010 0144 B285C03F 		.word	1069581746
 6011 0148 0000803F 		.word	1065353216
 6012 014c 6666E63E 		.word	1055286886
 6013 0150 00       		.byte	0
 6014 0151 000000   		.space	3
 6015 0154 9FC8BF3F 		.word	1069533343
 6016 0158 9A99993E 		.word	1050253722
 6017 015c 00       		.byte	0
 6018 015d 000000   		.space	3
 6019 0160 0000003F 		.word	1056964608
 6020 0164 9A99993E 		.word	1050253722
 6021 0168 00       		.byte	0
 6022 0169 000000   		.space	3
 6023 016c 00000040 		.word	1073741824
 6024 0170 AE47613E 		.word	1046562734
 6025 0174 00       		.byte	0
 6026 0175 00       		.byte	0
 6027 0176 0000     		.space	2
 6028 0178 0000003F 		.word	1056964608
 6029 017c 00002041 		.word	1092616192
 6030 0180 6666263F 		.word	1059481190
 6031 0184 6666E63F 		.word	1072064102
 6032 0188 00000000 		.word	0
 6033 018c 0000803F 		.word	1065353216
 6034 0190 0000803F 		.word	1065353216
 6035 0194 9A99193E 		.word	1041865114
 6036 0198 9A99193E 		.word	1041865114
 6037 019c 0000A040 		.word	1084227584
 6038 01a0 0000AF43 		.word	1135542272
 6039 01a4 0000C841 		.word	1103626240
 6040 01a8 00000000 		.space	44
 6040      00000000 
 6040      00000000 
 6040      00000000 
 6040      00000000 
 6041 01d4 1C000000 		.word	.LC3
 6042 01d8 00002042 		.word	1109393408
ARM GAS  /tmp/claude-502/ccU8FNgW.s 			page 138


 6043 01dc 00002043 		.word	1126170624
 6044 01e0 F371B13F 		.word	1068593651
 6045 01e4 0000803F 		.word	1065353216
 6046 01e8 CDCCCC3E 		.word	1053609165
 6047 01ec 03       		.byte	3
 6048 01ed 000000   		.space	3
 6049 01f0 9FC8BF3F 		.word	1069533343
 6050 01f4 B81E853E 		.word	1048911544
 6051 01f8 02       		.byte	2
 6052 01f9 000000   		.space	3
 6053 01fc 0000003F 		.word	1056964608
 6054 0200 0AD7A33E 		.word	1050924810
 6055 0204 01       		.byte	1
 6056 0205 000000   		.space	3
 6057 0208 00000040 		.word	1073741824
 6058 020c EC51383E 		.word	1043878380
 6059 0210 03       		.byte	3
 6060 0211 00       		.byte	0
 6061 0212 0000     		.space	2
 6062 0214 CDCC4C3E 		.word	1045220557
 6063 0218 00005041 		.word	1095761920
 6064 021c 85EB513F 		.word	1062333317
 6065 0220 CDCC0C40 		.word	1074580685
 6066 0224 00000000 		.word	0
 6067 0228 0000803F 		.word	1065353216
 6068 022c 0000803F 		.word	1065353216
 6069 0230 CDCC4C3E 		.word	1045220557
 6070 0234 CDCC4C3E 		.word	1045220557
 6071 0238 00004040 		.word	1077936128
 6072 023c 00007A43 		.word	1132068864
 6073 0240 00009041 		.word	1099956224
 6074 0244 00000000 		.space	44
 6074      00000000 
 6074      00000000 
 6074      00000000 
 6074      00000000 
 6075 0270 28000000 		.word	.LC4
 6076 0274 00008242 		.word	1115815936
 6077 0278 00000244 		.word	1140981760
 6078 027c 8C150540 		.word	1074075020
 6079 0280 0000803F 		.word	1065353216
 6080 0284 6666E63E 		.word	1055286886
 6081 0288 01       		.byte	1
 6082 0289 000000   		.space	3
 6083 028c D7A3803F 		.word	1065395159
 6084 0290 CDCCCC3E 		.word	1053609165
 6085 0294 01       		.byte	1
 6086 0295 000000   		.space	3
 6087 0298 0000003F 		.word	1056964608
 6088 029c 9A99993E 		.word	1050253722
 6089 02a0 01       		.byte	1
 6090 02a1 000000   		.space	3
 6091 02a4 00000040 		.word	1073741824
 6092 02a8 295C8F3E 		.word	1049582633
 6093 02ac 01       		.byte	1
 6094 02ad 00       		.byte	0
 6095 02ae 0000     		.space	2
ARM GAS  /tmp/claude-502/ccU8FNgW.s 			page 139


 6096 02b0 00000040 		.word	1073741824
 6097 02b4 0000A040 		.word	1084227584
 6098 02b8 CDCC4C3E 		.word	1045220557
 6099 02bc CDCC4C3F 		.word	1061997773
 6100 02c0 8FC2F53C 		.word	1022739087
 6101 02c4 0000803F 		.word	1065353216
 6102 02c8 0000803F 		.word	1065353216
 6103 02cc CDCC4C3D 		.word	1028443341
 6104 02d0 00000000 		.word	0
 6105 02d4 00000041 		.word	1090519040
 6106 02d8 0000F042 		.word	1123024896
 6107 02dc 00000041 		.word	1090519040
 6108 02e0 00000000 		.word	0
 6109 02e4 00000000 		.word	0
 6110 02e8 00000000 		.word	0
 6111 02ec 00       		.byte	0
 6112 02ed 000000   		.space	3
 6113 02f0 00000000 		.word	0
 6114 02f4 00000000 		.word	0
 6115 02f8 01       		.byte	1
 6116 02f9 000000   		.space	3
 6117 02fc 00000000 		.word	_ZL11SCALE_MINOR
 6118 0300 07000000 		.word	7
 6119 0304 00000000 		.space	8
 6119      00000000 
 6120 030c 30000000 		.word	.LC5
 6121 0310 0000B442 		.word	1119092736
 6122 0314 00003444 		.word	1144258560
 6123 0318 8C150540 		.word	1074075020
 6124 031c 0000803F 		.word	1065353216
 6125 0320 3D0AD73E 		.word	1054280253
 6126 0324 03       		.byte	3
 6127 0325 000000   		.space	3
 6128 0328 2506813F 		.word	1065420325
 6129 032c 5C8FC23E 		.word	1052938076
 6130 0330 03       		.byte	3
 6131 0331 000000   		.space	3
 6132 0334 0000003F 		.word	1056964608
 6133 0338 CDCC4C3E 		.word	1045220557
 6134 033c 03       		.byte	3
 6135 033d 000000   		.space	3
 6136 0340 00000040 		.word	1073741824
 6137 0344 9A99993E 		.word	1050253722
 6138 0348 03       		.byte	3
 6139 0349 00       		.byte	0
 6140 034a 0000     		.space	2
 6141 034c 00004040 		.word	1077936128
 6142 0350 00003041 		.word	1093664768
 6143 0354 6666663F 		.word	1063675494
 6144 0358 00008040 		.word	1082130432
 6145 035c CDCC4C3D 		.word	1028443341
 6146 0360 0000803F 		.word	1065353216
 6147 0364 00002040 		.word	1075838976
 6148 0368 CDCCCC3E 		.word	1053609165
 6149 036c 9A99993E 		.word	1050253722
 6150 0370 00000040 		.word	1073741824
 6151 0374 00004843 		.word	1128792064
ARM GAS  /tmp/claude-502/ccU8FNgW.s 			page 140


 6152 0378 00000C42 		.word	1108082688
 6153 037c 00000000 		.space	44
 6153      00000000 
 6153      00000000 
 6153      00000000 
 6153      00000000 
 6154 03a8 38000000 		.word	.LC6
 6155 03ac 0000A042 		.word	1117782016
 6156 03b0 0000A043 		.word	1134559232
 6157 03b4 F371B13F 		.word	1068593651
 6158 03b8 0000803F 		.word	1065353216
 6159 03bc CDCCCC3E 		.word	1053609165
 6160 03c0 03       		.byte	3
 6161 03c1 000000   		.space	3
 6162 03c4 9FC8BF3F 		.word	1069533343
 6163 03c8 9A99993E 		.word	1050253722
 6164 03cc 03       		.byte	3
 6165 03cd 000000   		.space	3
 6166 03d0 0000003F 		.word	1056964608
 6167 03d4 AE47613E 		.word	1046562734
 6168 03d8 03       		.byte	3
 6169 03d9 000000   		.space	3
 6170 03dc 00000040 		.word	1073741824
 6171 03e0 EC51383E 		.word	1043878380
 6172 03e4 03       		.byte	3
 6173 03e5 00       		.byte	0
 6174 03e6 0000     		.space	2
 6175 03e8 0000C03F 		.word	1069547520
 6176 03ec 0000C040 		.word	1086324736
 6177 03f0 3D0AD73E 		.word	1054280253
 6178 03f4 66666640 		.word	1080452710
 6179 03f8 8FC2F53C 		.word	1022739087
 6180 03fc 0000803F 		.word	1065353216
 6181 0400 0000803F 		.word	1065353216
 6182 0404 8FC2F53D 		.word	1039516303
 6183 0408 9A99193E 		.word	1041865114
 6184 040c 00004040 		.word	1077936128
 6185 0410 00008C43 		.word	1133248512
 6186 0414 00000041 		.word	1090519040
 6187 0418 8FC2F53D 		.word	1039516303
 6188 041c 00009041 		.word	1099956224
 6189 0420 00000000 		.word	0
 6190 0424 00       		.byte	0
 6191 0425 000000   		.space	3
 6192 0428 00000000 		.word	0
 6193 042c 00000000 		.word	0
 6194 0430 01       		.byte	1
 6195 0431 000000   		.space	3
 6196 0434 00000000 		.word	_ZL11SCALE_MAJOR
 6197 0438 07000000 		.word	7
 6198 043c 00009644 		.word	1150681088
 6199 0440 00000000 		.word	0
 6200 0444 40000000 		.word	.LC7
 6201 0448 00008C42 		.word	1116471296
 6202 044c 00000C44 		.word	1141637120
 6203 0450 8C150540 		.word	1074075020
 6204 0454 0000803F 		.word	1065353216
ARM GAS  /tmp/claude-502/ccU8FNgW.s 			page 141


 6205 0458 0AD7A33E 		.word	1050924810
 6206 045c 03       		.byte	3
 6207 045d 000000   		.space	3
 6208 0460 9CC4803F 		.word	1065403548
 6209 0464 9A99993E 		.word	1050253722
 6210 0468 03       		.byte	3
 6211 0469 000000   		.space	3
 6212 046c 0000003F 		.word	1056964608
 6213 0470 AE47613E 		.word	1046562734
 6214 0474 00       		.byte	0
 6215 0475 000000   		.space	3
 6216 0478 00000040 		.word	1073741824
 6217 047c EC51383E 		.word	1043878380
 6218 0480 01       		.byte	1
 6219 0481 00       		.byte	0
 6220 0482 0000     		.space	2
 6221 0484 9A99993F 		.word	1067030938
 6222 0488 00004040 		.word	1077936128
 6223 048c CDCC4C3E 		.word	1045220557
 6224 0490 9A99193F 		.word	1058642330
 6225 0494 8FC2753C 		.word	1014350479
 6226 0498 0000803F 		.word	1065353216
 6227 049c 0000803F 		.word	1065353216
 6228 04a0 00000000 		.word	0
 6229 04a4 0AD7A33D 		.word	1034147594
 6230 04a8 00800945 		.word	1158250496
 6231 04ac 0000FA44 		.word	1157234688
 6232 04b0 0000A042 		.word	1117782016
 6233 04b4 00000000 		.space	44
 6233      00000000 
 6233      00000000 
 6233      00000000 
 6233      00000000 
 6234 04e0 44000000 		.word	.LC8
 6235 04e4 00002042 		.word	1109393408
 6236 04e8 0000C843 		.word	1137180672
 6237 04ec A25D1340 		.word	1075010978
 6238 04f0 0000803F 		.word	1065353216
 6239 04f4 AE47613E 		.word	1046562734
 6240 04f8 01       		.byte	1
 6241 04f9 000000   		.space	3
 6242 04fc CDCCCC3F 		.word	1070386381
 6243 0500 9A99193E 		.word	1041865114
 6244 0504 01       		.byte	1
 6245 0505 000000   		.space	3
 6246 0508 0000003F 		.word	1056964608
 6247 050c CDCCCC3D 		.word	1036831949
 6248 0510 01       		.byte	1
 6249 0511 000000   		.space	3
 6250 0514 00000040 		.word	1073741824
 6251 0518 00000000 		.word	0
 6252 051c 01       		.byte	1
 6253 051d 00       		.byte	0
 6254 051e 0000     		.space	2
 6255 0520 00004040 		.word	1077936128
 6256 0524 00004040 		.word	1077936128
 6257 0528 9A99993E 		.word	1050253722
ARM GAS  /tmp/claude-502/ccU8FNgW.s 			page 142


 6258 052c 0000C03F 		.word	1069547520
 6259 0530 3333333F 		.word	1060320051
 6260 0534 9A99993E 		.word	1050253722
 6261 0538 0000803F 		.word	1065353216
 6262 053c 00000000 		.word	0
 6263 0540 CDCCCC3D 		.word	1036831949
 6264 0544 0000803F 		.word	1065353216
 6265 0548 00001643 		.word	1125515264
 6266 054c 0000A040 		.word	1084227584
 6267 0550 0000803F 		.word	1065353216
 6268 0554 0000A042 		.word	1117782016
 6269 0558 00000000 		.word	0
 6270 055c 01       		.byte	1
 6271 055d 000000   		.space	3
 6272 0560 9A99593F 		.word	1062836634
 6273 0564 0000C843 		.word	1137180672
 6274 0568 00000000 		.space	20
 6274      00000000 
 6274      00000000 
 6274      00000000 
 6274      00000000 
 6275 057c 48000000 		.word	.LC9
 6276 0580 0000F041 		.word	1106247680
 6277 0584 0000A042 		.word	1117782016
 6278 0588 AD177B3F 		.word	1065031597
 6279 058c 0000803F 		.word	1065353216
 6280 0590 CDCC0C3F 		.word	1057803469
 6281 0594 01       		.byte	1
 6282 0595 000000   		.space	3
 6283 0598 00000040 		.word	1073741824
 6284 059c CDCCCC3D 		.word	1036831949
 6285 05a0 01       		.byte	1
 6286 05a1 000000   		.space	3
 6287 05a4 0000003F 		.word	1056964608
 6288 05a8 9A99193E 		.word	1041865114
 6289 05ac 01       		.byte	1
 6290 05ad 000000   		.space	3
 6291 05b0 00000040 		.word	1073741824
 6292 05b4 00000000 		.word	0
 6293 05b8 01       		.byte	1
 6294 05b9 00       		.byte	0
 6295 05ba 0000     		.space	2
 6296 05bc 00004040 		.word	1077936128
 6297 05c0 00000040 		.word	1073741824
 6298 05c4 CDCC4C3E 		.word	1045220557
 6299 05c8 6666E63F 		.word	1072064102
 6300 05cc 0AD7A33D 		.word	1034147594
 6301 05d0 0000003F 		.word	1056964608
 6302 05d4 0000803F 		.word	1065353216
 6303 05d8 00000000 		.word	0
 6304 05dc 00000000 		.word	0
 6305 05e0 0000803F 		.word	1065353216
 6306 05e4 00002043 		.word	1126170624
 6307 05e8 0000A040 		.word	1084227584
 6308 05ec 00000040 		.word	1073741824
 6309 05f0 00003442 		.word	1110704128
 6310 05f4 00000000 		.word	0
ARM GAS  /tmp/claude-502/ccU8FNgW.s 			page 143


 6311 05f8 01       		.byte	1
 6312 05f9 000000   		.space	3
 6313 05fc 9A99593F 		.word	1062836634
 6314 0600 0000C843 		.word	1137180672
 6315 0604 00000000 		.space	20
 6315      00000000 
 6315      00000000 
 6315      00000000 
 6315      00000000 
 6316 0618 50000000 		.word	.LC10
 6317 061c 00001643 		.word	1125515264
 6318 0620 0000FA43 		.word	1140457472
 6319 0624 B01B9A3F 		.word	1067064240
 6320 0628 0000803F 		.word	1065353216
 6321 062c 9A99193E 		.word	1041865114
 6322 0630 01       		.byte	1
 6323 0631 000000   		.space	3
 6324 0634 6666E63F 		.word	1072064102
 6325 0638 8FC2F53D 		.word	1039516303
 6326 063c 00       		.byte	0
 6327 063d 000000   		.space	3
 6328 0640 0000003F 		.word	1056964608
 6329 0644 CDCC4C3D 		.word	1028443341
 6330 0648 01       		.byte	1
 6331 0649 000000   		.space	3
 6332 064c 00000040 		.word	1073741824
 6333 0650 00000000 		.word	0
 6334 0654 01       		.byte	1
 6335 0655 00       		.byte	0
 6336 0656 0000     		.space	2
 6337 0658 00009041 		.word	1099956224
 6338 065c 00008040 		.word	1082130432
 6339 0660 9A99993E 		.word	1050253722
 6340 0664 0000C03F 		.word	1069547520
 6341 0668 EC51383F 		.word	1060655596
 6342 066c 9A99993E 		.word	1050253722
 6343 0670 0000803F 		.word	1065353216
 6344 0674 00000000 		.word	0
 6345 0678 CDCCCC3D 		.word	1036831949
 6346 067c 0000803F 		.word	1065353216
 6347 0680 00000C43 		.word	1124859904
 6348 0684 0000A040 		.word	1084227584
 6349 0688 3333333F 		.word	1060320051
 6350 068c 0000F041 		.word	1106247680
 6351 0690 00000000 		.word	0
 6352 0694 01       		.byte	1
 6353 0695 000000   		.space	3
 6354 0698 9A99593F 		.word	1062836634
 6355 069c 0000C843 		.word	1137180672
 6356 06a0 00000000 		.space	20
 6356      00000000 
 6356      00000000 
 6356      00000000 
 6356      00000000 
 6357 06b4 58000000 		.word	.LC11
 6358 06b8 00007A45 		.word	1165623296
 6359 06bc 00E02B46 		.word	1177280512
ARM GAS  /tmp/claude-502/ccU8FNgW.s 			page 144


 6360 06c0 1C7C813F 		.word	1065450524
 6361 06c4 0000803F 		.word	1065353216
 6362 06c8 CDCCCC3D 		.word	1036831949
 6363 06cc 02       		.byte	2
 6364 06cd 000000   		.space	3
 6365 06d0 3D0AD73F 		.word	1071057469
 6366 06d4 0AD7A33D 		.word	1034147594
 6367 06d8 02       		.byte	2
 6368 06d9 000000   		.space	3
 6369 06dc 0000003F 		.word	1056964608
 6370 06e0 00000000 		.word	0
 6371 06e4 01       		.byte	1
 6372 06e5 000000   		.space	3
 6373 06e8 00000040 		.word	1073741824
 6374 06ec 8FC2753D 		.word	1031127695
 6375 06f0 02       		.byte	2
 6376 06f1 00       		.byte	0
 6377 06f2 0000     		.space	2
 6378 06f4 0000C841 		.word	1103626240
 6379 06f8 00000040 		.word	1073741824
 6380 06fc CDCC4C3E 		.word	1045220557
 6381 0700 9A99993F 		.word	1067030938
 6382 0704 CDCC4C3F 		.word	1061997773
 6383 0708 CDCC4C3E 		.word	1045220557
 6384 070c 0000803F 		.word	1065353216
 6385 0710 00000000 		.word	0
 6386 0714 CDCC4C3D 		.word	1028443341
 6387 0718 0000803F 		.word	1065353216
 6388 071c 00002043 		.word	1126170624
 6389 0720 00004040 		.word	1077936128
 6390 0724 00000000 		.word	0
 6391 0728 00000000 		.word	0
 6392 072c 0000803F 		.word	1065353216
 6393 0730 01       		.byte	1
 6394 0731 000000   		.space	3
 6395 0734 9A99593F 		.word	1062836634
 6396 0738 0000C843 		.word	1137180672
 6397 073c 00000000 		.space	20
 6397      00000000 
 6397      00000000 
 6397      00000000 
 6397      00000000 
 6398 0750 60000000 		.word	.LC12
 6399 0754 00002042 		.word	1109393408
 6400 0758 0000C843 		.word	1137180672
 6401 075c A25D1340 		.word	1075010978
 6402 0760 0000803F 		.word	1065353216
 6403 0764 3D0AD73E 		.word	1054280253
 6404 0768 03       		.byte	3
 6405 0769 000000   		.space	3
 6406 076c 0000803F 		.word	1065353216
 6407 0770 295C8F3E 		.word	1049582633
 6408 0774 02       		.byte	2
 6409 0775 000000   		.space	3
 6410 0778 0000003F 		.word	1056964608
 6411 077c CDCCCC3E 		.word	1053609165
 6412 0780 02       		.byte	2
ARM GAS  /tmp/claude-502/ccU8FNgW.s 			page 145


 6413 0781 000000   		.space	3
 6414 0784 00000040 		.word	1073741824
 6415 0788 00000000 		.word	0
 6416 078c 02       		.byte	2
 6417 078d 00       		.byte	0
 6418 078e 0000     		.space	2
 6419 0790 CDCC4C3F 		.word	1061997773
 6420 0794 00001041 		.word	1091567616
 6421 0798 CDCC4C3F 		.word	1061997773
 6422 079c 6666E63F 		.word	1072064102
 6423 07a0 0AD7A33C 		.word	1017370378
 6424 07a4 0000803F 		.word	1065353216
 6425 07a8 0000803F 		.word	1065353216
 6426 07ac CDCCCC3D 		.word	1036831949
 6427 07b0 8FC2F53D 		.word	1039516303
 6428 07b4 00000040 		.word	1073741824
 6429 07b8 00005C43 		.word	1130102784
 6430 07bc 0000F041 		.word	1106247680
 6431 07c0 00000000 		.word	0
 6432 07c4 00000000 		.word	0
 6433 07c8 00000000 		.word	0
 6434 07cc 00       		.byte	0
 6435 07cd 000000   		.space	3
 6436 07d0 00000000 		.word	0
 6437 07d4 00000000 		.word	0
 6438 07d8 01       		.byte	1
 6439 07d9 000000   		.space	3
 6440 07dc 00000000 		.word	_ZL15SCALE_CHROMATIC
 6441 07e0 0C000000 		.word	12
 6442 07e4 00000000 		.word	0
 6443 07e8 00000000 		.word	0
 6444 07ec 68000000 		.word	.LC13
 6445 07f0 0000F041 		.word	1106247680
 6446 07f4 0000A042 		.word	1117782016
 6447 07f8 AD177B3F 		.word	1065031597
 6448 07fc 0000803F 		.word	1065353216
 6449 0800 CDCC0C3F 		.word	1057803469
 6450 0804 01       		.byte	1
 6451 0805 000000   		.space	3
 6452 0808 0000803F 		.word	1065353216
 6453 080c 00000000 		.word	0
 6454 0810 01       		.byte	1
 6455 0811 000000   		.space	3
 6456 0814 0000003F 		.word	1056964608
 6457 0818 00000000 		.word	0
 6458 081c 01       		.byte	1
 6459 081d 000000   		.space	3
 6460 0820 00000040 		.word	1073741824
 6461 0824 00000000 		.word	0
 6462 0828 01       		.byte	1
 6463 0829 00       		.byte	0
 6464 082a 0000     		.space	2
 6465 082c 00004040 		.word	1077936128
 6466 0830 00000040 		.word	1073741824
 6467 0834 CDCC4C3E 		.word	1045220557
 6468 0838 0000803F 		.word	1065353216
 6469 083c 00000000 		.word	0
ARM GAS  /tmp/claude-502/ccU8FNgW.s 			page 146


 6470 0840 0000003F 		.word	1056964608
 6471 0844 0000803F 		.word	1065353216
 6472 0848 00000000 		.word	0
 6473 084c 00000000 		.word	0
 6474 0850 0000803F 		.word	1065353216
 6475 0854 00002043 		.word	1126170624
 6476 0858 0000A040 		.word	1084227584
 6477 085c 00000000 		.word	0
 6478 0860 00000000 		.word	0
 6479 0864 00000000 		.word	0
 6480 0868 00000000 		.space	32
 6480      00000000 
 6480      00000000 
 6480      00000000 
 6480      00000000 
 6481              		.text
 6482              	.Letext0:
 6483              		.file 3 "/Library/DaisyToolchain/0.2.0/arm/arm-none-eabi/include/machine/_default_types.h"
 6484              		.file 4 "/Library/DaisyToolchain/0.2.0/arm/arm-none-eabi/include/sys/_stdint.h"
 6485              		.file 5 "/Library/DaisyToolchain/0.2.0/arm/arm-none-eabi/include/stdint.h"
 6486              		.file 6 "/Library/DaisyToolchain/0.2.0/arm/lib/gcc/arm-none-eabi/10.3.1/include/stddef.h"
 6487              		.file 7 "/Library/DaisyToolchain/0.2.0/arm/arm-none-eabi/include/c++/10.3.1/cmath"
 6488              		.file 8 "/Library/DaisyToolchain/0.2.0/arm/arm-none-eabi/include/c++/10.3.1/bits/std_abs.h"
 6489              		.file 9 "/Library/DaisyToolchain/0.2.0/arm/arm-none-eabi/include/c++/10.3.1/cstdlib"
 6490              		.file 10 "/Library/DaisyToolchain/0.2.0/arm/arm-none-eabi/include/c++/10.3.1/cstdint"
 6491              		.file 11 "/Library/DaisyToolchain/0.2.0/arm/arm-none-eabi/include/c++/10.3.1/type_traits"
 6492              		.file 12 "/Library/DaisyToolchain/0.2.0/arm/arm-none-eabi/include/c++/10.3.1/debug/debug.h"
 6493              		.file 13 "/Library/DaisyToolchain/0.2.0/arm/arm-none-eabi/include/c++/10.3.1/arm-none-eabi/thumb/v
 6494              		.file 14 "/Library/DaisyToolchain/0.2.0/arm/arm-none-eabi/include/c++/10.3.1/bits/algorithmfwd.h"
 6495              		.file 15 "/Library/DaisyToolchain/0.2.0/arm/arm-none-eabi/include/c++/10.3.1/bits/stl_pair.h"
 6496              		.file 16 "/Library/DaisyToolchain/0.2.0/arm/arm-none-eabi/include/c++/10.3.1/bits/exception_ptr.h"
 6497              		.file 17 "/Library/DaisyToolchain/0.2.0/arm/arm-none-eabi/include/c++/10.3.1/cstdarg"
 6498              		.file 18 "/Library/DaisyToolchain/0.2.0/arm/arm-none-eabi/include/c++/10.3.1/cstdio"
 6499              		.file 19 "/Library/DaisyToolchain/0.2.0/arm/arm-none-eabi/include/c++/10.3.1/cstring"
 6500              		.file 20 "/Library/DaisyToolchain/0.2.0/arm/arm-none-eabi/include/c++/10.3.1/bits/predefined_ops.h
 6501              		.file 21 "/Library/DaisyToolchain/0.2.0/arm/arm-none-eabi/include/sys/_types.h"
 6502              		.file 22 "/Library/DaisyToolchain/0.2.0/arm/arm-none-eabi/include/sys/reent.h"
 6503              		.file 23 "/Library/DaisyToolchain/0.2.0/arm/arm-none-eabi/include/sys/lock.h"
 6504              		.file 24 "/Library/DaisyToolchain/0.2.0/arm/arm-none-eabi/include/math.h"
 6505              		.file 25 "/Library/DaisyToolchain/0.2.0/arm/arm-none-eabi/include/stdlib.h"
 6506              		.file 26 "/Library/DaisyToolchain/0.2.0/arm/arm-none-eabi/include/c++/10.3.1/math.h"
 6507              		.file 27 "/Library/DaisyToolchain/0.2.0/arm/arm-none-eabi/include/c++/10.3.1/stdlib.h"
 6508              		.file 28 "/Users/reza.kalfane/Workspaces/Daisy/DaisyExamples/libDaisy/src/daisy_core.h"
 6509              		.file 29 "/Users/reza.kalfane/Workspaces/Daisy/DaisyExamples/libDaisy/src/per/tim.h"
 6510              		.file 30 "/Users/reza.kalfane/Workspaces/Daisy/DaisyExamples/libDaisy/src/sys/system.h"
 6511              		.file 31 "/Users/reza.kalfane/Workspaces/Daisy/DaisyExamples/libDaisy/src/per/qspi.h"
 6512              		.file 32 "/Users/reza.kalfane/Workspaces/Daisy/DaisyExamples/libDaisy/src/per/dac.h"
 6513              		.file 33 "/Users/reza.kalfane/Workspaces/Daisy/DaisyExamples/libDaisy/src/per/gpio.h"
 6514              		.file 34 "/Users/reza.kalfane/Workspaces/Daisy/DaisyExamples/libDaisy/src/per/sai.h"
 6515              		.file 35 "/Users/reza.kalfane/Workspaces/Daisy/DaisyExamples/libDaisy/src/hid/audio.h"
 6516              		.file 36 "/Users/reza.kalfane/Workspaces/Daisy/DaisyExamples/libDaisy/src/per/adc.h"
 6517              		.file 37 "/Users/reza.kalfane/Workspaces/Daisy/DaisyExamples/libDaisy/src/hid/usb.h"
 6518              		.file 38 "/Users/reza.kalfane/Workspaces/Daisy/DaisyExamples/libDaisy/src/util/wav_format.h"
 6519              		.file 39 "/Users/reza.kalfane/Workspaces/Daisy/DaisyExamples/libDaisy/src/dev/max11300.h"
 6520              		.file 40 "/Users/reza.kalfane/Workspaces/Daisy/DaisyExamples/libDaisy/src/daisy_seed.h"
 6521              		.file 41 "/Users/reza.kalfane/Workspaces/Daisy/DaisyExamples/libDaisy/src/dev/sdram.h"
 6522              		.file 42 "/Library/DaisyToolchain/0.2.0/arm/lib/gcc/arm-none-eabi/10.3.1/include/stdarg.h"
ARM GAS  /tmp/claude-502/ccU8FNgW.s 			page 147


 6523              		.file 43 "/Library/DaisyToolchain/0.2.0/arm/arm-none-eabi/include/stdio.h"
 6524              		.file 44 "/Library/DaisyToolchain/0.2.0/arm/arm-none-eabi/include/string.h"
 6525              		.file 45 "src/voice.h"
 6526              		.file 46 "/Users/reza.kalfane/Workspaces/Daisy/DaisyExamples/libDaisy/src/dev/sr_595.h"
 6527              		.file 47 "src/touch.h"
 6528              		.file 48 "src/engine.h"
 6529              		.file 49 "<built-in>"
ARM GAS  /tmp/claude-502/ccU8FNgW.s 			page 148


DEFINED SYMBOLS
                            *ABS*:0000000000000000 engine.cpp
/tmp/claude-502/ccU8FNgW.s:19     .text._Z12drum_triggerR7DrumHitifffff:0000000000000000 $t
/tmp/claude-502/ccU8FNgW.s:26     .text._Z12drum_triggerR7DrumHitifffff:0000000000000000 _Z12drum_triggerR7DrumHitifffff
/tmp/claude-502/ccU8FNgW.s:321    .text._Z12drum_triggerR7DrumHitifffff:0000000000000144 $d
/tmp/claude-502/ccU8FNgW.s:331    .text._Z13AudioCallbackPKPKfPPfj:0000000000000000 $t
/tmp/claude-502/ccU8FNgW.s:338    .text._Z13AudioCallbackPKPKfPPfj:0000000000000000 _Z13AudioCallbackPKPKfPPfj
/tmp/claude-502/ccU8FNgW.s:847    .text._Z13AudioCallbackPKPKfPPfj:0000000000000230 $d
/tmp/claude-502/ccU8FNgW.s:883    .text._Z13AudioCallbackPKPKfPPfj:00000000000002b0 $t
/tmp/claude-502/ccU8FNgW.s:1057   .text._Z13AudioCallbackPKPKfPPfj:00000000000003c8 $d
/tmp/claude-502/ccU8FNgW.s:1086   .text._Z13AudioCallbackPKPKfPPfj:0000000000000428 $t
/tmp/claude-502/ccU8FNgW.s:2398   .text._Z13AudioCallbackPKPKfPPfj:0000000000000b00 $d
/tmp/claude-502/ccU8FNgW.s:2422   .text._Z13AudioCallbackPKPKfPPfj:0000000000000b58 $t
/tmp/claude-502/ccU8FNgW.s:3329   .text._Z13AudioCallbackPKPKfPPfj:0000000000000ee8 $d
/tmp/claude-502/ccU8FNgW.s:3368   .text._Z13AudioCallbackPKPKfPPfj:0000000000000f38 $t
/tmp/claude-502/ccU8FNgW.s:4666   .text._Z13AudioCallbackPKPKfPPfj:0000000000001454 $d
/tmp/claude-502/ccU8FNgW.s:4696   .text._Z13AudioCallbackPKPKfPPfj:0000000000001484 $t
/tmp/claude-502/ccU8FNgW.s:5459   .text._Z13AudioCallbackPKPKfPPfj:0000000000001830 $d
/tmp/claude-502/ccU8FNgW.s:5802   .data.g_hits:0000000000000000 g_hits
/tmp/claude-502/ccU8FNgW.s:5892   .data.g_master_vol:0000000000000000 g_master_vol
/tmp/claude-502/ccU8FNgW.s:5712   .bss.g_led3_duty:0000000000000000 g_led3_duty
/tmp/claude-502/ccU8FNgW.s:5718   .bss.g_retrig:0000000000000000 g_retrig
/tmp/claude-502/ccU8FNgW.s:5693   .bss.g_amp_target:0000000000000000 g_amp_target
/tmp/claude-502/ccU8FNgW.s:5705   .bss.g_finger_on:0000000000000000 g_finger_on
/tmp/claude-502/ccU8FNgW.s:5725   .bss.g_ringmod:0000000000000000 g_ringmod
/tmp/claude-502/ccU8FNgW.s:5700   .bss.g_bitcrush:0000000000000000 g_bitcrush
/tmp/claude-502/ccU8FNgW.s:5739   .bss.g_vibrato_depth:0000000000000000 g_vibrato_depth
/tmp/claude-502/ccU8FNgW.s:5906   .data.g_target_drive:0000000000000000 g_target_drive
/tmp/claude-502/ccU8FNgW.s:5732   .bss.g_target_detune:0000000000000000 g_target_detune
/tmp/claude-502/ccU8FNgW.s:5899   .data.g_target_cutoff:0000000000000000 g_target_cutoff
/tmp/claude-502/ccU8FNgW.s:5913   .data.g_target_freq:0000000000000000 g_target_freq
/tmp/claude-502/ccU8FNgW.s:5479   .rodata.str1.4:0000000000000000 $d
/tmp/claude-502/ccU8FNgW.s:5522   .bss._ZL10s_bitcrush:0000000000000000 $d
/tmp/claude-502/ccU8FNgW.s:5526   .bss._ZL10s_bitcrush:0000000000000000 _ZL10s_bitcrush
/tmp/claude-502/ccU8FNgW.s:5529   .bss._ZL10s_noise_lp:0000000000000000 $d
/tmp/claude-502/ccU8FNgW.s:5533   .bss._ZL10s_noise_lp:0000000000000000 _ZL10s_noise_lp
/tmp/claude-502/ccU8FNgW.s:5536   .bss._ZL10s_phase_rm:0000000000000000 $d
/tmp/claude-502/ccU8FNgW.s:5540   .bss._ZL10s_phase_rm:0000000000000000 _ZL10s_phase_rm
/tmp/claude-502/ccU8FNgW.s:5543   .bss._ZL10s_vibdepth:0000000000000000 $d
/tmp/claude-502/ccU8FNgW.s:5547   .bss._ZL10s_vibdepth:0000000000000000 _ZL10s_vibdepth
/tmp/claude-502/ccU8FNgW.s:5550   .bss._ZL11s_lfo_phase:0000000000000000 $d
/tmp/claude-502/ccU8FNgW.s:5554   .bss._ZL11s_lfo_phase:0000000000000000 _ZL11s_lfo_phase
/tmp/claude-502/ccU8FNgW.s:5557   .bss._ZL11s_phase_oct:0000000000000000 $d
/tmp/claude-502/ccU8FNgW.s:5561   .bss._ZL11s_phase_oct:0000000000000000 _ZL11s_phase_oct
/tmp/claude-502/ccU8FNgW.s:5564   .bss._ZL11s_phase_sub:0000000000000000 $d
/tmp/claude-502/ccU8FNgW.s:5568   .bss._ZL11s_phase_sub:0000000000000000 _ZL11s_phase_sub
/tmp/claude-502/ccU8FNgW.s:5571   .bss._ZL5s_amp:0000000000000000 $d
/tmp/claude-502/ccU8FNgW.s:5575   .bss._ZL5s_amp:0000000000000000 _ZL5s_amp
/tmp/claude-502/ccU8FNgW.s:5578   .bss._ZL5s_flt:0000000000000000 $d
/tmp/claude-502/ccU8FNgW.s:5582   .bss._ZL5s_flt:0000000000000000 _ZL5s_flt
/tmp/claude-502/ccU8FNgW.s:5585   .bss._ZL8s_detune:0000000000000000 $d
/tmp/claude-502/ccU8FNgW.s:5589   .bss._ZL8s_detune:0000000000000000 _ZL8s_detune
/tmp/claude-502/ccU8FNgW.s:5592   .bss._ZL8s_phase1:0000000000000000 $d
/tmp/claude-502/ccU8FNgW.s:5596   .bss._ZL8s_phase1:0000000000000000 _ZL8s_phase1
/tmp/claude-502/ccU8FNgW.s:5599   .bss._ZL8s_phase2:0000000000000000 $d
/tmp/claude-502/ccU8FNgW.s:5603   .bss._ZL8s_phase2:0000000000000000 _ZL8s_phase2
/tmp/claude-502/ccU8FNgW.s:5606   .bss._ZL9s_ringmod:0000000000000000 $d
ARM GAS  /tmp/claude-502/ccU8FNgW.s 			page 149


/tmp/claude-502/ccU8FNgW.s:5610   .bss._ZL9s_ringmod:0000000000000000 _ZL9s_ringmod
/tmp/claude-502/ccU8FNgW.s:5616   .bss._ZZ13AudioCallbackPKPKfPPfjE10led3_state:0000000000000000 _ZZ13AudioCallbackPKPKfPPfjE10led3_state
/tmp/claude-502/ccU8FNgW.s:5617   .bss._ZZ13AudioCallbackPKPKfPPfjE10led3_state:0000000000000000 $d
/tmp/claude-502/ccU8FNgW.s:5619   .bss._ZZ13AudioCallbackPKPKfPPfjE11pwm_counter:0000000000000000 $d
/tmp/claude-502/ccU8FNgW.s:5623   .bss._ZZ13AudioCallbackPKPKfPPfjE11pwm_counter:0000000000000000 _ZZ13AudioCallbackPKPKfPPfjE11pwm_counter
/tmp/claude-502/ccU8FNgW.s:5626   .bss._ZZ13AudioCallbackPKPKfPPfjE11s_prev_tamp:0000000000000000 $d
/tmp/claude-502/ccU8FNgW.s:5630   .bss._ZZ13AudioCallbackPKPKfPPfjE11s_prev_tamp:0000000000000000 _ZZ13AudioCallbackPKPKfPPfjE11s_prev_tamp
/tmp/claude-502/ccU8FNgW.s:5633   .bss._ZZ13AudioCallbackPKPKfPPfjE12s_penv_start:0000000000000000 $d
/tmp/claude-502/ccU8FNgW.s:5637   .bss._ZZ13AudioCallbackPKPKfPPfjE12s_penv_start:0000000000000000 _ZZ13AudioCallbackPKPKfPPfjE12s_penv_start
/tmp/claude-502/ccU8FNgW.s:5640   .bss._ZZ13AudioCallbackPKPKfPPfjE16led3_duty_smooth:0000000000000000 $d
/tmp/claude-502/ccU8FNgW.s:5644   .bss._ZZ13AudioCallbackPKPKfPPfjE16led3_duty_smooth:0000000000000000 _ZZ13AudioCallbackPKPKfPPfjE16led3_duty_smooth
/tmp/claude-502/ccU8FNgW.s:5647   .bss._ZZ13AudioCallbackPKPKfPPfjE7s_atk_c:0000000000000000 $d
/tmp/claude-502/ccU8FNgW.s:5651   .bss._ZZ13AudioCallbackPKPKfPPfjE7s_atk_c:0000000000000000 _ZZ13AudioCallbackPKPKfPPfjE7s_atk_c
/tmp/claude-502/ccU8FNgW.s:5654   .bss._ZZ13AudioCallbackPKPKfPPfjE7s_rel_c:0000000000000000 $d
/tmp/claude-502/ccU8FNgW.s:5658   .bss._ZZ13AudioCallbackPKPKfPPfjE7s_rel_c:0000000000000000 _ZZ13AudioCallbackPKPKfPPfjE7s_rel_c
/tmp/claude-502/ccU8FNgW.s:5661   .bss._ZZ13AudioCallbackPKPKfPPfjE8s_penv_c:0000000000000000 $d
/tmp/claude-502/ccU8FNgW.s:5665   .bss._ZZ13AudioCallbackPKPKfPPfjE8s_penv_c:0000000000000000 _ZZ13AudioCallbackPKPKfPPfjE8s_penv_c
/tmp/claude-502/ccU8FNgW.s:5668   .bss._ZZ13AudioCallbackPKPKfPPfjE9s_decay_c:0000000000000000 $d
/tmp/claude-502/ccU8FNgW.s:5672   .bss._ZZ13AudioCallbackPKPKfPPfjE9s_decay_c:0000000000000000 _ZZ13AudioCallbackPKPKfPPfjE9s_decay_c
/tmp/claude-502/ccU8FNgW.s:5675   .bss._ZZ13AudioCallbackPKPKfPPfjE9s_glide_c:0000000000000000 $d
/tmp/claude-502/ccU8FNgW.s:5679   .bss._ZZ13AudioCallbackPKPKfPPfjE9s_glide_c:0000000000000000 _ZZ13AudioCallbackPKPKfPPfjE9s_glide_c
/tmp/claude-502/ccU8FNgW.s:5682   .bss._ZZ13AudioCallbackPKPKfPPfjE9s_sustain:0000000000000000 $d
/tmp/claude-502/ccU8FNgW.s:5686   .bss._ZZ13AudioCallbackPKPKfPPfjE9s_sustain:0000000000000000 _ZZ13AudioCallbackPKPKfPPfjE9s_sustain
/tmp/claude-502/ccU8FNgW.s:5689   .bss.g_amp_target:0000000000000000 $d
/tmp/claude-502/ccU8FNgW.s:5696   .bss.g_bitcrush:0000000000000000 $d
/tmp/claude-502/ccU8FNgW.s:5706   .bss.g_finger_on:0000000000000000 $d
/tmp/claude-502/ccU8FNgW.s:5708   .bss.g_led3_duty:0000000000000000 $d
/tmp/claude-502/ccU8FNgW.s:5719   .bss.g_retrig:0000000000000000 $d
/tmp/claude-502/ccU8FNgW.s:5721   .bss.g_ringmod:0000000000000000 $d
/tmp/claude-502/ccU8FNgW.s:5728   .bss.g_target_detune:0000000000000000 $d
/tmp/claude-502/ccU8FNgW.s:5735   .bss.g_vibrato_depth:0000000000000000 $d
/tmp/claude-502/ccU8FNgW.s:5742   .data._ZL11s_noise_rng:0000000000000000 $d
/tmp/claude-502/ccU8FNgW.s:5746   .data._ZL11s_noise_rng:0000000000000000 _ZL11s_noise_rng
/tmp/claude-502/ccU8FNgW.s:5749   .data._ZL12s_master_vol:0000000000000000 $d
/tmp/claude-502/ccU8FNgW.s:5753   .data._ZL12s_master_vol:0000000000000000 _ZL12s_master_vol
/tmp/claude-502/ccU8FNgW.s:5756   .data._ZL6s_freq:0000000000000000 $d
/tmp/claude-502/ccU8FNgW.s:5760   .data._ZL6s_freq:0000000000000000 _ZL6s_freq
/tmp/claude-502/ccU8FNgW.s:5763   .data._ZL7s_drive:0000000000000000 $d
/tmp/claude-502/ccU8FNgW.s:5767   .data._ZL7s_drive:0000000000000000 _ZL7s_drive
/tmp/claude-502/ccU8FNgW.s:5770   .data._ZL8s_cutoff:0000000000000000 $d
/tmp/claude-502/ccU8FNgW.s:5774   .data._ZL8s_cutoff:0000000000000000 _ZL8s_cutoff
/tmp/claude-502/ccU8FNgW.s:5777   .data._ZZ13AudioCallbackPKPKfPPfjE10s_coeff_vi:0000000000000000 $d
/tmp/claude-502/ccU8FNgW.s:5781   .data._ZZ13AudioCallbackPKPKfPPfjE10s_coeff_vi:0000000000000000 _ZZ13AudioCallbackPKPKfPPfjE10s_coeff_vi
/tmp/claude-502/ccU8FNgW.s:5784   .data._ZZ13AudioCallbackPKPKfPPfjE7s_decay:0000000000000000 $d
/tmp/claude-502/ccU8FNgW.s:5788   .data._ZZ13AudioCallbackPKPKfPPfjE7s_decay:0000000000000000 _ZZ13AudioCallbackPKPKfPPfjE7s_decay
/tmp/claude-502/ccU8FNgW.s:5791   .data._ZZ13AudioCallbackPKPKfPPfjE7s_pmult:0000000000000000 $d
/tmp/claude-502/ccU8FNgW.s:5795   .data._ZZ13AudioCallbackPKPKfPPfjE7s_pmult:0000000000000000 _ZZ13AudioCallbackPKPKfPPfjE7s_pmult
/tmp/claude-502/ccU8FNgW.s:5798   .data.g_hits:0000000000000000 $d
/tmp/claude-502/ccU8FNgW.s:5888   .data.g_master_vol:0000000000000000 $d
/tmp/claude-502/ccU8FNgW.s:5895   .data.g_target_cutoff:0000000000000000 $d
/tmp/claude-502/ccU8FNgW.s:5902   .data.g_target_drive:0000000000000000 $d
/tmp/claude-502/ccU8FNgW.s:5909   .data.g_target_freq:0000000000000000 $d
/tmp/claude-502/ccU8FNgW.s:5916   .rodata._ZL11SCALE_MAJOR:0000000000000000 $d
/tmp/claude-502/ccU8FNgW.s:5919   .rodata._ZL11SCALE_MAJOR:0000000000000000 _ZL11SCALE_MAJOR
/tmp/claude-502/ccU8FNgW.s:5922   .rodata._ZL11SCALE_MINOR:0000000000000000 $d
/tmp/claude-502/ccU8FNgW.s:5925   .rodata._ZL11SCALE_MINOR:0000000000000000 _ZL11SCALE_MINOR
/tmp/claude-502/ccU8FNgW.s:5928   .rodata._ZL15SCALE_CHROMATIC:0000000000000000 $d
ARM GAS  /tmp/claude-502/ccU8FNgW.s 			page 150


/tmp/claude-502/ccU8FNgW.s:5931   .rodata._ZL15SCALE_CHROMATIC:0000000000000000 _ZL15SCALE_CHROMATIC
/tmp/claude-502/ccU8FNgW.s:5934   .rodata._ZL6VOICES:0000000000000000 $d
/tmp/claude-502/ccU8FNgW.s:5938   .rodata._ZL6VOICES:0000000000000000 _ZL6VOICES

UNDEFINED SYMBOLS
expf
exp2f
_ZN5daisy9DaisySeed15AudioSampleRateEv
hw
g_active_voice
g_voice_idx
_ZN5daisy4GPIO5WriteEb
led3
