ARM GAS  /tmp/claude-502/ccjNbcJ1.s 			page 1


   1              		.cpu cortex-m7
   2              		.arch armv7e-m
   3              		.fpu fpv5-d16
   4              		.eabi_attribute 28, 1
   5              		.eabi_attribute 20, 1
   6              		.eabi_attribute 21, 1
   7              		.eabi_attribute 23, 3
   8              		.eabi_attribute 24, 1
   9              		.eabi_attribute 25, 1
  10              		.eabi_attribute 26, 1
  11              		.eabi_attribute 30, 2
  12              		.eabi_attribute 34, 1
  13              		.eabi_attribute 18, 4
  14              		.file	"engine.cpp"
  15              		.text
  16              	.Ltext0:
  17              		.cfi_sections	.debug_frame
  18              		.section	.text._Z12drum_triggerR7DrumHitifffff,"ax",%progbits
  19              		.align	1
  20              		.p2align 2,,3
  21              		.global	_Z12drum_triggerR7DrumHitifffff
  22              		.syntax unified
  23              		.thumb
  24              		.thumb_func
  26              	_Z12drum_triggerR7DrumHitifffff:
  27              	.LVL0:
  28              	.LFB2582:
  29              		.file 1 "src/engine.cpp"
   1:src/engine.cpp **** #include "engine.h"
   2:src/engine.cpp **** 
   3:src/engine.cpp **** using namespace daisy;
   4:src/engine.cpp **** using namespace daisy::seed;
   5:src/engine.cpp **** 
   6:src/engine.cpp **** volatile float g_target_freq    = 65.41f;
   7:src/engine.cpp **** volatile float g_target_cutoff  = 100.0f;  // starts dark, pressure opens it
   8:src/engine.cpp **** volatile float g_target_detune  = 0.0f;     // semitones osc2 offset
   9:src/engine.cpp **** volatile float g_target_drive   = 1.0f;     // waveshaper input gain
  10:src/engine.cpp **** volatile float g_vibrato_depth  = 0.0f;     // 0–1, LFO depth
  11:src/engine.cpp **** volatile float g_bitcrush       = 0.0f;     // 0–1, amount of crush
  12:src/engine.cpp **** volatile float g_ringmod        = 0.0f;     // 0–1, ring mod wet
  13:src/engine.cpp **** volatile bool  g_finger_on      = false;
  14:src/engine.cpp **** volatile float g_amp_target     = 0.0f;
  15:src/engine.cpp **** volatile bool  g_retrig         = false;    // mono: re-articulate the note (re-attack)
  16:src/engine.cpp **** volatile float g_led3_duty      = 0.0f;     // 0–1, sigma-delta'd to LED3 in audio cb
  17:src/engine.cpp **** volatile float g_master_vol     = 1.0f;     // 0–1, master volume from FSR on A1
  18:src/engine.cpp **** volatile float g_chord_ratio2   = 1.0f;     // chord 3rd  ratio vs root (1 = unison)
  19:src/engine.cpp **** volatile float g_chord_ratio3   = 1.0f;     // chord 5th  ratio vs root (1 = unison)
  20:src/engine.cpp **** 
  21:src/engine.cpp **** // ── Audio DSP state (audio callback only) ─────────────────
  22:src/engine.cpp **** static float s_freq      = 65.41f;
  23:src/engine.cpp **** static float s_cutoff    = 100.0f;
  24:src/engine.cpp **** static float s_detune    = 0.0f;
  25:src/engine.cpp **** static float s_drive     = 1.0f;
  26:src/engine.cpp **** static float s_vibdepth  = 0.0f;
  27:src/engine.cpp **** static float s_bitcrush  = 0.0f;
  28:src/engine.cpp **** static float s_ringmod   = 0.0f;
  29:src/engine.cpp **** static float s_amp       = 0.0f;
ARM GAS  /tmp/claude-502/ccjNbcJ1.s 			page 2


  30:src/engine.cpp **** static float s_master_vol= 1.0f;
  31:src/engine.cpp **** 
  32:src/engine.cpp **** static float s_phase1    = 0.0f;
  33:src/engine.cpp **** static float s_phase2    = 0.0f;
  34:src/engine.cpp **** static float s_phase_sub = 0.0f;
  35:src/engine.cpp **** static float s_phase_oct = 0.0f; // octave-up oscillator (2x freq)
  36:src/engine.cpp **** static float s_phase_rm  = 0.0f; // ring mod carrier phase
  37:src/engine.cpp **** static float s_lfo_phase = 0.0f;
  38:src/engine.cpp **** // Chord voices (Voice::chords): osc1+osc2 phases for the upper two triad notes.
  39:src/engine.cpp **** static float s_phase1b   = 0.0f, s_phase2b = 0.0f; // 3rd
  40:src/engine.cpp **** static float s_phase1c   = 0.0f, s_phase2c = 0.0f; // 5th
  41:src/engine.cpp **** // Level of each upper chord note relative to the root's osc levels. <1 keeps the
  42:src/engine.cpp **** // root a touch dominant and leaves the drive/filter some headroom (the chord can
  43:src/engine.cpp **** // pile up 3× the saw+pulse energy otherwise). 1.0 = equal weight (fatter, more
  44:src/engine.cpp **** // saturated through the drive/tanh).
  45:src/engine.cpp **** static constexpr float CHORD_UPPER_LEVEL = 0.9f;
  46:src/engine.cpp **** 
  47:src/engine.cpp **** // Moog ladder filter state
  48:src/engine.cpp **** static float s_flt[4]    = {0,0,0,0};
  49:src/engine.cpp **** 
  50:src/engine.cpp **** // White-noise generator state (xorshift32) for the per-voice noise oscillator.
  51:src/engine.cpp **** static uint32_t s_noise_rng = 0x1234567u;
  52:src/engine.cpp **** // One-pole low-pass state used to derive high-passed ("tsss") noise from white.
  53:src/engine.cpp **** static float    s_noise_lp  = 0.0f;
  54:src/engine.cpp **** // High-pass corner coefficient: higher = brighter/higher "tsss" for hi-hats.
  55:src/engine.cpp **** static constexpr float NOISE_HP_COEF = 0.8f;
  56:src/engine.cpp **** 
  57:src/engine.cpp **** // Slew rates (per sample at 48 kHz)
  58:src/engine.cpp **** // Lower value = faster response.
  59:src/engine.cpp **** // NOTE: pitch glide and the amp attack/release are now per-voice (see Voice
  60:src/engine.cpp **** // glide_ms / attack_ms / release_ms), converted to coefficients in the audio
  61:src/engine.cpp **** // callback. The constants below are the ones still shared by all voices.
  62:src/engine.cpp **** // Cutoff opening slew. The target is recomputed only at the touch-loop rate
  63:src/engine.cpp **** // (~12-16 Hz) and pressure is quantized to integer %, so a too-fast slew lets
  64:src/engine.cpp **** // each coarse step through as zipper/stair-stepping. ~35 ms interpolates across
  65:src/engine.cpp **** // those steps for a smooth filter sweep while still feeling responsive.
  66:src/engine.cpp **** static constexpr float SLEW_CUT    = 0.9994f; // filter cutoff — ~35 ms smooth
  67:src/engine.cpp **** static constexpr float SLEW_MISC   = 0.9900f; // drive/vib
  68:src/engine.cpp **** // Finger 2 — asymmetric attack/release
  69:src/engine.cpp **** static constexpr float SLEW_F2_A   = 0.9800f; // attack  (~10ms)
  70:src/engine.cpp **** static constexpr float SLEW_F2_R   = 0.9990f; // release (~200ms smooth fade)
  71:src/engine.cpp **** 
  72:src/engine.cpp **** 
  73:src/engine.cpp **** // Mono ladder using the shared global state (the monophonic melodic engine).
  74:src/engine.cpp **** static inline float moog(float in, float cutoff, float res, float sr)
  75:src/engine.cpp **** {
  76:src/engine.cpp ****     return moog_st(in, cutoff, res, sr, s_flt);
  77:src/engine.cpp **** }
  78:src/engine.cpp **** 
  79:src/engine.cpp **** DrumHit g_hits[POLY];
  80:src/engine.cpp **** 
  81:src/engine.cpp **** void drum_trigger(DrumHit& h, int vidx, float freq, float amp_tgt,
  82:src/engine.cpp ****                          float cutoff, float drive, float sr)
  83:src/engine.cpp **** {
  30              		.loc 1 83 1 view -0
  31              		.cfi_startproc
  32              		@ args = 0, pretend = 0, frame = 0
ARM GAS  /tmp/claude-502/ccjNbcJ1.s 			page 3


  33              		@ frame_needed = 0, uses_anonymous_args = 0
  84:src/engine.cpp ****     const Voice& V = VOICES[vidx];
  34              		.loc 1 84 5 view .LVU1
  85:src/engine.cpp ****     h.active=true; h.gate=true; h.vidx=vidx;
  86:src/engine.cpp ****     h.freq=freq; h.amp_tgt=amp_tgt; h.cutoff=cutoff; h.drive=drive;
  87:src/engine.cpp ****     h.ph1=h.ph2=h.phs=h.pho=0.0f;
  88:src/engine.cpp ****     h.amp=0.0f; h.noise_lp=0.0f;
  89:src/engine.cpp ****     // 1-pole lowpass coefficient from the (latched) cutoff: a = 1 - e^(-2π·fc/sr).
  90:src/engine.cpp ****     h.lp_state = 0.0f;
  91:src/engine.cpp ****     h.lp_coeff = clampf(1.0f - expf(-6.2831853f * cutoff / sr), 0.0f, 1.0f);
  35              		.loc 1 91 49 is_stmt 0 view .LVU2
  36 0000 DFED517A 		vldr.32	s15, .L13
  83:src/engine.cpp ****     const Voice& V = VOICES[vidx];
  37              		.loc 1 83 1 view .LVU3
  38 0004 B0EE407A 		vmov.f32	s14, s0
  85:src/engine.cpp ****     h.active=true; h.gate=true; h.vidx=vidx;
  39              		.loc 1 85 39 view .LVU4
  40 0008 4160     		str	r1, [r0, #4]
  41              		.loc 1 91 49 view .LVU5
  42 000a 61EE277A 		vmul.f32	s15, s2, s15
  86:src/engine.cpp ****     h.ph1=h.ph2=h.phs=h.pho=0.0f;
  43              		.loc 1 86 27 view .LVU6
  44 000e C0ED030A 		vstr.32	s1, [r0, #12]
  86:src/engine.cpp ****     h.ph1=h.ph2=h.phs=h.pho=0.0f;
  45              		.loc 1 86 11 view .LVU7
  46 0012 80ED027A 		vstr.32	s14, [r0, #8]
  86:src/engine.cpp ****     h.ph1=h.ph2=h.phs=h.pho=0.0f;
  47              		.loc 1 86 45 view .LVU8
  48 0016 80ED041A 		vstr.32	s2, [r0, #16]
  49              		.loc 1 91 36 view .LVU9
  50 001a 87EE820A 		vdiv.f32	s0, s15, s4
  51              	.LVL1:
  86:src/engine.cpp ****     h.ph1=h.ph2=h.phs=h.pho=0.0f;
  52              		.loc 1 86 61 view .LVU10
  53 001e C0ED051A 		vstr.32	s3, [r0, #20]
  83:src/engine.cpp ****     const Voice& V = VOICES[vidx];
  54              		.loc 1 83 1 view .LVU11
  55 0022 F8B5     		push	{r3, r4, r5, r6, r7, lr}
  56              		.cfi_def_cfa_offset 24
  57              		.cfi_offset 3, -24
  58              		.cfi_offset 4, -20
  59              		.cfi_offset 5, -16
  60              		.cfi_offset 6, -12
  61              		.cfi_offset 7, -8
  62              		.cfi_offset 14, -4
  85:src/engine.cpp ****     h.active=true; h.gate=true; h.vidx=vidx;
  63              		.loc 1 85 13 view .LVU12
  64 0024 40F20113 		movw	r3, #257
  83:src/engine.cpp ****     const Voice& V = VOICES[vidx];
  65              		.loc 1 83 1 view .LVU13
  66 0028 0446     		mov	r4, r0
  67 002a 0D46     		mov	r5, r1
  68              	.LVL2:
  85:src/engine.cpp ****     h.active=true; h.gate=true; h.vidx=vidx;
  69              		.loc 1 85 5 is_stmt 1 view .LVU14
  85:src/engine.cpp ****     h.active=true; h.gate=true; h.vidx=vidx;
  70              		.loc 1 85 20 view .LVU15
ARM GAS  /tmp/claude-502/ccjNbcJ1.s 			page 4


  85:src/engine.cpp ****     h.active=true; h.gate=true; h.vidx=vidx;
  71              		.loc 1 85 13 is_stmt 0 view .LVU16
  72 002c 0380     		strh	r3, [r0]	@ movhi
  85:src/engine.cpp ****     h.active=true; h.gate=true; h.vidx=vidx;
  73              		.loc 1 85 33 is_stmt 1 view .LVU17
  86:src/engine.cpp ****     h.ph1=h.ph2=h.phs=h.pho=0.0f;
  74              		.loc 1 86 5 view .LVU18
  86:src/engine.cpp ****     h.ph1=h.ph2=h.phs=h.pho=0.0f;
  75              		.loc 1 86 18 view .LVU19
  86:src/engine.cpp ****     h.ph1=h.ph2=h.phs=h.pho=0.0f;
  76              		.loc 1 86 37 view .LVU20
  86:src/engine.cpp ****     h.ph1=h.ph2=h.phs=h.pho=0.0f;
  77              		.loc 1 86 54 view .LVU21
  87:src/engine.cpp ****     h.amp=0.0f; h.noise_lp=0.0f;
  78              		.loc 1 87 5 view .LVU22
  88:src/engine.cpp ****     // 1-pole lowpass coefficient from the (latched) cutoff: a = 1 - e^(-2π·fc/sr).
  79              		.loc 1 88 5 view .LVU23
  88:src/engine.cpp ****     // 1-pole lowpass coefficient from the (latched) cutoff: a = 1 - e^(-2π·fc/sr).
  80              		.loc 1 88 17 view .LVU24
  90:src/engine.cpp ****     h.lp_coeff = clampf(1.0f - expf(-6.2831853f * cutoff / sr), 0.0f, 1.0f);
  81              		.loc 1 90 5 view .LVU25
  82              		.loc 1 91 5 view .LVU26
  83:src/engine.cpp ****     const Voice& V = VOICES[vidx];
  83              		.loc 1 83 1 is_stmt 0 view .LVU27
  84 002e 2DED028B 		vpush.64	{d8}
  85              		.cfi_def_cfa_offset 32
  86              		.cfi_offset 80, -32
  87              		.cfi_offset 81, -28
  87:src/engine.cpp ****     h.amp=0.0f; h.noise_lp=0.0f;
  88              		.loc 1 87 28 view .LVU28
  89 0032 9FED468A 		vldr.32	s16, .L13+4
  83:src/engine.cpp ****     const Voice& V = VOICES[vidx];
  90              		.loc 1 83 1 view .LVU29
  91 0036 F0EE428A 		vmov.f32	s17, s4
  87:src/engine.cpp ****     h.amp=0.0f; h.noise_lp=0.0f;
  92              		.loc 1 87 28 view .LVU30
  93 003a 80ED098A 		vstr.32	s16, [r0, #36]
  87:src/engine.cpp ****     h.amp=0.0f; h.noise_lp=0.0f;
  94              		.loc 1 87 22 view .LVU31
  95 003e 80ED088A 		vstr.32	s16, [r0, #32]
  87:src/engine.cpp ****     h.amp=0.0f; h.noise_lp=0.0f;
  96              		.loc 1 87 16 view .LVU32
  97 0042 80ED078A 		vstr.32	s16, [r0, #28]
  87:src/engine.cpp ****     h.amp=0.0f; h.noise_lp=0.0f;
  98              		.loc 1 87 10 view .LVU33
  99 0046 80ED068A 		vstr.32	s16, [r0, #24]
  88:src/engine.cpp ****     // 1-pole lowpass coefficient from the (latched) cutoff: a = 1 - e^(-2π·fc/sr).
 100              		.loc 1 88 10 view .LVU34
 101 004a 80ED0A8A 		vstr.32	s16, [r0, #40]
  88:src/engine.cpp ****     // 1-pole lowpass coefficient from the (latched) cutoff: a = 1 - e^(-2π·fc/sr).
 102              		.loc 1 88 27 view .LVU35
 103 004e 80ED0C8A 		vstr.32	s16, [r0, #48]
  90:src/engine.cpp ****     h.lp_coeff = clampf(1.0f - expf(-6.2831853f * cutoff / sr), 0.0f, 1.0f);
 104              		.loc 1 90 16 view .LVU36
 105 0052 80ED0D8A 		vstr.32	s16, [r0, #52]
 106              		.loc 1 91 36 view .LVU37
 107 0056 FFF7FEFF 		bl	expf
ARM GAS  /tmp/claude-502/ccjNbcJ1.s 			page 5


 108              	.LVL3:
 109              		.loc 1 91 24 view .LVU38
 110 005a F7EE007A 		vmov.f32	s15, #1.0e+0
 111 005e 37EEC00A 		vsub.f32	s0, s15, s0
 112              	.LVL4:
 113              	.LBB71:
 114              	.LBI71:
 115              		.file 2 "src/dsp.h"
   1:src/dsp.h     **** #pragma once
   2:src/dsp.h     **** // Pure DSP/math primitives — no hardware, no global state (except moog()
   3:src/dsp.h     **** // which lives in the engine). Header-only & inline for the audio hot path.
   4:src/dsp.h     **** #include <math.h>
   5:src/dsp.h     **** 
   6:src/dsp.h     **** // Oscillator shape — set per oscillator, so one voice can mix (e.g. saw root +
   7:src/dsp.h     **** // square fifth + sine sub). SQUARE and SAW are naive (not band-limited) — they
   8:src/dsp.h     **** // alias at high pitch, but on a low bass voice that just reads as rich harmonics
   9:src/dsp.h     **** // for the filter to chew.
  10:src/dsp.h     **** enum Waveform { WAVE_TRI, WAVE_SINE, WAVE_SQUARE, WAVE_SAW };
  11:src/dsp.h     **** 
  12:src/dsp.h     **** static inline float clampf(float v,float lo,float hi){
 116              		.loc 2 12 21 is_stmt 1 view .LVU39
 117              	.LBB72:
  13:src/dsp.h     ****     return v<lo?lo:v>hi?hi:v;
 118              		.loc 2 13 5 view .LVU40
 119              		.loc 2 13 16 is_stmt 0 view .LVU41
 120 0062 B4EEC80A 		vcmpe.f32	s0, s16
 121 0066 F1EE10FA 		vmrs	APSR_nzcv, FPSCR
 122 006a 60D4     		bmi	.L6
 123              		.loc 2 13 24 view .LVU42
 124 006c B4EE670A 		vcmp.f32	s0, s15
 125 0070 F1EE10FA 		vmrs	APSR_nzcv, FPSCR
 126 0074 37FE800A 		vselgt.f32	s0, s15, s0
 127              	.LVL5:
 128              	.L2:
 129              		.loc 2 13 24 view .LVU43
 130              	.LBE72:
 131              	.LBE71:
  92:src/engine.cpp ****     h.atk_c      = ms_to_coeff(V.attack_ms,    sr);
 132              		.loc 1 92 34 view .LVU44
 133 0078 354E     		ldr	r6, .L13+8
 134 007a 05EB8503 		add	r3, r5, r5, lsl #2
 135 007e AF00     		lsls	r7, r5, #2
  91:src/engine.cpp ****     h.atk_c      = ms_to_coeff(V.attack_ms,    sr);
 136              		.loc 1 91 16 view .LVU45
 137 0080 84ED0E0A 		vstr.32	s0, [r4, #56]
 138              		.loc 1 92 5 is_stmt 1 view .LVU46
 139              		.loc 1 92 34 is_stmt 0 view .LVU47
 140 0084 06EB4313 		add	r3, r6, r3, lsl #5
 141 0088 D3ED197A 		vldr.32	s15, [r3, #100]
 142              	.LVL6:
 143              	.LBB74:
 144              	.LBI74:
  14:src/dsp.h     **** }
  15:src/dsp.h     **** static inline float smoothstep_f(float x){
  16:src/dsp.h     ****     x = x<0?0:x>1?1:x; return x*x*(3.0f - 2.0f*x);
  17:src/dsp.h     **** }
  18:src/dsp.h     **** static inline float smootherstep_f(float x){
ARM GAS  /tmp/claude-502/ccjNbcJ1.s 			page 6


  19:src/dsp.h     ****     x = x<0?0:x>1?1:x; return x*x*x*(x*(x*6.0f - 15.0f) + 10.0f);
  20:src/dsp.h     **** }
  21:src/dsp.h     **** 
  22:src/dsp.h     **** // Fast tanh approximation (Padé)
  23:src/dsp.h     **** static inline float fast_tanh(float x)
  24:src/dsp.h     **** {
  25:src/dsp.h     ****     if(x> 3.0f)return  1.0f;
  26:src/dsp.h     ****     if(x<-3.0f)return -1.0f;
  27:src/dsp.h     ****     float x2=x*x;
  28:src/dsp.h     ****     return x*(27.0f+x2)/(27.0f+9.0f*x2);
  29:src/dsp.h     **** }
  30:src/dsp.h     **** 
  31:src/dsp.h     **** // Convert a one-pole time constant in milliseconds to a per-sample slew
  32:src/dsp.h     **** // coefficient: y += (1-coeff)*(target-y) reaches ~63% after `ms`.
  33:src/dsp.h     **** static inline float ms_to_coeff(float ms, float sr){
 145              		.loc 2 33 21 is_stmt 1 view .LVU48
 146              	.LBB75:
  34:src/dsp.h     ****     if(ms <= 0.0f) return 0.0f;            // instant
 147              		.loc 2 34 5 view .LVU49
 148 008c F5EEC07A 		vcmpe.f32	s15, #0
 149 0090 F1EE10FA 		vmrs	APSR_nzcv, FPSCR
 150 0094 4ED9     		bls	.L8
 151              	.LVL7:
 152              	.LBB76:
 153              	.LBI76:
  33:src/dsp.h     ****     if(ms <= 0.0f) return 0.0f;            // instant
 154              		.loc 2 33 21 view .LVU50
 155              	.LBB77:
  35:src/dsp.h     ****     return expf(-1.0f / (ms * 0.001f * sr));
 156              		.loc 2 35 5 view .LVU51
 157              		.loc 2 35 29 is_stmt 0 view .LVU52
 158 0096 9FED2F7A 		vldr.32	s14, .L13+12
 159              		.loc 2 35 16 view .LVU53
 160 009a BFEE000A 		vmov.f32	s0, #-1.0e+0
 161              		.loc 2 35 29 view .LVU54
 162 009e 67EE877A 		vmul.f32	s15, s15, s14
 163              	.LVL8:
 164              		.loc 2 35 38 view .LVU55
 165 00a2 67EEA87A 		vmul.f32	s15, s15, s17
 166              		.loc 2 35 16 view .LVU56
 167 00a6 80EE270A 		vdiv.f32	s0, s0, s15
 168 00aa FFF7FEFF 		bl	expf
 169              	.LVL9:
 170              	.L3:
 171              		.loc 2 35 16 view .LVU57
 172              	.LBE77:
 173              	.LBE76:
 174              	.LBE75:
 175              	.LBE74:
  93:src/engine.cpp ****     h.rel_c      = ms_to_coeff(V.release_ms,   sr);
 176              		.loc 1 93 34 view .LVU58
 177 00ae 7B19     		adds	r3, r7, r5
  92:src/engine.cpp ****     h.rel_c      = ms_to_coeff(V.release_ms,   sr);
 178              		.loc 1 92 18 view .LVU59
 179 00b0 84ED0F0A 		vstr.32	s0, [r4, #60]
 180              		.loc 1 93 5 is_stmt 1 view .LVU60
 181              		.loc 1 93 34 is_stmt 0 view .LVU61
ARM GAS  /tmp/claude-502/ccjNbcJ1.s 			page 7


 182 00b4 06EB4313 		add	r3, r6, r3, lsl #5
 183 00b8 D3ED1A7A 		vldr.32	s15, [r3, #104]
 184              	.LVL10:
 185              	.LBB79:
 186              	.LBI79:
  33:src/dsp.h     ****     if(ms <= 0.0f) return 0.0f;            // instant
 187              		.loc 2 33 21 is_stmt 1 view .LVU62
 188              	.LBB80:
  34:src/dsp.h     ****     return expf(-1.0f / (ms * 0.001f * sr));
 189              		.loc 2 34 5 view .LVU63
 190 00bc F5EEC07A 		vcmpe.f32	s15, #0
 191 00c0 F1EE10FA 		vmrs	APSR_nzcv, FPSCR
 192 00c4 3CD9     		bls	.L9
 193              	.LVL11:
 194              	.LBB81:
 195              	.LBI81:
  33:src/dsp.h     ****     if(ms <= 0.0f) return 0.0f;            // instant
 196              		.loc 2 33 21 view .LVU64
 197              	.LBB82:
 198              		.loc 2 35 5 view .LVU65
 199              		.loc 2 35 29 is_stmt 0 view .LVU66
 200 00c6 9FED237A 		vldr.32	s14, .L13+12
 201              		.loc 2 35 16 view .LVU67
 202 00ca BFEE000A 		vmov.f32	s0, #-1.0e+0
 203              		.loc 2 35 29 view .LVU68
 204 00ce 67EE877A 		vmul.f32	s15, s15, s14
 205              	.LVL12:
 206              		.loc 2 35 38 view .LVU69
 207 00d2 67EEA87A 		vmul.f32	s15, s15, s17
 208              		.loc 2 35 16 view .LVU70
 209 00d6 80EE270A 		vdiv.f32	s0, s0, s15
 210 00da FFF7FEFF 		bl	expf
 211              	.LVL13:
 212              	.L4:
 213              		.loc 2 35 16 view .LVU71
 214              	.LBE82:
 215              	.LBE81:
 216              	.LBE80:
 217              	.LBE79:
  94:src/engine.cpp ****     h.penv_c     = ms_to_coeff(V.pitch_env_ms, sr);
 218              		.loc 1 94 34 view .LVU72
 219 00de 7B19     		adds	r3, r7, r5
  93:src/engine.cpp ****     h.penv_c     = ms_to_coeff(V.pitch_env_ms, sr);
 220              		.loc 1 93 18 view .LVU73
 221 00e0 84ED100A 		vstr.32	s0, [r4, #64]
 222              		.loc 1 94 5 is_stmt 1 view .LVU74
 223              		.loc 1 94 34 is_stmt 0 view .LVU75
 224 00e4 06EB4313 		add	r3, r6, r3, lsl #5
 225 00e8 D3ED1D7A 		vldr.32	s15, [r3, #116]
 226              	.LVL14:
 227              	.LBB84:
 228              	.LBI84:
  33:src/dsp.h     ****     if(ms <= 0.0f) return 0.0f;            // instant
 229              		.loc 2 33 21 is_stmt 1 view .LVU76
 230              	.LBB85:
  34:src/dsp.h     ****     return expf(-1.0f / (ms * 0.001f * sr));
 231              		.loc 2 34 5 view .LVU77
ARM GAS  /tmp/claude-502/ccjNbcJ1.s 			page 8


 232 00ec F5EEC07A 		vcmpe.f32	s15, #0
 233 00f0 F1EE10FA 		vmrs	APSR_nzcv, FPSCR
 234 00f4 21D9     		bls	.L10
 235              	.LVL15:
 236              	.LBB86:
 237              	.LBI86:
  33:src/dsp.h     ****     if(ms <= 0.0f) return 0.0f;            // instant
 238              		.loc 2 33 21 view .LVU78
 239              	.LBB87:
 240              		.loc 2 35 5 view .LVU79
 241              		.loc 2 35 29 is_stmt 0 view .LVU80
 242 00f6 9FED172A 		vldr.32	s4, .L13+12
 243              		.loc 2 35 16 view .LVU81
 244 00fa BFEE000A 		vmov.f32	s0, #-1.0e+0
 245              		.loc 2 35 29 view .LVU82
 246 00fe 67EE827A 		vmul.f32	s15, s15, s4
 247              	.LVL16:
 248              		.loc 2 35 38 view .LVU83
 249 0102 67EEA88A 		vmul.f32	s17, s15, s17
 250              	.LVL17:
 251              		.loc 2 35 16 view .LVU84
 252 0106 80EE280A 		vdiv.f32	s0, s0, s17
 253 010a FFF7FEFF 		bl	expf
 254              	.LVL18:
 255              	.L5:
 256              		.loc 2 35 16 view .LVU85
 257              	.LBE87:
 258              	.LBE86:
 259              	.LBE85:
 260              	.LBE84:
  95:src/engine.cpp ****     h.penv_start = exp2f(V.pitch_env_oct);
 261              		.loc 1 95 28 view .LVU86
 262 010e 3D44     		add	r5, r5, r7
 263              	.LVL19:
  94:src/engine.cpp ****     h.penv_start = exp2f(V.pitch_env_oct);
 264              		.loc 1 94 18 view .LVU87
 265 0110 84ED110A 		vstr.32	s0, [r4, #68]
 266              		.loc 1 95 5 is_stmt 1 view .LVU88
 267              		.loc 1 95 28 is_stmt 0 view .LVU89
 268 0114 06EB4516 		add	r6, r6, r5, lsl #5
 269              		.loc 1 95 25 view .LVU90
 270 0118 96ED1C0A 		vldr.32	s0, [r6, #112]
 271 011c FFF7FEFF 		bl	exp2f
 272              	.LVL20:
 273              		.loc 1 95 18 view .LVU91
 274 0120 84ED120A 		vstr.32	s0, [r4, #72]
  96:src/engine.cpp ****     h.pmult      = h.penv_start;
 275              		.loc 1 96 5 is_stmt 1 view .LVU92
 276              		.loc 1 96 18 is_stmt 0 view .LVU93
 277 0124 84ED0B0A 		vstr.32	s0, [r4, #44]
  97:src/engine.cpp **** }
 278              		.loc 1 97 1 view .LVU94
 279 0128 BDEC028B 		vldm	sp!, {d8}
 280              		.cfi_remember_state
 281              		.cfi_restore 80
 282              		.cfi_restore 81
 283              		.cfi_def_cfa_offset 24
ARM GAS  /tmp/claude-502/ccjNbcJ1.s 			page 9


 284 012c F8BD     		pop	{r3, r4, r5, r6, r7, pc}
 285              	.LVL21:
 286              	.L6:
 287              		.cfi_restore_state
 288              	.LBB89:
 289              	.LBB73:
  13:src/dsp.h     **** }
 290              		.loc 2 13 16 view .LVU95
 291 012e B0EE480A 		vmov.f32	s0, s16
 292              	.LVL22:
  13:src/dsp.h     **** }
 293              		.loc 2 13 16 view .LVU96
 294 0132 A1E7     		b	.L2
 295              	.LVL23:
 296              	.L8:
  13:src/dsp.h     **** }
 297              		.loc 2 13 16 view .LVU97
 298              	.LBE73:
 299              	.LBE89:
 300              	.LBB90:
 301              	.LBB78:
  34:src/dsp.h     ****     return expf(-1.0f / (ms * 0.001f * sr));
 302              		.loc 2 34 27 view .LVU98
 303 0134 9FED050A 		vldr.32	s0, .L13+4
 304 0138 B9E7     		b	.L3
 305              	.LVL24:
 306              	.L10:
  34:src/dsp.h     ****     return expf(-1.0f / (ms * 0.001f * sr));
 307              		.loc 2 34 27 view .LVU99
 308              	.LBE78:
 309              	.LBE90:
 310              	.LBB91:
 311              	.LBB88:
 312 013a 9FED040A 		vldr.32	s0, .L13+4
 313 013e E6E7     		b	.L5
 314              	.LVL25:
 315              	.L9:
  34:src/dsp.h     ****     return expf(-1.0f / (ms * 0.001f * sr));
 316              		.loc 2 34 27 view .LVU100
 317              	.LBE88:
 318              	.LBE91:
 319              	.LBB92:
 320              	.LBB83:
 321 0140 9FED020A 		vldr.32	s0, .L13+4
 322 0144 CBE7     		b	.L4
 323              	.L14:
 324 0146 00BF     		.align	2
 325              	.L13:
 326 0148 DB0FC9C0 		.word	-1060565029
 327 014c 00000000 		.word	0
 328 0150 00000000 		.word	.LANCHOR0
 329 0154 6F12833A 		.word	981668463
 330              	.LBE83:
 331              	.LBE92:
 332              		.cfi_endproc
 333              	.LFE2582:
 335              		.section	.text._Z13AudioCallbackPKPKfPPfj,"ax",%progbits
ARM GAS  /tmp/claude-502/ccjNbcJ1.s 			page 10


 336              		.align	1
 337              		.p2align 2,,3
 338              		.global	_Z13AudioCallbackPKPKfPPfj
 339              		.syntax unified
 340              		.thumb
 341              		.thumb_func
 343              	_Z13AudioCallbackPKPKfPPfj:
 344              	.LVL26:
 345              	.LFB2584:
  98:src/engine.cpp **** 
  99:src/engine.cpp **** static float drum_render(DrumHit& h, float sr)
 100:src/engine.cpp **** {
 101:src/engine.cpp ****     if(!h.active) return 0.0f;
 102:src/engine.cpp ****     const Voice& V = VOICES[h.vidx];
 103:src/engine.cpp ****     // Amp envelope: attack while gated, release on lift; free the slot when done.
 104:src/engine.cpp ****     float tgt = h.gate ? h.amp_tgt : 0.0f;
 105:src/engine.cpp ****     float c   = (tgt > h.amp) ? h.atk_c : h.rel_c;
 106:src/engine.cpp ****     h.amp = h.amp*c + tgt*(1.0f-c);
 107:src/engine.cpp ****     if(!h.gate && h.amp < 0.0004f){ h.active=false; return 0.0f; }
 108:src/engine.cpp ****     // Pitch envelope decays to 1.0.
 109:src/engine.cpp ****     h.pmult = 1.0f + (h.pmult - 1.0f) * h.penv_c;
 110:src/engine.cpp ****     float f = h.freq * h.pmult;
 111:src/engine.cpp ****     // Oscillators + noise
 112:src/engine.cpp ****     float mix = osc(h.ph1,V.osc1_wave)*V.osc1_level
 113:src/engine.cpp ****               + osc(h.ph2,V.osc2_wave)*V.osc2_level
 114:src/engine.cpp ****               + osc(h.phs,V.sub_wave )*V.sub_level
 115:src/engine.cpp ****               + osc(h.pho,V.oct_wave )*V.oct_level;
 116:src/engine.cpp ****     if(V.noise_level > 0.0f){
 117:src/engine.cpp ****         s_noise_rng ^= s_noise_rng<<13; s_noise_rng ^= s_noise_rng>>17; s_noise_rng ^= s_noise_rng<
 118:src/engine.cpp ****         float white  = (float)(int32_t)s_noise_rng * (1.0f/2147483648.0f);
 119:src/engine.cpp ****         h.noise_lp  += NOISE_HP_COEF * (white - h.noise_lp);
 120:src/engine.cpp ****         float bright = white - h.noise_lp;
 121:src/engine.cpp ****         mix += (white + (bright*2.0f - white)*V.noise_hp) * V.noise_level;
 122:src/engine.cpp ****     }
 123:src/engine.cpp ****     mix = fast_tanh(mix * h.drive);
 124:src/engine.cpp ****     // Per-drum 1-pole lowpass (cheap — one multiply-add — instead of the 4-pole
 125:src/engine.cpp ****     // Moog) at the drum's own cutoff: keeps Kick/Tom dark, Snare/Hat bright.
 126:src/engine.cpp ****     h.lp_state += h.lp_coeff * (mix - h.lp_state);
 127:src/engine.cpp ****     h.ph1 += f*V.osc1_ratio/sr; if(h.ph1>=1.0f)h.ph1-=1.0f;
 128:src/engine.cpp ****     h.ph2 += f*V.osc2_ratio/sr; if(h.ph2>=1.0f)h.ph2-=1.0f;
 129:src/engine.cpp ****     h.phs += f*V.sub_ratio /sr; if(h.phs>=1.0f)h.phs-=1.0f;
 130:src/engine.cpp ****     h.pho += f*V.oct_ratio /sr; if(h.pho>=1.0f)h.pho-=1.0f;
 131:src/engine.cpp ****     return fast_tanh(h.lp_state*1.3f) * h.amp;
 132:src/engine.cpp **** }
 133:src/engine.cpp **** 
 134:src/engine.cpp **** void AudioCallback(AudioHandle::InputBuffer,
 135:src/engine.cpp ****                    AudioHandle::OutputBuffer out, size_t size)
 136:src/engine.cpp **** {
 346              		.loc 1 136 1 is_stmt 1 view -0
 347              		.cfi_startproc
 348              		@ args = 0, pretend = 0, frame = 176
 349              		@ frame_needed = 0, uses_anonymous_args = 0
 137:src/engine.cpp ****     // LED3 fixed-frequency PWM (200 Hz, 240 levels). Per-sample duty smoother
 138:src/engine.cpp ****     // (~20 ms TC) interpolates between the main loop's 16 Hz updates so the
 139:src/engine.cpp ****     // brightness transitions look continuous even at low intensity.
 140:src/engine.cpp ****     static float    led3_duty_smooth = 0.0f;
 350              		.loc 1 140 5 view .LVU102
ARM GAS  /tmp/claude-502/ccjNbcJ1.s 			page 11


 141:src/engine.cpp ****     static uint32_t pwm_counter      = 0;
 351              		.loc 1 141 5 view .LVU103
 142:src/engine.cpp ****     static bool     led3_state       = false;
 352              		.loc 1 142 5 view .LVU104
 143:src/engine.cpp ****     constexpr uint32_t PWM_LEVELS = 240;        // 48 kHz / 240 = 200 Hz PWM
 353              		.loc 1 143 5 view .LVU105
 144:src/engine.cpp ****     constexpr float    DUTY_TC    = 0.001f;     // ~20 ms time constant per sample
 354              		.loc 1 144 5 view .LVU106
 145:src/engine.cpp ****     float           duty_target = g_led3_duty;
 355              		.loc 1 145 5 view .LVU107
 356              		.loc 1 145 35 is_stmt 0 view .LVU108
 357 0000 934B     		ldr	r3, .L440
 358 0002 D3ED007A 		vldr.32	s15, [r3]
 359              	.LVL27:
 146:src/engine.cpp ****     if(duty_target < 0.0f) duty_target = 0.0f; else if(duty_target > 1.0f) duty_target = 1.0f;
 360              		.loc 1 146 5 is_stmt 1 view .LVU109
 361 0006 F5EEC07A 		vcmpe.f32	s15, #0
 136:src/engine.cpp ****     // LED3 fixed-frequency PWM (200 Hz, 240 levels). Per-sample duty smoother
 362              		.loc 1 136 1 is_stmt 0 view .LVU110
 363 000a 2DE9F04F 		push	{r4, r5, r6, r7, r8, r9, r10, fp, lr}
 364              		.cfi_def_cfa_offset 36
 365              		.cfi_offset 4, -36
 366              		.cfi_offset 5, -32
 367              		.cfi_offset 6, -28
 368              		.cfi_offset 7, -24
 369              		.cfi_offset 8, -20
 370              		.cfi_offset 9, -16
 371              		.cfi_offset 10, -12
 372              		.cfi_offset 11, -8
 373              		.cfi_offset 14, -4
 374              		.loc 1 146 5 view .LVU111
 375 000e F1EE10FA 		vmrs	APSR_nzcv, FPSCR
 136:src/engine.cpp ****     // LED3 fixed-frequency PWM (200 Hz, 240 levels). Per-sample duty smoother
 376              		.loc 1 136 1 view .LVU112
 377 0012 8B46     		mov	fp, r1
 378 0014 2DED108B 		vpush.64	{d8, d9, d10, d11, d12, d13, d14, d15}
 379              		.cfi_def_cfa_offset 100
 380              		.cfi_offset 80, -100
 381              		.cfi_offset 81, -96
 382              		.cfi_offset 82, -92
 383              		.cfi_offset 83, -88
 384              		.cfi_offset 84, -84
 385              		.cfi_offset 85, -80
 386              		.cfi_offset 86, -76
 387              		.cfi_offset 87, -72
 388              		.cfi_offset 88, -68
 389              		.cfi_offset 89, -64
 390              		.cfi_offset 90, -60
 391              		.cfi_offset 91, -56
 392              		.cfi_offset 92, -52
 393              		.cfi_offset 93, -48
 394              		.cfi_offset 94, -44
 395              		.cfi_offset 95, -40
 396 0018 ADB0     		sub	sp, sp, #180
 397              		.cfi_def_cfa_offset 280
 136:src/engine.cpp ****     // LED3 fixed-frequency PWM (200 Hz, 240 levels). Per-sample duty smoother
 398              		.loc 1 136 1 view .LVU113
ARM GAS  /tmp/claude-502/ccjNbcJ1.s 			page 12


 399 001a 0C92     		str	r2, [sp, #48]
 400              		.loc 1 146 5 view .LVU114
 401 001c 01F18B86 		bmi	.L252
 402 0020 B0EE677A 		vmov.f32	s14, s15
 403              		.loc 1 146 53 is_stmt 1 discriminator 2 view .LVU115
 404 0024 F7EE007A 		vmov.f32	s15, #1.0e+0
 405              	.LVL28:
 406              		.loc 1 146 88 is_stmt 0 discriminator 2 view .LVU116
 407 0028 B4EE677A 		vcmp.f32	s14, s15
 408 002c F1EE10FA 		vmrs	APSR_nzcv, FPSCR
 409 0030 77FE877A 		vselgt.f32	s15, s15, s14
 410 0034 CDED0F7A 		vstr.32	s15, [sp, #60]
 411              	.LVL29:
 412              	.L16:
 147:src/engine.cpp **** 
 148:src/engine.cpp ****     // Snapshot targets
 149:src/engine.cpp ****     float tfreq  = g_target_freq;
 413              		.loc 1 149 5 is_stmt 1 view .LVU117
 414              		.loc 1 149 20 is_stmt 0 view .LVU118
 415 0038 864A     		ldr	r2, .L440+4
 416              	.LVL30:
 150:src/engine.cpp ****     float tcut   = g_target_cutoff;
 417              		.loc 1 150 20 view .LVU119
 418 003a 8749     		ldr	r1, .L440+8
 419              	.LVL31:
 149:src/engine.cpp ****     float tcut   = g_target_cutoff;
 420              		.loc 1 149 20 view .LVU120
 421 003c D2ED007A 		vldr.32	s15, [r2]
 151:src/engine.cpp ****     float tdet   = g_target_detune;
 422              		.loc 1 151 20 view .LVU121
 423 0040 864B     		ldr	r3, .L440+12
 152:src/engine.cpp ****     float tdrv   = g_target_drive;
 424              		.loc 1 152 20 view .LVU122
 425 0042 874A     		ldr	r2, .L440+16
 150:src/engine.cpp ****     float tdet   = g_target_detune;
 426              		.loc 1 150 20 view .LVU123
 427 0044 D1ED00BA 		vldr.32	s23, [r1]
 151:src/engine.cpp ****     float tdet   = g_target_detune;
 428              		.loc 1 151 20 view .LVU124
 429 0048 93ED00CA 		vldr.32	s24, [r3]
 153:src/engine.cpp ****     float tvib   = g_vibrato_depth;
 430              		.loc 1 153 20 view .LVU125
 431 004c 8549     		ldr	r1, .L440+20
 152:src/engine.cpp ****     float tdrv   = g_target_drive;
 432              		.loc 1 152 20 view .LVU126
 433 004e D2ED009A 		vldr.32	s19, [r2]
 154:src/engine.cpp ****     float tbc    = g_bitcrush;
 434              		.loc 1 154 20 view .LVU127
 435 0052 854B     		ldr	r3, .L440+24
 155:src/engine.cpp ****     float trm    = g_ringmod;
 436              		.loc 1 155 20 view .LVU128
 437 0054 854A     		ldr	r2, .L440+28
 153:src/engine.cpp ****     float tvib   = g_vibrato_depth;
 438              		.loc 1 153 20 view .LVU129
 439 0056 91ED009A 		vldr.32	s18, [r1]
 154:src/engine.cpp ****     float tbc    = g_bitcrush;
 440              		.loc 1 154 20 view .LVU130
ARM GAS  /tmp/claude-502/ccjNbcJ1.s 			page 13


 441 005a D3ED00CA 		vldr.32	s25, [r3]
 156:src/engine.cpp ****     float tamp   = g_amp_target;
 442              		.loc 1 156 20 view .LVU131
 443 005e 8449     		ldr	r1, .L440+32
 155:src/engine.cpp ****     float trm    = g_ringmod;
 444              		.loc 1 155 20 view .LVU132
 445 0060 D2ED00FA 		vldr.32	s31, [r2]
 157:src/engine.cpp ****     float tmvol  = g_master_vol;
 446              		.loc 1 157 20 view .LVU133
 447 0064 834B     		ldr	r3, .L440+36
 158:src/engine.cpp ****     float tcr2   = g_chord_ratio2;   // chord 3rd ratio (used only when VOICE.chords)
 448              		.loc 1 158 20 view .LVU134
 449 0066 844A     		ldr	r2, .L440+40
 156:src/engine.cpp ****     float tamp   = g_amp_target;
 450              		.loc 1 156 20 view .LVU135
 451 0068 D1ED00AA 		vldr.32	s21, [r1]
 149:src/engine.cpp ****     float tcut   = g_target_cutoff;
 452              		.loc 1 149 20 view .LVU136
 453 006c CDED0D7A 		vstr.32	s15, [sp, #52]
 454              	.LVL32:
 150:src/engine.cpp ****     float tdet   = g_target_detune;
 455              		.loc 1 150 5 is_stmt 1 view .LVU137
 151:src/engine.cpp ****     float tdrv   = g_target_drive;
 456              		.loc 1 151 5 view .LVU138
 152:src/engine.cpp ****     float tvib   = g_vibrato_depth;
 457              		.loc 1 152 5 view .LVU139
 153:src/engine.cpp ****     float tbc    = g_bitcrush;
 458              		.loc 1 153 5 view .LVU140
 154:src/engine.cpp ****     float trm    = g_ringmod;
 459              		.loc 1 154 5 view .LVU141
 155:src/engine.cpp ****     float tamp   = g_amp_target;
 460              		.loc 1 155 5 view .LVU142
 156:src/engine.cpp ****     float tmvol  = g_master_vol;
 461              		.loc 1 156 5 view .LVU143
 157:src/engine.cpp ****     float tcr2   = g_chord_ratio2;   // chord 3rd ratio (used only when VOICE.chords)
 462              		.loc 1 157 5 view .LVU144
 157:src/engine.cpp ****     float tcr2   = g_chord_ratio2;   // chord 3rd ratio (used only when VOICE.chords)
 463              		.loc 1 157 20 is_stmt 0 view .LVU145
 464 0070 D3ED008A 		vldr.32	s17, [r3]
 465              	.LVL33:
 466              		.loc 1 158 5 is_stmt 1 view .LVU146
 159:src/engine.cpp ****     float tcr3   = g_chord_ratio3;   // chord 5th ratio
 467              		.loc 1 159 20 is_stmt 0 view .LVU147
 468 0074 814B     		ldr	r3, .L440+44
 158:src/engine.cpp ****     float tcr3   = g_chord_ratio3;   // chord 5th ratio
 469              		.loc 1 158 20 view .LVU148
 470 0076 D2ED007A 		vldr.32	s15, [r2]
 471              	.LVL34:
 160:src/engine.cpp ****     float sr     = hw.AudioSampleRate();
 472              		.loc 1 160 38 view .LVU149
 473 007a 8148     		ldr	r0, .L440+48
 158:src/engine.cpp ****     float tcr3   = g_chord_ratio3;   // chord 5th ratio
 474              		.loc 1 158 20 view .LVU150
 475 007c CDED297A 		vstr.32	s15, [sp, #164]
 476              	.LVL35:
 159:src/engine.cpp ****     float tcr3   = g_chord_ratio3;   // chord 5th ratio
 477              		.loc 1 159 5 is_stmt 1 view .LVU151
ARM GAS  /tmp/claude-502/ccjNbcJ1.s 			page 14


 159:src/engine.cpp ****     float tcr3   = g_chord_ratio3;   // chord 5th ratio
 478              		.loc 1 159 20 is_stmt 0 view .LVU152
 479 0080 D3ED007A 		vldr.32	s15, [r3]
 480              	.LVL36:
 161:src/engine.cpp **** 
 162:src/engine.cpp ****     // Snapshot the active voice once per block, so a mid-block switch from the
 163:src/engine.cpp ****     // touch loop can't tear fields across the block. All VOICE.* reads below
 164:src/engine.cpp ****     // resolve against this reference. g_active_voice tracks g_voice_idx except in
 165:src/engine.cpp ****     // MultiVoice mode, where the touch loop routes it per tap to a drum.
 166:src/engine.cpp ****     int vi = g_active_voice;
 167:src/engine.cpp ****     if(vi < 0 || vi >= NUM_VOICES) vi = 0;
 168:src/engine.cpp ****     const Voice& VOICE = VOICES[vi];
 169:src/engine.cpp **** 
 170:src/engine.cpp ****     // In the Drums MultiVoice the polyphonic drum engine plays instead of the
 171:src/engine.cpp ****     // mono path (which the touch loop holds silent). Decided once per block.
 172:src/engine.cpp ****     bool poly_drums = (g_voice_idx == MULTI_IDX);
 173:src/engine.cpp **** 
 174:src/engine.cpp ****     // Per-voice envelope/glide coefficients (expf isn't constexpr). Recompute
 175:src/engine.cpp ****     // only when the active voice changes.
 176:src/engine.cpp ****     static int   s_coeff_vi = -1;
 177:src/engine.cpp ****     static float s_glide_c, s_atk_c, s_rel_c;
 178:src/engine.cpp ****     static float s_penv_c;      // pitch-env decay coefficient
 179:src/engine.cpp ****     static float s_penv_start;  // pitch multiplier at onset = 2^pitch_env_oct
 180:src/engine.cpp ****     static float s_decay_c;     // amp decay-to-sustain coefficient (0 = no decay)
 181:src/engine.cpp ****     static float s_sustain;     // level the gated amp decays to (1 = hold full)
 182:src/engine.cpp ****     if(s_coeff_vi != vi){
 481              		.loc 1 182 19 view .LVU153
 482 0084 7F4C     		ldr	r4, .L440+52
 159:src/engine.cpp ****     float sr     = hw.AudioSampleRate();
 483              		.loc 1 159 20 view .LVU154
 484 0086 CDED2A7A 		vstr.32	s15, [sp, #168]
 485              	.LVL37:
 160:src/engine.cpp ****     float sr     = hw.AudioSampleRate();
 486              		.loc 1 160 5 is_stmt 1 view .LVU155
 160:src/engine.cpp ****     float sr     = hw.AudioSampleRate();
 487              		.loc 1 160 38 is_stmt 0 view .LVU156
 488 008a FFF7FEFF 		bl	_ZN5daisy9DaisySeed15AudioSampleRateEv
 489              	.LVL38:
 166:src/engine.cpp ****     if(vi < 0 || vi >= NUM_VOICES) vi = 0;
 490              		.loc 1 166 14 view .LVU157
 491 008e 7E4B     		ldr	r3, .L440+56
 160:src/engine.cpp **** 
 492              		.loc 1 160 38 view .LVU158
 493 0090 B0EE408A 		vmov.f32	s16, s0
 494              	.LVL39:
 166:src/engine.cpp ****     if(vi < 0 || vi >= NUM_VOICES) vi = 0;
 495              		.loc 1 166 5 is_stmt 1 view .LVU159
 166:src/engine.cpp ****     if(vi < 0 || vi >= NUM_VOICES) vi = 0;
 496              		.loc 1 166 14 is_stmt 0 view .LVU160
 497 0094 D3F800A0 		ldr	r10, [r3]
 498              	.LVL40:
 167:src/engine.cpp ****     const Voice& VOICE = VOICES[vi];
 499              		.loc 1 167 5 is_stmt 1 view .LVU161
 172:src/engine.cpp **** 
 500              		.loc 1 172 36 is_stmt 0 view .LVU162
 501 0098 7C4B     		ldr	r3, .L440+60
 167:src/engine.cpp ****     const Voice& VOICE = VOICES[vi];
ARM GAS  /tmp/claude-502/ccjNbcJ1.s 			page 15


 502              		.loc 1 167 39 view .LVU163
 503 009a BAF10F0F 		cmp	r10, #15
 172:src/engine.cpp **** 
 504              		.loc 1 172 36 view .LVU164
 505 009e 1B68     		ldr	r3, [r3]
 167:src/engine.cpp ****     const Voice& VOICE = VOICES[vi];
 506              		.loc 1 167 39 view .LVU165
 507 00a0 28BF     		it	cs
 508 00a2 4FF0000A 		movcs	r10, #0
 509              	.LVL41:
 168:src/engine.cpp **** 
 510              		.loc 1 168 5 is_stmt 1 view .LVU166
 172:src/engine.cpp **** 
 511              		.loc 1 172 5 view .LVU167
 172:src/engine.cpp **** 
 512              		.loc 1 172 36 is_stmt 0 view .LVU168
 513 00a6 0E93     		str	r3, [sp, #56]
 514              	.LVL42:
 176:src/engine.cpp ****     static float s_glide_c, s_atk_c, s_rel_c;
 515              		.loc 1 176 5 is_stmt 1 view .LVU169
 177:src/engine.cpp ****     static float s_penv_c;      // pitch-env decay coefficient
 516              		.loc 1 177 5 view .LVU170
 178:src/engine.cpp ****     static float s_penv_start;  // pitch multiplier at onset = 2^pitch_env_oct
 517              		.loc 1 178 5 view .LVU171
 179:src/engine.cpp ****     static float s_decay_c;     // amp decay-to-sustain coefficient (0 = no decay)
 518              		.loc 1 179 5 view .LVU172
 180:src/engine.cpp ****     static float s_sustain;     // level the gated amp decays to (1 = hold full)
 519              		.loc 1 180 5 view .LVU173
 181:src/engine.cpp ****     if(s_coeff_vi != vi){
 520              		.loc 1 181 5 view .LVU174
 521              		.loc 1 182 5 view .LVU175
 522 00a8 2368     		ldr	r3, [r4]
 523              	.LVL43:
 524              		.loc 1 182 5 is_stmt 0 view .LVU176
 525 00aa 5345     		cmp	r3, r10
 526 00ac 00F0B680 		beq	.L19
 183:src/engine.cpp ****         s_glide_c    = ms_to_coeff(VOICE.glide_ms,     sr);
 527              		.loc 1 183 9 is_stmt 1 view .LVU177
 528              		.loc 1 183 42 is_stmt 0 view .LVU178
 529 00b0 774F     		ldr	r7, .L440+64
 530 00b2 0AEB8A03 		add	r3, r10, r10, lsl #2
 531 00b6 07EB4313 		add	r3, r7, r3, lsl #5
 532 00ba D3ED1B7A 		vldr.32	s15, [r3, #108]
 533              	.LVL44:
 534              	.LBB391:
 535              	.LBI391:
  33:src/dsp.h     ****     if(ms <= 0.0f) return 0.0f;            // instant
 536              		.loc 2 33 21 is_stmt 1 view .LVU179
 537              	.LBB392:
  34:src/dsp.h     ****     return expf(-1.0f / (ms * 0.001f * sr));
 538              		.loc 2 34 5 view .LVU180
 539              	.LBE392:
 540              	.LBE391:
 541              		.loc 1 183 42 is_stmt 0 view .LVU181
 542 00be 4FEA8A03 		lsl	r3, r10, #2
 543              	.LBB398:
 544              	.LBB395:
ARM GAS  /tmp/claude-502/ccjNbcJ1.s 			page 16


  34:src/dsp.h     ****     return expf(-1.0f / (ms * 0.001f * sr));
 545              		.loc 2 34 5 view .LVU182
 546 00c2 F5EEC07A 		vcmpe.f32	s15, #0
 547              	.LBE395:
 548              	.LBE398:
 549              		.loc 1 183 42 view .LVU183
 550 00c6 0193     		str	r3, [sp, #4]
 551              	.LBB399:
 552              	.LBB396:
  34:src/dsp.h     ****     return expf(-1.0f / (ms * 0.001f * sr));
 553              		.loc 2 34 5 view .LVU184
 554 00c8 F1EE10FA 		vmrs	APSR_nzcv, FPSCR
 555 00cc 41F22B86 		bls	.L253
 556              	.LVL45:
 557              	.LBB393:
 558              	.LBI393:
  33:src/dsp.h     ****     if(ms <= 0.0f) return 0.0f;            // instant
 559              		.loc 2 33 21 is_stmt 1 view .LVU185
 560              	.LBB394:
 561              		.loc 2 35 5 view .LVU186
 562              		.loc 2 35 29 is_stmt 0 view .LVU187
 563 00d0 9FED707A 		vldr.32	s14, .L440+68
 564              		.loc 2 35 16 view .LVU188
 565 00d4 BFEE000A 		vmov.f32	s0, #-1.0e+0
 566              	.LVL46:
 567              		.loc 2 35 29 view .LVU189
 568 00d8 67EE877A 		vmul.f32	s15, s15, s14
 569              	.LVL47:
 570              		.loc 2 35 38 view .LVU190
 571 00dc 67EE887A 		vmul.f32	s15, s15, s16
 572              		.loc 2 35 16 view .LVU191
 573 00e0 80EE270A 		vdiv.f32	s0, s0, s15
 574 00e4 FFF7FEFF 		bl	expf
 575              	.LVL48:
 576              	.L20:
 577              		.loc 2 35 16 view .LVU192
 578              	.LBE394:
 579              	.LBE393:
 580              	.LBE396:
 581              	.LBE399:
 184:src/engine.cpp ****         s_atk_c      = ms_to_coeff(VOICE.attack_ms,    sr);
 582              		.loc 1 184 42 view .LVU193
 583 00e8 019B     		ldr	r3, [sp, #4]
 584 00ea 5344     		add	r3, r3, r10
 585 00ec 07EB4313 		add	r3, r7, r3, lsl #5
 586 00f0 D3ED197A 		vldr.32	s15, [r3, #100]
 183:src/engine.cpp ****         s_atk_c      = ms_to_coeff(VOICE.attack_ms,    sr);
 587              		.loc 1 183 22 view .LVU194
 588 00f4 684B     		ldr	r3, .L440+72
 589              	.LBB400:
 590              	.LBB401:
  34:src/dsp.h     ****     return expf(-1.0f / (ms * 0.001f * sr));
 591              		.loc 2 34 5 view .LVU195
 592 00f6 F5EEC07A 		vcmpe.f32	s15, #0
 593              	.LBE401:
 594              	.LBE400:
 183:src/engine.cpp ****         s_atk_c      = ms_to_coeff(VOICE.attack_ms,    sr);
ARM GAS  /tmp/claude-502/ccjNbcJ1.s 			page 17


 595              		.loc 1 183 22 view .LVU196
 596 00fa 83ED000A 		vstr.32	s0, [r3]
 597              		.loc 1 184 9 is_stmt 1 view .LVU197
 598              	.LVL49:
 599              	.LBB406:
 600              	.LBI400:
  33:src/dsp.h     ****     if(ms <= 0.0f) return 0.0f;            // instant
 601              		.loc 2 33 21 view .LVU198
 602              	.LBB404:
  34:src/dsp.h     ****     return expf(-1.0f / (ms * 0.001f * sr));
 603              		.loc 2 34 5 view .LVU199
 604 00fe F1EE10FA 		vmrs	APSR_nzcv, FPSCR
 605 0102 41F22C86 		bls	.L254
 606              	.LVL50:
 607              	.LBB402:
 608              	.LBI402:
  33:src/dsp.h     ****     if(ms <= 0.0f) return 0.0f;            // instant
 609              		.loc 2 33 21 view .LVU200
 610              	.LBB403:
 611              		.loc 2 35 5 view .LVU201
 612              		.loc 2 35 29 is_stmt 0 view .LVU202
 613 0106 9FED637A 		vldr.32	s14, .L440+68
 614              		.loc 2 35 16 view .LVU203
 615 010a BFEE000A 		vmov.f32	s0, #-1.0e+0
 616              		.loc 2 35 29 view .LVU204
 617 010e 67EE877A 		vmul.f32	s15, s15, s14
 618              	.LVL51:
 619              		.loc 2 35 38 view .LVU205
 620 0112 67EE887A 		vmul.f32	s15, s15, s16
 621              		.loc 2 35 16 view .LVU206
 622 0116 80EE270A 		vdiv.f32	s0, s0, s15
 623 011a FFF7FEFF 		bl	expf
 624              	.LVL52:
 625              	.L21:
 626              		.loc 2 35 16 view .LVU207
 627              	.LBE403:
 628              	.LBE402:
 629              	.LBE404:
 630              	.LBE406:
 185:src/engine.cpp ****         s_rel_c      = ms_to_coeff(VOICE.release_ms,   sr);
 631              		.loc 1 185 42 view .LVU208
 632 011e 019B     		ldr	r3, [sp, #4]
 633 0120 5344     		add	r3, r3, r10
 634 0122 07EB4313 		add	r3, r7, r3, lsl #5
 635 0126 D3ED1A7A 		vldr.32	s15, [r3, #104]
 184:src/engine.cpp ****         s_rel_c      = ms_to_coeff(VOICE.release_ms,   sr);
 636              		.loc 1 184 22 view .LVU209
 637 012a 5C4B     		ldr	r3, .L440+76
 638              	.LBB407:
 639              	.LBB408:
  34:src/dsp.h     ****     return expf(-1.0f / (ms * 0.001f * sr));
 640              		.loc 2 34 5 view .LVU210
 641 012c F5EEC07A 		vcmpe.f32	s15, #0
 642              	.LBE408:
 643              	.LBE407:
 184:src/engine.cpp ****         s_rel_c      = ms_to_coeff(VOICE.release_ms,   sr);
 644              		.loc 1 184 22 view .LVU211
ARM GAS  /tmp/claude-502/ccjNbcJ1.s 			page 18


 645 0130 83ED000A 		vstr.32	s0, [r3]
 646              		.loc 1 185 9 is_stmt 1 view .LVU212
 647              	.LVL53:
 648              	.LBB413:
 649              	.LBI407:
  33:src/dsp.h     ****     if(ms <= 0.0f) return 0.0f;            // instant
 650              		.loc 2 33 21 view .LVU213
 651              	.LBB411:
  34:src/dsp.h     ****     return expf(-1.0f / (ms * 0.001f * sr));
 652              		.loc 2 34 5 view .LVU214
 653 0134 F1EE10FA 		vmrs	APSR_nzcv, FPSCR
 654 0138 41F20D86 		bls	.L255
 655              	.LVL54:
 656              	.LBB409:
 657              	.LBI409:
  33:src/dsp.h     ****     if(ms <= 0.0f) return 0.0f;            // instant
 658              		.loc 2 33 21 view .LVU215
 659              	.LBB410:
 660              		.loc 2 35 5 view .LVU216
 661              		.loc 2 35 29 is_stmt 0 view .LVU217
 662 013c 9FED557A 		vldr.32	s14, .L440+68
 663              		.loc 2 35 16 view .LVU218
 664 0140 BFEE000A 		vmov.f32	s0, #-1.0e+0
 665              		.loc 2 35 29 view .LVU219
 666 0144 67EE877A 		vmul.f32	s15, s15, s14
 667              	.LVL55:
 668              		.loc 2 35 38 view .LVU220
 669 0148 67EE887A 		vmul.f32	s15, s15, s16
 670              		.loc 2 35 16 view .LVU221
 671 014c 80EE270A 		vdiv.f32	s0, s0, s15
 672 0150 FFF7FEFF 		bl	expf
 673              	.LVL56:
 674              	.L22:
 675              		.loc 2 35 16 view .LVU222
 676              	.LBE410:
 677              	.LBE409:
 678              	.LBE411:
 679              	.LBE413:
 186:src/engine.cpp ****         s_penv_c     = ms_to_coeff(VOICE.pitch_env_ms, sr);
 680              		.loc 1 186 42 view .LVU223
 681 0154 019B     		ldr	r3, [sp, #4]
 682 0156 03EB0A05 		add	r5, r3, r10
 185:src/engine.cpp ****         s_penv_c     = ms_to_coeff(VOICE.pitch_env_ms, sr);
 683              		.loc 1 185 22 view .LVU224
 684 015a 514B     		ldr	r3, .L440+80
 685              		.loc 1 186 42 view .LVU225
 686 015c 07EB4515 		add	r5, r7, r5, lsl #5
 185:src/engine.cpp ****         s_penv_c     = ms_to_coeff(VOICE.pitch_env_ms, sr);
 687              		.loc 1 185 22 view .LVU226
 688 0160 83ED000A 		vstr.32	s0, [r3]
 689              		.loc 1 186 9 is_stmt 1 view .LVU227
 690              	.LBB414:
 691              	.LBB415:
  34:src/dsp.h     ****     return expf(-1.0f / (ms * 0.001f * sr));
 692              		.loc 2 34 5 is_stmt 0 view .LVU228
 693 0164 0023     		movs	r3, #0
 694              	.LBE415:
ARM GAS  /tmp/claude-502/ccjNbcJ1.s 			page 19


 695              	.LBE414:
 696              		.loc 1 186 42 view .LVU229
 697 0166 D5ED1D7A 		vldr.32	s15, [r5, #116]
 698              	.LVL57:
 699              	.LBB422:
 700              	.LBI414:
  33:src/dsp.h     ****     if(ms <= 0.0f) return 0.0f;            // instant
 701              		.loc 2 33 21 is_stmt 1 view .LVU230
 702              	.LBB420:
  34:src/dsp.h     ****     return expf(-1.0f / (ms * 0.001f * sr));
 703              		.loc 2 34 5 view .LVU231
 704 016a F5EEC07A 		vcmpe.f32	s15, #0
 705 016e F1EE10FA 		vmrs	APSR_nzcv, FPSCR
 706 0172 41F2EA85 		bls	.L23
 707              	.LVL58:
 708              	.LBB416:
 709              	.LBI416:
  33:src/dsp.h     ****     if(ms <= 0.0f) return 0.0f;            // instant
 710              		.loc 2 33 21 view .LVU232
 711              	.LBB417:
 712              		.loc 2 35 5 view .LVU233
 713              		.loc 2 35 29 is_stmt 0 view .LVU234
 714 0176 9FED477A 		vldr.32	s14, .L440+68
 715              		.loc 2 35 16 view .LVU235
 716 017a BFEE000A 		vmov.f32	s0, #-1.0e+0
 717              		.loc 2 35 29 view .LVU236
 718 017e 67EE877A 		vmul.f32	s15, s15, s14
 719              	.LVL59:
 720              		.loc 2 35 38 view .LVU237
 721 0182 67EE887A 		vmul.f32	s15, s15, s16
 722              		.loc 2 35 16 view .LVU238
 723 0186 80EE270A 		vdiv.f32	s0, s0, s15
 724 018a FFF7FEFF 		bl	expf
 725              	.LVL60:
 726              		.loc 2 35 16 view .LVU239
 727              	.LBE417:
 728              	.LBE416:
 729              	.LBE420:
 730              	.LBE422:
 731              		.loc 1 186 22 view .LVU240
 732 018e 454B     		ldr	r3, .L440+84
 733              	.LBB423:
 734              	.LBB421:
 735              	.LBB419:
 736              	.LBB418:
 737              		.loc 2 35 16 view .LVU241
 738 0190 F0EE407A 		vmov.f32	s15, s0
 739              	.LBE418:
 740              	.LBE419:
 741              	.LBE421:
 742              	.LBE423:
 187:src/engine.cpp ****         s_penv_start = exp2f(VOICE.pitch_env_oct);   // 1.0 when pitch_env_oct == 0
 743              		.loc 1 187 29 view .LVU242
 744 0194 95ED1C0A 		vldr.32	s0, [r5, #112]
 186:src/engine.cpp ****         s_penv_start = exp2f(VOICE.pitch_env_oct);   // 1.0 when pitch_env_oct == 0
 745              		.loc 1 186 22 view .LVU243
 746 0198 C3ED007A 		vstr.32	s15, [r3]
ARM GAS  /tmp/claude-502/ccjNbcJ1.s 			page 20


 747              	.L402:
 748              		.loc 1 187 9 is_stmt 1 view .LVU244
 749              		.loc 1 187 29 is_stmt 0 view .LVU245
 750 019c FFF7FEFF 		bl	exp2f
 751              	.LVL61:
 188:src/engine.cpp ****         // decay_ms == 0 → no decay: floor 1.0 so s_decay stays pinned at 1 (the
 189:src/engine.cpp ****         // gated note holds full, unchanged). decay_ms > 0 → decay toward sustain.
 190:src/engine.cpp ****         s_decay_c    = (VOICE.decay_ms > 0.0f) ? ms_to_coeff(VOICE.decay_ms, sr) : 0.0f;
 752              		.loc 1 190 31 view .LVU246
 753 01a0 D5ED257A 		vldr.32	s15, [r5, #148]
 187:src/engine.cpp ****         // decay_ms == 0 → no decay: floor 1.0 so s_decay stays pinned at 1 (the
 754              		.loc 1 187 22 view .LVU247
 755 01a4 404B     		ldr	r3, .L440+88
 756              		.loc 1 190 48 view .LVU248
 757 01a6 F5EEC07A 		vcmpe.f32	s15, #0
 187:src/engine.cpp ****         // decay_ms == 0 → no decay: floor 1.0 so s_decay stays pinned at 1 (the
 758              		.loc 1 187 22 view .LVU249
 759 01aa 83ED000A 		vstr.32	s0, [r3]
 760              		.loc 1 190 9 is_stmt 1 view .LVU250
 761              		.loc 1 190 48 is_stmt 0 view .LVU251
 762 01ae F1EE10FA 		vmrs	APSR_nzcv, FPSCR
 763 01b2 41F3D885 		ble	.L24
 764              	.LVL62:
 765              	.LBB424:
 766              	.LBB425:
 767              	.LBI425:
  33:src/dsp.h     ****     if(ms <= 0.0f) return 0.0f;            // instant
 768              		.loc 2 33 21 is_stmt 1 view .LVU252
 769              	.LBB426:
 770              		.loc 2 35 5 view .LVU253
 771              		.loc 2 35 29 is_stmt 0 view .LVU254
 772 01b6 9FED377A 		vldr.32	s14, .L440+68
 773              		.loc 2 35 16 view .LVU255
 774 01ba BFEE000A 		vmov.f32	s0, #-1.0e+0
 775              		.loc 2 35 29 view .LVU256
 776 01be 67EE877A 		vmul.f32	s15, s15, s14
 777              	.LVL63:
 778              		.loc 2 35 38 view .LVU257
 779 01c2 67EE887A 		vmul.f32	s15, s15, s16
 780              		.loc 2 35 16 view .LVU258
 781 01c6 80EE270A 		vdiv.f32	s0, s0, s15
 782 01ca FFF7FEFF 		bl	expf
 783              	.LVL64:
 784              		.loc 2 35 16 view .LVU259
 785              	.LBE426:
 786              	.LBE425:
 787              	.LBE424:
 788              		.loc 1 190 22 view .LVU260
 789 01ce 374B     		ldr	r3, .L440+92
 790 01d0 83ED000A 		vstr.32	s0, [r3]
 191:src/engine.cpp ****         s_sustain    = (VOICE.decay_ms > 0.0f) ? VOICE.sustain : 1.0f;
 791              		.loc 1 191 9 is_stmt 1 view .LVU261
 792              	.L26:
 793              		.loc 1 191 48 is_stmt 0 discriminator 1 view .LVU262
 794 01d4 019B     		ldr	r3, [sp, #4]
 795 01d6 5344     		add	r3, r3, r10
 796 01d8 07EB4317 		add	r7, r7, r3, lsl #5
ARM GAS  /tmp/claude-502/ccjNbcJ1.s 			page 21


 797 01dc D7F89820 		ldr	r2, [r7, #152]	@ float
 798              	.L27:
 192:src/engine.cpp ****         s_coeff_vi   = vi;
 193:src/engine.cpp ****         // New voice: snap the continuous DSP state to this voice's targets so the
 194:src/engine.cpp ****         // previous voice's settings don't bleed in (esp. the slow-closing cutoff
 195:src/engine.cpp ****         // and the ladder filter's stored energy). Voice changes only happen while
 196:src/engine.cpp ****         // silent (FSR gesture) or at a drum-tap onset, so snapping is clean and
 197:src/engine.cpp ****         // gives each MultiVoice hit a fresh start.
 198:src/engine.cpp ****         s_freq     = tfreq;
 199:src/engine.cpp ****         s_cutoff   = tcut;
 200:src/engine.cpp ****         s_drive    = tdrv;
 201:src/engine.cpp ****         s_detune   = tdet;
 202:src/engine.cpp ****         s_bitcrush = tbc;
 203:src/engine.cpp ****         s_ringmod  = trm;
 204:src/engine.cpp ****         s_flt[0] = s_flt[1] = s_flt[2] = s_flt[3] = 0.0f;
 799              		.loc 1 204 51 discriminator 4 view .LVU263
 800 01e0 0023     		movs	r3, #0
 192:src/engine.cpp ****         s_coeff_vi   = vi;
 801              		.loc 1 192 22 discriminator 4 view .LVU264
 802 01e2 C4F800A0 		str	r10, [r4]
 803              		.loc 1 204 51 discriminator 4 view .LVU265
 804 01e6 324C     		ldr	r4, .L440+96
 198:src/engine.cpp ****         s_cutoff   = tcut;
 805              		.loc 1 198 20 discriminator 4 view .LVU266
 806 01e8 DDED0D7A 		vldr.32	s15, [sp, #52]
 807              		.loc 1 204 51 discriminator 4 view .LVU267
 808 01ec E360     		str	r3, [r4, #12]	@ float
 809              		.loc 1 204 40 discriminator 4 view .LVU268
 810 01ee A360     		str	r3, [r4, #8]	@ float
 811              		.loc 1 204 29 discriminator 4 view .LVU269
 812 01f0 6360     		str	r3, [r4, #4]	@ float
 813              		.loc 1 204 18 discriminator 4 view .LVU270
 814 01f2 2360     		str	r3, [r4]	@ float
 191:src/engine.cpp ****         s_sustain    = (VOICE.decay_ms > 0.0f) ? VOICE.sustain : 1.0f;
 815              		.loc 1 191 22 discriminator 4 view .LVU271
 816 01f4 2F4B     		ldr	r3, .L440+100
 817 01f6 1A60     		str	r2, [r3]	@ float
 192:src/engine.cpp ****         s_coeff_vi   = vi;
 818              		.loc 1 192 9 is_stmt 1 discriminator 4 view .LVU272
 198:src/engine.cpp ****         s_cutoff   = tcut;
 819              		.loc 1 198 9 discriminator 4 view .LVU273
 198:src/engine.cpp ****         s_cutoff   = tcut;
 820              		.loc 1 198 20 is_stmt 0 discriminator 4 view .LVU274
 821 01f8 2F4B     		ldr	r3, .L440+104
 822 01fa C3ED007A 		vstr.32	s15, [r3]
 199:src/engine.cpp ****         s_drive    = tdrv;
 823              		.loc 1 199 9 is_stmt 1 discriminator 4 view .LVU275
 199:src/engine.cpp ****         s_drive    = tdrv;
 824              		.loc 1 199 20 is_stmt 0 discriminator 4 view .LVU276
 825 01fe 2F4B     		ldr	r3, .L440+108
 826 0200 C3ED00BA 		vstr.32	s23, [r3]
 200:src/engine.cpp ****         s_detune   = tdet;
 827              		.loc 1 200 9 is_stmt 1 discriminator 4 view .LVU277
 200:src/engine.cpp ****         s_detune   = tdet;
 828              		.loc 1 200 20 is_stmt 0 discriminator 4 view .LVU278
 829 0204 2E4B     		ldr	r3, .L440+112
 830 0206 C3ED009A 		vstr.32	s19, [r3]
ARM GAS  /tmp/claude-502/ccjNbcJ1.s 			page 22


 201:src/engine.cpp ****         s_bitcrush = tbc;
 831              		.loc 1 201 9 is_stmt 1 discriminator 4 view .LVU279
 201:src/engine.cpp ****         s_bitcrush = tbc;
 832              		.loc 1 201 20 is_stmt 0 discriminator 4 view .LVU280
 833 020a 2E4B     		ldr	r3, .L440+116
 834 020c 83ED00CA 		vstr.32	s24, [r3]
 202:src/engine.cpp ****         s_ringmod  = trm;
 835              		.loc 1 202 9 is_stmt 1 discriminator 4 view .LVU281
 202:src/engine.cpp ****         s_ringmod  = trm;
 836              		.loc 1 202 20 is_stmt 0 discriminator 4 view .LVU282
 837 0210 2D4B     		ldr	r3, .L440+120
 838 0212 C3ED00CA 		vstr.32	s25, [r3]
 203:src/engine.cpp ****         s_flt[0] = s_flt[1] = s_flt[2] = s_flt[3] = 0.0f;
 839              		.loc 1 203 9 is_stmt 1 discriminator 4 view .LVU283
 203:src/engine.cpp ****         s_flt[0] = s_flt[1] = s_flt[2] = s_flt[3] = 0.0f;
 840              		.loc 1 203 20 is_stmt 0 discriminator 4 view .LVU284
 841 0216 2D4B     		ldr	r3, .L440+124
 842 0218 C3ED00FA 		vstr.32	s31, [r3]
 843              		.loc 1 204 9 is_stmt 1 discriminator 4 view .LVU285
 844              	.L19:
 205:src/engine.cpp ****     }
 206:src/engine.cpp **** 
 207:src/engine.cpp ****     // Pitch-envelope trigger: on a note onset (amp target rising from silence),
 208:src/engine.cpp ****     // jump the pitch multiplier up; it decays back to 1.0 over pitch_env_ms.
 209:src/engine.cpp ****     static float s_pmult     = 1.0f;
 845              		.loc 1 209 5 view .LVU286
 210:src/engine.cpp ****     static float s_prev_tamp = 0.0f;
 846              		.loc 1 210 5 view .LVU287
 211:src/engine.cpp ****     static float s_decay     = 1.0f;   // amp decay-to-sustain level (1 = peak)
 847              		.loc 1 211 5 view .LVU288
 212:src/engine.cpp ****     bool onset = (tamp > 0.001f && s_prev_tamp <= 0.001f);
 848              		.loc 1 212 5 view .LVU289
 849              		.loc 1 212 33 is_stmt 0 view .LVU290
 850 021c DFED1D7A 		vldr.32	s15, .L440+68
 851              		.loc 1 212 48 view .LVU291
 852 0220 2B4B     		ldr	r3, .L440+128
 853              		.loc 1 212 33 view .LVU292
 854 0222 F4EEE7AA 		vcmpe.f32	s21, s15
 855 0226 F1EE10FA 		vmrs	APSR_nzcv, FPSCR
 856 022a 55DD     		ble	.L29
 857              		.loc 1 212 33 discriminator 1 view .LVU293
 858 022c 93ED007A 		vldr.32	s14, [r3]
 859 0230 B4EEE77A 		vcmpe.f32	s14, s15
 860 0234 F1EE10FA 		vmrs	APSR_nzcv, FPSCR
 861 0238 4ED8     		bhi	.L29
 862              	.LVL65:
 213:src/engine.cpp ****     // Mono re-articulation: a re-attack while the note is held restarts the amp
 214:src/engine.cpp ****     // envelope from zero and retriggers the pitch envelope (poly drums handle
 215:src/engine.cpp ****     // their own retrigger via drum_trigger, so ignore it here).
 216:src/engine.cpp ****     if(g_retrig){ g_retrig = false; if(!poly_drums){ onset = true; s_amp = 0.0f; } }
 863              		.loc 1 216 5 is_stmt 1 view .LVU294
 864              		.loc 1 216 8 is_stmt 0 view .LVU295
 865 023a 264A     		ldr	r2, .L440+132
 866 023c 1178     		ldrb	r1, [r2]	@ zero_extendqisi2
 867              		.loc 1 216 5 view .LVU296
 868 023e 0029     		cmp	r1, #0
 869 0240 56D0     		beq	.L34
ARM GAS  /tmp/claude-502/ccjNbcJ1.s 			page 23


 870              		.loc 1 216 19 is_stmt 1 view .LVU297
 871              		.loc 1 216 28 is_stmt 0 view .LVU298
 872 0242 0021     		movs	r1, #0
 873 0244 1170     		strb	r1, [r2]
 874              		.loc 1 216 37 is_stmt 1 view .LVU299
 875 0246 0E9A     		ldr	r2, [sp, #56]
 876 0248 0E2A     		cmp	r2, #14
 877 024a 4DD1     		bne	.L32
 878 024c 50E0     		b	.L34
 879              	.L441:
 880 024e 00BF     		.align	2
 881              	.L440:
 882 0250 00000000 		.word	.LANCHOR1
 883 0254 00000000 		.word	.LANCHOR2
 884 0258 00000000 		.word	.LANCHOR3
 885 025c 00000000 		.word	.LANCHOR4
 886 0260 00000000 		.word	.LANCHOR5
 887 0264 00000000 		.word	.LANCHOR6
 888 0268 00000000 		.word	.LANCHOR7
 889 026c 00000000 		.word	.LANCHOR8
 890 0270 00000000 		.word	.LANCHOR9
 891 0274 00000000 		.word	.LANCHOR10
 892 0278 00000000 		.word	.LANCHOR11
 893 027c 00000000 		.word	.LANCHOR12
 894 0280 00000000 		.word	hw
 895 0284 00000000 		.word	.LANCHOR13
 896 0288 00000000 		.word	g_active_voice
 897 028c 00000000 		.word	g_voice_idx
 898 0290 00000000 		.word	.LANCHOR0
 899 0294 6F12833A 		.word	981668463
 900 0298 00000000 		.word	.LANCHOR14
 901 029c 00000000 		.word	.LANCHOR15
 902 02a0 00000000 		.word	.LANCHOR16
 903 02a4 00000000 		.word	.LANCHOR17
 904 02a8 00000000 		.word	.LANCHOR18
 905 02ac 00000000 		.word	.LANCHOR19
 906 02b0 00000000 		.word	.LANCHOR27
 907 02b4 00000000 		.word	.LANCHOR20
 908 02b8 00000000 		.word	.LANCHOR21
 909 02bc 00000000 		.word	.LANCHOR22
 910 02c0 00000000 		.word	.LANCHOR23
 911 02c4 00000000 		.word	.LANCHOR24
 912 02c8 00000000 		.word	.LANCHOR25
 913 02cc 00000000 		.word	.LANCHOR26
 914 02d0 00000000 		.word	.LANCHOR28
 915 02d4 00000000 		.word	.LANCHOR29
 916              	.LVL66:
 917              	.L29:
 918              		.loc 1 216 5 view .LVU300
 919              		.loc 1 216 8 is_stmt 0 view .LVU301
 920 02d8 484A     		ldr	r2, .L442
 921 02da 1178     		ldrb	r1, [r2]	@ zero_extendqisi2
 922              		.loc 1 216 5 view .LVU302
 923 02dc 81B1     		cbz	r1, .L33
 924              		.loc 1 216 19 is_stmt 1 view .LVU303
 925              		.loc 1 216 28 is_stmt 0 view .LVU304
 926 02de 0021     		movs	r1, #0
ARM GAS  /tmp/claude-502/ccjNbcJ1.s 			page 24


 927 02e0 1170     		strb	r1, [r2]
 928              		.loc 1 216 37 is_stmt 1 view .LVU305
 929 02e2 0E9A     		ldr	r2, [sp, #56]
 930 02e4 0E2A     		cmp	r2, #14
 931 02e6 0BD0     		beq	.L33
 932              	.LVL67:
 933              	.L32:
 934              		.loc 1 216 54 view .LVU306
 935              		.loc 1 216 68 view .LVU307
 936              		.loc 1 216 74 is_stmt 0 view .LVU308
 937 02e8 454A     		ldr	r2, .L442+4
 938 02ea 1146     		mov	r1, r2
 939 02ec 0022     		movs	r2, #0
 940 02ee 0A60     		str	r2, [r1]	@ float
 217:src/engine.cpp ****     if(onset){ s_pmult = s_penv_start; s_decay = 1.0f; }  // fresh note → reset decay to peak
 941              		.loc 1 217 5 is_stmt 1 view .LVU309
 942              	.L34:
 943              	.LVL68:
 944              		.loc 1 217 16 discriminator 1 view .LVU310
 945              		.loc 1 217 24 is_stmt 0 discriminator 1 view .LVU311
 946 02f0 444A     		ldr	r2, .L442+8
 947 02f2 4548     		ldr	r0, .L442+12
 948 02f4 1168     		ldr	r1, [r2]	@ float
 949              		.loc 1 217 48 discriminator 1 view .LVU312
 950 02f6 4FF07E52 		mov	r2, #1065353216
 951              		.loc 1 217 24 discriminator 1 view .LVU313
 952 02fa 0160     		str	r1, [r0]	@ float
 953              		.loc 1 217 40 is_stmt 1 discriminator 1 view .LVU314
 954              		.loc 1 217 48 is_stmt 0 discriminator 1 view .LVU315
 955 02fc 4349     		ldr	r1, .L442+16
 956 02fe 0A60     		str	r2, [r1]	@ float
 957              	.L33:
 218:src/engine.cpp ****     s_prev_tamp = tamp;
 958              		.loc 1 218 5 is_stmt 1 view .LVU316
 959              		.loc 1 218 17 is_stmt 0 view .LVU317
 960 0300 C3ED00AA 		vstr.32	s21, [r3]
 219:src/engine.cpp **** 
 220:src/engine.cpp ****     for(size_t i=0;i<size;i++)
 961              		.loc 1 220 5 is_stmt 1 view .LVU318
 962              	.LVL69:
 963              	.LBB427:
 964              		.loc 1 220 21 view .LVU319
 965 0304 0C9B     		ldr	r3, [sp, #48]
 966 0306 002B     		cmp	r3, #0
 967 0308 01F04882 		beq	.L15
 968              	.LBB428:
 221:src/engine.cpp ****     {
 222:src/engine.cpp ****         // Slew all parameters
 223:src/engine.cpp ****         s_freq    = s_freq   *s_glide_c + tfreq*(1.0f-s_glide_c);
 224:src/engine.cpp ****         // Cutoff: fast when opening (smoothed), slow when closing (with release)
 225:src/engine.cpp ****         { float sc = (tcut > s_cutoff) ? SLEW_CUT : s_rel_c;
 226:src/engine.cpp ****           s_cutoff = s_cutoff * sc + tcut * (1.0f - sc); }
 227:src/engine.cpp ****         s_drive   = s_drive   * SLEW_MISC + tdrv * (1.0f - SLEW_MISC);
 228:src/engine.cpp ****         s_vibdepth= s_vibdepth* SLEW_MISC + tvib * (1.0f - SLEW_MISC);
 229:src/engine.cpp ****         // Finger 2 params: fast attack, slow release
 230:src/engine.cpp ****         { float sa = tdet     > s_detune   ? SLEW_F2_A : SLEW_F2_R;
 231:src/engine.cpp ****           s_detune   = s_detune   * sa + tdet * (1.0f - sa); }
ARM GAS  /tmp/claude-502/ccjNbcJ1.s 			page 25


 232:src/engine.cpp ****         { float sa = tbc      > s_bitcrush ? SLEW_F2_A : SLEW_F2_R;
 233:src/engine.cpp ****           s_bitcrush = s_bitcrush * sa + tbc  * (1.0f - sa); }
 234:src/engine.cpp ****         { float sa = trm      > s_ringmod  ? SLEW_F2_A : SLEW_F2_R;
 235:src/engine.cpp ****           s_ringmod  = s_ringmod  * sa + trm  * (1.0f - sa); }
 236:src/engine.cpp ****         // Amp decay-to-sustain: s_decay rides 1 → sustain over decay_ms while the
 237:src/engine.cpp ****         // note is gated (stays pinned at 1 when decay_ms == 0, i.e. every other
 238:src/engine.cpp ****         // voice). It scales the gated target so the note plucks down to `sustain`.
 239:src/engine.cpp ****         s_decay = s_decay * s_decay_c + s_sustain * (1.0f - s_decay_c);
 240:src/engine.cpp ****         float eff_tamp = tamp * s_decay;
 241:src/engine.cpp ****         // Asymmetric envelope: attack while rising OR decaying-while-held (track the
 242:src/engine.cpp ****         // decay shape quickly — its rate comes from s_decay); release only once the
 243:src/engine.cpp ****         // note is actually let go (tamp → 0).
 244:src/engine.cpp ****         float slew_amp = (eff_tamp > s_amp || tamp > 0.001f) ? s_atk_c : s_rel_c;
 245:src/engine.cpp ****         s_amp = s_amp * slew_amp + eff_tamp * (1.0f - slew_amp);
 246:src/engine.cpp ****         // Master volume slew (smooths FSR jitter / 16 Hz update steps).
 247:src/engine.cpp ****         s_master_vol = s_master_vol * SLEW_MISC + tmvol * (1.0f - SLEW_MISC);
 248:src/engine.cpp ****         // Pitch envelope decays toward 1.0 (no-op when pitch_env_oct == 0).
 249:src/engine.cpp ****         s_pmult = 1.0f + (s_pmult - 1.0f) * s_penv_c;
 250:src/engine.cpp **** 
 251:src/engine.cpp ****         // Bleed filter state toward zero when silent
 252:src/engine.cpp ****         // Prevents stale filter energy from clicking on next note onset
 253:src/engine.cpp ****         if(s_amp < 0.001f) {
 254:src/engine.cpp ****             s_flt[0] *= 0.999f;
 255:src/engine.cpp ****             s_flt[1] *= 0.999f;
 256:src/engine.cpp ****             s_flt[2] *= 0.999f;
 257:src/engine.cpp ****             s_flt[3] *= 0.999f;
 258:src/engine.cpp ****         }
 259:src/engine.cpp **** 
 260:src/engine.cpp ****         // During release, close cutoff in sync with amplitude
 261:src/engine.cpp ****         // This prevents clicks from abrupt filter state changes
 262:src/engine.cpp ****         if(tamp < 0.001f && s_amp > 0.0001f) {
 263:src/engine.cpp ****             // Pull cutoff toward silence-floor proportional to amp decay
 264:src/engine.cpp ****             float close_target = 30.0f + s_amp * tcut;
 265:src/engine.cpp ****             tcut = close_target;
 266:src/engine.cpp ****         }
 267:src/engine.cpp **** 
 268:src/engine.cpp ****         // LFO for vibrato (6 Hz sine approximation via triangle)
 269:src/engine.cpp ****         s_lfo_phase += 6.0f/sr;
 969              		.loc 1 269 28 is_stmt 0 view .LVU320
 970 030c B1EE087A 		vmov.f32	s14, #6.0e+0
 227:src/engine.cpp ****         s_vibdepth= s_vibdepth* SLEW_MISC + tvib * (1.0f - SLEW_MISC);
 971              		.loc 1 227 50 view .LVU321
 972 0310 DFED3F7A 		vldr.32	s15, .L442+20
 973              	.LBB429:
 270:src/engine.cpp ****         if(s_lfo_phase>=1.0f)s_lfo_phase-=1.0f;
 271:src/engine.cpp ****         float lfo = tri(s_lfo_phase); // -1..1
 272:src/engine.cpp **** 
 273:src/engine.cpp ****         // Vibrato: modulate frequency by ±1 semitone * depth
 274:src/engine.cpp ****         // powf(2, semitones/12) — approx for small values: exp(x*0.0578)
 275:src/engine.cpp ****         float vib_amt = lfo * s_vibdepth * 0.05f; // max ±~0.05 semitones*depth
 276:src/engine.cpp ****         float freq_vib = s_freq * (1.0f + vib_amt) * s_pmult;  // s_pmult: pitch-env sweep
 277:src/engine.cpp **** 
 278:src/engine.cpp ****         // Osc 2 frequency. Lead: finger-2 detune around the base ratio.
 279:src/engine.cpp ****         // Bass (and any fixed-interval voice): hold osc2_ratio (e.g. a 5th).
 280:src/engine.cpp ****         // VOICE is constexpr, so only the taken branch is compiled in.
 281:src/engine.cpp ****         float freq2;
 282:src/engine.cpp ****         if(VOICE.osc2_detune) {
ARM GAS  /tmp/claude-502/ccjNbcJ1.s 			page 26


 974              		.loc 1 282 18 view .LVU322
 975 0314 3F4F     		ldr	r7, .L442+24
 976 0316 0AEB8A03 		add	r3, r10, r10, lsl #2
 977 031a 4FEA8A02 		lsl	r2, r10, #2
 978              	.LBE429:
 979              	.LBE428:
 220:src/engine.cpp ****     {
 980              		.loc 1 220 16 view .LVU323
 981 031e 4FF00008 		mov	r8, #0
 982              	.LBB1131:
 269:src/engine.cpp ****         if(s_lfo_phase>=1.0f)s_lfo_phase-=1.0f;
 983              		.loc 1 269 28 view .LVU324
 984 0322 87EE087A 		vdiv.f32	s14, s14, s16
 985              	.LBB431:
 986              		.loc 1 282 18 view .LVU325
 987 0326 07EB4313 		add	r3, r7, r3, lsl #5
 988 032a 0192     		str	r2, [sp, #4]
 989 032c 93F83D20 		ldrb	r2, [r3, #61]	@ zero_extendqisi2
 990              	.LBE431:
 283:src/engine.cpp ****             float det_ratio = 1.0f + s_detune * 0.05776f; // linear approx, good for ±1 oct
 284:src/engine.cpp ****             freq2 = freq_vib * VOICE.osc2_ratio * det_ratio;
 285:src/engine.cpp ****         } else {
 286:src/engine.cpp ****             freq2 = freq_vib * VOICE.osc2_ratio;
 287:src/engine.cpp ****         }
 288:src/engine.cpp **** 
 289:src/engine.cpp ****         // Sub and octave oscillators (ratios are voice-defined).
 290:src/engine.cpp ****         float freq_sub = freq_vib * VOICE.sub_ratio;
 291:src/engine.cpp ****         float freq_oct = freq_vib * VOICE.oct_ratio;
 292:src/engine.cpp **** 
 293:src/engine.cpp ****         // Ring mod carrier. ringmod_ratio=1.0 is unison; non-integer ratios give
 294:src/engine.cpp ****         // inharmonic bell/metallic tones.
 295:src/engine.cpp ****         float freq_rm = freq_vib * VOICE.ringmod_ratio;
 296:src/engine.cpp **** 
 297:src/engine.cpp ****         // Oscillators (mix levels are voice-defined).
 298:src/engine.cpp ****         float osc1    = osc(s_phase1,   VOICE.osc1_wave) * VOICE.osc1_level;
 991              		.loc 1 298 47 view .LVU326
 992 0330 1E7E     		ldrb	r6, [r3, #24]	@ zero_extendqisi2
 993              	.LBB432:
 282:src/engine.cpp ****             float det_ratio = 1.0f + s_detune * 0.05776f; // linear approx, good for ±1 oct
 994              		.loc 1 282 18 view .LVU327
 995 0332 1492     		str	r2, [sp, #80]
 996              	.LBE432:
 299:src/engine.cpp ****         float osc2    = osc(s_phase2,   VOICE.osc2_wave) * VOICE.osc2_level;
 300:src/engine.cpp ****         float sub     = osc(s_phase_sub,VOICE.sub_wave)  * VOICE.sub_level;
 997              		.loc 1 300 47 view .LVU328
 998 0334 93F83020 		ldrb	r2, [r3, #48]	@ zero_extendqisi2
 299:src/engine.cpp ****         float osc2    = osc(s_phase2,   VOICE.osc2_wave) * VOICE.osc2_level;
 999              		.loc 1 299 47 view .LVU329
 1000 0338 93F82450 		ldrb	r5, [r3, #36]	@ zero_extendqisi2
 1001              		.loc 1 300 47 view .LVU330
 1002 033c 1892     		str	r2, [sp, #96]
 301:src/engine.cpp ****         float osc_oct = osc(s_phase_oct,VOICE.oct_wave)  * VOICE.oct_level;
 1003              		.loc 1 301 47 view .LVU331
 1004 033e 93F83C20 		ldrb	r2, [r3, #60]	@ zero_extendqisi2
 1005 0342 354C     		ldr	r4, .L442+28
 1006 0344 1992     		str	r2, [sp, #100]
 1007              	.LBB433:
ARM GAS  /tmp/claude-502/ccjNbcJ1.s 			page 27


 302:src/engine.cpp **** 
 303:src/engine.cpp ****         // Noise (xorshift32 → -1..1), voice-defined level. Adds breath / chiff /
 304:src/engine.cpp ****         // hiss. noise_hp blends from full white ("shhh") to high-passed ("tsss",
 305:src/engine.cpp ****         // for hi-hats). The `if` folds away when a voice sets noise_level = 0.
 306:src/engine.cpp ****         float noise = 0.0f;
 307:src/engine.cpp ****         if(VOICE.noise_level > 0.0f){
 308:src/engine.cpp ****             s_noise_rng ^= s_noise_rng << 13;
 309:src/engine.cpp ****             s_noise_rng ^= s_noise_rng >> 17;
 310:src/engine.cpp ****             s_noise_rng ^= s_noise_rng << 5;
 311:src/engine.cpp ****             float white = (float)(int32_t)s_noise_rng * (1.0f/2147483648.0f);
 312:src/engine.cpp ****             // One-pole high-pass = white minus its low-frequency content.
 313:src/engine.cpp ****             s_noise_lp += NOISE_HP_COEF * (white - s_noise_lp);
 314:src/engine.cpp ****             float bright = white - s_noise_lp;
 315:src/engine.cpp ****             // Blend white → high-passed by noise_hp (×2 to make up lost level).
 316:src/engine.cpp ****             float n = white + (bright * 2.0f - white) * VOICE.noise_hp;
 317:src/engine.cpp ****             noise = n * VOICE.noise_level;
 318:src/engine.cpp ****         }
 319:src/engine.cpp **** 
 320:src/engine.cpp ****         // Mix oscillator stack + noise
 321:src/engine.cpp ****         float mix = osc1 + osc2 + sub + osc_oct + noise;
 322:src/engine.cpp **** 
 323:src/engine.cpp ****         // Diatonic chord (Voice::chords): add the snapped triad's 3rd and 5th as
 324:src/engine.cpp ****         // extra saw+pulse voices above the root. They ride freq_vib (so they
 325:src/engine.cpp ****         // glide/vibrato with the root) scaled by the per-note ratios. Sub and
 326:src/engine.cpp ****         // noise stay on the root only — keeps the low end tight and the chord
 327:src/engine.cpp ****         // clear — and the upper notes are a touch quieter (CHORD_UPPER_LEVEL) for
 328:src/engine.cpp ****         // headroom. VOICE is a runtime ref (selection is live), so this is a cheap
 329:src/engine.cpp ****         // well-predicted branch — skipped each sample for single-note voices.
 330:src/engine.cpp ****         if(VOICE.chords){
 1008              		.loc 1 330 18 view .LVU332
 1009 0346 93F89C20 		ldrb	r2, [r3, #156]	@ zero_extendqisi2
 1010              	.LBE433:
 269:src/engine.cpp ****         if(s_lfo_phase>=1.0f)s_lfo_phase-=1.0f;
 1011              		.loc 1 269 28 view .LVU333
 1012 034a 8DED137A 		vstr.32	s14, [sp, #76]
 227:src/engine.cpp ****         s_vibdepth= s_vibdepth* SLEW_MISC + tvib * (1.0f - SLEW_MISC);
 1013              		.loc 1 227 50 view .LVU334
 1014 034e 29EEA77A 		vmul.f32	s14, s19, s15
 1015 0352 8DED107A 		vstr.32	s14, [sp, #64]
 228:src/engine.cpp ****         // Finger 2 params: fast attack, slow release
 1016              		.loc 1 228 50 view .LVU335
 1017 0356 29EE277A 		vmul.f32	s14, s18, s15
 247:src/engine.cpp ****         // Pitch envelope decays toward 1.0 (no-op when pitch_env_oct == 0).
 1018              		.loc 1 247 57 view .LVU336
 1019 035a 68EEA77A 		vmul.f32	s15, s17, s15
 228:src/engine.cpp ****         // Finger 2 params: fast attack, slow release
 1020              		.loc 1 228 50 view .LVU337
 1021 035e 8DED117A 		vstr.32	s14, [sp, #68]
 247:src/engine.cpp ****         // Pitch envelope decays toward 1.0 (no-op when pitch_env_oct == 0).
 1022              		.loc 1 247 57 view .LVU338
 1023 0362 CDED127A 		vstr.32	s15, [sp, #72]
 290:src/engine.cpp ****         float freq_oct = freq_vib * VOICE.oct_ratio;
 1024              		.loc 1 290 43 view .LVU339
 1025 0366 D3ED0A7A 		vldr.32	s15, [r3, #40]
 1026              	.LBB590:
 1027              	.LBB591:
 1028              	.LBB592:
ARM GAS  /tmp/claude-502/ccjNbcJ1.s 			page 28


  36:src/dsp.h     **** }
  37:src/dsp.h     **** 
  38:src/dsp.h     **** // ── Oscillator waveforms (phase ph in [0,1) → sample in [-1,1]) ─────────
  39:src/dsp.h     **** // Triangle wave
  40:src/dsp.h     **** static inline float tri(float ph){
  41:src/dsp.h     ****     return ph<0.5f?(4.0f*ph-1.0f):(3.0f-4.0f*ph);
  42:src/dsp.h     **** }
  43:src/dsp.h     **** // Sine via parabolic approximation (no libm call) — matches sin(2π·ph).
  44:src/dsp.h     **** static inline float osc_sine(float ph){
  45:src/dsp.h     ****     constexpr float PI = 3.14159265f;
  46:src/dsp.h     ****     float x = ph*2.0f*PI - PI;                 // -π..π (angle shifted by π)
  47:src/dsp.h     ****     float y = 1.27323954f*x - 0.405284735f*x*(x<0?-x:x);
  48:src/dsp.h     ****     y = 0.225f*(y*(y<0?-y:y) - y) + y;         // one refinement pass
  49:src/dsp.h     ****     return -y;                                 // undo the π shift: sin(x+π) = -sin(x)
  50:src/dsp.h     **** }
  51:src/dsp.h     **** // Naive square / saw — alias at high pitch but sound rich on a bass voice.
  52:src/dsp.h     **** static inline float osc_square(float ph){ return ph<0.5f ? 1.0f : -1.0f; }
  53:src/dsp.h     **** static inline float osc_saw(float ph){ return 2.0f*ph - 1.0f; }
  54:src/dsp.h     **** 
  55:src/dsp.h     **** // Dispatch on a per-oscillator waveform (runtime, since the active voice can be
  56:src/dsp.h     **** // switched live). A small jump table — cheap at audio rate on the H750.
  57:src/dsp.h     **** static inline float osc(float ph, Waveform w){
  58:src/dsp.h     ****     switch(w){
  59:src/dsp.h     ****         case WAVE_SINE:   return osc_sine(ph);
  60:src/dsp.h     ****         case WAVE_SQUARE: return osc_square(ph);
  61:src/dsp.h     ****         case WAVE_SAW:    return osc_saw(ph);
  62:src/dsp.h     ****         case WAVE_TRI:
  63:src/dsp.h     ****         default:          return tri(ph);
  64:src/dsp.h     ****     }
  65:src/dsp.h     **** }
  66:src/dsp.h     **** 
  67:src/dsp.h     **** // Moog 4-pole ladder, operating on a caller-supplied state array (so multiple
  68:src/dsp.h     **** // voices can each have their own filter).
  69:src/dsp.h     **** static inline float moog_st(float in, float cutoff, float res, float sr, float st[4])
  70:src/dsp.h     **** {
  71:src/dsp.h     ****     float f = 2.0f*cutoff/sr;
  72:src/dsp.h     ****     if(f>0.98f)f=0.98f;
  73:src/dsp.h     ****     float k  = 3.8f*res;
 1029              		.loc 2 73 11 view .LVU340
 1030 036a 9FED2C7A 		vldr.32	s14, .L442+32
 1031              	.LBE592:
 1032              	.LBE591:
 1033              	.LBE590:
 290:src/engine.cpp ****         float freq_oct = freq_vib * VOICE.oct_ratio;
 1034              		.loc 1 290 43 view .LVU341
 1035 036e CDED157A 		vstr.32	s15, [sp, #84]
 291:src/engine.cpp **** 
 1036              		.loc 1 291 43 view .LVU342
 1037 0372 D3ED0D7A 		vldr.32	s15, [r3, #52]
 1038 0376 CDED167A 		vstr.32	s15, [sp, #88]
 1039              	.LBB683:
 1040              	.LBB674:
 1041              	.LBB665:
 1042              		.loc 2 73 11 view .LVU343
 1043 037a D3ED127A 		vldr.32	s15, [r3, #72]
 1044 037e 67EE677A 		vnmul.f32	s15, s14, s15
 1045 0382 CDED257A 		vstr.32	s15, [sp, #148]
ARM GAS  /tmp/claude-502/ccjNbcJ1.s 			page 29


 1046              	.LBE665:
 1047              	.LBE674:
 1048              	.LBE683:
 295:src/engine.cpp **** 
 1049              		.loc 1 295 42 view .LVU344
 1050 0386 D3ED167A 		vldr.32	s15, [r3, #88]
 1051 038a CDED177A 		vstr.32	s15, [sp, #92]
 298:src/engine.cpp ****         float osc2    = osc(s_phase2,   VOICE.osc2_wave) * VOICE.osc2_level;
 1052              		.loc 1 298 66 view .LVU345
 1053 038e D3ED057A 		vldr.32	s15, [r3, #20]
 1054 0392 CDED067A 		vstr.32	s15, [sp, #24]
 299:src/engine.cpp ****         float sub     = osc(s_phase_sub,VOICE.sub_wave)  * VOICE.sub_level;
 1055              		.loc 1 299 66 view .LVU346
 1056 0396 D3ED087A 		vldr.32	s15, [r3, #32]
 1057 039a CDED077A 		vstr.32	s15, [sp, #28]
 300:src/engine.cpp ****         float osc_oct = osc(s_phase_oct,VOICE.oct_wave)  * VOICE.oct_level;
 1058              		.loc 1 300 66 view .LVU347
 1059 039e D3ED0B7A 		vldr.32	s15, [r3, #44]
 1060 03a2 CDED277A 		vstr.32	s15, [sp, #156]
 301:src/engine.cpp **** 
 1061              		.loc 1 301 66 view .LVU348
 1062 03a6 D3ED0E7A 		vldr.32	s15, [r3, #56]
 1063 03aa CDED287A 		vstr.32	s15, [sp, #160]
 1064              	.LBB684:
 307:src/engine.cpp ****             s_noise_rng ^= s_noise_rng << 13;
 1065              		.loc 1 307 18 view .LVU349
 1066 03ae D3ED147A 		vldr.32	s15, [r3, #80]
 1067 03b2 CDED1A7A 		vstr.32	s15, [sp, #104]
 1068              	.LBE684:
 1069              	.LBB686:
 1070              		.loc 1 330 18 view .LVU350
 1071 03b6 1B92     		str	r2, [sp, #108]
 1072              	.LBB434:
 331:src/engine.cpp ****             float f3 = freq_vib * tcr2;   // 3rd
 332:src/engine.cpp ****             float f5 = freq_vib * tcr3;   // 5th
 333:src/engine.cpp ****             mix += (osc(s_phase1b, VOICE.osc1_wave) * VOICE.osc1_level
 334:src/engine.cpp ****                   + osc(s_phase2b, VOICE.osc2_wave) * VOICE.osc2_level) * CHORD_UPPER_LEVEL;
 335:src/engine.cpp ****             mix += (osc(s_phase1c, VOICE.osc1_wave) * VOICE.osc1_level
 336:src/engine.cpp ****                   + osc(s_phase2c, VOICE.osc2_wave) * VOICE.osc2_level) * CHORD_UPPER_LEVEL;
 337:src/engine.cpp ****             s_phase1b += f3*VOICE.osc1_ratio/sr; if(s_phase1b>=1.0f)s_phase1b-=1.0f;
 1073              		.loc 1 337 35 view .LVU351
 1074 03b8 D3ED047A 		vldr.32	s15, [r3, #16]
 1075 03bc 184B     		ldr	r3, .L442+36
 1076 03be CDED057A 		vstr.32	s15, [sp, #20]
 1077 03c2 1C93     		str	r3, [sp, #112]
 1078 03c4 174B     		ldr	r3, .L442+40
 1079 03c6 CDF808A0 		str	r10, [sp, #8]
 1080 03ca 1D93     		str	r3, [sp, #116]
 1081 03cc 164B     		ldr	r3, .L442+44
 1082 03ce 1E93     		str	r3, [sp, #120]
 1083 03d0 164B     		ldr	r3, .L442+48
 1084 03d2 1F93     		str	r3, [sp, #124]
 1085 03d4 164B     		ldr	r3, .L442+52
 1086 03d6 2093     		str	r3, [sp, #128]
 1087 03d8 164B     		ldr	r3, .L442+56
 1088 03da 0393     		str	r3, [sp, #12]
 1089 03dc 164B     		ldr	r3, .L442+60
ARM GAS  /tmp/claude-502/ccjNbcJ1.s 			page 30


 1090 03de 2193     		str	r3, [sp, #132]
 1091 03e0 164B     		ldr	r3, .L442+64
 1092 03e2 2293     		str	r3, [sp, #136]
 1093 03e4 164B     		ldr	r3, .L442+68
 1094 03e6 2393     		str	r3, [sp, #140]
 1095 03e8 164B     		ldr	r3, .L442+72
 1096 03ea 2493     		str	r3, [sp, #144]
 1097 03ec 044B     		ldr	r3, .L442+4
 1098 03ee 0493     		str	r3, [sp, #16]
 1099 03f0 054B     		ldr	r3, .L442+12
 1100 03f2 2693     		str	r3, [sp, #152]
 1101 03f4 054B     		ldr	r3, .L442+16
 1102 03f6 9946     		mov	r9, r3
 1103 03f8 00F0E9BC 		b	.L246
 1104              	.L443:
 1105              		.align	2
 1106              	.L442:
 1107 03fc 00000000 		.word	.LANCHOR29
 1108 0400 00000000 		.word	.LANCHOR30
 1109 0404 00000000 		.word	.LANCHOR18
 1110 0408 00000000 		.word	.LANCHOR31
 1111 040c 00000000 		.word	.LANCHOR32
 1112 0410 00D7233C 		.word	1008981760
 1113 0414 00000000 		.word	.LANCHOR0
 1114 0418 00000000 		.word	.LANCHOR27
 1115 041c 33337340 		.word	1081291571
 1116 0420 00000000 		.word	.LANCHOR14
 1117 0424 00000000 		.word	.LANCHOR17
 1118 0428 00000000 		.word	.LANCHOR19
 1119 042c 00000000 		.word	.LANCHOR20
 1120 0430 00000000 		.word	.LANCHOR21
 1121 0434 00000000 		.word	.LANCHOR22
 1122 0438 00000000 		.word	.LANCHOR23
 1123 043c 00000000 		.word	.LANCHOR24
 1124 0440 00000000 		.word	.LANCHOR25
 1125 0444 00000000 		.word	.LANCHOR26
 1126 0448 6F12833A 		.word	981668463
 1127 044c 17B7D138 		.word	953267991
 1128              	.LVL70:
 1129              	.L428:
 1130              		.loc 1 337 35 view .LVU352
 1131              	.LBE434:
 1132              	.LBE686:
 1133              	.LBB687:
 1134              	.LBB675:
 1135              	.LBB666:
  74:src/dsp.h     ****     float fb = k*st[3];
 1136              		.loc 2 74 22 view .LVU353
 1137 0450 94ED035A 		vldr.32	s10, [r4, #12]
  75:src/dsp.h     ****     float x  = in - fb;
  76:src/dsp.h     ****     st[0]+=f*(fast_tanh(x)    -fast_tanh(st[0]));
 1138              		.loc 2 76 41 view .LVU354
 1139 0454 D4ED003A 		vldr.32	s7, [r4]
  77:src/dsp.h     ****     st[1]+=f*(fast_tanh(st[0])-fast_tanh(st[1]));
 1140              		.loc 2 77 41 view .LVU355
 1141 0458 94ED014A 		vldr.32	s8, [r4, #4]
  78:src/dsp.h     ****     st[2]+=f*(fast_tanh(st[1])-fast_tanh(st[2]));
ARM GAS  /tmp/claude-502/ccjNbcJ1.s 			page 31


 1142              		.loc 2 78 41 view .LVU356
 1143 045c D4ED024A 		vldr.32	s9, [r4, #8]
 1144              	.L45:
 1145              	.LBE666:
 1146              	.LBE675:
 1147              	.LBE687:
 262:src/engine.cpp ****             // Pull cutoff toward silence-floor proportional to amp decay
 1148              		.loc 1 262 9 is_stmt 1 view .LVU357
 1149              	.LBB688:
 1150 0460 5FED077A 		vldr.32	s15, .L442+76
 1151 0464 F4EEE7AA 		vcmpe.f32	s21, s15
 1152 0468 F1EE10FA 		vmrs	APSR_nzcv, FPSCR
 1153 046c 0CD5     		bpl	.L46
 262:src/engine.cpp ****             // Pull cutoff toward silence-floor proportional to amp decay
 1154              		.loc 1 262 26 is_stmt 0 discriminator 1 view .LVU358
 1155 046e 5FED097A 		vldr.32	s15, .L442+80
 1156 0472 B4EEE76A 		vcmpe.f32	s12, s15
 1157 0476 F1EE10FA 		vmrs	APSR_nzcv, FPSCR
 1158 047a 05DD     		ble	.L46
 1159              	.LBB689:
 264:src/engine.cpp ****             tcut = close_target;
 1160              		.loc 1 264 13 is_stmt 1 view .LVU359
 264:src/engine.cpp ****             tcut = close_target;
 1161              		.loc 1 264 19 is_stmt 0 view .LVU360
 1162 047c F3EE0E7A 		vmov.f32	s15, #3.0e+1
 1163 0480 E6EE2B7A 		vfma.f32	s15, s12, s23
 1164 0484 F0EE67BA 		vmov.f32	s23, s15
 1165              	.LVL71:
 265:src/engine.cpp ****         }
 1166              		.loc 1 265 13 is_stmt 1 view .LVU361
 1167              	.L46:
 265:src/engine.cpp ****         }
 1168              		.loc 1 265 13 is_stmt 0 view .LVU362
 1169              	.LBE689:
 1170              	.LBE688:
 269:src/engine.cpp ****         if(s_lfo_phase>=1.0f)s_lfo_phase-=1.0f;
 1171              		.loc 1 269 9 is_stmt 1 view .LVU363
 269:src/engine.cpp ****         if(s_lfo_phase>=1.0f)s_lfo_phase-=1.0f;
 1172              		.loc 1 269 21 is_stmt 0 view .LVU364
 1173 0488 E34B     		ldr	r3, .L444
 1174              	.LBB690:
 1175              	.LBB691:
  41:src/dsp.h     **** }
 1176              		.loc 2 41 19 view .LVU365
 1177 048a F1EE000A 		vmov.f32	s1, #4.0e+0
 1178              	.LBE691:
 1179              	.LBE690:
 269:src/engine.cpp ****         if(s_lfo_phase>=1.0f)s_lfo_phase-=1.0f;
 1180              		.loc 1 269 21 view .LVU366
 1181 048e DDED137A 		vldr.32	s15, [sp, #76]
 1182 0492 D3ED002A 		vldr.32	s5, [r3]
 1183              	.LVL72:
 269:src/engine.cpp ****         if(s_lfo_phase>=1.0f)s_lfo_phase-=1.0f;
 1184              		.loc 1 269 21 view .LVU367
 1185 0496 77EEA22A 		vadd.f32	s5, s15, s5
 270:src/engine.cpp ****         float lfo = tri(s_lfo_phase); // -1..1
 1186              		.loc 1 270 9 is_stmt 1 view .LVU368
ARM GAS  /tmp/claude-502/ccjNbcJ1.s 			page 32


 1187 049a F7EE007A 		vmov.f32	s15, #1.0e+0
 1188 049e F4EEE72A 		vcmpe.f32	s5, s15
 1189 04a2 F1EE10FA 		vmrs	APSR_nzcv, FPSCR
 270:src/engine.cpp ****         float lfo = tri(s_lfo_phase); // -1..1
 1190              		.loc 1 270 30 view .LVU369
 270:src/engine.cpp ****         float lfo = tri(s_lfo_phase); // -1..1
 1191              		.loc 1 270 41 is_stmt 0 view .LVU370
 1192 04a6 A4BF     		itt	ge
 1193 04a8 72EEE72A 		vsubge.f32	s5, s5, s15
 1194 04ac DA4B     		ldrge	r3, .L444
 1195              	.LBB695:
 1196              	.LBB692:
  41:src/dsp.h     **** }
 1197              		.loc 2 41 19 view .LVU371
 1198 04ae F6EE007A 		vmov.f32	s15, #5.0e-1
 1199              	.LBE692:
 1200              	.LBE695:
 270:src/engine.cpp ****         float lfo = tri(s_lfo_phase); // -1..1
 1201              		.loc 1 270 41 view .LVU372
 1202 04b2 C3ED002A 		vstr.32	s5, [r3]
 271:src/engine.cpp **** 
 1203              		.loc 1 271 9 is_stmt 1 view .LVU373
 1204              	.LVL73:
 1205              	.LBB696:
 1206              	.LBI690:
  40:src/dsp.h     ****     return ph<0.5f?(4.0f*ph-1.0f):(3.0f-4.0f*ph);
 1207              		.loc 2 40 21 view .LVU374
 1208              	.LBB693:
  41:src/dsp.h     **** }
 1209              		.loc 2 41 5 view .LVU375
  41:src/dsp.h     **** }
 1210              		.loc 2 41 19 is_stmt 0 view .LVU376
 1211 04b6 F4EEE72A 		vcmpe.f32	s5, s15
 1212 04ba F1EE10FA 		vmrs	APSR_nzcv, FPSCR
 1213 04be 40F18E85 		bpl	.L370
  41:src/dsp.h     **** }
 1214              		.loc 2 41 19 view .LVU377
 1215 04c2 FFEE007A 		vmov.f32	s15, #-1.0e+0
 1216 04c6 E2EEA07A 		vfma.f32	s15, s5, s1
 1217              	.L53:
 1218              	.LVL74:
  41:src/dsp.h     **** }
 1219              		.loc 2 41 19 view .LVU378
 1220              	.LBE693:
 1221              	.LBE696:
 275:src/engine.cpp ****         float freq_vib = s_freq * (1.0f + vib_amt) * s_pmult;  // s_pmult: pitch-env sweep
 1222              		.loc 1 275 9 is_stmt 1 view .LVU379
 276:src/engine.cpp **** 
 1223              		.loc 1 276 9 view .LVU380
 276:src/engine.cpp **** 
 1224              		.loc 1 276 41 is_stmt 0 view .LVU381
 1225 04ca F7EE002A 		vmov.f32	s5, #1.0e+0
 1226 04ce DFEDD30A 		vldr.32	s1, .L444+4
 275:src/engine.cpp ****         float freq_vib = s_freq * (1.0f + vib_amt) * s_pmult;  // s_pmult: pitch-env sweep
 1227              		.loc 1 275 29 view .LVU382
 1228 04d2 21EE271A 		vmul.f32	s2, s2, s15
 1229              	.LVL75:
ARM GAS  /tmp/claude-502/ccjNbcJ1.s 			page 33


 1230              	.LBB697:
 282:src/engine.cpp ****             float det_ratio = 1.0f + s_detune * 0.05776f; // linear approx, good for ±1 oct
 1231              		.loc 1 282 9 view .LVU383
 1232 04d6 149B     		ldr	r3, [sp, #80]
 1233              	.LBE697:
 276:src/engine.cpp **** 
 1234              		.loc 1 276 41 view .LVU384
 1235 04d8 F0EE627A 		vmov.f32	s15, s5
 1236              	.LVL76:
 276:src/engine.cpp **** 
 1237              		.loc 1 276 41 view .LVU385
 1238 04dc E1EE207A 		vfma.f32	s15, s2, s1
 276:src/engine.cpp **** 
 1239              		.loc 1 276 33 view .LVU386
 1240 04e0 67EE277A 		vmul.f32	s15, s14, s15
 276:src/engine.cpp **** 
 1241              		.loc 1 276 15 view .LVU387
 1242 04e4 67EE827A 		vmul.f32	s15, s15, s4
 1243              	.LVL77:
 281:src/engine.cpp ****         if(VOICE.osc2_detune) {
 1244              		.loc 1 281 9 is_stmt 1 view .LVU388
 282:src/engine.cpp ****             float det_ratio = 1.0f + s_detune * 0.05776f; // linear approx, good for ±1 oct
 1245              		.loc 1 282 9 view .LVU389
 1246              	.LBB698:
 1247 04e8 002B     		cmp	r3, #0
 1248 04ea 00F06B85 		beq	.L54
 1249              	.LBB430:
 283:src/engine.cpp ****             freq2 = freq_vib * VOICE.osc2_ratio * det_ratio;
 1250              		.loc 1 283 13 view .LVU390
 283:src/engine.cpp ****             freq2 = freq_vib * VOICE.osc2_ratio * det_ratio;
 1251              		.loc 1 283 19 is_stmt 0 view .LVU391
 1252 04ee 9FEDCC2A 		vldr.32	s4, .L444+8
 284:src/engine.cpp ****         } else {
 1253              		.loc 1 284 38 view .LVU392
 1254 04f2 DDE90132 		ldrd	r3, r2, [sp, #4]
 283:src/engine.cpp ****             freq2 = freq_vib * VOICE.osc2_ratio * det_ratio;
 1255              		.loc 1 283 19 view .LVU393
 1256 04f6 E1EE822A 		vfma.f32	s5, s3, s4
 1257              	.LVL78:
 284:src/engine.cpp ****         } else {
 1258              		.loc 1 284 13 is_stmt 1 view .LVU394
 284:src/engine.cpp ****         } else {
 1259              		.loc 1 284 38 is_stmt 0 view .LVU395
 1260 04fa 1344     		add	r3, r3, r2
 1261 04fc 07EB4313 		add	r3, r7, r3, lsl #5
 284:src/engine.cpp ****         } else {
 1262              		.loc 1 284 30 view .LVU396
 1263 0500 93ED077A 		vldr.32	s14, [r3, #28]
 1264 0504 27EE877A 		vmul.f32	s14, s15, s14
 284:src/engine.cpp ****         } else {
 1265              		.loc 1 284 19 view .LVU397
 1266 0508 27EE227A 		vmul.f32	s14, s14, s5
 1267 050c 8DED0B7A 		vstr.32	s14, [sp, #44]
 1268              	.LVL79:
 1269              	.L55:
 284:src/engine.cpp ****         } else {
 1270              		.loc 1 284 19 view .LVU398
ARM GAS  /tmp/claude-502/ccjNbcJ1.s 			page 34


 1271              	.LBE430:
 1272              	.LBE698:
 290:src/engine.cpp ****         float freq_oct = freq_vib * VOICE.oct_ratio;
 1273              		.loc 1 290 9 is_stmt 1 view .LVU399
 290:src/engine.cpp ****         float freq_oct = freq_vib * VOICE.oct_ratio;
 1274              		.loc 1 290 15 is_stmt 0 view .LVU400
 1275 0510 9DED157A 		vldr.32	s14, [sp, #84]
 1276              	.LBB699:
 1277              	.LBB700:
  58:src/dsp.h     ****         case WAVE_SINE:   return osc_sine(ph);
 1278              		.loc 2 58 5 view .LVU401
 1279 0514 022E     		cmp	r6, #2
 1280              	.LBE700:
 1281              	.LBE699:
 298:src/engine.cpp ****         float osc2    = osc(s_phase2,   VOICE.osc2_wave) * VOICE.osc2_level;
 1282              		.loc 1 298 28 view .LVU402
 1283 0516 C34B     		ldr	r3, .L444+12
 290:src/engine.cpp ****         float freq_oct = freq_vib * VOICE.oct_ratio;
 1284              		.loc 1 290 15 view .LVU403
 1285 0518 27EE877A 		vmul.f32	s14, s15, s14
 298:src/engine.cpp ****         float osc2    = osc(s_phase2,   VOICE.osc2_wave) * VOICE.osc2_level;
 1286              		.loc 1 298 28 view .LVU404
 1287 051c 93ED000A 		vldr.32	s0, [r3]
 290:src/engine.cpp ****         float freq_oct = freq_vib * VOICE.oct_ratio;
 1288              		.loc 1 290 15 view .LVU405
 1289 0520 8DED087A 		vstr.32	s14, [sp, #32]
 1290              	.LVL80:
 291:src/engine.cpp **** 
 1291              		.loc 1 291 9 is_stmt 1 view .LVU406
 291:src/engine.cpp **** 
 1292              		.loc 1 291 15 is_stmt 0 view .LVU407
 1293 0524 9DED167A 		vldr.32	s14, [sp, #88]
 1294              	.LVL81:
 291:src/engine.cpp **** 
 1295              		.loc 1 291 15 view .LVU408
 1296 0528 27EE877A 		vmul.f32	s14, s15, s14
 1297 052c 8DED097A 		vstr.32	s14, [sp, #36]
 1298              	.LVL82:
 295:src/engine.cpp **** 
 1299              		.loc 1 295 9 is_stmt 1 view .LVU409
 295:src/engine.cpp **** 
 1300              		.loc 1 295 15 is_stmt 0 view .LVU410
 1301 0530 9DED177A 		vldr.32	s14, [sp, #92]
 1302              	.LVL83:
 295:src/engine.cpp **** 
 1303              		.loc 1 295 15 view .LVU411
 1304 0534 27EE877A 		vmul.f32	s14, s15, s14
 1305 0538 8DED0A7A 		vstr.32	s14, [sp, #40]
 1306              	.LVL84:
 298:src/engine.cpp ****         float osc2    = osc(s_phase2,   VOICE.osc2_wave) * VOICE.osc2_level;
 1307              		.loc 1 298 9 is_stmt 1 view .LVU412
 1308              	.LBB730:
 1309              	.LBI699:
  57:src/dsp.h     ****     switch(w){
 1310              		.loc 2 57 21 view .LVU413
 1311              	.LBB720:
  58:src/dsp.h     ****         case WAVE_SINE:   return osc_sine(ph);
ARM GAS  /tmp/claude-502/ccjNbcJ1.s 			page 35


 1312              		.loc 2 58 5 view .LVU414
 1313 053c 00F06886 		beq	.L56
 1314 0540 032E     		cmp	r6, #3
 1315 0542 00F03486 		beq	.L57
 1316 0546 012E     		cmp	r6, #1
 1317 0548 00F08886 		beq	.L418
 1318              	.LVL85:
 1319              	.LBB701:
 1320              	.LBI701:
  57:src/dsp.h     ****     switch(w){
 1321              		.loc 2 57 21 view .LVU415
  57:src/dsp.h     ****     switch(w){
 1322              		.loc 2 57 21 is_stmt 0 view .LVU416
 1323              	.LBE701:
 1324              	.LBE720:
 1325              	.LBE730:
 1326              	.LBE1131:
 1327              	.LBE427:
  62:src/dsp.h     ****         default:          return tri(ph);
 1328              		.loc 2 62 9 is_stmt 1 view .LVU417
  63:src/dsp.h     ****     }
 1329              		.loc 2 63 9 view .LVU418
  63:src/dsp.h     ****     }
 1330              		.loc 2 63 27 view .LVU419
 1331              	.LBB1148:
 1332              	.LBB1132:
 1333              	.LBB731:
 1334              	.LBB721:
 1335              	.LBB706:
 1336              	.LBB702:
 1337              	.LBI702:
  40:src/dsp.h     ****     return ph<0.5f?(4.0f*ph-1.0f):(3.0f-4.0f*ph);
 1338              		.loc 2 40 21 view .LVU420
 1339              	.LBB703:
  41:src/dsp.h     **** }
 1340              		.loc 2 41 5 view .LVU421
  41:src/dsp.h     **** }
 1341              		.loc 2 41 19 is_stmt 0 view .LVU422
 1342 054c B6EE007A 		vmov.f32	s14, #5.0e-1
 1343              	.LVL86:
  41:src/dsp.h     **** }
 1344              		.loc 2 41 19 view .LVU423
 1345 0550 B4EEC70A 		vcmpe.f32	s0, s14
 1346 0554 B1EE007A 		vmov.f32	s14, #4.0e+0
 1347 0558 F1EE10FA 		vmrs	APSR_nzcv, FPSCR
 1348 055c 40F1AC87 		bpl	.L372
 1349 0560 FFEE002A 		vmov.f32	s5, #-1.0e+0
 1350 0564 E0EE072A 		vfma.f32	s5, s0, s14
 1351              	.LBE703:
 1352              	.LBE702:
 1353              	.LBE706:
 1354              	.LBE721:
 1355              	.LBE731:
 298:src/engine.cpp ****         float osc2    = osc(s_phase2,   VOICE.osc2_wave) * VOICE.osc2_level;
 1356              		.loc 1 298 66 view .LVU424
 1357 0568 9DED067A 		vldr.32	s14, [sp, #24]
 1358 056c 62EE872A 		vmul.f32	s5, s5, s14
ARM GAS  /tmp/claude-502/ccjNbcJ1.s 			page 36


 1359              	.LVL87:
 1360              	.L63:
 299:src/engine.cpp ****         float sub     = osc(s_phase_sub,VOICE.sub_wave)  * VOICE.sub_level;
 1361              		.loc 1 299 9 is_stmt 1 view .LVU425
 299:src/engine.cpp ****         float sub     = osc(s_phase_sub,VOICE.sub_wave)  * VOICE.sub_level;
 1362              		.loc 1 299 28 is_stmt 0 view .LVU426
 1363 0570 AD4B     		ldr	r3, .L444+16
 1364              	.LBB732:
 1365              	.LBB733:
  58:src/dsp.h     ****         case WAVE_SINE:   return osc_sine(ph);
 1366              		.loc 2 58 5 view .LVU427
 1367 0572 022D     		cmp	r5, #2
 1368              	.LBE733:
 1369              	.LBE732:
 299:src/engine.cpp ****         float sub     = osc(s_phase_sub,VOICE.sub_wave)  * VOICE.sub_level;
 1370              		.loc 1 299 28 view .LVU428
 1371 0574 D3ED000A 		vldr.32	s1, [r3]
 1372              	.LVL88:
 1373              	.LBB759:
 1374              	.LBI732:
  57:src/dsp.h     ****     switch(w){
 1375              		.loc 2 57 21 is_stmt 1 view .LVU429
 1376              	.LBB749:
  58:src/dsp.h     ****         case WAVE_SINE:   return osc_sine(ph);
 1377              		.loc 2 58 5 view .LVU430
 1378 0578 00F02986 		beq	.L66
 1379              	.L430:
  58:src/dsp.h     ****         case WAVE_SINE:   return osc_sine(ph);
 1380              		.loc 2 58 5 is_stmt 0 view .LVU431
 1381 057c 032D     		cmp	r5, #3
 1382 057e 00F06186 		beq	.L67
 1383 0582 012D     		cmp	r5, #1
 1384 0584 00F09A86 		beq	.L419
 1385              	.LVL89:
 1386              	.LBB734:
 1387              	.LBI734:
  57:src/dsp.h     ****     switch(w){
 1388              		.loc 2 57 21 is_stmt 1 view .LVU432
  57:src/dsp.h     ****     switch(w){
 1389              		.loc 2 57 21 is_stmt 0 view .LVU433
 1390              	.LBE734:
 1391              	.LBE749:
 1392              	.LBE759:
 1393              	.LBE1132:
 1394              	.LBE1148:
  62:src/dsp.h     ****         default:          return tri(ph);
 1395              		.loc 2 62 9 is_stmt 1 view .LVU434
  63:src/dsp.h     ****     }
 1396              		.loc 2 63 9 view .LVU435
  63:src/dsp.h     ****     }
 1397              		.loc 2 63 27 view .LVU436
 1398              	.LBB1149:
 1399              	.LBB1133:
 1400              	.LBB760:
 1401              	.LBB750:
 1402              	.LBB739:
 1403              	.LBB735:
ARM GAS  /tmp/claude-502/ccjNbcJ1.s 			page 37


 1404              	.LBI735:
  40:src/dsp.h     ****     return ph<0.5f?(4.0f*ph-1.0f):(3.0f-4.0f*ph);
 1405              		.loc 2 40 21 view .LVU437
 1406              	.LBB736:
  41:src/dsp.h     **** }
 1407              		.loc 2 41 5 view .LVU438
  41:src/dsp.h     **** }
 1408              		.loc 2 41 19 is_stmt 0 view .LVU439
 1409 0588 B6EE007A 		vmov.f32	s14, #5.0e-1
 1410 058c F4EEC70A 		vcmpe.f32	s1, s14
 1411 0590 B1EE007A 		vmov.f32	s14, #4.0e+0
 1412 0594 F1EE10FA 		vmrs	APSR_nzcv, FPSCR
 1413 0598 40F1A687 		bpl	.L374
  41:src/dsp.h     **** }
 1414              		.loc 2 41 19 view .LVU440
 1415 059c BFEE00DA 		vmov.f32	s26, #-1.0e+0
 1416 05a0 A0EE87DA 		vfma.f32	s26, s1, s14
 1417              	.LBE736:
 1418              	.LBE735:
 1419              	.LBE739:
 1420              	.LBE750:
 1421              	.LBE760:
 299:src/engine.cpp ****         float sub     = osc(s_phase_sub,VOICE.sub_wave)  * VOICE.sub_level;
 1422              		.loc 1 299 66 view .LVU441
 1423 05a4 9DED077A 		vldr.32	s14, [sp, #28]
 1424 05a8 2DEE07DA 		vmul.f32	s26, s26, s14
 1425              	.LVL90:
 1426              	.L73:
 300:src/engine.cpp ****         float osc_oct = osc(s_phase_oct,VOICE.oct_wave)  * VOICE.oct_level;
 1427              		.loc 1 300 9 is_stmt 1 view .LVU442
 300:src/engine.cpp ****         float osc_oct = osc(s_phase_oct,VOICE.oct_wave)  * VOICE.oct_level;
 1428              		.loc 1 300 28 is_stmt 0 view .LVU443
 1429 05ac 9F4B     		ldr	r3, .L444+20
 1430 05ae 93ED001A 		vldr.32	s2, [r3]
 1431              	.LVL91:
 1432              	.LBB761:
 1433              	.LBI761:
  57:src/dsp.h     ****     switch(w){
 1434              		.loc 2 57 21 is_stmt 1 view .LVU444
 1435              	.LBB762:
  58:src/dsp.h     ****         case WAVE_SINE:   return osc_sine(ph);
 1436              		.loc 2 58 5 view .LVU445
 1437 05b2 189B     		ldr	r3, [sp, #96]
 1438 05b4 022B     		cmp	r3, #2
 1439 05b6 00F01D86 		beq	.L76
 1440              	.L431:
  58:src/dsp.h     ****         case WAVE_SINE:   return osc_sine(ph);
 1441              		.loc 2 58 5 is_stmt 0 view .LVU446
 1442 05ba 032B     		cmp	r3, #3
 1443 05bc 00F03686 		beq	.L77
 1444 05c0 012B     		cmp	r3, #1
 1445 05c2 00F0C485 		beq	.L420
 1446              	.LVL92:
 1447              	.LBB763:
 1448              	.LBI763:
  57:src/dsp.h     ****     switch(w){
 1449              		.loc 2 57 21 is_stmt 1 view .LVU447
ARM GAS  /tmp/claude-502/ccjNbcJ1.s 			page 38


  57:src/dsp.h     ****     switch(w){
 1450              		.loc 2 57 21 is_stmt 0 view .LVU448
 1451              	.LBE763:
 1452              	.LBE762:
 1453              	.LBE761:
 1454              	.LBE1133:
 1455              	.LBE1149:
  62:src/dsp.h     ****         default:          return tri(ph);
 1456              		.loc 2 62 9 is_stmt 1 view .LVU449
  63:src/dsp.h     ****     }
 1457              		.loc 2 63 9 view .LVU450
  63:src/dsp.h     ****     }
 1458              		.loc 2 63 27 view .LVU451
 1459              	.LBB1150:
 1460              	.LBB1134:
 1461              	.LBB793:
 1462              	.LBB782:
 1463              	.LBB768:
 1464              	.LBB764:
 1465              	.LBI764:
  40:src/dsp.h     ****     return ph<0.5f?(4.0f*ph-1.0f):(3.0f-4.0f*ph);
 1466              		.loc 2 40 21 view .LVU452
 1467              	.LBB765:
  41:src/dsp.h     **** }
 1468              		.loc 2 41 5 view .LVU453
  41:src/dsp.h     **** }
 1469              		.loc 2 41 19 is_stmt 0 view .LVU454
 1470 05c6 B6EE007A 		vmov.f32	s14, #5.0e-1
 1471 05ca B4EEC71A 		vcmpe.f32	s2, s14
 1472 05ce B1EE007A 		vmov.f32	s14, #4.0e+0
 1473 05d2 F1EE10FA 		vmrs	APSR_nzcv, FPSCR
 1474 05d6 40F19187 		bpl	.L376
  41:src/dsp.h     **** }
 1475              		.loc 2 41 19 view .LVU455
 1476 05da BFEE00BA 		vmov.f32	s22, #-1.0e+0
 1477 05de A1EE07BA 		vfma.f32	s22, s2, s14
 1478              	.LBE765:
 1479              	.LBE764:
 1480              	.LBE768:
 1481              	.LBE782:
 1482              	.LBE793:
 300:src/engine.cpp ****         float osc_oct = osc(s_phase_oct,VOICE.oct_wave)  * VOICE.oct_level;
 1483              		.loc 1 300 66 view .LVU456
 1484 05e2 9DED277A 		vldr.32	s14, [sp, #156]
 1485 05e6 2BEE07BA 		vmul.f32	s22, s22, s14
 1486              	.LVL93:
 1487              	.L83:
 301:src/engine.cpp **** 
 1488              		.loc 1 301 9 is_stmt 1 view .LVU457
 301:src/engine.cpp **** 
 1489              		.loc 1 301 28 is_stmt 0 view .LVU458
 1490 05ea 914B     		ldr	r3, .L444+24
 1491 05ec D3ED001A 		vldr.32	s3, [r3]
 1492              	.LVL94:
 1493              	.LBB794:
 1494              	.LBI794:
  57:src/dsp.h     ****     switch(w){
ARM GAS  /tmp/claude-502/ccjNbcJ1.s 			page 39


 1495              		.loc 2 57 21 is_stmt 1 view .LVU459
 1496              	.LBB795:
  58:src/dsp.h     ****         case WAVE_SINE:   return osc_sine(ph);
 1497              		.loc 2 58 5 view .LVU460
 1498 05f0 199B     		ldr	r3, [sp, #100]
 1499 05f2 022B     		cmp	r3, #2
 1500 05f4 00F09D85 		beq	.L86
 1501 05f8 032B     		cmp	r3, #3
 1502 05fa 00F08E85 		beq	.L87
 1503 05fe 012B     		cmp	r3, #1
 1504 0600 00F05B85 		beq	.L421
 1505              	.LVL95:
 1506              	.LBB796:
 1507              	.LBI796:
  57:src/dsp.h     ****     switch(w){
 1508              		.loc 2 57 21 view .LVU461
  57:src/dsp.h     ****     switch(w){
 1509              		.loc 2 57 21 is_stmt 0 view .LVU462
 1510              	.LBE796:
 1511              	.LBE795:
 1512              	.LBE794:
 1513              	.LBE1134:
 1514              	.LBE1150:
  62:src/dsp.h     ****         default:          return tri(ph);
 1515              		.loc 2 62 9 is_stmt 1 view .LVU463
  63:src/dsp.h     ****     }
 1516              		.loc 2 63 9 view .LVU464
  63:src/dsp.h     ****     }
 1517              		.loc 2 63 27 view .LVU465
 1518              	.LBB1151:
 1519              	.LBB1135:
 1520              	.LBB831:
 1521              	.LBB821:
 1522              	.LBB805:
 1523              	.LBB797:
 1524              	.LBI797:
  40:src/dsp.h     ****     return ph<0.5f?(4.0f*ph-1.0f):(3.0f-4.0f*ph);
 1525              		.loc 2 40 21 view .LVU466
 1526              	.LBB798:
  41:src/dsp.h     **** }
 1527              		.loc 2 41 5 view .LVU467
  41:src/dsp.h     **** }
 1528              		.loc 2 41 19 is_stmt 0 view .LVU468
 1529 0604 B6EE007A 		vmov.f32	s14, #5.0e-1
 1530 0608 B1EE002A 		vmov.f32	s4, #4.0e+0
 1531 060c F4EEC71A 		vcmpe.f32	s3, s14
 1532 0610 F1EE10FA 		vmrs	APSR_nzcv, FPSCR
 1533 0614 40F15E87 		bpl	.L378
 1534 0618 BFEE00AA 		vmov.f32	s20, #-1.0e+0
 1535              	.LBE798:
 1536              	.LBE797:
 1537              	.LBE805:
 1538              	.LBE821:
 1539              	.LBE831:
 301:src/engine.cpp **** 
 1540              		.loc 1 301 66 view .LVU469
 1541 061c 9DED287A 		vldr.32	s14, [sp, #160]
ARM GAS  /tmp/claude-502/ccjNbcJ1.s 			page 40


 1542              	.LBB832:
 1543              	.LBB822:
 1544              	.LBB806:
 1545              	.LBB802:
 1546              	.LBB799:
  41:src/dsp.h     **** }
 1547              		.loc 2 41 19 view .LVU470
 1548 0620 A1EE82AA 		vfma.f32	s20, s3, s4
 1549              	.LBE799:
 1550              	.LBE802:
 1551              	.LBE806:
 1552              	.LBE822:
 1553              	.LBE832:
 301:src/engine.cpp **** 
 1554              		.loc 1 301 66 view .LVU471
 1555 0624 2AEE07AA 		vmul.f32	s20, s20, s14
 1556              	.LVL96:
 1557              	.L93:
 306:src/engine.cpp ****         if(VOICE.noise_level > 0.0f){
 1558              		.loc 1 306 9 is_stmt 1 view .LVU472
 307:src/engine.cpp ****             s_noise_rng ^= s_noise_rng << 13;
 1559              		.loc 1 307 9 view .LVU473
 1560              	.LBB833:
 1561 0628 9DED1AFA 		vldr.32	s30, [sp, #104]
 1562 062c B5EEC0FA 		vcmpe.f32	s30, #0
 1563 0630 F1EE10FA 		vmrs	APSR_nzcv, FPSCR
 1564 0634 40F3E184 		ble	.L379
 1565              	.LBB685:
 308:src/engine.cpp ****             s_noise_rng ^= s_noise_rng >> 17;
 1566              		.loc 1 308 13 view .LVU474
 308:src/engine.cpp ****             s_noise_rng ^= s_noise_rng >> 17;
 1567              		.loc 1 308 40 is_stmt 0 view .LVU475
 1568 0638 7E49     		ldr	r1, .L444+28
 313:src/engine.cpp ****             float bright = white - s_noise_lp;
 1569              		.loc 1 313 50 view .LVU476
 1570 063a 7F4A     		ldr	r2, .L444+32
 308:src/engine.cpp ****             s_noise_rng ^= s_noise_rng >> 17;
 1571              		.loc 1 308 40 view .LVU477
 1572 063c 0B68     		ldr	r3, [r1]
 313:src/engine.cpp ****             float bright = white - s_noise_lp;
 1573              		.loc 1 313 50 view .LVU478
 1574 063e DFED7FDA 		vldr.32	s27, .L444+36
 308:src/engine.cpp ****             s_noise_rng ^= s_noise_rng >> 17;
 1575              		.loc 1 308 25 view .LVU479
 1576 0642 83EA4333 		eor	r3, r3, r3, lsl #13
 309:src/engine.cpp ****             s_noise_rng ^= s_noise_rng << 5;
 1577              		.loc 1 309 13 is_stmt 1 view .LVU480
 313:src/engine.cpp ****             float bright = white - s_noise_lp;
 1578              		.loc 1 313 24 is_stmt 0 view .LVU481
 1579 0646 9FED7E7A 		vldr.32	s14, .L444+40
 309:src/engine.cpp ****             s_noise_rng ^= s_noise_rng << 5;
 1580              		.loc 1 309 25 view .LVU482
 1581 064a 83EA5343 		eor	r3, r3, r3, lsr #17
 310:src/engine.cpp ****             float white = (float)(int32_t)s_noise_rng * (1.0f/2147483648.0f);
 1582              		.loc 1 310 13 is_stmt 1 view .LVU483
 310:src/engine.cpp ****             float white = (float)(int32_t)s_noise_rng * (1.0f/2147483648.0f);
 1583              		.loc 1 310 25 is_stmt 0 view .LVU484
ARM GAS  /tmp/claude-502/ccjNbcJ1.s 			page 41


 1584 064e 83EA4313 		eor	r3, r3, r3, lsl #5
 311:src/engine.cpp ****             // One-pole high-pass = white minus its low-frequency content.
 1585              		.loc 1 311 27 view .LVU485
 1586 0652 02EE103A 		vmov	s4, r3	@ int
 310:src/engine.cpp ****             float white = (float)(int32_t)s_noise_rng * (1.0f/2147483648.0f);
 1587              		.loc 1 310 25 view .LVU486
 1588 0656 0B60     		str	r3, [r1]
 311:src/engine.cpp ****             // One-pole high-pass = white minus its low-frequency content.
 1589              		.loc 1 311 13 is_stmt 1 view .LVU487
 311:src/engine.cpp ****             // One-pole high-pass = white minus its low-frequency content.
 1590              		.loc 1 311 27 is_stmt 0 view .LVU488
 1591 0658 F8EEC28A 		vcvt.f32.s32	s17, s4
 1592              	.LVL97:
 313:src/engine.cpp ****             float bright = white - s_noise_lp;
 1593              		.loc 1 313 13 is_stmt 1 view .LVU489
 313:src/engine.cpp ****             float bright = white - s_noise_lp;
 1594              		.loc 1 313 50 is_stmt 0 view .LVU490
 1595 065c 92ED002A 		vldr.32	s4, [r2]
 1596 0660 F0EE42EA 		vmov.f32	s29, s4
 316:src/engine.cpp ****             noise = n * VOICE.noise_level;
 1597              		.loc 1 316 63 view .LVU491
 1598 0664 DDE90131 		ldrd	r3, r1, [sp, #4]
 313:src/engine.cpp ****             float bright = white - s_noise_lp;
 1599              		.loc 1 313 50 view .LVU492
 1600 0668 D8EEADEA 		vfnms.f32	s29, s17, s27
 316:src/engine.cpp ****             noise = n * VOICE.noise_level;
 1601              		.loc 1 316 63 view .LVU493
 1602 066c 0B44     		add	r3, r3, r1
 1603 066e 07EB4313 		add	r3, r7, r3, lsl #5
 316:src/engine.cpp ****             noise = n * VOICE.noise_level;
 1604              		.loc 1 316 55 view .LVU494
 1605 0672 93ED1EEA 		vldr.32	s28, [r3, #120]
 313:src/engine.cpp ****             float bright = white - s_noise_lp;
 1606              		.loc 1 313 24 view .LVU495
 1607 0676 AEEE872A 		vfma.f32	s4, s29, s14
 1608 067a 82ED002A 		vstr.32	s4, [r2]
 314:src/engine.cpp ****             // Blend white → high-passed by noise_hp (×2 to make up lost level).
 1609              		.loc 1 314 13 is_stmt 1 view .LVU496
 314:src/engine.cpp ****             // Blend white → high-passed by noise_hp (×2 to make up lost level).
 1610              		.loc 1 314 19 is_stmt 0 view .LVU497
 1611 067e 98EEAD2A 		vfnms.f32	s4, s17, s27
 1612              	.LVL98:
 316:src/engine.cpp ****             noise = n * VOICE.noise_level;
 1613              		.loc 1 316 13 is_stmt 1 view .LVU498
 316:src/engine.cpp ****             noise = n * VOICE.noise_level;
 1614              		.loc 1 316 39 is_stmt 0 view .LVU499
 1615 0682 32EE022A 		vadd.f32	s4, s4, s4
 1616              	.LVL99:
 316:src/engine.cpp ****             noise = n * VOICE.noise_level;
 1617              		.loc 1 316 46 view .LVU500
 1618 0686 A8EEED2A 		vfms.f32	s4, s17, s27
 316:src/engine.cpp ****             noise = n * VOICE.noise_level;
 1619              		.loc 1 316 55 view .LVU501
 1620 068a 22EE0E2A 		vmul.f32	s4, s4, s28
 316:src/engine.cpp ****             noise = n * VOICE.noise_level;
 1621              		.loc 1 316 19 view .LVU502
 1622 068e A8EEAD2A 		vfma.f32	s4, s17, s27
ARM GAS  /tmp/claude-502/ccjNbcJ1.s 			page 42


 1623              	.LVL100:
 317:src/engine.cpp ****         }
 1624              		.loc 1 317 13 is_stmt 1 view .LVU503
 317:src/engine.cpp ****         }
 1625              		.loc 1 317 19 is_stmt 0 view .LVU504
 1626 0692 22EE0F2A 		vmul.f32	s4, s4, s30
 1627              	.LVL101:
 1628              	.L96:
 317:src/engine.cpp ****         }
 1629              		.loc 1 317 19 view .LVU505
 1630              	.LBE685:
 1631              	.LBE833:
 321:src/engine.cpp **** 
 1632              		.loc 1 321 9 is_stmt 1 view .LVU506
 321:src/engine.cpp **** 
 1633              		.loc 1 321 26 is_stmt 0 view .LVU507
 1634 0696 72EE8D2A 		vadd.f32	s5, s5, s26
 1635              	.LBB834:
 330:src/engine.cpp ****             float f3 = freq_vib * tcr2;   // 3rd
 1636              		.loc 1 330 9 view .LVU508
 1637 069a 1B9B     		ldr	r3, [sp, #108]
 1638              	.LBE834:
 321:src/engine.cpp **** 
 1639              		.loc 1 321 33 view .LVU509
 1640 069c 72EE8B2A 		vadd.f32	s5, s5, s22
 321:src/engine.cpp **** 
 1641              		.loc 1 321 39 view .LVU510
 1642 06a0 72EE8A2A 		vadd.f32	s5, s5, s20
 321:src/engine.cpp **** 
 1643              		.loc 1 321 15 view .LVU511
 1644 06a4 32EE827A 		vadd.f32	s14, s5, s4
 1645              	.LVL102:
 330:src/engine.cpp ****             float f3 = freq_vib * tcr2;   // 3rd
 1646              		.loc 1 330 9 is_stmt 1 view .LVU512
 1647              	.LBB835:
 1648 06a8 002B     		cmp	r3, #0
 1649 06aa 00F0FE80 		beq	.L98
 1650              	.LBB583:
 331:src/engine.cpp ****             float f5 = freq_vib * tcr3;   // 5th
 1651              		.loc 1 331 13 view .LVU513
 331:src/engine.cpp ****             float f5 = freq_vib * tcr3;   // 5th
 1652              		.loc 1 331 19 is_stmt 0 view .LVU514
 1653 06ae DDED292A 		vldr.32	s5, [sp, #164]
 1654              	.LBB435:
 1655              	.LBB436:
  58:src/dsp.h     ****         case WAVE_SINE:   return osc_sine(ph);
 1656              		.loc 2 58 5 view .LVU515
 1657 06b2 022E     		cmp	r6, #2
 1658              	.LBE436:
 1659              	.LBE435:
 333:src/engine.cpp ****                   + osc(s_phase2b, VOICE.osc2_wave) * VOICE.osc2_level) * CHORD_UPPER_LEVEL;
 1660              		.loc 1 333 24 view .LVU516
 1661 06b4 634B     		ldr	r3, .L444+44
 331:src/engine.cpp ****             float f5 = freq_vib * tcr3;   // 5th
 1662              		.loc 1 331 19 view .LVU517
 1663 06b6 22EEA7AA 		vmul.f32	s20, s5, s15
 1664              	.LVL103:
ARM GAS  /tmp/claude-502/ccjNbcJ1.s 			page 43


 332:src/engine.cpp ****             mix += (osc(s_phase1b, VOICE.osc1_wave) * VOICE.osc1_level
 1665              		.loc 1 332 13 is_stmt 1 view .LVU518
 332:src/engine.cpp ****             mix += (osc(s_phase1b, VOICE.osc1_wave) * VOICE.osc1_level
 1666              		.loc 1 332 19 is_stmt 0 view .LVU519
 1667 06ba DDED2A2A 		vldr.32	s5, [sp, #168]
 333:src/engine.cpp ****                   + osc(s_phase2b, VOICE.osc2_wave) * VOICE.osc2_level) * CHORD_UPPER_LEVEL;
 1668              		.loc 1 333 24 view .LVU520
 1669 06be D3ED00EA 		vldr.32	s29, [r3]
 332:src/engine.cpp ****             mix += (osc(s_phase1b, VOICE.osc1_wave) * VOICE.osc1_level
 1670              		.loc 1 332 19 view .LVU521
 1671 06c2 22EEA7EA 		vmul.f32	s28, s5, s15
 1672              	.LVL104:
 333:src/engine.cpp ****                   + osc(s_phase2b, VOICE.osc2_wave) * VOICE.osc2_level) * CHORD_UPPER_LEVEL;
 1673              		.loc 1 333 13 is_stmt 1 view .LVU522
 1674              	.LBB468:
 1675              	.LBI435:
  57:src/dsp.h     ****     switch(w){
 1676              		.loc 2 57 21 view .LVU523
 1677              	.LBB458:
  58:src/dsp.h     ****         case WAVE_SINE:   return osc_sine(ph);
 1678              		.loc 2 58 5 view .LVU524
 1679 06c6 01F04F80 		beq	.L99
 1680 06ca 032E     		cmp	r6, #3
 1681 06cc 01F04080 		beq	.L100
 1682 06d0 012E     		cmp	r6, #1
 1683 06d2 00F0FB87 		beq	.L422
 1684              	.LVL105:
 1685              	.LBB437:
 1686              	.LBI437:
  57:src/dsp.h     ****     switch(w){
 1687              		.loc 2 57 21 view .LVU525
  57:src/dsp.h     ****     switch(w){
 1688              		.loc 2 57 21 is_stmt 0 view .LVU526
 1689              	.LBE437:
 1690              	.LBE458:
 1691              	.LBE468:
 1692              	.LBE583:
 1693              	.LBE835:
 1694              	.LBE1135:
 1695              	.LBE1151:
  62:src/dsp.h     ****         default:          return tri(ph);
 1696              		.loc 2 62 9 is_stmt 1 view .LVU527
  63:src/dsp.h     ****     }
 1697              		.loc 2 63 9 view .LVU528
  63:src/dsp.h     ****     }
 1698              		.loc 2 63 27 view .LVU529
 1699              	.LBB1152:
 1700              	.LBB1136:
 1701              	.LBB836:
 1702              	.LBB584:
 1703              	.LBB469:
 1704              	.LBB459:
 1705              	.LBB442:
 1706              	.LBB438:
 1707              	.LBI438:
  40:src/dsp.h     ****     return ph<0.5f?(4.0f*ph-1.0f):(3.0f-4.0f*ph);
 1708              		.loc 2 40 21 view .LVU530
ARM GAS  /tmp/claude-502/ccjNbcJ1.s 			page 44


 1709              	.LBB439:
  41:src/dsp.h     **** }
 1710              		.loc 2 41 5 view .LVU531
  41:src/dsp.h     **** }
 1711              		.loc 2 41 19 is_stmt 0 view .LVU532
 1712 06d6 F6EE002A 		vmov.f32	s5, #5.0e-1
 1713 06da F4EEE2EA 		vcmpe.f32	s29, s5
 1714 06de F1EE002A 		vmov.f32	s5, #4.0e+0
 1715 06e2 F1EE10FA 		vmrs	APSR_nzcv, FPSCR
 1716 06e6 41F1E482 		bpl	.L381
 1717 06ea BFEE002A 		vmov.f32	s4, #-1.0e+0
 1718              	.LVL106:
  41:src/dsp.h     **** }
 1719              		.loc 2 41 19 view .LVU533
 1720 06ee AEEEA22A 		vfma.f32	s4, s29, s5
 1721              	.LBE439:
 1722              	.LBE438:
 1723              	.LBE442:
 1724              	.LBE459:
 1725              	.LBE469:
 333:src/engine.cpp ****                   + osc(s_phase2b, VOICE.osc2_wave) * VOICE.osc2_level) * CHORD_UPPER_LEVEL;
 1726              		.loc 1 333 53 view .LVU534
 1727 06f2 DDED062A 		vldr.32	s5, [sp, #24]
 1728 06f6 22EE222A 		vmul.f32	s4, s4, s5
 1729              	.LVL107:
 1730              	.L106:
 334:src/engine.cpp ****             mix += (osc(s_phase1c, VOICE.osc1_wave) * VOICE.osc1_level
 1731              		.loc 1 334 24 view .LVU535
 1732 06fa 5348     		ldr	r0, .L444+48
 1733              	.LBB470:
 1734              	.LBB471:
  58:src/dsp.h     ****         case WAVE_SINE:   return osc_sine(ph);
 1735              		.loc 2 58 5 view .LVU536
 1736 06fc 022D     		cmp	r5, #2
 1737              	.LBE471:
 1738              	.LBE470:
 334:src/engine.cpp ****             mix += (osc(s_phase1c, VOICE.osc1_wave) * VOICE.osc1_level
 1739              		.loc 1 334 24 view .LVU537
 1740 06fe D0ED00DA 		vldr.32	s27, [r0]
 1741              	.LVL108:
 1742              	.LBB494:
 1743              	.LBI470:
  57:src/dsp.h     ****     switch(w){
 1744              		.loc 2 57 21 is_stmt 1 view .LVU538
 1745              	.LBB485:
  58:src/dsp.h     ****         case WAVE_SINE:   return osc_sine(ph);
 1746              		.loc 2 58 5 view .LVU539
 1747 0702 01F01780 		beq	.L109
 1748              	.L435:
  58:src/dsp.h     ****         case WAVE_SINE:   return osc_sine(ph);
 1749              		.loc 2 58 5 is_stmt 0 view .LVU540
 1750 0706 032D     		cmp	r5, #3
 1751 0708 01F03C80 		beq	.L110
 1752 070c 012D     		cmp	r5, #1
 1753 070e 00F0AD87 		beq	.L423
 1754              	.LVL109:
 1755              	.LBB472:
ARM GAS  /tmp/claude-502/ccjNbcJ1.s 			page 45


 1756              	.LBI472:
  57:src/dsp.h     ****     switch(w){
 1757              		.loc 2 57 21 is_stmt 1 view .LVU541
  57:src/dsp.h     ****     switch(w){
 1758              		.loc 2 57 21 is_stmt 0 view .LVU542
 1759              	.LBE472:
 1760              	.LBE485:
 1761              	.LBE494:
 1762              	.LBE584:
 1763              	.LBE836:
 1764              	.LBE1136:
 1765              	.LBE1152:
  62:src/dsp.h     ****         default:          return tri(ph);
 1766              		.loc 2 62 9 is_stmt 1 view .LVU543
  63:src/dsp.h     ****     }
 1767              		.loc 2 63 9 view .LVU544
  63:src/dsp.h     ****     }
 1768              		.loc 2 63 27 view .LVU545
 1769              	.LBB1153:
 1770              	.LBB1137:
 1771              	.LBB837:
 1772              	.LBB585:
 1773              	.LBB495:
 1774              	.LBB486:
 1775              	.LBB477:
 1776              	.LBB473:
 1777              	.LBI473:
  40:src/dsp.h     ****     return ph<0.5f?(4.0f*ph-1.0f):(3.0f-4.0f*ph);
 1778              		.loc 2 40 21 view .LVU546
 1779              	.LBB474:
  41:src/dsp.h     **** }
 1780              		.loc 2 41 5 view .LVU547
  41:src/dsp.h     **** }
 1781              		.loc 2 41 19 is_stmt 0 view .LVU548
 1782 0712 F6EE002A 		vmov.f32	s5, #5.0e-1
 1783 0716 F1EE008A 		vmov.f32	s17, #4.0e+0
 1784 071a F4EEE2DA 		vcmpe.f32	s27, s5
 1785 071e F1EE10FA 		vmrs	APSR_nzcv, FPSCR
 1786 0722 41F1DE82 		bpl	.L383
  41:src/dsp.h     **** }
 1787              		.loc 2 41 19 view .LVU549
 1788 0726 FFEE002A 		vmov.f32	s5, #-1.0e+0
 1789 072a EDEEA82A 		vfma.f32	s5, s27, s17
 1790              	.LBE474:
 1791              	.LBE473:
 1792              	.LBE477:
 1793              	.LBE486:
 1794              	.LBE495:
 334:src/engine.cpp ****             mix += (osc(s_phase1c, VOICE.osc1_wave) * VOICE.osc1_level
 1795              		.loc 1 334 53 view .LVU550
 1796 072e DDED078A 		vldr.32	s17, [sp, #28]
 1797 0732 62EEA82A 		vmul.f32	s5, s5, s17
 1798              	.LVL110:
 1799              	.L116:
 334:src/engine.cpp ****             mix += (osc(s_phase1c, VOICE.osc1_wave) * VOICE.osc1_level
 1800              		.loc 1 334 19 view .LVU551
 1801 0736 32EE222A 		vadd.f32	s4, s4, s5
ARM GAS  /tmp/claude-502/ccjNbcJ1.s 			page 46


 335:src/engine.cpp ****                   + osc(s_phase2c, VOICE.osc2_wave) * VOICE.osc2_level) * CHORD_UPPER_LEVEL;
 1802              		.loc 1 335 24 view .LVU552
 1803 073a 4449     		ldr	r1, .L444+52
 333:src/engine.cpp ****                   + osc(s_phase2b, VOICE.osc2_wave) * VOICE.osc2_level) * CHORD_UPPER_LEVEL;
 1804              		.loc 1 333 17 view .LVU553
 1805 073c DFED442A 		vldr.32	s5, .L444+56
 1806              	.LBB496:
 1807              	.LBB497:
  58:src/dsp.h     ****         case WAVE_SINE:   return osc_sine(ph);
 1808              		.loc 2 58 5 view .LVU554
 1809 0740 022E     		cmp	r6, #2
 1810              	.LBE497:
 1811              	.LBE496:
 335:src/engine.cpp ****                   + osc(s_phase2c, VOICE.osc2_wave) * VOICE.osc2_level) * CHORD_UPPER_LEVEL;
 1812              		.loc 1 335 24 view .LVU555
 1813 0742 91ED00DA 		vldr.32	s26, [r1]
 333:src/engine.cpp ****                   + osc(s_phase2b, VOICE.osc2_wave) * VOICE.osc2_level) * CHORD_UPPER_LEVEL;
 1814              		.loc 1 333 17 view .LVU556
 1815 0746 A2EE227A 		vfma.f32	s14, s4, s5
 1816              	.LVL111:
 335:src/engine.cpp ****                   + osc(s_phase2c, VOICE.osc2_wave) * VOICE.osc2_level) * CHORD_UPPER_LEVEL;
 1817              		.loc 1 335 13 is_stmt 1 view .LVU557
 1818              	.LBB520:
 1819              	.LBI496:
  57:src/dsp.h     ****     switch(w){
 1820              		.loc 2 57 21 view .LVU558
 1821              	.LBB513:
  58:src/dsp.h     ****         case WAVE_SINE:   return osc_sine(ph);
 1822              		.loc 2 58 5 view .LVU559
 1823 074a 00F08187 		beq	.L119
 1824 074e 032E     		cmp	r6, #3
 1825 0750 00F07287 		beq	.L120
 1826 0754 012E     		cmp	r6, #1
 1827 0756 00F03F87 		beq	.L424
 1828              	.LVL112:
 1829              	.LBB498:
 1830              	.LBI498:
  57:src/dsp.h     ****     switch(w){
 1831              		.loc 2 57 21 view .LVU560
  57:src/dsp.h     ****     switch(w){
 1832              		.loc 2 57 21 is_stmt 0 view .LVU561
 1833              	.LBE498:
 1834              	.LBE513:
 1835              	.LBE520:
 1836              	.LBE585:
 1837              	.LBE837:
 1838              	.LBE1137:
 1839              	.LBE1153:
  62:src/dsp.h     ****         default:          return tri(ph);
 1840              		.loc 2 62 9 is_stmt 1 view .LVU562
  63:src/dsp.h     ****     }
 1841              		.loc 2 63 9 view .LVU563
  63:src/dsp.h     ****     }
 1842              		.loc 2 63 27 view .LVU564
 1843              	.LBB1154:
 1844              	.LBB1138:
 1845              	.LBB838:
ARM GAS  /tmp/claude-502/ccjNbcJ1.s 			page 47


 1846              	.LBB586:
 1847              	.LBB521:
 1848              	.LBB514:
 1849              	.LBB503:
 1850              	.LBB499:
 1851              	.LBI499:
  40:src/dsp.h     ****     return ph<0.5f?(4.0f*ph-1.0f):(3.0f-4.0f*ph);
 1852              		.loc 2 40 21 view .LVU565
 1853              	.LBB500:
  41:src/dsp.h     **** }
 1854              		.loc 2 41 5 view .LVU566
  41:src/dsp.h     **** }
 1855              		.loc 2 41 19 is_stmt 0 view .LVU567
 1856 075a F6EE002A 		vmov.f32	s5, #5.0e-1
 1857 075e B1EE002A 		vmov.f32	s4, #4.0e+0
 1858 0762 B4EEE2DA 		vcmpe.f32	s26, s5
 1859 0766 F1EE10FA 		vmrs	APSR_nzcv, FPSCR
 1860 076a 41F19882 		bpl	.L385
 1861 076e FFEE002A 		vmov.f32	s5, #-1.0e+0
 1862 0772 EDEE022A 		vfma.f32	s5, s26, s4
 1863              	.LBE500:
 1864              	.LBE499:
 1865              	.LBE503:
 1866              	.LBE514:
 1867              	.LBE521:
 335:src/engine.cpp ****                   + osc(s_phase2c, VOICE.osc2_wave) * VOICE.osc2_level) * CHORD_UPPER_LEVEL;
 1868              		.loc 1 335 53 view .LVU568
 1869 0776 9DED062A 		vldr.32	s4, [sp, #24]
 1870 077a 62EE828A 		vmul.f32	s17, s5, s4
 1871              	.LVL113:
 1872              	.L126:
 336:src/engine.cpp ****             s_phase1b += f3*VOICE.osc1_ratio/sr; if(s_phase1b>=1.0f)s_phase1b-=1.0f;
 1873              		.loc 1 336 24 view .LVU569
 1874 077e DFF8D4C0 		ldr	ip, .L444+60
 1875              	.LBB522:
 1876              	.LBB523:
  58:src/dsp.h     ****         case WAVE_SINE:   return osc_sine(ph);
 1877              		.loc 2 58 5 view .LVU570
 1878 0782 022D     		cmp	r5, #2
 1879              	.LBE523:
 1880              	.LBE522:
 336:src/engine.cpp ****             s_phase1b += f3*VOICE.osc1_ratio/sr; if(s_phase1b>=1.0f)s_phase1b-=1.0f;
 1881              		.loc 1 336 24 view .LVU571
 1882 0784 9CED00BA 		vldr.32	s22, [ip]
 1883              	.LVL114:
 1884              	.LBB554:
 1885              	.LBI522:
  57:src/dsp.h     ****     switch(w){
 1886              		.loc 2 57 21 is_stmt 1 view .LVU572
 1887              	.LBB545:
  58:src/dsp.h     ****         case WAVE_SINE:   return osc_sine(ph);
 1888              		.loc 2 58 5 view .LVU573
 1889 0788 00F01887 		beq	.L129
 1890 078c 032D     		cmp	r5, #3
 1891 078e 00F00987 		beq	.L130
 1892 0792 012D     		cmp	r5, #1
 1893 0794 00F0D686 		beq	.L425
ARM GAS  /tmp/claude-502/ccjNbcJ1.s 			page 48


 1894              	.LVL115:
 1895              	.LBB524:
 1896              	.LBI524:
  57:src/dsp.h     ****     switch(w){
 1897              		.loc 2 57 21 view .LVU574
  57:src/dsp.h     ****     switch(w){
 1898              		.loc 2 57 21 is_stmt 0 view .LVU575
 1899              	.LBE524:
 1900              	.LBE545:
 1901              	.LBE554:
 1902              	.LBE586:
 1903              	.LBE838:
 1904              	.LBE1138:
 1905              	.LBE1154:
  62:src/dsp.h     ****         default:          return tri(ph);
 1906              		.loc 2 62 9 is_stmt 1 view .LVU576
  63:src/dsp.h     ****     }
 1907              		.loc 2 63 9 view .LVU577
  63:src/dsp.h     ****     }
 1908              		.loc 2 63 27 view .LVU578
 1909              	.LBB1155:
 1910              	.LBB1139:
 1911              	.LBB839:
 1912              	.LBB587:
 1913              	.LBB555:
 1914              	.LBB546:
 1915              	.LBB533:
 1916              	.LBB525:
 1917              	.LBI525:
  40:src/dsp.h     ****     return ph<0.5f?(4.0f*ph-1.0f):(3.0f-4.0f*ph);
 1918              		.loc 2 40 21 view .LVU579
 1919              	.LBB526:
  41:src/dsp.h     **** }
 1920              		.loc 2 41 5 view .LVU580
  41:src/dsp.h     **** }
 1921              		.loc 2 41 19 is_stmt 0 view .LVU581
 1922 0798 F6EE002A 		vmov.f32	s5, #5.0e-1
 1923 079c B1EE00FA 		vmov.f32	s30, #4.0e+0
 1924 07a0 B4EEE2BA 		vcmpe.f32	s22, s5
 1925 07a4 F1EE10FA 		vmrs	APSR_nzcv, FPSCR
 1926 07a8 41F18D82 		bpl	.L387
 1927 07ac BFEE002A 		vmov.f32	s4, #-1.0e+0
 1928              	.LBE526:
 1929              	.LBE525:
 1930              	.LBE533:
 1931              	.LBE546:
 1932              	.LBE555:
 336:src/engine.cpp ****             s_phase1b += f3*VOICE.osc1_ratio/sr; if(s_phase1b>=1.0f)s_phase1b-=1.0f;
 1933              		.loc 1 336 53 view .LVU582
 1934 07b0 DDED072A 		vldr.32	s5, [sp, #28]
 1935              	.LBB556:
 1936              	.LBB547:
 1937              	.LBB534:
 1938              	.LBB530:
 1939              	.LBB527:
  41:src/dsp.h     **** }
 1940              		.loc 2 41 19 view .LVU583
ARM GAS  /tmp/claude-502/ccjNbcJ1.s 			page 49


 1941 07b4 ABEE0F2A 		vfma.f32	s4, s22, s30
 1942              	.LBE527:
 1943              	.LBE530:
 1944              	.LBE534:
 1945              	.LBE547:
 1946              	.LBE556:
 336:src/engine.cpp ****             s_phase1b += f3*VOICE.osc1_ratio/sr; if(s_phase1b>=1.0f)s_phase1b-=1.0f;
 1947              		.loc 1 336 53 view .LVU584
 1948 07b8 62EE222A 		vmul.f32	s5, s4, s5
 1949              	.LVL116:
 1950              	.L136:
 1951              		.loc 1 337 28 view .LVU585
 1952 07bc 9DED052A 		vldr.32	s4, [sp, #20]
 336:src/engine.cpp ****             s_phase1b += f3*VOICE.osc1_ratio/sr; if(s_phase1b>=1.0f)s_phase1b-=1.0f;
 1953              		.loc 1 336 19 view .LVU586
 1954 07c0 78EEA22A 		vadd.f32	s5, s17, s5
 1955              		.loc 1 337 28 view .LVU587
 1956 07c4 6AEE028A 		vmul.f32	s17, s20, s4
 1957              		.loc 1 337 45 view .LVU588
 1958 07c8 88EE882A 		vdiv.f32	s4, s17, s16
 1959              		.loc 1 337 50 view .LVU589
 1960 07cc F7EE008A 		vmov.f32	s17, #1.0e+0
 1961              		.loc 1 337 23 view .LVU590
 1962 07d0 32EE2E2A 		vadd.f32	s4, s4, s29
 335:src/engine.cpp ****                   + osc(s_phase2c, VOICE.osc2_wave) * VOICE.osc2_level) * CHORD_UPPER_LEVEL;
 1963              		.loc 1 335 17 view .LVU591
 1964 07d4 DFED1EEA 		vldr.32	s29, .L444+56
 1965 07d8 A2EEAE7A 		vfma.f32	s14, s5, s29
 1966              	.LVL117:
 1967              		.loc 1 337 13 is_stmt 1 view .LVU592
 1968              		.loc 1 337 50 view .LVU593
 1969 07dc B4EEE82A 		vcmpe.f32	s4, s17
 1970 07e0 F1EE10FA 		vmrs	APSR_nzcv, FPSCR
 1971              		.loc 1 337 69 view .LVU594
 338:src/engine.cpp ****             s_phase2b += f3*VOICE.osc2_ratio/sr; if(s_phase2b>=1.0f)s_phase2b-=1.0f;
 1972              		.loc 1 338 13 view .LVU595
 337:src/engine.cpp ****             s_phase2b += f3*VOICE.osc2_ratio/sr; if(s_phase2b>=1.0f)s_phase2b-=1.0f;
 1973              		.loc 1 337 78 is_stmt 0 view .LVU596
 1974 07e4 A8BF     		it	ge
 1975 07e6 32EE682A 		vsubge.f32	s4, s4, s17
 1976 07ea 83ED002A 		vstr.32	s4, [r3]
 1977              		.loc 1 338 35 view .LVU597
 1978 07ee DDE90132 		ldrd	r3, r2, [sp, #4]
 1979 07f2 1344     		add	r3, r3, r2
 1980 07f4 07EB4313 		add	r3, r7, r3, lsl #5
 1981 07f8 93ED072A 		vldr.32	s4, [r3, #28]
 1982              		.loc 1 338 28 view .LVU598
 1983 07fc 22EE0AAA 		vmul.f32	s20, s4, s20
 1984              	.LVL118:
 339:src/engine.cpp ****             s_phase1c += f5*VOICE.osc1_ratio/sr; if(s_phase1c>=1.0f)s_phase1c-=1.0f;
 340:src/engine.cpp ****             s_phase2c += f5*VOICE.osc2_ratio/sr; if(s_phase2c>=1.0f)s_phase2c-=1.0f;
 1985              		.loc 1 340 28 view .LVU599
 1986 0800 22EE0E2A 		vmul.f32	s4, s4, s28
 338:src/engine.cpp ****             s_phase1c += f5*VOICE.osc1_ratio/sr; if(s_phase1c>=1.0f)s_phase1c-=1.0f;
 1987              		.loc 1 338 45 view .LVU600
 1988 0804 CAEE082A 		vdiv.f32	s5, s20, s16
 338:src/engine.cpp ****             s_phase1c += f5*VOICE.osc1_ratio/sr; if(s_phase1c>=1.0f)s_phase1c-=1.0f;
ARM GAS  /tmp/claude-502/ccjNbcJ1.s 			page 50


 1989              		.loc 1 338 23 view .LVU601
 1990 0808 72EEAD2A 		vadd.f32	s5, s5, s27
 338:src/engine.cpp ****             s_phase1c += f5*VOICE.osc1_ratio/sr; if(s_phase1c>=1.0f)s_phase1c-=1.0f;
 1991              		.loc 1 338 50 is_stmt 1 view .LVU602
 1992 080c F7EE00DA 		vmov.f32	s27, #1.0e+0
 1993 0810 F4EEED2A 		vcmpe.f32	s5, s27
 1994 0814 20E0     		b	.L445
 1995              	.L446:
 1996 0816 00BF     		.align	2
 1997              	.L444:
 1998 0818 00000000 		.word	.LANCHOR35
 1999 081c CDCC4C3D 		.word	1028443341
 2000 0820 C0956C3D 		.word	1030526400
 2001 0824 00000000 		.word	.LANCHOR36
 2002 0828 00000000 		.word	.LANCHOR37
 2003 082c 00000000 		.word	.LANCHOR38
 2004 0830 00000000 		.word	.LANCHOR39
 2005 0834 00000000 		.word	.LANCHOR40
 2006 0838 00000000 		.word	.LANCHOR41
 2007 083c 00000030 		.word	805306368
 2008 0840 CDCC4C3F 		.word	1061997773
 2009 0844 00000000 		.word	.LANCHOR42
 2010 0848 00000000 		.word	.LANCHOR43
 2011 084c 00000000 		.word	.LANCHOR44
 2012 0850 6666663F 		.word	1063675494
 2013 0854 00000000 		.word	.LANCHOR45
 2014              	.L445:
 2015 0858 F1EE10FA 		vmrs	APSR_nzcv, FPSCR
 338:src/engine.cpp ****             s_phase1c += f5*VOICE.osc1_ratio/sr; if(s_phase1c>=1.0f)s_phase1c-=1.0f;
 2016              		.loc 1 338 69 view .LVU603
 338:src/engine.cpp ****             s_phase1c += f5*VOICE.osc1_ratio/sr; if(s_phase1c>=1.0f)s_phase1c-=1.0f;
 2017              		.loc 1 338 78 is_stmt 0 view .LVU604
 2018 085c A8BF     		it	ge
 2019 085e 72EEED2A 		vsubge.f32	s5, s5, s27
 2020 0862 C0ED002A 		vstr.32	s5, [r0]
 339:src/engine.cpp ****             s_phase1c += f5*VOICE.osc1_ratio/sr; if(s_phase1c>=1.0f)s_phase1c-=1.0f;
 2021              		.loc 1 339 13 is_stmt 1 view .LVU605
 339:src/engine.cpp ****             s_phase1c += f5*VOICE.osc1_ratio/sr; if(s_phase1c>=1.0f)s_phase1c-=1.0f;
 2022              		.loc 1 339 28 is_stmt 0 view .LVU606
 2023 0866 DDED052A 		vldr.32	s5, [sp, #20]
 2024 086a 6EEE228A 		vmul.f32	s17, s28, s5
 339:src/engine.cpp ****             s_phase1c += f5*VOICE.osc1_ratio/sr; if(s_phase1c>=1.0f)s_phase1c-=1.0f;
 2025              		.loc 1 339 45 view .LVU607
 2026 086e C8EE882A 		vdiv.f32	s5, s17, s16
 339:src/engine.cpp ****             s_phase1c += f5*VOICE.osc1_ratio/sr; if(s_phase1c>=1.0f)s_phase1c-=1.0f;
 2027              		.loc 1 339 23 view .LVU608
 2028 0872 72EE8D2A 		vadd.f32	s5, s5, s26
 339:src/engine.cpp ****             s_phase1c += f5*VOICE.osc1_ratio/sr; if(s_phase1c>=1.0f)s_phase1c-=1.0f;
 2029              		.loc 1 339 50 is_stmt 1 view .LVU609
 2030 0876 B7EE00DA 		vmov.f32	s26, #1.0e+0
 2031 087a F4EECD2A 		vcmpe.f32	s5, s26
 2032 087e F1EE10FA 		vmrs	APSR_nzcv, FPSCR
 339:src/engine.cpp ****             s_phase1c += f5*VOICE.osc1_ratio/sr; if(s_phase1c>=1.0f)s_phase1c-=1.0f;
 2033              		.loc 1 339 69 view .LVU610
 339:src/engine.cpp ****             s_phase1c += f5*VOICE.osc1_ratio/sr; if(s_phase1c>=1.0f)s_phase1c-=1.0f;
 2034              		.loc 1 339 78 is_stmt 0 view .LVU611
 2035 0882 A8BF     		it	ge
ARM GAS  /tmp/claude-502/ccjNbcJ1.s 			page 51


 2036 0884 72EECD2A 		vsubge.f32	s5, s5, s26
 2037 0888 C1ED002A 		vstr.32	s5, [r1]
 2038              		.loc 1 340 13 is_stmt 1 view .LVU612
 2039              		.loc 1 340 45 is_stmt 0 view .LVU613
 2040 088c C2EE082A 		vdiv.f32	s5, s4, s16
 2041              		.loc 1 340 23 view .LVU614
 2042 0890 72EE8B2A 		vadd.f32	s5, s5, s22
 2043              		.loc 1 340 50 is_stmt 1 view .LVU615
 2044 0894 B7EE00BA 		vmov.f32	s22, #1.0e+0
 2045 0898 F4EECB2A 		vcmpe.f32	s5, s22
 2046 089c F1EE10FA 		vmrs	APSR_nzcv, FPSCR
 2047              		.loc 1 340 69 view .LVU616
 2048              		.loc 1 340 78 is_stmt 0 view .LVU617
 2049 08a0 A8BF     		it	ge
 2050 08a2 72EECB2A 		vsubge.f32	s5, s5, s22
 2051 08a6 CCED002A 		vstr.32	s5, [ip]
 2052              	.LVL119:
 2053              	.L98:
 2054              		.loc 1 340 78 view .LVU618
 2055              	.LBE587:
 2056              	.LBE839:
 341:src/engine.cpp ****         }
 342:src/engine.cpp **** 
 343:src/engine.cpp ****         // Ring modulation (finger 2 pressure → metallic/bell edge)
 344:src/engine.cpp ****         float rm_carrier = tri(s_phase_rm);
 2057              		.loc 1 344 9 is_stmt 1 view .LVU619
 2058              		.loc 1 344 31 is_stmt 0 view .LVU620
 2059 08aa EE4B     		ldr	r3, .L447
 2060              	.LBB840:
 2061              	.LBB841:
  41:src/dsp.h     **** }
 2062              		.loc 2 41 19 view .LVU621
 2063 08ac B6EE002A 		vmov.f32	s4, #5.0e-1
 2064              	.LBE841:
 2065              	.LBE840:
 2066              		.loc 1 344 31 view .LVU622
 2067 08b0 D3ED002A 		vldr.32	s5, [r3]
 2068              	.LVL120:
 2069              	.LBB844:
 2070              	.LBI840:
  40:src/dsp.h     ****     return ph<0.5f?(4.0f*ph-1.0f):(3.0f-4.0f*ph);
 2071              		.loc 2 40 21 is_stmt 1 view .LVU623
 2072              	.LBB842:
  41:src/dsp.h     **** }
 2073              		.loc 2 41 5 view .LVU624
  41:src/dsp.h     **** }
 2074              		.loc 2 41 19 is_stmt 0 view .LVU625
 2075 08b4 F4EEC22A 		vcmpe.f32	s5, s4
 2076 08b8 B1EE002A 		vmov.f32	s4, #4.0e+0
 2077 08bc F1EE10FA 		vmrs	APSR_nzcv, FPSCR
 2078 08c0 40F19683 		bpl	.L388
  41:src/dsp.h     **** }
 2079              		.loc 2 41 19 view .LVU626
 2080 08c4 FFEE008A 		vmov.f32	s17, #-1.0e+0
 2081 08c8 E2EE828A 		vfma.f32	s17, s5, s4
 2082              	.L148:
 2083              	.LVL121:
ARM GAS  /tmp/claude-502/ccjNbcJ1.s 			page 52


  41:src/dsp.h     **** }
 2084              		.loc 2 41 19 view .LVU627
 2085              	.LBE842:
 2086              	.LBE844:
 345:src/engine.cpp ****         mix = mix*(1.0f-s_ringmod) + (mix*rm_carrier)*s_ringmod;
 2087              		.loc 1 345 9 is_stmt 1 view .LVU628
 2088              		.loc 1 345 42 is_stmt 0 view .LVU629
 2089 08cc 67EE288A 		vmul.f32	s17, s14, s17
 2090              	.LVL122:
 2091              		.loc 1 345 24 view .LVU630
 2092 08d0 B7EE002A 		vmov.f32	s4, #1.0e+0
 2093              		.loc 1 345 54 view .LVU631
 2094 08d4 68EEA68A 		vmul.f32	s17, s17, s13
 2095              		.loc 1 345 24 view .LVU632
 2096 08d8 72EE666A 		vsub.f32	s13, s4, s13
 2097              		.loc 1 345 13 view .LVU633
 2098 08dc E6EE878A 		vfma.f32	s17, s13, s14
 2099              	.LVL123:
 346:src/engine.cpp **** 
 347:src/engine.cpp ****         // Waveshaper drive before filter (adds harmonics, warms tone)
 348:src/engine.cpp ****         mix = fast_tanh(mix * s_drive);
 2100              		.loc 1 348 9 is_stmt 1 view .LVU634
 2101              	.LBB845:
 2102              	.LBB846:
  25:src/dsp.h     ****     if(x<-3.0f)return -1.0f;
 2103              		.loc 2 25 5 is_stmt 0 view .LVU635
 2104 08e0 B0EE087A 		vmov.f32	s14, #3.0e+0
 2105              	.LBE846:
 2106              	.LBE845:
 2107              		.loc 1 348 24 view .LVU636
 2108 08e4 69EEA89A 		vmul.f32	s19, s19, s17
 2109              	.LVL124:
 2110              	.LBB851:
 2111              	.LBI845:
  23:src/dsp.h     **** {
 2112              		.loc 2 23 21 is_stmt 1 view .LVU637
 2113              	.LBB849:
  25:src/dsp.h     ****     if(x<-3.0f)return -1.0f;
 2114              		.loc 2 25 5 view .LVU638
 2115 08e8 F4EEC79A 		vcmpe.f32	s19, s14
 2116 08ec F1EE10FA 		vmrs	APSR_nzcv, FPSCR
 2117 08f0 17DC     		bgt	.L149
  26:src/dsp.h     ****     float x2=x*x;
 2118              		.loc 2 26 5 view .LVU639
 2119 08f2 B8EE087A 		vmov.f32	s14, #-3.0e+0
 2120 08f6 F4EEC79A 		vcmpe.f32	s19, s14
 2121 08fa F1EE10FA 		vmrs	APSR_nzcv, FPSCR
 2122 08fe 00F12185 		bmi	.L279
 2123              	.LVL125:
 2124              	.LBB847:
 2125              	.LBI847:
  23:src/dsp.h     **** {
 2126              		.loc 2 23 21 view .LVU640
 2127              	.LBB848:
  27:src/dsp.h     ****     return x*(27.0f+x2)/(27.0f+9.0f*x2);
 2128              		.loc 2 27 5 view .LVU641
  28:src/dsp.h     **** }
ARM GAS  /tmp/claude-502/ccjNbcJ1.s 			page 53


 2129              		.loc 2 28 20 is_stmt 0 view .LVU642
 2130 0902 F3EE0B6A 		vmov.f32	s13, #2.7e+1
  27:src/dsp.h     ****     return x*(27.0f+x2)/(27.0f+9.0f*x2);
 2131              		.loc 2 27 11 view .LVU643
 2132 0906 29EEA97A 		vmul.f32	s14, s19, s19
 2133              	.LVL126:
  28:src/dsp.h     **** }
 2134              		.loc 2 28 5 is_stmt 1 view .LVU644
  28:src/dsp.h     **** }
 2135              		.loc 2 28 31 is_stmt 0 view .LVU645
 2136 090a B2EE022A 		vmov.f32	s4, #9.0e+0
 2137 090e F0EE668A 		vmov.f32	s17, s13
 2138              	.LVL127:
  28:src/dsp.h     **** }
 2139              		.loc 2 28 31 view .LVU646
 2140 0912 E7EE028A 		vfma.f32	s17, s14, s4
  28:src/dsp.h     **** }
 2141              		.loc 2 28 20 view .LVU647
 2142 0916 37EE267A 		vadd.f32	s14, s14, s13
 2143              	.LVL128:
  28:src/dsp.h     **** }
 2144              		.loc 2 28 13 view .LVU648
 2145 091a 67EE299A 		vmul.f32	s19, s14, s19
 2146              	.LVL129:
  28:src/dsp.h     **** }
 2147              		.loc 2 28 39 view .LVU649
 2148 091e 89EEA82A 		vdiv.f32	s4, s19, s17
 2149              	.L149:
 2150              	.LVL130:
  28:src/dsp.h     **** }
 2151              		.loc 2 28 39 view .LVU650
 2152              	.LBE848:
 2153              	.LBE847:
 2154              	.LBE849:
 2155              	.LBE851:
 349:src/engine.cpp **** 
 350:src/engine.cpp ****         // Moog ladder filter — no attack boost (was causing onset clicks)
 351:src/engine.cpp ****         float eff_cutoff = clampf(s_cutoff, 20.0f, 20000.0f);
 2156              		.loc 1 351 9 is_stmt 1 view .LVU651
 2157              	.LBB852:
 2158              	.LBI852:
  12:src/dsp.h     ****     return v<lo?lo:v>hi?hi:v;
 2159              		.loc 2 12 21 view .LVU652
 2160              	.LBB853:
  13:src/dsp.h     **** }
 2161              		.loc 2 13 5 view .LVU653
  13:src/dsp.h     **** }
 2162              		.loc 2 13 16 is_stmt 0 view .LVU654
 2163 0922 B3EE047A 		vmov.f32	s14, #2.0e+1
 2164 0926 F4EEC75A 		vcmpe.f32	s11, s14
 2165 092a F1EE10FA 		vmrs	APSR_nzcv, FPSCR
 2166 092e 00F15C83 		bmi	.L280
  13:src/dsp.h     **** }
 2167              		.loc 2 13 24 view .LVU655
 2168 0932 9FEDCD7A 		vldr.32	s14, .L447+4
 2169 0936 F4EEC75A 		vcmpe.f32	s11, s14
 2170 093a F1EE10FA 		vmrs	APSR_nzcv, FPSCR
ARM GAS  /tmp/claude-502/ccjNbcJ1.s 			page 54


 2171 093e 00F3B983 		bgt	.L281
 2172              	.LBE853:
 2173              	.LBE852:
 2174              	.LBB856:
 2175              	.LBB676:
 2176              	.LBB667:
  71:src/dsp.h     ****     if(f>0.98f)f=0.98f;
 2177              		.loc 2 71 19 view .LVU656
 2178 0942 75EEA55A 		vadd.f32	s11, s11, s11
 2179              	.LVL131:
 2180              	.L150:
  71:src/dsp.h     ****     if(f>0.98f)f=0.98f;
 2181              		.loc 2 71 19 view .LVU657
 2182              	.LBE667:
 2183              	.LBE676:
 2184              	.LBE856:
 352:src/engine.cpp ****         float filtered = moog(mix, eff_cutoff, VOICE.resonance, sr);
 2185              		.loc 1 352 9 is_stmt 1 view .LVU658
 2186              	.LBB857:
 2187              	.LBI590:
  74:src/engine.cpp **** {
 2188              		.loc 1 74 21 view .LVU659
 2189              	.LBE857:
 2190              	.LBE1139:
 2191              	.LBE1155:
  76:src/engine.cpp **** }
 2192              		.loc 1 76 5 view .LVU660
 2193              	.LBB1156:
 2194              	.LBB1140:
 2195              	.LBB858:
 2196              	.LBB677:
 2197              	.LBI591:
  69:src/dsp.h     **** {
 2198              		.loc 2 69 21 view .LVU661
 2199              	.LBB668:
  71:src/dsp.h     ****     if(f>0.98f)f=0.98f;
 2200              		.loc 2 71 5 view .LVU662
  71:src/dsp.h     ****     if(f>0.98f)f=0.98f;
 2201              		.loc 2 71 11 is_stmt 0 view .LVU663
 2202 0946 85EE887A 		vdiv.f32	s14, s11, s16
 2203              	.LVL132:
  72:src/dsp.h     ****     float k  = 3.8f*res;
 2204              		.loc 2 72 5 is_stmt 1 view .LVU664
  75:src/dsp.h     ****     st[0]+=f*(fast_tanh(x)    -fast_tanh(st[0]));
 2205              		.loc 2 75 11 is_stmt 0 view .LVU665
 2206 094a DDED256A 		vldr.32	s13, [sp, #148]
 2207 094e A6EE852A 		vfma.f32	s4, s13, s10
 2208              	.LVL133:
  72:src/dsp.h     ****     float k  = 3.8f*res;
 2209              		.loc 2 72 5 view .LVU666
 2210 0952 DFEDC66A 		vldr.32	s13, .L447+8
  72:src/dsp.h     ****     float k  = 3.8f*res;
 2211              		.loc 2 72 17 view .LVU667
 2212 0956 B4EE667A 		vcmp.f32	s14, s13
 2213 095a F1EE10FA 		vmrs	APSR_nzcv, FPSCR
 2214 095e 36FE877A 		vselgt.f32	s14, s13, s14
 2215              	.LVL134:
ARM GAS  /tmp/claude-502/ccjNbcJ1.s 			page 55


  73:src/dsp.h     ****     float fb = k*st[3];
 2216              		.loc 2 73 5 is_stmt 1 view .LVU668
  74:src/dsp.h     ****     float x  = in - fb;
 2217              		.loc 2 74 5 view .LVU669
  75:src/dsp.h     ****     st[0]+=f*(fast_tanh(x)    -fast_tanh(st[0]));
 2218              		.loc 2 75 5 view .LVU670
  76:src/dsp.h     ****     st[1]+=f*(fast_tanh(st[0])-fast_tanh(st[1]));
 2219              		.loc 2 76 5 view .LVU671
 2220              	.LBB593:
 2221              	.LBI593:
  23:src/dsp.h     **** {
 2222              		.loc 2 23 21 view .LVU672
 2223              	.LBB594:
  25:src/dsp.h     ****     if(x<-3.0f)return -1.0f;
 2224              		.loc 2 25 5 view .LVU673
 2225 0962 F0EE086A 		vmov.f32	s13, #3.0e+0
 2226 0966 B4EEE62A 		vcmpe.f32	s4, s13
 2227 096a F1EE10FA 		vmrs	APSR_nzcv, FPSCR
 2228 096e 00F35B83 		bgt	.L282
  26:src/dsp.h     ****     float x2=x*x;
 2229              		.loc 2 26 5 view .LVU674
 2230 0972 F8EE086A 		vmov.f32	s13, #-3.0e+0
 2231 0976 B4EEE62A 		vcmpe.f32	s4, s13
 2232 097a F1EE10FA 		vmrs	APSR_nzcv, FPSCR
 2233 097e 00F1CD84 		bmi	.L283
 2234              	.LVL135:
 2235              	.LBB595:
 2236              	.LBI595:
  23:src/dsp.h     **** {
 2237              		.loc 2 23 21 view .LVU675
 2238              	.LBB596:
  27:src/dsp.h     ****     return x*(27.0f+x2)/(27.0f+9.0f*x2);
 2239              		.loc 2 27 5 view .LVU676
  28:src/dsp.h     **** }
 2240              		.loc 2 28 20 is_stmt 0 view .LVU677
 2241 0982 F3EE0B5A 		vmov.f32	s11, #2.7e+1
  27:src/dsp.h     ****     return x*(27.0f+x2)/(27.0f+9.0f*x2);
 2242              		.loc 2 27 11 view .LVU678
 2243 0986 62EE026A 		vmul.f32	s13, s4, s4
 2244              	.LVL136:
  28:src/dsp.h     **** }
 2245              		.loc 2 28 5 is_stmt 1 view .LVU679
  28:src/dsp.h     **** }
 2246              		.loc 2 28 31 is_stmt 0 view .LVU680
 2247 098a F2EE029A 		vmov.f32	s19, #9.0e+0
 2248 098e F0EE658A 		vmov.f32	s17, s11
 2249 0992 E6EEA98A 		vfma.f32	s17, s13, s19
  28:src/dsp.h     **** }
 2250              		.loc 2 28 20 view .LVU681
 2251 0996 76EEA56A 		vadd.f32	s13, s13, s11
 2252              	.LVL137:
  28:src/dsp.h     **** }
 2253              		.loc 2 28 13 view .LVU682
 2254 099a 26EE822A 		vmul.f32	s4, s13, s4
 2255              	.LVL138:
  28:src/dsp.h     **** }
 2256              		.loc 2 28 39 view .LVU683
ARM GAS  /tmp/claude-502/ccjNbcJ1.s 			page 56


 2257 099e C2EE286A 		vdiv.f32	s13, s4, s17
 2258              	.L153:
 2259              	.LVL139:
  28:src/dsp.h     **** }
 2260              		.loc 2 28 39 view .LVU684
 2261              	.LBE596:
 2262              	.LBE595:
 2263              	.LBE594:
 2264              	.LBE593:
 2265              	.LBB599:
 2266              	.LBI599:
  23:src/dsp.h     **** {
 2267              		.loc 2 23 21 is_stmt 1 view .LVU685
 2268              	.LBB600:
  25:src/dsp.h     ****     if(x<-3.0f)return -1.0f;
 2269              		.loc 2 25 5 view .LVU686
 2270 09a2 F0EE085A 		vmov.f32	s11, #3.0e+0
 2271 09a6 F4EEE53A 		vcmpe.f32	s7, s11
 2272 09aa F1EE10FA 		vmrs	APSR_nzcv, FPSCR
 2273 09ae 00F33583 		bgt	.L284
  26:src/dsp.h     ****     float x2=x*x;
 2274              		.loc 2 26 5 view .LVU687
 2275 09b2 F8EE085A 		vmov.f32	s11, #-3.0e+0
 2276 09b6 F4EEE53A 		vcmpe.f32	s7, s11
 2277 09ba F1EE10FA 		vmrs	APSR_nzcv, FPSCR
 2278 09be 00F1C584 		bmi	.L285
 2279              	.LVL140:
 2280              	.LBB601:
 2281              	.LBI601:
  23:src/dsp.h     **** {
 2282              		.loc 2 23 21 view .LVU688
 2283              	.LBB602:
  27:src/dsp.h     ****     return x*(27.0f+x2)/(27.0f+9.0f*x2);
 2284              		.loc 2 27 5 view .LVU689
  28:src/dsp.h     **** }
 2285              		.loc 2 28 20 is_stmt 0 view .LVU690
 2286 09c2 B3EE0B2A 		vmov.f32	s4, #2.7e+1
  27:src/dsp.h     ****     return x*(27.0f+x2)/(27.0f+9.0f*x2);
 2287              		.loc 2 27 11 view .LVU691
 2288 09c6 63EEA35A 		vmul.f32	s11, s7, s7
 2289              	.LVL141:
  28:src/dsp.h     **** }
 2290              		.loc 2 28 5 is_stmt 1 view .LVU692
  28:src/dsp.h     **** }
 2291              		.loc 2 28 31 is_stmt 0 view .LVU693
 2292 09ca F2EE029A 		vmov.f32	s19, #9.0e+0
 2293 09ce F0EE428A 		vmov.f32	s17, s4
 2294 09d2 E5EEA98A 		vfma.f32	s17, s11, s19
  28:src/dsp.h     **** }
 2295              		.loc 2 28 20 view .LVU694
 2296 09d6 75EE825A 		vadd.f32	s11, s11, s4
 2297              	.LVL142:
  28:src/dsp.h     **** }
 2298              		.loc 2 28 13 view .LVU695
 2299 09da 65EEA35A 		vmul.f32	s11, s11, s7
  28:src/dsp.h     **** }
 2300              		.loc 2 28 39 view .LVU696
ARM GAS  /tmp/claude-502/ccjNbcJ1.s 			page 57


 2301 09de 85EEA82A 		vdiv.f32	s4, s11, s17
 2302              	.LVL143:
 2303              	.L154:
  28:src/dsp.h     **** }
 2304              		.loc 2 28 39 view .LVU697
 2305              	.LBE602:
 2306              	.LBE601:
 2307              	.LBE600:
 2308              	.LBE599:
  76:src/dsp.h     ****     st[1]+=f*(fast_tanh(st[0])-fast_tanh(st[1]));
 2309              		.loc 2 76 31 view .LVU698
 2310 09e2 76EEC26A 		vsub.f32	s13, s13, s4
  76:src/dsp.h     ****     st[1]+=f*(fast_tanh(st[0])-fast_tanh(st[1]));
 2311              		.loc 2 76 10 view .LVU699
 2312 09e6 E6EE873A 		vfma.f32	s7, s13, s14
 2313              	.LBB605:
 2314              	.LBB606:
  25:src/dsp.h     ****     if(x<-3.0f)return -1.0f;
 2315              		.loc 2 25 5 view .LVU700
 2316 09ea F0EE086A 		vmov.f32	s13, #3.0e+0
 2317 09ee F4EEE63A 		vcmpe.f32	s7, s13
 2318              	.LBE606:
 2319              	.LBE605:
  76:src/dsp.h     ****     st[1]+=f*(fast_tanh(st[0])-fast_tanh(st[1]));
 2320              		.loc 2 76 10 view .LVU701
 2321 09f2 C4ED003A 		vstr.32	s7, [r4]
  77:src/dsp.h     ****     st[2]+=f*(fast_tanh(st[1])-fast_tanh(st[2]));
 2322              		.loc 2 77 5 is_stmt 1 view .LVU702
 2323              	.LVL144:
 2324              	.LBB612:
 2325              	.LBI605:
  23:src/dsp.h     **** {
 2326              		.loc 2 23 21 view .LVU703
 2327              	.LBB609:
  25:src/dsp.h     ****     if(x<-3.0f)return -1.0f;
 2328              		.loc 2 25 5 view .LVU704
 2329 09f6 F1EE10FA 		vmrs	APSR_nzcv, FPSCR
 2330 09fa 00F30283 		bgt	.L286
  26:src/dsp.h     ****     float x2=x*x;
 2331              		.loc 2 26 5 view .LVU705
 2332 09fe F8EE086A 		vmov.f32	s13, #-3.0e+0
 2333 0a02 F4EEE63A 		vcmpe.f32	s7, s13
 2334 0a06 F1EE10FA 		vmrs	APSR_nzcv, FPSCR
 2335 0a0a 00F18B84 		bmi	.L287
 2336              	.LVL145:
 2337              	.LBB607:
 2338              	.LBI607:
  23:src/dsp.h     **** {
 2339              		.loc 2 23 21 view .LVU706
 2340              	.LBB608:
  27:src/dsp.h     ****     return x*(27.0f+x2)/(27.0f+9.0f*x2);
 2341              		.loc 2 27 5 view .LVU707
  28:src/dsp.h     **** }
 2342              		.loc 2 28 20 is_stmt 0 view .LVU708
 2343 0a0e F3EE0B5A 		vmov.f32	s11, #2.7e+1
  27:src/dsp.h     ****     return x*(27.0f+x2)/(27.0f+9.0f*x2);
 2344              		.loc 2 27 11 view .LVU709
ARM GAS  /tmp/claude-502/ccjNbcJ1.s 			page 58


 2345 0a12 63EEA36A 		vmul.f32	s13, s7, s7
 2346              	.LVL146:
  28:src/dsp.h     **** }
 2347              		.loc 2 28 5 is_stmt 1 view .LVU710
  28:src/dsp.h     **** }
 2348              		.loc 2 28 31 is_stmt 0 view .LVU711
 2349 0a16 F2EE028A 		vmov.f32	s17, #9.0e+0
 2350 0a1a B0EE652A 		vmov.f32	s4, s11
 2351 0a1e A6EEA82A 		vfma.f32	s4, s13, s17
  28:src/dsp.h     **** }
 2352              		.loc 2 28 20 view .LVU712
 2353 0a22 76EEA56A 		vadd.f32	s13, s13, s11
 2354              	.LVL147:
  28:src/dsp.h     **** }
 2355              		.loc 2 28 13 view .LVU713
 2356 0a26 66EEA33A 		vmul.f32	s7, s13, s7
 2357              	.LVL148:
  28:src/dsp.h     **** }
 2358              		.loc 2 28 39 view .LVU714
 2359 0a2a C3EE826A 		vdiv.f32	s13, s7, s4
 2360              	.LVL149:
 2361              	.L155:
  28:src/dsp.h     **** }
 2362              		.loc 2 28 39 view .LVU715
 2363              	.LBE608:
 2364              	.LBE607:
 2365              	.LBE609:
 2366              	.LBE612:
 2367              	.LBB613:
 2368              	.LBI613:
  23:src/dsp.h     **** {
 2369              		.loc 2 23 21 is_stmt 1 view .LVU716
 2370              	.LBB614:
  25:src/dsp.h     ****     if(x<-3.0f)return -1.0f;
 2371              		.loc 2 25 5 view .LVU717
 2372 0a2e F0EE085A 		vmov.f32	s11, #3.0e+0
 2373 0a32 B4EEE54A 		vcmpe.f32	s8, s11
 2374 0a36 F1EE10FA 		vmrs	APSR_nzcv, FPSCR
 2375 0a3a 00F3EC82 		bgt	.L288
 2376              	.L429:
  26:src/dsp.h     ****     float x2=x*x;
 2377              		.loc 2 26 5 view .LVU718
 2378 0a3e F8EE085A 		vmov.f32	s11, #-3.0e+0
 2379 0a42 B4EEE54A 		vcmpe.f32	s8, s11
 2380 0a46 F1EE10FA 		vmrs	APSR_nzcv, FPSCR
 2381 0a4a 00F17784 		bmi	.L289
 2382              	.LVL150:
 2383              	.LBB615:
 2384              	.LBI615:
  23:src/dsp.h     **** {
 2385              		.loc 2 23 21 view .LVU719
 2386              	.LBB616:
  27:src/dsp.h     ****     return x*(27.0f+x2)/(27.0f+9.0f*x2);
 2387              		.loc 2 27 5 view .LVU720
  28:src/dsp.h     **** }
 2388              		.loc 2 28 20 is_stmt 0 view .LVU721
 2389 0a4e F3EE0B3A 		vmov.f32	s7, #2.7e+1
ARM GAS  /tmp/claude-502/ccjNbcJ1.s 			page 59


  27:src/dsp.h     ****     return x*(27.0f+x2)/(27.0f+9.0f*x2);
 2390              		.loc 2 27 11 view .LVU722
 2391 0a52 64EE045A 		vmul.f32	s11, s8, s8
 2392              	.LVL151:
  28:src/dsp.h     **** }
 2393              		.loc 2 28 5 is_stmt 1 view .LVU723
  28:src/dsp.h     **** }
 2394              		.loc 2 28 31 is_stmt 0 view .LVU724
 2395 0a56 F2EE028A 		vmov.f32	s17, #9.0e+0
 2396 0a5a B0EE632A 		vmov.f32	s4, s7
 2397 0a5e A5EEA82A 		vfma.f32	s4, s11, s17
  28:src/dsp.h     **** }
 2398              		.loc 2 28 20 view .LVU725
 2399 0a62 75EEA35A 		vadd.f32	s11, s11, s7
 2400              	.LVL152:
  28:src/dsp.h     **** }
 2401              		.loc 2 28 13 view .LVU726
 2402 0a66 65EE845A 		vmul.f32	s11, s11, s8
  28:src/dsp.h     **** }
 2403              		.loc 2 28 39 view .LVU727
 2404 0a6a C5EE823A 		vdiv.f32	s7, s11, s4
 2405              	.LVL153:
 2406              	.L156:
  28:src/dsp.h     **** }
 2407              		.loc 2 28 39 view .LVU728
 2408              	.LBE616:
 2409              	.LBE615:
 2410              	.LBE614:
 2411              	.LBE613:
  77:src/dsp.h     ****     st[2]+=f*(fast_tanh(st[1])-fast_tanh(st[2]));
 2412              		.loc 2 77 31 view .LVU729
 2413 0a6e 76EEE36A 		vsub.f32	s13, s13, s7
  77:src/dsp.h     ****     st[2]+=f*(fast_tanh(st[1])-fast_tanh(st[2]));
 2414              		.loc 2 77 10 view .LVU730
 2415 0a72 A7EE264A 		vfma.f32	s8, s14, s13
 2416              	.LBB620:
 2417              	.LBB621:
  25:src/dsp.h     ****     if(x<-3.0f)return -1.0f;
 2418              		.loc 2 25 5 view .LVU731
 2419 0a76 F0EE086A 		vmov.f32	s13, #3.0e+0
 2420 0a7a B4EEE64A 		vcmpe.f32	s8, s13
 2421              	.LBE621:
 2422              	.LBE620:
  77:src/dsp.h     ****     st[2]+=f*(fast_tanh(st[1])-fast_tanh(st[2]));
 2423              		.loc 2 77 10 view .LVU732
 2424 0a7e 84ED014A 		vstr.32	s8, [r4, #4]
 2425              		.loc 2 78 5 is_stmt 1 view .LVU733
 2426              	.LVL154:
 2427              	.LBB627:
 2428              	.LBI620:
  23:src/dsp.h     **** {
 2429              		.loc 2 23 21 view .LVU734
 2430              	.LBB624:
  25:src/dsp.h     ****     if(x<-3.0f)return -1.0f;
 2431              		.loc 2 25 5 view .LVU735
 2432 0a82 F1EE10FA 		vmrs	APSR_nzcv, FPSCR
 2433 0a86 00F3D882 		bgt	.L290
ARM GAS  /tmp/claude-502/ccjNbcJ1.s 			page 60


  26:src/dsp.h     ****     float x2=x*x;
 2434              		.loc 2 26 5 view .LVU736
 2435 0a8a F8EE086A 		vmov.f32	s13, #-3.0e+0
 2436 0a8e B4EEE64A 		vcmpe.f32	s8, s13
 2437 0a92 F1EE10FA 		vmrs	APSR_nzcv, FPSCR
 2438 0a96 00F14D84 		bmi	.L291
 2439              	.LVL155:
 2440              	.LBB622:
 2441              	.LBI622:
  23:src/dsp.h     **** {
 2442              		.loc 2 23 21 view .LVU737
 2443              	.LBB623:
  27:src/dsp.h     ****     return x*(27.0f+x2)/(27.0f+9.0f*x2);
 2444              		.loc 2 27 5 view .LVU738
  28:src/dsp.h     **** }
 2445              		.loc 2 28 20 is_stmt 0 view .LVU739
 2446 0a9a F3EE0B5A 		vmov.f32	s11, #2.7e+1
  27:src/dsp.h     ****     return x*(27.0f+x2)/(27.0f+9.0f*x2);
 2447              		.loc 2 27 11 view .LVU740
 2448 0a9e 64EE046A 		vmul.f32	s13, s8, s8
 2449              	.LVL156:
  28:src/dsp.h     **** }
 2450              		.loc 2 28 5 is_stmt 1 view .LVU741
  28:src/dsp.h     **** }
 2451              		.loc 2 28 31 is_stmt 0 view .LVU742
 2452 0aa2 B2EE022A 		vmov.f32	s4, #9.0e+0
 2453 0aa6 F0EE653A 		vmov.f32	s7, s11
 2454 0aaa E6EE823A 		vfma.f32	s7, s13, s4
  28:src/dsp.h     **** }
 2455              		.loc 2 28 20 view .LVU743
 2456 0aae 76EEA56A 		vadd.f32	s13, s13, s11
 2457              	.LVL157:
  28:src/dsp.h     **** }
 2458              		.loc 2 28 13 view .LVU744
 2459 0ab2 26EE844A 		vmul.f32	s8, s13, s8
 2460              	.LVL158:
  28:src/dsp.h     **** }
 2461              		.loc 2 28 39 view .LVU745
 2462 0ab6 C4EE236A 		vdiv.f32	s13, s8, s7
 2463              	.LVL159:
 2464              	.L157:
  28:src/dsp.h     **** }
 2465              		.loc 2 28 39 view .LVU746
 2466              	.LBE623:
 2467              	.LBE622:
 2468              	.LBE624:
 2469              	.LBE627:
 2470              	.LBB628:
 2471              	.LBI628:
  23:src/dsp.h     **** {
 2472              		.loc 2 23 21 is_stmt 1 view .LVU747
 2473              	.LBB629:
  25:src/dsp.h     ****     if(x<-3.0f)return -1.0f;
 2474              		.loc 2 25 5 view .LVU748
 2475 0aba F0EE085A 		vmov.f32	s11, #3.0e+0
 2476 0abe F4EEE54A 		vcmpe.f32	s9, s11
 2477 0ac2 F1EE10FA 		vmrs	APSR_nzcv, FPSCR
ARM GAS  /tmp/claude-502/ccjNbcJ1.s 			page 61


 2478 0ac6 00F3B582 		bgt	.L292
  26:src/dsp.h     ****     float x2=x*x;
 2479              		.loc 2 26 5 view .LVU749
 2480 0aca F8EE085A 		vmov.f32	s11, #-3.0e+0
 2481 0ace F4EEE54A 		vcmpe.f32	s9, s11
 2482 0ad2 F1EE10FA 		vmrs	APSR_nzcv, FPSCR
 2483 0ad6 00F12984 		bmi	.L293
 2484              	.LVL160:
 2485              	.LBB630:
 2486              	.LBI630:
  23:src/dsp.h     **** {
 2487              		.loc 2 23 21 view .LVU750
 2488              	.LBB631:
  27:src/dsp.h     ****     return x*(27.0f+x2)/(27.0f+9.0f*x2);
 2489              		.loc 2 27 5 view .LVU751
  28:src/dsp.h     **** }
 2490              		.loc 2 28 20 is_stmt 0 view .LVU752
 2491 0ada B3EE0B4A 		vmov.f32	s8, #2.7e+1
  27:src/dsp.h     ****     return x*(27.0f+x2)/(27.0f+9.0f*x2);
 2492              		.loc 2 27 11 view .LVU753
 2493 0ade 64EEA45A 		vmul.f32	s11, s9, s9
 2494              	.LVL161:
  28:src/dsp.h     **** }
 2495              		.loc 2 28 5 is_stmt 1 view .LVU754
  28:src/dsp.h     **** }
 2496              		.loc 2 28 31 is_stmt 0 view .LVU755
 2497 0ae2 B2EE022A 		vmov.f32	s4, #9.0e+0
 2498 0ae6 F0EE443A 		vmov.f32	s7, s8
 2499 0aea E5EE823A 		vfma.f32	s7, s11, s4
  28:src/dsp.h     **** }
 2500              		.loc 2 28 20 view .LVU756
 2501 0aee 75EE845A 		vadd.f32	s11, s11, s8
 2502              	.LVL162:
  28:src/dsp.h     **** }
 2503              		.loc 2 28 13 view .LVU757
 2504 0af2 65EEA45A 		vmul.f32	s11, s11, s9
  28:src/dsp.h     **** }
 2505              		.loc 2 28 39 view .LVU758
 2506 0af6 85EEA34A 		vdiv.f32	s8, s11, s7
 2507              	.LVL163:
 2508              	.L158:
  28:src/dsp.h     **** }
 2509              		.loc 2 28 39 view .LVU759
 2510              	.LBE631:
 2511              	.LBE630:
 2512              	.LBE629:
 2513              	.LBE628:
 2514              		.loc 2 78 31 view .LVU760
 2515 0afa 76EEC46A 		vsub.f32	s13, s13, s8
 2516              		.loc 2 78 10 view .LVU761
 2517 0afe E7EE264A 		vfma.f32	s9, s14, s13
 2518              	.LBB634:
 2519              	.LBB635:
  25:src/dsp.h     ****     if(x<-3.0f)return -1.0f;
 2520              		.loc 2 25 5 view .LVU762
 2521 0b02 F0EE086A 		vmov.f32	s13, #3.0e+0
 2522 0b06 F4EEE64A 		vcmpe.f32	s9, s13
ARM GAS  /tmp/claude-502/ccjNbcJ1.s 			page 62


 2523              	.LBE635:
 2524              	.LBE634:
 2525              		.loc 2 78 10 view .LVU763
 2526 0b0a C4ED024A 		vstr.32	s9, [r4, #8]
  79:src/dsp.h     ****     st[3]+=f*(fast_tanh(st[2])-fast_tanh(st[3]));
 2527              		.loc 2 79 5 is_stmt 1 view .LVU764
 2528              	.LVL164:
 2529              	.LBB641:
 2530              	.LBI634:
  23:src/dsp.h     **** {
 2531              		.loc 2 23 21 view .LVU765
 2532              	.LBB638:
  25:src/dsp.h     ****     if(x<-3.0f)return -1.0f;
 2533              		.loc 2 25 5 view .LVU766
 2534 0b0e F1EE10FA 		vmrs	APSR_nzcv, FPSCR
 2535 0b12 00F38C82 		bgt	.L294
  26:src/dsp.h     ****     float x2=x*x;
 2536              		.loc 2 26 5 view .LVU767
 2537 0b16 F8EE086A 		vmov.f32	s13, #-3.0e+0
 2538 0b1a F4EEE64A 		vcmpe.f32	s9, s13
 2539 0b1e F1EE10FA 		vmrs	APSR_nzcv, FPSCR
 2540 0b22 00F18B84 		bmi	.L295
 2541              	.LVL165:
 2542              	.LBB636:
 2543              	.LBI636:
  23:src/dsp.h     **** {
 2544              		.loc 2 23 21 view .LVU768
 2545              	.LBB637:
  27:src/dsp.h     ****     return x*(27.0f+x2)/(27.0f+9.0f*x2);
 2546              		.loc 2 27 5 view .LVU769
  28:src/dsp.h     **** }
 2547              		.loc 2 28 20 is_stmt 0 view .LVU770
 2548 0b26 F3EE0B5A 		vmov.f32	s11, #2.7e+1
  27:src/dsp.h     ****     return x*(27.0f+x2)/(27.0f+9.0f*x2);
 2549              		.loc 2 27 11 view .LVU771
 2550 0b2a 64EEA46A 		vmul.f32	s13, s9, s9
 2551              	.LVL166:
  28:src/dsp.h     **** }
 2552              		.loc 2 28 5 is_stmt 1 view .LVU772
  28:src/dsp.h     **** }
 2553              		.loc 2 28 31 is_stmt 0 view .LVU773
 2554 0b2e F2EE023A 		vmov.f32	s7, #9.0e+0
 2555 0b32 B0EE654A 		vmov.f32	s8, s11
 2556 0b36 A6EEA34A 		vfma.f32	s8, s13, s7
  28:src/dsp.h     **** }
 2557              		.loc 2 28 20 view .LVU774
 2558 0b3a 76EEA56A 		vadd.f32	s13, s13, s11
 2559              	.LVL167:
  28:src/dsp.h     **** }
 2560              		.loc 2 28 13 view .LVU775
 2561 0b3e 66EEA44A 		vmul.f32	s9, s13, s9
 2562              	.LVL168:
  28:src/dsp.h     **** }
 2563              		.loc 2 28 39 view .LVU776
 2564 0b42 C4EE846A 		vdiv.f32	s13, s9, s8
 2565              	.LVL169:
 2566              	.L159:
ARM GAS  /tmp/claude-502/ccjNbcJ1.s 			page 63


  28:src/dsp.h     **** }
 2567              		.loc 2 28 39 view .LVU777
 2568              	.LBE637:
 2569              	.LBE636:
 2570              	.LBE638:
 2571              	.LBE641:
 2572              	.LBB642:
 2573              	.LBI642:
  23:src/dsp.h     **** {
 2574              		.loc 2 23 21 is_stmt 1 view .LVU778
 2575              	.LBB643:
  25:src/dsp.h     ****     if(x<-3.0f)return -1.0f;
 2576              		.loc 2 25 5 view .LVU779
 2577 0b46 F0EE085A 		vmov.f32	s11, #3.0e+0
 2578 0b4a B4EEE55A 		vcmpe.f32	s10, s11
 2579 0b4e F1EE10FA 		vmrs	APSR_nzcv, FPSCR
 2580 0b52 00F36682 		bgt	.L296
  26:src/dsp.h     ****     float x2=x*x;
 2581              		.loc 2 26 5 view .LVU780
 2582 0b56 F8EE085A 		vmov.f32	s11, #-3.0e+0
 2583 0b5a B4EEE55A 		vcmpe.f32	s10, s11
 2584 0b5e F1EE10FA 		vmrs	APSR_nzcv, FPSCR
 2585 0b62 00F1F783 		bmi	.L297
 2586              	.LVL170:
 2587              	.LBB644:
 2588              	.LBI644:
  23:src/dsp.h     **** {
 2589              		.loc 2 23 21 view .LVU781
 2590              	.LBB645:
  27:src/dsp.h     ****     return x*(27.0f+x2)/(27.0f+9.0f*x2);
 2591              		.loc 2 27 5 view .LVU782
  28:src/dsp.h     **** }
 2592              		.loc 2 28 20 is_stmt 0 view .LVU783
 2593 0b66 F3EE0B4A 		vmov.f32	s9, #2.7e+1
  27:src/dsp.h     ****     return x*(27.0f+x2)/(27.0f+9.0f*x2);
 2594              		.loc 2 27 11 view .LVU784
 2595 0b6a 65EE055A 		vmul.f32	s11, s10, s10
 2596              	.LVL171:
  28:src/dsp.h     **** }
 2597              		.loc 2 28 5 is_stmt 1 view .LVU785
  28:src/dsp.h     **** }
 2598              		.loc 2 28 31 is_stmt 0 view .LVU786
 2599 0b6e F2EE023A 		vmov.f32	s7, #9.0e+0
 2600 0b72 B0EE644A 		vmov.f32	s8, s9
 2601 0b76 A5EEA34A 		vfma.f32	s8, s11, s7
  28:src/dsp.h     **** }
 2602              		.loc 2 28 20 view .LVU787
 2603 0b7a 75EEA45A 		vadd.f32	s11, s11, s9
 2604              	.LVL172:
  28:src/dsp.h     **** }
 2605              		.loc 2 28 13 view .LVU788
 2606 0b7e 65EE855A 		vmul.f32	s11, s11, s10
  28:src/dsp.h     **** }
 2607              		.loc 2 28 39 view .LVU789
 2608 0b82 C5EE844A 		vdiv.f32	s9, s11, s8
 2609              	.LVL173:
 2610              	.L160:
ARM GAS  /tmp/claude-502/ccjNbcJ1.s 			page 64


  28:src/dsp.h     **** }
 2611              		.loc 2 28 39 view .LVU790
 2612              	.LBE645:
 2613              	.LBE644:
 2614              	.LBE643:
 2615              	.LBE642:
 2616              		.loc 2 79 31 view .LVU791
 2617 0b86 76EEE46A 		vsub.f32	s13, s13, s9
 2618              		.loc 2 79 10 view .LVU792
 2619 0b8a A7EE265A 		vfma.f32	s10, s14, s13
 2620              	.LVL174:
 2621              		.loc 2 79 10 view .LVU793
 2622              	.LBE668:
 2623              	.LBE677:
 2624              	.LBE858:
 2625              	.LBB859:
 2626              	.LBB860:
  80:src/dsp.h     ****     return st[3];
  81:src/dsp.h     **** }
  82:src/dsp.h     **** // Wavefolder distortion
  83:src/dsp.h     **** // Folds signal back when it exceeds threshold — creates rich harmonics.
  84:src/dsp.h     **** // amount 0 = clean, 1 = heavy folding (4 folds)
  85:src/dsp.h     **** static inline float wavefold(float in, float amount)
  86:src/dsp.h     **** {
  87:src/dsp.h     ****     if(amount < 0.01f) return in;
 2627              		.loc 2 87 5 view .LVU794
 2628 0b8e 9FED387A 		vldr.32	s14, .L447+12
 2629              	.LVL175:
 2630              		.loc 2 87 5 view .LVU795
 2631 0b92 B4EEC73A 		vcmpe.f32	s6, s14
 2632 0b96 F1EE10FA 		vmrs	APSR_nzcv, FPSCR
 2633              	.LBE860:
 2634              	.LBE859:
 2635              	.LBB865:
 2636              	.LBB678:
 2637              	.LBB669:
  79:src/dsp.h     ****     return st[3];
 2638              		.loc 2 79 10 view .LVU796
 2639 0b9a 84ED035A 		vstr.32	s10, [r4, #12]
  80:src/dsp.h     ****     return st[3];
 2640              		.loc 2 80 5 is_stmt 1 view .LVU797
 2641              	.LVL176:
  80:src/dsp.h     ****     return st[3];
 2642              		.loc 2 80 5 is_stmt 0 view .LVU798
 2643              	.LBE669:
 2644              	.LBE678:
 2645              	.LBE865:
 353:src/engine.cpp **** 
 354:src/engine.cpp ****         // Wavefold distortion (finger 2 pressure)
 355:src/engine.cpp ****         float crushed = wavefold(filtered, s_bitcrush);
 2646              		.loc 1 355 9 is_stmt 1 view .LVU799
 2647              	.LBB866:
 2648              	.LBI859:
  85:src/dsp.h     **** {
 2649              		.loc 2 85 21 view .LVU800
 2650              	.LBB864:
 2651              		.loc 2 87 5 view .LVU801
ARM GAS  /tmp/claude-502/ccjNbcJ1.s 			page 65


 2652 0b9e 3BD4     		bmi	.L161
  88:src/dsp.h     ****     // Drive the signal harder as amount increases (1x to 5x)
  89:src/dsp.h     ****     float driven = in * (1.0f + amount * 4.0f);
 2653              		.loc 2 89 5 view .LVU802
 2654              		.loc 2 89 31 is_stmt 0 view .LVU803
 2655 0ba0 B7EE004A 		vmov.f32	s8, #1.0e+0
 2656 0ba4 B1EE007A 		vmov.f32	s14, #4.0e+0
 2657              	.LBB861:
  90:src/dsp.h     ****     // Fold: reflect signal at ±1 boundary repeatedly
  91:src/dsp.h     ****     // fold(x) = 1 - |((x+1) mod 2) - 1|  (triangle fold)
  92:src/dsp.h     ****     float x = driven;
  93:src/dsp.h     ****     // 2 passes of folding for richness
  94:src/dsp.h     ****     for(int fold = 0; fold < 2; fold++) {
  95:src/dsp.h     ****         x = x * 0.5f + 0.5f;           // shift to 0..1
  96:src/dsp.h     ****         x = x - floorf(x);              // wrap to 0..1
  97:src/dsp.h     ****         x = 1.0f - fabsf(2.0f*x - 1.0f); // triangle fold
 2658              		.loc 2 97 33 view .LVU804
 2659 0ba8 F0EE004A 		vmov.f32	s9, #2.0e+0
 2660              	.LBE861:
  89:src/dsp.h     ****     // Fold: reflect signal at ±1 boundary repeatedly
 2661              		.loc 2 89 31 view .LVU805
 2662 0bac F0EE446A 		vmov.f32	s13, s8
  98:src/dsp.h     ****         x = x * 2.0f - 1.0f;           // back to -1..1
  99:src/dsp.h     ****     }
 100:src/dsp.h     ****     // Blend dry/wet so at low amounts it stays subtle
 101:src/dsp.h     ****     return in*(1.0f-amount) + x*amount;
 2663              		.loc 2 101 20 view .LVU806
 2664 0bb0 74EE433A 		vsub.f32	s7, s8, s6
  89:src/dsp.h     ****     // Fold: reflect signal at ±1 boundary repeatedly
 2665              		.loc 2 89 31 view .LVU807
 2666 0bb4 E3EE076A 		vfma.f32	s13, s6, s14
 2667              	.LVL177:
  92:src/dsp.h     ****     // 2 passes of folding for richness
 2668              		.loc 2 92 5 is_stmt 1 view .LVU808
  94:src/dsp.h     ****         x = x * 0.5f + 0.5f;           // shift to 0..1
 2669              		.loc 2 94 5 view .LVU809
 2670              	.LBB862:
  94:src/dsp.h     ****         x = x * 0.5f + 0.5f;           // shift to 0..1
 2671              		.loc 2 94 28 view .LVU810
  95:src/dsp.h     ****         x = x - floorf(x);              // wrap to 0..1
 2672              		.loc 2 95 9 view .LVU811
  95:src/dsp.h     ****         x = x - floorf(x);              // wrap to 0..1
 2673              		.loc 2 95 11 is_stmt 0 view .LVU812
 2674 0bb8 B6EE007A 		vmov.f32	s14, #5.0e-1
 2675 0bbc F0EE475A 		vmov.f32	s11, s14
 2676              	.LBE862:
  89:src/dsp.h     ****     // Fold: reflect signal at ±1 boundary repeatedly
 2677              		.loc 2 89 11 view .LVU813
 2678 0bc0 66EE856A 		vmul.f32	s13, s13, s10
 2679              	.LVL178:
 2680              	.LBB863:
  95:src/dsp.h     ****         x = x - floorf(x);              // wrap to 0..1
 2681              		.loc 2 95 11 view .LVU814
 2682 0bc4 E6EE875A 		vfma.f32	s11, s13, s14
 2683              	.LVL179:
  96:src/dsp.h     ****         x = 1.0f - fabsf(2.0f*x - 1.0f); // triangle fold
 2684              		.loc 2 96 9 is_stmt 1 view .LVU815
ARM GAS  /tmp/claude-502/ccjNbcJ1.s 			page 66


  97:src/dsp.h     ****         x = x * 2.0f - 1.0f;           // back to -1..1
 2685              		.loc 2 97 33 is_stmt 0 view .LVU816
 2686 0bc8 FFEE006A 		vmov.f32	s13, #-1.0e+0
 2687              	.LVL180:
  96:src/dsp.h     ****         x = 1.0f - fabsf(2.0f*x - 1.0f); // triangle fold
 2688              		.loc 2 96 23 view .LVU817
 2689 0bcc BBFE652A 		vrintm.f32	s4, s11
 2690              	.LVL181:
  97:src/dsp.h     ****         x = x * 2.0f - 1.0f;           // back to -1..1
 2691              		.loc 2 97 9 is_stmt 1 view .LVU818
  96:src/dsp.h     ****         x = 1.0f - fabsf(2.0f*x - 1.0f); // triangle fold
 2692              		.loc 2 96 11 is_stmt 0 view .LVU819
 2693 0bd0 35EEC22A 		vsub.f32	s4, s11, s4
 2694              	.LVL182:
  97:src/dsp.h     ****         x = x * 2.0f - 1.0f;           // back to -1..1
 2695              		.loc 2 97 33 view .LVU820
 2696 0bd4 F0EE665A 		vmov.f32	s11, s13
 2697 0bd8 E2EE245A 		vfma.f32	s11, s4, s9
  98:src/dsp.h     ****     }
 2698              		.loc 2 98 11 view .LVU821
 2699 0bdc B0EE662A 		vmov.f32	s4, s13
 2700              	.LVL183:
  97:src/dsp.h     ****         x = x * 2.0f - 1.0f;           // back to -1..1
 2701              		.loc 2 97 25 view .LVU822
 2702 0be0 F0EEE55A 		vabs.f32	s11, s11
  97:src/dsp.h     ****         x = x * 2.0f - 1.0f;           // back to -1..1
 2703              		.loc 2 97 11 view .LVU823
 2704 0be4 74EE655A 		vsub.f32	s11, s8, s11
 2705              	.LVL184:
  98:src/dsp.h     ****     }
 2706              		.loc 2 98 9 is_stmt 1 view .LVU824
  98:src/dsp.h     ****     }
 2707              		.loc 2 98 11 is_stmt 0 view .LVU825
 2708 0be8 A5EEA42A 		vfma.f32	s4, s11, s9
 2709              	.LVL185:
  94:src/dsp.h     ****         x = x * 0.5f + 0.5f;           // shift to 0..1
 2710              		.loc 2 94 5 is_stmt 1 view .LVU826
  94:src/dsp.h     ****         x = x * 0.5f + 0.5f;           // shift to 0..1
 2711              		.loc 2 94 28 view .LVU827
  95:src/dsp.h     ****         x = x - floorf(x);              // wrap to 0..1
 2712              		.loc 2 95 9 view .LVU828
  95:src/dsp.h     ****         x = x - floorf(x);              // wrap to 0..1
 2713              		.loc 2 95 11 is_stmt 0 view .LVU829
 2714 0bec A2EE077A 		vfma.f32	s14, s4, s14
 2715              	.LVL186:
  96:src/dsp.h     ****         x = 1.0f - fabsf(2.0f*x - 1.0f); // triangle fold
 2716              		.loc 2 96 9 is_stmt 1 view .LVU830
  96:src/dsp.h     ****         x = 1.0f - fabsf(2.0f*x - 1.0f); // triangle fold
 2717              		.loc 2 96 23 is_stmt 0 view .LVU831
 2718 0bf0 FBFE475A 		vrintm.f32	s11, s14
 2719              	.LVL187:
  97:src/dsp.h     ****         x = x * 2.0f - 1.0f;           // back to -1..1
 2720              		.loc 2 97 9 is_stmt 1 view .LVU832
  96:src/dsp.h     ****         x = 1.0f - fabsf(2.0f*x - 1.0f); // triangle fold
 2721              		.loc 2 96 11 is_stmt 0 view .LVU833
 2722 0bf4 37EE657A 		vsub.f32	s14, s14, s11
 2723              	.LVL188:
ARM GAS  /tmp/claude-502/ccjNbcJ1.s 			page 67


  97:src/dsp.h     ****         x = x * 2.0f - 1.0f;           // back to -1..1
 2724              		.loc 2 97 33 view .LVU834
 2725 0bf8 F0EE665A 		vmov.f32	s11, s13
 2726 0bfc E7EE245A 		vfma.f32	s11, s14, s9
  97:src/dsp.h     ****         x = x * 2.0f - 1.0f;           // back to -1..1
 2727              		.loc 2 97 25 view .LVU835
 2728 0c00 F0EEE55A 		vabs.f32	s11, s11
  97:src/dsp.h     ****         x = x * 2.0f - 1.0f;           // back to -1..1
 2729              		.loc 2 97 11 view .LVU836
 2730 0c04 74EE655A 		vsub.f32	s11, s8, s11
 2731              	.LVL189:
  98:src/dsp.h     ****     }
 2732              		.loc 2 98 9 is_stmt 1 view .LVU837
  98:src/dsp.h     ****     }
 2733              		.loc 2 98 11 is_stmt 0 view .LVU838
 2734 0c08 E5EEA46A 		vfma.f32	s13, s11, s9
 2735              	.LVL190:
  94:src/dsp.h     ****         x = x * 0.5f + 0.5f;           // shift to 0..1
 2736              		.loc 2 94 5 is_stmt 1 view .LVU839
  94:src/dsp.h     ****         x = x * 0.5f + 0.5f;           // shift to 0..1
 2737              		.loc 2 94 28 view .LVU840
 2738              	.LBE863:
 2739              		.loc 2 101 5 view .LVU841
 2740              		.loc 2 101 32 is_stmt 0 view .LVU842
 2741 0c0c 63EE266A 		vmul.f32	s13, s6, s13
 2742              	.LVL191:
 2743              		.loc 2 101 33 view .LVU843
 2744 0c10 E3EE856A 		vfma.f32	s13, s7, s10
 2745 0c14 B0EE665A 		vmov.f32	s10, s13
 2746              	.LVL192:
 2747              	.L161:
 2748              		.loc 2 101 33 view .LVU844
 2749              	.LBE864:
 2750              	.LBE866:
 356:src/engine.cpp **** 
 357:src/engine.cpp ****         // Soft clip output
 358:src/engine.cpp ****         float sample = fast_tanh(crushed * 1.3f) * s_amp * s_master_vol;
 2751              		.loc 1 358 9 is_stmt 1 view .LVU845
 2752              		.loc 1 358 33 is_stmt 0 view .LVU846
 2753 0c18 9FED167A 		vldr.32	s14, .L447+16
 2754 0c1c 25EE075A 		vmul.f32	s10, s10, s14
 2755              	.LVL193:
 2756              	.LBB867:
 2757              	.LBI867:
  23:src/dsp.h     **** {
 2758              		.loc 2 23 21 is_stmt 1 view .LVU847
 2759              	.LBB868:
  25:src/dsp.h     ****     if(x<-3.0f)return -1.0f;
 2760              		.loc 2 25 5 view .LVU848
 2761 0c20 B0EE087A 		vmov.f32	s14, #3.0e+0
 2762 0c24 B4EEC75A 		vcmpe.f32	s10, s14
 2763 0c28 F1EE10FA 		vmrs	APSR_nzcv, FPSCR
 2764 0c2c 26DC     		bgt	.L162
  26:src/dsp.h     ****     float x2=x*x;
 2765              		.loc 2 26 5 view .LVU849
 2766 0c2e B8EE087A 		vmov.f32	s14, #-3.0e+0
 2767 0c32 B4EEC75A 		vcmpe.f32	s10, s14
ARM GAS  /tmp/claude-502/ccjNbcJ1.s 			page 68


 2768 0c36 F1EE10FA 		vmrs	APSR_nzcv, FPSCR
 2769 0c3a 00F18E83 		bmi	.L426
 2770              	.LVL194:
 2771              	.LBB869:
 2772              	.LBI869:
  23:src/dsp.h     **** {
 2773              		.loc 2 23 21 view .LVU850
 2774              	.LBB870:
  27:src/dsp.h     ****     return x*(27.0f+x2)/(27.0f+9.0f*x2);
 2775              		.loc 2 27 5 view .LVU851
  28:src/dsp.h     **** }
 2776              		.loc 2 28 20 is_stmt 0 view .LVU852
 2777 0c3e F3EE0B6A 		vmov.f32	s13, #2.7e+1
  27:src/dsp.h     ****     return x*(27.0f+x2)/(27.0f+9.0f*x2);
 2778              		.loc 2 27 11 view .LVU853
 2779 0c42 25EE057A 		vmul.f32	s14, s10, s10
 2780              	.LVL195:
  28:src/dsp.h     **** }
 2781              		.loc 2 28 5 is_stmt 1 view .LVU854
  28:src/dsp.h     **** }
 2782              		.loc 2 28 31 is_stmt 0 view .LVU855
 2783 0c46 F2EE024A 		vmov.f32	s9, #9.0e+0
 2784 0c4a F0EE665A 		vmov.f32	s11, s13
 2785 0c4e E7EE245A 		vfma.f32	s11, s14, s9
 2786              	.LVL196:
  28:src/dsp.h     **** }
 2787              		.loc 2 28 20 view .LVU856
 2788 0c52 37EE267A 		vadd.f32	s14, s14, s13
  28:src/dsp.h     **** }
 2789              		.loc 2 28 13 view .LVU857
 2790 0c56 27EE055A 		vmul.f32	s10, s14, s10
 2791              	.LVL197:
  28:src/dsp.h     **** }
 2792              		.loc 2 28 39 view .LVU858
 2793 0c5a 85EE257A 		vdiv.f32	s14, s10, s11
 2794              	.LBE870:
 2795              	.LBE869:
 2796              	.LBE868:
 2797              	.LBE867:
 2798              		.loc 1 358 50 view .LVU859
 2799 0c5e 26EE076A 		vmul.f32	s12, s12, s14
 2800 0c62 0BE0     		b	.L448
 2801              	.L449:
 2802              		.align	2
 2803              	.L447:
 2804 0c64 00000000 		.word	.LANCHOR46
 2805 0c68 00409C46 		.word	1184645120
 2806 0c6c 48E17A3F 		.word	1065017672
 2807 0c70 0AD7233C 		.word	1008981770
 2808 0c74 6666A63F 		.word	1067869798
 2809 0c78 00007043 		.word	1131413504
 2810              	.L448:
 2811              	.L162:
 2812              	.LBB871:
 359:src/engine.cpp **** 
 360:src/engine.cpp ****         // Drums MultiVoice: replace the (silent) mono output with the summed
 361:src/engine.cpp ****         // polyphonic drum voices, soft-clipped, at master volume.
ARM GAS  /tmp/claude-502/ccjNbcJ1.s 			page 69


 362:src/engine.cpp ****         if(poly_drums){
 2813              		.loc 1 362 9 view .LVU860
 2814 0c7c 0E9B     		ldr	r3, [sp, #56]
 2815              	.LBE871:
 358:src/engine.cpp **** 
 2816              		.loc 1 358 60 view .LVU861
 2817 0c7e 29EE066A 		vmul.f32	s12, s18, s12
 2818              	.LVL198:
 2819              		.loc 1 362 9 is_stmt 1 view .LVU862
 2820              	.LBB1036:
 2821 0c82 0E2B     		cmp	r3, #14
 2822 0c84 00F07183 		beq	.L427
 2823              	.LVL199:
 2824              	.L165:
 2825              		.loc 1 362 9 is_stmt 0 view .LVU863
 2826              	.LBE1036:
 363:src/engine.cpp ****             float m = 0.0f;
 364:src/engine.cpp ****             for(int k = 0; k < POLY; k++) m += drum_render(g_hits[k], sr);
 365:src/engine.cpp ****             sample = fast_tanh(m) * s_master_vol;
 366:src/engine.cpp ****         }
 367:src/engine.cpp **** 
 368:src/engine.cpp ****         out[0][i] = sample;
 2827              		.loc 1 368 9 is_stmt 1 view .LVU864
 369:src/engine.cpp ****         out[1][i] = sample;
 370:src/engine.cpp **** 
 371:src/engine.cpp ****         // Advance phases
 372:src/engine.cpp ****         s_phase1   += freq_vib*VOICE.osc1_ratio/sr;  if(s_phase1  >=1.0f)s_phase1  -=1.0f;
 2828              		.loc 1 372 31 is_stmt 0 view .LVU865
 2829 0c88 9DED057A 		vldr.32	s14, [sp, #20]
 368:src/engine.cpp ****         out[1][i] = sample;
 2830              		.loc 1 368 19 view .LVU866
 2831 0c8c DBF80030 		ldr	r3, [fp]
 2832              		.loc 1 372 31 view .LVU867
 2833 0c90 67EE877A 		vmul.f32	s15, s15, s14
 2834              	.LVL200:
 373:src/engine.cpp ****         s_phase2   += freq2   /sr;  if(s_phase2  >=1.0f)s_phase2  -=1.0f;
 374:src/engine.cpp ****         s_phase_sub+= freq_sub/sr;  if(s_phase_sub>=1.0f)s_phase_sub-=1.0f;
 375:src/engine.cpp ****         s_phase_oct+= freq_oct/sr;  if(s_phase_oct>=1.0f)s_phase_oct-=1.0f;
 376:src/engine.cpp ****         s_phase_rm += freq_rm /sr;  if(s_phase_rm >=1.0f)s_phase_rm -=1.0f;
 377:src/engine.cpp **** 
 378:src/engine.cpp ****         // LED3 PWM tick. Smooth duty, recompute threshold, compare counter.
 379:src/engine.cpp ****         led3_duty_smooth += (duty_target - led3_duty_smooth) * DUTY_TC;
 2835              		.loc 1 379 42 view .LVU868
 2836 0c94 DDED0F5A 		vldr.32	s11, [sp, #60]
 368:src/engine.cpp ****         out[1][i] = sample;
 2837              		.loc 1 368 19 view .LVU869
 2838 0c98 03EB8803 		add	r3, r3, r8, lsl #2
 380:src/engine.cpp ****         uint32_t threshold = (uint32_t)(led3_duty_smooth * (float)PWM_LEVELS + 0.5f);
 2839              		.loc 1 380 78 view .LVU870
 2840 0c9c 5FED0A6A 		vldr.32	s13, .L447+20
 372:src/engine.cpp ****         s_phase2   += freq2   /sr;  if(s_phase2  >=1.0f)s_phase2  -=1.0f;
 2841              		.loc 1 372 48 view .LVU871
 2842 0ca0 87EE887A 		vdiv.f32	s14, s15, s16
 373:src/engine.cpp ****         s_phase2   += freq2   /sr;  if(s_phase2  >=1.0f)s_phase2  -=1.0f;
 2843              		.loc 1 373 31 view .LVU872
 2844 0ca4 DDED0B7A 		vldr.32	s15, [sp, #44]
 368:src/engine.cpp ****         out[1][i] = sample;
ARM GAS  /tmp/claude-502/ccjNbcJ1.s 			page 70


 2845              		.loc 1 368 19 view .LVU873
 2846 0ca8 83ED006A 		vstr.32	s12, [r3]
 2847              	.LVL201:
 369:src/engine.cpp **** 
 2848              		.loc 1 369 9 is_stmt 1 view .LVU874
 369:src/engine.cpp **** 
 2849              		.loc 1 369 19 is_stmt 0 view .LVU875
 2850 0cac DBF80430 		ldr	r3, [fp, #4]
 2851 0cb0 03EB8803 		add	r3, r3, r8, lsl #2
 373:src/engine.cpp ****         s_phase_sub+= freq_sub/sr;  if(s_phase_sub>=1.0f)s_phase_sub-=1.0f;
 2852              		.loc 1 373 31 view .LVU876
 2853 0cb4 C7EE887A 		vdiv.f32	s15, s15, s16
 369:src/engine.cpp **** 
 2854              		.loc 1 369 19 view .LVU877
 2855 0cb8 83ED006A 		vstr.32	s12, [r3]
 372:src/engine.cpp ****         s_phase2   += freq2   /sr;  if(s_phase2  >=1.0f)s_phase2  -=1.0f;
 2856              		.loc 1 372 9 is_stmt 1 view .LVU878
 372:src/engine.cpp ****         s_phase2   += freq2   /sr;  if(s_phase2  >=1.0f)s_phase2  -=1.0f;
 2857              		.loc 1 372 54 view .LVU879
 372:src/engine.cpp ****         s_phase2   += freq2   /sr;  if(s_phase2  >=1.0f)s_phase2  -=1.0f;
 2858              		.loc 1 372 84 is_stmt 0 view .LVU880
 2859 0cbc E04B     		ldr	r3, .L450
 379:src/engine.cpp ****         uint32_t threshold = (uint32_t)(led3_duty_smooth * (float)PWM_LEVELS + 0.5f);
 2860              		.loc 1 379 26 view .LVU881
 2861 0cbe 9FEDE16A 		vldr.32	s12, .L450+4
 2862              	.LVL202:
 372:src/engine.cpp ****         s_phase2   += freq2   /sr;  if(s_phase2  >=1.0f)s_phase2  -=1.0f;
 2863              		.loc 1 372 20 view .LVU882
 2864 0cc2 37EE007A 		vadd.f32	s14, s14, s0
 372:src/engine.cpp ****         s_phase2   += freq2   /sr;  if(s_phase2  >=1.0f)s_phase2  -=1.0f;
 2865              		.loc 1 372 54 view .LVU883
 2866 0cc6 B7EE000A 		vmov.f32	s0, #1.0e+0
 2867 0cca B4EEC07A 		vcmpe.f32	s14, s0
 373:src/engine.cpp ****         s_phase_sub+= freq_sub/sr;  if(s_phase_sub>=1.0f)s_phase_sub-=1.0f;
 2868              		.loc 1 373 20 view .LVU884
 2869 0cce 77EEA07A 		vadd.f32	s15, s15, s1
 373:src/engine.cpp ****         s_phase_sub+= freq_sub/sr;  if(s_phase_sub>=1.0f)s_phase_sub-=1.0f;
 2870              		.loc 1 373 37 view .LVU885
 2871 0cd2 F7EE000A 		vmov.f32	s1, #1.0e+0
 372:src/engine.cpp ****         s_phase2   += freq2   /sr;  if(s_phase2  >=1.0f)s_phase2  -=1.0f;
 2872              		.loc 1 372 54 view .LVU886
 2873 0cd6 F1EE10FA 		vmrs	APSR_nzcv, FPSCR
 372:src/engine.cpp ****         s_phase2   += freq2   /sr;  if(s_phase2  >=1.0f)s_phase2  -=1.0f;
 2874              		.loc 1 372 74 is_stmt 1 view .LVU887
 373:src/engine.cpp ****         s_phase_sub+= freq_sub/sr;  if(s_phase_sub>=1.0f)s_phase_sub-=1.0f;
 2875              		.loc 1 373 37 is_stmt 0 view .LVU888
 2876 0cda F4EEE07A 		vcmpe.f32	s15, s1
 372:src/engine.cpp ****         s_phase2   += freq2   /sr;  if(s_phase2  >=1.0f)s_phase2  -=1.0f;
 2877              		.loc 1 372 84 view .LVU889
 2878 0cde A8BF     		it	ge
 2879 0ce0 37EE407A 		vsubge.f32	s14, s14, s0
 373:src/engine.cpp ****         s_phase_sub+= freq_sub/sr;  if(s_phase_sub>=1.0f)s_phase_sub-=1.0f;
 2880              		.loc 1 373 37 view .LVU890
 2881 0ce4 F1EE10FA 		vmrs	APSR_nzcv, FPSCR
 372:src/engine.cpp ****         s_phase2   += freq2   /sr;  if(s_phase2  >=1.0f)s_phase2  -=1.0f;
 2882              		.loc 1 372 84 view .LVU891
 2883 0ce8 83ED007A 		vstr.32	s14, [r3]
ARM GAS  /tmp/claude-502/ccjNbcJ1.s 			page 71


 373:src/engine.cpp ****         s_phase_sub+= freq_sub/sr;  if(s_phase_sub>=1.0f)s_phase_sub-=1.0f;
 2884              		.loc 1 373 9 is_stmt 1 view .LVU892
 373:src/engine.cpp ****         s_phase_sub+= freq_sub/sr;  if(s_phase_sub>=1.0f)s_phase_sub-=1.0f;
 2885              		.loc 1 373 37 view .LVU893
 373:src/engine.cpp ****         s_phase_sub+= freq_sub/sr;  if(s_phase_sub>=1.0f)s_phase_sub-=1.0f;
 2886              		.loc 1 373 57 view .LVU894
 374:src/engine.cpp ****         s_phase_oct+= freq_oct/sr;  if(s_phase_oct>=1.0f)s_phase_oct-=1.0f;
 2887              		.loc 1 374 37 is_stmt 0 view .LVU895
 2888 0cec B7EE007A 		vmov.f32	s14, #1.0e+0
 373:src/engine.cpp ****         s_phase_sub+= freq_sub/sr;  if(s_phase_sub>=1.0f)s_phase_sub-=1.0f;
 2889              		.loc 1 373 67 view .LVU896
 2890 0cf0 D54B     		ldr	r3, .L450+8
 2891 0cf2 A8BF     		it	ge
 2892 0cf4 77EEE07A 		vsubge.f32	s15, s15, s1
 2893 0cf8 C3ED007A 		vstr.32	s15, [r3]
 374:src/engine.cpp ****         s_phase_oct+= freq_oct/sr;  if(s_phase_oct>=1.0f)s_phase_oct-=1.0f;
 2894              		.loc 1 374 9 is_stmt 1 view .LVU897
 374:src/engine.cpp ****         s_phase_oct+= freq_oct/sr;  if(s_phase_oct>=1.0f)s_phase_oct-=1.0f;
 2895              		.loc 1 374 31 is_stmt 0 view .LVU898
 2896 0cfc DDED087A 		vldr.32	s15, [sp, #32]
 374:src/engine.cpp ****         s_phase_oct+= freq_oct/sr;  if(s_phase_oct>=1.0f)s_phase_oct-=1.0f;
 2897              		.loc 1 374 69 view .LVU899
 2898 0d00 D24B     		ldr	r3, .L450+12
 374:src/engine.cpp ****         s_phase_oct+= freq_oct/sr;  if(s_phase_oct>=1.0f)s_phase_oct-=1.0f;
 2899              		.loc 1 374 31 view .LVU900
 2900 0d02 C7EE887A 		vdiv.f32	s15, s15, s16
 374:src/engine.cpp ****         s_phase_oct+= freq_oct/sr;  if(s_phase_oct>=1.0f)s_phase_oct-=1.0f;
 2901              		.loc 1 374 20 view .LVU901
 2902 0d06 37EE811A 		vadd.f32	s2, s15, s2
 374:src/engine.cpp ****         s_phase_oct+= freq_oct/sr;  if(s_phase_oct>=1.0f)s_phase_oct-=1.0f;
 2903              		.loc 1 374 37 is_stmt 1 view .LVU902
 375:src/engine.cpp ****         s_phase_rm += freq_rm /sr;  if(s_phase_rm >=1.0f)s_phase_rm -=1.0f;
 2904              		.loc 1 375 31 is_stmt 0 view .LVU903
 2905 0d0a DDED097A 		vldr.32	s15, [sp, #36]
 2906 0d0e C7EE887A 		vdiv.f32	s15, s15, s16
 374:src/engine.cpp ****         s_phase_oct+= freq_oct/sr;  if(s_phase_oct>=1.0f)s_phase_oct-=1.0f;
 2907              		.loc 1 374 37 view .LVU904
 2908 0d12 B4EEC71A 		vcmpe.f32	s2, s14
 2909 0d16 F1EE10FA 		vmrs	APSR_nzcv, FPSCR
 374:src/engine.cpp ****         s_phase_oct+= freq_oct/sr;  if(s_phase_oct>=1.0f)s_phase_oct-=1.0f;
 2910              		.loc 1 374 58 is_stmt 1 view .LVU905
 374:src/engine.cpp ****         s_phase_oct+= freq_oct/sr;  if(s_phase_oct>=1.0f)s_phase_oct-=1.0f;
 2911              		.loc 1 374 69 is_stmt 0 view .LVU906
 2912 0d1a A8BF     		it	ge
 2913 0d1c 31EE471A 		vsubge.f32	s2, s2, s14
 375:src/engine.cpp ****         s_phase_rm += freq_rm /sr;  if(s_phase_rm >=1.0f)s_phase_rm -=1.0f;
 2914              		.loc 1 375 37 view .LVU907
 2915 0d20 B7EE007A 		vmov.f32	s14, #1.0e+0
 374:src/engine.cpp ****         s_phase_oct+= freq_oct/sr;  if(s_phase_oct>=1.0f)s_phase_oct-=1.0f;
 2916              		.loc 1 374 69 view .LVU908
 2917 0d24 83ED001A 		vstr.32	s2, [r3]
 375:src/engine.cpp ****         s_phase_rm += freq_rm /sr;  if(s_phase_rm >=1.0f)s_phase_rm -=1.0f;
 2918              		.loc 1 375 9 is_stmt 1 view .LVU909
 375:src/engine.cpp ****         s_phase_rm += freq_rm /sr;  if(s_phase_rm >=1.0f)s_phase_rm -=1.0f;
 2919              		.loc 1 375 69 is_stmt 0 view .LVU910
 2920 0d28 C94B     		ldr	r3, .L450+16
 375:src/engine.cpp ****         s_phase_rm += freq_rm /sr;  if(s_phase_rm >=1.0f)s_phase_rm -=1.0f;
ARM GAS  /tmp/claude-502/ccjNbcJ1.s 			page 72


 2921              		.loc 1 375 20 view .LVU911
 2922 0d2a 77EEA11A 		vadd.f32	s3, s15, s3
 375:src/engine.cpp ****         s_phase_rm += freq_rm /sr;  if(s_phase_rm >=1.0f)s_phase_rm -=1.0f;
 2923              		.loc 1 375 37 is_stmt 1 view .LVU912
 376:src/engine.cpp **** 
 2924              		.loc 1 376 31 is_stmt 0 view .LVU913
 2925 0d2e DDED0A7A 		vldr.32	s15, [sp, #40]
 2926 0d32 C7EE887A 		vdiv.f32	s15, s15, s16
 375:src/engine.cpp ****         s_phase_rm += freq_rm /sr;  if(s_phase_rm >=1.0f)s_phase_rm -=1.0f;
 2927              		.loc 1 375 37 view .LVU914
 2928 0d36 F4EEC71A 		vcmpe.f32	s3, s14
 2929 0d3a F1EE10FA 		vmrs	APSR_nzcv, FPSCR
 375:src/engine.cpp ****         s_phase_rm += freq_rm /sr;  if(s_phase_rm >=1.0f)s_phase_rm -=1.0f;
 2930              		.loc 1 375 58 is_stmt 1 view .LVU915
 375:src/engine.cpp ****         s_phase_rm += freq_rm /sr;  if(s_phase_rm >=1.0f)s_phase_rm -=1.0f;
 2931              		.loc 1 375 69 is_stmt 0 view .LVU916
 2932 0d3e A8BF     		it	ge
 2933 0d40 71EEC71A 		vsubge.f32	s3, s3, s14
 376:src/engine.cpp **** 
 2934              		.loc 1 376 37 view .LVU917
 2935 0d44 B7EE007A 		vmov.f32	s14, #1.0e+0
 375:src/engine.cpp ****         s_phase_rm += freq_rm /sr;  if(s_phase_rm >=1.0f)s_phase_rm -=1.0f;
 2936              		.loc 1 375 69 view .LVU918
 2937 0d48 C3ED001A 		vstr.32	s3, [r3]
 376:src/engine.cpp **** 
 2938              		.loc 1 376 9 is_stmt 1 view .LVU919
 376:src/engine.cpp **** 
 2939              		.loc 1 376 69 is_stmt 0 view .LVU920
 2940 0d4c C14B     		ldr	r3, .L450+20
 376:src/engine.cpp **** 
 2941              		.loc 1 376 20 view .LVU921
 2942 0d4e 77EEA22A 		vadd.f32	s5, s15, s5
 376:src/engine.cpp **** 
 2943              		.loc 1 376 37 is_stmt 1 view .LVU922
 2944              		.loc 1 380 78 is_stmt 0 view .LVU923
 2945 0d52 F6EE007A 		vmov.f32	s15, #5.0e-1
 376:src/engine.cpp **** 
 2946              		.loc 1 376 37 view .LVU924
 2947 0d56 F4EEC72A 		vcmpe.f32	s5, s14
 2948 0d5a F1EE10FA 		vmrs	APSR_nzcv, FPSCR
 376:src/engine.cpp **** 
 2949              		.loc 1 376 58 is_stmt 1 view .LVU925
 376:src/engine.cpp **** 
 2950              		.loc 1 376 69 is_stmt 0 view .LVU926
 2951 0d5e A8BF     		it	ge
 2952 0d60 72EEC72A 		vsubge.f32	s5, s5, s14
 2953 0d64 C3ED002A 		vstr.32	s5, [r3]
 379:src/engine.cpp ****         uint32_t threshold = (uint32_t)(led3_duty_smooth * (float)PWM_LEVELS + 0.5f);
 2954              		.loc 1 379 9 is_stmt 1 view .LVU927
 379:src/engine.cpp ****         uint32_t threshold = (uint32_t)(led3_duty_smooth * (float)PWM_LEVELS + 0.5f);
 2955              		.loc 1 379 42 is_stmt 0 view .LVU928
 2956 0d68 BB4B     		ldr	r3, .L450+24
 2957 0d6a 93ED007A 		vldr.32	s14, [r3]
 2958 0d6e 75EEC75A 		vsub.f32	s11, s11, s14
 379:src/engine.cpp ****         uint32_t threshold = (uint32_t)(led3_duty_smooth * (float)PWM_LEVELS + 0.5f);
 2959              		.loc 1 379 26 view .LVU929
 2960 0d72 A5EE867A 		vfma.f32	s14, s11, s12
ARM GAS  /tmp/claude-502/ccjNbcJ1.s 			page 73


 2961              		.loc 1 380 78 view .LVU930
 2962 0d76 E7EE267A 		vfma.f32	s15, s14, s13
 379:src/engine.cpp ****         uint32_t threshold = (uint32_t)(led3_duty_smooth * (float)PWM_LEVELS + 0.5f);
 2963              		.loc 1 379 26 view .LVU931
 2964 0d7a 83ED007A 		vstr.32	s14, [r3]
 2965              		.loc 1 380 9 is_stmt 1 view .LVU932
 381:src/engine.cpp ****         if(threshold > PWM_LEVELS) threshold = PWM_LEVELS;
 382:src/engine.cpp ****         if(++pwm_counter >= PWM_LEVELS) pwm_counter = 0;
 2966              		.loc 1 382 12 is_stmt 0 view .LVU933
 2967 0d7e B74B     		ldr	r3, .L450+28
 2968 0d80 1968     		ldr	r1, [r3]
 2969 0d82 0131     		adds	r1, r1, #1
 380:src/engine.cpp ****         if(threshold > PWM_LEVELS) threshold = PWM_LEVELS;
 2970              		.loc 1 380 18 view .LVU934
 2971 0d84 FCEEE77A 		vcvt.u32.f32	s15, s15
 2972 0d88 17EE90AA 		vmov	r10, s15	@ int
 2973              	.LVL203:
 381:src/engine.cpp ****         if(threshold > PWM_LEVELS) threshold = PWM_LEVELS;
 2974              		.loc 1 381 9 is_stmt 1 view .LVU935
 2975 0d8c BAF1F00F 		cmp	r10, #240
 2976 0d90 28BF     		it	cs
 2977 0d92 4FF0F00A 		movcs	r10, #240
 2978              	.LVL204:
 2979              		.loc 1 382 9 view .LVU936
 2980 0d96 EF29     		cmp	r1, #239
 2981              		.loc 1 382 41 view .LVU937
 383:src/engine.cpp ****         bool desired = (pwm_counter < threshold);
 2982              		.loc 1 383 9 view .LVU938
 382:src/engine.cpp ****         bool desired = (pwm_counter < threshold);
 2983              		.loc 1 382 53 is_stmt 0 view .LVU939
 2984 0d98 84BF     		itt	hi
 2985 0d9a B04B     		ldrhi	r3, .L450+28
 2986 0d9c 0021     		movhi	r1, #0
 2987              		.loc 1 383 14 view .LVU940
 2988 0d9e 8A45     		cmp	r10, r1
 382:src/engine.cpp ****         bool desired = (pwm_counter < threshold);
 2989              		.loc 1 382 53 view .LVU941
 2990 0da0 1960     		str	r1, [r3]
 384:src/engine.cpp ****         if(desired != led3_state){ led3.Write(desired); led3_state = desired; }
 2991              		.loc 1 384 9 view .LVU942
 2992 0da2 AF4B     		ldr	r3, .L450+32
 383:src/engine.cpp ****         bool desired = (pwm_counter < threshold);
 2993              		.loc 1 383 14 view .LVU943
 2994 0da4 94BF     		ite	ls
 2995 0da6 4FF0000A 		movls	r10, #0
 2996              	.LVL205:
 383:src/engine.cpp ****         bool desired = (pwm_counter < threshold);
 2997              		.loc 1 383 14 view .LVU944
 2998 0daa 4FF0010A 		movhi	r10, #1
 2999              	.LVL206:
 3000              		.loc 1 384 9 is_stmt 1 view .LVU945
 3001 0dae 1B78     		ldrb	r3, [r3]	@ zero_extendqisi2
 3002 0db0 5345     		cmp	r3, r10
 3003 0db2 06D0     		beq	.L244
 3004              		.loc 1 384 36 discriminator 1 view .LVU946
 3005              		.loc 1 384 46 is_stmt 0 discriminator 1 view .LVU947
 3006 0db4 5146     		mov	r1, r10
ARM GAS  /tmp/claude-502/ccjNbcJ1.s 			page 74


 3007 0db6 AB48     		ldr	r0, .L450+36
 3008 0db8 FFF7FEFF 		bl	_ZN5daisy4GPIO5WriteEb
 3009              	.LVL207:
 3010              		.loc 1 384 57 is_stmt 1 discriminator 1 view .LVU948
 3011              		.loc 1 384 68 is_stmt 0 discriminator 1 view .LVU949
 3012 0dbc A84B     		ldr	r3, .L450+32
 3013 0dbe 83F800A0 		strb	r10, [r3]
 3014              	.L244:
 3015              		.loc 1 384 68 discriminator 1 view .LVU950
 3016              	.LBE1140:
 220:src/engine.cpp ****     {
 3017              		.loc 1 220 5 is_stmt 1 discriminator 2 view .LVU951
 3018 0dc2 08F10108 		add	r8, r8, #1
 3019              	.LVL208:
 220:src/engine.cpp ****     {
 3020              		.loc 1 220 21 discriminator 2 view .LVU952
 3021 0dc6 0C9B     		ldr	r3, [sp, #48]
 3022 0dc8 4345     		cmp	r3, r8
 3023 0dca 00F0E784 		beq	.L15
 3024              	.LVL209:
 3025              	.L246:
 3026              	.LBB1141:
 223:src/engine.cpp ****         // Cutoff: fast when opening (smoothed), slow when closing (with release)
 3027              		.loc 1 223 9 view .LVU953
 223:src/engine.cpp ****         // Cutoff: fast when opening (smoothed), slow when closing (with release)
 3028              		.loc 1 223 30 is_stmt 0 view .LVU954
 3029 0dce 1C9B     		ldr	r3, [sp, #112]
 223:src/engine.cpp ****         // Cutoff: fast when opening (smoothed), slow when closing (with release)
 3030              		.loc 1 223 54 view .LVU955
 3031 0dd0 F7EE005A 		vmov.f32	s11, #1.0e+0
 223:src/engine.cpp ****         // Cutoff: fast when opening (smoothed), slow when closing (with release)
 3032              		.loc 1 223 48 view .LVU956
 3033 0dd4 9DED0D6A 		vldr.32	s12, [sp, #52]
 223:src/engine.cpp ****         // Cutoff: fast when opening (smoothed), slow when closing (with release)
 3034              		.loc 1 223 30 view .LVU957
 3035 0dd8 D3ED007A 		vldr.32	s15, [r3]
 3036              	.LBB1037:
 225:src/engine.cpp ****           s_cutoff = s_cutoff * sc + tcut * (1.0f - sc); }
 3037              		.loc 1 225 28 view .LVU958
 3038 0ddc 039A     		ldr	r2, [sp, #12]
 3039              	.LBE1037:
 223:src/engine.cpp ****         // Cutoff: fast when opening (smoothed), slow when closing (with release)
 3040              		.loc 1 223 54 view .LVU959
 3041 0dde 35EEE77A 		vsub.f32	s14, s11, s15
 223:src/engine.cpp ****         // Cutoff: fast when opening (smoothed), slow when closing (with release)
 3042              		.loc 1 223 41 view .LVU960
 3043 0de2 209B     		ldr	r3, [sp, #128]
 3044              	.LBB1038:
 225:src/engine.cpp ****           s_cutoff = s_cutoff * sc + tcut * (1.0f - sc); }
 3045              		.loc 1 225 28 view .LVU961
 3046 0de4 92ED005A 		vldr.32	s10, [r2]
 3047              	.LBE1038:
 223:src/engine.cpp ****         // Cutoff: fast when opening (smoothed), slow when closing (with release)
 3048              		.loc 1 223 41 view .LVU962
 3049 0de8 D3ED006A 		vldr.32	s13, [r3]
 223:src/engine.cpp ****         // Cutoff: fast when opening (smoothed), slow when closing (with release)
 3050              		.loc 1 223 48 view .LVU963
ARM GAS  /tmp/claude-502/ccjNbcJ1.s 			page 75


 3051 0dec 27EE067A 		vmul.f32	s14, s14, s12
 3052              	.LBB1039:
 225:src/engine.cpp ****           s_cutoff = s_cutoff * sc + tcut * (1.0f - sc); }
 3053              		.loc 1 225 40 view .LVU964
 3054 0df0 B4EEEB5A 		vcmpe.f32	s10, s23
 3055              	.LBE1039:
 223:src/engine.cpp ****         // Cutoff: fast when opening (smoothed), slow when closing (with release)
 3056              		.loc 1 223 41 view .LVU965
 3057 0df4 A6EEA77A 		vfma.f32	s14, s13, s15
 3058              	.LBB1040:
 225:src/engine.cpp ****           s_cutoff = s_cutoff * sc + tcut * (1.0f - sc); }
 3059              		.loc 1 225 40 view .LVU966
 3060 0df8 F1EE10FA 		vmrs	APSR_nzcv, FPSCR
 3061              	.LBE1040:
 223:src/engine.cpp ****         // Cutoff: fast when opening (smoothed), slow when closing (with release)
 3062              		.loc 1 223 19 view .LVU967
 3063 0dfc 83ED007A 		vstr.32	s14, [r3]
 225:src/engine.cpp ****           s_cutoff = s_cutoff * sc + tcut * (1.0f - sc); }
 3064              		.loc 1 225 9 is_stmt 1 view .LVU968
 3065              	.LBB1041:
 225:src/engine.cpp ****           s_cutoff = s_cutoff * sc + tcut * (1.0f - sc); }
 3066              		.loc 1 225 11 view .LVU969
 225:src/engine.cpp ****           s_cutoff = s_cutoff * sc + tcut * (1.0f - sc); }
 3067              		.loc 1 225 40 is_stmt 0 view .LVU970
 3068 0e00 00F1DB80 		bmi	.L257
 225:src/engine.cpp ****           s_cutoff = s_cutoff * sc + tcut * (1.0f - sc); }
 3069              		.loc 1 225 40 discriminator 2 view .LVU971
 3070 0e04 984B     		ldr	r3, .L450+40
 3071 0e06 93ED004A 		vldr.32	s8, [r3]
 226:src/engine.cpp ****         s_drive   = s_drive   * SLEW_MISC + tdrv * (1.0f - SLEW_MISC);
 3072              		.loc 1 226 51 discriminator 2 view .LVU972
 3073 0e0a 75EEC45A 		vsub.f32	s11, s11, s8
 3074              	.L36:
 3075              	.LVL210:
 226:src/engine.cpp ****         s_drive   = s_drive   * SLEW_MISC + tdrv * (1.0f - SLEW_MISC);
 3076              		.loc 1 226 11 is_stmt 1 discriminator 4 view .LVU973
 226:src/engine.cpp ****         s_drive   = s_drive   * SLEW_MISC + tdrv * (1.0f - SLEW_MISC);
 3077              		.loc 1 226 43 is_stmt 0 discriminator 4 view .LVU974
 3078 0e0e 6BEEA55A 		vmul.f32	s11, s23, s11
 3079              	.LBE1041:
 227:src/engine.cpp ****         s_vibdepth= s_vibdepth* SLEW_MISC + tvib * (1.0f - SLEW_MISC);
 3080              		.loc 1 227 43 discriminator 4 view .LVU975
 3081 0e12 219A     		ldr	r2, [sp, #132]
 3082              	.LBB1042:
 230:src/engine.cpp ****           s_detune   = s_detune   * sa + tdet * (1.0f - sa); }
 3083              		.loc 1 230 31 discriminator 4 view .LVU976
 3084 0e14 229B     		ldr	r3, [sp, #136]
 3085              	.LBE1042:
 227:src/engine.cpp ****         s_vibdepth= s_vibdepth* SLEW_MISC + tvib * (1.0f - SLEW_MISC);
 3086              		.loc 1 227 43 discriminator 4 view .LVU977
 3087 0e16 D2ED007A 		vldr.32	s15, [r2]
 3088              	.LBB1043:
 226:src/engine.cpp ****         s_drive   = s_drive   * SLEW_MISC + tdrv * (1.0f - SLEW_MISC);
 3089              		.loc 1 226 36 discriminator 4 view .LVU978
 3090 0e1a E5EE045A 		vfma.f32	s11, s10, s8
 3091              	.LBE1043:
 227:src/engine.cpp ****         s_vibdepth= s_vibdepth* SLEW_MISC + tvib * (1.0f - SLEW_MISC);
ARM GAS  /tmp/claude-502/ccjNbcJ1.s 			page 76


 3092              		.loc 1 227 43 discriminator 4 view .LVU979
 3093 0e1e DDED109A 		vldr.32	s19, [sp, #64]
 3094 0e22 9FED924A 		vldr.32	s8, .L450+44
 3095              	.LVL211:
 3096              	.LBB1044:
 230:src/engine.cpp ****           s_detune   = s_detune   * sa + tdet * (1.0f - sa); }
 3097              		.loc 1 230 31 discriminator 4 view .LVU980
 3098 0e26 93ED006A 		vldr.32	s12, [r3]
 3099              	.LBE1044:
 227:src/engine.cpp ****         s_vibdepth= s_vibdepth* SLEW_MISC + tvib * (1.0f - SLEW_MISC);
 3100              		.loc 1 227 43 discriminator 4 view .LVU981
 3101 0e2a E7EE849A 		vfma.f32	s19, s15, s8
 3102              	.LBB1045:
 230:src/engine.cpp ****           s_detune   = s_detune   * sa + tdet * (1.0f - sa); }
 3103              		.loc 1 230 44 discriminator 4 view .LVU982
 3104 0e2e DFED904A 		vldr.32	s9, .L450+48
 3105 0e32 B4EECC6A 		vcmpe.f32	s12, s24
 3106 0e36 DFED8F6A 		vldr.32	s13, .L450+52
 3107              	.LBE1045:
 3108              	.LBB1046:
 226:src/engine.cpp ****         s_drive   = s_drive   * SLEW_MISC + tdrv * (1.0f - SLEW_MISC);
 3109              		.loc 1 226 20 discriminator 4 view .LVU983
 3110 0e3a 0399     		ldr	r1, [sp, #12]
 3111              	.LBE1046:
 3112              	.LBB1047:
 230:src/engine.cpp ****           s_detune   = s_detune   * sa + tdet * (1.0f - sa); }
 3113              		.loc 1 230 44 discriminator 4 view .LVU984
 3114 0e3c DFED8E7A 		vldr.32	s15, .L450+56
 3115 0e40 F1EE10FA 		vmrs	APSR_nzcv, FPSCR
 3116 0e44 9FED8D5A 		vldr.32	s10, .L450+60
 3117              	.LBE1047:
 3118              	.LBB1048:
 226:src/engine.cpp ****         s_drive   = s_drive   * SLEW_MISC + tdrv * (1.0f - SLEW_MISC);
 3119              		.loc 1 226 20 discriminator 4 view .LVU985
 3120 0e48 C1ED005A 		vstr.32	s11, [r1]
 3121              	.LBE1048:
 227:src/engine.cpp ****         s_vibdepth= s_vibdepth* SLEW_MISC + tvib * (1.0f - SLEW_MISC);
 3122              		.loc 1 227 9 is_stmt 1 discriminator 4 view .LVU986
 227:src/engine.cpp ****         s_vibdepth= s_vibdepth* SLEW_MISC + tvib * (1.0f - SLEW_MISC);
 3123              		.loc 1 227 19 is_stmt 0 discriminator 4 view .LVU987
 3124 0e4c C2ED009A 		vstr.32	s19, [r2]
 228:src/engine.cpp ****         // Finger 2 params: fast attack, slow release
 3125              		.loc 1 228 9 is_stmt 1 discriminator 4 view .LVU988
 3126              	.LBB1049:
 232:src/engine.cpp ****           s_bitcrush = s_bitcrush * sa + tbc  * (1.0f - sa); }
 3127              		.loc 1 232 31 is_stmt 0 discriminator 4 view .LVU989
 3128 0e50 239A     		ldr	r2, [sp, #140]
 3129              	.LBE1049:
 3130              	.LBB1050:
 230:src/engine.cpp ****           s_detune   = s_detune   * sa + tdet * (1.0f - sa); }
 3131              		.loc 1 230 44 discriminator 4 view .LVU990
 3132 0e52 54BF     		ite	pl
 3133 0e54 F0EE661A 		vmovpl.f32	s3, s13
 3134 0e58 F0EE641A 		vmovmi.f32	s3, s9
 3135              	.LBE1050:
 3136              	.LBB1051:
 234:src/engine.cpp ****           s_ringmod  = s_ringmod  * sa + trm  * (1.0f - sa); }
ARM GAS  /tmp/claude-502/ccjNbcJ1.s 			page 77


 3137              		.loc 1 234 31 discriminator 4 view .LVU991
 3138 0e5c 2499     		ldr	r1, [sp, #144]
 3139              	.LBE1051:
 3140              	.LBB1052:
 230:src/engine.cpp ****           s_detune   = s_detune   * sa + tdet * (1.0f - sa); }
 3141              		.loc 1 230 44 discriminator 4 view .LVU992
 3142 0e5e 54BF     		ite	pl
 3143 0e60 F0EE453A 		vmovpl.f32	s7, s10
 3144 0e64 F0EE673A 		vmovmi.f32	s7, s15
 3145              	.LBE1052:
 3146              	.LBB1053:
 232:src/engine.cpp ****           s_bitcrush = s_bitcrush * sa + tbc  * (1.0f - sa); }
 3147              		.loc 1 232 31 discriminator 4 view .LVU993
 3148 0e68 92ED002A 		vldr.32	s4, [r2]
 3149              	.LBE1053:
 3150              	.LBB1054:
 234:src/engine.cpp ****           s_ringmod  = s_ringmod  * sa + trm  * (1.0f - sa); }
 3151              		.loc 1 234 31 discriminator 4 view .LVU994
 3152 0e6c D1ED002A 		vldr.32	s5, [r1]
 3153              	.LBE1054:
 3154              	.LBB1055:
 231:src/engine.cpp ****         { float sa = tbc      > s_bitcrush ? SLEW_F2_A : SLEW_F2_R;
 3155              		.loc 1 231 47 discriminator 4 view .LVU995
 3156 0e70 6CEE211A 		vmul.f32	s3, s24, s3
 3157              	.LBE1055:
 3158              	.LBB1056:
 232:src/engine.cpp ****           s_bitcrush = s_bitcrush * sa + tbc  * (1.0f - sa); }
 3159              		.loc 1 232 44 discriminator 4 view .LVU996
 3160 0e74 B4EEEC2A 		vcmpe.f32	s4, s25
 3161              	.LBE1056:
 3162              	.LBB1057:
 231:src/engine.cpp ****         { float sa = tbc      > s_bitcrush ? SLEW_F2_A : SLEW_F2_R;
 3163              		.loc 1 231 40 discriminator 4 view .LVU997
 3164 0e78 E6EE231A 		vfma.f32	s3, s12, s7
 3165              	.LBE1057:
 3166              	.LBB1058:
 232:src/engine.cpp ****           s_bitcrush = s_bitcrush * sa + tbc  * (1.0f - sa); }
 3167              		.loc 1 232 44 discriminator 4 view .LVU998
 3168 0e7c F1EE10FA 		vmrs	APSR_nzcv, FPSCR
 3169              	.LBE1058:
 3170              	.LBB1059:
 234:src/engine.cpp ****           s_ringmod  = s_ringmod  * sa + trm  * (1.0f - sa); }
 3171              		.loc 1 234 44 discriminator 4 view .LVU999
 3172 0e80 F4EEEF2A 		vcmpe.f32	s5, s31
 3173              	.LBE1059:
 239:src/engine.cpp ****         float eff_tamp = tamp * s_decay;
 3174              		.loc 1 239 59 discriminator 4 view .LVU1000
 3175 0e84 B7EE006A 		vmov.f32	s12, #1.0e+0
 3176              	.LBB1060:
 232:src/engine.cpp ****           s_bitcrush = s_bitcrush * sa + tbc  * (1.0f - sa); }
 3177              		.loc 1 232 44 discriminator 4 view .LVU1001
 3178 0e88 54BF     		ite	pl
 3179 0e8a B0EE663A 		vmovpl.f32	s6, s13
 3180 0e8e B0EE643A 		vmovmi.f32	s6, s9
 3181 0e92 54BF     		ite	pl
 3182 0e94 B0EE451A 		vmovpl.f32	s2, s10
 3183 0e98 B0EE671A 		vmovmi.f32	s2, s15
ARM GAS  /tmp/claude-502/ccjNbcJ1.s 			page 78


 3184              	.LBE1060:
 3185              	.LBB1061:
 234:src/engine.cpp ****           s_ringmod  = s_ringmod  * sa + trm  * (1.0f - sa); }
 3186              		.loc 1 234 44 discriminator 4 view .LVU1002
 3187 0e9c F1EE10FA 		vmrs	APSR_nzcv, FPSCR
 3188              	.LBE1061:
 3189              	.LBB1062:
 231:src/engine.cpp ****         { float sa = tbc      > s_bitcrush ? SLEW_F2_A : SLEW_F2_R;
 3190              		.loc 1 231 22 discriminator 4 view .LVU1003
 3191 0ea0 C3ED001A 		vstr.32	s3, [r3]
 3192              	.LBE1062:
 239:src/engine.cpp ****         float eff_tamp = tamp * s_decay;
 3193              		.loc 1 239 27 discriminator 4 view .LVU1004
 3194 0ea4 1E9B     		ldr	r3, [sp, #120]
 3195              	.LBB1063:
 233:src/engine.cpp ****         { float sa = trm      > s_ringmod  ? SLEW_F2_A : SLEW_F2_R;
 3196              		.loc 1 233 47 discriminator 4 view .LVU1005
 3197 0ea6 2CEE833A 		vmul.f32	s6, s25, s6
 3198              	.LBE1063:
 3199              	.LBB1064:
 234:src/engine.cpp ****           s_ringmod  = s_ringmod  * sa + trm  * (1.0f - sa); }
 3200              		.loc 1 234 44 discriminator 4 view .LVU1006
 3201 0eaa 48BF     		it	mi
 3202 0eac F0EE646A 		vmovmi.f32	s13, s9
 3203              	.LBE1064:
 239:src/engine.cpp ****         float eff_tamp = tamp * s_decay;
 3204              		.loc 1 239 27 discriminator 4 view .LVU1007
 3205 0eb0 D3ED003A 		vldr.32	s7, [r3]
 3206              	.LBB1065:
 234:src/engine.cpp ****           s_ringmod  = s_ringmod  * sa + trm  * (1.0f - sa); }
 3207              		.loc 1 234 44 discriminator 4 view .LVU1008
 3208 0eb4 58BF     		it	pl
 3209 0eb6 F0EE457A 		vmovpl.f32	s15, s10
 3210              	.LBE1065:
 239:src/engine.cpp ****         float eff_tamp = tamp * s_decay;
 3211              		.loc 1 239 51 discriminator 4 view .LVU1009
 3212 0eba 1F9B     		ldr	r3, [sp, #124]
 239:src/engine.cpp ****         float eff_tamp = tamp * s_decay;
 3213              		.loc 1 239 59 discriminator 4 view .LVU1010
 3214 0ebc 36EE636A 		vsub.f32	s12, s12, s7
 3215              	.LBB1066:
 235:src/engine.cpp ****         // Amp decay-to-sustain: s_decay rides 1 → sustain over decay_ms while the
 3216              		.loc 1 235 47 discriminator 4 view .LVU1011
 3217 0ec0 6FEEA66A 		vmul.f32	s13, s31, s13
 3218              	.LBE1066:
 3219              	.LBB1067:
 233:src/engine.cpp ****         { float sa = trm      > s_ringmod  ? SLEW_F2_A : SLEW_F2_R;
 3220              		.loc 1 233 40 discriminator 4 view .LVU1012
 3221 0ec4 A2EE013A 		vfma.f32	s6, s4, s2
 3222              	.LBE1067:
 228:src/engine.cpp ****         // Finger 2 params: fast attack, slow release
 3223              		.loc 1 228 43 discriminator 4 view .LVU1013
 3224 0ec8 9DED111A 		vldr.32	s2, [sp, #68]
 3225              	.LBB1068:
 235:src/engine.cpp ****         // Amp decay-to-sustain: s_decay rides 1 → sustain over decay_ms while the
 3226              		.loc 1 235 40 discriminator 4 view .LVU1014
 3227 0ecc E2EEA76A 		vfma.f32	s13, s5, s15
ARM GAS  /tmp/claude-502/ccjNbcJ1.s 			page 79


 3228              	.LBE1068:
 239:src/engine.cpp ****         float eff_tamp = tamp * s_decay;
 3229              		.loc 1 239 51 discriminator 4 view .LVU1015
 3230 0ed0 D3ED007A 		vldr.32	s15, [r3]
 228:src/engine.cpp ****         // Finger 2 params: fast attack, slow release
 3231              		.loc 1 228 43 discriminator 4 view .LVU1016
 3232 0ed4 6A4B     		ldr	r3, .L450+64
 239:src/engine.cpp ****         float eff_tamp = tamp * s_decay;
 3233              		.loc 1 239 51 discriminator 4 view .LVU1017
 3234 0ed6 26EE276A 		vmul.f32	s12, s12, s15
 239:src/engine.cpp ****         float eff_tamp = tamp * s_decay;
 3235              		.loc 1 239 39 discriminator 4 view .LVU1018
 3236 0eda D9ED007A 		vldr.32	s15, [r9]
 3237              	.LBB1069:
 233:src/engine.cpp ****         { float sa = trm      > s_ringmod  ? SLEW_F2_A : SLEW_F2_R;
 3238              		.loc 1 233 22 discriminator 4 view .LVU1019
 3239 0ede 82ED003A 		vstr.32	s6, [r2]
 3240              	.LBE1069:
 239:src/engine.cpp ****         float eff_tamp = tamp * s_decay;
 3241              		.loc 1 239 39 discriminator 4 view .LVU1020
 3242 0ee2 A7EEA36A 		vfma.f32	s12, s15, s7
 228:src/engine.cpp ****         // Finger 2 params: fast attack, slow release
 3243              		.loc 1 228 43 discriminator 4 view .LVU1021
 3244 0ee6 D3ED007A 		vldr.32	s15, [r3]
 3245              	.LBB1070:
 235:src/engine.cpp ****         // Amp decay-to-sustain: s_decay rides 1 → sustain over decay_ms while the
 3246              		.loc 1 235 22 discriminator 4 view .LVU1022
 3247 0eea C1ED006A 		vstr.32	s13, [r1]
 3248              	.LBE1070:
 228:src/engine.cpp ****         // Finger 2 params: fast attack, slow release
 3249              		.loc 1 228 43 discriminator 4 view .LVU1023
 3250 0eee A7EE841A 		vfma.f32	s2, s15, s8
 239:src/engine.cpp ****         float eff_tamp = tamp * s_decay;
 3251              		.loc 1 239 17 discriminator 4 view .LVU1024
 3252 0ef2 89ED006A 		vstr.32	s12, [r9]
 240:src/engine.cpp ****         // Asymmetric envelope: attack while rising OR decaying-while-held (track the
 3253              		.loc 1 240 15 discriminator 4 view .LVU1025
 3254 0ef6 26EE2A6A 		vmul.f32	s12, s12, s21
 228:src/engine.cpp ****         // Finger 2 params: fast attack, slow release
 3255              		.loc 1 228 19 discriminator 4 view .LVU1026
 3256 0efa 83ED001A 		vstr.32	s2, [r3]
 230:src/engine.cpp ****           s_detune   = s_detune   * sa + tdet * (1.0f - sa); }
 3257              		.loc 1 230 9 is_stmt 1 discriminator 4 view .LVU1027
 3258              	.LBB1071:
 230:src/engine.cpp ****           s_detune   = s_detune   * sa + tdet * (1.0f - sa); }
 3259              		.loc 1 230 11 discriminator 4 view .LVU1028
 231:src/engine.cpp ****         { float sa = tbc      > s_bitcrush ? SLEW_F2_A : SLEW_F2_R;
 3260              		.loc 1 231 11 discriminator 4 view .LVU1029
 3261              	.LBE1071:
 232:src/engine.cpp ****           s_bitcrush = s_bitcrush * sa + tbc  * (1.0f - sa); }
 3262              		.loc 1 232 9 discriminator 4 view .LVU1030
 3263              	.LBB1072:
 232:src/engine.cpp ****           s_bitcrush = s_bitcrush * sa + tbc  * (1.0f - sa); }
 3264              		.loc 1 232 11 discriminator 4 view .LVU1031
 3265              	.LVL212:
 233:src/engine.cpp ****         { float sa = trm      > s_ringmod  ? SLEW_F2_A : SLEW_F2_R;
 3266              		.loc 1 233 11 discriminator 4 view .LVU1032
ARM GAS  /tmp/claude-502/ccjNbcJ1.s 			page 80


 3267              	.LBE1072:
 234:src/engine.cpp ****           s_ringmod  = s_ringmod  * sa + trm  * (1.0f - sa); }
 3268              		.loc 1 234 9 discriminator 4 view .LVU1033
 3269              	.LBB1073:
 234:src/engine.cpp ****           s_ringmod  = s_ringmod  * sa + trm  * (1.0f - sa); }
 3270              		.loc 1 234 11 discriminator 4 view .LVU1034
 235:src/engine.cpp ****         // Amp decay-to-sustain: s_decay rides 1 → sustain over decay_ms while the
 3271              		.loc 1 235 11 discriminator 4 view .LVU1035
 3272              	.LBE1073:
 239:src/engine.cpp ****         float eff_tamp = tamp * s_decay;
 3273              		.loc 1 239 9 discriminator 4 view .LVU1036
 240:src/engine.cpp ****         // Asymmetric envelope: attack while rising OR decaying-while-held (track the
 3274              		.loc 1 240 9 discriminator 4 view .LVU1037
 244:src/engine.cpp ****         s_amp = s_amp * slew_amp + eff_tamp * (1.0f - slew_amp);
 3275              		.loc 1 244 9 discriminator 4 view .LVU1038
 244:src/engine.cpp ****         s_amp = s_amp * slew_amp + eff_tamp * (1.0f - slew_amp);
 3276              		.loc 1 244 36 is_stmt 0 discriminator 4 view .LVU1039
 3277 0efe 049B     		ldr	r3, [sp, #16]
 3278 0f00 D3ED004A 		vldr.32	s9, [r3]
 244:src/engine.cpp ****         s_amp = s_amp * slew_amp + eff_tamp * (1.0f - slew_amp);
 3279              		.loc 1 244 62 discriminator 4 view .LVU1040
 3280 0f04 F4EEC64A 		vcmpe.f32	s9, s12
 3281 0f08 F1EE10FA 		vmrs	APSR_nzcv, FPSCR
 3282              	.LVL213:
 244:src/engine.cpp ****         s_amp = s_amp * slew_amp + eff_tamp * (1.0f - slew_amp);
 3283              		.loc 1 244 62 discriminator 4 view .LVU1041
 3284 0f0c 51D4     		bmi	.L40
 244:src/engine.cpp ****         s_amp = s_amp * slew_amp + eff_tamp * (1.0f - slew_amp);
 3285              		.loc 1 244 44 discriminator 2 view .LVU1042
 3286 0f0e DFED4D7A 		vldr.32	s15, .L450+4
 3287 0f12 F4EEE7AA 		vcmpe.f32	s21, s15
 3288 0f16 F1EE10FA 		vmrs	APSR_nzcv, FPSCR
 3289 0f1a 4ADC     		bgt	.L40
 244:src/engine.cpp ****         s_amp = s_amp * slew_amp + eff_tamp * (1.0f - slew_amp);
 3290              		.loc 1 244 62 discriminator 4 view .LVU1043
 3291 0f1c 524B     		ldr	r3, .L450+40
 3292 0f1e 93ED004A 		vldr.32	s8, [r3]
 3293              	.L43:
 3294              	.LVL214:
 245:src/engine.cpp ****         // Master volume slew (smooths FSR jitter / 16 Hz update steps).
 3295              		.loc 1 245 9 is_stmt 1 discriminator 6 view .LVU1044
 245:src/engine.cpp ****         // Master volume slew (smooths FSR jitter / 16 Hz update steps).
 3296              		.loc 1 245 53 is_stmt 0 discriminator 6 view .LVU1045
 3297 0f22 F7EE007A 		vmov.f32	s15, #1.0e+0
 245:src/engine.cpp ****         // Master volume slew (smooths FSR jitter / 16 Hz update steps).
 3298              		.loc 1 245 15 discriminator 6 view .LVU1046
 3299 0f26 049A     		ldr	r2, [sp, #16]
 247:src/engine.cpp ****         // Pitch envelope decays toward 1.0 (no-op when pitch_env_oct == 0).
 3300              		.loc 1 247 49 discriminator 6 view .LVU1047
 3301 0f28 9DED129A 		vldr.32	s18, [sp, #72]
 249:src/engine.cpp **** 
 3302              		.loc 1 249 35 discriminator 6 view .LVU1048
 3303 0f2c 269B     		ldr	r3, [sp, #152]
 245:src/engine.cpp ****         // Master volume slew (smooths FSR jitter / 16 Hz update steps).
 3304              		.loc 1 245 53 discriminator 6 view .LVU1049
 3305 0f2e 77EEC43A 		vsub.f32	s7, s15, s8
 249:src/engine.cpp **** 
ARM GAS  /tmp/claude-502/ccjNbcJ1.s 			page 81


 3306              		.loc 1 249 35 discriminator 6 view .LVU1050
 3307 0f32 93ED005A 		vldr.32	s10, [r3]
 3308              	.LVL215:
 245:src/engine.cpp ****         // Master volume slew (smooths FSR jitter / 16 Hz update steps).
 3309              		.loc 1 245 45 discriminator 6 view .LVU1051
 3310 0f36 23EE866A 		vmul.f32	s12, s7, s12
 3311              	.LVL216:
 249:src/engine.cpp **** 
 3312              		.loc 1 249 35 discriminator 6 view .LVU1052
 3313 0f3a 35EE675A 		vsub.f32	s10, s10, s15
 245:src/engine.cpp ****         // Master volume slew (smooths FSR jitter / 16 Hz update steps).
 3314              		.loc 1 245 34 discriminator 6 view .LVU1053
 3315 0f3e A4EE846A 		vfma.f32	s12, s9, s8
 247:src/engine.cpp ****         // Pitch envelope decays toward 1.0 (no-op when pitch_env_oct == 0).
 3316              		.loc 1 247 49 discriminator 6 view .LVU1054
 3317 0f42 DFED4A4A 		vldr.32	s9, .L450+44
 245:src/engine.cpp ****         // Master volume slew (smooths FSR jitter / 16 Hz update steps).
 3318              		.loc 1 245 15 discriminator 6 view .LVU1055
 3319 0f46 82ED006A 		vstr.32	s12, [r2]
 247:src/engine.cpp ****         // Pitch envelope decays toward 1.0 (no-op when pitch_env_oct == 0).
 3320              		.loc 1 247 9 is_stmt 1 discriminator 6 view .LVU1056
 247:src/engine.cpp ****         // Pitch envelope decays toward 1.0 (no-op when pitch_env_oct == 0).
 3321              		.loc 1 247 49 is_stmt 0 discriminator 6 view .LVU1057
 3322 0f4a 4E4A     		ldr	r2, .L450+68
 3323 0f4c 92ED004A 		vldr.32	s8, [r2]
 3324              	.LVL217:
 247:src/engine.cpp ****         // Pitch envelope decays toward 1.0 (no-op when pitch_env_oct == 0).
 3325              		.loc 1 247 49 discriminator 6 view .LVU1058
 3326 0f50 A4EE249A 		vfma.f32	s18, s8, s9
 247:src/engine.cpp ****         // Pitch envelope decays toward 1.0 (no-op when pitch_env_oct == 0).
 3327              		.loc 1 247 22 discriminator 6 view .LVU1059
 3328 0f54 82ED009A 		vstr.32	s18, [r2]
 249:src/engine.cpp **** 
 3329              		.loc 1 249 9 is_stmt 1 discriminator 6 view .LVU1060
 249:src/engine.cpp **** 
 3330              		.loc 1 249 24 is_stmt 0 discriminator 6 view .LVU1061
 3331 0f58 1D9A     		ldr	r2, [sp, #116]
 3332 0f5a D2ED004A 		vldr.32	s9, [r2]
 3333 0f5e E5EE247A 		vfma.f32	s15, s10, s9
 3334 0f62 B0EE672A 		vmov.f32	s4, s15
 3335              	.LVL218:
 249:src/engine.cpp **** 
 3336              		.loc 1 249 17 discriminator 6 view .LVU1062
 3337 0f66 C3ED007A 		vstr.32	s15, [r3]
 253:src/engine.cpp ****             s_flt[0] *= 0.999f;
 3338              		.loc 1 253 9 is_stmt 1 discriminator 6 view .LVU1063
 3339 0f6a DFED367A 		vldr.32	s15, .L450+4
 3340 0f6e B4EEE76A 		vcmpe.f32	s12, s15
 3341 0f72 F1EE10FA 		vmrs	APSR_nzcv, FPSCR
 3342 0f76 7FF56BAA 		bpl	.L428
 254:src/engine.cpp ****             s_flt[1] *= 0.999f;
 3343              		.loc 1 254 13 view .LVU1064
 254:src/engine.cpp ****             s_flt[1] *= 0.999f;
 3344              		.loc 1 254 22 is_stmt 0 view .LVU1065
 3345 0f7a DFED407A 		vldr.32	s15, .L450+60
 3346              	.LVL219:
 254:src/engine.cpp ****             s_flt[1] *= 0.999f;
ARM GAS  /tmp/claude-502/ccjNbcJ1.s 			page 82


 3347              		.loc 1 254 22 view .LVU1066
 3348 0f7e D4ED003A 		vldr.32	s7, [r4]
 255:src/engine.cpp ****             s_flt[2] *= 0.999f;
 3349              		.loc 1 255 22 view .LVU1067
 3350 0f82 94ED014A 		vldr.32	s8, [r4, #4]
 256:src/engine.cpp ****             s_flt[3] *= 0.999f;
 3351              		.loc 1 256 22 view .LVU1068
 3352 0f86 D4ED024A 		vldr.32	s9, [r4, #8]
 254:src/engine.cpp ****             s_flt[1] *= 0.999f;
 3353              		.loc 1 254 22 view .LVU1069
 3354 0f8a 63EEA73A 		vmul.f32	s7, s7, s15
 257:src/engine.cpp ****         }
 3355              		.loc 1 257 22 view .LVU1070
 3356 0f8e 94ED035A 		vldr.32	s10, [r4, #12]
 255:src/engine.cpp ****             s_flt[2] *= 0.999f;
 3357              		.loc 1 255 22 view .LVU1071
 3358 0f92 24EE274A 		vmul.f32	s8, s8, s15
 256:src/engine.cpp ****             s_flt[3] *= 0.999f;
 3359              		.loc 1 256 22 view .LVU1072
 3360 0f96 64EEA74A 		vmul.f32	s9, s9, s15
 257:src/engine.cpp ****         }
 3361              		.loc 1 257 22 view .LVU1073
 3362 0f9a 25EE275A 		vmul.f32	s10, s10, s15
 254:src/engine.cpp ****             s_flt[1] *= 0.999f;
 3363              		.loc 1 254 22 view .LVU1074
 3364 0f9e C4ED003A 		vstr.32	s7, [r4]
 255:src/engine.cpp ****             s_flt[2] *= 0.999f;
 3365              		.loc 1 255 13 is_stmt 1 view .LVU1075
 255:src/engine.cpp ****             s_flt[2] *= 0.999f;
 3366              		.loc 1 255 22 is_stmt 0 view .LVU1076
 3367 0fa2 84ED014A 		vstr.32	s8, [r4, #4]
 256:src/engine.cpp ****             s_flt[3] *= 0.999f;
 3368              		.loc 1 256 13 is_stmt 1 view .LVU1077
 256:src/engine.cpp ****             s_flt[3] *= 0.999f;
 3369              		.loc 1 256 22 is_stmt 0 view .LVU1078
 3370 0fa6 C4ED024A 		vstr.32	s9, [r4, #8]
 257:src/engine.cpp ****         }
 3371              		.loc 1 257 13 is_stmt 1 view .LVU1079
 257:src/engine.cpp ****         }
 3372              		.loc 1 257 22 is_stmt 0 view .LVU1080
 3373 0faa 84ED035A 		vstr.32	s10, [r4, #12]
 3374 0fae FFF757BA 		b	.L45
 3375              	.LVL220:
 3376              	.L40:
 244:src/engine.cpp ****         s_amp = s_amp * slew_amp + eff_tamp * (1.0f - slew_amp);
 3377              		.loc 1 244 62 discriminator 3 view .LVU1081
 3378 0fb2 354B     		ldr	r3, .L450+72
 3379 0fb4 93ED004A 		vldr.32	s8, [r3]
 3380 0fb8 B3E7     		b	.L43
 3381              	.LVL221:
 3382              	.L257:
 3383              	.LBB1074:
 244:src/engine.cpp ****         s_amp = s_amp * slew_amp + eff_tamp * (1.0f - slew_amp);
 3384              		.loc 1 244 62 discriminator 3 view .LVU1082
 3385 0fba DFED345A 		vldr.32	s11, .L450+76
 225:src/engine.cpp ****           s_cutoff = s_cutoff * sc + tcut * (1.0f - sc); }
 3386              		.loc 1 225 40 view .LVU1083
ARM GAS  /tmp/claude-502/ccjNbcJ1.s 			page 83


 3387 0fbe 9FED344A 		vldr.32	s8, .L450+80
 3388 0fc2 24E7     		b	.L36
 3389              	.LVL222:
 3390              	.L54:
 225:src/engine.cpp ****           s_cutoff = s_cutoff * sc + tcut * (1.0f - sc); }
 3391              		.loc 1 225 40 view .LVU1084
 3392              	.LBE1074:
 3393              	.LBB1075:
 286:src/engine.cpp ****         }
 3394              		.loc 1 286 13 is_stmt 1 view .LVU1085
 286:src/engine.cpp ****         }
 3395              		.loc 1 286 38 is_stmt 0 view .LVU1086
 3396 0fc4 DDE90132 		ldrd	r3, r2, [sp, #4]
 3397 0fc8 1344     		add	r3, r3, r2
 3398 0fca 07EB4313 		add	r3, r7, r3, lsl #5
 286:src/engine.cpp ****         }
 3399              		.loc 1 286 19 view .LVU1087
 3400 0fce 93ED077A 		vldr.32	s14, [r3, #28]
 3401 0fd2 27EE877A 		vmul.f32	s14, s15, s14
 3402 0fd6 8DED0B7A 		vstr.32	s14, [sp, #44]
 3403              	.LVL223:
 286:src/engine.cpp ****         }
 3404              		.loc 1 286 19 view .LVU1088
 3405 0fda FFF799BA 		b	.L55
 3406              	.LVL224:
 3407              	.L370:
 286:src/engine.cpp ****         }
 3408              		.loc 1 286 19 view .LVU1089
 3409              	.LBE1075:
 3410              	.LBB1076:
 3411              	.LBB694:
  41:src/dsp.h     **** }
 3412              		.loc 2 41 19 view .LVU1090
 3413 0fde F0EE087A 		vmov.f32	s15, #3.0e+0
 3414 0fe2 E2EEE07A 		vfms.f32	s15, s5, s1
 3415 0fe6 FFF770BA 		b	.L53
 3416              	.LVL225:
 3417              	.L280:
  41:src/dsp.h     **** }
 3418              		.loc 2 41 19 view .LVU1091
 3419              	.LBE694:
 3420              	.LBE1076:
 3421              	.LBB1077:
 3422              	.LBB854:
 3423 0fea DFED2A5A 		vldr.32	s11, .L450+84
 3424              	.LVL226:
  41:src/dsp.h     **** }
 3425              		.loc 2 41 19 view .LVU1092
 3426 0fee AAE4     		b	.L150
 3427              	.LVL227:
 3428              	.L388:
  41:src/dsp.h     **** }
 3429              		.loc 2 41 19 view .LVU1093
 3430              	.LBE854:
 3431              	.LBE1077:
 3432              	.LBB1078:
 3433              	.LBB843:
ARM GAS  /tmp/claude-502/ccjNbcJ1.s 			page 84


 3434 0ff0 F0EE088A 		vmov.f32	s17, #3.0e+0
 3435 0ff4 E2EEC28A 		vfms.f32	s17, s5, s4
 3436 0ff8 68E4     		b	.L148
 3437              	.LVL228:
 3438              	.L379:
  41:src/dsp.h     **** }
 3439              		.loc 2 41 19 view .LVU1094
 3440              	.LBE843:
 3441              	.LBE1078:
 306:src/engine.cpp ****         if(VOICE.noise_level > 0.0f){
 3442              		.loc 1 306 15 view .LVU1095
 3443 0ffa 9FED272A 		vldr.32	s4, .L450+88
 3444 0ffe FFF74ABB 		b	.L96
 3445              	.LVL229:
 3446              	.L286:
 3447              	.LBB1079:
 3448              	.LBB679:
 3449              	.LBB670:
 3450              	.LBB648:
 3451              	.LBB617:
  25:src/dsp.h     ****     if(x<-3.0f)return -1.0f;
 3452              		.loc 2 25 5 view .LVU1096
 3453 1002 F0EE085A 		vmov.f32	s11, #3.0e+0
 3454              	.LBE617:
 3455              	.LBE648:
 3456              	.LBB649:
 3457              	.LBB610:
  25:src/dsp.h     ****     if(x<-3.0f)return -1.0f;
 3458              		.loc 2 25 24 view .LVU1097
 3459 1006 F7EE006A 		vmov.f32	s13, #1.0e+0
 3460              	.LVL230:
  25:src/dsp.h     ****     if(x<-3.0f)return -1.0f;
 3461              		.loc 2 25 24 view .LVU1098
 3462              	.LBE610:
 3463              	.LBE649:
 3464              	.LBB650:
  23:src/dsp.h     **** {
 3465              		.loc 2 23 21 is_stmt 1 view .LVU1099
 3466              	.LBB618:
  25:src/dsp.h     ****     if(x<-3.0f)return -1.0f;
 3467              		.loc 2 25 5 view .LVU1100
 3468 100a B4EEE54A 		vcmpe.f32	s8, s11
 3469 100e F1EE10FA 		vmrs	APSR_nzcv, FPSCR
 3470 1012 7FF714AD 		ble	.L429
 3471              	.L288:
  25:src/dsp.h     ****     if(x<-3.0f)return -1.0f;
 3472              		.loc 2 25 24 is_stmt 0 view .LVU1101
 3473 1016 F7EE003A 		vmov.f32	s7, #1.0e+0
 3474 101a 28E5     		b	.L156
 3475              	.LVL231:
 3476              	.L284:
  25:src/dsp.h     ****     if(x<-3.0f)return -1.0f;
 3477              		.loc 2 25 24 view .LVU1102
 3478              	.LBE618:
 3479              	.LBE650:
 3480              	.LBB651:
 3481              	.LBB603:
ARM GAS  /tmp/claude-502/ccjNbcJ1.s 			page 85


 3482 101c B7EE002A 		vmov.f32	s4, #1.0e+0
 3483 1020 DFE4     		b	.L154
 3484              	.LVL232:
 3485              	.L296:
  25:src/dsp.h     ****     if(x<-3.0f)return -1.0f;
 3486              		.loc 2 25 24 view .LVU1103
 3487              	.LBE603:
 3488              	.LBE651:
 3489              	.LBB652:
 3490              	.LBB646:
 3491 1022 F7EE004A 		vmov.f32	s9, #1.0e+0
 3492 1026 AEE5     		b	.L160
 3493              	.LVL233:
 3494              	.L282:
  25:src/dsp.h     ****     if(x<-3.0f)return -1.0f;
 3495              		.loc 2 25 24 view .LVU1104
 3496              	.LBE646:
 3497              	.LBE652:
 3498              	.LBB653:
 3499              	.LBB597:
 3500 1028 F7EE006A 		vmov.f32	s13, #1.0e+0
 3501 102c B9E4     		b	.L153
 3502              	.LVL234:
 3503              	.L294:
  25:src/dsp.h     ****     if(x<-3.0f)return -1.0f;
 3504              		.loc 2 25 24 view .LVU1105
 3505              	.LBE597:
 3506              	.LBE653:
 3507              	.LBB654:
 3508              	.LBB639:
 3509 102e F7EE006A 		vmov.f32	s13, #1.0e+0
 3510 1032 88E5     		b	.L159
 3511              	.LVL235:
 3512              	.L292:
  25:src/dsp.h     ****     if(x<-3.0f)return -1.0f;
 3513              		.loc 2 25 24 view .LVU1106
 3514              	.LBE639:
 3515              	.LBE654:
 3516              	.LBB655:
 3517              	.LBB632:
 3518 1034 B7EE004A 		vmov.f32	s8, #1.0e+0
 3519 1038 5FE5     		b	.L158
 3520              	.LVL236:
 3521              	.L290:
  25:src/dsp.h     ****     if(x<-3.0f)return -1.0f;
 3522              		.loc 2 25 24 view .LVU1107
 3523              	.LBE632:
 3524              	.LBE655:
 3525              	.LBB656:
 3526              	.LBB625:
 3527 103a F7EE006A 		vmov.f32	s13, #1.0e+0
 3528 103e 3CE5     		b	.L157
 3529              	.L451:
 3530              		.align	2
 3531              	.L450:
 3532 1040 00000000 		.word	.LANCHOR36
 3533 1044 6F12833A 		.word	981668463
ARM GAS  /tmp/claude-502/ccjNbcJ1.s 			page 86


 3534 1048 00000000 		.word	.LANCHOR37
 3535 104c 00000000 		.word	.LANCHOR38
 3536 1050 00000000 		.word	.LANCHOR39
 3537 1054 00000000 		.word	.LANCHOR46
 3538 1058 00000000 		.word	.LANCHOR48
 3539 105c 00000000 		.word	.LANCHOR49
 3540 1060 00000000 		.word	.LANCHOR50
 3541 1064 00000000 		.word	led3
 3542 1068 00000000 		.word	.LANCHOR16
 3543 106c A4707D3F 		.word	1065185444
 3544 1070 00D7A33C 		.word	1017370368
 3545 1074 0012833A 		.word	981668352
 3546 1078 48E17A3F 		.word	1065017672
 3547 107c 77BE7F3F 		.word	1065336439
 3548 1080 00000000 		.word	.LANCHOR33
 3549 1084 00000000 		.word	.LANCHOR34
 3550 1088 00000000 		.word	.LANCHOR15
 3551 108c 00481D3A 		.word	974997504
 3552 1090 AED87F3F 		.word	1065343150
 3553 1094 00002042 		.word	1109393408
 3554 1098 00000000 		.word	0
 3555 109c 00401C47 		.word	1193033728
 3556 10a0 DB0F4940 		.word	1078530011
 3557 10a4 DB0F49C0 		.word	-1068953637
 3558 10a8 83F9A23F 		.word	1067645315
 3559 10ac 6666663E 		.word	1046898278
 3560 10b0 7B81CF3E 		.word	1053786491
 3561              	.LVL237:
 3562              	.L281:
  25:src/dsp.h     ****     if(x<-3.0f)return -1.0f;
 3563              		.loc 2 25 24 view .LVU1108
 3564              	.LBE625:
 3565              	.LBE656:
 3566              	.LBE670:
 3567              	.LBE679:
 3568              	.LBE1079:
 3569              	.LBB1080:
 3570              	.LBB855:
 3571 10b4 5FED075A 		vldr.32	s11, .L450+92
 3572              	.LVL238:
  25:src/dsp.h     ****     if(x<-3.0f)return -1.0f;
 3573              		.loc 2 25 24 view .LVU1109
 3574 10b8 45E4     		b	.L150
 3575              	.LVL239:
 3576              	.L421:
  25:src/dsp.h     ****     if(x<-3.0f)return -1.0f;
 3577              		.loc 2 25 24 view .LVU1110
 3578              	.LBE855:
 3579              	.LBE1080:
 3580              	.LBB1081:
 3581              	.LBB823:
  59:src/dsp.h     ****         case WAVE_SQUARE: return osc_square(ph);
 3582              		.loc 2 59 9 is_stmt 1 view .LVU1111
  59:src/dsp.h     ****         case WAVE_SQUARE: return osc_square(ph);
 3583              		.loc 2 59 27 view .LVU1112
 3584              	.LBB807:
 3585              	.LBI807:
ARM GAS  /tmp/claude-502/ccjNbcJ1.s 			page 87


  44:src/dsp.h     ****     constexpr float PI = 3.14159265f;
 3586              		.loc 2 44 21 view .LVU1113
 3587              	.LBB808:
  45:src/dsp.h     ****     float x = ph*2.0f*PI - PI;                 // -π..π (angle shifted by π)
 3588              		.loc 2 45 5 view .LVU1114
  46:src/dsp.h     ****     float y = 1.27323954f*x - 0.405284735f*x*(x<0?-x:x);
 3589              		.loc 2 46 5 view .LVU1115
  46:src/dsp.h     ****     float y = 1.27323954f*x - 0.405284735f*x*(x<0?-x:x);
 3590              		.loc 2 46 17 is_stmt 0 view .LVU1116
 3591 10ba 71EEA18A 		vadd.f32	s17, s3, s3
  46:src/dsp.h     ****     float y = 1.27323954f*x - 0.405284735f*x*(x<0?-x:x);
 3592              		.loc 2 46 11 view .LVU1117
 3593 10be 1FED087A 		vldr.32	s14, .L450+96
 3594 10c2 1FED082A 		vldr.32	s4, .L450+100
  47:src/dsp.h     ****     y = 0.225f*(y*(y<0?-y:y) - y) + y;         // one refinement pass
 3595              		.loc 2 47 26 view .LVU1118
 3596 10c6 1FED08AA 		vldr.32	s20, .L450+104
  46:src/dsp.h     ****     float y = 1.27323954f*x - 0.405284735f*x*(x<0?-x:x);
 3597              		.loc 2 46 11 view .LVU1119
 3598 10ca A8EE872A 		vfma.f32	s4, s17, s14
 3599              	.LVL240:
  47:src/dsp.h     ****     y = 0.225f*(y*(y<0?-y:y) - y) + y;         // one refinement pass
 3600              		.loc 2 47 5 is_stmt 1 view .LVU1120
  47:src/dsp.h     ****     y = 0.225f*(y*(y<0?-y:y) - y) + y;         // one refinement pass
 3601              		.loc 2 47 43 is_stmt 0 view .LVU1121
 3602 10ce 5FED088A 		vldr.32	s17, .L450+112
  47:src/dsp.h     ****     y = 0.225f*(y*(y<0?-y:y) - y) + y;         // one refinement pass
 3603              		.loc 2 47 50 view .LVU1122
 3604 10d2 B5EEC02A 		vcmpe.f32	s4, #0
  47:src/dsp.h     ****     y = 0.225f*(y*(y<0?-y:y) - y) + y;         // one refinement pass
 3605              		.loc 2 47 43 view .LVU1123
 3606 10d6 62EE288A 		vmul.f32	s17, s4, s17
  47:src/dsp.h     ****     y = 0.225f*(y*(y<0?-y:y) - y) + y;         // one refinement pass
 3607              		.loc 2 47 26 view .LVU1124
 3608 10da 22EE0AAA 		vmul.f32	s20, s4, s20
  47:src/dsp.h     ****     y = 0.225f*(y*(y<0?-y:y) - y) + y;         // one refinement pass
 3609              		.loc 2 47 50 view .LVU1125
 3610 10de F1EE10FA 		vmrs	APSR_nzcv, FPSCR
 3611 10e2 48BF     		it	mi
 3612 10e4 B1EE422A 		vnegmi.f32	s4, s4
 3613              	.LVL241:
  47:src/dsp.h     ****     y = 0.225f*(y*(y<0?-y:y) - y) + y;         // one refinement pass
 3614              		.loc 2 47 11 view .LVU1126
 3615 10e8 A8EEC2AA 		vfms.f32	s20, s17, s4
 3616              	.LVL242:
  48:src/dsp.h     ****     return -y;                                 // undo the π shift: sin(x+π) = -sin(x)
 3617              		.loc 2 48 5 is_stmt 1 view .LVU1127
  48:src/dsp.h     ****     return -y;                                 // undo the π shift: sin(x+π) = -sin(x)
 3618              		.loc 2 48 7 is_stmt 0 view .LVU1128
 3619 10ec 5FED118A 		vldr.32	s17, .L450+108
  48:src/dsp.h     ****     return -y;                                 // undo the π shift: sin(x+π) = -sin(x)
 3620              		.loc 2 48 23 view .LVU1129
 3621 10f0 B5EEC0AA 		vcmpe.f32	s20, #0
 3622 10f4 B1EE4A2A 		vneg.f32	s4, s20
 3623 10f8 F1EE10FA 		vmrs	APSR_nzcv, FPSCR
 3624 10fc 54BF     		ite	pl
 3625 10fe B0EE4A7A 		vmovpl.f32	s14, s20
ARM GAS  /tmp/claude-502/ccjNbcJ1.s 			page 88


 3626              	.LVL243:
  48:src/dsp.h     ****     return -y;                                 // undo the π shift: sin(x+π) = -sin(x)
 3627              		.loc 2 48 23 view .LVU1130
 3628 1102 B0EE427A 		vmovmi.f32	s14, s4
  48:src/dsp.h     ****     return -y;                                 // undo the π shift: sin(x+π) = -sin(x)
 3629              		.loc 2 48 30 view .LVU1131
 3630 1106 AAEE072A 		vfma.f32	s4, s20, s14
 3631              	.LBE808:
 3632              	.LBE807:
 3633              	.LBE823:
 3634              	.LBE1081:
 301:src/engine.cpp **** 
 3635              		.loc 1 301 66 view .LVU1132
 3636 110a 9DED287A 		vldr.32	s14, [sp, #160]
 3637              	.LBB1082:
 3638              	.LBB824:
 3639              	.LBB810:
 3640              	.LBB809:
  48:src/dsp.h     ****     return -y;                                 // undo the π shift: sin(x+π) = -sin(x)
 3641              		.loc 2 48 7 view .LVU1133
 3642 110e A2EE28AA 		vfma.f32	s20, s4, s17
 3643              	.LVL244:
  49:src/dsp.h     **** }
 3644              		.loc 2 49 5 is_stmt 1 view .LVU1134
  49:src/dsp.h     **** }
 3645              		.loc 2 49 5 is_stmt 0 view .LVU1135
 3646              	.LBE809:
 3647              	.LBE810:
 3648              	.LBE824:
 3649              	.LBE1082:
 301:src/engine.cpp **** 
 3650              		.loc 1 301 66 view .LVU1136
 3651 1112 2AEE47AA 		vnmul.f32	s20, s20, s14
 3652              	.LBB1083:
 3653              	.LBB825:
  59:src/dsp.h     ****         case WAVE_SQUARE: return osc_square(ph);
 3654              		.loc 2 59 45 view .LVU1137
 3655 1116 FFF787BA 		b	.L93
 3656              	.LVL245:
 3657              	.L87:
  61:src/dsp.h     ****         case WAVE_TRI:
 3658              		.loc 2 61 9 is_stmt 1 view .LVU1138
  61:src/dsp.h     ****         case WAVE_TRI:
 3659              		.loc 2 61 27 view .LVU1139
 3660              	.LBB811:
 3661              	.LBI811:
  53:src/dsp.h     **** 
 3662              		.loc 2 53 21 view .LVU1140
 3663              	.LBB812:
  53:src/dsp.h     **** 
 3664              		.loc 2 53 40 view .LVU1141
  53:src/dsp.h     **** 
 3665              		.loc 2 53 57 is_stmt 0 view .LVU1142
 3666 111a B0EE002A 		vmov.f32	s4, #2.0e+0
 3667              	.LBE812:
 3668              	.LBE811:
 3669              	.LBE825:
ARM GAS  /tmp/claude-502/ccjNbcJ1.s 			page 89


 3670              	.LBE1083:
 301:src/engine.cpp **** 
 3671              		.loc 1 301 66 view .LVU1143
 3672 111e 9DED287A 		vldr.32	s14, [sp, #160]
 3673              	.LBB1084:
 3674              	.LBB826:
 3675              	.LBB814:
 3676              	.LBB813:
  53:src/dsp.h     **** 
 3677              		.loc 2 53 57 view .LVU1144
 3678 1122 BFEE00AA 		vmov.f32	s20, #-1.0e+0
 3679 1126 A1EE82AA 		vfma.f32	s20, s3, s4
 3680              	.LVL246:
  53:src/dsp.h     **** 
 3681              		.loc 2 53 57 view .LVU1145
 3682              	.LBE813:
 3683              	.LBE814:
 3684              	.LBE826:
 3685              	.LBE1084:
 301:src/engine.cpp **** 
 3686              		.loc 1 301 66 view .LVU1146
 3687 112a 2AEE07AA 		vmul.f32	s20, s20, s14
 3688              	.LBB1085:
 3689              	.LBB827:
  61:src/dsp.h     ****         case WAVE_TRI:
 3690              		.loc 2 61 44 view .LVU1147
 3691 112e FFF77BBA 		b	.L93
 3692              	.L86:
  60:src/dsp.h     ****         case WAVE_SAW:    return osc_saw(ph);
 3693              		.loc 2 60 9 is_stmt 1 view .LVU1148
  60:src/dsp.h     ****         case WAVE_SAW:    return osc_saw(ph);
 3694              		.loc 2 60 27 view .LVU1149
 3695              	.LVL247:
 3696              	.LBB815:
 3697              	.LBI815:
  52:src/dsp.h     **** static inline float osc_saw(float ph){ return 2.0f*ph - 1.0f; }
 3698              		.loc 2 52 21 view .LVU1150
 3699              	.LBB816:
  52:src/dsp.h     **** static inline float osc_saw(float ph){ return 2.0f*ph - 1.0f; }
 3700              		.loc 2 52 43 view .LVU1151
  52:src/dsp.h     **** static inline float osc_saw(float ph){ return 2.0f*ph - 1.0f; }
 3701              		.loc 2 52 58 is_stmt 0 view .LVU1152
 3702 1132 B6EE007A 		vmov.f32	s14, #5.0e-1
 3703 1136 F4EEC71A 		vcmpe.f32	s3, s14
 3704 113a F1EE10FA 		vmrs	APSR_nzcv, FPSCR
 3705 113e 00F1E781 		bmi	.L268
 3706 1142 9DED287A 		vldr.32	s14, [sp, #160]
 3707 1146 B1EE47AA 		vneg.f32	s20, s14
 3708 114a FFF76DBA 		b	.L93
 3709              	.LVL248:
 3710              	.L420:
  52:src/dsp.h     **** static inline float osc_saw(float ph){ return 2.0f*ph - 1.0f; }
 3711              		.loc 2 52 58 view .LVU1153
 3712              	.LBE816:
 3713              	.LBE815:
 3714              	.LBE827:
 3715              	.LBE1085:
ARM GAS  /tmp/claude-502/ccjNbcJ1.s 			page 90


 3716              	.LBB1086:
 3717              	.LBB783:
  59:src/dsp.h     ****         case WAVE_SQUARE: return osc_square(ph);
 3718              		.loc 2 59 9 is_stmt 1 view .LVU1154
  59:src/dsp.h     ****         case WAVE_SQUARE: return osc_square(ph);
 3719              		.loc 2 59 27 view .LVU1155
 3720              	.LBB769:
 3721              	.LBI769:
  44:src/dsp.h     ****     constexpr float PI = 3.14159265f;
 3722              		.loc 2 44 21 view .LVU1156
 3723              	.LBB770:
  45:src/dsp.h     ****     float x = ph*2.0f*PI - PI;                 // -π..π (angle shifted by π)
 3724              		.loc 2 45 5 view .LVU1157
  46:src/dsp.h     ****     float y = 1.27323954f*x - 0.405284735f*x*(x<0?-x:x);
 3725              		.loc 2 46 5 view .LVU1158
  46:src/dsp.h     ****     float y = 1.27323954f*x - 0.405284735f*x*(x<0?-x:x);
 3726              		.loc 2 46 17 is_stmt 0 view .LVU1159
 3727 114e 71EE011A 		vadd.f32	s3, s2, s2
  46:src/dsp.h     ****     float y = 1.27323954f*x - 0.405284735f*x*(x<0?-x:x);
 3728              		.loc 2 46 11 view .LVU1160
 3729 1152 1FED2D2A 		vldr.32	s4, .L450+96
 3730 1156 1FED2D7A 		vldr.32	s14, .L450+100
  47:src/dsp.h     ****     y = 0.225f*(y*(y<0?-y:y) - y) + y;         // one refinement pass
 3731              		.loc 2 47 26 view .LVU1161
 3732 115a 1FED2DBA 		vldr.32	s22, .L450+104
  46:src/dsp.h     ****     float y = 1.27323954f*x - 0.405284735f*x*(x<0?-x:x);
 3733              		.loc 2 46 11 view .LVU1162
 3734 115e A1EE827A 		vfma.f32	s14, s3, s4
 3735              	.LVL249:
  47:src/dsp.h     ****     y = 0.225f*(y*(y<0?-y:y) - y) + y;         // one refinement pass
 3736              		.loc 2 47 5 is_stmt 1 view .LVU1163
  47:src/dsp.h     ****     y = 0.225f*(y*(y<0?-y:y) - y) + y;         // one refinement pass
 3737              		.loc 2 47 43 is_stmt 0 view .LVU1164
 3738 1162 1FED2D2A 		vldr.32	s4, .L450+112
  48:src/dsp.h     ****     return -y;                                 // undo the π shift: sin(x+π) = -sin(x)
 3739              		.loc 2 48 7 view .LVU1165
 3740 1166 5FED2F1A 		vldr.32	s3, .L450+108
  47:src/dsp.h     ****     y = 0.225f*(y*(y<0?-y:y) - y) + y;         // one refinement pass
 3741              		.loc 2 47 50 view .LVU1166
 3742 116a B5EEC07A 		vcmpe.f32	s14, #0
  47:src/dsp.h     ****     y = 0.225f*(y*(y<0?-y:y) - y) + y;         // one refinement pass
 3743              		.loc 2 47 43 view .LVU1167
 3744 116e 27EE022A 		vmul.f32	s4, s14, s4
  47:src/dsp.h     ****     y = 0.225f*(y*(y<0?-y:y) - y) + y;         // one refinement pass
 3745              		.loc 2 47 26 view .LVU1168
 3746 1172 27EE0BBA 		vmul.f32	s22, s14, s22
  47:src/dsp.h     ****     y = 0.225f*(y*(y<0?-y:y) - y) + y;         // one refinement pass
 3747              		.loc 2 47 50 view .LVU1169
 3748 1176 F1EE10FA 		vmrs	APSR_nzcv, FPSCR
 3749 117a 48BF     		it	mi
 3750 117c B1EE477A 		vnegmi.f32	s14, s14
 3751              	.LVL250:
  47:src/dsp.h     ****     y = 0.225f*(y*(y<0?-y:y) - y) + y;         // one refinement pass
 3752              		.loc 2 47 11 view .LVU1170
 3753 1180 A2EE47BA 		vfms.f32	s22, s4, s14
 3754              	.LVL251:
  48:src/dsp.h     ****     return -y;                                 // undo the π shift: sin(x+π) = -sin(x)
ARM GAS  /tmp/claude-502/ccjNbcJ1.s 			page 91


 3755              		.loc 2 48 5 is_stmt 1 view .LVU1171
  48:src/dsp.h     ****     return -y;                                 // undo the π shift: sin(x+π) = -sin(x)
 3756              		.loc 2 48 23 is_stmt 0 view .LVU1172
 3757 1184 B5EEC0BA 		vcmpe.f32	s22, #0
 3758 1188 B1EE4B2A 		vneg.f32	s4, s22
 3759 118c F1EE10FA 		vmrs	APSR_nzcv, FPSCR
 3760 1190 54BF     		ite	pl
 3761 1192 B0EE4B7A 		vmovpl.f32	s14, s22
 3762 1196 B0EE427A 		vmovmi.f32	s14, s4
  48:src/dsp.h     ****     return -y;                                 // undo the π shift: sin(x+π) = -sin(x)
 3763              		.loc 2 48 30 view .LVU1173
 3764 119a ABEE072A 		vfma.f32	s4, s22, s14
 3765              	.LBE770:
 3766              	.LBE769:
 3767              	.LBE783:
 3768              	.LBE1086:
 300:src/engine.cpp ****         float osc_oct = osc(s_phase_oct,VOICE.oct_wave)  * VOICE.oct_level;
 3769              		.loc 1 300 66 view .LVU1174
 3770 119e 9DED277A 		vldr.32	s14, [sp, #156]
 3771              	.LBB1087:
 3772              	.LBB784:
 3773              	.LBB772:
 3774              	.LBB771:
  48:src/dsp.h     ****     return -y;                                 // undo the π shift: sin(x+π) = -sin(x)
 3775              		.loc 2 48 7 view .LVU1175
 3776 11a2 A2EE21BA 		vfma.f32	s22, s4, s3
 3777              	.LVL252:
  49:src/dsp.h     **** }
 3778              		.loc 2 49 5 is_stmt 1 view .LVU1176
  49:src/dsp.h     **** }
 3779              		.loc 2 49 5 is_stmt 0 view .LVU1177
 3780              	.LBE771:
 3781              	.LBE772:
 3782              	.LBE784:
 3783              	.LBE1087:
 300:src/engine.cpp ****         float osc_oct = osc(s_phase_oct,VOICE.oct_wave)  * VOICE.oct_level;
 3784              		.loc 1 300 66 view .LVU1178
 3785 11a6 2BEE47BA 		vnmul.f32	s22, s22, s14
 3786              	.LBB1088:
 3787              	.LBB785:
  59:src/dsp.h     ****         case WAVE_SQUARE: return osc_square(ph);
 3788              		.loc 2 59 45 view .LVU1179
 3789 11aa FFF71EBA 		b	.L83
 3790              	.LVL253:
 3791              	.L57:
  59:src/dsp.h     ****         case WAVE_SQUARE: return osc_square(ph);
 3792              		.loc 2 59 45 view .LVU1180
 3793              	.LBE785:
 3794              	.LBE1088:
 3795              	.LBB1089:
 3796              	.LBB722:
  61:src/dsp.h     ****         case WAVE_TRI:
 3797              		.loc 2 61 9 is_stmt 1 view .LVU1181
  61:src/dsp.h     ****         case WAVE_TRI:
 3798              		.loc 2 61 27 view .LVU1182
 3799              	.LBB707:
 3800              	.LBI707:
ARM GAS  /tmp/claude-502/ccjNbcJ1.s 			page 92


  53:src/dsp.h     **** 
 3801              		.loc 2 53 21 view .LVU1183
 3802              	.LBB708:
  53:src/dsp.h     **** 
 3803              		.loc 2 53 40 view .LVU1184
  53:src/dsp.h     **** 
 3804              		.loc 2 53 57 is_stmt 0 view .LVU1185
 3805 11ae B0EE007A 		vmov.f32	s14, #2.0e+0
 3806              	.LVL254:
  53:src/dsp.h     **** 
 3807              		.loc 2 53 57 view .LVU1186
 3808              	.LBE708:
 3809              	.LBE707:
 3810              	.LBE722:
 3811              	.LBE1089:
 299:src/engine.cpp ****         float sub     = osc(s_phase_sub,VOICE.sub_wave)  * VOICE.sub_level;
 3812              		.loc 1 299 28 view .LVU1187
 3813 11b2 D94B     		ldr	r3, .L452
 3814              	.LBB1090:
 3815              	.LBB723:
 3816              	.LBB711:
 3817              	.LBB709:
  53:src/dsp.h     **** 
 3818              		.loc 2 53 57 view .LVU1188
 3819 11b4 FFEE002A 		vmov.f32	s5, #-1.0e+0
 3820              	.LBE709:
 3821              	.LBE711:
 3822              	.LBE723:
 3823              	.LBE1090:
 3824              	.LBB1091:
 3825              	.LBB751:
  58:src/dsp.h     ****         case WAVE_SINE:   return osc_sine(ph);
 3826              		.loc 2 58 5 view .LVU1189
 3827 11b8 022D     		cmp	r5, #2
 3828              	.LBE751:
 3829              	.LBE1091:
 299:src/engine.cpp ****         float sub     = osc(s_phase_sub,VOICE.sub_wave)  * VOICE.sub_level;
 3830              		.loc 1 299 28 view .LVU1190
 3831 11ba D3ED000A 		vldr.32	s1, [r3]
 3832              	.LBB1092:
 3833              	.LBB724:
 3834              	.LBB712:
 3835              	.LBB710:
  53:src/dsp.h     **** 
 3836              		.loc 2 53 57 view .LVU1191
 3837 11be E0EE072A 		vfma.f32	s5, s0, s14
 3838              	.LVL255:
  53:src/dsp.h     **** 
 3839              		.loc 2 53 57 view .LVU1192
 3840              	.LBE710:
 3841              	.LBE712:
 3842              	.LBE724:
 3843              	.LBE1092:
 298:src/engine.cpp ****         float osc2    = osc(s_phase2,   VOICE.osc2_wave) * VOICE.osc2_level;
 3844              		.loc 1 298 66 view .LVU1193
 3845 11c2 9DED067A 		vldr.32	s14, [sp, #24]
 3846 11c6 62EE872A 		vmul.f32	s5, s5, s14
ARM GAS  /tmp/claude-502/ccjNbcJ1.s 			page 93


 3847              	.LVL256:
 299:src/engine.cpp ****         float sub     = osc(s_phase_sub,VOICE.sub_wave)  * VOICE.sub_level;
 3848              		.loc 1 299 9 is_stmt 1 view .LVU1194
 3849              	.LBB1093:
  57:src/dsp.h     ****     switch(w){
 3850              		.loc 2 57 21 view .LVU1195
 3851              	.LBB752:
  58:src/dsp.h     ****         case WAVE_SINE:   return osc_sine(ph);
 3852              		.loc 2 58 5 view .LVU1196
 3853 11ca 7FF4D7A9 		bne	.L430
 3854              	.L66:
  60:src/dsp.h     ****         case WAVE_SAW:    return osc_saw(ph);
 3855              		.loc 2 60 9 view .LVU1197
  60:src/dsp.h     ****         case WAVE_SAW:    return osc_saw(ph);
 3856              		.loc 2 60 27 view .LVU1198
 3857              	.LVL257:
 3858              	.LBB740:
 3859              	.LBI740:
  52:src/dsp.h     **** static inline float osc_saw(float ph){ return 2.0f*ph - 1.0f; }
 3860              		.loc 2 52 21 view .LVU1199
 3861              	.LBB741:
  52:src/dsp.h     **** static inline float osc_saw(float ph){ return 2.0f*ph - 1.0f; }
 3862              		.loc 2 52 43 view .LVU1200
  52:src/dsp.h     **** static inline float osc_saw(float ph){ return 2.0f*ph - 1.0f; }
 3863              		.loc 2 52 58 is_stmt 0 view .LVU1201
 3864 11ce B6EE007A 		vmov.f32	s14, #5.0e-1
 3865 11d2 F4EEC70A 		vcmpe.f32	s1, s14
 3866 11d6 F1EE10FA 		vmrs	APSR_nzcv, FPSCR
 3867 11da 00F17781 		bmi	.L264
  52:src/dsp.h     **** static inline float osc_saw(float ph){ return 2.0f*ph - 1.0f; }
 3868              		.loc 2 52 58 view .LVU1202
 3869              	.LBE741:
 3870              	.LBE740:
 3871              	.LBE752:
 3872              	.LBE1093:
 300:src/engine.cpp ****         float osc_oct = osc(s_phase_oct,VOICE.oct_wave)  * VOICE.oct_level;
 3873              		.loc 1 300 28 view .LVU1203
 3874 11de CF4B     		ldr	r3, .L452+4
 3875 11e0 9DED077A 		vldr.32	s14, [sp, #28]
 3876 11e4 93ED001A 		vldr.32	s2, [r3]
 3877              	.LBB1094:
 3878              	.LBB786:
  58:src/dsp.h     ****         case WAVE_SINE:   return osc_sine(ph);
 3879              		.loc 2 58 5 view .LVU1204
 3880 11e8 189B     		ldr	r3, [sp, #96]
 3881 11ea B1EE47DA 		vneg.f32	s26, s14
 3882              	.LVL258:
  58:src/dsp.h     ****         case WAVE_SINE:   return osc_sine(ph);
 3883              		.loc 2 58 5 view .LVU1205
 3884              	.LBE786:
 3885              	.LBE1094:
 300:src/engine.cpp ****         float osc_oct = osc(s_phase_oct,VOICE.oct_wave)  * VOICE.oct_level;
 3886              		.loc 1 300 9 is_stmt 1 view .LVU1206
 3887              	.LBB1095:
  57:src/dsp.h     ****     switch(w){
 3888              		.loc 2 57 21 view .LVU1207
 3889              	.LBB787:
ARM GAS  /tmp/claude-502/ccjNbcJ1.s 			page 94


  58:src/dsp.h     ****         case WAVE_SINE:   return osc_sine(ph);
 3890              		.loc 2 58 5 view .LVU1208
 3891 11ee 022B     		cmp	r3, #2
 3892 11f0 7FF4E3A9 		bne	.L431
 3893              	.L76:
  60:src/dsp.h     ****         case WAVE_SAW:    return osc_saw(ph);
 3894              		.loc 2 60 9 view .LVU1209
  60:src/dsp.h     ****         case WAVE_SAW:    return osc_saw(ph);
 3895              		.loc 2 60 27 view .LVU1210
 3896              	.LVL259:
 3897              	.LBB773:
 3898              	.LBI773:
  52:src/dsp.h     **** static inline float osc_saw(float ph){ return 2.0f*ph - 1.0f; }
 3899              		.loc 2 52 21 view .LVU1211
 3900              	.LBB774:
  52:src/dsp.h     **** static inline float osc_saw(float ph){ return 2.0f*ph - 1.0f; }
 3901              		.loc 2 52 43 view .LVU1212
  52:src/dsp.h     **** static inline float osc_saw(float ph){ return 2.0f*ph - 1.0f; }
 3902              		.loc 2 52 58 is_stmt 0 view .LVU1213
 3903 11f4 B6EE007A 		vmov.f32	s14, #5.0e-1
 3904 11f8 B4EEC71A 		vcmpe.f32	s2, s14
 3905 11fc F1EE10FA 		vmrs	APSR_nzcv, FPSCR
 3906 1200 00F15681 		bmi	.L266
  52:src/dsp.h     **** static inline float osc_saw(float ph){ return 2.0f*ph - 1.0f; }
 3907              		.loc 2 52 58 view .LVU1214
 3908 1204 9DED277A 		vldr.32	s14, [sp, #156]
 3909 1208 B1EE47BA 		vneg.f32	s22, s14
 3910 120c FFF7EDB9 		b	.L83
 3911              	.LVL260:
 3912              	.L56:
  52:src/dsp.h     **** static inline float osc_saw(float ph){ return 2.0f*ph - 1.0f; }
 3913              		.loc 2 52 58 view .LVU1215
 3914              	.LBE774:
 3915              	.LBE773:
 3916              	.LBE787:
 3917              	.LBE1095:
 3918              	.LBB1096:
 3919              	.LBB725:
  60:src/dsp.h     ****         case WAVE_SAW:    return osc_saw(ph);
 3920              		.loc 2 60 9 is_stmt 1 view .LVU1216
  60:src/dsp.h     ****         case WAVE_SAW:    return osc_saw(ph);
 3921              		.loc 2 60 27 view .LVU1217
 3922              	.LBB713:
 3923              	.LBI713:
  52:src/dsp.h     **** static inline float osc_saw(float ph){ return 2.0f*ph - 1.0f; }
 3924              		.loc 2 52 21 view .LVU1218
 3925              	.LBB714:
  52:src/dsp.h     **** static inline float osc_saw(float ph){ return 2.0f*ph - 1.0f; }
 3926              		.loc 2 52 43 view .LVU1219
  52:src/dsp.h     **** static inline float osc_saw(float ph){ return 2.0f*ph - 1.0f; }
 3927              		.loc 2 52 58 is_stmt 0 view .LVU1220
 3928 1210 B6EE007A 		vmov.f32	s14, #5.0e-1
 3929              	.LVL261:
  52:src/dsp.h     **** static inline float osc_saw(float ph){ return 2.0f*ph - 1.0f; }
 3930              		.loc 2 52 58 view .LVU1221
 3931 1214 B4EEC70A 		vcmpe.f32	s0, s14
 3932 1218 F1EE10FA 		vmrs	APSR_nzcv, FPSCR
ARM GAS  /tmp/claude-502/ccjNbcJ1.s 			page 95


 3933 121c 00F14481 		bmi	.L262
 3934 1220 9DED067A 		vldr.32	s14, [sp, #24]
 3935 1224 F1EE472A 		vneg.f32	s5, s14
 3936 1228 FFF7A2B9 		b	.L63
 3937              	.LVL262:
 3938              	.L77:
  52:src/dsp.h     **** static inline float osc_saw(float ph){ return 2.0f*ph - 1.0f; }
 3939              		.loc 2 52 58 view .LVU1222
 3940              	.LBE714:
 3941              	.LBE713:
 3942              	.LBE725:
 3943              	.LBE1096:
 3944              	.LBB1097:
 3945              	.LBB788:
  61:src/dsp.h     ****         case WAVE_TRI:
 3946              		.loc 2 61 9 is_stmt 1 view .LVU1223
  61:src/dsp.h     ****         case WAVE_TRI:
 3947              		.loc 2 61 27 view .LVU1224
 3948              	.LBB776:
 3949              	.LBI776:
  53:src/dsp.h     **** 
 3950              		.loc 2 53 21 view .LVU1225
 3951              	.LBB777:
  53:src/dsp.h     **** 
 3952              		.loc 2 53 40 view .LVU1226
  53:src/dsp.h     **** 
 3953              		.loc 2 53 57 is_stmt 0 view .LVU1227
 3954 122c B0EE002A 		vmov.f32	s4, #2.0e+0
 3955              	.LBE777:
 3956              	.LBE776:
 3957              	.LBE788:
 3958              	.LBE1097:
 300:src/engine.cpp ****         float osc_oct = osc(s_phase_oct,VOICE.oct_wave)  * VOICE.oct_level;
 3959              		.loc 1 300 66 view .LVU1228
 3960 1230 9DED277A 		vldr.32	s14, [sp, #156]
 3961              	.LBB1098:
 3962              	.LBB789:
 3963              	.LBB779:
 3964              	.LBB778:
  53:src/dsp.h     **** 
 3965              		.loc 2 53 57 view .LVU1229
 3966 1234 BFEE00BA 		vmov.f32	s22, #-1.0e+0
 3967 1238 A1EE02BA 		vfma.f32	s22, s2, s4
 3968              	.LVL263:
  53:src/dsp.h     **** 
 3969              		.loc 2 53 57 view .LVU1230
 3970              	.LBE778:
 3971              	.LBE779:
 3972              	.LBE789:
 3973              	.LBE1098:
 300:src/engine.cpp ****         float osc_oct = osc(s_phase_oct,VOICE.oct_wave)  * VOICE.oct_level;
 3974              		.loc 1 300 66 view .LVU1231
 3975 123c 2BEE07BA 		vmul.f32	s22, s22, s14
 3976              	.LBB1099:
 3977              	.LBB790:
  61:src/dsp.h     ****         case WAVE_TRI:
 3978              		.loc 2 61 44 view .LVU1232
ARM GAS  /tmp/claude-502/ccjNbcJ1.s 			page 96


 3979 1240 FFF7D3B9 		b	.L83
 3980              	.LVL264:
 3981              	.L67:
  61:src/dsp.h     ****         case WAVE_TRI:
 3982              		.loc 2 61 44 view .LVU1233
 3983              	.LBE790:
 3984              	.LBE1099:
 3985              	.LBB1100:
 3986              	.LBB753:
  61:src/dsp.h     ****         case WAVE_TRI:
 3987              		.loc 2 61 9 is_stmt 1 view .LVU1234
  61:src/dsp.h     ****         case WAVE_TRI:
 3988              		.loc 2 61 27 view .LVU1235
 3989              	.LBB743:
 3990              	.LBI743:
  53:src/dsp.h     **** 
 3991              		.loc 2 53 21 view .LVU1236
 3992              	.LBB744:
  53:src/dsp.h     **** 
 3993              		.loc 2 53 40 view .LVU1237
  53:src/dsp.h     **** 
 3994              		.loc 2 53 57 is_stmt 0 view .LVU1238
 3995 1244 B0EE007A 		vmov.f32	s14, #2.0e+0
 3996 1248 BFEE00DA 		vmov.f32	s26, #-1.0e+0
 3997 124c A0EE87DA 		vfma.f32	s26, s1, s14
 3998              	.LVL265:
  53:src/dsp.h     **** 
 3999              		.loc 2 53 57 view .LVU1239
 4000              	.LBE744:
 4001              	.LBE743:
 4002              	.LBE753:
 4003              	.LBE1100:
 299:src/engine.cpp ****         float sub     = osc(s_phase_sub,VOICE.sub_wave)  * VOICE.sub_level;
 4004              		.loc 1 299 66 view .LVU1240
 4005 1250 9DED077A 		vldr.32	s14, [sp, #28]
 4006 1254 2DEE07DA 		vmul.f32	s26, s26, s14
 4007              	.LBB1101:
 4008              	.LBB754:
  61:src/dsp.h     ****         case WAVE_TRI:
 4009              		.loc 2 61 44 view .LVU1241
 4010 1258 FFF7A8B9 		b	.L73
 4011              	.LVL266:
 4012              	.L418:
  61:src/dsp.h     ****         case WAVE_TRI:
 4013              		.loc 2 61 44 view .LVU1242
 4014              	.LBE754:
 4015              	.LBE1101:
 4016              	.LBB1102:
 4017              	.LBB726:
  59:src/dsp.h     ****         case WAVE_SQUARE: return osc_square(ph);
 4018              		.loc 2 59 9 is_stmt 1 view .LVU1243
  59:src/dsp.h     ****         case WAVE_SQUARE: return osc_square(ph);
 4019              		.loc 2 59 27 view .LVU1244
 4020              	.LBB716:
 4021              	.LBI716:
  44:src/dsp.h     ****     constexpr float PI = 3.14159265f;
 4022              		.loc 2 44 21 view .LVU1245
ARM GAS  /tmp/claude-502/ccjNbcJ1.s 			page 97


 4023              	.LBB717:
  45:src/dsp.h     ****     float x = ph*2.0f*PI - PI;                 // -π..π (angle shifted by π)
 4024              		.loc 2 45 5 view .LVU1246
  46:src/dsp.h     ****     float y = 1.27323954f*x - 0.405284735f*x*(x<0?-x:x);
 4025              		.loc 2 46 5 view .LVU1247
  46:src/dsp.h     ****     float y = 1.27323954f*x - 0.405284735f*x*(x<0?-x:x);
 4026              		.loc 2 46 17 is_stmt 0 view .LVU1248
 4027 125c 30EE002A 		vadd.f32	s4, s0, s0
  46:src/dsp.h     ****     float y = 1.27323954f*x - 0.405284735f*x*(x<0?-x:x);
 4028              		.loc 2 46 11 view .LVU1249
 4029 1260 DFEDB62A 		vldr.32	s5, .L452+36
 4030 1264 9FEDB67A 		vldr.32	s14, .L452+40
 4031              	.LVL267:
  46:src/dsp.h     ****     float y = 1.27323954f*x - 0.405284735f*x*(x<0?-x:x);
 4032              		.loc 2 46 11 view .LVU1250
 4033 1268 A2EE227A 		vfma.f32	s14, s4, s5
 4034              	.LVL268:
  47:src/dsp.h     ****     y = 0.225f*(y*(y<0?-y:y) - y) + y;         // one refinement pass
 4035              		.loc 2 47 5 is_stmt 1 view .LVU1251
  47:src/dsp.h     ****     y = 0.225f*(y*(y<0?-y:y) - y) + y;         // one refinement pass
 4036              		.loc 2 47 26 is_stmt 0 view .LVU1252
 4037 126c DFEDB02A 		vldr.32	s5, .L452+24
  47:src/dsp.h     ****     y = 0.225f*(y*(y<0?-y:y) - y) + y;         // one refinement pass
 4038              		.loc 2 47 43 view .LVU1253
 4039 1270 9FEDB02A 		vldr.32	s4, .L452+28
  47:src/dsp.h     ****     y = 0.225f*(y*(y<0?-y:y) - y) + y;         // one refinement pass
 4040              		.loc 2 47 50 view .LVU1254
 4041 1274 B5EEC07A 		vcmpe.f32	s14, #0
  47:src/dsp.h     ****     y = 0.225f*(y*(y<0?-y:y) - y) + y;         // one refinement pass
 4042              		.loc 2 47 43 view .LVU1255
 4043 1278 27EE022A 		vmul.f32	s4, s14, s4
  47:src/dsp.h     ****     y = 0.225f*(y*(y<0?-y:y) - y) + y;         // one refinement pass
 4044              		.loc 2 47 26 view .LVU1256
 4045 127c 67EE222A 		vmul.f32	s5, s14, s5
  47:src/dsp.h     ****     y = 0.225f*(y*(y<0?-y:y) - y) + y;         // one refinement pass
 4046              		.loc 2 47 50 view .LVU1257
 4047 1280 F1EE10FA 		vmrs	APSR_nzcv, FPSCR
 4048 1284 48BF     		it	mi
 4049 1286 B1EE477A 		vnegmi.f32	s14, s14
 4050              	.LVL269:
  47:src/dsp.h     ****     y = 0.225f*(y*(y<0?-y:y) - y) + y;         // one refinement pass
 4051              		.loc 2 47 11 view .LVU1258
 4052 128a E2EE472A 		vfms.f32	s5, s4, s14
 4053              	.LVL270:
  48:src/dsp.h     ****     return -y;                                 // undo the π shift: sin(x+π) = -sin(x)
 4054              		.loc 2 48 5 is_stmt 1 view .LVU1259
  48:src/dsp.h     ****     return -y;                                 // undo the π shift: sin(x+π) = -sin(x)
 4055              		.loc 2 48 23 is_stmt 0 view .LVU1260
 4056 128e F5EEC02A 		vcmpe.f32	s5, #0
 4057 1292 B1EE627A 		vneg.f32	s14, s5
 4058 1296 F1EE10FA 		vmrs	APSR_nzcv, FPSCR
 4059 129a 54BF     		ite	pl
 4060 129c B0EE622A 		vmovpl.f32	s4, s5
 4061 12a0 B0EE472A 		vmovmi.f32	s4, s14
  48:src/dsp.h     ****     return -y;                                 // undo the π shift: sin(x+π) = -sin(x)
 4062              		.loc 2 48 30 view .LVU1261
 4063 12a4 A2EE827A 		vfma.f32	s14, s5, s4
ARM GAS  /tmp/claude-502/ccjNbcJ1.s 			page 98


  48:src/dsp.h     ****     return -y;                                 // undo the π shift: sin(x+π) = -sin(x)
 4064              		.loc 2 48 7 view .LVU1262
 4065 12a8 9FEDA32A 		vldr.32	s4, .L452+32
 4066 12ac E7EE022A 		vfma.f32	s5, s14, s4
 4067              	.LVL271:
  49:src/dsp.h     **** }
 4068              		.loc 2 49 5 is_stmt 1 view .LVU1263
  49:src/dsp.h     **** }
 4069              		.loc 2 49 5 is_stmt 0 view .LVU1264
 4070              	.LBE717:
 4071              	.LBE716:
 4072              	.LBE726:
 4073              	.LBE1102:
 298:src/engine.cpp ****         float osc2    = osc(s_phase2,   VOICE.osc2_wave) * VOICE.osc2_level;
 4074              		.loc 1 298 66 view .LVU1265
 4075 12b0 9DED067A 		vldr.32	s14, [sp, #24]
 4076 12b4 62EEC72A 		vnmul.f32	s5, s5, s14
 4077              	.LBB1103:
 4078              	.LBB727:
  59:src/dsp.h     ****         case WAVE_SQUARE: return osc_square(ph);
 4079              		.loc 2 59 45 view .LVU1266
 4080 12b8 FFF75AB9 		b	.L63
 4081              	.LVL272:
 4082              	.L419:
  59:src/dsp.h     ****         case WAVE_SQUARE: return osc_square(ph);
 4083              		.loc 2 59 45 view .LVU1267
 4084              	.LBE727:
 4085              	.LBE1103:
 4086              	.LBB1104:
 4087              	.LBB755:
  59:src/dsp.h     ****         case WAVE_SQUARE: return osc_square(ph);
 4088              		.loc 2 59 9 is_stmt 1 view .LVU1268
  59:src/dsp.h     ****         case WAVE_SQUARE: return osc_square(ph);
 4089              		.loc 2 59 27 view .LVU1269
 4090              	.LBB745:
 4091              	.LBI745:
  44:src/dsp.h     ****     constexpr float PI = 3.14159265f;
 4092              		.loc 2 44 21 view .LVU1270
 4093              	.LBB746:
  45:src/dsp.h     ****     float x = ph*2.0f*PI - PI;                 // -π..π (angle shifted by π)
 4094              		.loc 2 45 5 view .LVU1271
  46:src/dsp.h     ****     float y = 1.27323954f*x - 0.405284735f*x*(x<0?-x:x);
 4095              		.loc 2 46 5 view .LVU1272
  46:src/dsp.h     ****     float y = 1.27323954f*x - 0.405284735f*x*(x<0?-x:x);
 4096              		.loc 2 46 17 is_stmt 0 view .LVU1273
 4097 12bc 70EEA01A 		vadd.f32	s3, s1, s1
  46:src/dsp.h     ****     float y = 1.27323954f*x - 0.405284735f*x*(x<0?-x:x);
 4098              		.loc 2 46 11 view .LVU1274
 4099 12c0 9FED9E2A 		vldr.32	s4, .L452+36
 4100 12c4 9FED9E7A 		vldr.32	s14, .L452+40
  47:src/dsp.h     ****     y = 0.225f*(y*(y<0?-y:y) - y) + y;         // one refinement pass
 4101              		.loc 2 47 26 view .LVU1275
 4102 12c8 9FED99DA 		vldr.32	s26, .L452+24
  46:src/dsp.h     ****     float y = 1.27323954f*x - 0.405284735f*x*(x<0?-x:x);
 4103              		.loc 2 46 11 view .LVU1276
 4104 12cc A1EE827A 		vfma.f32	s14, s3, s4
 4105              	.LVL273:
ARM GAS  /tmp/claude-502/ccjNbcJ1.s 			page 99


  47:src/dsp.h     ****     y = 0.225f*(y*(y<0?-y:y) - y) + y;         // one refinement pass
 4106              		.loc 2 47 5 is_stmt 1 view .LVU1277
  47:src/dsp.h     ****     y = 0.225f*(y*(y<0?-y:y) - y) + y;         // one refinement pass
 4107              		.loc 2 47 43 is_stmt 0 view .LVU1278
 4108 12d0 9FED982A 		vldr.32	s4, .L452+28
  47:src/dsp.h     ****     y = 0.225f*(y*(y<0?-y:y) - y) + y;         // one refinement pass
 4109              		.loc 2 47 50 view .LVU1279
 4110 12d4 B5EEC07A 		vcmpe.f32	s14, #0
  47:src/dsp.h     ****     y = 0.225f*(y*(y<0?-y:y) - y) + y;         // one refinement pass
 4111              		.loc 2 47 43 view .LVU1280
 4112 12d8 27EE022A 		vmul.f32	s4, s14, s4
  47:src/dsp.h     ****     y = 0.225f*(y*(y<0?-y:y) - y) + y;         // one refinement pass
 4113              		.loc 2 47 26 view .LVU1281
 4114 12dc 27EE0DDA 		vmul.f32	s26, s14, s26
  47:src/dsp.h     ****     y = 0.225f*(y*(y<0?-y:y) - y) + y;         // one refinement pass
 4115              		.loc 2 47 50 view .LVU1282
 4116 12e0 F1EE10FA 		vmrs	APSR_nzcv, FPSCR
 4117 12e4 48BF     		it	mi
 4118 12e6 B1EE477A 		vnegmi.f32	s14, s14
 4119              	.LVL274:
  47:src/dsp.h     ****     y = 0.225f*(y*(y<0?-y:y) - y) + y;         // one refinement pass
 4120              		.loc 2 47 11 view .LVU1283
 4121 12ea A2EE47DA 		vfms.f32	s26, s4, s14
 4122              	.LVL275:
  48:src/dsp.h     ****     return -y;                                 // undo the π shift: sin(x+π) = -sin(x)
 4123              		.loc 2 48 5 is_stmt 1 view .LVU1284
  48:src/dsp.h     ****     return -y;                                 // undo the π shift: sin(x+π) = -sin(x)
 4124              		.loc 2 48 23 is_stmt 0 view .LVU1285
 4125 12ee B5EEC0DA 		vcmpe.f32	s26, #0
 4126 12f2 B1EE4D7A 		vneg.f32	s14, s26
 4127 12f6 F1EE10FA 		vmrs	APSR_nzcv, FPSCR
 4128 12fa 54BF     		ite	pl
 4129 12fc B0EE4D2A 		vmovpl.f32	s4, s26
 4130 1300 B0EE472A 		vmovmi.f32	s4, s14
  48:src/dsp.h     ****     return -y;                                 // undo the π shift: sin(x+π) = -sin(x)
 4131              		.loc 2 48 30 view .LVU1286
 4132 1304 ADEE027A 		vfma.f32	s14, s26, s4
  48:src/dsp.h     ****     return -y;                                 // undo the π shift: sin(x+π) = -sin(x)
 4133              		.loc 2 48 7 view .LVU1287
 4134 1308 9FED8B2A 		vldr.32	s4, .L452+32
 4135 130c A7EE02DA 		vfma.f32	s26, s14, s4
 4136              	.LVL276:
  49:src/dsp.h     **** }
 4137              		.loc 2 49 5 is_stmt 1 view .LVU1288
  49:src/dsp.h     **** }
 4138              		.loc 2 49 5 is_stmt 0 view .LVU1289
 4139              	.LBE746:
 4140              	.LBE745:
 4141              	.LBE755:
 4142              	.LBE1104:
 299:src/engine.cpp ****         float sub     = osc(s_phase_sub,VOICE.sub_wave)  * VOICE.sub_level;
 4143              		.loc 1 299 66 view .LVU1290
 4144 1310 9DED077A 		vldr.32	s14, [sp, #28]
 4145 1314 2DEE47DA 		vnmul.f32	s26, s26, s14
 4146              	.LBB1105:
 4147              	.LBB756:
  59:src/dsp.h     ****         case WAVE_SQUARE: return osc_square(ph);
ARM GAS  /tmp/claude-502/ccjNbcJ1.s 			page 100


 4148              		.loc 2 59 45 view .LVU1291
 4149 1318 FFF748B9 		b	.L73
 4150              	.LVL277:
 4151              	.L283:
  59:src/dsp.h     ****         case WAVE_SQUARE: return osc_square(ph);
 4152              		.loc 2 59 45 view .LVU1292
 4153              	.LBE756:
 4154              	.LBE1105:
 4155              	.LBB1106:
 4156              	.LBB680:
 4157              	.LBB671:
 4158              	.LBB657:
 4159              	.LBB598:
  26:src/dsp.h     ****     float x2=x*x;
 4160              		.loc 2 26 24 view .LVU1293
 4161 131c FFEE006A 		vmov.f32	s13, #-1.0e+0
 4162 1320 FFF73FBB 		b	.L153
 4163              	.LVL278:
 4164              	.L287:
  26:src/dsp.h     ****     float x2=x*x;
 4165              		.loc 2 26 24 view .LVU1294
 4166              	.LBE598:
 4167              	.LBE657:
 4168              	.LBB658:
 4169              	.LBB611:
 4170 1324 FFEE006A 		vmov.f32	s13, #-1.0e+0
 4171 1328 FFF781BB 		b	.L155
 4172              	.LVL279:
 4173              	.L293:
  26:src/dsp.h     ****     float x2=x*x;
 4174              		.loc 2 26 24 view .LVU1295
 4175              	.LBE611:
 4176              	.LBE658:
 4177              	.LBB659:
 4178              	.LBB633:
 4179 132c BFEE004A 		vmov.f32	s8, #-1.0e+0
 4180 1330 FFF7E3BB 		b	.L158
 4181              	.LVL280:
 4182              	.L291:
  26:src/dsp.h     ****     float x2=x*x;
 4183              		.loc 2 26 24 view .LVU1296
 4184              	.LBE633:
 4185              	.LBE659:
 4186              	.LBB660:
 4187              	.LBB626:
 4188 1334 FFEE006A 		vmov.f32	s13, #-1.0e+0
 4189 1338 FFF7BFBB 		b	.L157
 4190              	.LVL281:
 4191              	.L289:
  26:src/dsp.h     ****     float x2=x*x;
 4192              		.loc 2 26 24 view .LVU1297
 4193              	.LBE626:
 4194              	.LBE660:
 4195              	.LBB661:
 4196              	.LBB619:
 4197 133c FFEE003A 		vmov.f32	s7, #-1.0e+0
 4198 1340 FFF795BB 		b	.L156
ARM GAS  /tmp/claude-502/ccjNbcJ1.s 			page 101


 4199              	.LVL282:
 4200              	.L279:
  26:src/dsp.h     ****     float x2=x*x;
 4201              		.loc 2 26 24 view .LVU1298
 4202              	.LBE619:
 4203              	.LBE661:
 4204              	.LBE671:
 4205              	.LBE680:
 4206              	.LBE1106:
 4207              	.LBB1107:
 4208              	.LBB850:
 4209 1344 BFEE002A 		vmov.f32	s4, #-1.0e+0
 4210 1348 FFF7EBBA 		b	.L149
 4211              	.LVL283:
 4212              	.L285:
  26:src/dsp.h     ****     float x2=x*x;
 4213              		.loc 2 26 24 view .LVU1299
 4214              	.LBE850:
 4215              	.LBE1107:
 4216              	.LBB1108:
 4217              	.LBB681:
 4218              	.LBB672:
 4219              	.LBB662:
 4220              	.LBB604:
 4221 134c BFEE002A 		vmov.f32	s4, #-1.0e+0
 4222 1350 FFF747BB 		b	.L154
 4223              	.LVL284:
 4224              	.L297:
  26:src/dsp.h     ****     float x2=x*x;
 4225              		.loc 2 26 24 view .LVU1300
 4226              	.LBE604:
 4227              	.LBE662:
 4228              	.LBB663:
 4229              	.LBB647:
 4230 1354 FFEE004A 		vmov.f32	s9, #-1.0e+0
 4231 1358 15E4     		b	.L160
 4232              	.LVL285:
 4233              	.L426:
  26:src/dsp.h     ****     float x2=x*x;
 4234              		.loc 2 26 24 view .LVU1301
 4235              	.LBE647:
 4236              	.LBE663:
 4237              	.LBE672:
 4238              	.LBE681:
 4239              	.LBE1108:
 4240              	.LBB1109:
 362:src/engine.cpp ****             float m = 0.0f;
 4241              		.loc 1 362 9 view .LVU1302
 4242 135a 0E9B     		ldr	r3, [sp, #56]
 4243 135c B1EE466A 		vneg.f32	s12, s12
 4244              	.LVL286:
 362:src/engine.cpp ****             float m = 0.0f;
 4245              		.loc 1 362 9 view .LVU1303
 4246 1360 0E2B     		cmp	r3, #14
 4247              	.LBE1109:
 358:src/engine.cpp **** 
 4248              		.loc 1 358 60 view .LVU1304
ARM GAS  /tmp/claude-502/ccjNbcJ1.s 			page 102


 4249 1362 29EE066A 		vmul.f32	s12, s18, s12
 4250              	.LVL287:
 362:src/engine.cpp ****             float m = 0.0f;
 4251              		.loc 1 362 9 is_stmt 1 view .LVU1305
 4252              	.LBB1110:
 4253 1366 7FF48FAC 		bne	.L165
 4254              	.L427:
 362:src/engine.cpp ****             float m = 0.0f;
 4255              		.loc 1 362 9 is_stmt 0 view .LVU1306
 4256 136a 0022     		movs	r2, #0
 4257 136c 6C4B     		ldr	r3, .L452+8
 4258              	.LBB872:
 363:src/engine.cpp ****             for(int k = 0; k < POLY; k++) m += drum_render(g_hits[k], sr);
 4259              		.loc 1 363 19 view .LVU1307
 4260 136e 9FED6D5A 		vldr.32	s10, .L452+12
 4261              	.LBE872:
 362:src/engine.cpp ****             float m = 0.0f;
 4262              		.loc 1 362 9 view .LVU1308
 4263 1372 2B92     		str	r2, [sp, #172]
 4264 1374 03F5987A 		add	r10, r3, #304
 4265 1378 6B4A     		ldr	r2, .L452+16
 4266 137a 1068     		ldr	r0, [r2]
 4267              	.LVL288:
 4268              	.L227:
 4269              	.LBB1027:
 4270              	.LBB873:
 364:src/engine.cpp ****             sample = fast_tanh(m) * s_master_vol;
 4271              		.loc 1 364 43 is_stmt 1 discriminator 2 view .LVU1309
 4272              	.LBB874:
 4273              	.LBI874:
  99:src/engine.cpp **** {
 4274              		.loc 1 99 14 discriminator 2 view .LVU1310
 4275              	.LBB875:
 101:src/engine.cpp ****     const Voice& V = VOICES[h.vidx];
 4276              		.loc 1 101 5 discriminator 2 view .LVU1311
 101:src/engine.cpp ****     const Voice& V = VOICES[h.vidx];
 4277              		.loc 1 101 11 is_stmt 0 discriminator 2 view .LVU1312
 4278 137c 93F800E0 		ldrb	lr, [r3]	@ zero_extendqisi2
 101:src/engine.cpp ****     const Voice& V = VOICES[h.vidx];
 4279              		.loc 1 101 5 discriminator 2 view .LVU1313
 4280 1380 BEF1000F 		cmp	lr, #0
 4281 1384 5ED0     		beq	.L298
 102:src/engine.cpp ****     // Amp envelope: attack while gated, release on lift; free the slot when done.
 4282              		.loc 1 102 5 is_stmt 1 view .LVU1314
 104:src/engine.cpp ****     float c   = (tgt > h.amp) ? h.atk_c : h.rel_c;
 4283              		.loc 1 104 19 is_stmt 0 view .LVU1315
 4284 1386 5A78     		ldrb	r2, [r3, #1]	@ zero_extendqisi2
 102:src/engine.cpp ****     // Amp envelope: attack while gated, release on lift; free the slot when done.
 4285              		.loc 1 102 31 view .LVU1316
 4286 1388 5968     		ldr	r1, [r3, #4]
 4287              	.LVL289:
 104:src/engine.cpp ****     float c   = (tgt > h.amp) ? h.atk_c : h.rel_c;
 4288              		.loc 1 104 5 is_stmt 1 view .LVU1317
 104:src/engine.cpp ****     float c   = (tgt > h.amp) ? h.atk_c : h.rel_c;
 4289              		.loc 1 104 24 is_stmt 0 view .LVU1318
 4290 138a 002A     		cmp	r2, #0
 4291 138c 00F08980 		beq	.L299
ARM GAS  /tmp/claude-502/ccjNbcJ1.s 			page 103


 4292 1390 D3ED035A 		vldr.32	s11, [r3, #12]
 4293              	.L167:
 4294              	.LVL290:
 105:src/engine.cpp ****     h.amp = h.amp*c + tgt*(1.0f-c);
 4295              		.loc 1 105 5 is_stmt 1 view .LVU1319
 105:src/engine.cpp ****     h.amp = h.amp*c + tgt*(1.0f-c);
 4296              		.loc 1 105 26 is_stmt 0 view .LVU1320
 4297 1394 93ED0A7A 		vldr.32	s14, [r3, #40]
 106:src/engine.cpp ****     if(!h.gate && h.amp < 0.0004f){ h.active=false; return 0.0f; }
 4298              		.loc 1 106 32 view .LVU1321
 4299 1398 F7EE006A 		vmov.f32	s13, #1.0e+0
 105:src/engine.cpp ****     h.amp = h.amp*c + tgt*(1.0f-c);
 4300              		.loc 1 105 31 view .LVU1322
 4301 139c B4EEE57A 		vcmpe.f32	s14, s11
 4302 13a0 F1EE10FA 		vmrs	APSR_nzcv, FPSCR
 4303 13a4 4CBF     		ite	mi
 4304 13a6 93ED0F6A 		vldrmi.32	s12, [r3, #60]
 4305 13aa 93ED106A 		vldrpl.32	s12, [r3, #64]
 4306              	.LVL291:
 106:src/engine.cpp ****     if(!h.gate && h.amp < 0.0004f){ h.active=false; return 0.0f; }
 4307              		.loc 1 106 5 is_stmt 1 view .LVU1323
 106:src/engine.cpp ****     if(!h.gate && h.amp < 0.0004f){ h.active=false; return 0.0f; }
 4308              		.loc 1 106 32 is_stmt 0 view .LVU1324
 4309 13ae 76EEC66A 		vsub.f32	s13, s13, s12
 106:src/engine.cpp ****     if(!h.gate && h.amp < 0.0004f){ h.active=false; return 0.0f; }
 4310              		.loc 1 106 26 view .LVU1325
 4311 13b2 66EEA56A 		vmul.f32	s13, s13, s11
 106:src/engine.cpp ****     if(!h.gate && h.amp < 0.0004f){ h.active=false; return 0.0f; }
 4312              		.loc 1 106 21 view .LVU1326
 4313 13b6 E7EE066A 		vfma.f32	s13, s14, s12
 106:src/engine.cpp ****     if(!h.gate && h.amp < 0.0004f){ h.active=false; return 0.0f; }
 4314              		.loc 1 106 11 view .LVU1327
 4315 13ba C3ED0A6A 		vstr.32	s13, [r3, #40]
 107:src/engine.cpp ****     // Pitch envelope decays to 1.0.
 4316              		.loc 1 107 5 is_stmt 1 view .LVU1328
 4317 13be 3AB9     		cbnz	r2, .L171
 107:src/engine.cpp ****     // Pitch envelope decays to 1.0.
 4318              		.loc 1 107 16 is_stmt 0 view .LVU1329
 4319 13c0 9FED5A7A 		vldr.32	s14, .L452+20
 4320 13c4 F4EEC76A 		vcmpe.f32	s13, s14
 4321 13c8 F1EE10FA 		vmrs	APSR_nzcv, FPSCR
 4322 13cc 00F16284 		bmi	.L432
 4323              	.L171:
 109:src/engine.cpp ****     float f = h.freq * h.pmult;
 4324              		.loc 1 109 5 is_stmt 1 view .LVU1330
 109:src/engine.cpp ****     float f = h.freq * h.pmult;
 4325              		.loc 1 109 31 is_stmt 0 view .LVU1331
 4326 13d0 B7EE007A 		vmov.f32	s14, #1.0e+0
 4327 13d4 D3ED0B5A 		vldr.32	s11, [r3, #44]
 4328              	.LVL292:
 109:src/engine.cpp ****     float f = h.freq * h.pmult;
 4329              		.loc 1 109 20 view .LVU1332
 4330 13d8 D3ED114A 		vldr.32	s9, [r3, #68]
 112:src/engine.cpp ****               + osc(h.ph2,V.osc2_wave)*V.osc2_level
 4331              		.loc 1 112 29 view .LVU1333
 4332 13dc 01EB8102 		add	r2, r1, r1, lsl #2
 109:src/engine.cpp ****     float f = h.freq * h.pmult;
ARM GAS  /tmp/claude-502/ccjNbcJ1.s 			page 104


 4333              		.loc 1 109 31 view .LVU1334
 4334 13e0 75EEC75A 		vsub.f32	s11, s11, s14
 112:src/engine.cpp ****               + osc(h.ph2,V.osc2_wave)*V.osc2_level
 4335              		.loc 1 112 29 view .LVU1335
 4336 13e4 07EB4212 		add	r2, r7, r2, lsl #5
 109:src/engine.cpp ****     float f = h.freq * h.pmult;
 4337              		.loc 1 109 20 view .LVU1336
 4338 13e8 B0EE476A 		vmov.f32	s12, s14
 4339              	.LVL293:
 112:src/engine.cpp ****               + osc(h.ph2,V.osc2_wave)*V.osc2_level
 4340              		.loc 1 112 29 view .LVU1337
 4341 13ec 92F818C0 		ldrb	ip, [r2, #24]	@ zero_extendqisi2
 4342 13f0 8A00     		lsls	r2, r1, #2
 109:src/engine.cpp ****     float f = h.freq * h.pmult;
 4343              		.loc 1 109 20 view .LVU1338
 4344 13f2 A5EEA46A 		vfma.f32	s12, s11, s9
 4345              	.LBB876:
 4346              	.LBB877:
  58:src/dsp.h     ****         case WAVE_SINE:   return osc_sine(ph);
 4347              		.loc 2 58 5 view .LVU1339
 4348 13f6 BCF1020F 		cmp	ip, #2
 4349              	.LBE877:
 4350              	.LBE876:
 110:src/engine.cpp ****     // Oscillators + noise
 4351              		.loc 1 110 11 view .LVU1340
 4352 13fa D3ED025A 		vldr.32	s11, [r3, #8]
 109:src/engine.cpp ****     float f = h.freq * h.pmult;
 4353              		.loc 1 109 13 view .LVU1341
 4354 13fe 83ED0B6A 		vstr.32	s12, [r3, #44]
 110:src/engine.cpp ****     // Oscillators + noise
 4355              		.loc 1 110 5 is_stmt 1 view .LVU1342
 110:src/engine.cpp ****     // Oscillators + noise
 4356              		.loc 1 110 11 is_stmt 0 view .LVU1343
 4357 1402 26EE256A 		vmul.f32	s12, s12, s11
 4358              	.LVL294:
 112:src/engine.cpp ****               + osc(h.ph2,V.osc2_wave)*V.osc2_level
 4359              		.loc 1 112 5 is_stmt 1 view .LVU1344
 112:src/engine.cpp ****               + osc(h.ph2,V.osc2_wave)*V.osc2_level
 4360              		.loc 1 112 20 is_stmt 0 view .LVU1345
 4361 1406 D3ED065A 		vldr.32	s11, [r3, #24]
 4362              	.LVL295:
 4363              	.LBB897:
 4364              	.LBI876:
  57:src/dsp.h     ****     switch(w){
 4365              		.loc 2 57 21 is_stmt 1 view .LVU1346
 4366              	.LBB891:
  58:src/dsp.h     ****         case WAVE_SINE:   return osc_sine(ph);
 4367              		.loc 2 58 5 view .LVU1347
 4368 140a 00F0F681 		beq	.L173
 4369 140e BCF1030F 		cmp	ip, #3
 4370 1412 00F0C881 		beq	.L174
 4371 1416 BCF1010F 		cmp	ip, #1
 4372 141a 00F00784 		beq	.L433
 4373              	.LVL296:
 4374              	.LBB878:
 4375              	.LBI878:
  57:src/dsp.h     ****     switch(w){
ARM GAS  /tmp/claude-502/ccjNbcJ1.s 			page 105


 4376              		.loc 2 57 21 view .LVU1348
  57:src/dsp.h     ****     switch(w){
 4377              		.loc 2 57 21 is_stmt 0 view .LVU1349
 4378              	.LBE878:
 4379              	.LBE891:
 4380              	.LBE897:
 4381              	.LBE875:
 4382              	.LBE874:
 4383              	.LBE873:
 4384              	.LBE1027:
 4385              	.LBE1110:
 4386              	.LBE1141:
 4387              	.LBE1156:
  62:src/dsp.h     ****         default:          return tri(ph);
 4388              		.loc 2 62 9 is_stmt 1 view .LVU1350
  63:src/dsp.h     ****     }
 4389              		.loc 2 63 9 view .LVU1351
  63:src/dsp.h     ****     }
 4390              		.loc 2 63 27 view .LVU1352
 4391              	.LBB1157:
 4392              	.LBB1142:
 4393              	.LBB1111:
 4394              	.LBB1028:
 4395              	.LBB1013:
 4396              	.LBB1005:
 4397              	.LBB997:
 4398              	.LBB898:
 4399              	.LBB892:
 4400              	.LBB883:
 4401              	.LBB879:
 4402              	.LBI879:
  40:src/dsp.h     ****     return ph<0.5f?(4.0f*ph-1.0f):(3.0f-4.0f*ph);
 4403              		.loc 2 40 21 view .LVU1353
 4404              	.LBB880:
  41:src/dsp.h     **** }
 4405              		.loc 2 41 5 view .LVU1354
  41:src/dsp.h     **** }
 4406              		.loc 2 41 19 is_stmt 0 view .LVU1355
 4407 141e B6EE007A 		vmov.f32	s14, #5.0e-1
 4408 1422 F1EE004A 		vmov.f32	s9, #4.0e+0
 4409 1426 F4EEC75A 		vcmpe.f32	s11, s14
 4410 142a F1EE10FA 		vmrs	APSR_nzcv, FPSCR
 4411 142e 40F17584 		bpl	.L392
 4412 1432 BFEE007A 		vmov.f32	s14, #-1.0e+0
 4413 1436 A5EEA47A 		vfma.f32	s14, s11, s9
 4414 143a BAE1     		b	.L180
 4415              	.LVL297:
 4416              	.L295:
  41:src/dsp.h     **** }
 4417              		.loc 2 41 19 view .LVU1356
 4418              	.LBE880:
 4419              	.LBE879:
 4420              	.LBE883:
 4421              	.LBE892:
 4422              	.LBE898:
 4423              	.LBE997:
 4424              	.LBE1005:
ARM GAS  /tmp/claude-502/ccjNbcJ1.s 			page 106


 4425              	.LBE1013:
 4426              	.LBE1028:
 4427              	.LBE1111:
 4428              	.LBB1112:
 4429              	.LBB682:
 4430              	.LBB673:
 4431              	.LBB664:
 4432              	.LBB640:
  26:src/dsp.h     ****     float x2=x*x;
 4433              		.loc 2 26 24 view .LVU1357
 4434 143c FFEE006A 		vmov.f32	s13, #-1.0e+0
 4435 1440 FFF781BB 		b	.L159
 4436              	.LVL298:
 4437              	.L298:
  26:src/dsp.h     ****     float x2=x*x;
 4438              		.loc 2 26 24 view .LVU1358
 4439              	.LBE640:
 4440              	.LBE664:
 4441              	.LBE673:
 4442              	.LBE682:
 4443              	.LBE1112:
 4444              	.LBB1113:
 4445              	.LBB1029:
 4446              	.LBB1014:
 4447              	.LBB1006:
 4448              	.LBB998:
 101:src/engine.cpp ****     const Voice& V = VOICES[h.vidx];
 4449              		.loc 1 101 26 view .LVU1359
 4450 1444 DFED376A 		vldr.32	s13, .L452+12
 4451              	.L166:
 101:src/engine.cpp ****     const Voice& V = VOICES[h.vidx];
 4452              		.loc 1 101 26 view .LVU1360
 4453              	.LBE998:
 4454              	.LBE1006:
 364:src/engine.cpp ****             sample = fast_tanh(m) * s_master_vol;
 4455              		.loc 1 364 30 view .LVU1361
 4456 1448 4C33     		adds	r3, r3, #76
 364:src/engine.cpp ****             sample = fast_tanh(m) * s_master_vol;
 4457              		.loc 1 364 45 view .LVU1362
 4458 144a 35EE265A 		vadd.f32	s10, s10, s13
 4459              	.LVL299:
 364:src/engine.cpp ****             sample = fast_tanh(m) * s_master_vol;
 4460              		.loc 1 364 13 is_stmt 1 view .LVU1363
 364:src/engine.cpp ****             sample = fast_tanh(m) * s_master_vol;
 4461              		.loc 1 364 30 view .LVU1364
 4462 144e 5345     		cmp	r3, r10
 4463 1450 94D1     		bne	.L227
 4464 1452 2B9B     		ldr	r3, [sp, #172]
 4465 1454 0BB1     		cbz	r3, .L228
 4466 1456 344B     		ldr	r3, .L452+16
 4467 1458 1860     		str	r0, [r3]
 4468              	.L228:
 4469              	.LBE1014:
 365:src/engine.cpp ****         }
 4470              		.loc 1 365 13 view .LVU1365
 4471              	.LVL300:
 4472              	.LBB1015:
ARM GAS  /tmp/claude-502/ccjNbcJ1.s 			page 107


 4473              	.LBI1015:
  23:src/dsp.h     **** {
 4474              		.loc 2 23 21 view .LVU1366
 4475              	.LBB1016:
  25:src/dsp.h     ****     if(x<-3.0f)return -1.0f;
 4476              		.loc 2 25 5 view .LVU1367
 4477 145a B0EE087A 		vmov.f32	s14, #3.0e+0
 4478 145e B4EEC75A 		vcmpe.f32	s10, s14
 4479 1462 F1EE10FA 		vmrs	APSR_nzcv, FPSCR
 4480 1466 00F36284 		bgt	.L310
  26:src/dsp.h     ****     float x2=x*x;
 4481              		.loc 2 26 5 view .LVU1368
 4482 146a B8EE087A 		vmov.f32	s14, #-3.0e+0
 4483 146e B4EEC75A 		vcmpe.f32	s10, s14
 4484 1472 F1EE10FA 		vmrs	APSR_nzcv, FPSCR
 4485 1476 00F16484 		bmi	.L434
 4486              	.LVL301:
 4487              	.LBB1017:
 4488              	.LBI1017:
  23:src/dsp.h     **** {
 4489              		.loc 2 23 21 view .LVU1369
 4490              	.LBB1018:
  27:src/dsp.h     ****     return x*(27.0f+x2)/(27.0f+9.0f*x2);
 4491              		.loc 2 27 5 view .LVU1370
  28:src/dsp.h     **** }
 4492              		.loc 2 28 20 is_stmt 0 view .LVU1371
 4493 147a F3EE0B6A 		vmov.f32	s13, #2.7e+1
  27:src/dsp.h     ****     return x*(27.0f+x2)/(27.0f+9.0f*x2);
 4494              		.loc 2 27 11 view .LVU1372
 4495 147e 25EE057A 		vmul.f32	s14, s10, s10
 4496              	.LVL302:
  28:src/dsp.h     **** }
 4497              		.loc 2 28 5 is_stmt 1 view .LVU1373
  28:src/dsp.h     **** }
 4498              		.loc 2 28 31 is_stmt 0 view .LVU1374
 4499 1482 B2EE026A 		vmov.f32	s12, #9.0e+0
 4500 1486 F0EE665A 		vmov.f32	s11, s13
 4501 148a E7EE065A 		vfma.f32	s11, s14, s12
 4502              	.LVL303:
  28:src/dsp.h     **** }
 4503              		.loc 2 28 20 view .LVU1375
 4504 148e 37EE267A 		vadd.f32	s14, s14, s13
  28:src/dsp.h     **** }
 4505              		.loc 2 28 13 view .LVU1376
 4506 1492 27EE055A 		vmul.f32	s10, s14, s10
 4507              	.LVL304:
  28:src/dsp.h     **** }
 4508              		.loc 2 28 39 view .LVU1377
 4509 1496 85EE256A 		vdiv.f32	s12, s10, s11
 4510              	.LBE1018:
 4511              	.LBE1017:
 4512              	.LBE1016:
 4513              	.LBE1015:
 365:src/engine.cpp ****         }
 4514              		.loc 1 365 20 view .LVU1378
 4515 149a 26EE096A 		vmul.f32	s12, s12, s18
 4516 149e FFF7F3BB 		b	.L165
ARM GAS  /tmp/claude-502/ccjNbcJ1.s 			page 108


 4517              	.LVL305:
 4518              	.L299:
 4519              	.LBB1020:
 4520              	.LBB1007:
 4521              	.LBB999:
 104:src/engine.cpp ****     float c   = (tgt > h.amp) ? h.atk_c : h.rel_c;
 4522              		.loc 1 104 24 view .LVU1379
 4523 14a2 DFED205A 		vldr.32	s11, .L452+12
 4524 14a6 75E7     		b	.L167
 4525              	.LVL306:
 4526              	.L262:
 104:src/engine.cpp ****     float c   = (tgt > h.amp) ? h.atk_c : h.rel_c;
 4527              		.loc 1 104 24 view .LVU1380
 4528              	.LBE999:
 4529              	.LBE1007:
 4530              	.LBE1020:
 4531              	.LBE1029:
 4532              	.LBE1113:
 4533              	.LBB1114:
 4534              	.LBB728:
 4535              	.LBB718:
 4536              	.LBB715:
 4537 14a8 DDED062A 		vldr.32	s5, [sp, #24]
 4538 14ac FFF760B8 		b	.L63
 4539              	.LVL307:
 4540              	.L266:
 104:src/engine.cpp ****     float c   = (tgt > h.amp) ? h.atk_c : h.rel_c;
 4541              		.loc 1 104 24 view .LVU1381
 4542              	.LBE715:
 4543              	.LBE718:
 4544              	.LBE728:
 4545              	.LBE1114:
 4546              	.LBB1115:
 4547              	.LBB791:
 4548              	.LBB780:
 4549              	.LBB775:
 4550 14b0 9DED27BA 		vldr.32	s22, [sp, #156]
 4551 14b4 FFF799B8 		b	.L83
 4552              	.LVL308:
 4553              	.L372:
 104:src/engine.cpp ****     float c   = (tgt > h.amp) ? h.atk_c : h.rel_c;
 4554              		.loc 1 104 24 view .LVU1382
 4555              	.LBE775:
 4556              	.LBE780:
 4557              	.LBE791:
 4558              	.LBE1115:
 4559              	.LBB1116:
 4560              	.LBB729:
 4561              	.LBB719:
 4562              	.LBB705:
 4563              	.LBB704:
  41:src/dsp.h     **** }
 4564              		.loc 2 41 19 view .LVU1383
 4565 14b8 F0EE082A 		vmov.f32	s5, #3.0e+0
 4566 14bc E0EE472A 		vfms.f32	s5, s0, s14
 4567              	.LBE704:
 4568              	.LBE705:
ARM GAS  /tmp/claude-502/ccjNbcJ1.s 			page 109


 4569              	.LBE719:
 4570              	.LBE729:
 4571              	.LBE1116:
 298:src/engine.cpp ****         float osc2    = osc(s_phase2,   VOICE.osc2_wave) * VOICE.osc2_level;
 4572              		.loc 1 298 66 view .LVU1384
 4573 14c0 9DED067A 		vldr.32	s14, [sp, #24]
 4574 14c4 62EE872A 		vmul.f32	s5, s5, s14
 4575 14c8 FFF752B8 		b	.L63
 4576              	.LVL309:
 4577              	.L264:
 4578              	.LBB1117:
 4579              	.LBB757:
 4580              	.LBB747:
 4581              	.LBB742:
 298:src/engine.cpp ****         float osc2    = osc(s_phase2,   VOICE.osc2_wave) * VOICE.osc2_level;
 4582              		.loc 1 298 66 view .LVU1385
 4583 14cc 9DED07DA 		vldr.32	s26, [sp, #28]
 4584 14d0 FFF76CB8 		b	.L73
 4585              	.LVL310:
 4586              	.L378:
 298:src/engine.cpp ****         float osc2    = osc(s_phase2,   VOICE.osc2_wave) * VOICE.osc2_level;
 4587              		.loc 1 298 66 view .LVU1386
 4588              	.LBE742:
 4589              	.LBE747:
 4590              	.LBE757:
 4591              	.LBE1117:
 4592              	.LBB1118:
 4593              	.LBB828:
 4594              	.LBB818:
 4595              	.LBB803:
 4596              	.LBB800:
  41:src/dsp.h     **** }
 4597              		.loc 2 41 19 view .LVU1387
 4598 14d4 B0EE08AA 		vmov.f32	s20, #3.0e+0
 4599              	.LBE800:
 4600              	.LBE803:
 4601              	.LBE818:
 4602              	.LBE828:
 4603              	.LBE1118:
 301:src/engine.cpp **** 
 4604              		.loc 1 301 66 view .LVU1388
 4605 14d8 9DED287A 		vldr.32	s14, [sp, #160]
 4606              	.LBB1119:
 4607              	.LBB829:
 4608              	.LBB819:
 4609              	.LBB804:
 4610              	.LBB801:
  41:src/dsp.h     **** }
 4611              		.loc 2 41 19 view .LVU1389
 4612 14dc A1EEC2AA 		vfms.f32	s20, s3, s4
 4613              	.LBE801:
 4614              	.LBE804:
 4615              	.LBE819:
 4616              	.LBE829:
 4617              	.LBE1119:
 301:src/engine.cpp **** 
 4618              		.loc 1 301 66 view .LVU1390
ARM GAS  /tmp/claude-502/ccjNbcJ1.s 			page 110


 4619 14e0 2AEE07AA 		vmul.f32	s20, s20, s14
 4620 14e4 FFF7A0B8 		b	.L93
 4621              	.LVL311:
 4622              	.L374:
 4623              	.LBB1120:
 4624              	.LBB758:
 4625              	.LBB748:
 4626              	.LBB738:
 4627              	.LBB737:
  41:src/dsp.h     **** }
 4628              		.loc 2 41 19 view .LVU1391
 4629 14e8 B0EE08DA 		vmov.f32	s26, #3.0e+0
 4630 14ec A0EEC7DA 		vfms.f32	s26, s1, s14
 4631              	.LBE737:
 4632              	.LBE738:
 4633              	.LBE748:
 4634              	.LBE758:
 4635              	.LBE1120:
 299:src/engine.cpp ****         float sub     = osc(s_phase_sub,VOICE.sub_wave)  * VOICE.sub_level;
 4636              		.loc 1 299 66 view .LVU1392
 4637 14f0 9DED077A 		vldr.32	s14, [sp, #28]
 4638 14f4 2DEE07DA 		vmul.f32	s26, s26, s14
 4639 14f8 FFF758B8 		b	.L73
 4640              	.LVL312:
 4641              	.L376:
 4642              	.LBB1121:
 4643              	.LBB792:
 4644              	.LBB781:
 4645              	.LBB767:
 4646              	.LBB766:
  41:src/dsp.h     **** }
 4647              		.loc 2 41 19 view .LVU1393
 4648 14fc B0EE08BA 		vmov.f32	s22, #3.0e+0
 4649 1500 A1EE47BA 		vfms.f32	s22, s2, s14
 4650              	.LBE766:
 4651              	.LBE767:
 4652              	.LBE781:
 4653              	.LBE792:
 4654              	.LBE1121:
 300:src/engine.cpp ****         float osc_oct = osc(s_phase_oct,VOICE.oct_wave)  * VOICE.oct_level;
 4655              		.loc 1 300 66 view .LVU1394
 4656 1504 9DED277A 		vldr.32	s14, [sp, #156]
 4657 1508 2BEE07BA 		vmul.f32	s22, s22, s14
 4658 150c FFF76DB8 		b	.L83
 4659              	.LVL313:
 4660              	.L268:
 4661              	.LBB1122:
 4662              	.LBB830:
 4663              	.LBB820:
 4664              	.LBB817:
 300:src/engine.cpp ****         float osc_oct = osc(s_phase_oct,VOICE.oct_wave)  * VOICE.oct_level;
 4665              		.loc 1 300 66 view .LVU1395
 4666 1510 9DED28AA 		vldr.32	s20, [sp, #160]
 4667 1514 FFF788B8 		b	.L93
 4668              	.L453:
 4669              		.align	2
 4670              	.L452:
ARM GAS  /tmp/claude-502/ccjNbcJ1.s 			page 111


 4671 1518 00000000 		.word	.LANCHOR37
 4672 151c 00000000 		.word	.LANCHOR38
 4673 1520 00000000 		.word	.LANCHOR47
 4674 1524 00000000 		.word	0
 4675 1528 00000000 		.word	.LANCHOR40
 4676 152c 17B7D139 		.word	970045207
 4677 1530 83F9A23F 		.word	1067645315
 4678 1534 7B81CF3E 		.word	1053786491
 4679 1538 6666663E 		.word	1046898278
 4680 153c DB0F4940 		.word	1078530011
 4681 1540 DB0F49C0 		.word	-1068953637
 4682              	.LVL314:
 4683              	.L425:
 300:src/engine.cpp ****         float osc_oct = osc(s_phase_oct,VOICE.oct_wave)  * VOICE.oct_level;
 4684              		.loc 1 300 66 view .LVU1396
 4685              	.LBE817:
 4686              	.LBE820:
 4687              	.LBE830:
 4688              	.LBE1122:
 4689              	.LBB1123:
 4690              	.LBB588:
 4691              	.LBB557:
 4692              	.LBB548:
  59:src/dsp.h     ****         case WAVE_SQUARE: return osc_square(ph);
 4693              		.loc 2 59 9 is_stmt 1 view .LVU1397
  59:src/dsp.h     ****         case WAVE_SQUARE: return osc_square(ph);
 4694              		.loc 2 59 27 view .LVU1398
 4695              	.LBB535:
 4696              	.LBI535:
  44:src/dsp.h     ****     constexpr float PI = 3.14159265f;
 4697              		.loc 2 44 21 view .LVU1399
 4698              	.LBB536:
  45:src/dsp.h     ****     float x = ph*2.0f*PI - PI;                 // -π..π (angle shifted by π)
 4699              		.loc 2 45 5 view .LVU1400
  46:src/dsp.h     ****     float y = 1.27323954f*x - 0.405284735f*x*(x<0?-x:x);
 4700              		.loc 2 46 5 view .LVU1401
  46:src/dsp.h     ****     float y = 1.27323954f*x - 0.405284735f*x*(x<0?-x:x);
 4701              		.loc 2 46 17 is_stmt 0 view .LVU1402
 4702 1544 3BEE0B2A 		vadd.f32	s4, s22, s22
  46:src/dsp.h     ****     float y = 1.27323954f*x - 0.405284735f*x*(x<0?-x:x);
 4703              		.loc 2 46 11 view .LVU1403
 4704 1548 5FED042A 		vldr.32	s5, .L452+36
 4705 154c 1FED04FA 		vldr.32	s30, .L452+40
 4706 1550 A2EE22FA 		vfma.f32	s30, s4, s5
 4707              	.LVL315:
  47:src/dsp.h     ****     y = 0.225f*(y*(y<0?-y:y) - y) + y;         // one refinement pass
 4708              		.loc 2 47 5 is_stmt 1 view .LVU1404
  47:src/dsp.h     ****     y = 0.225f*(y*(y<0?-y:y) - y) + y;         // one refinement pass
 4709              		.loc 2 47 26 is_stmt 0 view .LVU1405
 4710 1554 1FED0A2A 		vldr.32	s4, .L452+24
  47:src/dsp.h     ****     y = 0.225f*(y*(y<0?-y:y) - y) + y;         // one refinement pass
 4711              		.loc 2 47 43 view .LVU1406
 4712 1558 5FED0A2A 		vldr.32	s5, .L452+28
  47:src/dsp.h     ****     y = 0.225f*(y*(y<0?-y:y) - y) + y;         // one refinement pass
 4713              		.loc 2 47 50 view .LVU1407
 4714 155c B5EEC0FA 		vcmpe.f32	s30, #0
  47:src/dsp.h     ****     y = 0.225f*(y*(y<0?-y:y) - y) + y;         // one refinement pass
ARM GAS  /tmp/claude-502/ccjNbcJ1.s 			page 112


 4715              		.loc 2 47 43 view .LVU1408
 4716 1560 6FEE222A 		vmul.f32	s5, s30, s5
  47:src/dsp.h     ****     y = 0.225f*(y*(y<0?-y:y) - y) + y;         // one refinement pass
 4717              		.loc 2 47 26 view .LVU1409
 4718 1564 2FEE022A 		vmul.f32	s4, s30, s4
  47:src/dsp.h     ****     y = 0.225f*(y*(y<0?-y:y) - y) + y;         // one refinement pass
 4719              		.loc 2 47 50 view .LVU1410
 4720 1568 F1EE10FA 		vmrs	APSR_nzcv, FPSCR
 4721 156c 48BF     		it	mi
 4722 156e B1EE4FFA 		vnegmi.f32	s30, s30
 4723              	.LVL316:
  47:src/dsp.h     ****     y = 0.225f*(y*(y<0?-y:y) - y) + y;         // one refinement pass
 4724              		.loc 2 47 11 view .LVU1411
 4725 1572 A2EECF2A 		vfms.f32	s4, s5, s30
 4726              	.LVL317:
  48:src/dsp.h     ****     return -y;                                 // undo the π shift: sin(x+π) = -sin(x)
 4727              		.loc 2 48 5 is_stmt 1 view .LVU1412
  48:src/dsp.h     ****     return -y;                                 // undo the π shift: sin(x+π) = -sin(x)
 4728              		.loc 2 48 23 is_stmt 0 view .LVU1413
 4729 1576 B5EEC02A 		vcmpe.f32	s4, #0
 4730 157a B1EE42FA 		vneg.f32	s30, s4
 4731 157e F1EE10FA 		vmrs	APSR_nzcv, FPSCR
 4732 1582 54BF     		ite	pl
 4733 1584 F0EE422A 		vmovpl.f32	s5, s4
 4734 1588 F0EE4F2A 		vmovmi.f32	s5, s30
  48:src/dsp.h     ****     return -y;                                 // undo the π shift: sin(x+π) = -sin(x)
 4735              		.loc 2 48 30 view .LVU1414
 4736 158c A2EE22FA 		vfma.f32	s30, s4, s5
  48:src/dsp.h     ****     return -y;                                 // undo the π shift: sin(x+π) = -sin(x)
 4737              		.loc 2 48 7 view .LVU1415
 4738 1590 5FED172A 		vldr.32	s5, .L452+32
 4739 1594 AFEE222A 		vfma.f32	s4, s30, s5
 4740              	.LVL318:
  49:src/dsp.h     **** }
 4741              		.loc 2 49 5 is_stmt 1 view .LVU1416
  49:src/dsp.h     **** }
 4742              		.loc 2 49 5 is_stmt 0 view .LVU1417
 4743              	.LBE536:
 4744              	.LBE535:
 4745              	.LBE548:
 4746              	.LBE557:
 336:src/engine.cpp ****             s_phase1b += f3*VOICE.osc1_ratio/sr; if(s_phase1b>=1.0f)s_phase1b-=1.0f;
 4747              		.loc 1 336 53 view .LVU1418
 4748 1598 DDED072A 		vldr.32	s5, [sp, #28]
 4749 159c 62EE622A 		vnmul.f32	s5, s4, s5
 4750              	.LBB558:
 4751              	.LBB549:
  59:src/dsp.h     ****         case WAVE_SQUARE: return osc_square(ph);
 4752              		.loc 2 59 45 view .LVU1419
 4753 15a0 FFF70CB9 		b	.L136
 4754              	.LVL319:
 4755              	.L130:
  61:src/dsp.h     ****         case WAVE_TRI:
 4756              		.loc 2 61 9 is_stmt 1 view .LVU1420
  61:src/dsp.h     ****         case WAVE_TRI:
 4757              		.loc 2 61 27 view .LVU1421
 4758              	.LBB537:
ARM GAS  /tmp/claude-502/ccjNbcJ1.s 			page 113


 4759              	.LBI537:
  53:src/dsp.h     **** 
 4760              		.loc 2 53 21 view .LVU1422
 4761              	.LBB538:
  53:src/dsp.h     **** 
 4762              		.loc 2 53 40 view .LVU1423
  53:src/dsp.h     **** 
 4763              		.loc 2 53 57 is_stmt 0 view .LVU1424
 4764 15a4 B0EE00FA 		vmov.f32	s30, #2.0e+0
 4765              	.LBE538:
 4766              	.LBE537:
 4767              	.LBE549:
 4768              	.LBE558:
 336:src/engine.cpp ****             s_phase1b += f3*VOICE.osc1_ratio/sr; if(s_phase1b>=1.0f)s_phase1b-=1.0f;
 4769              		.loc 1 336 53 view .LVU1425
 4770 15a8 DDED072A 		vldr.32	s5, [sp, #28]
 4771              	.LBB559:
 4772              	.LBB550:
 4773              	.LBB540:
 4774              	.LBB539:
  53:src/dsp.h     **** 
 4775              		.loc 2 53 57 view .LVU1426
 4776 15ac BFEE002A 		vmov.f32	s4, #-1.0e+0
 4777 15b0 ABEE0F2A 		vfma.f32	s4, s22, s30
 4778              	.LVL320:
  53:src/dsp.h     **** 
 4779              		.loc 2 53 57 view .LVU1427
 4780              	.LBE539:
 4781              	.LBE540:
 4782              	.LBE550:
 4783              	.LBE559:
 336:src/engine.cpp ****             s_phase1b += f3*VOICE.osc1_ratio/sr; if(s_phase1b>=1.0f)s_phase1b-=1.0f;
 4784              		.loc 1 336 53 view .LVU1428
 4785 15b4 62EE222A 		vmul.f32	s5, s4, s5
 4786              	.LBB560:
 4787              	.LBB551:
  61:src/dsp.h     ****         case WAVE_TRI:
 4788              		.loc 2 61 44 view .LVU1429
 4789 15b8 FFF700B9 		b	.L136
 4790              	.L129:
  60:src/dsp.h     ****         case WAVE_SAW:    return osc_saw(ph);
 4791              		.loc 2 60 9 is_stmt 1 view .LVU1430
  60:src/dsp.h     ****         case WAVE_SAW:    return osc_saw(ph);
 4792              		.loc 2 60 27 view .LVU1431
 4793              	.LVL321:
 4794              	.LBB541:
 4795              	.LBI541:
  52:src/dsp.h     **** static inline float osc_saw(float ph){ return 2.0f*ph - 1.0f; }
 4796              		.loc 2 52 21 view .LVU1432
 4797              	.LBB542:
  52:src/dsp.h     **** static inline float osc_saw(float ph){ return 2.0f*ph - 1.0f; }
 4798              		.loc 2 52 43 view .LVU1433
  52:src/dsp.h     **** static inline float osc_saw(float ph){ return 2.0f*ph - 1.0f; }
 4799              		.loc 2 52 58 is_stmt 0 view .LVU1434
 4800 15bc F6EE002A 		vmov.f32	s5, #5.0e-1
 4801 15c0 B4EEE2BA 		vcmpe.f32	s22, s5
 4802 15c4 DDED072A 		vldr.32	s5, [sp, #28]
ARM GAS  /tmp/claude-502/ccjNbcJ1.s 			page 114


 4803 15c8 F1EE10FA 		vmrs	APSR_nzcv, FPSCR
 4804 15cc 3FF5F6A8 		bmi	.L136
 4805 15d0 F1EE622A 		vneg.f32	s5, s5
 4806 15d4 FFF7F2B8 		b	.L136
 4807              	.LVL322:
 4808              	.L424:
  52:src/dsp.h     **** static inline float osc_saw(float ph){ return 2.0f*ph - 1.0f; }
 4809              		.loc 2 52 58 view .LVU1435
 4810              	.LBE542:
 4811              	.LBE541:
 4812              	.LBE551:
 4813              	.LBE560:
 4814              	.LBB561:
 4815              	.LBB515:
  59:src/dsp.h     ****         case WAVE_SQUARE: return osc_square(ph);
 4816              		.loc 2 59 9 is_stmt 1 view .LVU1436
  59:src/dsp.h     ****         case WAVE_SQUARE: return osc_square(ph);
 4817              		.loc 2 59 27 view .LVU1437
 4818              	.LBB504:
 4819              	.LBI504:
  44:src/dsp.h     ****     constexpr float PI = 3.14159265f;
 4820              		.loc 2 44 21 view .LVU1438
 4821              	.LBB505:
  45:src/dsp.h     ****     float x = ph*2.0f*PI - PI;                 // -π..π (angle shifted by π)
 4822              		.loc 2 45 5 view .LVU1439
  46:src/dsp.h     ****     float y = 1.27323954f*x - 0.405284735f*x*(x<0?-x:x);
 4823              		.loc 2 46 5 view .LVU1440
  46:src/dsp.h     ****     float y = 1.27323954f*x - 0.405284735f*x*(x<0?-x:x);
 4824              		.loc 2 46 17 is_stmt 0 view .LVU1441
 4825 15d8 7DEE0D8A 		vadd.f32	s17, s26, s26
  46:src/dsp.h     ****     float y = 1.27323954f*x - 0.405284735f*x*(x<0?-x:x);
 4826              		.loc 2 46 11 view .LVU1442
 4827 15dc 5FED292A 		vldr.32	s5, .L452+36
 4828 15e0 1FED292A 		vldr.32	s4, .L452+40
  47:src/dsp.h     ****     y = 0.225f*(y*(y<0?-y:y) - y) + y;         // one refinement pass
 4829              		.loc 2 47 43 view .LVU1443
 4830 15e4 1FED2DBA 		vldr.32	s22, .L452+28
  46:src/dsp.h     ****     float y = 1.27323954f*x - 0.405284735f*x*(x<0?-x:x);
 4831              		.loc 2 46 11 view .LVU1444
 4832 15e8 A8EEA22A 		vfma.f32	s4, s17, s5
 4833              	.LVL323:
  47:src/dsp.h     ****     y = 0.225f*(y*(y<0?-y:y) - y) + y;         // one refinement pass
 4834              		.loc 2 47 5 is_stmt 1 view .LVU1445
  47:src/dsp.h     ****     y = 0.225f*(y*(y<0?-y:y) - y) + y;         // one refinement pass
 4835              		.loc 2 47 26 is_stmt 0 view .LVU1446
 4836 15ec 5FED302A 		vldr.32	s5, .L452+24
  47:src/dsp.h     ****     y = 0.225f*(y*(y<0?-y:y) - y) + y;         // one refinement pass
 4837              		.loc 2 47 50 view .LVU1447
 4838 15f0 B5EEC02A 		vcmpe.f32	s4, #0
  47:src/dsp.h     ****     y = 0.225f*(y*(y<0?-y:y) - y) + y;         // one refinement pass
 4839              		.loc 2 47 43 view .LVU1448
 4840 15f4 22EE0BBA 		vmul.f32	s22, s4, s22
  47:src/dsp.h     ****     y = 0.225f*(y*(y<0?-y:y) - y) + y;         // one refinement pass
 4841              		.loc 2 47 26 view .LVU1449
 4842 15f8 62EE222A 		vmul.f32	s5, s4, s5
  47:src/dsp.h     ****     y = 0.225f*(y*(y<0?-y:y) - y) + y;         // one refinement pass
 4843              		.loc 2 47 50 view .LVU1450
ARM GAS  /tmp/claude-502/ccjNbcJ1.s 			page 115


 4844 15fc F1EE10FA 		vmrs	APSR_nzcv, FPSCR
 4845 1600 48BF     		it	mi
 4846 1602 B1EE422A 		vnegmi.f32	s4, s4
 4847              	.LVL324:
  47:src/dsp.h     ****     y = 0.225f*(y*(y<0?-y:y) - y) + y;         // one refinement pass
 4848              		.loc 2 47 11 view .LVU1451
 4849 1606 EBEE422A 		vfms.f32	s5, s22, s4
 4850              	.LVL325:
  48:src/dsp.h     ****     return -y;                                 // undo the π shift: sin(x+π) = -sin(x)
 4851              		.loc 2 48 5 is_stmt 1 view .LVU1452
  48:src/dsp.h     ****     return -y;                                 // undo the π shift: sin(x+π) = -sin(x)
 4852              		.loc 2 48 7 is_stmt 0 view .LVU1453
 4853 160a 1FED35BA 		vldr.32	s22, .L452+32
  48:src/dsp.h     ****     return -y;                                 // undo the π shift: sin(x+π) = -sin(x)
 4854              		.loc 2 48 23 view .LVU1454
 4855 160e F5EEC02A 		vcmpe.f32	s5, #0
 4856 1612 B1EE622A 		vneg.f32	s4, s5
 4857 1616 F1EE10FA 		vmrs	APSR_nzcv, FPSCR
 4858 161a 54BF     		ite	pl
 4859 161c F0EE628A 		vmovpl.f32	s17, s5
 4860              	.LVL326:
  48:src/dsp.h     ****     return -y;                                 // undo the π shift: sin(x+π) = -sin(x)
 4861              		.loc 2 48 23 view .LVU1455
 4862 1620 F0EE428A 		vmovmi.f32	s17, s4
  48:src/dsp.h     ****     return -y;                                 // undo the π shift: sin(x+π) = -sin(x)
 4863              		.loc 2 48 30 view .LVU1456
 4864 1624 A2EEA82A 		vfma.f32	s4, s5, s17
  48:src/dsp.h     ****     return -y;                                 // undo the π shift: sin(x+π) = -sin(x)
 4865              		.loc 2 48 7 view .LVU1457
 4866 1628 E2EE0B2A 		vfma.f32	s5, s4, s22
 4867              	.LVL327:
  49:src/dsp.h     **** }
 4868              		.loc 2 49 5 is_stmt 1 view .LVU1458
  49:src/dsp.h     **** }
 4869              		.loc 2 49 5 is_stmt 0 view .LVU1459
 4870              	.LBE505:
 4871              	.LBE504:
 4872              	.LBE515:
 4873              	.LBE561:
 335:src/engine.cpp ****                   + osc(s_phase2c, VOICE.osc2_wave) * VOICE.osc2_level) * CHORD_UPPER_LEVEL;
 4874              		.loc 1 335 53 view .LVU1460
 4875 162c 9DED062A 		vldr.32	s4, [sp, #24]
 4876 1630 62EEC28A 		vnmul.f32	s17, s5, s4
 4877              	.LBB562:
 4878              	.LBB516:
  59:src/dsp.h     ****         case WAVE_SQUARE: return osc_square(ph);
 4879              		.loc 2 59 45 view .LVU1461
 4880 1634 FFF7A3B8 		b	.L126
 4881              	.LVL328:
 4882              	.L120:
  61:src/dsp.h     ****         case WAVE_TRI:
 4883              		.loc 2 61 9 is_stmt 1 view .LVU1462
  61:src/dsp.h     ****         case WAVE_TRI:
 4884              		.loc 2 61 27 view .LVU1463
 4885              	.LBB506:
 4886              	.LBI506:
  53:src/dsp.h     **** 
ARM GAS  /tmp/claude-502/ccjNbcJ1.s 			page 116


 4887              		.loc 2 53 21 view .LVU1464
 4888              	.LBB507:
  53:src/dsp.h     **** 
 4889              		.loc 2 53 40 view .LVU1465
  53:src/dsp.h     **** 
 4890              		.loc 2 53 57 is_stmt 0 view .LVU1466
 4891 1638 B0EE002A 		vmov.f32	s4, #2.0e+0
 4892 163c FFEE002A 		vmov.f32	s5, #-1.0e+0
 4893 1640 EDEE022A 		vfma.f32	s5, s26, s4
 4894              	.LVL329:
  53:src/dsp.h     **** 
 4895              		.loc 2 53 57 view .LVU1467
 4896              	.LBE507:
 4897              	.LBE506:
 4898              	.LBE516:
 4899              	.LBE562:
 335:src/engine.cpp ****                   + osc(s_phase2c, VOICE.osc2_wave) * VOICE.osc2_level) * CHORD_UPPER_LEVEL;
 4900              		.loc 1 335 53 view .LVU1468
 4901 1644 9DED062A 		vldr.32	s4, [sp, #24]
 4902 1648 62EE828A 		vmul.f32	s17, s5, s4
 4903              	.LBB563:
 4904              	.LBB517:
  61:src/dsp.h     ****         case WAVE_TRI:
 4905              		.loc 2 61 44 view .LVU1469
 4906 164c FFF797B8 		b	.L126
 4907              	.L119:
  60:src/dsp.h     ****         case WAVE_SAW:    return osc_saw(ph);
 4908              		.loc 2 60 9 is_stmt 1 view .LVU1470
  60:src/dsp.h     ****         case WAVE_SAW:    return osc_saw(ph);
 4909              		.loc 2 60 27 view .LVU1471
 4910              	.LVL330:
 4911              	.LBB508:
 4912              	.LBI508:
  52:src/dsp.h     **** static inline float osc_saw(float ph){ return 2.0f*ph - 1.0f; }
 4913              		.loc 2 52 21 view .LVU1472
 4914              	.LBB509:
  52:src/dsp.h     **** static inline float osc_saw(float ph){ return 2.0f*ph - 1.0f; }
 4915              		.loc 2 52 43 view .LVU1473
  52:src/dsp.h     **** static inline float osc_saw(float ph){ return 2.0f*ph - 1.0f; }
 4916              		.loc 2 52 58 is_stmt 0 view .LVU1474
 4917 1650 F6EE002A 		vmov.f32	s5, #5.0e-1
 4918 1654 B4EEE2DA 		vcmpe.f32	s26, s5
 4919 1658 F1EE10FA 		vmrs	APSR_nzcv, FPSCR
 4920 165c 00F14B83 		bmi	.L275
 4921 1660 DDED062A 		vldr.32	s5, [sp, #24]
 4922 1664 F1EE628A 		vneg.f32	s17, s5
 4923 1668 FFF789B8 		b	.L126
 4924              	.LVL331:
 4925              	.L423:
  52:src/dsp.h     **** static inline float osc_saw(float ph){ return 2.0f*ph - 1.0f; }
 4926              		.loc 2 52 58 view .LVU1475
 4927              	.LBE509:
 4928              	.LBE508:
 4929              	.LBE517:
 4930              	.LBE563:
 4931              	.LBB564:
 4932              	.LBB487:
ARM GAS  /tmp/claude-502/ccjNbcJ1.s 			page 117


  59:src/dsp.h     ****         case WAVE_SQUARE: return osc_square(ph);
 4933              		.loc 2 59 9 is_stmt 1 view .LVU1476
  59:src/dsp.h     ****         case WAVE_SQUARE: return osc_square(ph);
 4934              		.loc 2 59 27 view .LVU1477
 4935              	.LBB478:
 4936              	.LBI478:
  44:src/dsp.h     ****     constexpr float PI = 3.14159265f;
 4937              		.loc 2 44 21 view .LVU1478
 4938              	.LBB479:
  45:src/dsp.h     ****     float x = ph*2.0f*PI - PI;                 // -π..π (angle shifted by π)
 4939              		.loc 2 45 5 view .LVU1479
  46:src/dsp.h     ****     float y = 1.27323954f*x - 0.405284735f*x*(x<0?-x:x);
 4940              		.loc 2 46 5 view .LVU1480
  46:src/dsp.h     ****     float y = 1.27323954f*x - 0.405284735f*x*(x<0?-x:x);
 4941              		.loc 2 46 17 is_stmt 0 view .LVU1481
 4942 166c 3DEEADBA 		vadd.f32	s22, s27, s27
  46:src/dsp.h     ****     float y = 1.27323954f*x - 0.405284735f*x*(x<0?-x:x);
 4943              		.loc 2 46 11 view .LVU1482
 4944 1670 5FED4E2A 		vldr.32	s5, .L452+36
 4945 1674 5FED4E8A 		vldr.32	s17, .L452+40
 4946 1678 EBEE228A 		vfma.f32	s17, s22, s5
 4947              	.LVL332:
  47:src/dsp.h     ****     y = 0.225f*(y*(y<0?-y:y) - y) + y;         // one refinement pass
 4948              		.loc 2 47 5 is_stmt 1 view .LVU1483
  47:src/dsp.h     ****     y = 0.225f*(y*(y<0?-y:y) - y) + y;         // one refinement pass
 4949              		.loc 2 47 26 is_stmt 0 view .LVU1484
 4950 167c 5FED542A 		vldr.32	s5, .L452+24
  47:src/dsp.h     ****     y = 0.225f*(y*(y<0?-y:y) - y) + y;         // one refinement pass
 4951              		.loc 2 47 43 view .LVU1485
 4952 1680 1FED54BA 		vldr.32	s22, .L452+28
  47:src/dsp.h     ****     y = 0.225f*(y*(y<0?-y:y) - y) + y;         // one refinement pass
 4953              		.loc 2 47 50 view .LVU1486
 4954 1684 F5EEC08A 		vcmpe.f32	s17, #0
  47:src/dsp.h     ****     y = 0.225f*(y*(y<0?-y:y) - y) + y;         // one refinement pass
 4955              		.loc 2 47 43 view .LVU1487
 4956 1688 28EE8BBA 		vmul.f32	s22, s17, s22
  47:src/dsp.h     ****     y = 0.225f*(y*(y<0?-y:y) - y) + y;         // one refinement pass
 4957              		.loc 2 47 26 view .LVU1488
 4958 168c 68EEA22A 		vmul.f32	s5, s17, s5
  47:src/dsp.h     ****     y = 0.225f*(y*(y<0?-y:y) - y) + y;         // one refinement pass
 4959              		.loc 2 47 50 view .LVU1489
 4960 1690 F1EE10FA 		vmrs	APSR_nzcv, FPSCR
 4961 1694 48BF     		it	mi
 4962 1696 F1EE688A 		vnegmi.f32	s17, s17
 4963              	.LVL333:
  47:src/dsp.h     ****     y = 0.225f*(y*(y<0?-y:y) - y) + y;         // one refinement pass
 4964              		.loc 2 47 11 view .LVU1490
 4965 169a EBEE682A 		vfms.f32	s5, s22, s17
 4966              	.LVL334:
  48:src/dsp.h     ****     return -y;                                 // undo the π shift: sin(x+π) = -sin(x)
 4967              		.loc 2 48 5 is_stmt 1 view .LVU1491
  48:src/dsp.h     ****     return -y;                                 // undo the π shift: sin(x+π) = -sin(x)
 4968              		.loc 2 48 23 is_stmt 0 view .LVU1492
 4969 169e F5EEC02A 		vcmpe.f32	s5, #0
 4970 16a2 F1EE628A 		vneg.f32	s17, s5
 4971 16a6 F1EE10FA 		vmrs	APSR_nzcv, FPSCR
 4972 16aa 54BF     		ite	pl
ARM GAS  /tmp/claude-502/ccjNbcJ1.s 			page 118


 4973 16ac B0EE62BA 		vmovpl.f32	s22, s5
 4974 16b0 B0EE68BA 		vmovmi.f32	s22, s17
  48:src/dsp.h     ****     return -y;                                 // undo the π shift: sin(x+π) = -sin(x)
 4975              		.loc 2 48 30 view .LVU1493
 4976 16b4 E2EE8B8A 		vfma.f32	s17, s5, s22
  48:src/dsp.h     ****     return -y;                                 // undo the π shift: sin(x+π) = -sin(x)
 4977              		.loc 2 48 7 view .LVU1494
 4978 16b8 1FED61BA 		vldr.32	s22, .L452+32
 4979 16bc E8EE8B2A 		vfma.f32	s5, s17, s22
 4980              	.LVL335:
  49:src/dsp.h     **** }
 4981              		.loc 2 49 5 is_stmt 1 view .LVU1495
  49:src/dsp.h     **** }
 4982              		.loc 2 49 5 is_stmt 0 view .LVU1496
 4983              	.LBE479:
 4984              	.LBE478:
 4985              	.LBE487:
 4986              	.LBE564:
 334:src/engine.cpp ****             mix += (osc(s_phase1c, VOICE.osc1_wave) * VOICE.osc1_level
 4987              		.loc 1 334 53 view .LVU1497
 4988 16c0 DDED078A 		vldr.32	s17, [sp, #28]
 4989 16c4 62EEE82A 		vnmul.f32	s5, s5, s17
 4990              	.LBB565:
 4991              	.LBB488:
  59:src/dsp.h     ****         case WAVE_SQUARE: return osc_square(ph);
 4992              		.loc 2 59 45 view .LVU1498
 4993 16c8 FFF735B8 		b	.L116
 4994              	.LVL336:
 4995              	.L422:
  59:src/dsp.h     ****         case WAVE_SQUARE: return osc_square(ph);
 4996              		.loc 2 59 45 view .LVU1499
 4997              	.LBE488:
 4998              	.LBE565:
 4999              	.LBB566:
 5000              	.LBB460:
  59:src/dsp.h     ****         case WAVE_SQUARE: return osc_square(ph);
 5001              		.loc 2 59 9 is_stmt 1 view .LVU1500
  59:src/dsp.h     ****         case WAVE_SQUARE: return osc_square(ph);
 5002              		.loc 2 59 27 view .LVU1501
 5003              	.LBB443:
 5004              	.LBI443:
  44:src/dsp.h     ****     constexpr float PI = 3.14159265f;
 5005              		.loc 2 44 21 view .LVU1502
 5006              	.LBB444:
  45:src/dsp.h     ****     float x = ph*2.0f*PI - PI;                 // -π..π (angle shifted by π)
 5007              		.loc 2 45 5 view .LVU1503
  46:src/dsp.h     ****     float y = 1.27323954f*x - 0.405284735f*x*(x<0?-x:x);
 5008              		.loc 2 46 5 view .LVU1504
  46:src/dsp.h     ****     float y = 1.27323954f*x - 0.405284735f*x*(x<0?-x:x);
 5009              		.loc 2 46 17 is_stmt 0 view .LVU1505
 5010 16cc 7EEEAE8A 		vadd.f32	s17, s29, s29
  46:src/dsp.h     ****     float y = 1.27323954f*x - 0.405284735f*x*(x<0?-x:x);
 5011              		.loc 2 46 11 view .LVU1506
 5012 16d0 1FED662A 		vldr.32	s4, .L452+36
 5013              	.LVL337:
  46:src/dsp.h     ****     float y = 1.27323954f*x - 0.405284735f*x*(x<0?-x:x);
 5014              		.loc 2 46 11 view .LVU1507
ARM GAS  /tmp/claude-502/ccjNbcJ1.s 			page 119


 5015 16d4 5FED662A 		vldr.32	s5, .L452+40
 5016              	.LBE444:
 5017              	.LBE443:
 5018              	.LBE460:
 5019              	.LBE566:
 334:src/engine.cpp ****             mix += (osc(s_phase1c, VOICE.osc1_wave) * VOICE.osc1_level
 5020              		.loc 1 334 24 view .LVU1508
 5021 16d8 B448     		ldr	r0, .L454
 5022              	.LBB567:
 5023              	.LBB461:
 5024              	.LBB448:
 5025              	.LBB445:
  46:src/dsp.h     ****     float y = 1.27323954f*x - 0.405284735f*x*(x<0?-x:x);
 5026              		.loc 2 46 11 view .LVU1509
 5027 16da E8EE822A 		vfma.f32	s5, s17, s4
 5028              	.LVL338:
  47:src/dsp.h     ****     y = 0.225f*(y*(y<0?-y:y) - y) + y;         // one refinement pass
 5029              		.loc 2 47 5 is_stmt 1 view .LVU1510
  47:src/dsp.h     ****     y = 0.225f*(y*(y<0?-y:y) - y) + y;         // one refinement pass
 5030              		.loc 2 47 26 is_stmt 0 view .LVU1511
 5031 16de 9FEDB92A 		vldr.32	s4, .L454+24
  47:src/dsp.h     ****     y = 0.225f*(y*(y<0?-y:y) - y) + y;         // one refinement pass
 5032              		.loc 2 47 43 view .LVU1512
 5033 16e2 DFEDB98A 		vldr.32	s17, .L454+28
 5034              	.LBE445:
 5035              	.LBE448:
 5036              	.LBE461:
 5037              	.LBE567:
 334:src/engine.cpp ****             mix += (osc(s_phase1c, VOICE.osc1_wave) * VOICE.osc1_level
 5038              		.loc 1 334 24 view .LVU1513
 5039 16e6 D0ED00DA 		vldr.32	s27, [r0]
 5040              	.LBB568:
 5041              	.LBB462:
 5042              	.LBB449:
 5043              	.LBB446:
  47:src/dsp.h     ****     y = 0.225f*(y*(y<0?-y:y) - y) + y;         // one refinement pass
 5044              		.loc 2 47 50 view .LVU1514
 5045 16ea F5EEC02A 		vcmpe.f32	s5, #0
  47:src/dsp.h     ****     y = 0.225f*(y*(y<0?-y:y) - y) + y;         // one refinement pass
 5046              		.loc 2 47 43 view .LVU1515
 5047 16ee 62EEA88A 		vmul.f32	s17, s5, s17
  47:src/dsp.h     ****     y = 0.225f*(y*(y<0?-y:y) - y) + y;         // one refinement pass
 5048              		.loc 2 47 26 view .LVU1516
 5049 16f2 22EE822A 		vmul.f32	s4, s5, s4
  47:src/dsp.h     ****     y = 0.225f*(y*(y<0?-y:y) - y) + y;         // one refinement pass
 5050              		.loc 2 47 50 view .LVU1517
 5051 16f6 F1EE10FA 		vmrs	APSR_nzcv, FPSCR
 5052 16fa 48BF     		it	mi
 5053 16fc F1EE622A 		vnegmi.f32	s5, s5
 5054              	.LVL339:
  47:src/dsp.h     ****     y = 0.225f*(y*(y<0?-y:y) - y) + y;         // one refinement pass
 5055              		.loc 2 47 11 view .LVU1518
 5056 1700 A8EEE22A 		vfms.f32	s4, s17, s5
 5057              	.LVL340:
  48:src/dsp.h     ****     return -y;                                 // undo the π shift: sin(x+π) = -sin(x)
 5058              		.loc 2 48 5 is_stmt 1 view .LVU1519
  48:src/dsp.h     ****     return -y;                                 // undo the π shift: sin(x+π) = -sin(x)
ARM GAS  /tmp/claude-502/ccjNbcJ1.s 			page 120


 5059              		.loc 2 48 23 is_stmt 0 view .LVU1520
 5060 1704 B5EEC02A 		vcmpe.f32	s4, #0
 5061 1708 F1EE422A 		vneg.f32	s5, s4
 5062 170c F1EE10FA 		vmrs	APSR_nzcv, FPSCR
 5063 1710 54BF     		ite	pl
 5064 1712 F0EE428A 		vmovpl.f32	s17, s4
 5065 1716 F0EE628A 		vmovmi.f32	s17, s5
 5066              	.LBE446:
 5067              	.LBE449:
 5068              	.LBE462:
 5069              	.LBE568:
 5070              	.LBB569:
 5071              	.LBB489:
  58:src/dsp.h     ****         case WAVE_SINE:   return osc_sine(ph);
 5072              		.loc 2 58 5 view .LVU1521
 5073 171a 022D     		cmp	r5, #2
 5074              	.LBE489:
 5075              	.LBE569:
 5076              	.LBB570:
 5077              	.LBB463:
 5078              	.LBB450:
 5079              	.LBB447:
  48:src/dsp.h     ****     return -y;                                 // undo the π shift: sin(x+π) = -sin(x)
 5080              		.loc 2 48 30 view .LVU1522
 5081 171c E2EE282A 		vfma.f32	s5, s4, s17
  48:src/dsp.h     ****     return -y;                                 // undo the π shift: sin(x+π) = -sin(x)
 5082              		.loc 2 48 7 view .LVU1523
 5083 1720 DFEDAA8A 		vldr.32	s17, .L454+32
 5084 1724 A2EEA82A 		vfma.f32	s4, s5, s17
 5085              	.LVL341:
  49:src/dsp.h     **** }
 5086              		.loc 2 49 5 is_stmt 1 view .LVU1524
  49:src/dsp.h     **** }
 5087              		.loc 2 49 5 is_stmt 0 view .LVU1525
 5088              	.LBE447:
 5089              	.LBE450:
 5090              	.LBE463:
 5091              	.LBE570:
 333:src/engine.cpp ****                   + osc(s_phase2b, VOICE.osc2_wave) * VOICE.osc2_level) * CHORD_UPPER_LEVEL;
 5092              		.loc 1 333 53 view .LVU1526
 5093 1728 DDED062A 		vldr.32	s5, [sp, #24]
 5094 172c 22EE622A 		vnmul.f32	s4, s4, s5
 5095              	.LVL342:
 5096              	.LBB571:
  57:src/dsp.h     ****     switch(w){
 5097              		.loc 2 57 21 is_stmt 1 view .LVU1527
 5098              	.LBB490:
  58:src/dsp.h     ****         case WAVE_SINE:   return osc_sine(ph);
 5099              		.loc 2 58 5 view .LVU1528
 5100 1730 7EF4E9AF 		bne	.L435
 5101              	.LVL343:
 5102              	.L109:
  60:src/dsp.h     ****         case WAVE_SAW:    return osc_saw(ph);
 5103              		.loc 2 60 9 view .LVU1529
  60:src/dsp.h     ****         case WAVE_SAW:    return osc_saw(ph);
 5104              		.loc 2 60 27 view .LVU1530
 5105              	.LBB480:
ARM GAS  /tmp/claude-502/ccjNbcJ1.s 			page 121


 5106              	.LBI480:
  52:src/dsp.h     **** static inline float osc_saw(float ph){ return 2.0f*ph - 1.0f; }
 5107              		.loc 2 52 21 view .LVU1531
 5108              	.LBB481:
  52:src/dsp.h     **** static inline float osc_saw(float ph){ return 2.0f*ph - 1.0f; }
 5109              		.loc 2 52 43 view .LVU1532
  52:src/dsp.h     **** static inline float osc_saw(float ph){ return 2.0f*ph - 1.0f; }
 5110              		.loc 2 52 58 is_stmt 0 view .LVU1533
 5111 1734 F6EE002A 		vmov.f32	s5, #5.0e-1
 5112 1738 F4EEE2DA 		vcmpe.f32	s27, s5
 5113 173c DDED072A 		vldr.32	s5, [sp, #28]
 5114 1740 F1EE10FA 		vmrs	APSR_nzcv, FPSCR
 5115 1744 3EF5F7AF 		bmi	.L116
  52:src/dsp.h     **** static inline float osc_saw(float ph){ return 2.0f*ph - 1.0f; }
 5116              		.loc 2 52 58 view .LVU1534
 5117 1748 F1EE622A 		vneg.f32	s5, s5
 5118 174c FEF7F3BF 		b	.L116
 5119              	.LVL344:
 5120              	.L100:
  52:src/dsp.h     **** static inline float osc_saw(float ph){ return 2.0f*ph - 1.0f; }
 5121              		.loc 2 52 58 view .LVU1535
 5122              	.LBE481:
 5123              	.LBE480:
 5124              	.LBE490:
 5125              	.LBE571:
 5126              	.LBB572:
 5127              	.LBB464:
  61:src/dsp.h     ****         case WAVE_TRI:
 5128              		.loc 2 61 9 is_stmt 1 view .LVU1536
  61:src/dsp.h     ****         case WAVE_TRI:
 5129              		.loc 2 61 27 view .LVU1537
 5130              	.LBB451:
 5131              	.LBI451:
  53:src/dsp.h     **** 
 5132              		.loc 2 53 21 view .LVU1538
 5133              	.LBB452:
  53:src/dsp.h     **** 
 5134              		.loc 2 53 40 view .LVU1539
  53:src/dsp.h     **** 
 5135              		.loc 2 53 57 is_stmt 0 view .LVU1540
 5136 1750 F0EE002A 		vmov.f32	s5, #2.0e+0
 5137 1754 BFEE002A 		vmov.f32	s4, #-1.0e+0
 5138              	.LVL345:
  53:src/dsp.h     **** 
 5139              		.loc 2 53 57 view .LVU1541
 5140 1758 AEEEA22A 		vfma.f32	s4, s29, s5
 5141              	.LVL346:
  53:src/dsp.h     **** 
 5142              		.loc 2 53 57 view .LVU1542
 5143              	.LBE452:
 5144              	.LBE451:
 5145              	.LBE464:
 5146              	.LBE572:
 333:src/engine.cpp ****                   + osc(s_phase2b, VOICE.osc2_wave) * VOICE.osc2_level) * CHORD_UPPER_LEVEL;
 5147              		.loc 1 333 53 view .LVU1543
 5148 175c DDED062A 		vldr.32	s5, [sp, #24]
 5149 1760 22EE222A 		vmul.f32	s4, s4, s5
ARM GAS  /tmp/claude-502/ccjNbcJ1.s 			page 122


 5150              	.LBB573:
 5151              	.LBB465:
  61:src/dsp.h     ****         case WAVE_TRI:
 5152              		.loc 2 61 44 view .LVU1544
 5153 1764 FEF7C9BF 		b	.L106
 5154              	.LVL347:
 5155              	.L99:
  60:src/dsp.h     ****         case WAVE_SAW:    return osc_saw(ph);
 5156              		.loc 2 60 9 is_stmt 1 view .LVU1545
  60:src/dsp.h     ****         case WAVE_SAW:    return osc_saw(ph);
 5157              		.loc 2 60 27 view .LVU1546
 5158              	.LBB453:
 5159              	.LBI453:
  52:src/dsp.h     **** static inline float osc_saw(float ph){ return 2.0f*ph - 1.0f; }
 5160              		.loc 2 52 21 view .LVU1547
 5161              	.LBB454:
  52:src/dsp.h     **** static inline float osc_saw(float ph){ return 2.0f*ph - 1.0f; }
 5162              		.loc 2 52 43 view .LVU1548
  52:src/dsp.h     **** static inline float osc_saw(float ph){ return 2.0f*ph - 1.0f; }
 5163              		.loc 2 52 58 is_stmt 0 view .LVU1549
 5164 1768 F6EE002A 		vmov.f32	s5, #5.0e-1
 5165 176c F4EEE2EA 		vcmpe.f32	s29, s5
 5166 1770 F1EE10FA 		vmrs	APSR_nzcv, FPSCR
 5167 1774 00F1B182 		bmi	.L271
 5168 1778 DDED062A 		vldr.32	s5, [sp, #24]
 5169 177c B1EE622A 		vneg.f32	s4, s5
 5170              	.LVL348:
  52:src/dsp.h     **** static inline float osc_saw(float ph){ return 2.0f*ph - 1.0f; }
 5171              		.loc 2 52 58 view .LVU1550
 5172 1780 FEF7BBBF 		b	.L106
 5173              	.LVL349:
 5174              	.L110:
  52:src/dsp.h     **** static inline float osc_saw(float ph){ return 2.0f*ph - 1.0f; }
 5175              		.loc 2 52 58 view .LVU1551
 5176              	.LBE454:
 5177              	.LBE453:
 5178              	.LBE465:
 5179              	.LBE573:
 5180              	.LBB574:
 5181              	.LBB491:
  61:src/dsp.h     ****         case WAVE_TRI:
 5182              		.loc 2 61 9 is_stmt 1 view .LVU1552
  61:src/dsp.h     ****         case WAVE_TRI:
 5183              		.loc 2 61 27 view .LVU1553
 5184              	.LBB482:
 5185              	.LBI482:
  53:src/dsp.h     **** 
 5186              		.loc 2 53 21 view .LVU1554
 5187              	.LBB483:
  53:src/dsp.h     **** 
 5188              		.loc 2 53 40 view .LVU1555
  53:src/dsp.h     **** 
 5189              		.loc 2 53 57 is_stmt 0 view .LVU1556
 5190 1784 F0EE008A 		vmov.f32	s17, #2.0e+0
 5191 1788 FFEE002A 		vmov.f32	s5, #-1.0e+0
 5192 178c EDEEA82A 		vfma.f32	s5, s27, s17
 5193              	.LVL350:
ARM GAS  /tmp/claude-502/ccjNbcJ1.s 			page 123


  53:src/dsp.h     **** 
 5194              		.loc 2 53 57 view .LVU1557
 5195              	.LBE483:
 5196              	.LBE482:
 5197              	.LBE491:
 5198              	.LBE574:
 334:src/engine.cpp ****             mix += (osc(s_phase1c, VOICE.osc1_wave) * VOICE.osc1_level
 5199              		.loc 1 334 53 view .LVU1558
 5200 1790 DDED078A 		vldr.32	s17, [sp, #28]
 5201 1794 62EEA82A 		vmul.f32	s5, s5, s17
 5202              	.LBB575:
 5203              	.LBB492:
  61:src/dsp.h     ****         case WAVE_TRI:
 5204              		.loc 2 61 44 view .LVU1559
 5205 1798 FEF7CDBF 		b	.L116
 5206              	.LVL351:
 5207              	.L15:
  61:src/dsp.h     ****         case WAVE_TRI:
 5208              		.loc 2 61 44 view .LVU1560
 5209              	.LBE492:
 5210              	.LBE575:
 5211              	.LBE588:
 5212              	.LBE1123:
 5213              	.LBE1142:
 5214              	.LBE1157:
 385:src/engine.cpp ****     }
 386:src/engine.cpp **** }
 5215              		.loc 1 386 1 view .LVU1561
 5216 179c 2DB0     		add	sp, sp, #180
 5217              		.cfi_remember_state
 5218              		.cfi_def_cfa_offset 100
 5219              		@ sp needed
 5220 179e BDEC108B 		vldm	sp!, {d8-d15}
 5221              		.cfi_restore 94
 5222              		.cfi_restore 95
 5223              		.cfi_restore 92
 5224              		.cfi_restore 93
 5225              		.cfi_restore 90
 5226              		.cfi_restore 91
 5227              		.cfi_restore 88
 5228              		.cfi_restore 89
 5229              		.cfi_restore 86
 5230              		.cfi_restore 87
 5231              		.cfi_restore 84
 5232              		.cfi_restore 85
 5233              		.cfi_restore 82
 5234              		.cfi_restore 83
 5235              		.cfi_restore 80
 5236              		.cfi_restore 81
 5237              		.cfi_def_cfa_offset 36
 5238              	.LVL352:
 5239              		.loc 1 386 1 view .LVU1562
 5240 17a2 BDE8F08F 		pop	{r4, r5, r6, r7, r8, r9, r10, fp, pc}
 5241              	.LVL353:
 5242              	.L174:
 5243              		.cfi_restore_state
 5244              	.LBB1158:
ARM GAS  /tmp/claude-502/ccjNbcJ1.s 			page 124


 5245              	.LBB1143:
 5246              	.LBB1124:
 5247              	.LBB1030:
 5248              	.LBB1021:
 5249              	.LBB1008:
 5250              	.LBB1000:
 5251              	.LBB899:
 5252              	.LBB893:
  61:src/dsp.h     ****         case WAVE_TRI:
 5253              		.loc 2 61 9 is_stmt 1 view .LVU1563
  61:src/dsp.h     ****         case WAVE_TRI:
 5254              		.loc 2 61 27 view .LVU1564
 5255              	.LBB884:
 5256              	.LBI884:
  53:src/dsp.h     **** 
 5257              		.loc 2 53 21 view .LVU1565
 5258              	.LBB885:
  53:src/dsp.h     **** 
 5259              		.loc 2 53 40 view .LVU1566
  53:src/dsp.h     **** 
 5260              		.loc 2 53 57 is_stmt 0 view .LVU1567
 5261 17a6 F0EE004A 		vmov.f32	s9, #2.0e+0
 5262 17aa BFEE007A 		vmov.f32	s14, #-1.0e+0
 5263 17ae A5EEA47A 		vfma.f32	s14, s11, s9
 5264              	.LVL354:
 5265              	.L180:
  53:src/dsp.h     **** 
 5266              		.loc 2 53 57 view .LVU1568
 5267              	.LBE885:
 5268              	.LBE884:
 5269              	.LBE893:
 5270              	.LBE899:
 112:src/engine.cpp ****               + osc(h.ph2,V.osc2_wave)*V.osc2_level
 5271              		.loc 1 112 42 view .LVU1569
 5272 17b2 02EB010C 		add	ip, r2, r1
 113:src/engine.cpp ****               + osc(h.phs,V.sub_wave )*V.sub_level
 5273              		.loc 1 113 20 view .LVU1570
 5274 17b6 D3ED073A 		vldr.32	s7, [r3, #28]
 112:src/engine.cpp ****               + osc(h.ph2,V.osc2_wave)*V.osc2_level
 5275              		.loc 1 112 42 view .LVU1571
 5276 17ba 07EB4C1C 		add	ip, r7, ip, lsl #5
 112:src/engine.cpp ****               + osc(h.ph2,V.osc2_wave)*V.osc2_level
 5277              		.loc 1 112 39 view .LVU1572
 5278 17be DCED054A 		vldr.32	s9, [ip, #20]
 113:src/engine.cpp ****               + osc(h.phs,V.sub_wave )*V.sub_level
 5279              		.loc 1 113 29 view .LVU1573
 5280 17c2 9CF824C0 		ldrb	ip, [ip, #36]	@ zero_extendqisi2
 5281              	.LVL355:
 5282              	.LBB900:
 5283              	.LBI900:
  57:src/dsp.h     ****     switch(w){
 5284              		.loc 2 57 21 is_stmt 1 view .LVU1574
 5285              	.LBB901:
  58:src/dsp.h     ****         case WAVE_SINE:   return osc_sine(ph);
 5286              		.loc 2 58 5 view .LVU1575
 5287              	.LBE901:
 5288              	.LBE900:
ARM GAS  /tmp/claude-502/ccjNbcJ1.s 			page 125


 112:src/engine.cpp ****               + osc(h.ph2,V.osc2_wave)*V.osc2_level
 5289              		.loc 1 112 39 is_stmt 0 view .LVU1576
 5290 17c6 27EE247A 		vmul.f32	s14, s14, s9
 5291              	.LBB920:
 5292              	.LBB915:
  58:src/dsp.h     ****         case WAVE_SINE:   return osc_sine(ph);
 5293              		.loc 2 58 5 view .LVU1577
 5294 17ca BCF1020F 		cmp	ip, #2
 5295 17ce 78D0     		beq	.L183
 5296 17d0 BCF1030F 		cmp	ip, #3
 5297 17d4 6ED0     		beq	.L184
 5298 17d6 BCF1010F 		cmp	ip, #1
 5299 17da 1AD0     		beq	.L436
 5300              	.LVL356:
 5301              	.LBB902:
 5302              	.LBI902:
  57:src/dsp.h     ****     switch(w){
 5303              		.loc 2 57 21 is_stmt 1 view .LVU1578
  57:src/dsp.h     ****     switch(w){
 5304              		.loc 2 57 21 is_stmt 0 view .LVU1579
 5305              	.LBE902:
 5306              	.LBE915:
 5307              	.LBE920:
 5308              	.LBE1000:
 5309              	.LBE1008:
 5310              	.LBE1021:
 5311              	.LBE1030:
 5312              	.LBE1124:
 5313              	.LBE1143:
 5314              	.LBE1158:
  62:src/dsp.h     ****         default:          return tri(ph);
 5315              		.loc 2 62 9 is_stmt 1 view .LVU1580
  63:src/dsp.h     ****     }
 5316              		.loc 2 63 9 view .LVU1581
  63:src/dsp.h     ****     }
 5317              		.loc 2 63 27 view .LVU1582
 5318              	.LBB1159:
 5319              	.LBB1144:
 5320              	.LBB1125:
 5321              	.LBB1031:
 5322              	.LBB1022:
 5323              	.LBB1009:
 5324              	.LBB1001:
 5325              	.LBB921:
 5326              	.LBB916:
 5327              	.LBB907:
 5328              	.LBB903:
 5329              	.LBI903:
  40:src/dsp.h     ****     return ph<0.5f?(4.0f*ph-1.0f):(3.0f-4.0f*ph);
 5330              		.loc 2 40 21 view .LVU1583
 5331              	.LBB904:
  41:src/dsp.h     **** }
 5332              		.loc 2 41 5 view .LVU1584
  41:src/dsp.h     **** }
 5333              		.loc 2 41 19 is_stmt 0 view .LVU1585
 5334 17dc F6EE004A 		vmov.f32	s9, #5.0e-1
 5335 17e0 B1EE004A 		vmov.f32	s8, #4.0e+0
ARM GAS  /tmp/claude-502/ccjNbcJ1.s 			page 126


 5336 17e4 F4EEE43A 		vcmpe.f32	s7, s9
 5337 17e8 F1EE10FA 		vmrs	APSR_nzcv, FPSCR
 5338 17ec 40F19182 		bpl	.L394
 5339 17f0 FFEE004A 		vmov.f32	s9, #-1.0e+0
 5340 17f4 E3EE844A 		vfma.f32	s9, s7, s8
 5341 17f8 37E0     		b	.L190
 5342              	.LVL357:
 5343              	.L173:
  41:src/dsp.h     **** }
 5344              		.loc 2 41 19 view .LVU1586
 5345              	.LBE904:
 5346              	.LBE903:
 5347              	.LBE907:
 5348              	.LBE916:
 5349              	.LBE921:
 5350              	.LBB922:
 5351              	.LBB894:
  60:src/dsp.h     ****         case WAVE_SAW:    return osc_saw(ph);
 5352              		.loc 2 60 9 is_stmt 1 view .LVU1587
  60:src/dsp.h     ****         case WAVE_SAW:    return osc_saw(ph);
 5353              		.loc 2 60 27 view .LVU1588
 5354              	.LBB886:
 5355              	.LBI886:
  52:src/dsp.h     **** static inline float osc_saw(float ph){ return 2.0f*ph - 1.0f; }
 5356              		.loc 2 52 21 view .LVU1589
 5357              	.LBB887:
  52:src/dsp.h     **** static inline float osc_saw(float ph){ return 2.0f*ph - 1.0f; }
 5358              		.loc 2 52 43 view .LVU1590
  52:src/dsp.h     **** static inline float osc_saw(float ph){ return 2.0f*ph - 1.0f; }
 5359              		.loc 2 52 58 is_stmt 0 view .LVU1591
 5360 17fa F6EE004A 		vmov.f32	s9, #5.0e-1
 5361 17fe F4EEE45A 		vcmpe.f32	s11, s9
 5362 1802 FFEE004A 		vmov.f32	s9, #-1.0e+0
 5363 1806 F1EE10FA 		vmrs	APSR_nzcv, FPSCR
 5364 180a 58BF     		it	pl
 5365 180c B0EE647A 		vmovpl.f32	s14, s9
 5366 1810 CFE7     		b	.L180
 5367              	.LVL358:
 5368              	.L436:
  52:src/dsp.h     **** static inline float osc_saw(float ph){ return 2.0f*ph - 1.0f; }
 5369              		.loc 2 52 58 view .LVU1592
 5370              	.LBE887:
 5371              	.LBE886:
 5372              	.LBE894:
 5373              	.LBE922:
 5374              	.LBB923:
 5375              	.LBB917:
  59:src/dsp.h     ****         case WAVE_SQUARE: return osc_square(ph);
 5376              		.loc 2 59 9 is_stmt 1 view .LVU1593
  59:src/dsp.h     ****         case WAVE_SQUARE: return osc_square(ph);
 5377              		.loc 2 59 27 view .LVU1594
 5378              	.LBB908:
 5379              	.LBI908:
  44:src/dsp.h     ****     constexpr float PI = 3.14159265f;
 5380              		.loc 2 44 21 view .LVU1595
 5381              	.LBB909:
  45:src/dsp.h     ****     float x = ph*2.0f*PI - PI;                 // -π..π (angle shifted by π)
ARM GAS  /tmp/claude-502/ccjNbcJ1.s 			page 127


 5382              		.loc 2 45 5 view .LVU1596
  46:src/dsp.h     ****     float y = 1.27323954f*x - 0.405284735f*x*(x<0?-x:x);
 5383              		.loc 2 46 5 view .LVU1597
  46:src/dsp.h     ****     float y = 1.27323954f*x - 0.405284735f*x*(x<0?-x:x);
 5384              		.loc 2 46 17 is_stmt 0 view .LVU1598
 5385 1812 33EEA33A 		vadd.f32	s6, s7, s7
  46:src/dsp.h     ****     float y = 1.27323954f*x - 0.405284735f*x*(x<0?-x:x);
 5386              		.loc 2 46 11 view .LVU1599
 5387 1816 DFED694A 		vldr.32	s9, .L454+16
 5388 181a 9FED694A 		vldr.32	s8, .L454+20
 5389 181e A3EE244A 		vfma.f32	s8, s6, s9
 5390              	.LVL359:
  47:src/dsp.h     ****     y = 0.225f*(y*(y<0?-y:y) - y) + y;         // one refinement pass
 5391              		.loc 2 47 5 is_stmt 1 view .LVU1600
  47:src/dsp.h     ****     y = 0.225f*(y*(y<0?-y:y) - y) + y;         // one refinement pass
 5392              		.loc 2 47 26 is_stmt 0 view .LVU1601
 5393 1822 DFED684A 		vldr.32	s9, .L454+24
  47:src/dsp.h     ****     y = 0.225f*(y*(y<0?-y:y) - y) + y;         // one refinement pass
 5394              		.loc 2 47 43 view .LVU1602
 5395 1826 9FED683A 		vldr.32	s6, .L454+28
  47:src/dsp.h     ****     y = 0.225f*(y*(y<0?-y:y) - y) + y;         // one refinement pass
 5396              		.loc 2 47 50 view .LVU1603
 5397 182a B5EEC04A 		vcmpe.f32	s8, #0
  47:src/dsp.h     ****     y = 0.225f*(y*(y<0?-y:y) - y) + y;         // one refinement pass
 5398              		.loc 2 47 43 view .LVU1604
 5399 182e 24EE033A 		vmul.f32	s6, s8, s6
  47:src/dsp.h     ****     y = 0.225f*(y*(y<0?-y:y) - y) + y;         // one refinement pass
 5400              		.loc 2 47 26 view .LVU1605
 5401 1832 64EE244A 		vmul.f32	s9, s8, s9
  47:src/dsp.h     ****     y = 0.225f*(y*(y<0?-y:y) - y) + y;         // one refinement pass
 5402              		.loc 2 47 50 view .LVU1606
 5403 1836 F1EE10FA 		vmrs	APSR_nzcv, FPSCR
 5404 183a 48BF     		it	mi
 5405 183c B1EE444A 		vnegmi.f32	s8, s8
 5406              	.LVL360:
  47:src/dsp.h     ****     y = 0.225f*(y*(y<0?-y:y) - y) + y;         // one refinement pass
 5407              		.loc 2 47 11 view .LVU1607
 5408 1840 E3EE444A 		vfms.f32	s9, s6, s8
 5409              	.LVL361:
  48:src/dsp.h     ****     return -y;                                 // undo the π shift: sin(x+π) = -sin(x)
 5410              		.loc 2 48 5 is_stmt 1 view .LVU1608
  48:src/dsp.h     ****     return -y;                                 // undo the π shift: sin(x+π) = -sin(x)
 5411              		.loc 2 48 23 is_stmt 0 view .LVU1609
 5412 1844 F5EEC04A 		vcmpe.f32	s9, #0
 5413 1848 B1EE644A 		vneg.f32	s8, s9
 5414 184c F1EE10FA 		vmrs	APSR_nzcv, FPSCR
 5415 1850 54BF     		ite	pl
 5416 1852 B0EE643A 		vmovpl.f32	s6, s9
 5417 1856 B0EE443A 		vmovmi.f32	s6, s8
  48:src/dsp.h     ****     return -y;                                 // undo the π shift: sin(x+π) = -sin(x)
 5418              		.loc 2 48 30 view .LVU1610
 5419 185a A4EE834A 		vfma.f32	s8, s9, s6
  48:src/dsp.h     ****     return -y;                                 // undo the π shift: sin(x+π) = -sin(x)
 5420              		.loc 2 48 7 view .LVU1611
 5421 185e 9FED5B3A 		vldr.32	s6, .L454+32
 5422 1862 E4EE034A 		vfma.f32	s9, s8, s6
 5423              	.LVL362:
ARM GAS  /tmp/claude-502/ccjNbcJ1.s 			page 128


  49:src/dsp.h     **** }
 5424              		.loc 2 49 5 is_stmt 1 view .LVU1612
  49:src/dsp.h     **** }
 5425              		.loc 2 49 13 is_stmt 0 view .LVU1613
 5426 1866 F1EE644A 		vneg.f32	s9, s9
 5427              	.LVL363:
 5428              	.L190:
  49:src/dsp.h     **** }
 5429              		.loc 2 49 13 view .LVU1614
 5430              	.LBE909:
 5431              	.LBE908:
 5432              	.LBE917:
 5433              	.LBE923:
 113:src/engine.cpp ****               + osc(h.phs,V.sub_wave )*V.sub_level
 5434              		.loc 1 113 42 view .LVU1615
 5435 186a 02EB010C 		add	ip, r2, r1
 114:src/engine.cpp ****               + osc(h.pho,V.oct_wave )*V.oct_level;
 5436              		.loc 1 114 20 view .LVU1616
 5437 186e 93ED083A 		vldr.32	s6, [r3, #32]
 113:src/engine.cpp ****               + osc(h.phs,V.sub_wave )*V.sub_level
 5438              		.loc 1 113 42 view .LVU1617
 5439 1872 07EB4C1C 		add	ip, r7, ip, lsl #5
 113:src/engine.cpp ****               + osc(h.phs,V.sub_wave )*V.sub_level
 5440              		.loc 1 113 15 view .LVU1618
 5441 1876 9CED084A 		vldr.32	s8, [ip, #32]
 114:src/engine.cpp ****               + osc(h.pho,V.oct_wave )*V.oct_level;
 5442              		.loc 1 114 29 view .LVU1619
 5443 187a 9CF830C0 		ldrb	ip, [ip, #48]	@ zero_extendqisi2
 5444              	.LVL364:
 5445              	.LBB924:
 5446              	.LBI924:
  57:src/dsp.h     ****     switch(w){
 5447              		.loc 2 57 21 is_stmt 1 view .LVU1620
 5448              	.LBB925:
  58:src/dsp.h     ****         case WAVE_SINE:   return osc_sine(ph);
 5449              		.loc 2 58 5 view .LVU1621
 5450              	.LBE925:
 5451              	.LBE924:
 113:src/engine.cpp ****               + osc(h.phs,V.sub_wave )*V.sub_level
 5452              		.loc 1 113 15 is_stmt 0 view .LVU1622
 5453 187e A4EE247A 		vfma.f32	s14, s8, s9
 5454              	.LBB944:
 5455              	.LBB939:
  58:src/dsp.h     ****         case WAVE_SINE:   return osc_sine(ph);
 5456              		.loc 2 58 5 view .LVU1623
 5457 1882 BCF1020F 		cmp	ip, #2
 5458 1886 00F08380 		beq	.L193
 5459 188a BCF1030F 		cmp	ip, #3
 5460 188e 78D0     		beq	.L194
 5461 1890 BCF1010F 		cmp	ip, #1
 5462 1894 23D0     		beq	.L437
 5463              	.LVL365:
 5464              	.LBB926:
 5465              	.LBI926:
  57:src/dsp.h     ****     switch(w){
 5466              		.loc 2 57 21 is_stmt 1 view .LVU1624
  57:src/dsp.h     ****     switch(w){
ARM GAS  /tmp/claude-502/ccjNbcJ1.s 			page 129


 5467              		.loc 2 57 21 is_stmt 0 view .LVU1625
 5468              	.LBE926:
 5469              	.LBE939:
 5470              	.LBE944:
 5471              	.LBE1001:
 5472              	.LBE1009:
 5473              	.LBE1022:
 5474              	.LBE1031:
 5475              	.LBE1125:
 5476              	.LBE1144:
 5477              	.LBE1159:
  62:src/dsp.h     ****         default:          return tri(ph);
 5478              		.loc 2 62 9 is_stmt 1 view .LVU1626
  63:src/dsp.h     ****     }
 5479              		.loc 2 63 9 view .LVU1627
  63:src/dsp.h     ****     }
 5480              		.loc 2 63 27 view .LVU1628
 5481              	.LBB1160:
 5482              	.LBB1145:
 5483              	.LBB1126:
 5484              	.LBB1032:
 5485              	.LBB1023:
 5486              	.LBB1010:
 5487              	.LBB1002:
 5488              	.LBB945:
 5489              	.LBB940:
 5490              	.LBB931:
 5491              	.LBB927:
 5492              	.LBI927:
  40:src/dsp.h     ****     return ph<0.5f?(4.0f*ph-1.0f):(3.0f-4.0f*ph);
 5493              		.loc 2 40 21 view .LVU1629
 5494              	.LBB928:
  41:src/dsp.h     **** }
 5495              		.loc 2 41 5 view .LVU1630
  41:src/dsp.h     **** }
 5496              		.loc 2 41 19 is_stmt 0 view .LVU1631
 5497 1896 F6EE004A 		vmov.f32	s9, #5.0e-1
 5498 189a B1EE004A 		vmov.f32	s8, #4.0e+0
 5499 189e B4EEE43A 		vcmpe.f32	s6, s9
 5500 18a2 F1EE10FA 		vmrs	APSR_nzcv, FPSCR
 5501 18a6 40F12F82 		bpl	.L396
 5502 18aa FFEE004A 		vmov.f32	s9, #-1.0e+0
 5503 18ae E3EE044A 		vfma.f32	s9, s6, s8
 5504 18b2 40E0     		b	.L200
 5505              	.LVL366:
 5506              	.L184:
  41:src/dsp.h     **** }
 5507              		.loc 2 41 19 view .LVU1632
 5508              	.LBE928:
 5509              	.LBE927:
 5510              	.LBE931:
 5511              	.LBE940:
 5512              	.LBE945:
 5513              	.LBB946:
 5514              	.LBB918:
  61:src/dsp.h     ****         case WAVE_TRI:
 5515              		.loc 2 61 9 is_stmt 1 view .LVU1633
ARM GAS  /tmp/claude-502/ccjNbcJ1.s 			page 130


  61:src/dsp.h     ****         case WAVE_TRI:
 5516              		.loc 2 61 27 view .LVU1634
 5517              	.LBB910:
 5518              	.LBI910:
  53:src/dsp.h     **** 
 5519              		.loc 2 53 21 view .LVU1635
 5520              	.LBB911:
  53:src/dsp.h     **** 
 5521              		.loc 2 53 40 view .LVU1636
  53:src/dsp.h     **** 
 5522              		.loc 2 53 57 is_stmt 0 view .LVU1637
 5523 18b4 B0EE004A 		vmov.f32	s8, #2.0e+0
 5524 18b8 FFEE004A 		vmov.f32	s9, #-1.0e+0
 5525 18bc E3EE844A 		vfma.f32	s9, s7, s8
 5526              	.LVL367:
  53:src/dsp.h     **** 
 5527              		.loc 2 53 57 view .LVU1638
 5528              	.LBE911:
 5529              	.LBE910:
  61:src/dsp.h     ****         case WAVE_TRI:
 5530              		.loc 2 61 44 view .LVU1639
 5531 18c0 D3E7     		b	.L190
 5532              	.L183:
  60:src/dsp.h     ****         case WAVE_SAW:    return osc_saw(ph);
 5533              		.loc 2 60 9 is_stmt 1 view .LVU1640
  60:src/dsp.h     ****         case WAVE_SAW:    return osc_saw(ph);
 5534              		.loc 2 60 27 view .LVU1641
 5535              	.LVL368:
 5536              	.LBB912:
 5537              	.LBI912:
  52:src/dsp.h     **** static inline float osc_saw(float ph){ return 2.0f*ph - 1.0f; }
 5538              		.loc 2 52 21 view .LVU1642
 5539              	.LBB913:
  52:src/dsp.h     **** static inline float osc_saw(float ph){ return 2.0f*ph - 1.0f; }
 5540              		.loc 2 52 43 view .LVU1643
  52:src/dsp.h     **** static inline float osc_saw(float ph){ return 2.0f*ph - 1.0f; }
 5541              		.loc 2 52 58 is_stmt 0 view .LVU1644
 5542 18c2 F6EE004A 		vmov.f32	s9, #5.0e-1
 5543 18c6 BFEE004A 		vmov.f32	s8, #-1.0e+0
 5544 18ca F4EEE43A 		vcmpe.f32	s7, s9
 5545 18ce F7EE004A 		vmov.f32	s9, #1.0e+0
 5546 18d2 F1EE10FA 		vmrs	APSR_nzcv, FPSCR
 5547 18d6 58BF     		it	pl
 5548 18d8 F0EE444A 		vmovpl.f32	s9, s8
 5549 18dc C5E7     		b	.L190
 5550              	.LVL369:
 5551              	.L437:
  52:src/dsp.h     **** static inline float osc_saw(float ph){ return 2.0f*ph - 1.0f; }
 5552              		.loc 2 52 58 view .LVU1645
 5553              	.LBE913:
 5554              	.LBE912:
 5555              	.LBE918:
 5556              	.LBE946:
 5557              	.LBB947:
 5558              	.LBB941:
  59:src/dsp.h     ****         case WAVE_SQUARE: return osc_square(ph);
 5559              		.loc 2 59 9 is_stmt 1 view .LVU1646
ARM GAS  /tmp/claude-502/ccjNbcJ1.s 			page 131


  59:src/dsp.h     ****         case WAVE_SQUARE: return osc_square(ph);
 5560              		.loc 2 59 27 view .LVU1647
 5561              	.LBB932:
 5562              	.LBI932:
  44:src/dsp.h     ****     constexpr float PI = 3.14159265f;
 5563              		.loc 2 44 21 view .LVU1648
 5564              	.LBB933:
  45:src/dsp.h     ****     float x = ph*2.0f*PI - PI;                 // -π..π (angle shifted by π)
 5565              		.loc 2 45 5 view .LVU1649
  46:src/dsp.h     ****     float y = 1.27323954f*x - 0.405284735f*x*(x<0?-x:x);
 5566              		.loc 2 46 5 view .LVU1650
  46:src/dsp.h     ****     float y = 1.27323954f*x - 0.405284735f*x*(x<0?-x:x);
 5567              		.loc 2 46 17 is_stmt 0 view .LVU1651
 5568 18de 33EE032A 		vadd.f32	s4, s6, s6
  46:src/dsp.h     ****     float y = 1.27323954f*x - 0.405284735f*x*(x<0?-x:x);
 5569              		.loc 2 46 11 view .LVU1652
 5570 18e2 DFED364A 		vldr.32	s9, .L454+16
 5571 18e6 9FED364A 		vldr.32	s8, .L454+20
 5572 18ea A2EE244A 		vfma.f32	s8, s4, s9
 5573              	.LVL370:
  47:src/dsp.h     ****     y = 0.225f*(y*(y<0?-y:y) - y) + y;         // one refinement pass
 5574              		.loc 2 47 5 is_stmt 1 view .LVU1653
  47:src/dsp.h     ****     y = 0.225f*(y*(y<0?-y:y) - y) + y;         // one refinement pass
 5575              		.loc 2 47 26 is_stmt 0 view .LVU1654
 5576 18ee DFED354A 		vldr.32	s9, .L454+24
  47:src/dsp.h     ****     y = 0.225f*(y*(y<0?-y:y) - y) + y;         // one refinement pass
 5577              		.loc 2 47 43 view .LVU1655
 5578 18f2 9FED352A 		vldr.32	s4, .L454+28
  47:src/dsp.h     ****     y = 0.225f*(y*(y<0?-y:y) - y) + y;         // one refinement pass
 5579              		.loc 2 47 50 view .LVU1656
 5580 18f6 B5EEC04A 		vcmpe.f32	s8, #0
  47:src/dsp.h     ****     y = 0.225f*(y*(y<0?-y:y) - y) + y;         // one refinement pass
 5581              		.loc 2 47 43 view .LVU1657
 5582 18fa 24EE022A 		vmul.f32	s4, s8, s4
  47:src/dsp.h     ****     y = 0.225f*(y*(y<0?-y:y) - y) + y;         // one refinement pass
 5583              		.loc 2 47 26 view .LVU1658
 5584 18fe 64EE244A 		vmul.f32	s9, s8, s9
  47:src/dsp.h     ****     y = 0.225f*(y*(y<0?-y:y) - y) + y;         // one refinement pass
 5585              		.loc 2 47 50 view .LVU1659
 5586 1902 F1EE10FA 		vmrs	APSR_nzcv, FPSCR
 5587 1906 48BF     		it	mi
 5588 1908 B1EE444A 		vnegmi.f32	s8, s8
 5589              	.LVL371:
  47:src/dsp.h     ****     y = 0.225f*(y*(y<0?-y:y) - y) + y;         // one refinement pass
 5590              		.loc 2 47 11 view .LVU1660
 5591 190c E2EE444A 		vfms.f32	s9, s4, s8
 5592              	.LVL372:
  48:src/dsp.h     ****     return -y;                                 // undo the π shift: sin(x+π) = -sin(x)
 5593              		.loc 2 48 5 is_stmt 1 view .LVU1661
  48:src/dsp.h     ****     return -y;                                 // undo the π shift: sin(x+π) = -sin(x)
 5594              		.loc 2 48 23 is_stmt 0 view .LVU1662
 5595 1910 F5EEC04A 		vcmpe.f32	s9, #0
 5596 1914 B1EE644A 		vneg.f32	s8, s9
 5597 1918 F1EE10FA 		vmrs	APSR_nzcv, FPSCR
 5598 191c 54BF     		ite	pl
 5599 191e B0EE642A 		vmovpl.f32	s4, s9
 5600 1922 B0EE442A 		vmovmi.f32	s4, s8
ARM GAS  /tmp/claude-502/ccjNbcJ1.s 			page 132


  48:src/dsp.h     ****     return -y;                                 // undo the π shift: sin(x+π) = -sin(x)
 5601              		.loc 2 48 30 view .LVU1663
 5602 1926 A4EE824A 		vfma.f32	s8, s9, s4
  48:src/dsp.h     ****     return -y;                                 // undo the π shift: sin(x+π) = -sin(x)
 5603              		.loc 2 48 7 view .LVU1664
 5604 192a 9FED282A 		vldr.32	s4, .L454+32
 5605 192e E4EE024A 		vfma.f32	s9, s8, s4
 5606              	.LVL373:
  49:src/dsp.h     **** }
 5607              		.loc 2 49 5 is_stmt 1 view .LVU1665
  49:src/dsp.h     **** }
 5608              		.loc 2 49 13 is_stmt 0 view .LVU1666
 5609 1932 F1EE644A 		vneg.f32	s9, s9
 5610              	.LVL374:
 5611              	.L200:
  49:src/dsp.h     **** }
 5612              		.loc 2 49 13 view .LVU1667
 5613              	.LBE933:
 5614              	.LBE932:
 5615              	.LBE941:
 5616              	.LBE947:
 114:src/engine.cpp ****               + osc(h.pho,V.oct_wave )*V.oct_level;
 5617              		.loc 1 114 42 view .LVU1668
 5618 1936 02EB010C 		add	ip, r2, r1
 115:src/engine.cpp ****     if(V.noise_level > 0.0f){
 5619              		.loc 1 115 20 view .LVU1669
 5620 193a 93ED094A 		vldr.32	s8, [r3, #36]
 114:src/engine.cpp ****               + osc(h.pho,V.oct_wave )*V.oct_level;
 5621              		.loc 1 114 42 view .LVU1670
 5622 193e 07EB4C1C 		add	ip, r7, ip, lsl #5
 114:src/engine.cpp ****               + osc(h.pho,V.oct_wave )*V.oct_level;
 5623              		.loc 1 114 15 view .LVU1671
 5624 1942 9CED0B2A 		vldr.32	s4, [ip, #44]
 115:src/engine.cpp ****     if(V.noise_level > 0.0f){
 5625              		.loc 1 115 29 view .LVU1672
 5626 1946 9CF83CC0 		ldrb	ip, [ip, #60]	@ zero_extendqisi2
 5627              	.LVL375:
 5628              	.LBB948:
 5629              	.LBI948:
  57:src/dsp.h     ****     switch(w){
 5630              		.loc 2 57 21 is_stmt 1 view .LVU1673
 5631              	.LBB949:
  58:src/dsp.h     ****         case WAVE_SINE:   return osc_sine(ph);
 5632              		.loc 2 58 5 view .LVU1674
 5633              	.LBE949:
 5634              	.LBE948:
 114:src/engine.cpp ****               + osc(h.pho,V.oct_wave )*V.oct_level;
 5635              		.loc 1 114 15 is_stmt 0 view .LVU1675
 5636 194a A2EE247A 		vfma.f32	s14, s4, s9
 5637              	.LBB968:
 5638              	.LBB963:
  58:src/dsp.h     ****         case WAVE_SINE:   return osc_sine(ph);
 5639              		.loc 2 58 5 view .LVU1676
 5640 194e BCF1020F 		cmp	ip, #2
 5641 1952 00F05D81 		beq	.L203
 5642 1956 BCF1030F 		cmp	ip, #3
 5643 195a 00F05281 		beq	.L204
ARM GAS  /tmp/claude-502/ccjNbcJ1.s 			page 133


 5644 195e BCF1010F 		cmp	ip, #1
 5645 1962 37D0     		beq	.L438
 5646              	.LVL376:
 5647              	.LBB950:
 5648              	.LBI950:
  57:src/dsp.h     ****     switch(w){
 5649              		.loc 2 57 21 is_stmt 1 view .LVU1677
  57:src/dsp.h     ****     switch(w){
 5650              		.loc 2 57 21 is_stmt 0 view .LVU1678
 5651              	.LBE950:
 5652              	.LBE963:
 5653              	.LBE968:
 5654              	.LBE1002:
 5655              	.LBE1010:
 5656              	.LBE1023:
 5657              	.LBE1032:
 5658              	.LBE1126:
 5659              	.LBE1145:
 5660              	.LBE1160:
  62:src/dsp.h     ****         default:          return tri(ph);
 5661              		.loc 2 62 9 is_stmt 1 view .LVU1679
  63:src/dsp.h     ****     }
 5662              		.loc 2 63 9 view .LVU1680
  63:src/dsp.h     ****     }
 5663              		.loc 2 63 27 view .LVU1681
 5664              	.LBB1161:
 5665              	.LBB1146:
 5666              	.LBB1127:
 5667              	.LBB1033:
 5668              	.LBB1024:
 5669              	.LBB1011:
 5670              	.LBB1003:
 5671              	.LBB969:
 5672              	.LBB964:
 5673              	.LBB955:
 5674              	.LBB951:
 5675              	.LBI951:
  40:src/dsp.h     ****     return ph<0.5f?(4.0f*ph-1.0f):(3.0f-4.0f*ph);
 5676              		.loc 2 40 21 view .LVU1682
 5677              	.LBB952:
  41:src/dsp.h     **** }
 5678              		.loc 2 41 5 view .LVU1683
  41:src/dsp.h     **** }
 5679              		.loc 2 41 19 is_stmt 0 view .LVU1684
 5680 1964 F6EE004A 		vmov.f32	s9, #5.0e-1
 5681 1968 B4EEE44A 		vcmpe.f32	s8, s9
 5682 196c F1EE004A 		vmov.f32	s9, #4.0e+0
 5683 1970 F1EE10FA 		vmrs	APSR_nzcv, FPSCR
 5684 1974 40F1C381 		bpl	.L398
 5685 1978 BFEE002A 		vmov.f32	s4, #-1.0e+0
 5686 197c A4EE242A 		vfma.f32	s4, s8, s9
 5687 1980 54E0     		b	.L210
 5688              	.LVL377:
 5689              	.L194:
  41:src/dsp.h     **** }
 5690              		.loc 2 41 19 view .LVU1685
 5691              	.LBE952:
ARM GAS  /tmp/claude-502/ccjNbcJ1.s 			page 134


 5692              	.LBE951:
 5693              	.LBE955:
 5694              	.LBE964:
 5695              	.LBE969:
 5696              	.LBB970:
 5697              	.LBB942:
  61:src/dsp.h     ****         case WAVE_TRI:
 5698              		.loc 2 61 9 is_stmt 1 view .LVU1686
  61:src/dsp.h     ****         case WAVE_TRI:
 5699              		.loc 2 61 27 view .LVU1687
 5700              	.LBB934:
 5701              	.LBI934:
  53:src/dsp.h     **** 
 5702              		.loc 2 53 21 view .LVU1688
 5703              	.LBB935:
  53:src/dsp.h     **** 
 5704              		.loc 2 53 40 view .LVU1689
  53:src/dsp.h     **** 
 5705              		.loc 2 53 57 is_stmt 0 view .LVU1690
 5706 1982 B0EE004A 		vmov.f32	s8, #2.0e+0
 5707 1986 FFEE004A 		vmov.f32	s9, #-1.0e+0
 5708 198a E3EE044A 		vfma.f32	s9, s6, s8
 5709              	.LVL378:
  53:src/dsp.h     **** 
 5710              		.loc 2 53 57 view .LVU1691
 5711              	.LBE935:
 5712              	.LBE934:
  61:src/dsp.h     ****         case WAVE_TRI:
 5713              		.loc 2 61 44 view .LVU1692
 5714 198e D2E7     		b	.L200
 5715              	.L193:
  60:src/dsp.h     ****         case WAVE_SAW:    return osc_saw(ph);
 5716              		.loc 2 60 9 is_stmt 1 view .LVU1693
  60:src/dsp.h     ****         case WAVE_SAW:    return osc_saw(ph);
 5717              		.loc 2 60 27 view .LVU1694
 5718              	.LVL379:
 5719              	.LBB936:
 5720              	.LBI936:
  52:src/dsp.h     **** static inline float osc_saw(float ph){ return 2.0f*ph - 1.0f; }
 5721              		.loc 2 52 21 view .LVU1695
 5722              	.LBB937:
  52:src/dsp.h     **** static inline float osc_saw(float ph){ return 2.0f*ph - 1.0f; }
 5723              		.loc 2 52 43 view .LVU1696
  52:src/dsp.h     **** static inline float osc_saw(float ph){ return 2.0f*ph - 1.0f; }
 5724              		.loc 2 52 58 is_stmt 0 view .LVU1697
 5725 1990 F6EE004A 		vmov.f32	s9, #5.0e-1
 5726 1994 BFEE004A 		vmov.f32	s8, #-1.0e+0
 5727 1998 B4EEE43A 		vcmpe.f32	s6, s9
 5728 199c F7EE004A 		vmov.f32	s9, #1.0e+0
 5729 19a0 F1EE10FA 		vmrs	APSR_nzcv, FPSCR
 5730 19a4 58BF     		it	pl
 5731 19a6 F0EE444A 		vmovpl.f32	s9, s8
 5732 19aa C4E7     		b	.L200
 5733              	.L455:
 5734              		.align	2
 5735              	.L454:
 5736 19ac 00000000 		.word	.LANCHOR43
ARM GAS  /tmp/claude-502/ccjNbcJ1.s 			page 135


 5737 19b0 00000030 		.word	805306368
 5738 19b4 CDCC4C3F 		.word	1061997773
 5739 19b8 6666A63F 		.word	1067869798
 5740 19bc DB0F4940 		.word	1078530011
 5741 19c0 DB0F49C0 		.word	-1068953637
 5742 19c4 83F9A23F 		.word	1067645315
 5743 19c8 7B81CF3E 		.word	1053786491
 5744 19cc 6666663E 		.word	1046898278
 5745 19d0 00000000 		.word	0
 5746              	.LVL380:
 5747              	.L438:
  52:src/dsp.h     **** static inline float osc_saw(float ph){ return 2.0f*ph - 1.0f; }
 5748              		.loc 2 52 58 view .LVU1698
 5749              	.LBE937:
 5750              	.LBE936:
 5751              	.LBE942:
 5752              	.LBE970:
 5753              	.LBB971:
 5754              	.LBB965:
  59:src/dsp.h     ****         case WAVE_SQUARE: return osc_square(ph);
 5755              		.loc 2 59 9 is_stmt 1 view .LVU1699
  59:src/dsp.h     ****         case WAVE_SQUARE: return osc_square(ph);
 5756              		.loc 2 59 27 view .LVU1700
 5757              	.LBB956:
 5758              	.LBI956:
  44:src/dsp.h     ****     constexpr float PI = 3.14159265f;
 5759              		.loc 2 44 21 view .LVU1701
 5760              	.LBB957:
  45:src/dsp.h     ****     float x = ph*2.0f*PI - PI;                 // -π..π (angle shifted by π)
 5761              		.loc 2 45 5 view .LVU1702
  46:src/dsp.h     ****     float y = 1.27323954f*x - 0.405284735f*x*(x<0?-x:x);
 5762              		.loc 2 46 5 view .LVU1703
  46:src/dsp.h     ****     float y = 1.27323954f*x - 0.405284735f*x*(x<0?-x:x);
 5763              		.loc 2 46 17 is_stmt 0 view .LVU1704
 5764 19d4 74EE048A 		vadd.f32	s17, s8, s8
  46:src/dsp.h     ****     float y = 1.27323954f*x - 0.405284735f*x*(x<0?-x:x);
 5765              		.loc 2 46 11 view .LVU1705
 5766 19d8 1FED082A 		vldr.32	s4, .L454+16
 5767 19dc 5FED084A 		vldr.32	s9, .L454+20
 5768 19e0 E8EE824A 		vfma.f32	s9, s17, s4
 5769              	.LVL381:
  47:src/dsp.h     ****     y = 0.225f*(y*(y<0?-y:y) - y) + y;         // one refinement pass
 5770              		.loc 2 47 5 is_stmt 1 view .LVU1706
  47:src/dsp.h     ****     y = 0.225f*(y*(y<0?-y:y) - y) + y;         // one refinement pass
 5771              		.loc 2 47 26 is_stmt 0 view .LVU1707
 5772 19e4 1FED092A 		vldr.32	s4, .L454+24
  47:src/dsp.h     ****     y = 0.225f*(y*(y<0?-y:y) - y) + y;         // one refinement pass
 5773              		.loc 2 47 43 view .LVU1708
 5774 19e8 5FED098A 		vldr.32	s17, .L454+28
  47:src/dsp.h     ****     y = 0.225f*(y*(y<0?-y:y) - y) + y;         // one refinement pass
 5775              		.loc 2 47 50 view .LVU1709
 5776 19ec F5EEC04A 		vcmpe.f32	s9, #0
  47:src/dsp.h     ****     y = 0.225f*(y*(y<0?-y:y) - y) + y;         // one refinement pass
 5777              		.loc 2 47 43 view .LVU1710
 5778 19f0 64EEA88A 		vmul.f32	s17, s9, s17
  47:src/dsp.h     ****     y = 0.225f*(y*(y<0?-y:y) - y) + y;         // one refinement pass
 5779              		.loc 2 47 26 view .LVU1711
ARM GAS  /tmp/claude-502/ccjNbcJ1.s 			page 136


 5780 19f4 24EE822A 		vmul.f32	s4, s9, s4
  47:src/dsp.h     ****     y = 0.225f*(y*(y<0?-y:y) - y) + y;         // one refinement pass
 5781              		.loc 2 47 50 view .LVU1712
 5782 19f8 F1EE10FA 		vmrs	APSR_nzcv, FPSCR
 5783 19fc 48BF     		it	mi
 5784 19fe F1EE644A 		vnegmi.f32	s9, s9
 5785              	.LVL382:
  47:src/dsp.h     ****     y = 0.225f*(y*(y<0?-y:y) - y) + y;         // one refinement pass
 5786              		.loc 2 47 11 view .LVU1713
 5787 1a02 A8EEE42A 		vfms.f32	s4, s17, s9
 5788              	.LVL383:
  48:src/dsp.h     ****     return -y;                                 // undo the π shift: sin(x+π) = -sin(x)
 5789              		.loc 2 48 5 is_stmt 1 view .LVU1714
  48:src/dsp.h     ****     return -y;                                 // undo the π shift: sin(x+π) = -sin(x)
 5790              		.loc 2 48 23 is_stmt 0 view .LVU1715
 5791 1a06 B5EEC02A 		vcmpe.f32	s4, #0
 5792 1a0a F1EE424A 		vneg.f32	s9, s4
 5793 1a0e F1EE10FA 		vmrs	APSR_nzcv, FPSCR
 5794 1a12 54BF     		ite	pl
 5795 1a14 F0EE428A 		vmovpl.f32	s17, s4
 5796 1a18 F0EE648A 		vmovmi.f32	s17, s9
  48:src/dsp.h     ****     return -y;                                 // undo the π shift: sin(x+π) = -sin(x)
 5797              		.loc 2 48 30 view .LVU1716
 5798 1a1c E2EE284A 		vfma.f32	s9, s4, s17
  48:src/dsp.h     ****     return -y;                                 // undo the π shift: sin(x+π) = -sin(x)
 5799              		.loc 2 48 7 view .LVU1717
 5800 1a20 5FED168A 		vldr.32	s17, .L454+32
 5801 1a24 A4EEA82A 		vfma.f32	s4, s9, s17
 5802              	.LVL384:
  49:src/dsp.h     **** }
 5803              		.loc 2 49 5 is_stmt 1 view .LVU1718
  49:src/dsp.h     **** }
 5804              		.loc 2 49 13 is_stmt 0 view .LVU1719
 5805 1a28 B1EE422A 		vneg.f32	s4, s4
 5806              	.LVL385:
 5807              	.L210:
  49:src/dsp.h     **** }
 5808              		.loc 2 49 13 view .LVU1720
 5809              	.LBE957:
 5810              	.LBE956:
 5811              	.LBE965:
 5812              	.LBE971:
 115:src/engine.cpp ****     if(V.noise_level > 0.0f){
 5813              		.loc 1 115 42 view .LVU1721
 5814 1a2c 02EB010C 		add	ip, r2, r1
 5815 1a30 07EB4C1C 		add	ip, r7, ip, lsl #5
 5816 1a34 DCED0E8A 		vldr.32	s17, [ip, #56]
 5817              	.LBB972:
 116:src/engine.cpp ****         s_noise_rng ^= s_noise_rng<<13; s_noise_rng ^= s_noise_rng>>17; s_noise_rng ^= s_noise_rng<
 5818              		.loc 1 116 10 view .LVU1722
 5819 1a38 DCED149A 		vldr.32	s19, [ip, #80]
 5820              	.LBE972:
 115:src/engine.cpp ****     if(V.noise_level > 0.0f){
 5821              		.loc 1 115 42 view .LVU1723
 5822 1a3c A8EE827A 		vfma.f32	s14, s17, s4
 5823              	.LBB975:
 116:src/engine.cpp ****         s_noise_rng ^= s_noise_rng<<13; s_noise_rng ^= s_noise_rng>>17; s_noise_rng ^= s_noise_rng<
ARM GAS  /tmp/claude-502/ccjNbcJ1.s 			page 137


 5824              		.loc 1 116 5 view .LVU1724
 5825 1a40 F5EEC09A 		vcmpe.f32	s19, #0
 5826 1a44 F1EE10FA 		vmrs	APSR_nzcv, FPSCR
 5827              	.LBE975:
 115:src/engine.cpp ****     if(V.noise_level > 0.0f){
 5828              		.loc 1 115 42 view .LVU1725
 5829 1a48 F0EE474A 		vmov.f32	s9, s14
 5830              	.LVL386:
 116:src/engine.cpp ****         s_noise_rng ^= s_noise_rng<<13; s_noise_rng ^= s_noise_rng>>17; s_noise_rng ^= s_noise_rng<
 5831              		.loc 1 116 5 is_stmt 1 view .LVU1726
 5832              	.LBB976:
 5833 1a4c 27DD     		ble	.L213
 5834              	.LBB973:
 117:src/engine.cpp ****         float white  = (float)(int32_t)s_noise_rng * (1.0f/2147483648.0f);
 5835              		.loc 1 117 9 view .LVU1727
 117:src/engine.cpp ****         float white  = (float)(int32_t)s_noise_rng * (1.0f/2147483648.0f);
 5836              		.loc 1 117 21 is_stmt 0 view .LVU1728
 5837 1a4e 80EA4030 		eor	r0, r0, r0, lsl #13
 117:src/engine.cpp ****         float white  = (float)(int32_t)s_noise_rng * (1.0f/2147483648.0f);
 5838              		.loc 1 117 41 is_stmt 1 view .LVU1729
 119:src/engine.cpp ****         float bright = white - h.noise_lp;
 5839              		.loc 1 119 21 is_stmt 0 view .LVU1730
 5840 1a52 93ED0C7A 		vldr.32	s14, [r3, #48]
 119:src/engine.cpp ****         float bright = white - h.noise_lp;
 5841              		.loc 1 119 47 view .LVU1731
 5842 1a56 1FED2A2A 		vldr.32	s4, .L454+4
 117:src/engine.cpp ****         float white  = (float)(int32_t)s_noise_rng * (1.0f/2147483648.0f);
 5843              		.loc 1 117 53 view .LVU1732
 5844 1a5a 80EA5040 		eor	r0, r0, r0, lsr #17
 117:src/engine.cpp ****         float white  = (float)(int32_t)s_noise_rng * (1.0f/2147483648.0f);
 5845              		.loc 1 117 73 is_stmt 1 view .LVU1733
 119:src/engine.cpp ****         float bright = white - h.noise_lp;
 5846              		.loc 1 119 47 is_stmt 0 view .LVU1734
 5847 1a5e B0EE47DA 		vmov.f32	s26, s14
 119:src/engine.cpp ****         float bright = white - h.noise_lp;
 5848              		.loc 1 119 21 view .LVU1735
 5849 1a62 1FED2CBA 		vldr.32	s22, .L454+8
 117:src/engine.cpp ****         float white  = (float)(int32_t)s_noise_rng * (1.0f/2147483648.0f);
 5850              		.loc 1 117 85 view .LVU1736
 5851 1a66 80EA4010 		eor	r0, r0, r0, lsl #5
 118:src/engine.cpp ****         h.noise_lp  += NOISE_HP_COEF * (white - h.noise_lp);
 5852              		.loc 1 118 9 is_stmt 1 view .LVU1737
 121:src/engine.cpp ****     }
 5853              		.loc 1 121 46 is_stmt 0 view .LVU1738
 5854 1a6a 9CED1EAA 		vldr.32	s20, [ip, #120]
 5855              	.LBE973:
 5856 1a6e CDF8ACE0 		str	lr, [sp, #172]
 5857              	.LBB974:
 118:src/engine.cpp ****         h.noise_lp  += NOISE_HP_COEF * (white - h.noise_lp);
 5858              		.loc 1 118 24 view .LVU1739
 5859 1a72 08EE900A 		vmov	s17, r0	@ int
 5860 1a76 F8EEE88A 		vcvt.f32.s32	s17, s17
 5861              	.LVL387:
 119:src/engine.cpp ****         float bright = white - h.noise_lp;
 5862              		.loc 1 119 9 is_stmt 1 view .LVU1740
 119:src/engine.cpp ****         float bright = white - h.noise_lp;
 5863              		.loc 1 119 47 is_stmt 0 view .LVU1741
ARM GAS  /tmp/claude-502/ccjNbcJ1.s 			page 138


 5864 1a7a 98EE82DA 		vfnms.f32	s26, s17, s4
 119:src/engine.cpp ****         float bright = white - h.noise_lp;
 5865              		.loc 1 119 21 view .LVU1742
 5866 1a7e ADEE0B7A 		vfma.f32	s14, s26, s22
 5867 1a82 83ED0C7A 		vstr.32	s14, [r3, #48]
 120:src/engine.cpp ****         mix += (white + (bright*2.0f - white)*V.noise_hp) * V.noise_level;
 5868              		.loc 1 120 9 is_stmt 1 view .LVU1743
 120:src/engine.cpp ****         mix += (white + (bright*2.0f - white)*V.noise_hp) * V.noise_level;
 5869              		.loc 1 120 15 is_stmt 0 view .LVU1744
 5870 1a86 98EE827A 		vfnms.f32	s14, s17, s4
 5871              	.LVL388:
 121:src/engine.cpp ****     }
 5872              		.loc 1 121 9 is_stmt 1 view .LVU1745
 121:src/engine.cpp ****     }
 5873              		.loc 1 121 32 is_stmt 0 view .LVU1746
 5874 1a8a 37EE077A 		vadd.f32	s14, s14, s14
 5875              	.LVL389:
 121:src/engine.cpp ****     }
 5876              		.loc 1 121 38 view .LVU1747
 5877 1a8e A8EEC27A 		vfms.f32	s14, s17, s4
 121:src/engine.cpp ****     }
 5878              		.loc 1 121 46 view .LVU1748
 5879 1a92 27EE0A7A 		vmul.f32	s14, s14, s20
 121:src/engine.cpp ****     }
 5880              		.loc 1 121 23 view .LVU1749
 5881 1a96 A8EE827A 		vfma.f32	s14, s17, s4
 121:src/engine.cpp ****     }
 5882              		.loc 1 121 13 view .LVU1750
 5883 1a9a E9EE874A 		vfma.f32	s9, s19, s14
 5884              	.LVL390:
 5885              	.L213:
 121:src/engine.cpp ****     }
 5886              		.loc 1 121 13 view .LVU1751
 5887              	.LBE974:
 5888              	.LBE976:
 123:src/engine.cpp ****     // Per-drum 1-pole lowpass (cheap — one multiply-add — instead of the 4-pole
 5889              		.loc 1 123 5 is_stmt 1 view .LVU1752
 123:src/engine.cpp ****     // Per-drum 1-pole lowpass (cheap — one multiply-add — instead of the 4-pole
 5890              		.loc 1 123 20 is_stmt 0 view .LVU1753
 5891 1a9e 93ED057A 		vldr.32	s14, [r3, #20]
 5892 1aa2 24EE877A 		vmul.f32	s14, s9, s14
 5893              	.LVL391:
 5894              	.LBB977:
 5895              	.LBI977:
  23:src/dsp.h     **** {
 5896              		.loc 2 23 21 is_stmt 1 view .LVU1754
 5897              	.LBB978:
  25:src/dsp.h     ****     if(x<-3.0f)return -1.0f;
 5898              		.loc 2 25 5 view .LVU1755
 5899 1aa6 F0EE084A 		vmov.f32	s9, #3.0e+0
 5900              	.LVL392:
  25:src/dsp.h     ****     if(x<-3.0f)return -1.0f;
 5901              		.loc 2 25 5 is_stmt 0 view .LVU1756
 5902 1aaa B4EEE47A 		vcmpe.f32	s14, s9
 5903 1aae F1EE10FA 		vmrs	APSR_nzcv, FPSCR
 5904 1ab2 00F3A380 		bgt	.L308
  26:src/dsp.h     ****     float x2=x*x;
ARM GAS  /tmp/claude-502/ccjNbcJ1.s 			page 139


 5905              		.loc 2 26 5 is_stmt 1 view .LVU1757
 5906 1ab6 F8EE084A 		vmov.f32	s9, #-3.0e+0
 5907 1aba B4EEE47A 		vcmpe.f32	s14, s9
 5908 1abe F1EE10FA 		vmrs	APSR_nzcv, FPSCR
 5909 1ac2 00F1E480 		bmi	.L309
 5910              	.LVL393:
 5911              	.LBB979:
 5912              	.LBI979:
  23:src/dsp.h     **** {
 5913              		.loc 2 23 21 view .LVU1758
 5914              	.LBB980:
  27:src/dsp.h     ****     return x*(27.0f+x2)/(27.0f+9.0f*x2);
 5915              		.loc 2 27 5 view .LVU1759
  28:src/dsp.h     **** }
 5916              		.loc 2 28 20 is_stmt 0 view .LVU1760
 5917 1ac6 B3EE0B2A 		vmov.f32	s4, #2.7e+1
  27:src/dsp.h     ****     return x*(27.0f+x2)/(27.0f+9.0f*x2);
 5918              		.loc 2 27 11 view .LVU1761
 5919 1aca 67EE074A 		vmul.f32	s9, s14, s14
 5920              	.LVL394:
  28:src/dsp.h     **** }
 5921              		.loc 2 28 5 is_stmt 1 view .LVU1762
  28:src/dsp.h     **** }
 5922              		.loc 2 28 31 is_stmt 0 view .LVU1763
 5923 1ace F2EE029A 		vmov.f32	s19, #9.0e+0
 5924 1ad2 F0EE428A 		vmov.f32	s17, s4
 5925 1ad6 E4EEA98A 		vfma.f32	s17, s9, s19
  28:src/dsp.h     **** }
 5926              		.loc 2 28 20 view .LVU1764
 5927 1ada 74EE824A 		vadd.f32	s9, s9, s4
 5928              	.LVL395:
  28:src/dsp.h     **** }
 5929              		.loc 2 28 13 view .LVU1765
 5930 1ade 24EE877A 		vmul.f32	s14, s9, s14
 5931              	.LVL396:
  28:src/dsp.h     **** }
 5932              		.loc 2 28 39 view .LVU1766
 5933 1ae2 87EE282A 		vdiv.f32	s4, s14, s17
 5934              	.L215:
 5935              	.LVL397:
  28:src/dsp.h     **** }
 5936              		.loc 2 28 39 view .LVU1767
 5937              	.LBE980:
 5938              	.LBE979:
 5939              	.LBE978:
 5940              	.LBE977:
 126:src/engine.cpp ****     h.ph1 += f*V.osc1_ratio/sr; if(h.ph1>=1.0f)h.ph1-=1.0f;
 5941              		.loc 1 126 5 is_stmt 1 view .LVU1768
 127:src/engine.cpp ****     h.ph2 += f*V.osc2_ratio/sr; if(h.ph2>=1.0f)h.ph2-=1.0f;
 5942              		.loc 1 127 18 is_stmt 0 view .LVU1769
 5943 1ae6 02EB010C 		add	ip, r2, r1
 5944 1aea 07EB4C1C 		add	ip, r7, ip, lsl #5
 127:src/engine.cpp ****     h.ph2 += f*V.osc2_ratio/sr; if(h.ph2>=1.0f)h.ph2-=1.0f;
 5945              		.loc 1 127 15 view .LVU1770
 5946 1aee DCED044A 		vldr.32	s9, [ip, #16]
 128:src/engine.cpp ****     h.phs += f*V.sub_ratio /sr; if(h.phs>=1.0f)h.phs-=1.0f;
 5947              		.loc 1 128 18 view .LVU1771
ARM GAS  /tmp/claude-502/ccjNbcJ1.s 			page 140


 5948 1af2 02EB010C 		add	ip, r2, r1
 127:src/engine.cpp ****     h.ph2 += f*V.osc2_ratio/sr; if(h.ph2>=1.0f)h.ph2-=1.0f;
 5949              		.loc 1 127 15 view .LVU1772
 5950 1af6 66EE244A 		vmul.f32	s9, s12, s9
 128:src/engine.cpp ****     h.phs += f*V.sub_ratio /sr; if(h.phs>=1.0f)h.phs-=1.0f;
 5951              		.loc 1 128 18 view .LVU1773
 5952 1afa 07EB4C1C 		add	ip, r7, ip, lsl #5
 127:src/engine.cpp ****     h.ph2 += f*V.osc2_ratio/sr; if(h.ph2>=1.0f)h.ph2-=1.0f;
 5953              		.loc 1 127 28 view .LVU1774
 5954 1afe 84EE887A 		vdiv.f32	s14, s9, s16
 127:src/engine.cpp ****     h.ph2 += f*V.osc2_ratio/sr; if(h.ph2>=1.0f)h.ph2-=1.0f;
 5955              		.loc 1 127 11 view .LVU1775
 5956 1b02 77EE255A 		vadd.f32	s11, s14, s11
 126:src/engine.cpp ****     h.ph1 += f*V.osc1_ratio/sr; if(h.ph1>=1.0f)h.ph1-=1.0f;
 5957              		.loc 1 126 16 view .LVU1776
 5958 1b06 93ED0D7A 		vldr.32	s14, [r3, #52]
 126:src/engine.cpp ****     h.ph1 += f*V.osc1_ratio/sr; if(h.ph1>=1.0f)h.ph1-=1.0f;
 5959              		.loc 1 126 37 view .LVU1777
 5960 1b0a 72EE474A 		vsub.f32	s9, s4, s14
 126:src/engine.cpp ****     h.ph1 += f*V.osc1_ratio/sr; if(h.ph1>=1.0f)h.ph1-=1.0f;
 5961              		.loc 1 126 16 view .LVU1778
 5962 1b0e 93ED0E2A 		vldr.32	s4, [r3, #56]
 5963              	.LVL398:
 126:src/engine.cpp ****     h.ph1 += f*V.osc1_ratio/sr; if(h.ph1>=1.0f)h.ph1-=1.0f;
 5964              		.loc 1 126 16 view .LVU1779
 5965 1b12 A2EE247A 		vfma.f32	s14, s4, s9
 127:src/engine.cpp ****     h.ph2 += f*V.osc2_ratio/sr; if(h.ph2>=1.0f)h.ph2-=1.0f;
 5966              		.loc 1 127 33 view .LVU1780
 5967 1b16 F7EE004A 		vmov.f32	s9, #1.0e+0
 5968 1b1a F4EEE45A 		vcmpe.f32	s11, s9
 126:src/engine.cpp ****     h.ph1 += f*V.osc1_ratio/sr; if(h.ph1>=1.0f)h.ph1-=1.0f;
 5969              		.loc 1 126 16 view .LVU1781
 5970 1b1e 83ED0D7A 		vstr.32	s14, [r3, #52]
 127:src/engine.cpp ****     h.ph2 += f*V.osc2_ratio/sr; if(h.ph2>=1.0f)h.ph2-=1.0f;
 5971              		.loc 1 127 5 is_stmt 1 view .LVU1782
 127:src/engine.cpp ****     h.ph2 += f*V.osc2_ratio/sr; if(h.ph2>=1.0f)h.ph2-=1.0f;
 5972              		.loc 1 127 33 view .LVU1783
 5973 1b22 F1EE10FA 		vmrs	APSR_nzcv, FPSCR
 127:src/engine.cpp ****     h.ph2 += f*V.osc2_ratio/sr; if(h.ph2>=1.0f)h.ph2-=1.0f;
 5974              		.loc 1 127 48 view .LVU1784
 128:src/engine.cpp ****     h.phs += f*V.sub_ratio /sr; if(h.phs>=1.0f)h.phs-=1.0f;
 5975              		.loc 1 128 5 view .LVU1785
 127:src/engine.cpp ****     h.ph2 += f*V.osc2_ratio/sr; if(h.ph2>=1.0f)h.ph2-=1.0f;
 5976              		.loc 1 127 53 is_stmt 0 view .LVU1786
 5977 1b26 A8BF     		it	ge
 5978 1b28 75EEE45A 		vsubge.f32	s11, s11, s9
 128:src/engine.cpp ****     h.phs += f*V.sub_ratio /sr; if(h.phs>=1.0f)h.phs-=1.0f;
 5979              		.loc 1 128 15 view .LVU1787
 5980 1b2c DCED074A 		vldr.32	s9, [ip, #28]
 129:src/engine.cpp ****     h.pho += f*V.oct_ratio /sr; if(h.pho>=1.0f)h.pho-=1.0f;
 5981              		.loc 1 129 18 view .LVU1788
 5982 1b30 02EB010C 		add	ip, r2, r1
 130:src/engine.cpp ****     return fast_tanh(h.lp_state*1.3f) * h.amp;
 5983              		.loc 1 130 18 view .LVU1789
 5984 1b34 0A44     		add	r2, r2, r1
 128:src/engine.cpp ****     h.phs += f*V.sub_ratio /sr; if(h.phs>=1.0f)h.phs-=1.0f;
 5985              		.loc 1 128 15 view .LVU1790
ARM GAS  /tmp/claude-502/ccjNbcJ1.s 			page 141


 5986 1b36 66EE244A 		vmul.f32	s9, s12, s9
 127:src/engine.cpp ****     h.ph2 += f*V.osc2_ratio/sr; if(h.ph2>=1.0f)h.ph2-=1.0f;
 5987              		.loc 1 127 53 view .LVU1791
 5988 1b3a C3ED065A 		vstr.32	s11, [r3, #24]
 129:src/engine.cpp ****     h.pho += f*V.oct_ratio /sr; if(h.pho>=1.0f)h.pho-=1.0f;
 5989              		.loc 1 129 18 view .LVU1792
 5990 1b3e 07EB4C1C 		add	ip, r7, ip, lsl #5
 130:src/engine.cpp ****     return fast_tanh(h.lp_state*1.3f) * h.amp;
 5991              		.loc 1 130 18 view .LVU1793
 5992 1b42 07EB4212 		add	r2, r7, r2, lsl #5
 128:src/engine.cpp ****     h.phs += f*V.sub_ratio /sr; if(h.phs>=1.0f)h.phs-=1.0f;
 5993              		.loc 1 128 28 view .LVU1794
 5994 1b46 C4EE885A 		vdiv.f32	s11, s9, s16
 129:src/engine.cpp ****     h.pho += f*V.oct_ratio /sr; if(h.pho>=1.0f)h.pho-=1.0f;
 5995              		.loc 1 129 15 view .LVU1795
 5996 1b4a DCED0A4A 		vldr.32	s9, [ip, #40]
 5997 1b4e 66EE244A 		vmul.f32	s9, s12, s9
 128:src/engine.cpp ****     h.phs += f*V.sub_ratio /sr; if(h.phs>=1.0f)h.phs-=1.0f;
 5998              		.loc 1 128 11 view .LVU1796
 5999 1b52 75EEA33A 		vadd.f32	s7, s11, s7
 128:src/engine.cpp ****     h.phs += f*V.sub_ratio /sr; if(h.phs>=1.0f)h.phs-=1.0f;
 6000              		.loc 1 128 33 is_stmt 1 view .LVU1797
 6001 1b56 F7EE005A 		vmov.f32	s11, #1.0e+0
 6002 1b5a F4EEE53A 		vcmpe.f32	s7, s11
 6003 1b5e F1EE10FA 		vmrs	APSR_nzcv, FPSCR
 128:src/engine.cpp ****     h.phs += f*V.sub_ratio /sr; if(h.phs>=1.0f)h.phs-=1.0f;
 6004              		.loc 1 128 48 view .LVU1798
 129:src/engine.cpp ****     h.pho += f*V.oct_ratio /sr; if(h.pho>=1.0f)h.pho-=1.0f;
 6005              		.loc 1 129 5 view .LVU1799
 128:src/engine.cpp ****     h.phs += f*V.sub_ratio /sr; if(h.phs>=1.0f)h.phs-=1.0f;
 6006              		.loc 1 128 53 is_stmt 0 view .LVU1800
 6007 1b62 A8BF     		it	ge
 6008 1b64 73EEE53A 		vsubge.f32	s7, s7, s11
 129:src/engine.cpp ****     h.pho += f*V.oct_ratio /sr; if(h.pho>=1.0f)h.pho-=1.0f;
 6009              		.loc 1 129 28 view .LVU1801
 6010 1b68 C4EE885A 		vdiv.f32	s11, s9, s16
 128:src/engine.cpp ****     h.phs += f*V.sub_ratio /sr; if(h.phs>=1.0f)h.phs-=1.0f;
 6011              		.loc 1 128 53 view .LVU1802
 6012 1b6c C3ED073A 		vstr.32	s7, [r3, #28]
 129:src/engine.cpp ****     h.pho += f*V.oct_ratio /sr; if(h.pho>=1.0f)h.pho-=1.0f;
 6013              		.loc 1 129 11 view .LVU1803
 6014 1b70 35EE833A 		vadd.f32	s6, s11, s6
 129:src/engine.cpp ****     h.pho += f*V.oct_ratio /sr; if(h.pho>=1.0f)h.pho-=1.0f;
 6015              		.loc 1 129 33 is_stmt 1 view .LVU1804
 6016 1b74 F7EE005A 		vmov.f32	s11, #1.0e+0
 6017 1b78 B4EEE53A 		vcmpe.f32	s6, s11
 6018 1b7c F1EE10FA 		vmrs	APSR_nzcv, FPSCR
 129:src/engine.cpp ****     h.pho += f*V.oct_ratio /sr; if(h.pho>=1.0f)h.pho-=1.0f;
 6019              		.loc 1 129 48 view .LVU1805
 130:src/engine.cpp ****     return fast_tanh(h.lp_state*1.3f) * h.amp;
 6020              		.loc 1 130 5 view .LVU1806
 129:src/engine.cpp ****     h.pho += f*V.oct_ratio /sr; if(h.pho>=1.0f)h.pho-=1.0f;
 6021              		.loc 1 129 53 is_stmt 0 view .LVU1807
 6022 1b80 A8BF     		it	ge
 6023 1b82 33EE653A 		vsubge.f32	s6, s6, s11
 130:src/engine.cpp ****     return fast_tanh(h.lp_state*1.3f) * h.amp;
 6024              		.loc 1 130 15 view .LVU1808
ARM GAS  /tmp/claude-502/ccjNbcJ1.s 			page 142


 6025 1b86 D2ED0D5A 		vldr.32	s11, [r2, #52]
 6026 1b8a 26EE256A 		vmul.f32	s12, s12, s11
 6027              	.LVL399:
 129:src/engine.cpp ****     h.pho += f*V.oct_ratio /sr; if(h.pho>=1.0f)h.pho-=1.0f;
 6028              		.loc 1 129 53 view .LVU1809
 6029 1b8e 83ED083A 		vstr.32	s6, [r3, #32]
 130:src/engine.cpp ****     return fast_tanh(h.lp_state*1.3f) * h.amp;
 6030              		.loc 1 130 28 view .LVU1810
 6031 1b92 C6EE085A 		vdiv.f32	s11, s12, s16
 130:src/engine.cpp ****     return fast_tanh(h.lp_state*1.3f) * h.amp;
 6032              		.loc 1 130 33 view .LVU1811
 6033 1b96 B7EE006A 		vmov.f32	s12, #1.0e+0
 130:src/engine.cpp ****     return fast_tanh(h.lp_state*1.3f) * h.amp;
 6034              		.loc 1 130 11 view .LVU1812
 6035 1b9a 35EE844A 		vadd.f32	s8, s11, s8
 130:src/engine.cpp ****     return fast_tanh(h.lp_state*1.3f) * h.amp;
 6036              		.loc 1 130 33 is_stmt 1 view .LVU1813
 6037 1b9e B4EEC64A 		vcmpe.f32	s8, s12
 6038 1ba2 F1EE10FA 		vmrs	APSR_nzcv, FPSCR
 130:src/engine.cpp ****     return fast_tanh(h.lp_state*1.3f) * h.amp;
 6039              		.loc 1 130 48 view .LVU1814
 130:src/engine.cpp ****     return fast_tanh(h.lp_state*1.3f) * h.amp;
 6040              		.loc 1 130 53 is_stmt 0 view .LVU1815
 6041 1ba6 A8BF     		it	ge
 6042 1ba8 34EE464A 		vsubge.f32	s8, s8, s12
 131:src/engine.cpp **** }
 6043              		.loc 1 131 21 view .LVU1816
 6044 1bac 1FED7E6A 		vldr.32	s12, .L454+12
 6045 1bb0 27EE067A 		vmul.f32	s14, s14, s12
 6046              	.LBB983:
 6047              	.LBB984:
  25:src/dsp.h     ****     if(x<-3.0f)return -1.0f;
 6048              		.loc 2 25 5 view .LVU1817
 6049 1bb4 B0EE086A 		vmov.f32	s12, #3.0e+0
 6050              	.LBE984:
 6051              	.LBE983:
 130:src/engine.cpp ****     return fast_tanh(h.lp_state*1.3f) * h.amp;
 6052              		.loc 1 130 53 view .LVU1818
 6053 1bb8 83ED094A 		vstr.32	s8, [r3, #36]
 131:src/engine.cpp **** }
 6054              		.loc 1 131 5 is_stmt 1 view .LVU1819
 6055              	.LVL400:
 6056              	.LBB988:
 6057              	.LBI983:
  23:src/dsp.h     **** {
 6058              		.loc 2 23 21 view .LVU1820
 6059              	.LBB987:
  25:src/dsp.h     ****     if(x<-3.0f)return -1.0f;
 6060              		.loc 2 25 5 view .LVU1821
 6061 1bbc B4EEC67A 		vcmpe.f32	s14, s12
 6062 1bc0 F1EE10FA 		vmrs	APSR_nzcv, FPSCR
 6063 1bc4 3FF740AC 		bgt	.L166
  26:src/dsp.h     ****     float x2=x*x;
 6064              		.loc 2 26 5 view .LVU1822
 6065 1bc8 B8EE086A 		vmov.f32	s12, #-3.0e+0
 6066 1bcc B4EEC67A 		vcmpe.f32	s14, s12
 6067 1bd0 F1EE10FA 		vmrs	APSR_nzcv, FPSCR
ARM GAS  /tmp/claude-502/ccjNbcJ1.s 			page 143


 6068 1bd4 57D4     		bmi	.L439
 6069              	.LVL401:
 6070              	.LBB985:
 6071              	.LBI985:
  23:src/dsp.h     **** {
 6072              		.loc 2 23 21 view .LVU1823
 6073              	.LBB986:
  27:src/dsp.h     ****     return x*(27.0f+x2)/(27.0f+9.0f*x2);
 6074              		.loc 2 27 5 view .LVU1824
  28:src/dsp.h     **** }
 6075              		.loc 2 28 20 is_stmt 0 view .LVU1825
 6076 1bd6 F3EE0B5A 		vmov.f32	s11, #2.7e+1
  27:src/dsp.h     ****     return x*(27.0f+x2)/(27.0f+9.0f*x2);
 6077              		.loc 2 27 11 view .LVU1826
 6078 1bda 27EE076A 		vmul.f32	s12, s14, s14
 6079              	.LVL402:
  28:src/dsp.h     **** }
 6080              		.loc 2 28 5 is_stmt 1 view .LVU1827
  28:src/dsp.h     **** }
 6081              		.loc 2 28 31 is_stmt 0 view .LVU1828
 6082 1bde B2EE024A 		vmov.f32	s8, #9.0e+0
 6083 1be2 F0EE654A 		vmov.f32	s9, s11
 6084 1be6 E6EE044A 		vfma.f32	s9, s12, s8
 6085              	.LVL403:
  28:src/dsp.h     **** }
 6086              		.loc 2 28 20 view .LVU1829
 6087 1bea 36EE256A 		vadd.f32	s12, s12, s11
  28:src/dsp.h     **** }
 6088              		.loc 2 28 13 view .LVU1830
 6089 1bee 26EE077A 		vmul.f32	s14, s12, s14
 6090              	.LVL404:
  28:src/dsp.h     **** }
 6091              		.loc 2 28 39 view .LVU1831
 6092 1bf2 87EE246A 		vdiv.f32	s12, s14, s9
 6093              	.LBE986:
 6094              	.LBE985:
 6095              	.LBE987:
 6096              	.LBE988:
 131:src/engine.cpp **** }
 6097              		.loc 1 131 43 view .LVU1832
 6098 1bf6 66EE866A 		vmul.f32	s13, s13, s12
 6099              	.LVL405:
 131:src/engine.cpp **** }
 6100              		.loc 1 131 43 view .LVU1833
 6101 1bfa 25E4     		b	.L166
 6102              	.LVL406:
 6103              	.L308:
 6104              	.LBB989:
 6105              	.LBB981:
  25:src/dsp.h     ****     if(x<-3.0f)return -1.0f;
 6106              		.loc 2 25 24 view .LVU1834
 6107 1bfc B7EE002A 		vmov.f32	s4, #1.0e+0
 6108 1c00 71E7     		b	.L215
 6109              	.LVL407:
 6110              	.L204:
  25:src/dsp.h     ****     if(x<-3.0f)return -1.0f;
 6111              		.loc 2 25 24 view .LVU1835
ARM GAS  /tmp/claude-502/ccjNbcJ1.s 			page 144


 6112              	.LBE981:
 6113              	.LBE989:
 6114              	.LBB990:
 6115              	.LBB966:
  61:src/dsp.h     ****         case WAVE_TRI:
 6116              		.loc 2 61 9 is_stmt 1 view .LVU1836
  61:src/dsp.h     ****         case WAVE_TRI:
 6117              		.loc 2 61 27 view .LVU1837
 6118              	.LBB958:
 6119              	.LBI958:
  53:src/dsp.h     **** 
 6120              		.loc 2 53 21 view .LVU1838
 6121              	.LBB959:
  53:src/dsp.h     **** 
 6122              		.loc 2 53 40 view .LVU1839
  53:src/dsp.h     **** 
 6123              		.loc 2 53 57 is_stmt 0 view .LVU1840
 6124 1c02 F0EE004A 		vmov.f32	s9, #2.0e+0
 6125 1c06 BFEE002A 		vmov.f32	s4, #-1.0e+0
 6126 1c0a A4EE242A 		vfma.f32	s4, s8, s9
 6127              	.LVL408:
  53:src/dsp.h     **** 
 6128              		.loc 2 53 57 view .LVU1841
 6129              	.LBE959:
 6130              	.LBE958:
  61:src/dsp.h     ****         case WAVE_TRI:
 6131              		.loc 2 61 44 view .LVU1842
 6132 1c0e 0DE7     		b	.L210
 6133              	.L203:
  60:src/dsp.h     ****         case WAVE_SAW:    return osc_saw(ph);
 6134              		.loc 2 60 9 is_stmt 1 view .LVU1843
  60:src/dsp.h     ****         case WAVE_SAW:    return osc_saw(ph);
 6135              		.loc 2 60 27 view .LVU1844
 6136              	.LVL409:
 6137              	.LBB960:
 6138              	.LBI960:
  52:src/dsp.h     **** static inline float osc_saw(float ph){ return 2.0f*ph - 1.0f; }
 6139              		.loc 2 52 21 view .LVU1845
 6140              	.LBB961:
  52:src/dsp.h     **** static inline float osc_saw(float ph){ return 2.0f*ph - 1.0f; }
 6141              		.loc 2 52 43 view .LVU1846
  52:src/dsp.h     **** static inline float osc_saw(float ph){ return 2.0f*ph - 1.0f; }
 6142              		.loc 2 52 58 is_stmt 0 view .LVU1847
 6143 1c10 F6EE004A 		vmov.f32	s9, #5.0e-1
 6144 1c14 B7EE002A 		vmov.f32	s4, #1.0e+0
 6145 1c18 B4EEE44A 		vcmpe.f32	s8, s9
 6146 1c1c FFEE004A 		vmov.f32	s9, #-1.0e+0
 6147 1c20 F1EE10FA 		vmrs	APSR_nzcv, FPSCR
 6148 1c24 58BF     		it	pl
 6149 1c26 B0EE642A 		vmovpl.f32	s4, s9
 6150 1c2a FFE6     		b	.L210
 6151              	.LVL410:
 6152              	.L433:
  52:src/dsp.h     **** static inline float osc_saw(float ph){ return 2.0f*ph - 1.0f; }
 6153              		.loc 2 52 58 view .LVU1848
 6154              	.LBE961:
 6155              	.LBE960:
ARM GAS  /tmp/claude-502/ccjNbcJ1.s 			page 145


 6156              	.LBE966:
 6157              	.LBE990:
 6158              	.LBB991:
 6159              	.LBB895:
  59:src/dsp.h     ****         case WAVE_SQUARE: return osc_square(ph);
 6160              		.loc 2 59 9 is_stmt 1 view .LVU1849
  59:src/dsp.h     ****         case WAVE_SQUARE: return osc_square(ph);
 6161              		.loc 2 59 27 view .LVU1850
 6162              	.LBB888:
 6163              	.LBI888:
  44:src/dsp.h     ****     constexpr float PI = 3.14159265f;
 6164              		.loc 2 44 21 view .LVU1851
 6165              	.LBB889:
  45:src/dsp.h     ****     float x = ph*2.0f*PI - PI;                 // -π..π (angle shifted by π)
 6166              		.loc 2 45 5 view .LVU1852
  46:src/dsp.h     ****     float y = 1.27323954f*x - 0.405284735f*x*(x<0?-x:x);
 6167              		.loc 2 46 5 view .LVU1853
  46:src/dsp.h     ****     float y = 1.27323954f*x - 0.405284735f*x*(x<0?-x:x);
 6168              		.loc 2 46 17 is_stmt 0 view .LVU1854
 6169 1c2c 35EEA54A 		vadd.f32	s8, s11, s11
  46:src/dsp.h     ****     float y = 1.27323954f*x - 0.405284735f*x*(x<0?-x:x);
 6170              		.loc 2 46 11 view .LVU1855
 6171 1c30 1FED9E7A 		vldr.32	s14, .L454+16
 6172 1c34 5FED9E4A 		vldr.32	s9, .L454+20
 6173 1c38 E4EE074A 		vfma.f32	s9, s8, s14
 6174              	.LVL411:
  47:src/dsp.h     ****     y = 0.225f*(y*(y<0?-y:y) - y) + y;         // one refinement pass
 6175              		.loc 2 47 5 is_stmt 1 view .LVU1856
  47:src/dsp.h     ****     y = 0.225f*(y*(y<0?-y:y) - y) + y;         // one refinement pass
 6176              		.loc 2 47 26 is_stmt 0 view .LVU1857
 6177 1c3c 1FED9F7A 		vldr.32	s14, .L454+24
  47:src/dsp.h     ****     y = 0.225f*(y*(y<0?-y:y) - y) + y;         // one refinement pass
 6178              		.loc 2 47 43 view .LVU1858
 6179 1c40 1FED9F4A 		vldr.32	s8, .L454+28
  47:src/dsp.h     ****     y = 0.225f*(y*(y<0?-y:y) - y) + y;         // one refinement pass
 6180              		.loc 2 47 50 view .LVU1859
 6181 1c44 F5EEC04A 		vcmpe.f32	s9, #0
  47:src/dsp.h     ****     y = 0.225f*(y*(y<0?-y:y) - y) + y;         // one refinement pass
 6182              		.loc 2 47 43 view .LVU1860
 6183 1c48 24EE844A 		vmul.f32	s8, s9, s8
  47:src/dsp.h     ****     y = 0.225f*(y*(y<0?-y:y) - y) + y;         // one refinement pass
 6184              		.loc 2 47 26 view .LVU1861
 6185 1c4c 24EE877A 		vmul.f32	s14, s9, s14
  47:src/dsp.h     ****     y = 0.225f*(y*(y<0?-y:y) - y) + y;         // one refinement pass
 6186              		.loc 2 47 50 view .LVU1862
 6187 1c50 F1EE10FA 		vmrs	APSR_nzcv, FPSCR
 6188 1c54 48BF     		it	mi
 6189 1c56 F1EE644A 		vnegmi.f32	s9, s9
 6190              	.LVL412:
  47:src/dsp.h     ****     y = 0.225f*(y*(y<0?-y:y) - y) + y;         // one refinement pass
 6191              		.loc 2 47 11 view .LVU1863
 6192 1c5a A4EE647A 		vfms.f32	s14, s8, s9
 6193              	.LVL413:
  48:src/dsp.h     ****     return -y;                                 // undo the π shift: sin(x+π) = -sin(x)
 6194              		.loc 2 48 5 is_stmt 1 view .LVU1864
  48:src/dsp.h     ****     return -y;                                 // undo the π shift: sin(x+π) = -sin(x)
 6195              		.loc 2 48 23 is_stmt 0 view .LVU1865
ARM GAS  /tmp/claude-502/ccjNbcJ1.s 			page 146


 6196 1c5e B5EEC07A 		vcmpe.f32	s14, #0
 6197 1c62 F1EE474A 		vneg.f32	s9, s14
 6198 1c66 F1EE10FA 		vmrs	APSR_nzcv, FPSCR
 6199 1c6a 54BF     		ite	pl
 6200 1c6c B0EE474A 		vmovpl.f32	s8, s14
 6201 1c70 B0EE644A 		vmovmi.f32	s8, s9
  48:src/dsp.h     ****     return -y;                                 // undo the π shift: sin(x+π) = -sin(x)
 6202              		.loc 2 48 30 view .LVU1866
 6203 1c74 E7EE044A 		vfma.f32	s9, s14, s8
  48:src/dsp.h     ****     return -y;                                 // undo the π shift: sin(x+π) = -sin(x)
 6204              		.loc 2 48 7 view .LVU1867
 6205 1c78 1FEDAC4A 		vldr.32	s8, .L454+32
 6206 1c7c A4EE847A 		vfma.f32	s14, s9, s8
 6207              	.LVL414:
  49:src/dsp.h     **** }
 6208              		.loc 2 49 5 is_stmt 1 view .LVU1868
  49:src/dsp.h     **** }
 6209              		.loc 2 49 13 is_stmt 0 view .LVU1869
 6210 1c80 B1EE477A 		vneg.f32	s14, s14
 6211              	.LVL415:
  49:src/dsp.h     **** }
 6212              		.loc 2 49 13 view .LVU1870
 6213              	.LBE889:
 6214              	.LBE888:
  59:src/dsp.h     ****         case WAVE_SQUARE: return osc_square(ph);
 6215              		.loc 2 59 45 view .LVU1871
 6216 1c84 95E5     		b	.L180
 6217              	.LVL416:
 6218              	.L439:
  59:src/dsp.h     ****         case WAVE_SQUARE: return osc_square(ph);
 6219              		.loc 2 59 45 view .LVU1872
 6220 1c86 F1EE666A 		vneg.f32	s13, s13
 6221 1c8a FFF7DDBB 		b	.L166
 6222              	.LVL417:
 6223              	.L309:
  59:src/dsp.h     ****         case WAVE_SQUARE: return osc_square(ph);
 6224              		.loc 2 59 45 view .LVU1873
 6225              	.LBE895:
 6226              	.LBE991:
 6227              	.LBB992:
 6228              	.LBB982:
  26:src/dsp.h     ****     float x2=x*x;
 6229              		.loc 2 26 24 view .LVU1874
 6230 1c8e BFEE002A 		vmov.f32	s4, #-1.0e+0
 6231 1c92 28E7     		b	.L215
 6232              	.LVL418:
 6233              	.L432:
  26:src/dsp.h     ****     float x2=x*x;
 6234              		.loc 2 26 24 view .LVU1875
 6235              	.LBE982:
 6236              	.LBE992:
 107:src/engine.cpp ****     // Pitch envelope decays to 1.0.
 6237              		.loc 1 107 37 is_stmt 1 view .LVU1876
 107:src/engine.cpp ****     // Pitch envelope decays to 1.0.
 6238              		.loc 1 107 60 is_stmt 0 view .LVU1877
 6239 1c94 5FEDB26A 		vldr.32	s13, .L454+36
 107:src/engine.cpp ****     // Pitch envelope decays to 1.0.
ARM GAS  /tmp/claude-502/ccjNbcJ1.s 			page 147


 6240              		.loc 1 107 45 view .LVU1878
 6241 1c98 1A70     		strb	r2, [r3]
 107:src/engine.cpp ****     // Pitch envelope decays to 1.0.
 6242              		.loc 1 107 53 is_stmt 1 view .LVU1879
 107:src/engine.cpp ****     // Pitch envelope decays to 1.0.
 6243              		.loc 1 107 60 is_stmt 0 view .LVU1880
 6244 1c9a FFF7D5BB 		b	.L166
 6245              	.LVL419:
 6246              	.L385:
 107:src/engine.cpp ****     // Pitch envelope decays to 1.0.
 6247              		.loc 1 107 60 view .LVU1881
 6248              	.LBE1003:
 6249              	.LBE1011:
 6250              	.LBE1024:
 6251              	.LBE1033:
 6252              	.LBE1127:
 6253              	.LBB1128:
 6254              	.LBB589:
 6255              	.LBB576:
 6256              	.LBB518:
 6257              	.LBB511:
 6258              	.LBB502:
 6259              	.LBB501:
  41:src/dsp.h     **** }
 6260              		.loc 2 41 19 view .LVU1882
 6261 1c9e F0EE082A 		vmov.f32	s5, #3.0e+0
 6262 1ca2 EDEE422A 		vfms.f32	s5, s26, s4
 6263              	.LBE501:
 6264              	.LBE502:
 6265              	.LBE511:
 6266              	.LBE518:
 6267              	.LBE576:
 335:src/engine.cpp ****                   + osc(s_phase2c, VOICE.osc2_wave) * VOICE.osc2_level) * CHORD_UPPER_LEVEL;
 6268              		.loc 1 335 53 view .LVU1883
 6269 1ca6 9DED062A 		vldr.32	s4, [sp, #24]
 6270 1caa 62EE828A 		vmul.f32	s17, s5, s4
 6271 1cae FEF766BD 		b	.L126
 6272              	.LVL420:
 6273              	.L381:
 6274              	.LBB577:
 6275              	.LBB466:
 6276              	.LBB456:
 6277              	.LBB441:
 6278              	.LBB440:
  41:src/dsp.h     **** }
 6279              		.loc 2 41 19 view .LVU1884
 6280 1cb2 B0EE082A 		vmov.f32	s4, #3.0e+0
 6281              	.LVL421:
  41:src/dsp.h     **** }
 6282              		.loc 2 41 19 view .LVU1885
 6283 1cb6 AEEEE22A 		vfms.f32	s4, s29, s5
 6284              	.LBE440:
 6285              	.LBE441:
 6286              	.LBE456:
 6287              	.LBE466:
 6288              	.LBE577:
 333:src/engine.cpp ****                   + osc(s_phase2b, VOICE.osc2_wave) * VOICE.osc2_level) * CHORD_UPPER_LEVEL;
ARM GAS  /tmp/claude-502/ccjNbcJ1.s 			page 148


 6289              		.loc 1 333 53 view .LVU1886
 6290 1cba DDED062A 		vldr.32	s5, [sp, #24]
 6291 1cbe 22EE222A 		vmul.f32	s4, s4, s5
 6292 1cc2 FEF71ABD 		b	.L106
 6293              	.LVL422:
 6294              	.L387:
 6295              	.LBB578:
 6296              	.LBB552:
 6297              	.LBB543:
 6298              	.LBB531:
 6299              	.LBB528:
  41:src/dsp.h     **** }
 6300              		.loc 2 41 19 view .LVU1887
 6301 1cc6 B0EE082A 		vmov.f32	s4, #3.0e+0
 6302              	.LBE528:
 6303              	.LBE531:
 6304              	.LBE543:
 6305              	.LBE552:
 6306              	.LBE578:
 336:src/engine.cpp ****             s_phase1b += f3*VOICE.osc1_ratio/sr; if(s_phase1b>=1.0f)s_phase1b-=1.0f;
 6307              		.loc 1 336 53 view .LVU1888
 6308 1cca DDED072A 		vldr.32	s5, [sp, #28]
 6309              	.LBB579:
 6310              	.LBB553:
 6311              	.LBB544:
 6312              	.LBB532:
 6313              	.LBB529:
  41:src/dsp.h     **** }
 6314              		.loc 2 41 19 view .LVU1889
 6315 1cce ABEE4F2A 		vfms.f32	s4, s22, s30
 6316              	.LBE529:
 6317              	.LBE532:
 6318              	.LBE544:
 6319              	.LBE553:
 6320              	.LBE579:
 336:src/engine.cpp ****             s_phase1b += f3*VOICE.osc1_ratio/sr; if(s_phase1b>=1.0f)s_phase1b-=1.0f;
 6321              		.loc 1 336 53 view .LVU1890
 6322 1cd2 62EE222A 		vmul.f32	s5, s4, s5
 6323 1cd6 FEF771BD 		b	.L136
 6324              	.LVL423:
 6325              	.L271:
 6326              	.LBB580:
 6327              	.LBB467:
 6328              	.LBB457:
 6329              	.LBB455:
 336:src/engine.cpp ****             s_phase1b += f3*VOICE.osc1_ratio/sr; if(s_phase1b>=1.0f)s_phase1b-=1.0f;
 6330              		.loc 1 336 53 view .LVU1891
 6331 1cda 9DED062A 		vldr.32	s4, [sp, #24]
 6332              	.LVL424:
 336:src/engine.cpp ****             s_phase1b += f3*VOICE.osc1_ratio/sr; if(s_phase1b>=1.0f)s_phase1b-=1.0f;
 6333              		.loc 1 336 53 view .LVU1892
 6334 1cde FEF70CBD 		b	.L106
 6335              	.LVL425:
 6336              	.L383:
 336:src/engine.cpp ****             s_phase1b += f3*VOICE.osc1_ratio/sr; if(s_phase1b>=1.0f)s_phase1b-=1.0f;
 6337              		.loc 1 336 53 view .LVU1893
 6338              	.LBE455:
ARM GAS  /tmp/claude-502/ccjNbcJ1.s 			page 149


 6339              	.LBE457:
 6340              	.LBE467:
 6341              	.LBE580:
 6342              	.LBB581:
 6343              	.LBB493:
 6344              	.LBB484:
 6345              	.LBB476:
 6346              	.LBB475:
  41:src/dsp.h     **** }
 6347              		.loc 2 41 19 view .LVU1894
 6348 1ce2 F0EE082A 		vmov.f32	s5, #3.0e+0
 6349 1ce6 EDEEE82A 		vfms.f32	s5, s27, s17
 6350              	.LBE475:
 6351              	.LBE476:
 6352              	.LBE484:
 6353              	.LBE493:
 6354              	.LBE581:
 334:src/engine.cpp ****             mix += (osc(s_phase1c, VOICE.osc1_wave) * VOICE.osc1_level
 6355              		.loc 1 334 53 view .LVU1895
 6356 1cea DDED078A 		vldr.32	s17, [sp, #28]
 6357 1cee 62EEA82A 		vmul.f32	s5, s5, s17
 6358 1cf2 FEF720BD 		b	.L116
 6359              	.LVL426:
 6360              	.L275:
 6361              	.LBB582:
 6362              	.LBB519:
 6363              	.LBB512:
 6364              	.LBB510:
 334:src/engine.cpp ****             mix += (osc(s_phase1c, VOICE.osc1_wave) * VOICE.osc1_level
 6365              		.loc 1 334 53 view .LVU1896
 6366 1cf6 DDED068A 		vldr.32	s17, [sp, #24]
 6367 1cfa FEF740BD 		b	.L126
 6368              	.LVL427:
 6369              	.L398:
 334:src/engine.cpp ****             mix += (osc(s_phase1c, VOICE.osc1_wave) * VOICE.osc1_level
 6370              		.loc 1 334 53 view .LVU1897
 6371              	.LBE510:
 6372              	.LBE512:
 6373              	.LBE519:
 6374              	.LBE582:
 6375              	.LBE589:
 6376              	.LBE1128:
 6377              	.LBB1129:
 6378              	.LBB1034:
 6379              	.LBB1025:
 6380              	.LBB1012:
 6381              	.LBB1004:
 6382              	.LBB993:
 6383              	.LBB967:
 6384              	.LBB962:
 6385              	.LBB954:
 6386              	.LBB953:
  41:src/dsp.h     **** }
 6387              		.loc 2 41 19 view .LVU1898
 6388 1cfe B0EE082A 		vmov.f32	s4, #3.0e+0
 6389 1d02 A4EE642A 		vfms.f32	s4, s8, s9
 6390 1d06 91E6     		b	.L210
ARM GAS  /tmp/claude-502/ccjNbcJ1.s 			page 150


 6391              	.LVL428:
 6392              	.L396:
  41:src/dsp.h     **** }
 6393              		.loc 2 41 19 view .LVU1899
 6394              	.LBE953:
 6395              	.LBE954:
 6396              	.LBE962:
 6397              	.LBE967:
 6398              	.LBE993:
 6399              	.LBB994:
 6400              	.LBB943:
 6401              	.LBB938:
 6402              	.LBB930:
 6403              	.LBB929:
 6404 1d08 F0EE084A 		vmov.f32	s9, #3.0e+0
 6405 1d0c E3EE444A 		vfms.f32	s9, s6, s8
 6406 1d10 11E6     		b	.L200
 6407              	.LVL429:
 6408              	.L394:
  41:src/dsp.h     **** }
 6409              		.loc 2 41 19 view .LVU1900
 6410              	.LBE929:
 6411              	.LBE930:
 6412              	.LBE938:
 6413              	.LBE943:
 6414              	.LBE994:
 6415              	.LBB995:
 6416              	.LBB919:
 6417              	.LBB914:
 6418              	.LBB906:
 6419              	.LBB905:
 6420 1d12 F0EE084A 		vmov.f32	s9, #3.0e+0
 6421 1d16 E3EEC44A 		vfms.f32	s9, s7, s8
 6422 1d1a A6E5     		b	.L190
 6423              	.LVL430:
 6424              	.L392:
  41:src/dsp.h     **** }
 6425              		.loc 2 41 19 view .LVU1901
 6426              	.LBE905:
 6427              	.LBE906:
 6428              	.LBE914:
 6429              	.LBE919:
 6430              	.LBE995:
 6431              	.LBB996:
 6432              	.LBB896:
 6433              	.LBB890:
 6434              	.LBB882:
 6435              	.LBB881:
 6436 1d1c B0EE087A 		vmov.f32	s14, #3.0e+0
 6437 1d20 A5EEE47A 		vfms.f32	s14, s11, s9
 6438 1d24 45E5     		b	.L180
 6439              	.LVL431:
 6440              	.L253:
  41:src/dsp.h     **** }
 6441              		.loc 2 41 19 view .LVU1902
 6442              	.LBE881:
 6443              	.LBE882:
ARM GAS  /tmp/claude-502/ccjNbcJ1.s 			page 151


 6444              	.LBE890:
 6445              	.LBE896:
 6446              	.LBE996:
 6447              	.LBE1004:
 6448              	.LBE1012:
 6449              	.LBE1025:
 6450              	.LBE1034:
 6451              	.LBE1129:
 6452              	.LBE1146:
 6453              	.LBE1161:
 6454              	.LBB1162:
 6455              	.LBB397:
  34:src/dsp.h     ****     return expf(-1.0f / (ms * 0.001f * sr));
 6456              		.loc 2 34 27 view .LVU1903
 6457 1d26 1FEDD60A 		vldr.32	s0, .L454+36
 6458              	.LVL432:
  34:src/dsp.h     ****     return expf(-1.0f / (ms * 0.001f * sr));
 6459              		.loc 2 34 27 view .LVU1904
 6460 1d2a FEF7DDB9 		b	.L20
 6461              	.LVL433:
 6462              	.L310:
  34:src/dsp.h     ****     return expf(-1.0f / (ms * 0.001f * sr));
 6463              		.loc 2 34 27 view .LVU1905
 6464              	.LBE397:
 6465              	.LBE1162:
 6466              	.LBB1163:
 6467              	.LBB1147:
 6468              	.LBB1130:
 6469              	.LBB1035:
 6470              	.LBB1026:
 6471              	.LBB1019:
 6472 1d2e B0EE496A 		vmov.f32	s12, s18
 6473              	.LVL434:
  34:src/dsp.h     ****     return expf(-1.0f / (ms * 0.001f * sr));
 6474              		.loc 2 34 27 view .LVU1906
 6475 1d32 FEF7A9BF 		b	.L165
 6476              	.LVL435:
 6477              	.L252:
  34:src/dsp.h     ****     return expf(-1.0f / (ms * 0.001f * sr));
 6478              		.loc 2 34 27 view .LVU1907
 6479              	.LBE1019:
 6480              	.LBE1026:
 6481              	.LBE1035:
 6482              	.LBE1130:
 6483              	.LBE1147:
 6484              	.LBE1163:
 146:src/engine.cpp **** 
 6485              		.loc 1 146 40 view .LVU1908
 6486 1d36 5FEDDA7A 		vldr.32	s15, .L454+36
 6487              	.LVL436:
 146:src/engine.cpp **** 
 6488              		.loc 1 146 40 view .LVU1909
 6489 1d3a CDED0F7A 		vstr.32	s15, [sp, #60]
 6490 1d3e FEF77BB9 		b	.L16
 6491              	.LVL437:
 6492              	.L434:
 146:src/engine.cpp **** 
ARM GAS  /tmp/claude-502/ccjNbcJ1.s 			page 152


 6493              		.loc 1 146 40 view .LVU1910
 6494 1d42 B1EE496A 		vneg.f32	s12, s18
 6495 1d46 FEF79FBF 		b	.L165
 6496              	.LVL438:
 6497              	.L23:
 186:src/engine.cpp ****         s_penv_start = exp2f(VOICE.pitch_env_oct);   // 1.0 when pitch_env_oct == 0
 6498              		.loc 1 186 22 view .LVU1911
 6499 1d4a 0E4A     		ldr	r2, .L456
 187:src/engine.cpp ****         // decay_ms == 0 → no decay: floor 1.0 so s_decay stays pinned at 1 (the
 6500              		.loc 1 187 29 view .LVU1912
 6501 1d4c 95ED1C0A 		vldr.32	s0, [r5, #112]
 186:src/engine.cpp ****         s_penv_start = exp2f(VOICE.pitch_env_oct);   // 1.0 when pitch_env_oct == 0
 6502              		.loc 1 186 22 view .LVU1913
 6503 1d50 1360     		str	r3, [r2]	@ float
 187:src/engine.cpp ****         // decay_ms == 0 → no decay: floor 1.0 so s_decay stays pinned at 1 (the
 6504              		.loc 1 187 9 is_stmt 1 view .LVU1914
 6505 1d52 FEF723BA 		b	.L402
 6506              	.LVL439:
 6507              	.L255:
 6508              	.LBB1164:
 6509              	.LBB412:
  34:src/dsp.h     ****     return expf(-1.0f / (ms * 0.001f * sr));
 6510              		.loc 2 34 27 is_stmt 0 view .LVU1915
 6511 1d56 9FED0C0A 		vldr.32	s0, .L456+4
 6512 1d5a FEF7FBB9 		b	.L22
 6513              	.LVL440:
 6514              	.L254:
  34:src/dsp.h     ****     return expf(-1.0f / (ms * 0.001f * sr));
 6515              		.loc 2 34 27 view .LVU1916
 6516              	.LBE412:
 6517              	.LBE1164:
 6518              	.LBB1165:
 6519              	.LBB405:
 6520 1d5e 9FED0A0A 		vldr.32	s0, .L456+4
 6521 1d62 FEF7DCB9 		b	.L21
 6522              	.LVL441:
 6523              	.L24:
  34:src/dsp.h     ****     return expf(-1.0f / (ms * 0.001f * sr));
 6524              		.loc 2 34 27 view .LVU1917
 6525              	.LBE405:
 6526              	.LBE1165:
 191:src/engine.cpp ****         s_coeff_vi   = vi;
 6527              		.loc 1 191 48 discriminator 4 view .LVU1918
 6528 1d66 F5EEC07A 		vcmpe.f32	s15, #0
 190:src/engine.cpp ****         s_sustain    = (VOICE.decay_ms > 0.0f) ? VOICE.sustain : 1.0f;
 6529              		.loc 1 190 22 discriminator 4 view .LVU1919
 6530 1d6a 084B     		ldr	r3, .L456+8
 6531 1d6c 1A46     		mov	r2, r3
 6532 1d6e 0023     		movs	r3, #0
 191:src/engine.cpp ****         s_coeff_vi   = vi;
 6533              		.loc 1 191 48 discriminator 4 view .LVU1920
 6534 1d70 F1EE10FA 		vmrs	APSR_nzcv, FPSCR
 190:src/engine.cpp ****         s_sustain    = (VOICE.decay_ms > 0.0f) ? VOICE.sustain : 1.0f;
 6535              		.loc 1 190 22 discriminator 4 view .LVU1921
 6536 1d74 1360     		str	r3, [r2]	@ float
 191:src/engine.cpp ****         s_coeff_vi   = vi;
 6537              		.loc 1 191 9 is_stmt 1 discriminator 4 view .LVU1922
ARM GAS  /tmp/claude-502/ccjNbcJ1.s 			page 153


 191:src/engine.cpp ****         s_coeff_vi   = vi;
 6538              		.loc 1 191 48 is_stmt 0 discriminator 4 view .LVU1923
 6539 1d76 3EF72DAA 		bgt	.L26
 191:src/engine.cpp ****         s_coeff_vi   = vi;
 6540              		.loc 1 191 48 view .LVU1924
 6541 1d7a 4FF07E52 		mov	r2, #1065353216
 6542 1d7e FEF72FBA 		b	.L27
 6543              	.L457:
 6544 1d82 00BF     		.align	2
 6545              	.L456:
 6546 1d84 00000000 		.word	.LANCHOR17
 6547 1d88 00000000 		.word	0
 6548 1d8c 00000000 		.word	.LANCHOR19
 6549              		.cfi_endproc
 6550              	.LFE2584:
 6552              		.global	g_hits
 6553              		.global	g_chord_ratio3
 6554              		.global	g_chord_ratio2
 6555              		.global	g_master_vol
 6556              		.global	g_led3_duty
 6557              		.global	g_retrig
 6558              		.global	g_amp_target
 6559              		.global	g_finger_on
 6560              		.global	g_ringmod
 6561              		.global	g_bitcrush
 6562              		.global	g_vibrato_depth
 6563              		.global	g_target_drive
 6564              		.global	g_target_detune
 6565              		.global	g_target_cutoff
 6566              		.global	g_target_freq
 6567              		.section	.rodata.str1.4,"aMS",%progbits,1
 6568              		.align	2
 6569              	.LC0:
 6570 0000 4C656164 		.ascii	"Lead\000"
 6570      00
 6571 0005 000000   		.align	2
 6572              	.LC1:
 6573 0008 42617373 		.ascii	"Bass\000"
 6573      00
 6574 000d 000000   		.align	2
 6575              	.LC2:
 6576 0010 4F70656E 		.ascii	"OpenBass\000"
 6576      42617373 
 6576      00
 6577 0019 000000   		.align	2
 6578              	.LC3:
 6579 001c 52696368 		.ascii	"RichBass\000"
 6579      42617373 
 6579      00
 6580 0025 000000   		.align	2
 6581              	.LC4:
 6582 0028 4F726761 		.ascii	"Organ\000"
 6582      6E00
 6583 002e 0000     		.align	2
 6584              	.LC5:
 6585 0030 53637265 		.ascii	"Scream\000"
 6585      616D00
ARM GAS  /tmp/claude-502/ccjNbcJ1.s 			page 154


 6586 0037 00       		.align	2
 6587              	.LC6:
 6588 0038 47756974 		.ascii	"Guitar\000"
 6588      617200
 6589 003f 00       		.align	2
 6590              	.LC7:
 6591 0040 50616400 		.ascii	"Pad\000"
 6592              		.align	2
 6593              	.LC8:
 6594 0044 546F6D00 		.ascii	"Tom\000"
 6595              		.align	2
 6596              	.LC9:
 6597 0048 4B69636B 		.ascii	"Kick\000"
 6597      00
 6598 004d 000000   		.align	2
 6599              	.LC10:
 6600 0050 536E6172 		.ascii	"Snare\000"
 6600      6500
 6601 0056 0000     		.align	2
 6602              	.LC11:
 6603 0058 48694861 		.ascii	"HiHat\000"
 6603      7400
 6604 005e 0000     		.align	2
 6605              	.LC12:
 6606 0060 53482D31 		.ascii	"SH-101 min\000"
 6606      3031206D 
 6606      696E00
 6607 006b 00       		.align	2
 6608              	.LC13:
 6609 006c 53482D31 		.ascii	"SH-101 maj\000"
 6609      3031206D 
 6609      616A00
 6610 0077 00       		.align	2
 6611              	.LC14:
 6612 0078 4472756D 		.ascii	"Drums\000"
 6612      7300
 6613              		.section	.bss._ZL10s_bitcrush,"aw",%nobits
 6614              		.align	2
 6615              		.set	.LANCHOR25,. + 0
 6618              	_ZL10s_bitcrush:
 6619 0000 00000000 		.space	4
 6620              		.section	.bss._ZL10s_noise_lp,"aw",%nobits
 6621              		.align	2
 6622              		.set	.LANCHOR41,. + 0
 6625              	_ZL10s_noise_lp:
 6626 0000 00000000 		.space	4
 6627              		.section	.bss._ZL10s_phase_rm,"aw",%nobits
 6628              		.align	2
 6629              		.set	.LANCHOR46,. + 0
 6632              	_ZL10s_phase_rm:
 6633 0000 00000000 		.space	4
 6634              		.section	.bss._ZL10s_vibdepth,"aw",%nobits
 6635              		.align	2
 6636              		.set	.LANCHOR33,. + 0
 6639              	_ZL10s_vibdepth:
 6640 0000 00000000 		.space	4
 6641              		.section	.bss._ZL11s_lfo_phase,"aw",%nobits
ARM GAS  /tmp/claude-502/ccjNbcJ1.s 			page 155


 6642              		.align	2
 6643              		.set	.LANCHOR35,. + 0
 6646              	_ZL11s_lfo_phase:
 6647 0000 00000000 		.space	4
 6648              		.section	.bss._ZL11s_phase_oct,"aw",%nobits
 6649              		.align	2
 6650              		.set	.LANCHOR39,. + 0
 6653              	_ZL11s_phase_oct:
 6654 0000 00000000 		.space	4
 6655              		.section	.bss._ZL11s_phase_sub,"aw",%nobits
 6656              		.align	2
 6657              		.set	.LANCHOR38,. + 0
 6660              	_ZL11s_phase_sub:
 6661 0000 00000000 		.space	4
 6662              		.section	.bss._ZL5s_amp,"aw",%nobits
 6663              		.align	2
 6664              		.set	.LANCHOR30,. + 0
 6667              	_ZL5s_amp:
 6668 0000 00000000 		.space	4
 6669              		.section	.bss._ZL5s_flt,"aw",%nobits
 6670              		.align	2
 6671              		.set	.LANCHOR27,. + 0
 6674              	_ZL5s_flt:
 6675 0000 00000000 		.space	16
 6675      00000000 
 6675      00000000 
 6675      00000000 
 6676              		.section	.bss._ZL8s_detune,"aw",%nobits
 6677              		.align	2
 6678              		.set	.LANCHOR24,. + 0
 6681              	_ZL8s_detune:
 6682 0000 00000000 		.space	4
 6683              		.section	.bss._ZL8s_phase1,"aw",%nobits
 6684              		.align	2
 6685              		.set	.LANCHOR36,. + 0
 6688              	_ZL8s_phase1:
 6689 0000 00000000 		.space	4
 6690              		.section	.bss._ZL8s_phase2,"aw",%nobits
 6691              		.align	2
 6692              		.set	.LANCHOR37,. + 0
 6695              	_ZL8s_phase2:
 6696 0000 00000000 		.space	4
 6697              		.section	.bss._ZL9s_phase1b,"aw",%nobits
 6698              		.align	2
 6699              		.set	.LANCHOR42,. + 0
 6702              	_ZL9s_phase1b:
 6703 0000 00000000 		.space	4
 6704              		.section	.bss._ZL9s_phase1c,"aw",%nobits
 6705              		.align	2
 6706              		.set	.LANCHOR44,. + 0
 6709              	_ZL9s_phase1c:
 6710 0000 00000000 		.space	4
 6711              		.section	.bss._ZL9s_phase2b,"aw",%nobits
 6712              		.align	2
 6713              		.set	.LANCHOR43,. + 0
 6716              	_ZL9s_phase2b:
 6717 0000 00000000 		.space	4
ARM GAS  /tmp/claude-502/ccjNbcJ1.s 			page 156


 6718              		.section	.bss._ZL9s_phase2c,"aw",%nobits
 6719              		.align	2
 6720              		.set	.LANCHOR45,. + 0
 6723              	_ZL9s_phase2c:
 6724 0000 00000000 		.space	4
 6725              		.section	.bss._ZL9s_ringmod,"aw",%nobits
 6726              		.align	2
 6727              		.set	.LANCHOR26,. + 0
 6730              	_ZL9s_ringmod:
 6731 0000 00000000 		.space	4
 6732              		.section	.bss._ZZ13AudioCallbackPKPKfPPfjE10led3_state,"aw",%nobits
 6733              		.set	.LANCHOR50,. + 0
 6736              	_ZZ13AudioCallbackPKPKfPPfjE10led3_state:
 6737 0000 00       		.space	1
 6738              		.section	.bss._ZZ13AudioCallbackPKPKfPPfjE11pwm_counter,"aw",%nobits
 6739              		.align	2
 6740              		.set	.LANCHOR49,. + 0
 6743              	_ZZ13AudioCallbackPKPKfPPfjE11pwm_counter:
 6744 0000 00000000 		.space	4
 6745              		.section	.bss._ZZ13AudioCallbackPKPKfPPfjE11s_prev_tamp,"aw",%nobits
 6746              		.align	2
 6747              		.set	.LANCHOR28,. + 0
 6750              	_ZZ13AudioCallbackPKPKfPPfjE11s_prev_tamp:
 6751 0000 00000000 		.space	4
 6752              		.section	.bss._ZZ13AudioCallbackPKPKfPPfjE12s_penv_start,"aw",%nobits
 6753              		.align	2
 6754              		.set	.LANCHOR18,. + 0
 6757              	_ZZ13AudioCallbackPKPKfPPfjE12s_penv_start:
 6758 0000 00000000 		.space	4
 6759              		.section	.bss._ZZ13AudioCallbackPKPKfPPfjE16led3_duty_smooth,"aw",%nobits
 6760              		.align	2
 6761              		.set	.LANCHOR48,. + 0
 6764              	_ZZ13AudioCallbackPKPKfPPfjE16led3_duty_smooth:
 6765 0000 00000000 		.space	4
 6766              		.section	.bss._ZZ13AudioCallbackPKPKfPPfjE7s_atk_c,"aw",%nobits
 6767              		.align	2
 6768              		.set	.LANCHOR15,. + 0
 6771              	_ZZ13AudioCallbackPKPKfPPfjE7s_atk_c:
 6772 0000 00000000 		.space	4
 6773              		.section	.bss._ZZ13AudioCallbackPKPKfPPfjE7s_rel_c,"aw",%nobits
 6774              		.align	2
 6775              		.set	.LANCHOR16,. + 0
 6778              	_ZZ13AudioCallbackPKPKfPPfjE7s_rel_c:
 6779 0000 00000000 		.space	4
 6780              		.section	.bss._ZZ13AudioCallbackPKPKfPPfjE8s_penv_c,"aw",%nobits
 6781              		.align	2
 6782              		.set	.LANCHOR17,. + 0
 6785              	_ZZ13AudioCallbackPKPKfPPfjE8s_penv_c:
 6786 0000 00000000 		.space	4
 6787              		.section	.bss._ZZ13AudioCallbackPKPKfPPfjE9s_decay_c,"aw",%nobits
 6788              		.align	2
 6789              		.set	.LANCHOR19,. + 0
 6792              	_ZZ13AudioCallbackPKPKfPPfjE9s_decay_c:
 6793 0000 00000000 		.space	4
 6794              		.section	.bss._ZZ13AudioCallbackPKPKfPPfjE9s_glide_c,"aw",%nobits
 6795              		.align	2
 6796              		.set	.LANCHOR14,. + 0
ARM GAS  /tmp/claude-502/ccjNbcJ1.s 			page 157


 6799              	_ZZ13AudioCallbackPKPKfPPfjE9s_glide_c:
 6800 0000 00000000 		.space	4
 6801              		.section	.bss._ZZ13AudioCallbackPKPKfPPfjE9s_sustain,"aw",%nobits
 6802              		.align	2
 6803              		.set	.LANCHOR20,. + 0
 6806              	_ZZ13AudioCallbackPKPKfPPfjE9s_sustain:
 6807 0000 00000000 		.space	4
 6808              		.section	.bss.g_amp_target,"aw",%nobits
 6809              		.align	2
 6810              		.set	.LANCHOR9,. + 0
 6813              	g_amp_target:
 6814 0000 00000000 		.space	4
 6815              		.section	.bss.g_bitcrush,"aw",%nobits
 6816              		.align	2
 6817              		.set	.LANCHOR7,. + 0
 6820              	g_bitcrush:
 6821 0000 00000000 		.space	4
 6822              		.section	.bss.g_finger_on,"aw",%nobits
 6825              	g_finger_on:
 6826 0000 00       		.space	1
 6827              		.section	.bss.g_led3_duty,"aw",%nobits
 6828              		.align	2
 6829              		.set	.LANCHOR1,. + 0
 6832              	g_led3_duty:
 6833 0000 00000000 		.space	4
 6834              		.section	.bss.g_retrig,"aw",%nobits
 6835              		.set	.LANCHOR29,. + 0
 6838              	g_retrig:
 6839 0000 00       		.space	1
 6840              		.section	.bss.g_ringmod,"aw",%nobits
 6841              		.align	2
 6842              		.set	.LANCHOR8,. + 0
 6845              	g_ringmod:
 6846 0000 00000000 		.space	4
 6847              		.section	.bss.g_target_detune,"aw",%nobits
 6848              		.align	2
 6849              		.set	.LANCHOR4,. + 0
 6852              	g_target_detune:
 6853 0000 00000000 		.space	4
 6854              		.section	.bss.g_vibrato_depth,"aw",%nobits
 6855              		.align	2
 6856              		.set	.LANCHOR6,. + 0
 6859              	g_vibrato_depth:
 6860 0000 00000000 		.space	4
 6861              		.section	.data._ZL11s_noise_rng,"aw"
 6862              		.align	2
 6863              		.set	.LANCHOR40,. + 0
 6866              	_ZL11s_noise_rng:
 6867 0000 67452301 		.word	19088743
 6868              		.section	.data._ZL12s_master_vol,"aw"
 6869              		.align	2
 6870              		.set	.LANCHOR34,. + 0
 6873              	_ZL12s_master_vol:
 6874 0000 0000803F 		.word	1065353216
 6875              		.section	.data._ZL6s_freq,"aw"
 6876              		.align	2
 6877              		.set	.LANCHOR21,. + 0
ARM GAS  /tmp/claude-502/ccjNbcJ1.s 			page 158


 6880              	_ZL6s_freq:
 6881 0000 ECD18242 		.word	1115869676
 6882              		.section	.data._ZL7s_drive,"aw"
 6883              		.align	2
 6884              		.set	.LANCHOR23,. + 0
 6887              	_ZL7s_drive:
 6888 0000 0000803F 		.word	1065353216
 6889              		.section	.data._ZL8s_cutoff,"aw"
 6890              		.align	2
 6891              		.set	.LANCHOR22,. + 0
 6894              	_ZL8s_cutoff:
 6895 0000 0000C842 		.word	1120403456
 6896              		.section	.data._ZZ13AudioCallbackPKPKfPPfjE10s_coeff_vi,"aw"
 6897              		.align	2
 6898              		.set	.LANCHOR13,. + 0
 6901              	_ZZ13AudioCallbackPKPKfPPfjE10s_coeff_vi:
 6902 0000 FFFFFFFF 		.word	-1
 6903              		.section	.data._ZZ13AudioCallbackPKPKfPPfjE7s_decay,"aw"
 6904              		.align	2
 6905              		.set	.LANCHOR32,. + 0
 6908              	_ZZ13AudioCallbackPKPKfPPfjE7s_decay:
 6909 0000 0000803F 		.word	1065353216
 6910              		.section	.data._ZZ13AudioCallbackPKPKfPPfjE7s_pmult,"aw"
 6911              		.align	2
 6912              		.set	.LANCHOR31,. + 0
 6915              	_ZZ13AudioCallbackPKPKfPPfjE7s_pmult:
 6916 0000 0000803F 		.word	1065353216
 6917              		.section	.data.g_chord_ratio2,"aw"
 6918              		.align	2
 6919              		.set	.LANCHOR11,. + 0
 6922              	g_chord_ratio2:
 6923 0000 0000803F 		.word	1065353216
 6924              		.section	.data.g_chord_ratio3,"aw"
 6925              		.align	2
 6926              		.set	.LANCHOR12,. + 0
 6929              	g_chord_ratio3:
 6930 0000 0000803F 		.word	1065353216
 6931              		.section	.data.g_hits,"aw"
 6932              		.align	2
 6933              		.set	.LANCHOR47,. + 0
 6936              	g_hits:
 6937 0000 00       		.byte	0
 6938 0001 00       		.byte	0
 6939 0002 0000     		.space	2
 6940 0004 09000000 		.word	9
 6941 0008 0000A042 		.word	1117782016
 6942 000c 00000000 		.word	0
 6943 0010 00004843 		.word	1128792064
 6944 0014 0000803F 		.word	1065353216
 6945 0018 00000000 		.word	0
 6946 001c 00000000 		.word	0
 6947 0020 00000000 		.word	0
 6948 0024 00000000 		.word	0
 6949 0028 00000000 		.word	0
 6950 002c 0000803F 		.word	1065353216
 6951 0030 00000000 		.word	0
 6952 0034 00000000 		.word	0
ARM GAS  /tmp/claude-502/ccjNbcJ1.s 			page 159


 6953 0038 0000803F 		.word	1065353216
 6954 003c 00000000 		.word	0
 6955 0040 00000000 		.word	0
 6956 0044 00000000 		.word	0
 6957 0048 0000803F 		.word	1065353216
 6958 004c 00       		.byte	0
 6959 004d 00       		.byte	0
 6960 004e 0000     		.space	2
 6961 0050 09000000 		.word	9
 6962 0054 0000A042 		.word	1117782016
 6963 0058 00000000 		.word	0
 6964 005c 00004843 		.word	1128792064
 6965 0060 0000803F 		.word	1065353216
 6966 0064 00000000 		.word	0
 6967 0068 00000000 		.word	0
 6968 006c 00000000 		.word	0
 6969 0070 00000000 		.word	0
 6970 0074 00000000 		.word	0
 6971 0078 0000803F 		.word	1065353216
 6972 007c 00000000 		.word	0
 6973 0080 00000000 		.word	0
 6974 0084 0000803F 		.word	1065353216
 6975 0088 00000000 		.word	0
 6976 008c 00000000 		.word	0
 6977 0090 00000000 		.word	0
 6978 0094 0000803F 		.word	1065353216
 6979 0098 00       		.byte	0
 6980 0099 00       		.byte	0
 6981 009a 0000     		.space	2
 6982 009c 09000000 		.word	9
 6983 00a0 0000A042 		.word	1117782016
 6984 00a4 00000000 		.word	0
 6985 00a8 00004843 		.word	1128792064
 6986 00ac 0000803F 		.word	1065353216
 6987 00b0 00000000 		.word	0
 6988 00b4 00000000 		.word	0
 6989 00b8 00000000 		.word	0
 6990 00bc 00000000 		.word	0
 6991 00c0 00000000 		.word	0
 6992 00c4 0000803F 		.word	1065353216
 6993 00c8 00000000 		.word	0
 6994 00cc 00000000 		.word	0
 6995 00d0 0000803F 		.word	1065353216
 6996 00d4 00000000 		.word	0
 6997 00d8 00000000 		.word	0
 6998 00dc 00000000 		.word	0
 6999 00e0 0000803F 		.word	1065353216
 7000 00e4 00       		.byte	0
 7001 00e5 00       		.byte	0
 7002 00e6 0000     		.space	2
 7003 00e8 09000000 		.word	9
 7004 00ec 0000A042 		.word	1117782016
 7005 00f0 00000000 		.word	0
 7006 00f4 00004843 		.word	1128792064
 7007 00f8 0000803F 		.word	1065353216
 7008 00fc 00000000 		.word	0
 7009 0100 00000000 		.word	0
ARM GAS  /tmp/claude-502/ccjNbcJ1.s 			page 160


 7010 0104 00000000 		.word	0
 7011 0108 00000000 		.word	0
 7012 010c 00000000 		.word	0
 7013 0110 0000803F 		.word	1065353216
 7014 0114 00000000 		.word	0
 7015 0118 00000000 		.word	0
 7016 011c 0000803F 		.word	1065353216
 7017 0120 00000000 		.word	0
 7018 0124 00000000 		.word	0
 7019 0128 00000000 		.word	0
 7020 012c 0000803F 		.word	1065353216
 7021              		.section	.data.g_master_vol,"aw"
 7022              		.align	2
 7023              		.set	.LANCHOR10,. + 0
 7026              	g_master_vol:
 7027 0000 0000803F 		.word	1065353216
 7028              		.section	.data.g_target_cutoff,"aw"
 7029              		.align	2
 7030              		.set	.LANCHOR3,. + 0
 7033              	g_target_cutoff:
 7034 0000 0000C842 		.word	1120403456
 7035              		.section	.data.g_target_drive,"aw"
 7036              		.align	2
 7037              		.set	.LANCHOR5,. + 0
 7040              	g_target_drive:
 7041 0000 0000803F 		.word	1065353216
 7042              		.section	.data.g_target_freq,"aw"
 7043              		.align	2
 7044              		.set	.LANCHOR2,. + 0
 7047              	g_target_freq:
 7048 0000 ECD18242 		.word	1115869676
 7049              		.section	.rodata._ZL11SCALE_MAJOR,"a"
 7050              		.align	2
 7053              	_ZL11SCALE_MAJOR:
 7054 0000 00020405 		.ascii	"\000\002\004\005\007\011\013"
 7054      07090B
 7055              		.section	.rodata._ZL11SCALE_MINOR,"a"
 7056              		.align	2
 7059              	_ZL11SCALE_MINOR:
 7060 0000 00020305 		.ascii	"\000\002\003\005\007\010\012"
 7060      07080A
 7061              		.section	.rodata._ZL6VOICES,"a"
 7062              		.align	2
 7063              		.set	.LANCHOR0,. + 0
 7066              	_ZL6VOICES:
 7067 0000 00000000 		.word	.LC0
 7068 0004 00004842 		.word	1112014848
 7069 0008 00009643 		.word	1133903872
 7070 000c 6458E53F 		.word	1071994980
 7071 0010 0000803F 		.word	1065353216
 7072 0014 0000003F 		.word	1056964608
 7073 0018 00       		.byte	0
 7074 0019 000000   		.space	3
 7075 001c 0000803F 		.word	1065353216
 7076 0020 AE47613E 		.word	1046562734
 7077 0024 00       		.byte	0
 7078 0025 000000   		.space	3
ARM GAS  /tmp/claude-502/ccjNbcJ1.s 			page 161


 7079 0028 0000003F 		.word	1056964608
 7080 002c EC51383E 		.word	1043878380
 7081 0030 00       		.byte	0
 7082 0031 000000   		.space	3
 7083 0034 00000040 		.word	1073741824
 7084 0038 9A99193E 		.word	1041865114
 7085 003c 00       		.byte	0
 7086 003d 01       		.byte	1
 7087 003e 0000     		.space	2
 7088 0040 9A99993E 		.word	1050253722
 7089 0044 00004041 		.word	1094713344
 7090 0048 0000403F 		.word	1061158912
 7091 004c 00002040 		.word	1075838976
 7092 0050 00000000 		.word	0
 7093 0054 0000803F 		.word	1065353216
 7094 0058 0000803F 		.word	1065353216
 7095 005c 9A99193E 		.word	1041865114
 7096 0060 EC51383E 		.word	1043878380
 7097 0064 00008040 		.word	1082130432
 7098 0068 0000C843 		.word	1137180672
 7099 006c 00002042 		.word	1109393408
 7100 0070 00000000 		.space	48
 7100      00000000 
 7100      00000000 
 7100      00000000 
 7100      00000000 
 7101 00a0 08000000 		.word	.LC1
 7102 00a4 00002042 		.word	1109393408
 7103 00a8 00002043 		.word	1126170624
 7104 00ac F371B13F 		.word	1068593651
 7105 00b0 0000803F 		.word	1065353216
 7106 00b4 6666E63E 		.word	1055286886
 7107 00b8 00       		.byte	0
 7108 00b9 000000   		.space	3
 7109 00bc 9FC8BF3F 		.word	1069533343
 7110 00c0 9A99993E 		.word	1050253722
 7111 00c4 00       		.byte	0
 7112 00c5 000000   		.space	3
 7113 00c8 0000003F 		.word	1056964608
 7114 00cc 7B14AE3E 		.word	1051595899
 7115 00d0 00       		.byte	0
 7116 00d1 000000   		.space	3
 7117 00d4 00000040 		.word	1073741824
 7118 00d8 CDCC4C3E 		.word	1045220557
 7119 00dc 00       		.byte	0
 7120 00dd 00       		.byte	0
 7121 00de 0000     		.space	2
 7122 00e0 0000803E 		.word	1048576000
 7123 00e4 0000E040 		.word	1088421888
 7124 00e8 0000003F 		.word	1056964608
 7125 00ec 0000803F 		.word	1065353216
 7126 00f0 00000000 		.word	0
 7127 00f4 0000803F 		.word	1065353216
 7128 00f8 0000803F 		.word	1065353216
 7129 00fc 8FC2F53D 		.word	1039516303
 7130 0100 8FC2F53D 		.word	1039516303
 7131 0104 0000C040 		.word	1086324736
ARM GAS  /tmp/claude-502/ccjNbcJ1.s 			page 162


 7132 0108 00009643 		.word	1133903872
 7133 010c 0000C841 		.word	1103626240
 7134 0110 00000000 		.space	48
 7134      00000000 
 7134      00000000 
 7134      00000000 
 7134      00000000 
 7135 0140 10000000 		.word	.LC2
 7136 0144 00002042 		.word	1109393408
 7137 0148 00003443 		.word	1127481344
 7138 014c B285C03F 		.word	1069581746
 7139 0150 0000803F 		.word	1065353216
 7140 0154 6666E63E 		.word	1055286886
 7141 0158 00       		.byte	0
 7142 0159 000000   		.space	3
 7143 015c 9FC8BF3F 		.word	1069533343
 7144 0160 9A99993E 		.word	1050253722
 7145 0164 00       		.byte	0
 7146 0165 000000   		.space	3
 7147 0168 0000003F 		.word	1056964608
 7148 016c 9A99993E 		.word	1050253722
 7149 0170 00       		.byte	0
 7150 0171 000000   		.space	3
 7151 0174 00000040 		.word	1073741824
 7152 0178 AE47613E 		.word	1046562734
 7153 017c 00       		.byte	0
 7154 017d 00       		.byte	0
 7155 017e 0000     		.space	2
 7156 0180 0000003F 		.word	1056964608
 7157 0184 00002041 		.word	1092616192
 7158 0188 6666263F 		.word	1059481190
 7159 018c 6666E63F 		.word	1072064102
 7160 0190 00000000 		.word	0
 7161 0194 0000803F 		.word	1065353216
 7162 0198 0000803F 		.word	1065353216
 7163 019c 9A99193E 		.word	1041865114
 7164 01a0 9A99193E 		.word	1041865114
 7165 01a4 0000A040 		.word	1084227584
 7166 01a8 0000AF43 		.word	1135542272
 7167 01ac 0000C841 		.word	1103626240
 7168 01b0 00000000 		.space	48
 7168      00000000 
 7168      00000000 
 7168      00000000 
 7168      00000000 
 7169 01e0 1C000000 		.word	.LC3
 7170 01e4 00002042 		.word	1109393408
 7171 01e8 00002043 		.word	1126170624
 7172 01ec F371B13F 		.word	1068593651
 7173 01f0 0000803F 		.word	1065353216
 7174 01f4 CDCCCC3E 		.word	1053609165
 7175 01f8 03       		.byte	3
 7176 01f9 000000   		.space	3
 7177 01fc 9FC8BF3F 		.word	1069533343
 7178 0200 B81E853E 		.word	1048911544
 7179 0204 02       		.byte	2
 7180 0205 000000   		.space	3
ARM GAS  /tmp/claude-502/ccjNbcJ1.s 			page 163


 7181 0208 0000003F 		.word	1056964608
 7182 020c 0AD7A33E 		.word	1050924810
 7183 0210 01       		.byte	1
 7184 0211 000000   		.space	3
 7185 0214 00000040 		.word	1073741824
 7186 0218 EC51383E 		.word	1043878380
 7187 021c 03       		.byte	3
 7188 021d 00       		.byte	0
 7189 021e 0000     		.space	2
 7190 0220 CDCC4C3E 		.word	1045220557
 7191 0224 00005041 		.word	1095761920
 7192 0228 85EB513F 		.word	1062333317
 7193 022c CDCC0C40 		.word	1074580685
 7194 0230 00000000 		.word	0
 7195 0234 0000803F 		.word	1065353216
 7196 0238 0000803F 		.word	1065353216
 7197 023c CDCC4C3E 		.word	1045220557
 7198 0240 CDCC4C3E 		.word	1045220557
 7199 0244 00004040 		.word	1077936128
 7200 0248 00007A43 		.word	1132068864
 7201 024c 00009041 		.word	1099956224
 7202 0250 00000000 		.space	48
 7202      00000000 
 7202      00000000 
 7202      00000000 
 7202      00000000 
 7203 0280 28000000 		.word	.LC4
 7204 0284 00008242 		.word	1115815936
 7205 0288 00000244 		.word	1140981760
 7206 028c 8C150540 		.word	1074075020
 7207 0290 0000803F 		.word	1065353216
 7208 0294 6666E63E 		.word	1055286886
 7209 0298 01       		.byte	1
 7210 0299 000000   		.space	3
 7211 029c D7A3803F 		.word	1065395159
 7212 02a0 CDCCCC3E 		.word	1053609165
 7213 02a4 01       		.byte	1
 7214 02a5 000000   		.space	3
 7215 02a8 0000003F 		.word	1056964608
 7216 02ac 9A99993E 		.word	1050253722
 7217 02b0 01       		.byte	1
 7218 02b1 000000   		.space	3
 7219 02b4 00000040 		.word	1073741824
 7220 02b8 295C8F3E 		.word	1049582633
 7221 02bc 01       		.byte	1
 7222 02bd 00       		.byte	0
 7223 02be 0000     		.space	2
 7224 02c0 00000040 		.word	1073741824
 7225 02c4 0000A040 		.word	1084227584
 7226 02c8 CDCC4C3E 		.word	1045220557
 7227 02cc CDCC4C3F 		.word	1061997773
 7228 02d0 8FC2F53C 		.word	1022739087
 7229 02d4 0000803F 		.word	1065353216
 7230 02d8 0000803F 		.word	1065353216
 7231 02dc CDCC4C3D 		.word	1028443341
 7232 02e0 00000000 		.word	0
 7233 02e4 00000041 		.word	1090519040
ARM GAS  /tmp/claude-502/ccjNbcJ1.s 			page 164


 7234 02e8 0000F042 		.word	1123024896
 7235 02ec 00000041 		.word	1090519040
 7236 02f0 00000000 		.word	0
 7237 02f4 00000000 		.word	0
 7238 02f8 00000000 		.word	0
 7239 02fc 00       		.byte	0
 7240 02fd 000000   		.space	3
 7241 0300 00000000 		.word	0
 7242 0304 00000000 		.word	0
 7243 0308 01       		.byte	1
 7244 0309 000000   		.space	3
 7245 030c 00000000 		.word	_ZL11SCALE_MINOR
 7246 0310 07000000 		.word	7
 7247 0314 00000000 		.space	12
 7247      00000000 
 7247      00000000 
 7248 0320 30000000 		.word	.LC5
 7249 0324 0000B442 		.word	1119092736
 7250 0328 00003444 		.word	1144258560
 7251 032c 8C150540 		.word	1074075020
 7252 0330 0000803F 		.word	1065353216
 7253 0334 3D0AD73E 		.word	1054280253
 7254 0338 03       		.byte	3
 7255 0339 000000   		.space	3
 7256 033c 2506813F 		.word	1065420325
 7257 0340 5C8FC23E 		.word	1052938076
 7258 0344 03       		.byte	3
 7259 0345 000000   		.space	3
 7260 0348 0000003F 		.word	1056964608
 7261 034c CDCC4C3E 		.word	1045220557
 7262 0350 03       		.byte	3
 7263 0351 000000   		.space	3
 7264 0354 00000040 		.word	1073741824
 7265 0358 9A99993E 		.word	1050253722
 7266 035c 03       		.byte	3
 7267 035d 00       		.byte	0
 7268 035e 0000     		.space	2
 7269 0360 00004040 		.word	1077936128
 7270 0364 00003041 		.word	1093664768
 7271 0368 6666663F 		.word	1063675494
 7272 036c 00008040 		.word	1082130432
 7273 0370 CDCC4C3D 		.word	1028443341
 7274 0374 0000803F 		.word	1065353216
 7275 0378 00002040 		.word	1075838976
 7276 037c CDCCCC3E 		.word	1053609165
 7277 0380 9A99993E 		.word	1050253722
 7278 0384 00000040 		.word	1073741824
 7279 0388 00004843 		.word	1128792064
 7280 038c 00000C42 		.word	1108082688
 7281 0390 00000000 		.space	48
 7281      00000000 
 7281      00000000 
 7281      00000000 
 7281      00000000 
 7282 03c0 38000000 		.word	.LC6
 7283 03c4 0000A042 		.word	1117782016
 7284 03c8 0000A043 		.word	1134559232
ARM GAS  /tmp/claude-502/ccjNbcJ1.s 			page 165


 7285 03cc F371B13F 		.word	1068593651
 7286 03d0 0000803F 		.word	1065353216
 7287 03d4 CDCCCC3E 		.word	1053609165
 7288 03d8 03       		.byte	3
 7289 03d9 000000   		.space	3
 7290 03dc 9FC8BF3F 		.word	1069533343
 7291 03e0 9A99993E 		.word	1050253722
 7292 03e4 03       		.byte	3
 7293 03e5 000000   		.space	3
 7294 03e8 0000003F 		.word	1056964608
 7295 03ec AE47613E 		.word	1046562734
 7296 03f0 03       		.byte	3
 7297 03f1 000000   		.space	3
 7298 03f4 00000040 		.word	1073741824
 7299 03f8 EC51383E 		.word	1043878380
 7300 03fc 03       		.byte	3
 7301 03fd 00       		.byte	0
 7302 03fe 0000     		.space	2
 7303 0400 0000C03F 		.word	1069547520
 7304 0404 0000C040 		.word	1086324736
 7305 0408 3D0AD73E 		.word	1054280253
 7306 040c 66666640 		.word	1080452710
 7307 0410 8FC2F53C 		.word	1022739087
 7308 0414 0000803F 		.word	1065353216
 7309 0418 0000803F 		.word	1065353216
 7310 041c 8FC2F53D 		.word	1039516303
 7311 0420 9A99193E 		.word	1041865114
 7312 0424 00004040 		.word	1077936128
 7313 0428 00008C43 		.word	1133248512
 7314 042c 00000041 		.word	1090519040
 7315 0430 8FC2F53D 		.word	1039516303
 7316 0434 00009041 		.word	1099956224
 7317 0438 00000000 		.word	0
 7318 043c 00       		.byte	0
 7319 043d 000000   		.space	3
 7320 0440 00000000 		.word	0
 7321 0444 00000000 		.word	0
 7322 0448 01       		.byte	1
 7323 0449 000000   		.space	3
 7324 044c 00000000 		.word	_ZL11SCALE_MAJOR
 7325 0450 07000000 		.word	7
 7326 0454 00009644 		.word	1150681088
 7327 0458 00000000 		.word	0
 7328 045c 00000000 		.space	4
 7329 0460 40000000 		.word	.LC7
 7330 0464 00008C42 		.word	1116471296
 7331 0468 00000C44 		.word	1141637120
 7332 046c 8C150540 		.word	1074075020
 7333 0470 0000803F 		.word	1065353216
 7334 0474 0AD7A33E 		.word	1050924810
 7335 0478 03       		.byte	3
 7336 0479 000000   		.space	3
 7337 047c 9CC4803F 		.word	1065403548
 7338 0480 9A99993E 		.word	1050253722
 7339 0484 03       		.byte	3
 7340 0485 000000   		.space	3
 7341 0488 0000003F 		.word	1056964608
ARM GAS  /tmp/claude-502/ccjNbcJ1.s 			page 166


 7342 048c AE47613E 		.word	1046562734
 7343 0490 00       		.byte	0
 7344 0491 000000   		.space	3
 7345 0494 00000040 		.word	1073741824
 7346 0498 EC51383E 		.word	1043878380
 7347 049c 01       		.byte	1
 7348 049d 00       		.byte	0
 7349 049e 0000     		.space	2
 7350 04a0 9A99993F 		.word	1067030938
 7351 04a4 00004040 		.word	1077936128
 7352 04a8 CDCC4C3E 		.word	1045220557
 7353 04ac 9A99193F 		.word	1058642330
 7354 04b0 8FC2753C 		.word	1014350479
 7355 04b4 0000803F 		.word	1065353216
 7356 04b8 0000803F 		.word	1065353216
 7357 04bc 00000000 		.word	0
 7358 04c0 0AD7A33D 		.word	1034147594
 7359 04c4 00800945 		.word	1158250496
 7360 04c8 0000FA44 		.word	1157234688
 7361 04cc 0000A042 		.word	1117782016
 7362 04d0 00000000 		.space	48
 7362      00000000 
 7362      00000000 
 7362      00000000 
 7362      00000000 
 7363 0500 44000000 		.word	.LC8
 7364 0504 00002042 		.word	1109393408
 7365 0508 0000C843 		.word	1137180672
 7366 050c A25D1340 		.word	1075010978
 7367 0510 0000803F 		.word	1065353216
 7368 0514 AE47613E 		.word	1046562734
 7369 0518 01       		.byte	1
 7370 0519 000000   		.space	3
 7371 051c CDCCCC3F 		.word	1070386381
 7372 0520 9A99193E 		.word	1041865114
 7373 0524 01       		.byte	1
 7374 0525 000000   		.space	3
 7375 0528 0000003F 		.word	1056964608
 7376 052c CDCCCC3D 		.word	1036831949
 7377 0530 01       		.byte	1
 7378 0531 000000   		.space	3
 7379 0534 00000040 		.word	1073741824
 7380 0538 00000000 		.word	0
 7381 053c 01       		.byte	1
 7382 053d 00       		.byte	0
 7383 053e 0000     		.space	2
 7384 0540 00004040 		.word	1077936128
 7385 0544 00004040 		.word	1077936128
 7386 0548 9A99993E 		.word	1050253722
 7387 054c 0000C03F 		.word	1069547520
 7388 0550 3333333F 		.word	1060320051
 7389 0554 9A99993E 		.word	1050253722
 7390 0558 0000803F 		.word	1065353216
 7391 055c 00000000 		.word	0
 7392 0560 CDCCCC3D 		.word	1036831949
 7393 0564 0000803F 		.word	1065353216
 7394 0568 00001643 		.word	1125515264
ARM GAS  /tmp/claude-502/ccjNbcJ1.s 			page 167


 7395 056c 0000A040 		.word	1084227584
 7396 0570 0000803F 		.word	1065353216
 7397 0574 0000A042 		.word	1117782016
 7398 0578 00000000 		.word	0
 7399 057c 01       		.byte	1
 7400 057d 000000   		.space	3
 7401 0580 9A99593F 		.word	1062836634
 7402 0584 0000C843 		.word	1137180672
 7403 0588 00000000 		.space	24
 7403      00000000 
 7403      00000000 
 7403      00000000 
 7403      00000000 
 7404 05a0 48000000 		.word	.LC9
 7405 05a4 0000F041 		.word	1106247680
 7406 05a8 0000A042 		.word	1117782016
 7407 05ac AD177B3F 		.word	1065031597
 7408 05b0 0000803F 		.word	1065353216
 7409 05b4 CDCC0C3F 		.word	1057803469
 7410 05b8 01       		.byte	1
 7411 05b9 000000   		.space	3
 7412 05bc 00000040 		.word	1073741824
 7413 05c0 CDCCCC3D 		.word	1036831949
 7414 05c4 01       		.byte	1
 7415 05c5 000000   		.space	3
 7416 05c8 0000003F 		.word	1056964608
 7417 05cc 9A99193E 		.word	1041865114
 7418 05d0 01       		.byte	1
 7419 05d1 000000   		.space	3
 7420 05d4 00000040 		.word	1073741824
 7421 05d8 00000000 		.word	0
 7422 05dc 01       		.byte	1
 7423 05dd 00       		.byte	0
 7424 05de 0000     		.space	2
 7425 05e0 00004040 		.word	1077936128
 7426 05e4 00000040 		.word	1073741824
 7427 05e8 CDCC4C3E 		.word	1045220557
 7428 05ec 6666E63F 		.word	1072064102
 7429 05f0 0AD7A33D 		.word	1034147594
 7430 05f4 0000003F 		.word	1056964608
 7431 05f8 0000803F 		.word	1065353216
 7432 05fc 00000000 		.word	0
 7433 0600 00000000 		.word	0
 7434 0604 0000803F 		.word	1065353216
 7435 0608 00002043 		.word	1126170624
 7436 060c 0000A040 		.word	1084227584
 7437 0610 00000040 		.word	1073741824
 7438 0614 00003442 		.word	1110704128
 7439 0618 00000000 		.word	0
 7440 061c 01       		.byte	1
 7441 061d 000000   		.space	3
 7442 0620 9A99593F 		.word	1062836634
 7443 0624 0000C843 		.word	1137180672
 7444 0628 00000000 		.space	24
 7444      00000000 
 7444      00000000 
 7444      00000000 
ARM GAS  /tmp/claude-502/ccjNbcJ1.s 			page 168


 7444      00000000 
 7445 0640 50000000 		.word	.LC10
 7446 0644 00001643 		.word	1125515264
 7447 0648 0000FA43 		.word	1140457472
 7448 064c B01B9A3F 		.word	1067064240
 7449 0650 0000803F 		.word	1065353216
 7450 0654 9A99193E 		.word	1041865114
 7451 0658 01       		.byte	1
 7452 0659 000000   		.space	3
 7453 065c 6666E63F 		.word	1072064102
 7454 0660 8FC2F53D 		.word	1039516303
 7455 0664 00       		.byte	0
 7456 0665 000000   		.space	3
 7457 0668 0000003F 		.word	1056964608
 7458 066c CDCC4C3D 		.word	1028443341
 7459 0670 01       		.byte	1
 7460 0671 000000   		.space	3
 7461 0674 00000040 		.word	1073741824
 7462 0678 00000000 		.word	0
 7463 067c 01       		.byte	1
 7464 067d 00       		.byte	0
 7465 067e 0000     		.space	2
 7466 0680 00009041 		.word	1099956224
 7467 0684 00008040 		.word	1082130432
 7468 0688 9A99993E 		.word	1050253722
 7469 068c 0000C03F 		.word	1069547520
 7470 0690 EC51383F 		.word	1060655596
 7471 0694 9A99993E 		.word	1050253722
 7472 0698 0000803F 		.word	1065353216
 7473 069c 00000000 		.word	0
 7474 06a0 CDCCCC3D 		.word	1036831949
 7475 06a4 0000803F 		.word	1065353216
 7476 06a8 00000C43 		.word	1124859904
 7477 06ac 0000A040 		.word	1084227584
 7478 06b0 3333333F 		.word	1060320051
 7479 06b4 0000F041 		.word	1106247680
 7480 06b8 00000000 		.word	0
 7481 06bc 01       		.byte	1
 7482 06bd 000000   		.space	3
 7483 06c0 9A99593F 		.word	1062836634
 7484 06c4 0000C843 		.word	1137180672
 7485 06c8 00000000 		.space	24
 7485      00000000 
 7485      00000000 
 7485      00000000 
 7485      00000000 
 7486 06e0 58000000 		.word	.LC11
 7487 06e4 00007A45 		.word	1165623296
 7488 06e8 00E02B46 		.word	1177280512
 7489 06ec 1C7C813F 		.word	1065450524
 7490 06f0 0000803F 		.word	1065353216
 7491 06f4 CDCCCC3D 		.word	1036831949
 7492 06f8 02       		.byte	2
 7493 06f9 000000   		.space	3
 7494 06fc 3D0AD73F 		.word	1071057469
 7495 0700 0AD7A33D 		.word	1034147594
 7496 0704 02       		.byte	2
ARM GAS  /tmp/claude-502/ccjNbcJ1.s 			page 169


 7497 0705 000000   		.space	3
 7498 0708 0000003F 		.word	1056964608
 7499 070c 00000000 		.word	0
 7500 0710 01       		.byte	1
 7501 0711 000000   		.space	3
 7502 0714 00000040 		.word	1073741824
 7503 0718 8FC2753D 		.word	1031127695
 7504 071c 02       		.byte	2
 7505 071d 00       		.byte	0
 7506 071e 0000     		.space	2
 7507 0720 0000C841 		.word	1103626240
 7508 0724 00000040 		.word	1073741824
 7509 0728 CDCC4C3E 		.word	1045220557
 7510 072c 9A99993F 		.word	1067030938
 7511 0730 CDCC4C3F 		.word	1061997773
 7512 0734 CDCC4C3E 		.word	1045220557
 7513 0738 0000803F 		.word	1065353216
 7514 073c 00000000 		.word	0
 7515 0740 CDCC4C3D 		.word	1028443341
 7516 0744 0000803F 		.word	1065353216
 7517 0748 00002043 		.word	1126170624
 7518 074c 00004040 		.word	1077936128
 7519 0750 00000000 		.word	0
 7520 0754 00000000 		.word	0
 7521 0758 0000803F 		.word	1065353216
 7522 075c 01       		.byte	1
 7523 075d 000000   		.space	3
 7524 0760 9A99593F 		.word	1062836634
 7525 0764 0000C843 		.word	1137180672
 7526 0768 00000000 		.space	24
 7526      00000000 
 7526      00000000 
 7526      00000000 
 7526      00000000 
 7527 0780 60000000 		.word	.LC12
 7528 0784 00002042 		.word	1109393408
 7529 0788 0000C843 		.word	1137180672
 7530 078c A25D1340 		.word	1075010978
 7531 0790 0000803F 		.word	1065353216
 7532 0794 3D0AD73E 		.word	1054280253
 7533 0798 03       		.byte	3
 7534 0799 000000   		.space	3
 7535 079c 0000803F 		.word	1065353216
 7536 07a0 295C8F3E 		.word	1049582633
 7537 07a4 02       		.byte	2
 7538 07a5 000000   		.space	3
 7539 07a8 0000003F 		.word	1056964608
 7540 07ac CDCCCC3E 		.word	1053609165
 7541 07b0 02       		.byte	2
 7542 07b1 000000   		.space	3
 7543 07b4 00000040 		.word	1073741824
 7544 07b8 00000000 		.word	0
 7545 07bc 02       		.byte	2
 7546 07bd 00       		.byte	0
 7547 07be 0000     		.space	2
 7548 07c0 CDCC4C3F 		.word	1061997773
 7549 07c4 00001041 		.word	1091567616
ARM GAS  /tmp/claude-502/ccjNbcJ1.s 			page 170


 7550 07c8 CDCC4C3F 		.word	1061997773
 7551 07cc 6666E63F 		.word	1072064102
 7552 07d0 0AD7A33C 		.word	1017370378
 7553 07d4 0000803F 		.word	1065353216
 7554 07d8 0000803F 		.word	1065353216
 7555 07dc CDCCCC3D 		.word	1036831949
 7556 07e0 8FC2F53D 		.word	1039516303
 7557 07e4 00000040 		.word	1073741824
 7558 07e8 00005C43 		.word	1130102784
 7559 07ec 0000F041 		.word	1106247680
 7560 07f0 00000000 		.word	0
 7561 07f4 00000000 		.word	0
 7562 07f8 00000000 		.word	0
 7563 07fc 00       		.byte	0
 7564 07fd 000000   		.space	3
 7565 0800 00000000 		.word	0
 7566 0804 00000000 		.word	0
 7567 0808 01       		.byte	1
 7568 0809 000000   		.space	3
 7569 080c 00000000 		.word	_ZL11SCALE_MINOR
 7570 0810 07000000 		.word	7
 7571 0814 00000000 		.word	0
 7572 0818 00000000 		.word	0
 7573 081c 01       		.byte	1
 7574 081d 000000   		.space	3
 7575 0820 6C000000 		.word	.LC13
 7576 0824 00002042 		.word	1109393408
 7577 0828 0000C843 		.word	1137180672
 7578 082c A25D1340 		.word	1075010978
 7579 0830 0000803F 		.word	1065353216
 7580 0834 3D0AD73E 		.word	1054280253
 7581 0838 03       		.byte	3
 7582 0839 000000   		.space	3
 7583 083c 0000803F 		.word	1065353216
 7584 0840 295C8F3E 		.word	1049582633
 7585 0844 02       		.byte	2
 7586 0845 000000   		.space	3
 7587 0848 0000003F 		.word	1056964608
 7588 084c CDCCCC3E 		.word	1053609165
 7589 0850 02       		.byte	2
 7590 0851 000000   		.space	3
 7591 0854 00000040 		.word	1073741824
 7592 0858 00000000 		.word	0
 7593 085c 02       		.byte	2
 7594 085d 00       		.byte	0
 7595 085e 0000     		.space	2
 7596 0860 CDCC4C3F 		.word	1061997773
 7597 0864 00001041 		.word	1091567616
 7598 0868 CDCC4C3F 		.word	1061997773
 7599 086c 6666E63F 		.word	1072064102
 7600 0870 0AD7A33C 		.word	1017370378
 7601 0874 0000803F 		.word	1065353216
 7602 0878 0000803F 		.word	1065353216
 7603 087c CDCCCC3D 		.word	1036831949
 7604 0880 8FC2F53D 		.word	1039516303
 7605 0884 00000040 		.word	1073741824
 7606 0888 00005C43 		.word	1130102784
ARM GAS  /tmp/claude-502/ccjNbcJ1.s 			page 171


 7607 088c 0000F041 		.word	1106247680
 7608 0890 00000000 		.word	0
 7609 0894 00000000 		.word	0
 7610 0898 00000000 		.word	0
 7611 089c 00       		.byte	0
 7612 089d 000000   		.space	3
 7613 08a0 00000000 		.word	0
 7614 08a4 00000000 		.word	0
 7615 08a8 01       		.byte	1
 7616 08a9 000000   		.space	3
 7617 08ac 00000000 		.word	_ZL11SCALE_MAJOR
 7618 08b0 07000000 		.word	7
 7619 08b4 00000000 		.word	0
 7620 08b8 00000000 		.word	0
 7621 08bc 01       		.byte	1
 7622 08bd 000000   		.space	3
 7623 08c0 78000000 		.word	.LC14
 7624 08c4 0000F041 		.word	1106247680
 7625 08c8 0000A042 		.word	1117782016
 7626 08cc AD177B3F 		.word	1065031597
 7627 08d0 0000803F 		.word	1065353216
 7628 08d4 CDCC0C3F 		.word	1057803469
 7629 08d8 01       		.byte	1
 7630 08d9 000000   		.space	3
 7631 08dc 0000803F 		.word	1065353216
 7632 08e0 00000000 		.word	0
 7633 08e4 01       		.byte	1
 7634 08e5 000000   		.space	3
 7635 08e8 0000003F 		.word	1056964608
 7636 08ec 00000000 		.word	0
 7637 08f0 01       		.byte	1
 7638 08f1 000000   		.space	3
 7639 08f4 00000040 		.word	1073741824
 7640 08f8 00000000 		.word	0
 7641 08fc 01       		.byte	1
 7642 08fd 00       		.byte	0
 7643 08fe 0000     		.space	2
 7644 0900 00004040 		.word	1077936128
 7645 0904 00000040 		.word	1073741824
 7646 0908 CDCC4C3E 		.word	1045220557
 7647 090c 0000803F 		.word	1065353216
 7648 0910 00000000 		.word	0
 7649 0914 0000003F 		.word	1056964608
 7650 0918 0000803F 		.word	1065353216
 7651 091c 00000000 		.word	0
 7652 0920 00000000 		.word	0
 7653 0924 0000803F 		.word	1065353216
 7654 0928 00002043 		.word	1126170624
 7655 092c 0000A040 		.word	1084227584
 7656 0930 00000000 		.word	0
 7657 0934 00000000 		.word	0
 7658 0938 00000000 		.word	0
 7659 093c 00000000 		.space	36
 7659      00000000 
 7659      00000000 
 7659      00000000 
 7659      00000000 
ARM GAS  /tmp/claude-502/ccjNbcJ1.s 			page 172


 7660              		.text
 7661              	.Letext0:
 7662              		.file 3 "/Library/DaisyToolchain/0.2.0/arm/arm-none-eabi/include/machine/_default_types.h"
 7663              		.file 4 "/Library/DaisyToolchain/0.2.0/arm/arm-none-eabi/include/sys/_stdint.h"
 7664              		.file 5 "/Library/DaisyToolchain/0.2.0/arm/arm-none-eabi/include/stdint.h"
 7665              		.file 6 "/Library/DaisyToolchain/0.2.0/arm/lib/gcc/arm-none-eabi/10.3.1/include/stddef.h"
 7666              		.file 7 "/Library/DaisyToolchain/0.2.0/arm/arm-none-eabi/include/c++/10.3.1/cmath"
 7667              		.file 8 "/Library/DaisyToolchain/0.2.0/arm/arm-none-eabi/include/c++/10.3.1/bits/std_abs.h"
 7668              		.file 9 "/Library/DaisyToolchain/0.2.0/arm/arm-none-eabi/include/c++/10.3.1/cstdlib"
 7669              		.file 10 "/Library/DaisyToolchain/0.2.0/arm/arm-none-eabi/include/c++/10.3.1/cstdint"
 7670              		.file 11 "/Library/DaisyToolchain/0.2.0/arm/arm-none-eabi/include/c++/10.3.1/type_traits"
 7671              		.file 12 "/Library/DaisyToolchain/0.2.0/arm/arm-none-eabi/include/c++/10.3.1/debug/debug.h"
 7672              		.file 13 "/Library/DaisyToolchain/0.2.0/arm/arm-none-eabi/include/c++/10.3.1/arm-none-eabi/thumb/v
 7673              		.file 14 "/Library/DaisyToolchain/0.2.0/arm/arm-none-eabi/include/c++/10.3.1/bits/algorithmfwd.h"
 7674              		.file 15 "/Library/DaisyToolchain/0.2.0/arm/arm-none-eabi/include/c++/10.3.1/bits/stl_pair.h"
 7675              		.file 16 "/Library/DaisyToolchain/0.2.0/arm/arm-none-eabi/include/c++/10.3.1/bits/exception_ptr.h"
 7676              		.file 17 "/Library/DaisyToolchain/0.2.0/arm/arm-none-eabi/include/c++/10.3.1/cstdarg"
 7677              		.file 18 "/Library/DaisyToolchain/0.2.0/arm/arm-none-eabi/include/c++/10.3.1/cstdio"
 7678              		.file 19 "/Library/DaisyToolchain/0.2.0/arm/arm-none-eabi/include/c++/10.3.1/cstring"
 7679              		.file 20 "/Library/DaisyToolchain/0.2.0/arm/arm-none-eabi/include/c++/10.3.1/bits/predefined_ops.h
 7680              		.file 21 "/Library/DaisyToolchain/0.2.0/arm/arm-none-eabi/include/sys/_types.h"
 7681              		.file 22 "/Library/DaisyToolchain/0.2.0/arm/arm-none-eabi/include/sys/reent.h"
 7682              		.file 23 "/Library/DaisyToolchain/0.2.0/arm/arm-none-eabi/include/sys/lock.h"
 7683              		.file 24 "/Library/DaisyToolchain/0.2.0/arm/arm-none-eabi/include/math.h"
 7684              		.file 25 "/Library/DaisyToolchain/0.2.0/arm/arm-none-eabi/include/stdlib.h"
 7685              		.file 26 "/Library/DaisyToolchain/0.2.0/arm/arm-none-eabi/include/c++/10.3.1/math.h"
 7686              		.file 27 "/Library/DaisyToolchain/0.2.0/arm/arm-none-eabi/include/c++/10.3.1/stdlib.h"
 7687              		.file 28 "/Users/reza.kalfane/Workspaces/Daisy/DaisyExamples/libDaisy/src/daisy_core.h"
 7688              		.file 29 "/Users/reza.kalfane/Workspaces/Daisy/DaisyExamples/libDaisy/src/per/tim.h"
 7689              		.file 30 "/Users/reza.kalfane/Workspaces/Daisy/DaisyExamples/libDaisy/src/sys/system.h"
 7690              		.file 31 "/Users/reza.kalfane/Workspaces/Daisy/DaisyExamples/libDaisy/src/per/qspi.h"
 7691              		.file 32 "/Users/reza.kalfane/Workspaces/Daisy/DaisyExamples/libDaisy/src/per/dac.h"
 7692              		.file 33 "/Users/reza.kalfane/Workspaces/Daisy/DaisyExamples/libDaisy/src/per/gpio.h"
 7693              		.file 34 "/Users/reza.kalfane/Workspaces/Daisy/DaisyExamples/libDaisy/src/per/sai.h"
 7694              		.file 35 "/Users/reza.kalfane/Workspaces/Daisy/DaisyExamples/libDaisy/src/hid/audio.h"
 7695              		.file 36 "/Users/reza.kalfane/Workspaces/Daisy/DaisyExamples/libDaisy/src/per/adc.h"
 7696              		.file 37 "/Users/reza.kalfane/Workspaces/Daisy/DaisyExamples/libDaisy/src/hid/usb.h"
 7697              		.file 38 "/Users/reza.kalfane/Workspaces/Daisy/DaisyExamples/libDaisy/src/util/wav_format.h"
 7698              		.file 39 "/Users/reza.kalfane/Workspaces/Daisy/DaisyExamples/libDaisy/src/dev/max11300.h"
 7699              		.file 40 "/Users/reza.kalfane/Workspaces/Daisy/DaisyExamples/libDaisy/src/daisy_seed.h"
 7700              		.file 41 "/Users/reza.kalfane/Workspaces/Daisy/DaisyExamples/libDaisy/src/dev/sdram.h"
 7701              		.file 42 "/Library/DaisyToolchain/0.2.0/arm/lib/gcc/arm-none-eabi/10.3.1/include/stdarg.h"
 7702              		.file 43 "/Library/DaisyToolchain/0.2.0/arm/arm-none-eabi/include/stdio.h"
 7703              		.file 44 "/Library/DaisyToolchain/0.2.0/arm/arm-none-eabi/include/string.h"
 7704              		.file 45 "src/voice.h"
 7705              		.file 46 "/Users/reza.kalfane/Workspaces/Daisy/DaisyExamples/libDaisy/src/dev/sr_595.h"
 7706              		.file 47 "src/touch.h"
 7707              		.file 48 "src/engine.h"
 7708              		.file 49 "<built-in>"
ARM GAS  /tmp/claude-502/ccjNbcJ1.s 			page 173


DEFINED SYMBOLS
                            *ABS*:0000000000000000 engine.cpp
/tmp/claude-502/ccjNbcJ1.s:19     .text._Z12drum_triggerR7DrumHitifffff:0000000000000000 $t
/tmp/claude-502/ccjNbcJ1.s:26     .text._Z12drum_triggerR7DrumHitifffff:0000000000000000 _Z12drum_triggerR7DrumHitifffff
/tmp/claude-502/ccjNbcJ1.s:326    .text._Z12drum_triggerR7DrumHitifffff:0000000000000148 $d
/tmp/claude-502/ccjNbcJ1.s:336    .text._Z13AudioCallbackPKPKfPPfj:0000000000000000 $t
/tmp/claude-502/ccjNbcJ1.s:343    .text._Z13AudioCallbackPKPKfPPfj:0000000000000000 _Z13AudioCallbackPKPKfPPfj
/tmp/claude-502/ccjNbcJ1.s:882    .text._Z13AudioCallbackPKPKfPPfj:0000000000000250 $d
/tmp/claude-502/ccjNbcJ1.s:920    .text._Z13AudioCallbackPKPKfPPfj:00000000000002d8 $t
/tmp/claude-502/ccjNbcJ1.s:1107   .text._Z13AudioCallbackPKPKfPPfj:00000000000003fc $d
/tmp/claude-502/ccjNbcJ1.s:1137   .text._Z13AudioCallbackPKPKfPPfj:0000000000000450 $t
/tmp/claude-502/ccjNbcJ1.s:1998   .text._Z13AudioCallbackPKPKfPPfj:0000000000000818 $d
/tmp/claude-502/ccjNbcJ1.s:2015   .text._Z13AudioCallbackPKPKfPPfj:0000000000000858 $t
/tmp/claude-502/ccjNbcJ1.s:2804   .text._Z13AudioCallbackPKPKfPPfj:0000000000000c64 $d
/tmp/claude-502/ccjNbcJ1.s:2814   .text._Z13AudioCallbackPKPKfPPfj:0000000000000c7c $t
/tmp/claude-502/ccjNbcJ1.s:3532   .text._Z13AudioCallbackPKPKfPPfj:0000000000001040 $d
/tmp/claude-502/ccjNbcJ1.s:3571   .text._Z13AudioCallbackPKPKfPPfj:00000000000010b4 $t
/tmp/claude-502/ccjNbcJ1.s:4671   .text._Z13AudioCallbackPKPKfPPfj:0000000000001518 $d
/tmp/claude-502/ccjNbcJ1.s:4702   .text._Z13AudioCallbackPKPKfPPfj:0000000000001544 $t
/tmp/claude-502/ccjNbcJ1.s:5736   .text._Z13AudioCallbackPKPKfPPfj:00000000000019ac $d
/tmp/claude-502/ccjNbcJ1.s:5764   .text._Z13AudioCallbackPKPKfPPfj:00000000000019d4 $t
/tmp/claude-502/ccjNbcJ1.s:6546   .text._Z13AudioCallbackPKPKfPPfj:0000000000001d84 $d
/tmp/claude-502/ccjNbcJ1.s:6936   .data.g_hits:0000000000000000 g_hits
/tmp/claude-502/ccjNbcJ1.s:6929   .data.g_chord_ratio3:0000000000000000 g_chord_ratio3
/tmp/claude-502/ccjNbcJ1.s:6922   .data.g_chord_ratio2:0000000000000000 g_chord_ratio2
/tmp/claude-502/ccjNbcJ1.s:7026   .data.g_master_vol:0000000000000000 g_master_vol
/tmp/claude-502/ccjNbcJ1.s:6832   .bss.g_led3_duty:0000000000000000 g_led3_duty
/tmp/claude-502/ccjNbcJ1.s:6838   .bss.g_retrig:0000000000000000 g_retrig
/tmp/claude-502/ccjNbcJ1.s:6813   .bss.g_amp_target:0000000000000000 g_amp_target
/tmp/claude-502/ccjNbcJ1.s:6825   .bss.g_finger_on:0000000000000000 g_finger_on
/tmp/claude-502/ccjNbcJ1.s:6845   .bss.g_ringmod:0000000000000000 g_ringmod
/tmp/claude-502/ccjNbcJ1.s:6820   .bss.g_bitcrush:0000000000000000 g_bitcrush
/tmp/claude-502/ccjNbcJ1.s:6859   .bss.g_vibrato_depth:0000000000000000 g_vibrato_depth
/tmp/claude-502/ccjNbcJ1.s:7040   .data.g_target_drive:0000000000000000 g_target_drive
/tmp/claude-502/ccjNbcJ1.s:6852   .bss.g_target_detune:0000000000000000 g_target_detune
/tmp/claude-502/ccjNbcJ1.s:7033   .data.g_target_cutoff:0000000000000000 g_target_cutoff
/tmp/claude-502/ccjNbcJ1.s:7047   .data.g_target_freq:0000000000000000 g_target_freq
/tmp/claude-502/ccjNbcJ1.s:6568   .rodata.str1.4:0000000000000000 $d
/tmp/claude-502/ccjNbcJ1.s:6614   .bss._ZL10s_bitcrush:0000000000000000 $d
/tmp/claude-502/ccjNbcJ1.s:6618   .bss._ZL10s_bitcrush:0000000000000000 _ZL10s_bitcrush
/tmp/claude-502/ccjNbcJ1.s:6621   .bss._ZL10s_noise_lp:0000000000000000 $d
/tmp/claude-502/ccjNbcJ1.s:6625   .bss._ZL10s_noise_lp:0000000000000000 _ZL10s_noise_lp
/tmp/claude-502/ccjNbcJ1.s:6628   .bss._ZL10s_phase_rm:0000000000000000 $d
/tmp/claude-502/ccjNbcJ1.s:6632   .bss._ZL10s_phase_rm:0000000000000000 _ZL10s_phase_rm
/tmp/claude-502/ccjNbcJ1.s:6635   .bss._ZL10s_vibdepth:0000000000000000 $d
/tmp/claude-502/ccjNbcJ1.s:6639   .bss._ZL10s_vibdepth:0000000000000000 _ZL10s_vibdepth
/tmp/claude-502/ccjNbcJ1.s:6642   .bss._ZL11s_lfo_phase:0000000000000000 $d
/tmp/claude-502/ccjNbcJ1.s:6646   .bss._ZL11s_lfo_phase:0000000000000000 _ZL11s_lfo_phase
/tmp/claude-502/ccjNbcJ1.s:6649   .bss._ZL11s_phase_oct:0000000000000000 $d
/tmp/claude-502/ccjNbcJ1.s:6653   .bss._ZL11s_phase_oct:0000000000000000 _ZL11s_phase_oct
/tmp/claude-502/ccjNbcJ1.s:6656   .bss._ZL11s_phase_sub:0000000000000000 $d
/tmp/claude-502/ccjNbcJ1.s:6660   .bss._ZL11s_phase_sub:0000000000000000 _ZL11s_phase_sub
/tmp/claude-502/ccjNbcJ1.s:6663   .bss._ZL5s_amp:0000000000000000 $d
/tmp/claude-502/ccjNbcJ1.s:6667   .bss._ZL5s_amp:0000000000000000 _ZL5s_amp
/tmp/claude-502/ccjNbcJ1.s:6670   .bss._ZL5s_flt:0000000000000000 $d
/tmp/claude-502/ccjNbcJ1.s:6674   .bss._ZL5s_flt:0000000000000000 _ZL5s_flt
/tmp/claude-502/ccjNbcJ1.s:6677   .bss._ZL8s_detune:0000000000000000 $d
ARM GAS  /tmp/claude-502/ccjNbcJ1.s 			page 174


/tmp/claude-502/ccjNbcJ1.s:6681   .bss._ZL8s_detune:0000000000000000 _ZL8s_detune
/tmp/claude-502/ccjNbcJ1.s:6684   .bss._ZL8s_phase1:0000000000000000 $d
/tmp/claude-502/ccjNbcJ1.s:6688   .bss._ZL8s_phase1:0000000000000000 _ZL8s_phase1
/tmp/claude-502/ccjNbcJ1.s:6691   .bss._ZL8s_phase2:0000000000000000 $d
/tmp/claude-502/ccjNbcJ1.s:6695   .bss._ZL8s_phase2:0000000000000000 _ZL8s_phase2
/tmp/claude-502/ccjNbcJ1.s:6698   .bss._ZL9s_phase1b:0000000000000000 $d
/tmp/claude-502/ccjNbcJ1.s:6702   .bss._ZL9s_phase1b:0000000000000000 _ZL9s_phase1b
/tmp/claude-502/ccjNbcJ1.s:6705   .bss._ZL9s_phase1c:0000000000000000 $d
/tmp/claude-502/ccjNbcJ1.s:6709   .bss._ZL9s_phase1c:0000000000000000 _ZL9s_phase1c
/tmp/claude-502/ccjNbcJ1.s:6712   .bss._ZL9s_phase2b:0000000000000000 $d
/tmp/claude-502/ccjNbcJ1.s:6716   .bss._ZL9s_phase2b:0000000000000000 _ZL9s_phase2b
/tmp/claude-502/ccjNbcJ1.s:6719   .bss._ZL9s_phase2c:0000000000000000 $d
/tmp/claude-502/ccjNbcJ1.s:6723   .bss._ZL9s_phase2c:0000000000000000 _ZL9s_phase2c
/tmp/claude-502/ccjNbcJ1.s:6726   .bss._ZL9s_ringmod:0000000000000000 $d
/tmp/claude-502/ccjNbcJ1.s:6730   .bss._ZL9s_ringmod:0000000000000000 _ZL9s_ringmod
/tmp/claude-502/ccjNbcJ1.s:6736   .bss._ZZ13AudioCallbackPKPKfPPfjE10led3_state:0000000000000000 _ZZ13AudioCallbackPKPKfPPfjE10led3_state
/tmp/claude-502/ccjNbcJ1.s:6737   .bss._ZZ13AudioCallbackPKPKfPPfjE10led3_state:0000000000000000 $d
/tmp/claude-502/ccjNbcJ1.s:6739   .bss._ZZ13AudioCallbackPKPKfPPfjE11pwm_counter:0000000000000000 $d
/tmp/claude-502/ccjNbcJ1.s:6743   .bss._ZZ13AudioCallbackPKPKfPPfjE11pwm_counter:0000000000000000 _ZZ13AudioCallbackPKPKfPPfjE11pwm_counter
/tmp/claude-502/ccjNbcJ1.s:6746   .bss._ZZ13AudioCallbackPKPKfPPfjE11s_prev_tamp:0000000000000000 $d
/tmp/claude-502/ccjNbcJ1.s:6750   .bss._ZZ13AudioCallbackPKPKfPPfjE11s_prev_tamp:0000000000000000 _ZZ13AudioCallbackPKPKfPPfjE11s_prev_tamp
/tmp/claude-502/ccjNbcJ1.s:6753   .bss._ZZ13AudioCallbackPKPKfPPfjE12s_penv_start:0000000000000000 $d
/tmp/claude-502/ccjNbcJ1.s:6757   .bss._ZZ13AudioCallbackPKPKfPPfjE12s_penv_start:0000000000000000 _ZZ13AudioCallbackPKPKfPPfjE12s_penv_start
/tmp/claude-502/ccjNbcJ1.s:6760   .bss._ZZ13AudioCallbackPKPKfPPfjE16led3_duty_smooth:0000000000000000 $d
/tmp/claude-502/ccjNbcJ1.s:6764   .bss._ZZ13AudioCallbackPKPKfPPfjE16led3_duty_smooth:0000000000000000 _ZZ13AudioCallbackPKPKfPPfjE16led3_duty_smooth
/tmp/claude-502/ccjNbcJ1.s:6767   .bss._ZZ13AudioCallbackPKPKfPPfjE7s_atk_c:0000000000000000 $d
/tmp/claude-502/ccjNbcJ1.s:6771   .bss._ZZ13AudioCallbackPKPKfPPfjE7s_atk_c:0000000000000000 _ZZ13AudioCallbackPKPKfPPfjE7s_atk_c
/tmp/claude-502/ccjNbcJ1.s:6774   .bss._ZZ13AudioCallbackPKPKfPPfjE7s_rel_c:0000000000000000 $d
/tmp/claude-502/ccjNbcJ1.s:6778   .bss._ZZ13AudioCallbackPKPKfPPfjE7s_rel_c:0000000000000000 _ZZ13AudioCallbackPKPKfPPfjE7s_rel_c
/tmp/claude-502/ccjNbcJ1.s:6781   .bss._ZZ13AudioCallbackPKPKfPPfjE8s_penv_c:0000000000000000 $d
/tmp/claude-502/ccjNbcJ1.s:6785   .bss._ZZ13AudioCallbackPKPKfPPfjE8s_penv_c:0000000000000000 _ZZ13AudioCallbackPKPKfPPfjE8s_penv_c
/tmp/claude-502/ccjNbcJ1.s:6788   .bss._ZZ13AudioCallbackPKPKfPPfjE9s_decay_c:0000000000000000 $d
/tmp/claude-502/ccjNbcJ1.s:6792   .bss._ZZ13AudioCallbackPKPKfPPfjE9s_decay_c:0000000000000000 _ZZ13AudioCallbackPKPKfPPfjE9s_decay_c
/tmp/claude-502/ccjNbcJ1.s:6795   .bss._ZZ13AudioCallbackPKPKfPPfjE9s_glide_c:0000000000000000 $d
/tmp/claude-502/ccjNbcJ1.s:6799   .bss._ZZ13AudioCallbackPKPKfPPfjE9s_glide_c:0000000000000000 _ZZ13AudioCallbackPKPKfPPfjE9s_glide_c
/tmp/claude-502/ccjNbcJ1.s:6802   .bss._ZZ13AudioCallbackPKPKfPPfjE9s_sustain:0000000000000000 $d
/tmp/claude-502/ccjNbcJ1.s:6806   .bss._ZZ13AudioCallbackPKPKfPPfjE9s_sustain:0000000000000000 _ZZ13AudioCallbackPKPKfPPfjE9s_sustain
/tmp/claude-502/ccjNbcJ1.s:6809   .bss.g_amp_target:0000000000000000 $d
/tmp/claude-502/ccjNbcJ1.s:6816   .bss.g_bitcrush:0000000000000000 $d
/tmp/claude-502/ccjNbcJ1.s:6826   .bss.g_finger_on:0000000000000000 $d
/tmp/claude-502/ccjNbcJ1.s:6828   .bss.g_led3_duty:0000000000000000 $d
/tmp/claude-502/ccjNbcJ1.s:6839   .bss.g_retrig:0000000000000000 $d
/tmp/claude-502/ccjNbcJ1.s:6841   .bss.g_ringmod:0000000000000000 $d
/tmp/claude-502/ccjNbcJ1.s:6848   .bss.g_target_detune:0000000000000000 $d
/tmp/claude-502/ccjNbcJ1.s:6855   .bss.g_vibrato_depth:0000000000000000 $d
/tmp/claude-502/ccjNbcJ1.s:6862   .data._ZL11s_noise_rng:0000000000000000 $d
/tmp/claude-502/ccjNbcJ1.s:6866   .data._ZL11s_noise_rng:0000000000000000 _ZL11s_noise_rng
/tmp/claude-502/ccjNbcJ1.s:6869   .data._ZL12s_master_vol:0000000000000000 $d
/tmp/claude-502/ccjNbcJ1.s:6873   .data._ZL12s_master_vol:0000000000000000 _ZL12s_master_vol
/tmp/claude-502/ccjNbcJ1.s:6876   .data._ZL6s_freq:0000000000000000 $d
/tmp/claude-502/ccjNbcJ1.s:6880   .data._ZL6s_freq:0000000000000000 _ZL6s_freq
/tmp/claude-502/ccjNbcJ1.s:6883   .data._ZL7s_drive:0000000000000000 $d
/tmp/claude-502/ccjNbcJ1.s:6887   .data._ZL7s_drive:0000000000000000 _ZL7s_drive
/tmp/claude-502/ccjNbcJ1.s:6890   .data._ZL8s_cutoff:0000000000000000 $d
/tmp/claude-502/ccjNbcJ1.s:6894   .data._ZL8s_cutoff:0000000000000000 _ZL8s_cutoff
/tmp/claude-502/ccjNbcJ1.s:6897   .data._ZZ13AudioCallbackPKPKfPPfjE10s_coeff_vi:0000000000000000 $d
/tmp/claude-502/ccjNbcJ1.s:6901   .data._ZZ13AudioCallbackPKPKfPPfjE10s_coeff_vi:0000000000000000 _ZZ13AudioCallbackPKPKfPPfjE10s_coeff_vi
ARM GAS  /tmp/claude-502/ccjNbcJ1.s 			page 175


/tmp/claude-502/ccjNbcJ1.s:6904   .data._ZZ13AudioCallbackPKPKfPPfjE7s_decay:0000000000000000 $d
/tmp/claude-502/ccjNbcJ1.s:6908   .data._ZZ13AudioCallbackPKPKfPPfjE7s_decay:0000000000000000 _ZZ13AudioCallbackPKPKfPPfjE7s_decay
/tmp/claude-502/ccjNbcJ1.s:6911   .data._ZZ13AudioCallbackPKPKfPPfjE7s_pmult:0000000000000000 $d
/tmp/claude-502/ccjNbcJ1.s:6915   .data._ZZ13AudioCallbackPKPKfPPfjE7s_pmult:0000000000000000 _ZZ13AudioCallbackPKPKfPPfjE7s_pmult
/tmp/claude-502/ccjNbcJ1.s:6918   .data.g_chord_ratio2:0000000000000000 $d
/tmp/claude-502/ccjNbcJ1.s:6925   .data.g_chord_ratio3:0000000000000000 $d
/tmp/claude-502/ccjNbcJ1.s:6932   .data.g_hits:0000000000000000 $d
/tmp/claude-502/ccjNbcJ1.s:7022   .data.g_master_vol:0000000000000000 $d
/tmp/claude-502/ccjNbcJ1.s:7029   .data.g_target_cutoff:0000000000000000 $d
/tmp/claude-502/ccjNbcJ1.s:7036   .data.g_target_drive:0000000000000000 $d
/tmp/claude-502/ccjNbcJ1.s:7043   .data.g_target_freq:0000000000000000 $d
/tmp/claude-502/ccjNbcJ1.s:7050   .rodata._ZL11SCALE_MAJOR:0000000000000000 $d
/tmp/claude-502/ccjNbcJ1.s:7053   .rodata._ZL11SCALE_MAJOR:0000000000000000 _ZL11SCALE_MAJOR
/tmp/claude-502/ccjNbcJ1.s:7056   .rodata._ZL11SCALE_MINOR:0000000000000000 $d
/tmp/claude-502/ccjNbcJ1.s:7059   .rodata._ZL11SCALE_MINOR:0000000000000000 _ZL11SCALE_MINOR
/tmp/claude-502/ccjNbcJ1.s:7062   .rodata._ZL6VOICES:0000000000000000 $d
/tmp/claude-502/ccjNbcJ1.s:7066   .rodata._ZL6VOICES:0000000000000000 _ZL6VOICES

UNDEFINED SYMBOLS
expf
exp2f
_ZN5daisy9DaisySeed15AudioSampleRateEv
hw
g_active_voice
g_voice_idx
_ZN5daisy4GPIO5WriteEb
led3
