ARM GAS  /tmp/claude-502/ccry90Vn.s 			page 1


   1              		.cpu cortex-m7
   2              		.arch armv7e-m
   3              		.fpu fpv5-d16
   4              		.eabi_attribute 28, 1
   5              		.eabi_attribute 20, 1
   6              		.eabi_attribute 21, 1
   7              		.eabi_attribute 23, 3
   8              		.eabi_attribute 24, 1
   9              		.eabi_attribute 25, 1
  10              		.eabi_attribute 26, 1
  11              		.eabi_attribute 30, 2
  12              		.eabi_attribute 34, 1
  13              		.eabi_attribute 18, 4
  14              		.file	"main.cpp"
  15              		.text
  16              	.Ltext0:
  17              		.cfi_sections	.debug_frame
  18              		.section	.text._ZN5daisy9DaisySeedD2Ev,"axG",%progbits,_ZN5daisy9DaisySeedD5Ev,comdat
  19              		.align	1
  20              		.p2align 2,,3
  21              		.weak	_ZN5daisy9DaisySeedD2Ev
  22              		.syntax unified
  23              		.thumb
  24              		.thumb_func
  26              	_ZN5daisy9DaisySeedD2Ev:
  27              	.LVL0:
  28              	.LFB2556:
  29              		.file 1 "/Users/reza.kalfane/Workspaces/Daisy/DaisyExamples/libDaisy/src/daisy_seed.h"
   1:/Users/reza.kalfane/Workspaces/Daisy/DaisyExamples/libDaisy/src/daisy_seed.h **** #pragma once
   2:/Users/reza.kalfane/Workspaces/Daisy/DaisyExamples/libDaisy/src/daisy_seed.h **** #ifndef DSY_SEED_H
   3:/Users/reza.kalfane/Workspaces/Daisy/DaisyExamples/libDaisy/src/daisy_seed.h **** #define DSY_SEED_H
   4:/Users/reza.kalfane/Workspaces/Daisy/DaisyExamples/libDaisy/src/daisy_seed.h **** 
   5:/Users/reza.kalfane/Workspaces/Daisy/DaisyExamples/libDaisy/src/daisy_seed.h **** #include "daisy.h"
   6:/Users/reza.kalfane/Workspaces/Daisy/DaisyExamples/libDaisy/src/daisy_seed.h **** 
   7:/Users/reza.kalfane/Workspaces/Daisy/DaisyExamples/libDaisy/src/daisy_seed.h **** //Uncomment this out if you're still using the rev2 hardware
   8:/Users/reza.kalfane/Workspaces/Daisy/DaisyExamples/libDaisy/src/daisy_seed.h **** //#define SEED_REV2
   9:/Users/reza.kalfane/Workspaces/Daisy/DaisyExamples/libDaisy/src/daisy_seed.h **** 
  10:/Users/reza.kalfane/Workspaces/Daisy/DaisyExamples/libDaisy/src/daisy_seed.h **** namespace daisy
  11:/Users/reza.kalfane/Workspaces/Daisy/DaisyExamples/libDaisy/src/daisy_seed.h **** {
  12:/Users/reza.kalfane/Workspaces/Daisy/DaisyExamples/libDaisy/src/daisy_seed.h **** /**
  13:/Users/reza.kalfane/Workspaces/Daisy/DaisyExamples/libDaisy/src/daisy_seed.h ****    @brief This is the higher-level interface for the Daisy board. \n 
  14:/Users/reza.kalfane/Workspaces/Daisy/DaisyExamples/libDaisy/src/daisy_seed.h ****     All basic peripheral configuration/initialization is setup here. \n
  15:/Users/reza.kalfane/Workspaces/Daisy/DaisyExamples/libDaisy/src/daisy_seed.h **** 
  16:/Users/reza.kalfane/Workspaces/Daisy/DaisyExamples/libDaisy/src/daisy_seed.h ****    @ingroup boards
  17:/Users/reza.kalfane/Workspaces/Daisy/DaisyExamples/libDaisy/src/daisy_seed.h **** */
  18:/Users/reza.kalfane/Workspaces/Daisy/DaisyExamples/libDaisy/src/daisy_seed.h **** class DaisySeed
  19:/Users/reza.kalfane/Workspaces/Daisy/DaisyExamples/libDaisy/src/daisy_seed.h **** {
  20:/Users/reza.kalfane/Workspaces/Daisy/DaisyExamples/libDaisy/src/daisy_seed.h ****   public:
  21:/Users/reza.kalfane/Workspaces/Daisy/DaisyExamples/libDaisy/src/daisy_seed.h ****     DaisySeed() {}
  22:/Users/reza.kalfane/Workspaces/Daisy/DaisyExamples/libDaisy/src/daisy_seed.h ****     ~DaisySeed() {}
  30              		.loc 1 22 5 view -0
  31              		.cfi_startproc
  32              		@ args = 0, pretend = 0, frame = 0
  33              		@ frame_needed = 0, uses_anonymous_args = 0
  34              		@ link register save eliminated.
  35              	.LBB322:
  36              	.LBI322:
ARM GAS  /tmp/claude-502/ccry90Vn.s 			page 2


  37              		.file 2 "/Users/reza.kalfane/Workspaces/Daisy/DaisyExamples/libDaisy/src/sys/system.h"
   1:/Users/reza.kalfane/Workspaces/Daisy/DaisyExamples/libDaisy/src/sys/system.h **** #ifndef DSY_SYSTEM_H
   2:/Users/reza.kalfane/Workspaces/Daisy/DaisyExamples/libDaisy/src/sys/system.h **** #define DSY_SYSTEM_H
   3:/Users/reza.kalfane/Workspaces/Daisy/DaisyExamples/libDaisy/src/sys/system.h **** 
   4:/Users/reza.kalfane/Workspaces/Daisy/DaisyExamples/libDaisy/src/sys/system.h **** #ifndef UNIT_TEST // for unit tests, a dummy implementation is provided below
   5:/Users/reza.kalfane/Workspaces/Daisy/DaisyExamples/libDaisy/src/sys/system.h **** 
   6:/Users/reza.kalfane/Workspaces/Daisy/DaisyExamples/libDaisy/src/sys/system.h **** #include <cstdint>
   7:/Users/reza.kalfane/Workspaces/Daisy/DaisyExamples/libDaisy/src/sys/system.h **** #include "per/tim.h"
   8:/Users/reza.kalfane/Workspaces/Daisy/DaisyExamples/libDaisy/src/sys/system.h **** 
   9:/Users/reza.kalfane/Workspaces/Daisy/DaisyExamples/libDaisy/src/sys/system.h **** namespace daisy
  10:/Users/reza.kalfane/Workspaces/Daisy/DaisyExamples/libDaisy/src/sys/system.h **** {
  11:/Users/reza.kalfane/Workspaces/Daisy/DaisyExamples/libDaisy/src/sys/system.h **** /** A handle for interacting with the Core System.
  12:/Users/reza.kalfane/Workspaces/Daisy/DaisyExamples/libDaisy/src/sys/system.h ****  ** This includes the Clock tree, MPU, global DMA initialization,
  13:/Users/reza.kalfane/Workspaces/Daisy/DaisyExamples/libDaisy/src/sys/system.h ****  ** cache handling, and any other necessary global initiailzation
  14:/Users/reza.kalfane/Workspaces/Daisy/DaisyExamples/libDaisy/src/sys/system.h ****  **
  15:/Users/reza.kalfane/Workspaces/Daisy/DaisyExamples/libDaisy/src/sys/system.h ****  ** @author shensley
  16:/Users/reza.kalfane/Workspaces/Daisy/DaisyExamples/libDaisy/src/sys/system.h ****  ** @ingroup system
  17:/Users/reza.kalfane/Workspaces/Daisy/DaisyExamples/libDaisy/src/sys/system.h ****  */
  18:/Users/reza.kalfane/Workspaces/Daisy/DaisyExamples/libDaisy/src/sys/system.h **** class System
  19:/Users/reza.kalfane/Workspaces/Daisy/DaisyExamples/libDaisy/src/sys/system.h **** {
  20:/Users/reza.kalfane/Workspaces/Daisy/DaisyExamples/libDaisy/src/sys/system.h ****   public:
  21:/Users/reza.kalfane/Workspaces/Daisy/DaisyExamples/libDaisy/src/sys/system.h ****     /** Contains settings for initializing the System */
  22:/Users/reza.kalfane/Workspaces/Daisy/DaisyExamples/libDaisy/src/sys/system.h ****     struct Config
  23:/Users/reza.kalfane/Workspaces/Daisy/DaisyExamples/libDaisy/src/sys/system.h ****     {
  24:/Users/reza.kalfane/Workspaces/Daisy/DaisyExamples/libDaisy/src/sys/system.h ****         /** Specifies the system clock frequency that feeds APB/AHB clocks, etc. */
  25:/Users/reza.kalfane/Workspaces/Daisy/DaisyExamples/libDaisy/src/sys/system.h ****         enum class SysClkFreq
  26:/Users/reza.kalfane/Workspaces/Daisy/DaisyExamples/libDaisy/src/sys/system.h ****         {
  27:/Users/reza.kalfane/Workspaces/Daisy/DaisyExamples/libDaisy/src/sys/system.h ****             FREQ_400MHZ,
  28:/Users/reza.kalfane/Workspaces/Daisy/DaisyExamples/libDaisy/src/sys/system.h ****             FREQ_480MHZ,
  29:/Users/reza.kalfane/Workspaces/Daisy/DaisyExamples/libDaisy/src/sys/system.h ****         };
  30:/Users/reza.kalfane/Workspaces/Daisy/DaisyExamples/libDaisy/src/sys/system.h **** 
  31:/Users/reza.kalfane/Workspaces/Daisy/DaisyExamples/libDaisy/src/sys/system.h ****         /** Method to call on the struct to set to defaults
  32:/Users/reza.kalfane/Workspaces/Daisy/DaisyExamples/libDaisy/src/sys/system.h ****          ** CPU Freq set to 400MHz
  33:/Users/reza.kalfane/Workspaces/Daisy/DaisyExamples/libDaisy/src/sys/system.h ****          ** Cache Enabled
  34:/Users/reza.kalfane/Workspaces/Daisy/DaisyExamples/libDaisy/src/sys/system.h ****          ** */
  35:/Users/reza.kalfane/Workspaces/Daisy/DaisyExamples/libDaisy/src/sys/system.h ****         void Defaults()
  36:/Users/reza.kalfane/Workspaces/Daisy/DaisyExamples/libDaisy/src/sys/system.h ****         {
  37:/Users/reza.kalfane/Workspaces/Daisy/DaisyExamples/libDaisy/src/sys/system.h ****             cpu_freq    = SysClkFreq::FREQ_400MHZ;
  38:/Users/reza.kalfane/Workspaces/Daisy/DaisyExamples/libDaisy/src/sys/system.h ****             use_dcache  = true;
  39:/Users/reza.kalfane/Workspaces/Daisy/DaisyExamples/libDaisy/src/sys/system.h ****             use_icache  = true;
  40:/Users/reza.kalfane/Workspaces/Daisy/DaisyExamples/libDaisy/src/sys/system.h ****             skip_clocks = false;
  41:/Users/reza.kalfane/Workspaces/Daisy/DaisyExamples/libDaisy/src/sys/system.h ****         }
  42:/Users/reza.kalfane/Workspaces/Daisy/DaisyExamples/libDaisy/src/sys/system.h **** 
  43:/Users/reza.kalfane/Workspaces/Daisy/DaisyExamples/libDaisy/src/sys/system.h ****         /** Method to call on the struct to set to boost mode:
  44:/Users/reza.kalfane/Workspaces/Daisy/DaisyExamples/libDaisy/src/sys/system.h ****          ** CPU Freq set to 480MHz
  45:/Users/reza.kalfane/Workspaces/Daisy/DaisyExamples/libDaisy/src/sys/system.h ****          ** Cache Enabled
  46:/Users/reza.kalfane/Workspaces/Daisy/DaisyExamples/libDaisy/src/sys/system.h ****          ** */
  47:/Users/reza.kalfane/Workspaces/Daisy/DaisyExamples/libDaisy/src/sys/system.h ****         void Boost()
  48:/Users/reza.kalfane/Workspaces/Daisy/DaisyExamples/libDaisy/src/sys/system.h ****         {
  49:/Users/reza.kalfane/Workspaces/Daisy/DaisyExamples/libDaisy/src/sys/system.h ****             cpu_freq    = SysClkFreq::FREQ_480MHZ;
  50:/Users/reza.kalfane/Workspaces/Daisy/DaisyExamples/libDaisy/src/sys/system.h ****             use_dcache  = true;
  51:/Users/reza.kalfane/Workspaces/Daisy/DaisyExamples/libDaisy/src/sys/system.h ****             use_icache  = true;
  52:/Users/reza.kalfane/Workspaces/Daisy/DaisyExamples/libDaisy/src/sys/system.h ****             skip_clocks = false;
  53:/Users/reza.kalfane/Workspaces/Daisy/DaisyExamples/libDaisy/src/sys/system.h ****         }
  54:/Users/reza.kalfane/Workspaces/Daisy/DaisyExamples/libDaisy/src/sys/system.h **** 
  55:/Users/reza.kalfane/Workspaces/Daisy/DaisyExamples/libDaisy/src/sys/system.h ****         SysClkFreq cpu_freq;
  56:/Users/reza.kalfane/Workspaces/Daisy/DaisyExamples/libDaisy/src/sys/system.h ****         bool       use_dcache;
ARM GAS  /tmp/claude-502/ccry90Vn.s 			page 3


  57:/Users/reza.kalfane/Workspaces/Daisy/DaisyExamples/libDaisy/src/sys/system.h ****         bool       use_icache;
  58:/Users/reza.kalfane/Workspaces/Daisy/DaisyExamples/libDaisy/src/sys/system.h ****         bool       skip_clocks;
  59:/Users/reza.kalfane/Workspaces/Daisy/DaisyExamples/libDaisy/src/sys/system.h ****     };
  60:/Users/reza.kalfane/Workspaces/Daisy/DaisyExamples/libDaisy/src/sys/system.h **** 
  61:/Users/reza.kalfane/Workspaces/Daisy/DaisyExamples/libDaisy/src/sys/system.h ****     /** Describes the different regions of memory available to the Daisy */
  62:/Users/reza.kalfane/Workspaces/Daisy/DaisyExamples/libDaisy/src/sys/system.h ****     enum MemoryRegion
  63:/Users/reza.kalfane/Workspaces/Daisy/DaisyExamples/libDaisy/src/sys/system.h ****     {
  64:/Users/reza.kalfane/Workspaces/Daisy/DaisyExamples/libDaisy/src/sys/system.h ****         INTERNAL_FLASH = 0,
  65:/Users/reza.kalfane/Workspaces/Daisy/DaisyExamples/libDaisy/src/sys/system.h ****         ITCMRAM,
  66:/Users/reza.kalfane/Workspaces/Daisy/DaisyExamples/libDaisy/src/sys/system.h ****         DTCMRAM,
  67:/Users/reza.kalfane/Workspaces/Daisy/DaisyExamples/libDaisy/src/sys/system.h ****         SRAM_D1,
  68:/Users/reza.kalfane/Workspaces/Daisy/DaisyExamples/libDaisy/src/sys/system.h ****         SRAM_D2,
  69:/Users/reza.kalfane/Workspaces/Daisy/DaisyExamples/libDaisy/src/sys/system.h ****         SRAM_D3,
  70:/Users/reza.kalfane/Workspaces/Daisy/DaisyExamples/libDaisy/src/sys/system.h ****         SDRAM,
  71:/Users/reza.kalfane/Workspaces/Daisy/DaisyExamples/libDaisy/src/sys/system.h ****         QSPI,
  72:/Users/reza.kalfane/Workspaces/Daisy/DaisyExamples/libDaisy/src/sys/system.h ****         INVALID_ADDRESS,
  73:/Users/reza.kalfane/Workspaces/Daisy/DaisyExamples/libDaisy/src/sys/system.h ****     };
  74:/Users/reza.kalfane/Workspaces/Daisy/DaisyExamples/libDaisy/src/sys/system.h **** 
  75:/Users/reza.kalfane/Workspaces/Daisy/DaisyExamples/libDaisy/src/sys/system.h ****     /** Bootloader struct for controlling bootloading parameters */
  76:/Users/reza.kalfane/Workspaces/Daisy/DaisyExamples/libDaisy/src/sys/system.h ****     struct BootInfo
  77:/Users/reza.kalfane/Workspaces/Daisy/DaisyExamples/libDaisy/src/sys/system.h ****     {
  78:/Users/reza.kalfane/Workspaces/Daisy/DaisyExamples/libDaisy/src/sys/system.h ****         enum class Type : uint32_t
  79:/Users/reza.kalfane/Workspaces/Daisy/DaisyExamples/libDaisy/src/sys/system.h ****         {
  80:/Users/reza.kalfane/Workspaces/Daisy/DaisyExamples/libDaisy/src/sys/system.h ****             INVALID      = 0x00000000,
  81:/Users/reza.kalfane/Workspaces/Daisy/DaisyExamples/libDaisy/src/sys/system.h ****             JUMP         = 0xDEADBEEF,
  82:/Users/reza.kalfane/Workspaces/Daisy/DaisyExamples/libDaisy/src/sys/system.h ****             SKIP_TIMEOUT = 0x5AFEB007,
  83:/Users/reza.kalfane/Workspaces/Daisy/DaisyExamples/libDaisy/src/sys/system.h ****             INF_TIMEOUT  = 0xB0074EFA,
  84:/Users/reza.kalfane/Workspaces/Daisy/DaisyExamples/libDaisy/src/sys/system.h ****         } status;
  85:/Users/reza.kalfane/Workspaces/Daisy/DaisyExamples/libDaisy/src/sys/system.h ****         uint32_t data;
  86:/Users/reza.kalfane/Workspaces/Daisy/DaisyExamples/libDaisy/src/sys/system.h ****         enum class Version : uint32_t
  87:/Users/reza.kalfane/Workspaces/Daisy/DaisyExamples/libDaisy/src/sys/system.h ****         {
  88:/Users/reza.kalfane/Workspaces/Daisy/DaisyExamples/libDaisy/src/sys/system.h ****             LT_v6_0 = 0, // Less than v6.0
  89:/Users/reza.kalfane/Workspaces/Daisy/DaisyExamples/libDaisy/src/sys/system.h ****             NONE,        // No bootloader present
  90:/Users/reza.kalfane/Workspaces/Daisy/DaisyExamples/libDaisy/src/sys/system.h ****             v6_0,        // v6.0
  91:/Users/reza.kalfane/Workspaces/Daisy/DaisyExamples/libDaisy/src/sys/system.h ****             v6_1,        // v6.1 or greater
  92:/Users/reza.kalfane/Workspaces/Daisy/DaisyExamples/libDaisy/src/sys/system.h ****             LAST
  93:/Users/reza.kalfane/Workspaces/Daisy/DaisyExamples/libDaisy/src/sys/system.h ****         } version;
  94:/Users/reza.kalfane/Workspaces/Daisy/DaisyExamples/libDaisy/src/sys/system.h ****     };
  95:/Users/reza.kalfane/Workspaces/Daisy/DaisyExamples/libDaisy/src/sys/system.h **** 
  96:/Users/reza.kalfane/Workspaces/Daisy/DaisyExamples/libDaisy/src/sys/system.h ****     System() {}
  97:/Users/reza.kalfane/Workspaces/Daisy/DaisyExamples/libDaisy/src/sys/system.h ****     ~System() {}
  38              		.loc 2 97 5 view .LVU1
  39              		.loc 2 97 5 is_stmt 0 view .LVU2
  40              	.LBE322:
  41              	.LBB323:
  42              	.LBI323:
  43              		.file 3 "/Users/reza.kalfane/Workspaces/Daisy/DaisyExamples/libDaisy/src/hid/usb.h"
   1:/Users/reza.kalfane/Workspaces/Daisy/DaisyExamples/libDaisy/src/hid/usb.h **** #pragma once
   2:/Users/reza.kalfane/Workspaces/Daisy/DaisyExamples/libDaisy/src/hid/usb.h **** #ifndef DSY_HID_USB_H
   3:/Users/reza.kalfane/Workspaces/Daisy/DaisyExamples/libDaisy/src/hid/usb.h **** #define DSY_HID_USB_H
   4:/Users/reza.kalfane/Workspaces/Daisy/DaisyExamples/libDaisy/src/hid/usb.h **** #include <stdint.h>
   5:/Users/reza.kalfane/Workspaces/Daisy/DaisyExamples/libDaisy/src/hid/usb.h **** #include <stdlib.h>
   6:/Users/reza.kalfane/Workspaces/Daisy/DaisyExamples/libDaisy/src/hid/usb.h **** 
   7:/Users/reza.kalfane/Workspaces/Daisy/DaisyExamples/libDaisy/src/hid/usb.h **** namespace daisy
   8:/Users/reza.kalfane/Workspaces/Daisy/DaisyExamples/libDaisy/src/hid/usb.h **** /** @addtogroup human_interface
   9:/Users/reza.kalfane/Workspaces/Daisy/DaisyExamples/libDaisy/src/hid/usb.h ****     @{
  10:/Users/reza.kalfane/Workspaces/Daisy/DaisyExamples/libDaisy/src/hid/usb.h **** */
ARM GAS  /tmp/claude-502/ccry90Vn.s 			page 4


  11:/Users/reza.kalfane/Workspaces/Daisy/DaisyExamples/libDaisy/src/hid/usb.h **** 
  12:/Users/reza.kalfane/Workspaces/Daisy/DaisyExamples/libDaisy/src/hid/usb.h **** {
  13:/Users/reza.kalfane/Workspaces/Daisy/DaisyExamples/libDaisy/src/hid/usb.h **** /** 
  14:/Users/reza.kalfane/Workspaces/Daisy/DaisyExamples/libDaisy/src/hid/usb.h ****     @brief Interface for initializing and using the USB Peripherals on the daisy
  15:/Users/reza.kalfane/Workspaces/Daisy/DaisyExamples/libDaisy/src/hid/usb.h ****     @author Stephen Hensley
  16:/Users/reza.kalfane/Workspaces/Daisy/DaisyExamples/libDaisy/src/hid/usb.h ****     @date December 2019
  17:/Users/reza.kalfane/Workspaces/Daisy/DaisyExamples/libDaisy/src/hid/usb.h **** */
  18:/Users/reza.kalfane/Workspaces/Daisy/DaisyExamples/libDaisy/src/hid/usb.h **** class UsbHandle
  19:/Users/reza.kalfane/Workspaces/Daisy/DaisyExamples/libDaisy/src/hid/usb.h **** {
  20:/Users/reza.kalfane/Workspaces/Daisy/DaisyExamples/libDaisy/src/hid/usb.h ****   public:
  21:/Users/reza.kalfane/Workspaces/Daisy/DaisyExamples/libDaisy/src/hid/usb.h ****     /** Return values for USBHandle Functions */
  22:/Users/reza.kalfane/Workspaces/Daisy/DaisyExamples/libDaisy/src/hid/usb.h ****     enum class Result
  23:/Users/reza.kalfane/Workspaces/Daisy/DaisyExamples/libDaisy/src/hid/usb.h ****     {
  24:/Users/reza.kalfane/Workspaces/Daisy/DaisyExamples/libDaisy/src/hid/usb.h ****         OK,
  25:/Users/reza.kalfane/Workspaces/Daisy/DaisyExamples/libDaisy/src/hid/usb.h ****         ERR,
  26:/Users/reza.kalfane/Workspaces/Daisy/DaisyExamples/libDaisy/src/hid/usb.h ****     };
  27:/Users/reza.kalfane/Workspaces/Daisy/DaisyExamples/libDaisy/src/hid/usb.h **** 
  28:/Users/reza.kalfane/Workspaces/Daisy/DaisyExamples/libDaisy/src/hid/usb.h ****     /** Specified which of the two USB Peripherals to initialize. */
  29:/Users/reza.kalfane/Workspaces/Daisy/DaisyExamples/libDaisy/src/hid/usb.h ****     enum UsbPeriph
  30:/Users/reza.kalfane/Workspaces/Daisy/DaisyExamples/libDaisy/src/hid/usb.h ****     {
  31:/Users/reza.kalfane/Workspaces/Daisy/DaisyExamples/libDaisy/src/hid/usb.h ****         FS_INTERNAL, /**< Internal pin */
  32:/Users/reza.kalfane/Workspaces/Daisy/DaisyExamples/libDaisy/src/hid/usb.h ****         FS_EXTERNAL, /**< FS External D+ pin is Pin 38 (GPIO32). FS External D- pin is Pin 37 (GPIO
  33:/Users/reza.kalfane/Workspaces/Daisy/DaisyExamples/libDaisy/src/hid/usb.h ****         FS_BOTH,     /**< Both */
  34:/Users/reza.kalfane/Workspaces/Daisy/DaisyExamples/libDaisy/src/hid/usb.h ****     };
  35:/Users/reza.kalfane/Workspaces/Daisy/DaisyExamples/libDaisy/src/hid/usb.h **** 
  36:/Users/reza.kalfane/Workspaces/Daisy/DaisyExamples/libDaisy/src/hid/usb.h **** 
  37:/Users/reza.kalfane/Workspaces/Daisy/DaisyExamples/libDaisy/src/hid/usb.h ****     /** Function called upon reception of a buffer */
  38:/Users/reza.kalfane/Workspaces/Daisy/DaisyExamples/libDaisy/src/hid/usb.h ****     typedef void (*ReceiveCallback)(uint8_t* buff, uint32_t* len);
  39:/Users/reza.kalfane/Workspaces/Daisy/DaisyExamples/libDaisy/src/hid/usb.h **** 
  40:/Users/reza.kalfane/Workspaces/Daisy/DaisyExamples/libDaisy/src/hid/usb.h ****     UsbHandle() {}
  41:/Users/reza.kalfane/Workspaces/Daisy/DaisyExamples/libDaisy/src/hid/usb.h **** 
  42:/Users/reza.kalfane/Workspaces/Daisy/DaisyExamples/libDaisy/src/hid/usb.h ****     ~UsbHandle() {}
  44              		.loc 3 42 5 is_stmt 1 view .LVU3
  45              		.loc 3 42 5 is_stmt 0 view .LVU4
  46              	.LBE323:
  47              	.LBB324:
  48              	.LBI324:
  49              		.file 4 "/Users/reza.kalfane/Workspaces/Daisy/DaisyExamples/libDaisy/src/per/adc.h"
   1:/Users/reza.kalfane/Workspaces/Daisy/DaisyExamples/libDaisy/src/per/adc.h **** #pragma once
   2:/Users/reza.kalfane/Workspaces/Daisy/DaisyExamples/libDaisy/src/per/adc.h **** #ifndef DSY_ADC_H
   3:/Users/reza.kalfane/Workspaces/Daisy/DaisyExamples/libDaisy/src/per/adc.h **** #define DSY_ADC_H /**< Macro */
   4:/Users/reza.kalfane/Workspaces/Daisy/DaisyExamples/libDaisy/src/per/adc.h **** #include <stdint.h>
   5:/Users/reza.kalfane/Workspaces/Daisy/DaisyExamples/libDaisy/src/per/adc.h **** #include <stdlib.h>
   6:/Users/reza.kalfane/Workspaces/Daisy/DaisyExamples/libDaisy/src/per/adc.h **** #include "daisy_core.h"
   7:/Users/reza.kalfane/Workspaces/Daisy/DaisyExamples/libDaisy/src/per/adc.h **** #include "per/gpio.h"
   8:/Users/reza.kalfane/Workspaces/Daisy/DaisyExamples/libDaisy/src/per/adc.h **** 
   9:/Users/reza.kalfane/Workspaces/Daisy/DaisyExamples/libDaisy/src/per/adc.h **** #define DSY_ADC_MAX_CHANNELS 16 /**< Maximum number of ADC channels */
  10:/Users/reza.kalfane/Workspaces/Daisy/DaisyExamples/libDaisy/src/per/adc.h **** 
  11:/Users/reza.kalfane/Workspaces/Daisy/DaisyExamples/libDaisy/src/per/adc.h **** namespace daisy
  12:/Users/reza.kalfane/Workspaces/Daisy/DaisyExamples/libDaisy/src/per/adc.h **** {
  13:/Users/reza.kalfane/Workspaces/Daisy/DaisyExamples/libDaisy/src/per/adc.h **** /** @addtogroup per_analog
  14:/Users/reza.kalfane/Workspaces/Daisy/DaisyExamples/libDaisy/src/per/adc.h ****     @{
  15:/Users/reza.kalfane/Workspaces/Daisy/DaisyExamples/libDaisy/src/per/adc.h **** */
  16:/Users/reza.kalfane/Workspaces/Daisy/DaisyExamples/libDaisy/src/per/adc.h **** 
  17:/Users/reza.kalfane/Workspaces/Daisy/DaisyExamples/libDaisy/src/per/adc.h **** /* While there may not be many configuration options here,
  18:/Users/reza.kalfane/Workspaces/Daisy/DaisyExamples/libDaisy/src/per/adc.h **** using a struct like this allows us to add more configuration
  19:/Users/reza.kalfane/Workspaces/Daisy/DaisyExamples/libDaisy/src/per/adc.h **** later without breaking existing functionality.
ARM GAS  /tmp/claude-502/ccry90Vn.s 			page 5


  20:/Users/reza.kalfane/Workspaces/Daisy/DaisyExamples/libDaisy/src/per/adc.h **** */
  21:/Users/reza.kalfane/Workspaces/Daisy/DaisyExamples/libDaisy/src/per/adc.h **** 
  22:/Users/reza.kalfane/Workspaces/Daisy/DaisyExamples/libDaisy/src/per/adc.h **** /** @brief   Configuration Structure for an ADC Channel 
  23:/Users/reza.kalfane/Workspaces/Daisy/DaisyExamples/libDaisy/src/per/adc.h ****  *  @details This can be used to configure a a single input, 
  24:/Users/reza.kalfane/Workspaces/Daisy/DaisyExamples/libDaisy/src/per/adc.h ****  *           or a multiplexed input, allowing up to 8 inputs on 
  25:/Users/reza.kalfane/Workspaces/Daisy/DaisyExamples/libDaisy/src/per/adc.h ****  *           one channel.
  26:/Users/reza.kalfane/Workspaces/Daisy/DaisyExamples/libDaisy/src/per/adc.h ****  *  @note    Sharing data lines to multiple muxes _is_ possible, but
  27:/Users/reza.kalfane/Workspaces/Daisy/DaisyExamples/libDaisy/src/per/adc.h ****  *           each channel sharing data lines must be set to the maximum
  28:/Users/reza.kalfane/Workspaces/Daisy/DaisyExamples/libDaisy/src/per/adc.h ****  *           number of channels, even if some multiplexers have fewer
  29:/Users/reza.kalfane/Workspaces/Daisy/DaisyExamples/libDaisy/src/per/adc.h ****  *           inputs connected.
  30:/Users/reza.kalfane/Workspaces/Daisy/DaisyExamples/libDaisy/src/per/adc.h **** */
  31:/Users/reza.kalfane/Workspaces/Daisy/DaisyExamples/libDaisy/src/per/adc.h **** struct AdcChannelConfig
  32:/Users/reza.kalfane/Workspaces/Daisy/DaisyExamples/libDaisy/src/per/adc.h **** {
  33:/Users/reza.kalfane/Workspaces/Daisy/DaisyExamples/libDaisy/src/per/adc.h ****     /** Which pin to use for multiplexing */
  34:/Users/reza.kalfane/Workspaces/Daisy/DaisyExamples/libDaisy/src/per/adc.h ****     enum MuxPin
  35:/Users/reza.kalfane/Workspaces/Daisy/DaisyExamples/libDaisy/src/per/adc.h ****     {
  36:/Users/reza.kalfane/Workspaces/Daisy/DaisyExamples/libDaisy/src/per/adc.h ****         MUX_SEL_0,    /**< & */
  37:/Users/reza.kalfane/Workspaces/Daisy/DaisyExamples/libDaisy/src/per/adc.h ****         MUX_SEL_1,    /**< & */
  38:/Users/reza.kalfane/Workspaces/Daisy/DaisyExamples/libDaisy/src/per/adc.h ****         MUX_SEL_2,    /**< & */
  39:/Users/reza.kalfane/Workspaces/Daisy/DaisyExamples/libDaisy/src/per/adc.h ****         MUX_SEL_LAST, /**< & */
  40:/Users/reza.kalfane/Workspaces/Daisy/DaisyExamples/libDaisy/src/per/adc.h ****     };
  41:/Users/reza.kalfane/Workspaces/Daisy/DaisyExamples/libDaisy/src/per/adc.h **** 
  42:/Users/reza.kalfane/Workspaces/Daisy/DaisyExamples/libDaisy/src/per/adc.h ****     /** \brief per channel conversion speed added to fixed time based on bitdepth, etc. */
  43:/Users/reza.kalfane/Workspaces/Daisy/DaisyExamples/libDaisy/src/per/adc.h ****     enum ConversionSpeed
  44:/Users/reza.kalfane/Workspaces/Daisy/DaisyExamples/libDaisy/src/per/adc.h ****     {
  45:/Users/reza.kalfane/Workspaces/Daisy/DaisyExamples/libDaisy/src/per/adc.h ****         SPEED_1CYCLES_5,
  46:/Users/reza.kalfane/Workspaces/Daisy/DaisyExamples/libDaisy/src/per/adc.h ****         SPEED_2CYCLES_5,
  47:/Users/reza.kalfane/Workspaces/Daisy/DaisyExamples/libDaisy/src/per/adc.h ****         SPEED_8CYCLES_5,
  48:/Users/reza.kalfane/Workspaces/Daisy/DaisyExamples/libDaisy/src/per/adc.h ****         SPEED_16CYCLES_5,
  49:/Users/reza.kalfane/Workspaces/Daisy/DaisyExamples/libDaisy/src/per/adc.h ****         SPEED_32CYCLES_5,
  50:/Users/reza.kalfane/Workspaces/Daisy/DaisyExamples/libDaisy/src/per/adc.h ****         SPEED_64CYCLES_5,
  51:/Users/reza.kalfane/Workspaces/Daisy/DaisyExamples/libDaisy/src/per/adc.h ****         SPEED_387CYCLES_5,
  52:/Users/reza.kalfane/Workspaces/Daisy/DaisyExamples/libDaisy/src/per/adc.h ****         SPEED_810CYCLES_5,
  53:/Users/reza.kalfane/Workspaces/Daisy/DaisyExamples/libDaisy/src/per/adc.h ****     };
  54:/Users/reza.kalfane/Workspaces/Daisy/DaisyExamples/libDaisy/src/per/adc.h **** 
  55:/Users/reza.kalfane/Workspaces/Daisy/DaisyExamples/libDaisy/src/per/adc.h ****     /** Initializes a single ADC pin as an ADC. 
  56:/Users/reza.kalfane/Workspaces/Daisy/DaisyExamples/libDaisy/src/per/adc.h ****     \param pin Pin to init.
  57:/Users/reza.kalfane/Workspaces/Daisy/DaisyExamples/libDaisy/src/per/adc.h ****     \param speed conversion speed for this pin defaults to 8.5 cycles
  58:/Users/reza.kalfane/Workspaces/Daisy/DaisyExamples/libDaisy/src/per/adc.h ****      */
  59:/Users/reza.kalfane/Workspaces/Daisy/DaisyExamples/libDaisy/src/per/adc.h ****     void InitSingle(dsy_gpio_pin pin, ConversionSpeed speed = SPEED_8CYCLES_5);
  60:/Users/reza.kalfane/Workspaces/Daisy/DaisyExamples/libDaisy/src/per/adc.h **** 
  61:/Users/reza.kalfane/Workspaces/Daisy/DaisyExamples/libDaisy/src/per/adc.h ****     /** 
  62:/Users/reza.kalfane/Workspaces/Daisy/DaisyExamples/libDaisy/src/per/adc.h ****     Initializes a single ADC pin as a Multiplexed ADC.
  63:/Users/reza.kalfane/Workspaces/Daisy/DaisyExamples/libDaisy/src/per/adc.h ****     Requires a CD405X Multiplexer connected to the pin.
  64:/Users/reza.kalfane/Workspaces/Daisy/DaisyExamples/libDaisy/src/per/adc.h ****     You only need to supply the mux pins that are required,
  65:/Users/reza.kalfane/Workspaces/Daisy/DaisyExamples/libDaisy/src/per/adc.h ****     e.g. a 4052 mux would only require mux_0 and mux_1.
  66:/Users/reza.kalfane/Workspaces/Daisy/DaisyExamples/libDaisy/src/per/adc.h ****     Internal Callbacks handle the pin addressing.
  67:/Users/reza.kalfane/Workspaces/Daisy/DaisyExamples/libDaisy/src/per/adc.h ****     \param adc_pin &
  68:/Users/reza.kalfane/Workspaces/Daisy/DaisyExamples/libDaisy/src/per/adc.h ****     \param mux_channels must be 1-8
  69:/Users/reza.kalfane/Workspaces/Daisy/DaisyExamples/libDaisy/src/per/adc.h ****     \param mux_0 First mux pin
  70:/Users/reza.kalfane/Workspaces/Daisy/DaisyExamples/libDaisy/src/per/adc.h ****     \param mux_1 Second mux pin
  71:/Users/reza.kalfane/Workspaces/Daisy/DaisyExamples/libDaisy/src/per/adc.h ****     \param mux_2 Third mux pin
  72:/Users/reza.kalfane/Workspaces/Daisy/DaisyExamples/libDaisy/src/per/adc.h ****     \param speed conversion speed for this pin defaults to 8.5 cycles
  73:/Users/reza.kalfane/Workspaces/Daisy/DaisyExamples/libDaisy/src/per/adc.h ****     */
  74:/Users/reza.kalfane/Workspaces/Daisy/DaisyExamples/libDaisy/src/per/adc.h ****     void InitMux(dsy_gpio_pin    adc_pin,
  75:/Users/reza.kalfane/Workspaces/Daisy/DaisyExamples/libDaisy/src/per/adc.h ****                  size_t          mux_channels,
  76:/Users/reza.kalfane/Workspaces/Daisy/DaisyExamples/libDaisy/src/per/adc.h ****                  dsy_gpio_pin    mux_0,
ARM GAS  /tmp/claude-502/ccry90Vn.s 			page 6


  77:/Users/reza.kalfane/Workspaces/Daisy/DaisyExamples/libDaisy/src/per/adc.h ****                  dsy_gpio_pin    mux_1 = {DSY_GPIOX, 0},
  78:/Users/reza.kalfane/Workspaces/Daisy/DaisyExamples/libDaisy/src/per/adc.h ****                  dsy_gpio_pin    mux_2 = {DSY_GPIOX, 0},
  79:/Users/reza.kalfane/Workspaces/Daisy/DaisyExamples/libDaisy/src/per/adc.h ****                  ConversionSpeed speed = SPEED_8CYCLES_5);
  80:/Users/reza.kalfane/Workspaces/Daisy/DaisyExamples/libDaisy/src/per/adc.h **** 
  81:/Users/reza.kalfane/Workspaces/Daisy/DaisyExamples/libDaisy/src/per/adc.h ****     dsy_gpio        pin_;                   /**< & */
  82:/Users/reza.kalfane/Workspaces/Daisy/DaisyExamples/libDaisy/src/per/adc.h ****     dsy_gpio        mux_pin_[MUX_SEL_LAST]; /**< & */
  83:/Users/reza.kalfane/Workspaces/Daisy/DaisyExamples/libDaisy/src/per/adc.h ****     uint8_t         mux_channels_;          /**< & */
  84:/Users/reza.kalfane/Workspaces/Daisy/DaisyExamples/libDaisy/src/per/adc.h ****     ConversionSpeed speed_;
  85:/Users/reza.kalfane/Workspaces/Daisy/DaisyExamples/libDaisy/src/per/adc.h **** };
  86:/Users/reza.kalfane/Workspaces/Daisy/DaisyExamples/libDaisy/src/per/adc.h **** 
  87:/Users/reza.kalfane/Workspaces/Daisy/DaisyExamples/libDaisy/src/per/adc.h **** /**
  88:/Users/reza.kalfane/Workspaces/Daisy/DaisyExamples/libDaisy/src/per/adc.h ****    @brief Handler for analog to digital conversion
  89:/Users/reza.kalfane/Workspaces/Daisy/DaisyExamples/libDaisy/src/per/adc.h **** */
  90:/Users/reza.kalfane/Workspaces/Daisy/DaisyExamples/libDaisy/src/per/adc.h **** class AdcHandle
  91:/Users/reza.kalfane/Workspaces/Daisy/DaisyExamples/libDaisy/src/per/adc.h **** {
  92:/Users/reza.kalfane/Workspaces/Daisy/DaisyExamples/libDaisy/src/per/adc.h ****   public:
  93:/Users/reza.kalfane/Workspaces/Daisy/DaisyExamples/libDaisy/src/per/adc.h ****     /** Supported oversampling amounts */
  94:/Users/reza.kalfane/Workspaces/Daisy/DaisyExamples/libDaisy/src/per/adc.h ****     enum OverSampling
  95:/Users/reza.kalfane/Workspaces/Daisy/DaisyExamples/libDaisy/src/per/adc.h ****     {
  96:/Users/reza.kalfane/Workspaces/Daisy/DaisyExamples/libDaisy/src/per/adc.h ****         OVS_NONE, /**< & */
  97:/Users/reza.kalfane/Workspaces/Daisy/DaisyExamples/libDaisy/src/per/adc.h ****         OVS_4,    /**< & */
  98:/Users/reza.kalfane/Workspaces/Daisy/DaisyExamples/libDaisy/src/per/adc.h ****         OVS_8,    /**< & */
  99:/Users/reza.kalfane/Workspaces/Daisy/DaisyExamples/libDaisy/src/per/adc.h ****         OVS_16,   /**< & */
 100:/Users/reza.kalfane/Workspaces/Daisy/DaisyExamples/libDaisy/src/per/adc.h ****         OVS_32,   /**< & */
 101:/Users/reza.kalfane/Workspaces/Daisy/DaisyExamples/libDaisy/src/per/adc.h ****         OVS_64,   /**< & */
 102:/Users/reza.kalfane/Workspaces/Daisy/DaisyExamples/libDaisy/src/per/adc.h ****         OVS_128,  /**< & */
 103:/Users/reza.kalfane/Workspaces/Daisy/DaisyExamples/libDaisy/src/per/adc.h ****         OVS_256,  /**< & */
 104:/Users/reza.kalfane/Workspaces/Daisy/DaisyExamples/libDaisy/src/per/adc.h ****         OVS_512,  /**< & */
 105:/Users/reza.kalfane/Workspaces/Daisy/DaisyExamples/libDaisy/src/per/adc.h ****         OVS_1024, /**< & */
 106:/Users/reza.kalfane/Workspaces/Daisy/DaisyExamples/libDaisy/src/per/adc.h ****         OVS_LAST, /**< & */
 107:/Users/reza.kalfane/Workspaces/Daisy/DaisyExamples/libDaisy/src/per/adc.h ****     };
 108:/Users/reza.kalfane/Workspaces/Daisy/DaisyExamples/libDaisy/src/per/adc.h **** 
 109:/Users/reza.kalfane/Workspaces/Daisy/DaisyExamples/libDaisy/src/per/adc.h ****     AdcHandle() {}
 110:/Users/reza.kalfane/Workspaces/Daisy/DaisyExamples/libDaisy/src/per/adc.h ****     ~AdcHandle() {}
  50              		.loc 4 110 5 is_stmt 1 view .LVU5
  51              		.loc 4 110 5 is_stmt 0 view .LVU6
  52              	.LBE324:
  53              	.LBB325:
  54              	.LBI325:
  55              		.file 5 "/Users/reza.kalfane/Workspaces/Daisy/DaisyExamples/libDaisy/src/hid/audio.h"
   1:/Users/reza.kalfane/Workspaces/Daisy/DaisyExamples/libDaisy/src/hid/audio.h **** #ifndef DSY_AUDIO_H
   2:/Users/reza.kalfane/Workspaces/Daisy/DaisyExamples/libDaisy/src/hid/audio.h **** #define DSY_AUDIO_H /**< & */
   3:/Users/reza.kalfane/Workspaces/Daisy/DaisyExamples/libDaisy/src/hid/audio.h **** 
   4:/Users/reza.kalfane/Workspaces/Daisy/DaisyExamples/libDaisy/src/hid/audio.h **** #include "per/sai.h"
   5:/Users/reza.kalfane/Workspaces/Daisy/DaisyExamples/libDaisy/src/hid/audio.h **** 
   6:/Users/reza.kalfane/Workspaces/Daisy/DaisyExamples/libDaisy/src/hid/audio.h **** namespace daisy
   7:/Users/reza.kalfane/Workspaces/Daisy/DaisyExamples/libDaisy/src/hid/audio.h **** {
   8:/Users/reza.kalfane/Workspaces/Daisy/DaisyExamples/libDaisy/src/hid/audio.h **** /** @brief Audio Engine Handle
   9:/Users/reza.kalfane/Workspaces/Daisy/DaisyExamples/libDaisy/src/hid/audio.h ****  *  @ingroup audio 
  10:/Users/reza.kalfane/Workspaces/Daisy/DaisyExamples/libDaisy/src/hid/audio.h ****  *  @details This class allows for higher level access to an audio engine.
  11:/Users/reza.kalfane/Workspaces/Daisy/DaisyExamples/libDaisy/src/hid/audio.h ****  *           If you're using a SOM like the DaisySeed or DaisyPatchSM (or any 
  12:/Users/reza.kalfane/Workspaces/Daisy/DaisyExamples/libDaisy/src/hid/audio.h ****  *            board that includes one of those objects) then the intialization
  13:/Users/reza.kalfane/Workspaces/Daisy/DaisyExamples/libDaisy/src/hid/audio.h ****  *            is already taken  care of.
  14:/Users/reza.kalfane/Workspaces/Daisy/DaisyExamples/libDaisy/src/hid/audio.h ****  *           If you're setting up your own custom hardware, or need to make changes
  15:/Users/reza.kalfane/Workspaces/Daisy/DaisyExamples/libDaisy/src/hid/audio.h ****  *           you will have to take the following steps:
  16:/Users/reza.kalfane/Workspaces/Daisy/DaisyExamples/libDaisy/src/hid/audio.h ****  *             1. Create and Initialize an SaiHandle or two depending on your requirements
  17:/Users/reza.kalfane/Workspaces/Daisy/DaisyExamples/libDaisy/src/hid/audio.h ****  *             2. Initialize the Audio Handle with the desired settings and the Initialized SaiHand
ARM GAS  /tmp/claude-502/ccry90Vn.s 			page 7


  18:/Users/reza.kalfane/Workspaces/Daisy/DaisyExamples/libDaisy/src/hid/audio.h ****  *             3. If the connected codec requires special configuration or initialization, do so
  19:/Users/reza.kalfane/Workspaces/Daisy/DaisyExamples/libDaisy/src/hid/audio.h ****  *             4. Write a callback method using either the AudioCallback or the InterleavingAudioCa
  20:/Users/reza.kalfane/Workspaces/Daisy/DaisyExamples/libDaisy/src/hid/audio.h ****  *             5. Start the Audio using one of the StartAudio function
  21:/Users/reza.kalfane/Workspaces/Daisy/DaisyExamples/libDaisy/src/hid/audio.h ****  */
  22:/Users/reza.kalfane/Workspaces/Daisy/DaisyExamples/libDaisy/src/hid/audio.h **** class AudioHandle
  23:/Users/reza.kalfane/Workspaces/Daisy/DaisyExamples/libDaisy/src/hid/audio.h **** {
  24:/Users/reza.kalfane/Workspaces/Daisy/DaisyExamples/libDaisy/src/hid/audio.h ****   public:
  25:/Users/reza.kalfane/Workspaces/Daisy/DaisyExamples/libDaisy/src/hid/audio.h ****     /** Manually configurable details about the Audio Engine */
  26:/Users/reza.kalfane/Workspaces/Daisy/DaisyExamples/libDaisy/src/hid/audio.h ****     /** TODO: Figure out how to get samplerate in here. */
  27:/Users/reza.kalfane/Workspaces/Daisy/DaisyExamples/libDaisy/src/hid/audio.h ****     struct Config
  28:/Users/reza.kalfane/Workspaces/Daisy/DaisyExamples/libDaisy/src/hid/audio.h ****     {
  29:/Users/reza.kalfane/Workspaces/Daisy/DaisyExamples/libDaisy/src/hid/audio.h ****         /** number of samples to process per callback */
  30:/Users/reza.kalfane/Workspaces/Daisy/DaisyExamples/libDaisy/src/hid/audio.h ****         size_t blocksize;
  31:/Users/reza.kalfane/Workspaces/Daisy/DaisyExamples/libDaisy/src/hid/audio.h **** 
  32:/Users/reza.kalfane/Workspaces/Daisy/DaisyExamples/libDaisy/src/hid/audio.h ****         /**< Sample rate of audio */
  33:/Users/reza.kalfane/Workspaces/Daisy/DaisyExamples/libDaisy/src/hid/audio.h ****         SaiHandle::Config::SampleRate samplerate;
  34:/Users/reza.kalfane/Workspaces/Daisy/DaisyExamples/libDaisy/src/hid/audio.h **** 
  35:/Users/reza.kalfane/Workspaces/Daisy/DaisyExamples/libDaisy/src/hid/audio.h ****         /** factor for adjustment before and after callback for hardware that may have extra headro
  36:/Users/reza.kalfane/Workspaces/Daisy/DaisyExamples/libDaisy/src/hid/audio.h ****         float postgain;
  37:/Users/reza.kalfane/Workspaces/Daisy/DaisyExamples/libDaisy/src/hid/audio.h **** 
  38:/Users/reza.kalfane/Workspaces/Daisy/DaisyExamples/libDaisy/src/hid/audio.h ****         /** factor for additional one-sided compensation to audio path for hardware that may
  39:/Users/reza.kalfane/Workspaces/Daisy/DaisyExamples/libDaisy/src/hid/audio.h ****          *  have unequal input/output ranges
  40:/Users/reza.kalfane/Workspaces/Daisy/DaisyExamples/libDaisy/src/hid/audio.h ****          */
  41:/Users/reza.kalfane/Workspaces/Daisy/DaisyExamples/libDaisy/src/hid/audio.h ****         float output_compensation;
  42:/Users/reza.kalfane/Workspaces/Daisy/DaisyExamples/libDaisy/src/hid/audio.h **** 
  43:/Users/reza.kalfane/Workspaces/Daisy/DaisyExamples/libDaisy/src/hid/audio.h ****         /** Sets default values for config struct */
  44:/Users/reza.kalfane/Workspaces/Daisy/DaisyExamples/libDaisy/src/hid/audio.h ****         Config()
  45:/Users/reza.kalfane/Workspaces/Daisy/DaisyExamples/libDaisy/src/hid/audio.h ****         : blocksize(48),
  46:/Users/reza.kalfane/Workspaces/Daisy/DaisyExamples/libDaisy/src/hid/audio.h ****           samplerate(SaiHandle::Config::SampleRate::SAI_48KHZ),
  47:/Users/reza.kalfane/Workspaces/Daisy/DaisyExamples/libDaisy/src/hid/audio.h ****           postgain(1.f),
  48:/Users/reza.kalfane/Workspaces/Daisy/DaisyExamples/libDaisy/src/hid/audio.h ****           output_compensation(1.f)
  49:/Users/reza.kalfane/Workspaces/Daisy/DaisyExamples/libDaisy/src/hid/audio.h ****         {
  50:/Users/reza.kalfane/Workspaces/Daisy/DaisyExamples/libDaisy/src/hid/audio.h ****         }
  51:/Users/reza.kalfane/Workspaces/Daisy/DaisyExamples/libDaisy/src/hid/audio.h ****     };
  52:/Users/reza.kalfane/Workspaces/Daisy/DaisyExamples/libDaisy/src/hid/audio.h **** 
  53:/Users/reza.kalfane/Workspaces/Daisy/DaisyExamples/libDaisy/src/hid/audio.h ****     enum class Result
  54:/Users/reza.kalfane/Workspaces/Daisy/DaisyExamples/libDaisy/src/hid/audio.h ****     {
  55:/Users/reza.kalfane/Workspaces/Daisy/DaisyExamples/libDaisy/src/hid/audio.h ****         OK,
  56:/Users/reza.kalfane/Workspaces/Daisy/DaisyExamples/libDaisy/src/hid/audio.h ****         ERR,
  57:/Users/reza.kalfane/Workspaces/Daisy/DaisyExamples/libDaisy/src/hid/audio.h ****     };
  58:/Users/reza.kalfane/Workspaces/Daisy/DaisyExamples/libDaisy/src/hid/audio.h **** 
  59:/Users/reza.kalfane/Workspaces/Daisy/DaisyExamples/libDaisy/src/hid/audio.h ****     /** Non-Interleaving input buffer
  60:/Users/reza.kalfane/Workspaces/Daisy/DaisyExamples/libDaisy/src/hid/audio.h ****      * Buffer arranged by float[chn][sample] 
  61:/Users/reza.kalfane/Workspaces/Daisy/DaisyExamples/libDaisy/src/hid/audio.h ****      * const so that the user can't modify the input
  62:/Users/reza.kalfane/Workspaces/Daisy/DaisyExamples/libDaisy/src/hid/audio.h ****      */
  63:/Users/reza.kalfane/Workspaces/Daisy/DaisyExamples/libDaisy/src/hid/audio.h ****     typedef const float* const* InputBuffer;
  64:/Users/reza.kalfane/Workspaces/Daisy/DaisyExamples/libDaisy/src/hid/audio.h **** 
  65:/Users/reza.kalfane/Workspaces/Daisy/DaisyExamples/libDaisy/src/hid/audio.h ****     /** Non-Interleaving output buffer
  66:/Users/reza.kalfane/Workspaces/Daisy/DaisyExamples/libDaisy/src/hid/audio.h ****      * Arranged by float[chn][sample] 
  67:/Users/reza.kalfane/Workspaces/Daisy/DaisyExamples/libDaisy/src/hid/audio.h ****      */
  68:/Users/reza.kalfane/Workspaces/Daisy/DaisyExamples/libDaisy/src/hid/audio.h ****     typedef float** OutputBuffer;
  69:/Users/reza.kalfane/Workspaces/Daisy/DaisyExamples/libDaisy/src/hid/audio.h **** 
  70:/Users/reza.kalfane/Workspaces/Daisy/DaisyExamples/libDaisy/src/hid/audio.h ****     /** Type for a Non-Interleaving audio callback 
  71:/Users/reza.kalfane/Workspaces/Daisy/DaisyExamples/libDaisy/src/hid/audio.h ****      * Non-Interleaving audio callbacks in daisy will be of this type
  72:/Users/reza.kalfane/Workspaces/Daisy/DaisyExamples/libDaisy/src/hid/audio.h ****      */
  73:/Users/reza.kalfane/Workspaces/Daisy/DaisyExamples/libDaisy/src/hid/audio.h ****     typedef void (*AudioCallback)(InputBuffer  in,
  74:/Users/reza.kalfane/Workspaces/Daisy/DaisyExamples/libDaisy/src/hid/audio.h ****                                   OutputBuffer out,
ARM GAS  /tmp/claude-502/ccry90Vn.s 			page 8


  75:/Users/reza.kalfane/Workspaces/Daisy/DaisyExamples/libDaisy/src/hid/audio.h ****                                   size_t       size);
  76:/Users/reza.kalfane/Workspaces/Daisy/DaisyExamples/libDaisy/src/hid/audio.h **** 
  77:/Users/reza.kalfane/Workspaces/Daisy/DaisyExamples/libDaisy/src/hid/audio.h ****     /** Interleaving Input buffer
  78:/Users/reza.kalfane/Workspaces/Daisy/DaisyExamples/libDaisy/src/hid/audio.h ****      ** audio is prepared as { L0, R0, L1, R1, . . . LN, RN }]
  79:/Users/reza.kalfane/Workspaces/Daisy/DaisyExamples/libDaisy/src/hid/audio.h ****      ** this is const, as the user shouldn't modify it
  80:/Users/reza.kalfane/Workspaces/Daisy/DaisyExamples/libDaisy/src/hid/audio.h ****     */
  81:/Users/reza.kalfane/Workspaces/Daisy/DaisyExamples/libDaisy/src/hid/audio.h ****     typedef const float* InterleavingInputBuffer;
  82:/Users/reza.kalfane/Workspaces/Daisy/DaisyExamples/libDaisy/src/hid/audio.h **** 
  83:/Users/reza.kalfane/Workspaces/Daisy/DaisyExamples/libDaisy/src/hid/audio.h ****     /** Interleaving Output buffer 
  84:/Users/reza.kalfane/Workspaces/Daisy/DaisyExamples/libDaisy/src/hid/audio.h ****      ** audio is prepared as { L0, R0, L1, R1, . . . LN, RN }
  85:/Users/reza.kalfane/Workspaces/Daisy/DaisyExamples/libDaisy/src/hid/audio.h ****     */
  86:/Users/reza.kalfane/Workspaces/Daisy/DaisyExamples/libDaisy/src/hid/audio.h ****     typedef float* InterleavingOutputBuffer;
  87:/Users/reza.kalfane/Workspaces/Daisy/DaisyExamples/libDaisy/src/hid/audio.h **** 
  88:/Users/reza.kalfane/Workspaces/Daisy/DaisyExamples/libDaisy/src/hid/audio.h ****     /** Interleaving Audio Callback 
  89:/Users/reza.kalfane/Workspaces/Daisy/DaisyExamples/libDaisy/src/hid/audio.h ****      * Interleaving audio callbacks in daisy must be of this type
  90:/Users/reza.kalfane/Workspaces/Daisy/DaisyExamples/libDaisy/src/hid/audio.h ****      */
  91:/Users/reza.kalfane/Workspaces/Daisy/DaisyExamples/libDaisy/src/hid/audio.h ****     typedef void (*InterleavingAudioCallback)(InterleavingInputBuffer  in,
  92:/Users/reza.kalfane/Workspaces/Daisy/DaisyExamples/libDaisy/src/hid/audio.h ****                                               InterleavingOutputBuffer out,
  93:/Users/reza.kalfane/Workspaces/Daisy/DaisyExamples/libDaisy/src/hid/audio.h ****                                               size_t                   size);
  94:/Users/reza.kalfane/Workspaces/Daisy/DaisyExamples/libDaisy/src/hid/audio.h **** 
  95:/Users/reza.kalfane/Workspaces/Daisy/DaisyExamples/libDaisy/src/hid/audio.h ****     AudioHandle() : pimpl_(nullptr) {}
  96:/Users/reza.kalfane/Workspaces/Daisy/DaisyExamples/libDaisy/src/hid/audio.h ****     ~AudioHandle() {}
  56              		.loc 5 96 5 is_stmt 1 view .LVU7
  57              		.loc 5 96 5 is_stmt 0 view .LVU8
  58              	.LBE325:
  59              		.loc 1 22 19 view .LVU9
  60 0000 7047     		bx	lr
  61              		.cfi_endproc
  62              	.LFE2556:
  64              		.weak	_ZN5daisy9DaisySeedD1Ev
  65              		.thumb_set _ZN5daisy9DaisySeedD1Ev,_ZN5daisy9DaisySeedD2Ev
  66 0002 00BF     		.section	.text._Z13AudioCallbackPKPKfPPfj,"ax",%progbits
  67              		.align	1
  68              		.p2align 2,,3
  69              		.global	_Z13AudioCallbackPKPKfPPfj
  70              		.syntax unified
  71              		.thumb
  72              		.thumb_func
  74              	_Z13AudioCallbackPKPKfPPfj:
  75              	.LVL1:
  76              	.LFB2590:
  77              		.file 6 "src/main.cpp"
   1:src/main.cpp  **** /**
   2:src/main.cpp  ****  * mpr121_synth.cpp ŌĆö Glass Touch Moog Synth
   3:src/main.cpp  ****  * Daisy Seed ŌĆö Bit-Bang I2C  SDA=D12  SCL=D11
   4:src/main.cpp  ****  *
   5:src/main.cpp  ****  * FINGER 1:
   6:src/main.cpp  ****  *   Position  ŌåÆ Pitch (quantized on touch-down, continuous slide after)
   7:src/main.cpp  ****  *   Pressure  ŌåÆ Filter cutoff (light=dark/closed, hard=bright/open)
   8:src/main.cpp  ****  *               + Vibrato depth (press harder for more wobble)
   9:src/main.cpp  ****  *
  10:src/main.cpp  ****  * FINGER 2:
  11:src/main.cpp  ****  *   Position  ŌåÆ Oscillator detune (spread between osc1 and osc2)
  12:src/main.cpp  ****  *   Pressure  ŌåÆ Wavefold distortion (gentle saturation to complex fold)
  13:src/main.cpp  ****  *               + Ring mod amount (extreme pressure adds metallic edge)
  14:src/main.cpp  ****  *
  15:src/main.cpp  ****  * EXPRESSION:
ARM GAS  /tmp/claude-502/ccry90Vn.s 			page 9


  16:src/main.cpp  ****  *   - Note quantize on initial touch, then free pitch bend on slide
  17:src/main.cpp  ****  *   - Pressure-controlled vibrato (LFO depth from finger 1 pressure)
  18:src/main.cpp  ****  *   - Portamento / glide between quantized notes
  19:src/main.cpp  ****  *   - Sub oscillator one octave below (adds weight)
  20:src/main.cpp  ****  *   - Soft-clip waveshaper before output
  21:src/main.cpp  ****  *   - Amplitude envelope: fast attack, pressure-controlled release
  22:src/main.cpp  ****  */
  23:src/main.cpp  **** 
  24:src/main.cpp  **** #include "daisy_seed.h"
  25:src/main.cpp  **** #include <math.h>
  26:src/main.cpp  **** #include <string.h>
  27:src/main.cpp  **** 
  28:src/main.cpp  **** using namespace daisy;
  29:src/main.cpp  **** using namespace daisy::seed;
  30:src/main.cpp  **** 
  31:src/main.cpp  **** // ŌöĆŌöĆ Pin / I2C config ŌöĆŌöĆŌöĆŌöĆŌöĆŌöĆŌöĆŌöĆŌöĆŌöĆŌöĆŌöĆŌöĆŌöĆŌöĆŌöĆŌöĆŌöĆŌöĆŌöĆŌöĆŌöĆŌöĆŌöĆ
  32:src/main.cpp  **** static constexpr Pin      SDA_PIN  = D12;
  33:src/main.cpp  **** static constexpr Pin      SCL_PIN  = D11;
  34:src/main.cpp  **** static constexpr uint8_t  MPR_ADDR = 0x5A;
  35:src/main.cpp  **** static constexpr uint32_t HP       = 5;
  36:src/main.cpp  **** static constexpr int      N_CH     = 12;
  37:src/main.cpp  **** 
  38:src/main.cpp  **** // ŌöĆŌöĆ Touch tuning ŌöĆŌöĆŌöĆŌöĆŌöĆŌöĆŌöĆŌöĆŌöĆŌöĆŌöĆŌöĆŌöĆŌöĆŌöĆŌöĆŌöĆŌöĆŌöĆŌöĆŌöĆŌöĆŌöĆŌöĆŌöĆŌ
  39:src/main.cpp  **** static constexpr int32_t  TOUCH_THRESHOLD    = 10;
  40:src/main.cpp  **** static constexpr int32_t  PRESSURE_MAX_REF[12] = {
  41:src/main.cpp  ****     42,35,34,34,34,34,
  42:src/main.cpp  ****     34,34,33,32,29,30
  43:src/main.cpp  **** };
  44:src/main.cpp  **** static constexpr int32_t  MIN_FINGER_SEP     = 4;
  45:src/main.cpp  **** static constexpr uint32_t REBASELINE_IDLE_MS = 2000;
  46:src/main.cpp  **** static constexpr int      REBASELINE_SAMPLES = 32;
  47:src/main.cpp  **** static constexpr int32_t  MAX_POS_JUMP       = 200;
  48:src/main.cpp  **** 
  49:src/main.cpp  **** // LED slew at ~60Hz touch loop. Closer to 1.0 = smoother/slower fade.
  50:src/main.cpp  **** // 0.0 = no smoothing (snap), 0.7 = ~80ms fade, 0.9 = ~250ms fade.
  51:src/main.cpp  **** static constexpr float    LED_SMOOTH         = 0.45f;
  52:src/main.cpp  **** // LED3 (software sigma-delta PWM on A0 / ADC0 / pin 22) max-brightness scale.
  53:src/main.cpp  **** static constexpr float    LED3_INTENSITY     = 0.1f;
  54:src/main.cpp  **** // Smoothing coefficient used for LED3 only when no finger is touching. Smaller
  55:src/main.cpp  **** // than LED_SMOOTH = faster fade-out on lift. 0.0 = instant snap to 0.
  56:src/main.cpp  **** static constexpr float    LED3_RELEASE_SMOOTH = 0.10f;
  57:src/main.cpp  **** 
  58:src/main.cpp  **** // ŌöĆŌöĆ Voices ŌöĆŌöĆŌöĆŌöĆŌöĆŌöĆŌöĆŌöĆŌöĆŌöĆŌöĆŌöĆŌöĆŌöĆŌöĆŌöĆŌöĆŌöĆŌöĆŌöĆŌöĆŌöĆŌöĆŌöĆŌöĆŌöĆŌöĆŌ
  59:src/main.cpp  **** // A "Voice" bundles everything that defines a sound: the oscillator stack
  60:src/main.cpp  **** // (which pitches sound and at what level), the filter/drive character, and the
  61:src/main.cpp  **** // pitch range finger-1 sweeps across. Presets live in the VOICES[] bank below;
  62:src/main.cpp  **** // the active one is `g_voice_idx`, which the FSR-hold gesture cycles live. The
  63:src/main.cpp  **** // audio callback snapshots it once per block.
  64:src/main.cpp  **** 
  65:src/main.cpp  **** // Oscillator shape ŌĆö set per oscillator, so one voice can mix (e.g. saw root +
  66:src/main.cpp  **** // square fifth + sine sub). SQUARE and SAW are naive (not band-limited) ŌĆö they
  67:src/main.cpp  **** // alias at high pitch, but on a low bass voice that just reads as rich harmonics
  68:src/main.cpp  **** // for the filter to chew.
  69:src/main.cpp  **** enum Waveform { WAVE_TRI, WAVE_SINE, WAVE_SQUARE, WAVE_SAW };
  70:src/main.cpp  **** 
  71:src/main.cpp  **** struct Voice {
  72:src/main.cpp  ****     const char* name;
ARM GAS  /tmp/claude-502/ccry90Vn.s 			page 10


  73:src/main.cpp  **** 
  74:src/main.cpp  ****     // Pitch range. Finger-1 position 0ŌĆō1000 maps exponentially across this.
  75:src/main.cpp  ****     float freq_low;
  76:src/main.cpp  ****     float freq_high;
  77:src/main.cpp  ****     float log_freq_ratio;   // = ln(freq_high / freq_low), precomputed (logf isn't constexpr)
  78:src/main.cpp  **** 
  79:src/main.cpp  ****     // Oscillator stack. Each oscillator's pitch = fundamental * ratio, and each
  80:src/main.cpp  ****     // has its own waveform. Set a level to 0 to silence an oscillator.
  81:src/main.cpp  ****     float osc1_ratio, osc1_level;  Waveform osc1_wave;   // primary
  82:src/main.cpp  ****     float osc2_ratio, osc2_level;  Waveform osc2_wave;   // second osc (see osc2_detune)
  83:src/main.cpp  ****     float sub_ratio,  sub_level;   Waveform sub_wave;    // weight below
  84:src/main.cpp  ****     float oct_ratio,  oct_level;   Waveform oct_wave;    // shimmer / chord top
  85:src/main.cpp  ****     bool  osc2_detune;              // true  ŌåÆ finger-2 detune controls osc2 pitch (lead)
  86:src/main.cpp  ****                                     // false ŌåÆ osc2 stays at osc2_ratio (e.g. a fixed 5th)
  87:src/main.cpp  **** 
  88:src/main.cpp  ****     // Filter character. Base cutoff = freq * cutoff_mult; pressure opens it
  89:src/main.cpp  ****     // by up to cutoff_oct_max octaves on top.
  90:src/main.cpp  ****     float cutoff_mult;
  91:src/main.cpp  ****     float cutoff_oct_max;
  92:src/main.cpp  ****     float resonance;
  93:src/main.cpp  **** 
  94:src/main.cpp  ****     // Drive ŌĆö pressure-controlled waveshaper gain added on top of 1.0.
  95:src/main.cpp  ****     float drive_max;
  96:src/main.cpp  **** 
  97:src/main.cpp  ****     // ŌöĆŌöĆ Extras (appended so existing field order stays stable) ŌöĆŌöĆŌöĆŌöĆŌöĆŌöĆŌöĆŌöĆŌöĆŌöĆ
  98:src/main.cpp  ****     float noise_level;     // white noise mixed into the oscillator stack (0 = none)
  99:src/main.cpp  ****     float keytrack;        // 0..1 ŌĆö how much the cutoff follows pitch (1 = full)
 100:src/main.cpp  ****     float ringmod_ratio;   // ring-mod carrier pitch ratio (1.0 = unison; non-int = bell/metallic)
 101:src/main.cpp  ****     float ringmod_max;     // max ring-mod wet from finger-2 pressure
 102:src/main.cpp  ****     float fold_max;        // max wavefold amount from finger-2 pressure
 103:src/main.cpp  ****     float attack_ms;       // amp envelope attack time
 104:src/main.cpp  ****     float release_ms;      // amp envelope + filter-close release time
 105:src/main.cpp  ****     float glide_ms;        // portamento (pitch glide) time
 106:src/main.cpp  **** 
 107:src/main.cpp  ****     // Pitch envelope ŌĆö a fast downward pitch sweep at note onset (kick "boom",
 108:src/main.cpp  ****     // zap, tom thump). Left at 0 (the default for voices that omit them) = off.
 109:src/main.cpp  ****     float pitch_env_oct;   // octaves the pitch starts ABOVE the note at onset (0 = none)
 110:src/main.cpp  ****     float pitch_env_ms;    // time the pitch sweep takes to settle to the note
 111:src/main.cpp  **** 
 112:src/main.cpp  ****     // Noise tone: 0 = full white noise ("shhh"), 1 = high-passed/bright ("tsss",
 113:src/main.cpp  ****     // for hi-hats/cymbals). Default 0 leaves the noise white. See NOISE_HP_COEF.
 114:src/main.cpp  ****     float noise_hp;
 115:src/main.cpp  **** };
 116:src/main.cpp  **** 
 117:src/main.cpp  **** // Perfect-fifth frequency ratio = 2^(7/12).
 118:src/main.cpp  **** static constexpr float RATIO_FIFTH = 1.49831f;
 119:src/main.cpp  **** 
 120:src/main.cpp  **** // ŌöĆŌöĆ Voice 0: the original glass-Moog lead ŌöĆŌöĆŌöĆŌöĆŌöĆŌöĆŌöĆŌöĆŌöĆŌöĆŌöĆŌöĆŌöĆŌöĆŌöĆŌöĆŌöĆ
 121:src/main.cpp  **** //   F1 posŌåÆpitch, F1 prsŌåÆcutoff+vibrato; F2 posŌåÆdetune, F2 prsŌåÆwavefold+ringmod.
 122:src/main.cpp  **** static constexpr Voice VOICE_LEAD = {
 123:src/main.cpp  ****     "Lead",
 124:src/main.cpp  ****     50.0f, 300.0f, 1.79176f,   // 50ŌĆō300 Hz, ln(6)
 125:src/main.cpp  ****     1.0f, 0.50f, WAVE_TRI,   // osc1  ŌĆö root
 126:src/main.cpp  ****     1.0f, 0.22f, WAVE_TRI,   // osc2  ŌĆö detune-controlled, ratio is just the base
 127:src/main.cpp  ****     0.5f, 0.18f, WAVE_TRI,   // sub   ŌĆö one octave below
 128:src/main.cpp  ****     2.0f, 0.15f, WAVE_TRI,   // oct   ŌĆö one octave above
 129:src/main.cpp  ****     true,          // osc2 follows finger-2 detune
ARM GAS  /tmp/claude-502/ccry90Vn.s 			page 11


 130:src/main.cpp  ****     0.3f, 12.0f, 0.75f,
 131:src/main.cpp  ****     2.5f,
 132:src/main.cpp  ****     // noise, keytrack, rm_ratio, rm_max, fold_max, attack, release, glide (ms)
 133:src/main.cpp  ****     0.0f, 1.0f, 1.0f, 0.15f, 0.18f, 4.0f, 400.0f, 40.0f
 134:src/main.cpp  **** };
 135:src/main.cpp  **** 
 136:src/main.cpp  **** // ŌöĆŌöĆ Voice 1: round & dark power-chord bass (root + 5th + octave + sub) ŌöĆŌöĆŌöĆŌöĆŌöĆŌöĆŌöĆŌ
 137:src/main.cpp  **** //   Same touch mappings, but osc2 is a fixed perfect fifth instead of a detune,
 138:src/main.cpp  **** //   so every note sounds as a power chord. Lower range, gentler filter, less
 139:src/main.cpp  **** //   drive ŌåÆ deep and round rather than bright and screaming.
 140:src/main.cpp  **** static constexpr Voice VOICE_BASS = {
 141:src/main.cpp  ****     "Bass",
 142:src/main.cpp  ****     40.0f, 160.0f, 1.38629f,   // 40ŌĆō160 Hz, ln(4) ŌĆö sits under the lead
 143:src/main.cpp  ****     1.0f,        0.45f, WAVE_TRI,   // osc1  ŌĆö root
 144:src/main.cpp  ****     RATIO_FIFTH, 0.30f, WAVE_TRI,   // osc2  ŌĆö fixed perfect fifth (the power chord)
 145:src/main.cpp  ****     0.5f,        0.34f, WAVE_TRI,   // sub   ŌĆö extra weight for a round bottom
 146:src/main.cpp  ****     2.0f,        0.20f, WAVE_TRI,   // oct   ŌĆö top of the power chord
 147:src/main.cpp  ****     false,                // osc2 is a fixed fifth, not finger-2 detune
 148:src/main.cpp  ****     0.25f, 7.0f, 0.50f,   // darker: lower base cutoff, gentler sweep, less resonance
 149:src/main.cpp  ****     1.0f,                 // less drive ŌĆö keep it clean and round
 150:src/main.cpp  ****     // noise, keytrack, rm_ratio, rm_max, fold_max, attack, release, glide (ms)
 151:src/main.cpp  ****     0.0f, 1.0f, 1.0f, 0.12f, 0.12f, 6.0f, 300.0f, 25.0f
 152:src/main.cpp  **** };
 153:src/main.cpp  **** 
 154:src/main.cpp  **** // ŌöĆŌöĆ Voice 2: open power-chord bass ŌöĆŌöĆŌöĆŌöĆŌöĆŌöĆŌöĆŌöĆŌöĆŌöĆŌöĆŌöĆŌöĆŌöĆŌöĆŌöĆŌöĆŌöĆŌöĆŌ
 155:src/main.cpp  **** //   Same chord stack as VOICE_BASS, but the filter starts brighter and sweeps
 156:src/main.cpp  **** //   much further with pressure ŌĆö light touch is still warm, hard press opens it
 157:src/main.cpp  **** //   wide. A touch more resonance and drive for presence as it opens.
 158:src/main.cpp  **** static constexpr Voice VOICE_BASS_OPEN = {
 159:src/main.cpp  ****     "OpenBass",
 160:src/main.cpp  ****     40.0f, 180.0f, 1.50408f,   // 40ŌĆō180 Hz, ln(4.5) ŌĆö a little more reach up top
 161:src/main.cpp  ****     1.0f,        0.45f, WAVE_TRI,   // osc1  ŌĆö root
 162:src/main.cpp  ****     RATIO_FIFTH, 0.30f, WAVE_TRI,   // osc2  ŌĆö fixed perfect fifth (the power chord)
 163:src/main.cpp  ****     0.5f,        0.30f, WAVE_TRI,   // sub   ŌĆö slightly less so the openness reads
 164:src/main.cpp  ****     2.0f,        0.22f, WAVE_TRI,   // oct   ŌĆö top of the power chord
 165:src/main.cpp  ****     false,                // osc2 is a fixed fifth, not finger-2 detune
 166:src/main.cpp  ****     0.5f, 10.0f, 0.65f,   // brighter base + wider pressure sweep + more resonance
 167:src/main.cpp  ****     1.8f,                 // more drive ŌĆö grit comes in as you press
 168:src/main.cpp  ****     // noise, keytrack, rm_ratio, rm_max, fold_max, attack, release, glide (ms)
 169:src/main.cpp  ****     0.0f, 1.0f, 1.0f, 0.15f, 0.15f, 5.0f, 350.0f, 25.0f
 170:src/main.cpp  **** };
 171:src/main.cpp  **** 
 172:src/main.cpp  **** // ŌöĆŌöĆ Voice 3: rich power-chord bass with mixed waveforms + huge filter sweep ŌöĆŌöĆŌöĆŌöĆ
 173:src/main.cpp  **** //   Mixed shapes for body: saw root (harmonic-rich), square fifth (hollow), a
 174:src/main.cpp  **** //   clean sine sub (tight low end), saw octave on top. Starts dark, then
 175:src/main.cpp  **** //   pressure opens the cutoff dramatically (13 octaves) with high resonance ŌĆö
 176:src/main.cpp  **** //   a vocal, acid-style "wow" as you press harder.
 177:src/main.cpp  **** static constexpr Voice VOICE_BASS_RICH = {
 178:src/main.cpp  ****     "RichBass",
 179:src/main.cpp  ****     40.0f, 160.0f, 1.38629f,   // 40ŌĆō160 Hz, ln(4)
 180:src/main.cpp  ****     1.0f,        0.40f, WAVE_SAW,    // osc1  ŌĆö saw root (rich harmonics)
 181:src/main.cpp  ****     RATIO_FIFTH, 0.26f, WAVE_SQUARE, // osc2  ŌĆö square fifth (hollow contrast)
 182:src/main.cpp  ****     0.5f,        0.32f, WAVE_SINE,   // sub   ŌĆö clean sine for a tight low end
 183:src/main.cpp  ****     2.0f,        0.18f, WAVE_SAW,    // oct   ŌĆö saw top of the power chord
 184:src/main.cpp  ****     false,                // osc2 is a fixed fifth, not finger-2 detune
 185:src/main.cpp  ****     0.2f, 13.0f, 0.82f,   // dark base + enormous pressure sweep + high resonance
 186:src/main.cpp  ****     2.2f,                 // generous drive ŌĆö grit blooms with pressure
ARM GAS  /tmp/claude-502/ccry90Vn.s 			page 12


 187:src/main.cpp  ****     // noise, keytrack, rm_ratio, rm_max, fold_max, attack, release, glide (ms)
 188:src/main.cpp  ****     0.0f, 1.0f, 1.0f, 0.20f, 0.20f, 3.0f, 250.0f, 18.0f   // snappy + fast acid glide
 189:src/main.cpp  **** };
 190:src/main.cpp  **** 
 191:src/main.cpp  **** // ŌöĆŌöĆ Voice 4: clean sine organ / flute (a melodic, non-bass departure) ŌöĆŌöĆŌöĆŌöĆŌöĆŌöĆŌöĆŌö
 192:src/main.cpp  **** //   Pure sine oscillators stacked like organ drawbars: octave-down body, root,
 193:src/main.cpp  **** //   octave-up air, plus a second osc tuned a hair sharp (1.005├Ś) for a slow,
 194:src/main.cpp  **** //   warm chorus shimmer instead of a chord. Higher register than the basses, a
 195:src/main.cpp  **** //   mostly-open clean filter, and just a touch of drive so pressure adds gentle
 196:src/main.cpp  **** //   harmonic warmth. Sines never alias, so it stays smooth all the way up.
 197:src/main.cpp  **** static constexpr Voice VOICE_ORGAN = {
 198:src/main.cpp  ****     "Organ",
 199:src/main.cpp  ****     65.0f, 520.0f, 2.07944f,   // 65ŌĆō520 Hz, ln(8) ŌĆö a melodic keyboard register
 200:src/main.cpp  ****     1.0f,    0.45f, WAVE_SINE,  // osc1  ŌĆö root (8')
 201:src/main.cpp  ****     1.005f,  0.40f, WAVE_SINE,  // osc2  ŌĆö slightly sharp unison ŌåÆ slow chorus shimmer
 202:src/main.cpp  ****     0.5f,    0.30f, WAVE_SINE,  // sub   ŌĆö octave-down body (16')
 203:src/main.cpp  ****     2.0f,    0.28f, WAVE_SINE,  // oct   ŌĆö octave-up air (4')
 204:src/main.cpp  ****     false,                      // osc2 is a fixed chorus detune, not finger-2 detune
 205:src/main.cpp  ****     2.0f, 5.0f, 0.20f,          // mostly-open clean filter, gentle pressure lift, low res
 206:src/main.cpp  ****     0.8f,                       // light drive ŌĆö pressure adds subtle warmth, stays pure
 207:src/main.cpp  ****     // noise, keytrack, rm_ratio, rm_max, fold_max, attack, release, glide (ms)
 208:src/main.cpp  ****     0.03f, 1.0f, 1.0f, 0.05f, 0.0f, 8.0f, 120.0f, 8.0f   // breath chiff, fast on/off, no glide
 209:src/main.cpp  **** };
 210:src/main.cpp  **** 
 211:src/main.cpp  **** // ŌöĆŌöĆ Voice 5: screaming aggressive lead ŌöĆŌöĆŌöĆŌöĆŌöĆŌöĆŌöĆŌöĆŌöĆŌöĆŌöĆŌöĆŌöĆŌöĆŌöĆŌöĆŌöĆŌöĆ
 212:src/main.cpp  **** //   Detuned sawtooth stack (root + a hair-sharp twin + octave) for a thick,
 213:src/main.cpp  **** //   buzzing supersaw bite, pushed up into a cutting register. Heavy drive and a
 214:src/main.cpp  **** //   very high filter resonance make the cutoff whistle and scream as pressure
 215:src/main.cpp  **** //   sweeps it wide open. Finger-2 pressure piles on ring-mod + wavefold for
 216:src/main.cpp  **** //   extra snarl. Loud and nasty ŌĆö the output soft-clip keeps it from blowing up.
 217:src/main.cpp  **** static constexpr Voice VOICE_SCREAM = {
 218:src/main.cpp  ****     "Scream",
 219:src/main.cpp  ****     90.0f, 720.0f, 2.07944f,   // 90ŌĆō720 Hz, ln(8) ŌĆö high, cutting register
 220:src/main.cpp  ****     1.0f,    0.42f, WAVE_SAW,   // osc1  ŌĆö saw root
 221:src/main.cpp  ****     1.008f,  0.38f, WAVE_SAW,   // osc2  ŌĆö slightly sharp twin ŌåÆ thick beating buzz
 222:src/main.cpp  ****     0.5f,    0.20f, WAVE_SAW,   // sub   ŌĆö a little weight underneath
 223:src/main.cpp  ****     2.0f,    0.30f, WAVE_SAW,   // oct   ŌĆö octave up for bright, cutting scream
 224:src/main.cpp  ****     false,                      // osc2 is a fixed detune, not finger-2 controlled
 225:src/main.cpp  ****     3.0f, 11.0f, 0.90f,         // bright base + wide sweep + near-self-osc resonance
 226:src/main.cpp  ****     4.0f,                       // heavy drive ŌĆö saturated and aggressive
 227:src/main.cpp  ****     // noise, keytrack, rm_ratio, rm_max, fold_max, attack, release, glide (ms)
 228:src/main.cpp  ****     0.05f, 1.0f, 2.5f, 0.40f, 0.30f, 2.0f, 200.0f, 35.0f // hiss + inharmonic metallic ring-mod
 229:src/main.cpp  **** };
 230:src/main.cpp  **** 
 231:src/main.cpp  **** // ŌöĆŌöĆ Voice 6: very closed, dark sub bass ŌöĆŌöĆŌöĆŌöĆŌöĆŌöĆŌöĆŌöĆŌöĆŌöĆŌöĆŌöĆŌöĆŌöĆŌöĆŌöĆŌöĆŌö
 232:src/main.cpp  **** //   The opposite of the scream: a deep, muffled power-chord bass. A clean sine
 233:src/main.cpp  **** //   sub carries the weight under a mellow triangle root; the fifth and octave
 234:src/main.cpp  **** //   are dialed right back. The filter sits down around the fundamental and only
 235:src/main.cpp  **** //   creeps open a couple of octaves at full pressure, so it stays dark and
 236:src/main.cpp  **** //   muted ŌĆö felt more than heard. Low resonance, almost no drive.
 237:src/main.cpp  **** static constexpr Voice VOICE_BASS_CLOSED = {
 238:src/main.cpp  ****     "ClosedBass",
 239:src/main.cpp  ****     35.0f, 140.0f, 1.38629f,   // 35ŌĆō140 Hz, ln(4) ŌĆö deep
 240:src/main.cpp  ****     1.0f,        0.42f, WAVE_TRI,    // osc1  ŌĆö mellow triangle root
 241:src/main.cpp  ****     RATIO_FIFTH, 0.18f, WAVE_TRI,    // osc2  ŌĆö fifth, dialed back
 242:src/main.cpp  ****     0.5f,        0.44f, WAVE_SINE,   // sub   ŌĆö clean sine carries the weight
 243:src/main.cpp  ****     2.0f,        0.10f, WAVE_TRI,    // oct   ŌĆö barely there, keep it dark
ARM GAS  /tmp/claude-502/ccry90Vn.s 			page 13


 244:src/main.cpp  ****     false,                      // osc2 is a fixed fifth, not finger-2 detune
 245:src/main.cpp  ****     1.0f, 2.0f, 0.30f,          // cutoff sits near the fundamental, tiny sweep, low res
 246:src/main.cpp  ****     0.5f,                       // minimal drive ŌĆö stays clean and round
 247:src/main.cpp  ****     // noise, keytrack, rm_ratio, rm_max, fold_max, attack, release, glide (ms)
 248:src/main.cpp  ****     0.0f, 0.6f, 1.0f, 0.0f, 0.0f, 10.0f, 500.0f, 30.0f   // soft, long tail, less keytrack, clean
 249:src/main.cpp  **** };
 250:src/main.cpp  **** 
 251:src/main.cpp  **** // ŌöĆŌöĆ Voice 7: warm ensemble pad ŌöĆŌöĆŌöĆŌöĆŌöĆŌöĆŌöĆŌöĆŌöĆŌöĆŌöĆŌöĆŌöĆŌöĆŌöĆŌöĆŌöĆŌöĆŌöĆŌöĆŌö
 252:src/main.cpp  **** //   A lush, evolving pad. Two saws a hair apart (1.006├Ś) give an ensemble/chorus
 253:src/main.cpp  **** //   width, a soft triangle sub adds body, an airy sine octave sits on top. A
 254:src/main.cpp  **** //   moderate, low-resonance filter keeps it warm rather than bright. The pad
 255:src/main.cpp  **** //   character comes from the envelope: a slow ~500 ms swell in and a long ~2 s
 256:src/main.cpp  **** //   tail, so notes bloom and linger. A whisper of noise adds air.
 257:src/main.cpp  **** static constexpr Voice VOICE_PAD = {
 258:src/main.cpp  ****     "Pad",
 259:src/main.cpp  ****     70.0f, 560.0f, 2.07944f,   // 70ŌĆō560 Hz, ln(8) ŌĆö mid melodic register
 260:src/main.cpp  ****     1.0f,    0.32f, WAVE_SAW,   // osc1  ŌĆö saw root
 261:src/main.cpp  ****     1.006f,  0.30f, WAVE_SAW,   // osc2  ŌĆö detuned saw ŌåÆ lush ensemble width
 262:src/main.cpp  ****     0.5f,    0.22f, WAVE_TRI,   // sub   ŌĆö soft triangle body
 263:src/main.cpp  ****     2.0f,    0.18f, WAVE_SINE,  // oct   ŌĆö airy sine top
 264:src/main.cpp  ****     false,                      // osc2 is a fixed chorus detune, not finger-2
 265:src/main.cpp  ****     1.2f, 3.0f, 0.20f,          // warm & closed: low base cutoff, gentle sweep, low res
 266:src/main.cpp  ****     0.6f,                       // gentle drive ŌĆö stays smooth
 267:src/main.cpp  ****     // noise, keytrack, rm_ratio, rm_max, fold_max, attack, release, glide (ms)
 268:src/main.cpp  ****     0.015f, 1.0f, 1.0f, 0.0f, 0.08f, 2200.0f, 2000.0f, 80.0f   // long swell, long tail
 269:src/main.cpp  **** };
 270:src/main.cpp  **** 
 271:src/main.cpp  **** // ŌöĆŌöĆ Voice 8: tom / percussion (noise-driven) ŌöĆŌöĆŌöĆŌöĆŌöĆŌöĆŌöĆŌöĆŌöĆŌöĆŌöĆŌöĆŌöĆŌöĆŌöĆŌöĆ
 272:src/main.cpp  **** //   A drum, not a sustained note ŌĆö PLAY IT BY TAPPING the glass. Noise over two
 273:src/main.cpp  **** //   low sine modes (body + an inharmonic 1.6├Ś ring) and a little sub thump. An
 274:src/main.cpp  **** //   instant attack and a short ~150 ms release make each tap a percussive hit.
 275:src/main.cpp  **** //   A closed, dark filter keeps it round and muffled (tom, not bright snare);
 276:src/main.cpp  **** //   harder presses open it a touch. Finger-1 position tunes the drum.
 277:src/main.cpp  **** static constexpr Voice VOICE_TOM = {
 278:src/main.cpp  ****     "Tom",
 279:src/main.cpp  ****     40.0f, 400.0f, 2.30259f,    // 40ŌĆō400 Hz, ln(10) ŌĆö finger-1 tunes from kick/tom up
 280:src/main.cpp  ****     1.0f,    0.22f, WAVE_SINE,   // osc1  ŌĆö body (lower mode)
 281:src/main.cpp  ****     1.6f,    0.15f, WAVE_SINE,   // osc2  ŌĆö upper mode (inharmonic ring)
 282:src/main.cpp  ****     0.5f,    0.10f, WAVE_SINE,   // sub   ŌĆö a little thump
 283:src/main.cpp  ****     2.0f,    0.0f,  WAVE_SINE,   // oct   ŌĆö off
 284:src/main.cpp  ****     false,                       // osc2 is a fixed ratio, not finger-2 detune
 285:src/main.cpp  ****     6.0f, 3.0f, 0.30f,           // dark/round tom, opened slightly for a touch more body
 286:src/main.cpp  ****     1.5f,                        // drive ŌĆö snap and saturation on hard hits
 287:src/main.cpp  ****     // noise, keytrack, rm_ratio, rm_max, fold_max, attack, release, glide (ms)
 288:src/main.cpp  ****     0.70f, 0.3f, 1.0f, 0.0f, 0.10f, 1.0f, 150.0f, 5.0f,  // noise-dominant, instant hit, short tail
 289:src/main.cpp  ****     // pitch_env_oct, pitch_env_ms ŌĆö tom "boww": start 1 oct up, drop in 80 ms
 290:src/main.cpp  ****     1.0f, 80.0f
 291:src/main.cpp  **** };
 292:src/main.cpp  **** 
 293:src/main.cpp  **** // ŌöĆŌöĆ Voice 9: kick drum (noise-driven) ŌöĆŌöĆŌöĆŌöĆŌöĆŌöĆŌöĆŌöĆŌöĆŌöĆŌöĆŌöĆŌöĆŌöĆŌöĆŌöĆŌöĆŌöĆŌ
 294:src/main.cpp  **** //   A deep, punchy thud ŌĆö PLAY IT BY TAPPING. A low sine body with a sub-octave
 295:src/main.cpp  **** //   for weight and a quiet octave "click" for beater attack; a whisper of noise
 296:src/main.cpp  **** //   adds beater texture. Very closed dark filter + a little drive keep it round
 297:src/main.cpp  **** //   and punchy. Instant attack, short tail. Finger-1 position tunes the kick.
 298:src/main.cpp  **** //   A pitch envelope (start 2 oct up, drop in 45 ms) gives the classic "boom".
 299:src/main.cpp  **** static constexpr Voice VOICE_KICK = {
 300:src/main.cpp  ****     "Kick",
ARM GAS  /tmp/claude-502/ccry90Vn.s 			page 14


 301:src/main.cpp  ****     30.0f, 80.0f, 0.98083f,     // 30ŌĆō80 Hz, ln(2.67) ŌĆö deep, position tunes the kick
 302:src/main.cpp  ****     1.0f,    0.55f, WAVE_SINE,   // osc1  ŌĆö deep sine body
 303:src/main.cpp  ****     2.0f,    0.10f, WAVE_SINE,   // osc2  ŌĆö octave "click" for attack punch
 304:src/main.cpp  ****     0.5f,    0.15f, WAVE_SINE,   // sub   ŌĆö sub-octave rumble
 305:src/main.cpp  ****     2.0f,    0.0f,  WAVE_SINE,   // oct   ŌĆö off
 306:src/main.cpp  ****     false,                       // osc2 is a fixed ratio, not finger-2 detune
 307:src/main.cpp  ****     3.0f, 2.0f, 0.20f,           // very closed/dark ŌĆö round; tiny pressure sweep
 308:src/main.cpp  ****     1.8f,                        // drive ŌĆö punch and saturation
 309:src/main.cpp  ****     // noise, keytrack, rm_ratio, rm_max, fold_max, attack, release, glide (ms)
 310:src/main.cpp  ****     0.08f, 0.5f, 1.0f, 0.0f, 0.0f, 1.0f, 160.0f, 5.0f,  // soft beater click, instant, short
 311:src/main.cpp  ****     // pitch_env_oct, pitch_env_ms ŌĆö the kick "boom": start 2 oct up, drop in 45 ms
 312:src/main.cpp  ****     2.0f, 45.0f
 313:src/main.cpp  **** };
 314:src/main.cpp  **** 
 315:src/main.cpp  **** // ŌöĆŌöĆ Voice 10: snare (noise-driven) ŌöĆŌöĆŌöĆŌöĆŌöĆŌöĆŌöĆŌöĆŌöĆŌöĆŌöĆŌöĆŌöĆŌöĆŌöĆŌöĆŌöĆŌöĆŌöĆŌ
 316:src/main.cpp  **** //   The bright, noisy cousin of the Tom ŌĆö PLAY IT BY TAPPING. Broadband noise
 317:src/main.cpp  **** //   (the "wires" rattle) dominates over two tonal modes (body + a 1.8├Ś ring); a
 318:src/main.cpp  **** //   wide-open filter keeps it crisp and cracking. Instant attack, short tail,
 319:src/main.cpp  **** //   and a quick subtle pitch snap (0.7 oct in 30 ms) for the hit. Harder presses
 320:src/main.cpp  **** //   open it further. Finger-1 position tunes the drum.
 321:src/main.cpp  **** static constexpr Voice VOICE_SNARE = {
 322:src/main.cpp  ****     "Snare",
 323:src/main.cpp  ****     150.0f, 500.0f, 1.20397f,   // 150ŌĆō500 Hz, ln(3.33) ŌĆö snare tuning range
 324:src/main.cpp  ****     1.0f,    0.18f, WAVE_SINE,   // osc1  ŌĆö body (lower mode)
 325:src/main.cpp  ****     1.8f,    0.14f, WAVE_TRI,    // osc2  ŌĆö upper mode/ring (triangle = more harmonics)
 326:src/main.cpp  ****     0.5f,    0.06f, WAVE_SINE,   // sub   ŌĆö slight body weight
 327:src/main.cpp  ****     2.0f,    0.0f,  WAVE_SINE,   // oct   ŌĆö off
 328:src/main.cpp  ****     false,                       // osc2 is a fixed ratio, not finger-2 detune
 329:src/main.cpp  ****     18.0f, 4.0f, 0.30f,          // wide open & bright ŌĆö the noise rattle cracks through
 330:src/main.cpp  ****     1.5f,                        // drive ŌĆö snap
 331:src/main.cpp  ****     // noise, keytrack, rm_ratio, rm_max, fold_max, attack, release, glide (ms)
 332:src/main.cpp  ****     0.85f, 0.3f, 1.0f, 0.0f, 0.10f, 1.0f, 140.0f, 5.0f,  // noise-dominant rattle, instant, short
 333:src/main.cpp  ****     // pitch_env_oct, pitch_env_ms ŌĆö quick subtle snap
 334:src/main.cpp  ****     0.7f, 30.0f
 335:src/main.cpp  **** };
 336:src/main.cpp  **** 
 337:src/main.cpp  **** // ŌöĆŌöĆ Voice 11: hi-hat (noise-driven) ŌöĆŌöĆŌöĆŌöĆŌöĆŌöĆŌöĆŌöĆŌöĆŌöĆŌöĆŌöĆŌöĆŌöĆŌöĆŌöĆŌöĆŌöĆŌöĆ
 338:src/main.cpp  **** //   A crisp "tss" ŌĆö PLAY IT BY TAPPING. Almost pure high-frequency noise through
 339:src/main.cpp  **** //   a wide-open filter, with three inharmonic square partials for metallic edge
 340:src/main.cpp  **** //   and no low end. Instant attack and a very short ~55 ms tail = a tight closed
 341:src/main.cpp  **** //   hat. Finger-1 position tunes the metallic pitch. (Raise release_ms for an
 342:src/main.cpp  **** //   open-hat feel.)
 343:src/main.cpp  **** static constexpr Voice VOICE_HIHAT = {
 344:src/main.cpp  ****     "HiHat",
 345:src/main.cpp  ****     4000.0f, 11000.0f, 1.01160f, // 4000ŌĆō11000 Hz, ln(2.75) ŌĆö metallic edge pitch
 346:src/main.cpp  ****     1.0f,    0.10f, WAVE_SQUARE,  // osc1  ŌĆö quiet metallic edge (the tss noise leads)
 347:src/main.cpp  ****     1.68f,   0.08f, WAVE_SQUARE,  // osc2  ŌĆö inharmonic metallic partial
 348:src/main.cpp  ****     0.5f,    0.0f,  WAVE_SINE,    // sub   ŌĆö off (no low end on a hat)
 349:src/main.cpp  ****     2.0f,    0.06f, WAVE_SQUARE,  // oct   ŌĆö high partial (2.0├Ś keeps it under Nyquist)
 350:src/main.cpp  ****     false,                        // osc2 is a fixed ratio, not finger-2 detune
 351:src/main.cpp  ****     25.0f, 2.0f, 0.20f,           // wide open
 352:src/main.cpp  ****     1.2f,                         // light drive
 353:src/main.cpp  ****     // noise, keytrack, rm_ratio, rm_max, fold_max, attack, release, glide (ms)
 354:src/main.cpp  ****     0.80f, 0.2f, 1.0f, 0.0f, 0.05f, 1.0f, 160.0f, 3.0f, // noise-led, instant, sizzly tail
 355:src/main.cpp  ****     // pitch_env_oct, pitch_env_ms, noise_hp ŌĆö high-passed bright "tsss"
 356:src/main.cpp  ****     0.0f, 0.0f, 1.0f
 357:src/main.cpp  **** };
ARM GAS  /tmp/claude-502/ccry90Vn.s 			page 15


 358:src/main.cpp  **** 
 359:src/main.cpp  **** // ŌöĆŌöĆ Voice 12: MultiVoice "Drums" ŌöĆŌöĆŌöĆŌöĆŌöĆŌöĆŌöĆŌöĆŌöĆŌöĆŌöĆŌöĆŌöĆŌöĆŌöĆŌöĆŌöĆŌöĆŌöĆŌöĆ
 360:src/main.cpp  **** //   A meta-voice: when selected, the slider splits into 4 equal zones, each
 361:src/main.cpp  **** //   triggering one drum on tap, with the fine position snapping the pitch to an
 362:src/main.cpp  **** //   interval (see MULTI_* below). This struct is just a placeholder so it lives
 363:src/main.cpp  **** //   in the bank / FSR cycle and shows "Drums" in the header ŌĆö the actual audio
 364:src/main.cpp  **** //   per tap comes from the zone's real drum voice (g_active_voice). Kick-like so
 365:src/main.cpp  **** //   it's harmless if briefly active before the first tap.
 366:src/main.cpp  **** static constexpr Voice VOICE_DRUMS = {
 367:src/main.cpp  ****     "Drums",
 368:src/main.cpp  ****     30.0f, 80.0f, 0.98083f,
 369:src/main.cpp  ****     1.0f, 0.55f, WAVE_SINE,  1.0f, 0.0f, WAVE_SINE,
 370:src/main.cpp  ****     0.5f, 0.0f,  WAVE_SINE,  2.0f, 0.0f, WAVE_SINE,
 371:src/main.cpp  ****     false,
 372:src/main.cpp  ****     3.0f, 2.0f, 0.20f,
 373:src/main.cpp  ****     1.0f,
 374:src/main.cpp  ****     0.0f, 0.5f, 1.0f, 0.0f, 0.0f, 1.0f, 160.0f, 5.0f,
 375:src/main.cpp  ****     0.0f, 0.0f, 0.0f
 376:src/main.cpp  **** };
 377:src/main.cpp  **** 
 378:src/main.cpp  **** // ŌöĆŌöĆ Voice bank ŌöĆŌöĆŌöĆŌöĆŌöĆŌöĆŌöĆŌöĆŌöĆŌöĆŌöĆŌöĆŌöĆŌöĆŌöĆŌöĆŌöĆŌöĆŌöĆŌöĆŌöĆŌöĆŌöĆŌöĆŌöĆŌöĆ
 379:src/main.cpp  **** // All voices, in cycle order. Holding the FSR pressed steps through these live
 380:src/main.cpp  **** // (see the voice-switch gesture in the main loop). Edit the order here to taste.
 381:src/main.cpp  **** static constexpr Voice VOICES[] = {
 382:src/main.cpp  ****     VOICE_LEAD,
 383:src/main.cpp  ****     VOICE_BASS,
 384:src/main.cpp  ****     VOICE_BASS_OPEN,
 385:src/main.cpp  ****     VOICE_BASS_RICH,
 386:src/main.cpp  ****     VOICE_ORGAN,
 387:src/main.cpp  ****     VOICE_SCREAM,
 388:src/main.cpp  ****     VOICE_BASS_CLOSED,
 389:src/main.cpp  ****     VOICE_PAD,
 390:src/main.cpp  ****     VOICE_TOM,
 391:src/main.cpp  ****     VOICE_KICK,
 392:src/main.cpp  ****     VOICE_SNARE,
 393:src/main.cpp  ****     VOICE_HIHAT,
 394:src/main.cpp  ****     VOICE_DRUMS,   // MultiVoice ŌĆö must stay last (MULTI_IDX = NUM_VOICES-1)
 395:src/main.cpp  **** };
 396:src/main.cpp  **** static constexpr int NUM_VOICES = (int)(sizeof(VOICES) / sizeof(VOICES[0]));
 397:src/main.cpp  **** 
 398:src/main.cpp  **** // ŌöĆŌöĆ MultiVoice "Drums" config ŌöĆŌöĆŌöĆŌöĆŌöĆŌöĆŌöĆŌöĆŌöĆŌöĆŌöĆŌöĆŌöĆŌöĆŌöĆŌöĆŌöĆŌöĆŌöĆŌöĆŌöĆ
 399:src/main.cpp  **** // MULTI_IDX is the bank slot of VOICE_DRUMS (kept last). When that voice is
 400:src/main.cpp  **** // selected, the slider splits into 4 equal zones mapped to these drum voices
 401:src/main.cpp  **** // (leftŌåÆright), and the fine position within a zone snaps the pitch to one of
 402:src/main.cpp  **** // MULTI_INTERVALS above the drum's base pitch (freq_low).
 403:src/main.cpp  **** static constexpr int   MULTI_IDX        = NUM_VOICES - 1;
 404:src/main.cpp  **** static constexpr int   MULTI_ZONES[4]   = { 9, 10, 8, 11 };  // Kick, Snare, Tom, HiHat (bank indic
 405:src/main.cpp  **** static constexpr float MULTI_INTERVALS[] = { 1.0f, 1.33484f, 1.49831f, 2.0f }; // root, 4th, 5th, o
 406:src/main.cpp  **** static constexpr int   MULTI_NINTERVALS = (int)(sizeof(MULTI_INTERVALS) / sizeof(MULTI_INTERVALS[0]
 407:src/main.cpp  **** 
 408:src/main.cpp  **** // Selected voice index ŌĆö set by the FSR-hold gesture, shown in the header.
 409:src/main.cpp  **** // Change the initial value to pick the boot voice.
 410:src/main.cpp  **** static volatile int g_voice_idx = MULTI_IDX;   // boot into the Drums MultiVoice
 411:src/main.cpp  **** 
 412:src/main.cpp  **** // Active voice index ŌĆö what the audio engine actually plays. Normally tracks
 413:src/main.cpp  **** // g_voice_idx; in MultiVoice mode the touch loop routes it per tap to a drum.
 414:src/main.cpp  **** static volatile int g_active_voice = 9;        // 9 = Kick (a sane default)
ARM GAS  /tmp/claude-502/ccry90Vn.s 			page 16


 415:src/main.cpp  **** 
 416:src/main.cpp  **** // FSR voice-switch gesture: hold the FSR pressed (volume at/near 0) to cycle.
 417:src/main.cpp  **** // First advance after FIRST_MS; while still held, keep advancing every REPEAT_MS.
 418:src/main.cpp  **** static constexpr uint32_t VOICE_SWITCH_FIRST_MS  = 5000;
 419:src/main.cpp  **** static constexpr uint32_t VOICE_SWITCH_REPEAT_MS = 2000;
 420:src/main.cpp  **** 
 421:src/main.cpp  **** // ŌöĆŌöĆ Musical mapping ŌöĆŌöĆŌöĆŌöĆŌöĆŌöĆŌöĆŌöĆŌöĆŌöĆŌöĆŌöĆŌöĆŌöĆŌöĆŌöĆŌöĆŌöĆŌöĆŌöĆŌöĆŌöĆŌöĆŌöĆŌ
 422:src/main.cpp  **** // Set to false to disable all quantization (fully continuous pitch)
 423:src/main.cpp  **** static constexpr bool QUANTIZE_ENABLED = false;
 424:src/main.cpp  **** // Quantize to chromatic scale (all 12 semitones)
 425:src/main.cpp  **** // Change to {0,2,4,5,7,9,11} for major scale, {0,2,3,5,7,8,10} for minor, etc.
 426:src/main.cpp  **** static const int SCALE[] = {0,1,2,3,4,5,6,7,8,9,10,11}; // chromatic
 427:src/main.cpp  **** static constexpr int SCALE_LEN = 12;
 428:src/main.cpp  **** 
 429:src/main.cpp  **** // ŌöĆŌöĆ MPR121 registers ŌöĆŌöĆŌöĆŌöĆŌöĆŌöĆŌöĆŌöĆŌöĆŌöĆŌöĆŌöĆŌöĆŌöĆŌöĆŌöĆŌöĆŌöĆŌöĆŌöĆŌöĆŌöĆŌöĆŌöĆ
 430:src/main.cpp  **** static constexpr uint8_t REG_ELE0_LSB  = 0x04;
 431:src/main.cpp  **** static constexpr uint8_t REG_MHDR=0x2B,REG_NHDR=0x2C,REG_NCLR=0x2D,REG_FDLR=0x2E;
 432:src/main.cpp  **** static constexpr uint8_t REG_MHDF=0x2F,REG_NHDF=0x30,REG_NCLF=0x31,REG_FDLF=0x32;
 433:src/main.cpp  **** static constexpr uint8_t REG_NHDT=0x33,REG_NCLT=0x34,REG_FDLT=0x35;
 434:src/main.cpp  **** static constexpr uint8_t REG_DEBOUNCE=0x5B,REG_CONFIG1=0x5C,REG_CONFIG2=0x5D;
 435:src/main.cpp  **** static constexpr uint8_t REG_ECR=0x5E,REG_SOFTRESET=0x80;
 436:src/main.cpp  **** 
 437:src/main.cpp  **** // ŌöĆŌöĆ Globals ŌöĆŌöĆŌöĆŌöĆŌöĆŌöĆŌöĆŌöĆŌöĆŌöĆŌöĆŌöĆŌöĆŌöĆŌöĆŌöĆŌöĆŌöĆŌöĆŌöĆŌöĆŌöĆŌöĆŌöĆŌöĆŌöĆŌöĆ
 438:src/main.cpp  **** DaisySeed hw;
 439:src/main.cpp  **** GPIO      sda, scl;
 440:src/main.cpp  **** GPIO      led3;  // software-PWM LED on A0 (ADC0 / D15 / pin 22)
 441:src/main.cpp  **** 
 442:src/main.cpp  **** // ŌöĆŌöĆ Bit-bang I2C ŌöĆŌöĆŌöĆŌöĆŌöĆŌöĆŌöĆŌöĆŌöĆŌöĆŌöĆŌöĆŌöĆŌöĆŌöĆŌöĆŌöĆŌöĆŌöĆŌöĆŌöĆŌöĆŌöĆŌöĆŌöĆŌ
 443:src/main.cpp  **** inline void sda_high(){sda.Init(SDA_PIN,GPIO::Mode::INPUT, GPIO::Pull::PULLUP);}
 444:src/main.cpp  **** inline void sda_low() {sda.Init(SDA_PIN,GPIO::Mode::OUTPUT,GPIO::Pull::NOPULL);sda.Write(false);}
 445:src/main.cpp  **** inline void scl_high(){scl.Init(SCL_PIN,GPIO::Mode::INPUT, GPIO::Pull::PULLUP);}
 446:src/main.cpp  **** inline void scl_low() {scl.Init(SCL_PIN,GPIO::Mode::OUTPUT,GPIO::Pull::NOPULL);scl.Write(false);}
 447:src/main.cpp  **** inline void d(){System::DelayUs(HP);}
 448:src/main.cpp  **** 
 449:src/main.cpp  **** void i2c_start(){sda_high();d();scl_high();d();sda_low();d();scl_low();d();}
 450:src/main.cpp  **** void i2c_stop() {sda_low();d();scl_high();d();sda_high();d();}
 451:src/main.cpp  **** 
 452:src/main.cpp  **** bool i2c_write_byte(uint8_t byte)
 453:src/main.cpp  **** {
 454:src/main.cpp  ****     for(int i=7;i>=0;i--){
 455:src/main.cpp  ****         if(byte&(1<<i))sda_high();else sda_low();
 456:src/main.cpp  ****         d();scl_high();d();scl_low();d();
 457:src/main.cpp  ****     }
 458:src/main.cpp  ****     sda_high();d();scl_high();d();
 459:src/main.cpp  ****     bool ack=!sda.Read();
 460:src/main.cpp  ****     scl_low();d();
 461:src/main.cpp  ****     return ack;
 462:src/main.cpp  **** }
 463:src/main.cpp  **** 
 464:src/main.cpp  **** uint8_t i2c_read_byte(bool ack)
 465:src/main.cpp  **** {
 466:src/main.cpp  ****     uint8_t b=0;sda_high();
 467:src/main.cpp  ****     for(int i=7;i>=0;i--){d();scl_high();d();if(sda.Read())b|=(1<<i);scl_low();}
 468:src/main.cpp  ****     if(ack)sda_low();else sda_high();
 469:src/main.cpp  ****     d();scl_high();d();scl_low();d();sda_high();
 470:src/main.cpp  ****     return b;
 471:src/main.cpp  **** }
ARM GAS  /tmp/claude-502/ccry90Vn.s 			page 17


 472:src/main.cpp  **** 
 473:src/main.cpp  **** bool mpr_write(uint8_t reg,uint8_t val)
 474:src/main.cpp  **** {
 475:src/main.cpp  ****     i2c_start();
 476:src/main.cpp  ****     if(!i2c_write_byte((MPR_ADDR<<1)|0)){i2c_stop();return false;}
 477:src/main.cpp  ****     if(!i2c_write_byte(reg))            {i2c_stop();return false;}
 478:src/main.cpp  ****     if(!i2c_write_byte(val))            {i2c_stop();return false;}
 479:src/main.cpp  ****     i2c_stop();return true;
 480:src/main.cpp  **** }
 481:src/main.cpp  **** 
 482:src/main.cpp  **** bool mpr_read(uint8_t reg,uint8_t* buf,uint8_t len)
 483:src/main.cpp  **** {
 484:src/main.cpp  ****     i2c_start();
 485:src/main.cpp  ****     if(!i2c_write_byte((MPR_ADDR<<1)|0)){i2c_stop();return false;}
 486:src/main.cpp  ****     if(!i2c_write_byte(reg))            {i2c_stop();return false;}
 487:src/main.cpp  ****     i2c_start();
 488:src/main.cpp  ****     if(!i2c_write_byte((MPR_ADDR<<1)|1)){i2c_stop();return false;}
 489:src/main.cpp  ****     for(uint8_t i=0;i<len;i++) buf[i]=i2c_read_byte(i<len-1);
 490:src/main.cpp  ****     i2c_stop();return true;
 491:src/main.cpp  **** }
 492:src/main.cpp  **** 
 493:src/main.cpp  **** bool mpr_init()
 494:src/main.cpp  **** {
 495:src/main.cpp  ****     mpr_write(REG_SOFTRESET,0x63);System::Delay(10);
 496:src/main.cpp  ****     mpr_write(REG_ECR,0x00);
 497:src/main.cpp  ****     mpr_write(REG_MHDR,0x01);mpr_write(REG_NHDR,0x01);
 498:src/main.cpp  ****     mpr_write(REG_NCLR,0x10);mpr_write(REG_FDLR,0x20);
 499:src/main.cpp  ****     mpr_write(REG_MHDF,0x01);mpr_write(REG_NHDF,0x01);
 500:src/main.cpp  ****     mpr_write(REG_NCLF,0x10);mpr_write(REG_FDLF,0x20);
 501:src/main.cpp  ****     mpr_write(REG_NHDT,0x00);mpr_write(REG_NCLT,0x00);mpr_write(REG_FDLT,0x00);
 502:src/main.cpp  ****     for(uint8_t ch=0;ch<12;ch++){mpr_write(0x41+ch*2,4);mpr_write(0x42+ch*2,2);}
 503:src/main.cpp  ****     mpr_write(REG_DEBOUNCE,0x11);
 504:src/main.cpp  ****     mpr_write(REG_CONFIG1,0xF0);  // FFI=34 | CDC=48uA
 505:src/main.cpp  ****     mpr_write(REG_CONFIG2,0x4C);  // CDT=4us | SFI=18 | ESI=1ms
 506:src/main.cpp  ****     mpr_write(REG_ECR,0x8C);
 507:src/main.cpp  ****     System::Delay(100);
 508:src/main.cpp  ****     uint8_t ecr=0;mpr_read(REG_ECR,&ecr,1);
 509:src/main.cpp  ****     return(ecr==0x8C);
 510:src/main.cpp  **** }
 511:src/main.cpp  **** 
 512:src/main.cpp  **** void read_electrodes(uint16_t* out)
 513:src/main.cpp  **** {
 514:src/main.cpp  ****     uint8_t buf[24];
 515:src/main.cpp  ****     mpr_read(REG_ELE0_LSB,buf,24);
 516:src/main.cpp  ****     for(int i=0;i<N_CH;i++)
 517:src/main.cpp  ****         out[i]=(uint16_t)(buf[i*2]|((buf[i*2+1]&0x03)<<8));
 518:src/main.cpp  **** }
 519:src/main.cpp  **** 
 520:src/main.cpp  **** void capture_baseline(uint16_t* bl)
 521:src/main.cpp  **** {
 522:src/main.cpp  ****     uint32_t acc[N_CH]={0};uint16_t tmp[N_CH];
 523:src/main.cpp  ****     for(int s=0;s<REBASELINE_SAMPLES;s++){
 524:src/main.cpp  ****         read_electrodes(tmp);
 525:src/main.cpp  ****         for(int i=0;i<N_CH;i++)acc[i]+=tmp[i];
 526:src/main.cpp  ****         System::Delay(5);
 527:src/main.cpp  ****     }
 528:src/main.cpp  ****     for(int i=0;i<N_CH;i++)bl[i]=(uint16_t)(acc[i]/REBASELINE_SAMPLES);
ARM GAS  /tmp/claude-502/ccry90Vn.s 			page 18


 529:src/main.cpp  **** }
 530:src/main.cpp  **** 
 531:src/main.cpp  **** // ŌöĆŌöĆ Touch structs ŌöĆŌöĆŌöĆŌöĆŌöĆŌöĆŌöĆŌöĆŌöĆŌöĆŌöĆŌöĆŌöĆŌöĆŌöĆŌöĆŌöĆŌöĆŌöĆŌöĆŌöĆŌöĆŌöĆŌöĆŌöĆ
 532:src/main.cpp  **** struct Finger { bool active; int32_t pos,pressure,peak_ch,peak_delta; };
 533:src/main.cpp  **** struct TrackedFinger { bool alive; int32_t pos,pressure; int peak_ch; int32_t peak_delta; };
 534:src/main.cpp  **** static TrackedFinger tracked[2]={};
 535:src/main.cpp  **** 
 536:src/main.cpp  **** int32_t centroid_window(int32_t* d,int s,int e,int32_t* pk_out,int* pkch_out)
 537:src/main.cpp  **** {
 538:src/main.cpp  ****     int32_t sw=0,swx=0,pk=0;int pkc=s;
 539:src/main.cpp  ****     for(int i=s;i<=e;i++){
 540:src/main.cpp  ****         int32_t w=d[i]>0?d[i]:0;
 541:src/main.cpp  ****         sw+=w;swx+=w*i;
 542:src/main.cpp  ****         if(w>pk){pk=w;pkc=i;}
 543:src/main.cpp  ****     }
 544:src/main.cpp  ****     if(pk_out)*pk_out=pk;if(pkch_out)*pkch_out=pkc;
 545:src/main.cpp  ****     if(sw==0)return -1;
 546:src/main.cpp  ****     int32_t p=(swx*1000)/(sw*(N_CH-1));
 547:src/main.cpp  ****     if(p<0)p=0;if(p>1000)p=1000;
 548:src/main.cpp  ****     return p;
 549:src/main.cpp  **** }
 550:src/main.cpp  **** 
 551:src/main.cpp  **** int32_t pressure_pct(int32_t pk, int ch){
 552:src/main.cpp  ****     int32_t range = PRESSURE_MAX_REF[ch] - TOUCH_THRESHOLD;
 553:src/main.cpp  ****     int32_t raw   = pk - TOUCH_THRESHOLD;
 554:src/main.cpp  ****     if(raw <= 0)     return 0;
 555:src/main.cpp  ****     if(raw >= range) return 100;
 556:src/main.cpp  ****     // Clamp raw strictly before sqrt to prevent Newton overshoot
 557:src/main.cpp  ****     if(raw > range) raw = range;
 558:src/main.cpp  ****     int32_t scaled = raw * 10000 / range; // 0..10000
 559:src/main.cpp  ****     if(scaled > 10000) scaled = 10000;
 560:src/main.cpp  ****     // Integer sqrt via Newton
 561:src/main.cpp  ****     int32_t s = scaled / 2 + 1;
 562:src/main.cpp  ****     s = (s + scaled/s) / 2;
 563:src/main.cpp  ****     s = (s + scaled/s) / 2;
 564:src/main.cpp  ****     s = (s + scaled/s) / 2;
 565:src/main.cpp  ****     s = (s + scaled/s) / 2;
 566:src/main.cpp  ****     // Hard clamp output ŌĆö Newton can land at 101 due to rounding
 567:src/main.cpp  ****     if(s < 0)   s = 0;
 568:src/main.cpp  ****     if(s > 100) s = 100;
 569:src/main.cpp  ****     return s;
 570:src/main.cpp  **** }
 571:src/main.cpp  **** 
 572:src/main.cpp  **** int detect_raw(int32_t* delta,Finger out[2])
 573:src/main.cpp  **** {
 574:src/main.cpp  ****     out[0].active=out[1].active=false;
 575:src/main.cpp  ****     int pka=0;int32_t da=0;
 576:src/main.cpp  ****     for(int i=0;i<N_CH;i++)if(delta[i]>da){da=delta[i];pka=i;}
 577:src/main.cpp  ****     if(da<TOUCH_THRESHOLD)return 0;
 578:src/main.cpp  ****     int ws=pka-2;if(ws<0)ws=0;int we=pka+2;if(we>=N_CH)we=N_CH-1;
 579:src/main.cpp  ****     int32_t pa;int pca;
 580:src/main.cpp  ****     int32_t posa=centroid_window(delta,ws,we,&pa,&pca);
 581:src/main.cpp  ****     out[0]={true,posa,pressure_pct(pa,pca),pca,pa};
 582:src/main.cpp  **** 
 583:src/main.cpp  ****     int32_t d2[N_CH];
 584:src/main.cpp  ****     int ss=pka-2;if(ss<0)ss=0;int se=pka+2;if(se>=N_CH)se=N_CH-1;
 585:src/main.cpp  ****     for(int i=0;i<N_CH;i++)d2[i]=(i>=ss&&i<=se)?0:delta[i];
ARM GAS  /tmp/claude-502/ccry90Vn.s 			page 19


 586:src/main.cpp  ****     int pkb=0;int32_t db=0;
 587:src/main.cpp  ****     for(int i=0;i<N_CH;i++)if(d2[i]>db){db=d2[i];pkb=i;}
 588:src/main.cpp  ****     int sep=pkb-pka;if(sep<0)sep=-sep;
 589:src/main.cpp  ****     if(db<TOUCH_THRESHOLD||sep<MIN_FINGER_SEP)return 1;
 590:src/main.cpp  ****     int ws2=pkb-2;if(ws2<0)ws2=0;int we2=pkb+2;if(we2>=N_CH)we2=N_CH-1;
 591:src/main.cpp  ****     int32_t pb;int pcb;
 592:src/main.cpp  ****     int32_t posb=centroid_window(d2,ws2,we2,&pb,&pcb);
 593:src/main.cpp  ****     out[1]={true,posb,pressure_pct(pb,pcb),pcb,pb};
 594:src/main.cpp  ****     return 2;
 595:src/main.cpp  **** }
 596:src/main.cpp  **** 
 597:src/main.cpp  **** void update_tracked(Finger* raw,int n)
 598:src/main.cpp  **** {
 599:src/main.cpp  ****     bool ra[2]={false,false};
 600:src/main.cpp  ****     for(int slot=0;slot<2;slot++){
 601:src/main.cpp  ****         if(!tracked[slot].alive)continue;
 602:src/main.cpp  ****         int32_t best=MAX_POS_JUMP+1;int br=-1;
 603:src/main.cpp  ****         for(int r=0;r<n;r++){
 604:src/main.cpp  ****             if(ra[r])continue;
 605:src/main.cpp  ****             int32_t c=raw[r].pos-tracked[slot].pos;if(c<0)c=-c;
 606:src/main.cpp  ****             if(c<best){best=c;br=r;}
 607:src/main.cpp  ****         }
 608:src/main.cpp  ****         if(br>=0){
 609:src/main.cpp  ****             tracked[slot].pos=raw[br].pos;tracked[slot].pressure=raw[br].pressure;
 610:src/main.cpp  ****             tracked[slot].peak_ch=raw[br].peak_ch;tracked[slot].peak_delta=raw[br].peak_delta;
 611:src/main.cpp  ****             ra[br]=true;
 612:src/main.cpp  ****         } else tracked[slot].alive=false;
 613:src/main.cpp  ****     }
 614:src/main.cpp  ****     for(int r=0;r<n;r++){
 615:src/main.cpp  ****         if(ra[r])continue;
 616:src/main.cpp  ****         for(int slot=0;slot<2;slot++){
 617:src/main.cpp  ****             if(!tracked[slot].alive){
 618:src/main.cpp  ****                 tracked[slot]={true,raw[r].pos,raw[r].pressure,raw[r].peak_ch,raw[r].peak_delta};
 619:src/main.cpp  ****                 ra[r]=true;break;
 620:src/main.cpp  ****             }
 621:src/main.cpp  ****         }
 622:src/main.cpp  ****     }
 623:src/main.cpp  **** }
 624:src/main.cpp  **** 
 625:src/main.cpp  **** // ŌöĆŌöĆ Maths helpers ŌöĆŌöĆŌöĆŌöĆŌöĆŌöĆŌöĆŌöĆŌöĆŌöĆŌöĆŌöĆŌöĆŌöĆŌöĆŌöĆŌöĆŌöĆŌöĆŌöĆŌöĆŌöĆŌöĆŌöĆŌöĆ
 626:src/main.cpp  **** static inline float clampf(float v,float lo,float hi){
 627:src/main.cpp  ****     return v<lo?lo:v>hi?hi:v;
 628:src/main.cpp  **** }
 629:src/main.cpp  **** 
 630:src/main.cpp  **** // Fast tanh approximation (Pad├®)
 631:src/main.cpp  **** static inline float fast_tanh(float x)
 632:src/main.cpp  **** {
 633:src/main.cpp  ****     if(x> 3.0f)return  1.0f;
 634:src/main.cpp  ****     if(x<-3.0f)return -1.0f;
 635:src/main.cpp  ****     float x2=x*x;
 636:src/main.cpp  ****     return x*(27.0f+x2)/(27.0f+9.0f*x2);
 637:src/main.cpp  **** }
 638:src/main.cpp  **** 
 639:src/main.cpp  **** // ŌöĆŌöĆ Note quantizer ŌöĆŌöĆŌöĆŌöĆŌöĆŌöĆŌöĆŌöĆŌöĆŌöĆŌöĆŌöĆŌöĆŌöĆŌöĆŌöĆŌöĆŌöĆŌöĆŌöĆŌöĆŌöĆŌöĆŌöĆŌö
 640:src/main.cpp  **** // Returns the nearest MIDI note in SCALE[] for a raw float MIDI pitch.
 641:src/main.cpp  **** float quantize_midi(float midi)
 642:src/main.cpp  **** {
ARM GAS  /tmp/claude-502/ccry90Vn.s 			page 20


 643:src/main.cpp  ****     int root = (int)midi;
 644:src/main.cpp  ****     int pc   = root % 12;
 645:src/main.cpp  ****     int oct  = root / 12;
 646:src/main.cpp  ****     // find nearest scale degree
 647:src/main.cpp  ****     int best_deg=0, best_dist=127;
 648:src/main.cpp  ****     for(int i=0;i<SCALE_LEN;i++){
 649:src/main.cpp  ****         int d=SCALE[i]-pc; if(d<0)d=-d;
 650:src/main.cpp  ****         int d2=12-d; if(d2<d)d=d2;
 651:src/main.cpp  ****         if(d<best_dist){best_dist=d;best_deg=SCALE[i];}
 652:src/main.cpp  ****     }
 653:src/main.cpp  ****     float q=(float)(oct*12+best_deg);
 654:src/main.cpp  ****     // fractional semitone from the quantized note (for slide expression)
 655:src/main.cpp  ****     float frac=midi-(float)root;
 656:src/main.cpp  ****     return q+frac;
 657:src/main.cpp  **** }
 658:src/main.cpp  **** 
 659:src/main.cpp  **** // ŌöĆŌöĆ Audio state (written by touch loop, read by audio callback) ŌöĆŌöĆŌöĆŌöĆŌöĆŌöĆŌöĆŌöĆŌöĆŌö
 660:src/main.cpp  **** // All volatile ŌĆö touched by both cores / interrupt context
 661:src/main.cpp  **** volatile float g_target_freq    = 65.41f;
 662:src/main.cpp  **** volatile float g_target_cutoff  = 100.0f;  // starts dark, pressure opens it
 663:src/main.cpp  **** volatile float g_target_detune  = 0.0f;     // semitones osc2 offset
 664:src/main.cpp  **** volatile float g_target_drive   = 1.0f;     // waveshaper input gain
 665:src/main.cpp  **** volatile float g_vibrato_depth  = 0.0f;     // 0ŌĆō1, LFO depth
 666:src/main.cpp  **** volatile float g_bitcrush       = 0.0f;     // 0ŌĆō1, amount of crush
 667:src/main.cpp  **** volatile float g_ringmod        = 0.0f;     // 0ŌĆō1, ring mod wet
 668:src/main.cpp  **** volatile bool  g_finger_on      = false;
 669:src/main.cpp  **** volatile float g_amp_target     = 0.0f;
 670:src/main.cpp  **** volatile float g_led3_duty      = 0.0f;     // 0ŌĆō1, sigma-delta'd to LED3 in audio cb
 671:src/main.cpp  **** volatile float g_master_vol     = 1.0f;     // 0ŌĆō1, master volume from FSR on A1
 672:src/main.cpp  **** 
 673:src/main.cpp  **** // ŌöĆŌöĆ Audio DSP state (audio callback only) ŌöĆŌöĆŌöĆŌöĆŌöĆŌöĆŌöĆŌöĆŌöĆŌöĆŌöĆŌöĆŌöĆŌöĆŌöĆŌöĆŌöĆ
 674:src/main.cpp  **** static float s_freq      = 65.41f;
 675:src/main.cpp  **** static float s_cutoff    = 100.0f;
 676:src/main.cpp  **** static float s_detune    = 0.0f;
 677:src/main.cpp  **** static float s_drive     = 1.0f;
 678:src/main.cpp  **** static float s_vibdepth  = 0.0f;
 679:src/main.cpp  **** static float s_bitcrush  = 0.0f;
 680:src/main.cpp  **** static float s_ringmod   = 0.0f;
 681:src/main.cpp  **** static float s_amp       = 0.0f;
 682:src/main.cpp  **** static float s_master_vol= 1.0f;
 683:src/main.cpp  **** 
 684:src/main.cpp  **** static float s_phase1    = 0.0f;
 685:src/main.cpp  **** static float s_phase2    = 0.0f;
 686:src/main.cpp  **** static float s_phase_sub = 0.0f;
 687:src/main.cpp  **** static float s_phase_oct = 0.0f; // octave-up oscillator (2x freq)
 688:src/main.cpp  **** static float s_phase_rm  = 0.0f; // ring mod carrier phase
 689:src/main.cpp  **** static float s_lfo_phase = 0.0f;
 690:src/main.cpp  **** 
 691:src/main.cpp  **** // Moog ladder filter state
 692:src/main.cpp  **** static float s_flt[4]    = {0,0,0,0};
 693:src/main.cpp  **** 
 694:src/main.cpp  **** // White-noise generator state (xorshift32) for the per-voice noise oscillator.
 695:src/main.cpp  **** static uint32_t s_noise_rng = 0x1234567u;
 696:src/main.cpp  **** // One-pole low-pass state used to derive high-passed ("tsss") noise from white.
 697:src/main.cpp  **** static float    s_noise_lp  = 0.0f;
 698:src/main.cpp  **** // High-pass corner coefficient: higher = brighter/higher "tsss" for hi-hats.
 699:src/main.cpp  **** static constexpr float NOISE_HP_COEF = 0.8f;
ARM GAS  /tmp/claude-502/ccry90Vn.s 			page 21


 700:src/main.cpp  **** 
 701:src/main.cpp  **** // Slew rates (per sample at 48 kHz)
 702:src/main.cpp  **** // Lower value = faster response.
 703:src/main.cpp  **** // NOTE: pitch glide and the amp attack/release are now per-voice (see Voice
 704:src/main.cpp  **** // glide_ms / attack_ms / release_ms), converted to coefficients in the audio
 705:src/main.cpp  **** // callback. The constants below are the ones still shared by all voices.
 706:src/main.cpp  **** // Cutoff opening slew. The target is recomputed only at the touch-loop rate
 707:src/main.cpp  **** // (~12-16 Hz) and pressure is quantized to integer %, so a too-fast slew lets
 708:src/main.cpp  **** // each coarse step through as zipper/stair-stepping. ~35 ms interpolates across
 709:src/main.cpp  **** // those steps for a smooth filter sweep while still feeling responsive.
 710:src/main.cpp  **** static constexpr float SLEW_CUT    = 0.9994f; // filter cutoff ŌĆö ~35 ms smooth
 711:src/main.cpp  **** static constexpr float SLEW_MISC   = 0.9900f; // drive/vib
 712:src/main.cpp  **** // Finger 2 ŌĆö asymmetric attack/release
 713:src/main.cpp  **** static constexpr float SLEW_F2_A   = 0.9800f; // attack  (~10ms)
 714:src/main.cpp  **** static constexpr float SLEW_F2_R   = 0.9990f; // release (~200ms smooth fade)
 715:src/main.cpp  **** 
 716:src/main.cpp  **** // Convert a one-pole time constant in milliseconds to a per-sample slew
 717:src/main.cpp  **** // coefficient: y += (1-coeff)*(target-y) reaches ~63% after `ms`.
 718:src/main.cpp  **** static inline float ms_to_coeff(float ms, float sr){
 719:src/main.cpp  ****     if(ms <= 0.0f) return 0.0f;            // instant
 720:src/main.cpp  ****     return expf(-1.0f / (ms * 0.001f * sr));
 721:src/main.cpp  **** }
 722:src/main.cpp  **** 
 723:src/main.cpp  **** // ŌöĆŌöĆ Oscillator waveforms (phase ph in [0,1) ŌåÆ sample in [-1,1]) ŌöĆŌöĆŌöĆŌöĆŌöĆŌöĆŌöĆŌöĆŌöĆ
 724:src/main.cpp  **** // Triangle wave
 725:src/main.cpp  **** static inline float tri(float ph){
 726:src/main.cpp  ****     return ph<0.5f?(4.0f*ph-1.0f):(3.0f-4.0f*ph);
 727:src/main.cpp  **** }
 728:src/main.cpp  **** // Sine via parabolic approximation (no libm call) ŌĆö matches sin(2ŽĆ┬Ęph).
 729:src/main.cpp  **** static inline float osc_sine(float ph){
 730:src/main.cpp  ****     constexpr float PI = 3.14159265f;
 731:src/main.cpp  ****     float x = ph*2.0f*PI - PI;                 // -ŽĆ..ŽĆ (angle shifted by ŽĆ)
 732:src/main.cpp  ****     float y = 1.27323954f*x - 0.405284735f*x*(x<0?-x:x);
 733:src/main.cpp  ****     y = 0.225f*(y*(y<0?-y:y) - y) + y;         // one refinement pass
 734:src/main.cpp  ****     return -y;                                 // undo the ŽĆ shift: sin(x+ŽĆ) = -sin(x)
 735:src/main.cpp  **** }
 736:src/main.cpp  **** // Naive square / saw ŌĆö alias at high pitch but sound rich on a bass voice.
 737:src/main.cpp  **** static inline float osc_square(float ph){ return ph<0.5f ? 1.0f : -1.0f; }
 738:src/main.cpp  **** static inline float osc_saw(float ph){ return 2.0f*ph - 1.0f; }
 739:src/main.cpp  **** 
 740:src/main.cpp  **** // Dispatch on a per-oscillator waveform (runtime, since the active voice can be
 741:src/main.cpp  **** // switched live). A small jump table ŌĆö cheap at audio rate on the H750.
 742:src/main.cpp  **** static inline float osc(float ph, Waveform w){
 743:src/main.cpp  ****     switch(w){
 744:src/main.cpp  ****         case WAVE_SINE:   return osc_sine(ph);
 745:src/main.cpp  ****         case WAVE_SQUARE: return osc_square(ph);
 746:src/main.cpp  ****         case WAVE_SAW:    return osc_saw(ph);
 747:src/main.cpp  ****         case WAVE_TRI:
 748:src/main.cpp  ****         default:          return tri(ph);
 749:src/main.cpp  ****     }
 750:src/main.cpp  **** }
 751:src/main.cpp  **** 
 752:src/main.cpp  **** // Moog 4-pole ladder
 753:src/main.cpp  **** static inline float moog(float in, float cutoff, float res, float sr)
 754:src/main.cpp  **** {
 755:src/main.cpp  ****     float f = 2.0f*cutoff/sr;
 756:src/main.cpp  ****     if(f>0.98f)f=0.98f;
ARM GAS  /tmp/claude-502/ccry90Vn.s 			page 22


 757:src/main.cpp  ****     float k  = 3.8f*res;
 758:src/main.cpp  ****     float fb = k*s_flt[3];
 759:src/main.cpp  ****     float x  = in - fb;
 760:src/main.cpp  ****     s_flt[0]+=f*(fast_tanh(x)      -fast_tanh(s_flt[0]));
 761:src/main.cpp  ****     s_flt[1]+=f*(fast_tanh(s_flt[0])-fast_tanh(s_flt[1]));
 762:src/main.cpp  ****     s_flt[2]+=f*(fast_tanh(s_flt[1])-fast_tanh(s_flt[2]));
 763:src/main.cpp  ****     s_flt[3]+=f*(fast_tanh(s_flt[2])-fast_tanh(s_flt[3]));
 764:src/main.cpp  ****     return s_flt[3];
 765:src/main.cpp  **** }
 766:src/main.cpp  **** 
 767:src/main.cpp  **** // Wavefolder distortion
 768:src/main.cpp  **** // Folds signal back when it exceeds threshold ŌĆö creates rich harmonics.
 769:src/main.cpp  **** // amount 0 = clean, 1 = heavy folding (4 folds)
 770:src/main.cpp  **** static inline float wavefold(float in, float amount)
 771:src/main.cpp  **** {
 772:src/main.cpp  ****     if(amount < 0.01f) return in;
 773:src/main.cpp  ****     // Drive the signal harder as amount increases (1x to 5x)
 774:src/main.cpp  ****     float driven = in * (1.0f + amount * 4.0f);
 775:src/main.cpp  ****     // Fold: reflect signal at ┬▒1 boundary repeatedly
 776:src/main.cpp  ****     // fold(x) = 1 - |((x+1) mod 2) - 1|  (triangle fold)
 777:src/main.cpp  ****     float x = driven;
 778:src/main.cpp  ****     // 2 passes of folding for richness
 779:src/main.cpp  ****     for(int fold = 0; fold < 2; fold++) {
 780:src/main.cpp  ****         x = x * 0.5f + 0.5f;           // shift to 0..1
 781:src/main.cpp  ****         x = x - floorf(x);              // wrap to 0..1
 782:src/main.cpp  ****         x = 1.0f - fabsf(2.0f*x - 1.0f); // triangle fold
 783:src/main.cpp  ****         x = x * 2.0f - 1.0f;           // back to -1..1
 784:src/main.cpp  ****     }
 785:src/main.cpp  ****     // Blend dry/wet so at low amounts it stays subtle
 786:src/main.cpp  ****     return in*(1.0f-amount) + x*amount;
 787:src/main.cpp  **** }
 788:src/main.cpp  **** 
 789:src/main.cpp  **** void AudioCallback(AudioHandle::InputBuffer,
 790:src/main.cpp  ****                    AudioHandle::OutputBuffer out, size_t size)
 791:src/main.cpp  **** {
  78              		.loc 6 791 1 is_stmt 1 view -0
  79              		.cfi_startproc
  80              		@ args = 0, pretend = 0, frame = 104
  81              		@ frame_needed = 0, uses_anonymous_args = 0
 792:src/main.cpp  ****     // LED3 fixed-frequency PWM (200 Hz, 240 levels). Per-sample duty smoother
 793:src/main.cpp  ****     // (~20 ms TC) interpolates between the main loop's 16 Hz updates so the
 794:src/main.cpp  ****     // brightness transitions look continuous even at low intensity.
 795:src/main.cpp  ****     static float    led3_duty_smooth = 0.0f;
  82              		.loc 6 795 5 view .LVU11
 796:src/main.cpp  ****     static uint32_t pwm_counter      = 0;
  83              		.loc 6 796 5 view .LVU12
 797:src/main.cpp  ****     static bool     led3_state       = false;
  84              		.loc 6 797 5 view .LVU13
 798:src/main.cpp  ****     constexpr uint32_t PWM_LEVELS = 240;        // 48 kHz / 240 = 200 Hz PWM
  85              		.loc 6 798 5 view .LVU14
 799:src/main.cpp  ****     constexpr float    DUTY_TC    = 0.001f;     // ~20 ms time constant per sample
  86              		.loc 6 799 5 view .LVU15
 800:src/main.cpp  ****     float           duty_target = g_led3_duty;
  87              		.loc 6 800 5 view .LVU16
  88              		.loc 6 800 35 is_stmt 0 view .LVU17
  89 0000 9F4B     		ldr	r3, .L207
  90 0002 D3ED007A 		vldr.32	s15, [r3]
ARM GAS  /tmp/claude-502/ccry90Vn.s 			page 23


  91              	.LVL2:
 801:src/main.cpp  ****     if(duty_target < 0.0f) duty_target = 0.0f; else if(duty_target > 1.0f) duty_target = 1.0f;
  92              		.loc 6 801 5 is_stmt 1 view .LVU18
  93 0006 F5EEC07A 		vcmpe.f32	s15, #0
 791:src/main.cpp  ****     // LED3 fixed-frequency PWM (200 Hz, 240 levels). Per-sample duty smoother
  94              		.loc 6 791 1 is_stmt 0 view .LVU19
  95 000a 2DE9F04F 		push	{r4, r5, r6, r7, r8, r9, r10, fp, lr}
  96              		.cfi_def_cfa_offset 36
  97              		.cfi_offset 4, -36
  98              		.cfi_offset 5, -32
  99              		.cfi_offset 6, -28
 100              		.cfi_offset 7, -24
 101              		.cfi_offset 8, -20
 102              		.cfi_offset 9, -16
 103              		.cfi_offset 10, -12
 104              		.cfi_offset 11, -8
 105              		.cfi_offset 14, -4
 106              		.loc 6 801 5 view .LVU20
 107 000e F1EE10FA 		vmrs	APSR_nzcv, FPSCR
 791:src/main.cpp  ****     // LED3 fixed-frequency PWM (200 Hz, 240 levels). Per-sample duty smoother
 108              		.loc 6 791 1 view .LVU21
 109 0012 8B46     		mov	fp, r1
 110 0014 2DED108B 		vpush.64	{d8, d9, d10, d11, d12, d13, d14, d15}
 111              		.cfi_def_cfa_offset 100
 112              		.cfi_offset 80, -100
 113              		.cfi_offset 81, -96
 114              		.cfi_offset 82, -92
 115              		.cfi_offset 83, -88
 116              		.cfi_offset 84, -84
 117              		.cfi_offset 85, -80
 118              		.cfi_offset 86, -76
 119              		.cfi_offset 87, -72
 120              		.cfi_offset 88, -68
 121              		.cfi_offset 89, -64
 122              		.cfi_offset 90, -60
 123              		.cfi_offset 91, -56
 124              		.cfi_offset 92, -52
 125              		.cfi_offset 93, -48
 126              		.cfi_offset 94, -44
 127              		.cfi_offset 95, -40
 128 0018 9BB0     		sub	sp, sp, #108
 129              		.cfi_def_cfa_offset 208
 791:src/main.cpp  ****     // LED3 fixed-frequency PWM (200 Hz, 240 levels). Per-sample duty smoother
 130              		.loc 6 791 1 view .LVU22
 131 001a 0692     		str	r2, [sp, #24]
 132              		.loc 6 801 5 view .LVU23
 133 001c 01F13280 		bmi	.L111
 134 0020 B0EE677A 		vmov.f32	s14, s15
 135              		.loc 6 801 53 is_stmt 1 discriminator 2 view .LVU24
 136 0024 F7EE007A 		vmov.f32	s15, #1.0e+0
 137              	.LVL3:
 138              		.loc 6 801 88 is_stmt 0 discriminator 2 view .LVU25
 139 0028 B4EE677A 		vcmp.f32	s14, s15
 140 002c F1EE10FA 		vmrs	APSR_nzcv, FPSCR
 141 0030 77FE877A 		vselgt.f32	s15, s15, s14
 142 0034 CDED097A 		vstr.32	s15, [sp, #36]
 143              	.LVL4:
ARM GAS  /tmp/claude-502/ccry90Vn.s 			page 24


 144              	.L4:
 802:src/main.cpp  **** 
 803:src/main.cpp  ****     // Snapshot targets
 804:src/main.cpp  ****     float tfreq  = g_target_freq;
 145              		.loc 6 804 5 is_stmt 1 view .LVU26
 146              		.loc 6 804 20 is_stmt 0 view .LVU27
 147 0038 9249     		ldr	r1, .L207+4
 148              	.LVL5:
 805:src/main.cpp  ****     float tcut   = g_target_cutoff;
 149              		.loc 6 805 20 view .LVU28
 150 003a 934A     		ldr	r2, .L207+8
 151              	.LVL6:
 806:src/main.cpp  ****     float tdet   = g_target_detune;
 152              		.loc 6 806 20 view .LVU29
 153 003c 934B     		ldr	r3, .L207+12
 804:src/main.cpp  ****     float tcut   = g_target_cutoff;
 154              		.loc 6 804 20 view .LVU30
 155 003e D1ED007A 		vldr.32	s15, [r1]
 805:src/main.cpp  ****     float tcut   = g_target_cutoff;
 156              		.loc 6 805 20 view .LVU31
 157 0042 D2ED00CA 		vldr.32	s25, [r2]
 807:src/main.cpp  ****     float tdrv   = g_target_drive;
 158              		.loc 6 807 20 view .LVU32
 159 0046 9249     		ldr	r1, .L207+16
 806:src/main.cpp  ****     float tdet   = g_target_detune;
 160              		.loc 6 806 20 view .LVU33
 161 0048 D3ED00FA 		vldr.32	s31, [r3]
 808:src/main.cpp  ****     float tvib   = g_vibrato_depth;
 162              		.loc 6 808 20 view .LVU34
 163 004c 914A     		ldr	r2, .L207+20
 809:src/main.cpp  ****     float tbc    = g_bitcrush;
 164              		.loc 6 809 20 view .LVU35
 165 004e 924B     		ldr	r3, .L207+24
 807:src/main.cpp  ****     float tdrv   = g_target_drive;
 166              		.loc 6 807 20 view .LVU36
 167 0050 D1ED009A 		vldr.32	s19, [r1]
 808:src/main.cpp  ****     float tvib   = g_vibrato_depth;
 168              		.loc 6 808 20 view .LVU37
 169 0054 92ED009A 		vldr.32	s18, [r2]
 810:src/main.cpp  ****     float trm    = g_ringmod;
 170              		.loc 6 810 20 view .LVU38
 171 0058 9049     		ldr	r1, .L207+28
 809:src/main.cpp  ****     float tbc    = g_bitcrush;
 172              		.loc 6 809 20 view .LVU39
 173 005a 93ED00FA 		vldr.32	s30, [r3]
 811:src/main.cpp  ****     float tamp   = g_amp_target;
 174              		.loc 6 811 20 view .LVU40
 175 005e 904A     		ldr	r2, .L207+32
 812:src/main.cpp  ****     float tmvol  = g_master_vol;
 176              		.loc 6 812 20 view .LVU41
 177 0060 904B     		ldr	r3, .L207+36
 813:src/main.cpp  ****     float sr     = hw.AudioSampleRate();
 178              		.loc 6 813 38 view .LVU42
 179 0062 9148     		ldr	r0, .L207+40
 810:src/main.cpp  ****     float tamp   = g_amp_target;
 180              		.loc 6 810 20 view .LVU43
 181 0064 D1ED00EA 		vldr.32	s29, [r1]
ARM GAS  /tmp/claude-502/ccry90Vn.s 			page 25


 804:src/main.cpp  ****     float tcut   = g_target_cutoff;
 182              		.loc 6 804 20 view .LVU44
 183 0068 CDED087A 		vstr.32	s15, [sp, #32]
 184              	.LVL7:
 805:src/main.cpp  ****     float tdet   = g_target_detune;
 185              		.loc 6 805 5 is_stmt 1 view .LVU45
 806:src/main.cpp  ****     float tdrv   = g_target_drive;
 186              		.loc 6 806 5 view .LVU46
 807:src/main.cpp  ****     float tvib   = g_vibrato_depth;
 187              		.loc 6 807 5 view .LVU47
 808:src/main.cpp  ****     float tbc    = g_bitcrush;
 188              		.loc 6 808 5 view .LVU48
 809:src/main.cpp  ****     float trm    = g_ringmod;
 189              		.loc 6 809 5 view .LVU49
 810:src/main.cpp  ****     float tamp   = g_amp_target;
 190              		.loc 6 810 5 view .LVU50
 811:src/main.cpp  ****     float tmvol  = g_master_vol;
 191              		.loc 6 811 5 view .LVU51
 811:src/main.cpp  ****     float tmvol  = g_master_vol;
 192              		.loc 6 811 20 is_stmt 0 view .LVU52
 193 006c D2ED00AA 		vldr.32	s21, [r2]
 194              	.LVL8:
 812:src/main.cpp  ****     float sr     = hw.AudioSampleRate();
 195              		.loc 6 812 5 is_stmt 1 view .LVU53
 812:src/main.cpp  ****     float sr     = hw.AudioSampleRate();
 196              		.loc 6 812 20 is_stmt 0 view .LVU54
 197 0070 D3ED008A 		vldr.32	s17, [r3]
 198              	.LVL9:
 199              		.loc 6 813 5 is_stmt 1 view .LVU55
 200              		.loc 6 813 38 is_stmt 0 view .LVU56
 201 0074 FFF7FEFF 		bl	_ZN5daisy9DaisySeed15AudioSampleRateEv
 202              	.LVL10:
 814:src/main.cpp  **** 
 815:src/main.cpp  ****     // Snapshot the active voice once per block, so a mid-block switch from the
 816:src/main.cpp  ****     // touch loop can't tear fields across the block. All VOICE.* reads below
 817:src/main.cpp  ****     // resolve against this reference. g_active_voice tracks g_voice_idx except in
 818:src/main.cpp  ****     // MultiVoice mode, where the touch loop routes it per tap to a drum.
 819:src/main.cpp  ****     int vi = g_active_voice;
 203              		.loc 6 819 14 view .LVU57
 204 0078 8C4B     		ldr	r3, .L207+44
 813:src/main.cpp  **** 
 205              		.loc 6 813 38 view .LVU58
 206 007a B0EE408A 		vmov.f32	s16, s0
 207              	.LVL11:
 208              		.loc 6 819 5 is_stmt 1 view .LVU59
 820:src/main.cpp  ****     if(vi < 0 || vi >= NUM_VOICES) vi = 0;
 821:src/main.cpp  ****     const Voice& VOICE = VOICES[vi];
 822:src/main.cpp  **** 
 823:src/main.cpp  ****     // Per-voice envelope/glide coefficients (expf isn't constexpr). Recompute
 824:src/main.cpp  ****     // only when the active voice changes.
 825:src/main.cpp  ****     static int   s_coeff_vi = -1;
 826:src/main.cpp  ****     static float s_glide_c, s_atk_c, s_rel_c;
 827:src/main.cpp  ****     static float s_penv_c;      // pitch-env decay coefficient
 828:src/main.cpp  ****     static float s_penv_start;  // pitch multiplier at onset = 2^pitch_env_oct
 829:src/main.cpp  ****     if(s_coeff_vi != vi){
 209              		.loc 6 829 19 is_stmt 0 view .LVU60
 210 007e 8C4C     		ldr	r4, .L207+48
ARM GAS  /tmp/claude-502/ccry90Vn.s 			page 26


 819:src/main.cpp  ****     if(vi < 0 || vi >= NUM_VOICES) vi = 0;
 211              		.loc 6 819 14 view .LVU61
 212 0080 1E68     		ldr	r6, [r3]
 213              	.LVL12:
 820:src/main.cpp  ****     if(vi < 0 || vi >= NUM_VOICES) vi = 0;
 214              		.loc 6 820 5 is_stmt 1 view .LVU62
 215              		.loc 6 829 5 is_stmt 0 view .LVU63
 216 0082 2368     		ldr	r3, [r4]
 820:src/main.cpp  ****     if(vi < 0 || vi >= NUM_VOICES) vi = 0;
 217              		.loc 6 820 39 view .LVU64
 218 0084 0D2E     		cmp	r6, #13
 219 0086 28BF     		it	cs
 220 0088 0026     		movcs	r6, #0
 221              	.LVL13:
 821:src/main.cpp  **** 
 222              		.loc 6 821 5 is_stmt 1 view .LVU65
 825:src/main.cpp  ****     static float s_glide_c, s_atk_c, s_rel_c;
 223              		.loc 6 825 5 view .LVU66
 826:src/main.cpp  ****     static float s_penv_c;      // pitch-env decay coefficient
 224              		.loc 6 826 5 view .LVU67
 827:src/main.cpp  ****     static float s_penv_start;  // pitch multiplier at onset = 2^pitch_env_oct
 225              		.loc 6 827 5 view .LVU68
 828:src/main.cpp  ****     if(s_coeff_vi != vi){
 226              		.loc 6 828 5 view .LVU69
 227              		.loc 6 829 5 view .LVU70
 228 008a B342     		cmp	r3, r6
 229 008c 00F08380 		beq	.L7
 830:src/main.cpp  ****         s_glide_c    = ms_to_coeff(VOICE.glide_ms,     sr);
 230              		.loc 6 830 9 view .LVU71
 231              		.loc 6 830 42 is_stmt 0 view .LVU72
 232 0090 884B     		ldr	r3, .L207+52
 233 0092 1A46     		mov	r2, r3
 234 0094 0093     		str	r3, [sp]
 235 0096 C6EB4613 		rsb	r3, r6, r6, lsl #5
 236 009a 02EB8303 		add	r3, r2, r3, lsl #2
 237 009e D3ED1B7A 		vldr.32	s15, [r3, #108]
 238              	.LVL14:
 239              	.LBB469:
 240              	.LBI469:
 718:src/main.cpp  ****     if(ms <= 0.0f) return 0.0f;            // instant
 241              		.loc 6 718 21 is_stmt 1 view .LVU73
 242              	.LBB470:
 719:src/main.cpp  ****     return expf(-1.0f / (ms * 0.001f * sr));
 243              		.loc 6 719 5 view .LVU74
 244              	.LBE470:
 245              	.LBE469:
 246              		.loc 6 830 42 is_stmt 0 view .LVU75
 247 00a2 7301     		lsls	r3, r6, #5
 248              	.LBB476:
 249              	.LBB473:
 719:src/main.cpp  ****     return expf(-1.0f / (ms * 0.001f * sr));
 250              		.loc 6 719 5 view .LVU76
 251 00a4 F5EEC07A 		vcmpe.f32	s15, #0
 252              	.LBE473:
 253              	.LBE476:
 254              		.loc 6 830 42 view .LVU77
 255 00a8 0393     		str	r3, [sp, #12]
ARM GAS  /tmp/claude-502/ccry90Vn.s 			page 27


 256              	.LBB477:
 257              	.LBB474:
 719:src/main.cpp  ****     return expf(-1.0f / (ms * 0.001f * sr));
 258              		.loc 6 719 5 view .LVU78
 259 00aa F1EE10FA 		vmrs	APSR_nzcv, FPSCR
 260 00ae 40F2DF87 		bls	.L112
 261              	.LVL15:
 262              	.LBB471:
 263              	.LBI471:
 718:src/main.cpp  ****     if(ms <= 0.0f) return 0.0f;            // instant
 264              		.loc 6 718 21 is_stmt 1 view .LVU79
 265              	.LBB472:
 720:src/main.cpp  **** }
 266              		.loc 6 720 5 view .LVU80
 720:src/main.cpp  **** }
 267              		.loc 6 720 29 is_stmt 0 view .LVU81
 268 00b2 9FED817A 		vldr.32	s14, .L207+56
 720:src/main.cpp  **** }
 269              		.loc 6 720 16 view .LVU82
 270 00b6 BFEE000A 		vmov.f32	s0, #-1.0e+0
 271              	.LVL16:
 720:src/main.cpp  **** }
 272              		.loc 6 720 29 view .LVU83
 273 00ba 67EE877A 		vmul.f32	s15, s15, s14
 274              	.LVL17:
 720:src/main.cpp  **** }
 275              		.loc 6 720 38 view .LVU84
 276 00be 67EE887A 		vmul.f32	s15, s15, s16
 720:src/main.cpp  **** }
 277              		.loc 6 720 16 view .LVU85
 278 00c2 80EE270A 		vdiv.f32	s0, s0, s15
 279 00c6 FFF7FEFF 		bl	expf
 280              	.LVL18:
 281              	.L8:
 720:src/main.cpp  **** }
 282              		.loc 6 720 16 view .LVU86
 283              	.LBE472:
 284              	.LBE471:
 285              	.LBE474:
 286              	.LBE477:
 831:src/main.cpp  ****         s_atk_c      = ms_to_coeff(VOICE.attack_ms,    sr);
 287              		.loc 6 831 42 view .LVU87
 288 00ca 7301     		lsls	r3, r6, #5
 289 00cc 009A     		ldr	r2, [sp]
 290 00ce 9B1B     		subs	r3, r3, r6
 291 00d0 02EB8303 		add	r3, r2, r3, lsl #2
 292 00d4 D3ED197A 		vldr.32	s15, [r3, #100]
 830:src/main.cpp  ****         s_atk_c      = ms_to_coeff(VOICE.attack_ms,    sr);
 293              		.loc 6 830 22 view .LVU88
 294 00d8 784B     		ldr	r3, .L207+60
 295              	.LBB478:
 296              	.LBB479:
 719:src/main.cpp  ****     return expf(-1.0f / (ms * 0.001f * sr));
 297              		.loc 6 719 5 view .LVU89
 298 00da F5EEC07A 		vcmpe.f32	s15, #0
 299              	.LBE479:
 300              	.LBE478:
ARM GAS  /tmp/claude-502/ccry90Vn.s 			page 28


 830:src/main.cpp  ****         s_atk_c      = ms_to_coeff(VOICE.attack_ms,    sr);
 301              		.loc 6 830 22 view .LVU90
 302 00de 83ED000A 		vstr.32	s0, [r3]
 303              		.loc 6 831 9 is_stmt 1 view .LVU91
 304              	.LVL19:
 305              	.LBB484:
 306              	.LBI478:
 718:src/main.cpp  ****     if(ms <= 0.0f) return 0.0f;            // instant
 307              		.loc 6 718 21 view .LVU92
 308              	.LBB482:
 719:src/main.cpp  ****     return expf(-1.0f / (ms * 0.001f * sr));
 309              		.loc 6 719 5 view .LVU93
 310 00e2 F1EE10FA 		vmrs	APSR_nzcv, FPSCR
 311 00e6 40F2DB87 		bls	.L113
 312              	.LVL20:
 313              	.LBB480:
 314              	.LBI480:
 718:src/main.cpp  ****     if(ms <= 0.0f) return 0.0f;            // instant
 315              		.loc 6 718 21 view .LVU94
 316              	.LBB481:
 720:src/main.cpp  **** }
 317              		.loc 6 720 5 view .LVU95
 720:src/main.cpp  **** }
 318              		.loc 6 720 29 is_stmt 0 view .LVU96
 319 00ea 9FED737A 		vldr.32	s14, .L207+56
 720:src/main.cpp  **** }
 320              		.loc 6 720 16 view .LVU97
 321 00ee BFEE000A 		vmov.f32	s0, #-1.0e+0
 720:src/main.cpp  **** }
 322              		.loc 6 720 29 view .LVU98
 323 00f2 67EE877A 		vmul.f32	s15, s15, s14
 324              	.LVL21:
 720:src/main.cpp  **** }
 325              		.loc 6 720 38 view .LVU99
 326 00f6 67EE887A 		vmul.f32	s15, s15, s16
 720:src/main.cpp  **** }
 327              		.loc 6 720 16 view .LVU100
 328 00fa 80EE270A 		vdiv.f32	s0, s0, s15
 329 00fe FFF7FEFF 		bl	expf
 330              	.LVL22:
 331              	.L9:
 720:src/main.cpp  **** }
 332              		.loc 6 720 16 view .LVU101
 333              	.LBE481:
 334              	.LBE480:
 335              	.LBE482:
 336              	.LBE484:
 832:src/main.cpp  ****         s_rel_c      = ms_to_coeff(VOICE.release_ms,   sr);
 337              		.loc 6 832 42 view .LVU102
 338 0102 7301     		lsls	r3, r6, #5
 339 0104 009A     		ldr	r2, [sp]
 340 0106 9B1B     		subs	r3, r3, r6
 341 0108 02EB8303 		add	r3, r2, r3, lsl #2
 342 010c D3ED1A7A 		vldr.32	s15, [r3, #104]
 831:src/main.cpp  ****         s_rel_c      = ms_to_coeff(VOICE.release_ms,   sr);
 343              		.loc 6 831 22 view .LVU103
 344 0110 6B4B     		ldr	r3, .L207+64
ARM GAS  /tmp/claude-502/ccry90Vn.s 			page 29


 345              	.LBB485:
 346              	.LBB486:
 719:src/main.cpp  ****     return expf(-1.0f / (ms * 0.001f * sr));
 347              		.loc 6 719 5 view .LVU104
 348 0112 F5EEC07A 		vcmpe.f32	s15, #0
 349              	.LBE486:
 350              	.LBE485:
 831:src/main.cpp  ****         s_rel_c      = ms_to_coeff(VOICE.release_ms,   sr);
 351              		.loc 6 831 22 view .LVU105
 352 0116 83ED000A 		vstr.32	s0, [r3]
 353              		.loc 6 832 9 is_stmt 1 view .LVU106
 354              	.LVL23:
 355              	.LBB491:
 356              	.LBI485:
 718:src/main.cpp  ****     if(ms <= 0.0f) return 0.0f;            // instant
 357              		.loc 6 718 21 view .LVU107
 358              	.LBB489:
 719:src/main.cpp  ****     return expf(-1.0f / (ms * 0.001f * sr));
 359              		.loc 6 719 5 view .LVU108
 360 011a F1EE10FA 		vmrs	APSR_nzcv, FPSCR
 361 011e 40F2BB87 		bls	.L114
 362              	.LVL24:
 363              	.LBB487:
 364              	.LBI487:
 718:src/main.cpp  ****     if(ms <= 0.0f) return 0.0f;            // instant
 365              		.loc 6 718 21 view .LVU109
 366              	.LBB488:
 720:src/main.cpp  **** }
 367              		.loc 6 720 5 view .LVU110
 720:src/main.cpp  **** }
 368              		.loc 6 720 29 is_stmt 0 view .LVU111
 369 0122 9FED657A 		vldr.32	s14, .L207+56
 720:src/main.cpp  **** }
 370              		.loc 6 720 16 view .LVU112
 371 0126 BFEE000A 		vmov.f32	s0, #-1.0e+0
 720:src/main.cpp  **** }
 372              		.loc 6 720 29 view .LVU113
 373 012a 67EE877A 		vmul.f32	s15, s15, s14
 374              	.LVL25:
 720:src/main.cpp  **** }
 375              		.loc 6 720 38 view .LVU114
 376 012e 67EE887A 		vmul.f32	s15, s15, s16
 720:src/main.cpp  **** }
 377              		.loc 6 720 16 view .LVU115
 378 0132 80EE270A 		vdiv.f32	s0, s0, s15
 379 0136 FFF7FEFF 		bl	expf
 380              	.LVL26:
 381              	.L10:
 720:src/main.cpp  **** }
 382              		.loc 6 720 16 view .LVU116
 383              	.LBE488:
 384              	.LBE487:
 385              	.LBE489:
 386              	.LBE491:
 833:src/main.cpp  ****         s_penv_c     = ms_to_coeff(VOICE.pitch_env_ms, sr);
 387              		.loc 6 833 42 view .LVU117
 388 013a 7301     		lsls	r3, r6, #5
ARM GAS  /tmp/claude-502/ccry90Vn.s 			page 30


 389 013c 009A     		ldr	r2, [sp]
 390 013e 9B1B     		subs	r3, r3, r6
 391 0140 02EB8303 		add	r3, r2, r3, lsl #2
 392 0144 D3ED1D7A 		vldr.32	s15, [r3, #116]
 832:src/main.cpp  ****         s_penv_c     = ms_to_coeff(VOICE.pitch_env_ms, sr);
 393              		.loc 6 832 22 view .LVU118
 394 0148 5E4B     		ldr	r3, .L207+68
 395              	.LBB492:
 396              	.LBB493:
 719:src/main.cpp  ****     return expf(-1.0f / (ms * 0.001f * sr));
 397              		.loc 6 719 5 view .LVU119
 398 014a F5EEC07A 		vcmpe.f32	s15, #0
 399              	.LBE493:
 400              	.LBE492:
 832:src/main.cpp  ****         s_penv_c     = ms_to_coeff(VOICE.pitch_env_ms, sr);
 401              		.loc 6 832 22 view .LVU120
 402 014e 83ED000A 		vstr.32	s0, [r3]
 403              		.loc 6 833 9 is_stmt 1 view .LVU121
 404              	.LVL27:
 405              	.LBB498:
 406              	.LBI492:
 718:src/main.cpp  ****     if(ms <= 0.0f) return 0.0f;            // instant
 407              		.loc 6 718 21 view .LVU122
 408              	.LBB496:
 719:src/main.cpp  ****     return expf(-1.0f / (ms * 0.001f * sr));
 409              		.loc 6 719 5 view .LVU123
 410 0152 F1EE10FA 		vmrs	APSR_nzcv, FPSCR
 411 0156 40F29B87 		bls	.L115
 412              	.LVL28:
 413              	.LBB494:
 414              	.LBI494:
 718:src/main.cpp  ****     if(ms <= 0.0f) return 0.0f;            // instant
 415              		.loc 6 718 21 view .LVU124
 416              	.LBB495:
 720:src/main.cpp  **** }
 417              		.loc 6 720 5 view .LVU125
 720:src/main.cpp  **** }
 418              		.loc 6 720 29 is_stmt 0 view .LVU126
 419 015a 9FED577A 		vldr.32	s14, .L207+56
 720:src/main.cpp  **** }
 420              		.loc 6 720 16 view .LVU127
 421 015e BFEE000A 		vmov.f32	s0, #-1.0e+0
 720:src/main.cpp  **** }
 422              		.loc 6 720 29 view .LVU128
 423 0162 67EE877A 		vmul.f32	s15, s15, s14
 424              	.LVL29:
 720:src/main.cpp  **** }
 425              		.loc 6 720 38 view .LVU129
 426 0166 67EE887A 		vmul.f32	s15, s15, s16
 720:src/main.cpp  **** }
 427              		.loc 6 720 16 view .LVU130
 428 016a 80EE270A 		vdiv.f32	s0, s0, s15
 429 016e FFF7FEFF 		bl	expf
 430              	.LVL30:
 720:src/main.cpp  **** }
 431              		.loc 6 720 16 view .LVU131
 432 0172 F0EE407A 		vmov.f32	s15, s0
ARM GAS  /tmp/claude-502/ccry90Vn.s 			page 31


 433              	.LVL31:
 434              	.L11:
 720:src/main.cpp  **** }
 435              		.loc 6 720 16 view .LVU132
 436              	.LBE495:
 437              	.LBE494:
 438              	.LBE496:
 439              	.LBE498:
 834:src/main.cpp  ****         s_penv_start = exp2f(VOICE.pitch_env_oct);   // 1.0 when pitch_env_oct == 0
 440              		.loc 6 834 36 view .LVU133
 441 0176 7301     		lsls	r3, r6, #5
 442 0178 009A     		ldr	r2, [sp]
 443 017a 9B1B     		subs	r3, r3, r6
 444 017c 02EB8303 		add	r3, r2, r3, lsl #2
 445              		.loc 6 834 29 view .LVU134
 446 0180 93ED1C0A 		vldr.32	s0, [r3, #112]
 833:src/main.cpp  ****         s_penv_start = exp2f(VOICE.pitch_env_oct);   // 1.0 when pitch_env_oct == 0
 447              		.loc 6 833 22 view .LVU135
 448 0184 504B     		ldr	r3, .L207+72
 449 0186 C3ED007A 		vstr.32	s15, [r3]
 450              		.loc 6 834 9 is_stmt 1 view .LVU136
 451              		.loc 6 834 29 is_stmt 0 view .LVU137
 452 018a FFF7FEFF 		bl	exp2f
 453              	.LVL32:
 454              		.loc 6 834 22 view .LVU138
 455 018e 4F4B     		ldr	r3, .L207+76
 835:src/main.cpp  ****         s_coeff_vi   = vi;
 456              		.loc 6 835 22 view .LVU139
 457 0190 2660     		str	r6, [r4]
 834:src/main.cpp  ****         s_penv_start = exp2f(VOICE.pitch_env_oct);   // 1.0 when pitch_env_oct == 0
 458              		.loc 6 834 22 view .LVU140
 459 0192 83ED000A 		vstr.32	s0, [r3]
 460              		.loc 6 835 9 is_stmt 1 view .LVU141
 461              	.L7:
 836:src/main.cpp  ****     }
 837:src/main.cpp  **** 
 838:src/main.cpp  ****     // Pitch-envelope trigger: on a note onset (amp target rising from silence),
 839:src/main.cpp  ****     // jump the pitch multiplier up; it decays back to 1.0 over pitch_env_ms.
 840:src/main.cpp  ****     static float s_pmult     = 1.0f;
 462              		.loc 6 840 5 view .LVU142
 841:src/main.cpp  ****     static float s_prev_tamp = 0.0f;
 463              		.loc 6 841 5 view .LVU143
 842:src/main.cpp  ****     if(tamp > 0.001f && s_prev_tamp <= 0.001f) s_pmult = s_penv_start;
 464              		.loc 6 842 5 view .LVU144
 465 0196 DFED487A 		vldr.32	s15, .L207+56
 466              		.loc 6 842 37 is_stmt 0 view .LVU145
 467 019a 4D4A     		ldr	r2, .L207+80
 468              		.loc 6 842 5 view .LVU146
 469 019c F4EEE7AA 		vcmpe.f32	s21, s15
 470 01a0 F1EE10FA 		vmrs	APSR_nzcv, FPSCR
 471 01a4 07DD     		ble	.L12
 472              		.loc 6 842 22 discriminator 1 view .LVU147
 473 01a6 92ED007A 		vldr.32	s14, [r2]
 474 01aa B4EEE77A 		vcmpe.f32	s14, s15
 475 01ae F1EE10FA 		vmrs	APSR_nzcv, FPSCR
 476 01b2 40F26187 		bls	.L195
 477              	.L12:
ARM GAS  /tmp/claude-502/ccry90Vn.s 			page 32


 843:src/main.cpp  ****     s_prev_tamp = tamp;
 478              		.loc 6 843 5 is_stmt 1 view .LVU148
 479              	.LBB499:
 844:src/main.cpp  **** 
 845:src/main.cpp  ****     for(size_t i=0;i<size;i++)
 480              		.loc 6 845 21 is_stmt 0 view .LVU149
 481 01b6 069B     		ldr	r3, [sp, #24]
 482              	.LBE499:
 843:src/main.cpp  ****     s_prev_tamp = tamp;
 483              		.loc 6 843 17 view .LVU150
 484 01b8 C2ED00AA 		vstr.32	s21, [r2]
 485              		.loc 6 845 5 is_stmt 1 view .LVU151
 486              	.LVL33:
 487              	.LBB885:
 488              		.loc 6 845 21 view .LVU152
 489 01bc 002B     		cmp	r3, #0
 490 01be 00F05287 		beq	.L3
 491              	.LBB500:
 846:src/main.cpp  ****     {
 847:src/main.cpp  ****         // Slew all parameters
 848:src/main.cpp  ****         s_freq    = s_freq   *s_glide_c + tfreq*(1.0f-s_glide_c);
 849:src/main.cpp  ****         // Cutoff: fast when opening (smoothed), slow when closing (with release)
 850:src/main.cpp  ****         { float sc = (tcut > s_cutoff) ? SLEW_CUT : s_rel_c;
 851:src/main.cpp  ****           s_cutoff = s_cutoff * sc + tcut * (1.0f - sc); }
 852:src/main.cpp  ****         s_drive   = s_drive   * SLEW_MISC + tdrv * (1.0f - SLEW_MISC);
 853:src/main.cpp  ****         s_vibdepth= s_vibdepth* SLEW_MISC + tvib * (1.0f - SLEW_MISC);
 854:src/main.cpp  ****         // Finger 2 params: fast attack, slow release
 855:src/main.cpp  ****         { float sa = tdet     > s_detune   ? SLEW_F2_A : SLEW_F2_R;
 856:src/main.cpp  ****           s_detune   = s_detune   * sa + tdet * (1.0f - sa); }
 857:src/main.cpp  ****         { float sa = tbc      > s_bitcrush ? SLEW_F2_A : SLEW_F2_R;
 858:src/main.cpp  ****           s_bitcrush = s_bitcrush * sa + tbc  * (1.0f - sa); }
 859:src/main.cpp  ****         { float sa = trm      > s_ringmod  ? SLEW_F2_A : SLEW_F2_R;
 860:src/main.cpp  ****           s_ringmod  = s_ringmod  * sa + trm  * (1.0f - sa); }
 861:src/main.cpp  ****         // Asymmetric envelope: per-voice attack (rising) and release (falling)
 862:src/main.cpp  ****         float slew_amp = (tamp > s_amp) ? s_atk_c : s_rel_c;
 863:src/main.cpp  ****         s_amp = s_amp * slew_amp + tamp * (1.0f - slew_amp);
 864:src/main.cpp  ****         // Master volume slew (smooths FSR jitter / 16 Hz update steps).
 865:src/main.cpp  ****         s_master_vol = s_master_vol * SLEW_MISC + tmvol * (1.0f - SLEW_MISC);
 866:src/main.cpp  ****         // Pitch envelope decays toward 1.0 (no-op when pitch_env_oct == 0).
 867:src/main.cpp  ****         s_pmult = 1.0f + (s_pmult - 1.0f) * s_penv_c;
 868:src/main.cpp  **** 
 869:src/main.cpp  ****         // Bleed filter state toward zero when silent
 870:src/main.cpp  ****         // Prevents stale filter energy from clicking on next note onset
 871:src/main.cpp  ****         if(s_amp < 0.001f) {
 872:src/main.cpp  ****             s_flt[0] *= 0.999f;
 873:src/main.cpp  ****             s_flt[1] *= 0.999f;
 874:src/main.cpp  ****             s_flt[2] *= 0.999f;
 875:src/main.cpp  ****             s_flt[3] *= 0.999f;
 876:src/main.cpp  ****         }
 877:src/main.cpp  **** 
 878:src/main.cpp  ****         // During release, close cutoff in sync with amplitude
 879:src/main.cpp  ****         // This prevents clicks from abrupt filter state changes
 880:src/main.cpp  ****         if(tamp < 0.001f && s_amp > 0.0001f) {
 881:src/main.cpp  ****             // Pull cutoff toward silence-floor proportional to amp decay
 882:src/main.cpp  ****             float close_target = 30.0f + s_amp * tcut;
 883:src/main.cpp  ****             tcut = close_target;
 884:src/main.cpp  ****         }
ARM GAS  /tmp/claude-502/ccry90Vn.s 			page 33


 885:src/main.cpp  **** 
 886:src/main.cpp  ****         // LFO for vibrato (6 Hz sine approximation via triangle)
 887:src/main.cpp  ****         s_lfo_phase += 6.0f/sr;
 492              		.loc 6 887 28 is_stmt 0 view .LVU153
 493 01c2 B1EE087A 		vmov.f32	s14, #6.0e+0
 852:src/main.cpp  ****         s_vibdepth= s_vibdepth* SLEW_MISC + tvib * (1.0f - SLEW_MISC);
 494              		.loc 6 852 50 view .LVU154
 495 01c6 DFED437A 		vldr.32	s15, .L207+84
 496              	.LBB501:
 888:src/main.cpp  ****         if(s_lfo_phase>=1.0f)s_lfo_phase-=1.0f;
 889:src/main.cpp  ****         float lfo = tri(s_lfo_phase); // -1..1
 890:src/main.cpp  **** 
 891:src/main.cpp  ****         // Vibrato: modulate frequency by ┬▒1 semitone * depth
 892:src/main.cpp  ****         // powf(2, semitones/12) ŌĆö approx for small values: exp(x*0.0578)
 893:src/main.cpp  ****         float vib_amt = lfo * s_vibdepth * 0.05f; // max ┬▒~0.05 semitones*depth
 894:src/main.cpp  ****         float freq_vib = s_freq * (1.0f + vib_amt) * s_pmult;  // s_pmult: pitch-env sweep
 895:src/main.cpp  **** 
 896:src/main.cpp  ****         // Osc 2 frequency. Lead: finger-2 detune around the base ratio.
 897:src/main.cpp  ****         // Bass (and any fixed-interval voice): hold osc2_ratio (e.g. a 5th).
 898:src/main.cpp  ****         // VOICE is constexpr, so only the taken branch is compiled in.
 899:src/main.cpp  ****         float freq2;
 900:src/main.cpp  ****         if(VOICE.osc2_detune) {
 497              		.loc 6 900 18 view .LVU155
 498 01ca 7301     		lsls	r3, r6, #5
 499 01cc 394A     		ldr	r2, .L207+52
 500 01ce 3B49     		ldr	r1, .L207+60
 501              	.LBE501:
 502              	.LBE500:
 845:src/main.cpp  ****     {
 503              		.loc 6 845 16 view .LVU156
 504 01d0 0025     		movs	r5, #0
 505              	.LBB879:
 887:src/main.cpp  ****         if(s_lfo_phase>=1.0f)s_lfo_phase-=1.0f;
 506              		.loc 6 887 28 view .LVU157
 507 01d2 87EE087A 		vdiv.f32	s14, s14, s16
 508              	.LBB503:
 509              		.loc 6 900 18 view .LVU158
 510 01d6 0393     		str	r3, [sp, #12]
 511 01d8 C6EB4613 		rsb	r3, r6, r6, lsl #5
 512 01dc 0092     		str	r2, [sp]
 513 01de 3E4C     		ldr	r4, .L207+88
 514 01e0 02EB8303 		add	r3, r2, r3, lsl #2
 515 01e4 93F83D20 		ldrb	r2, [r3, #61]	@ zero_extendqisi2
 516              	.LBE503:
 901:src/main.cpp  ****             float det_ratio = 1.0f + s_detune * 0.05776f; // linear approx, good for ┬▒1 oct
 902:src/main.cpp  ****             freq2 = freq_vib * VOICE.osc2_ratio * det_ratio;
 903:src/main.cpp  ****         } else {
 904:src/main.cpp  ****             freq2 = freq_vib * VOICE.osc2_ratio;
 905:src/main.cpp  ****         }
 906:src/main.cpp  **** 
 907:src/main.cpp  ****         // Sub and octave oscillators (ratios are voice-defined).
 908:src/main.cpp  ****         float freq_sub = freq_vib * VOICE.sub_ratio;
 909:src/main.cpp  ****         float freq_oct = freq_vib * VOICE.oct_ratio;
 910:src/main.cpp  **** 
 911:src/main.cpp  ****         // Ring mod carrier. ringmod_ratio=1.0 is unison; non-integer ratios give
 912:src/main.cpp  ****         // inharmonic bell/metallic tones.
 913:src/main.cpp  ****         float freq_rm = freq_vib * VOICE.ringmod_ratio;
ARM GAS  /tmp/claude-502/ccry90Vn.s 			page 34


 914:src/main.cpp  **** 
 915:src/main.cpp  ****         // Oscillators (mix levels are voice-defined).
 916:src/main.cpp  ****         float osc1    = osc(s_phase1,   VOICE.osc1_wave) * VOICE.osc1_level;
 517              		.loc 6 916 47 view .LVU159
 518 01e8 93F818A0 		ldrb	r10, [r3, #24]	@ zero_extendqisi2
 917:src/main.cpp  ****         float osc2    = osc(s_phase2,   VOICE.osc2_wave) * VOICE.osc2_level;
 519              		.loc 6 917 47 view .LVU160
 520 01ec 93F82490 		ldrb	r9, [r3, #36]	@ zero_extendqisi2
 918:src/main.cpp  ****         float sub     = osc(s_phase_sub,VOICE.sub_wave)  * VOICE.sub_level;
 521              		.loc 6 918 47 view .LVU161
 522 01f0 93F83080 		ldrb	r8, [r3, #48]	@ zero_extendqisi2
 919:src/main.cpp  ****         float osc_oct = osc(s_phase_oct,VOICE.oct_wave)  * VOICE.oct_level;
 523              		.loc 6 919 47 view .LVU162
 524 01f4 93F83C70 		ldrb	r7, [r3, #60]	@ zero_extendqisi2
 525              	.LBB504:
 900:src/main.cpp  ****             float det_ratio = 1.0f + s_detune * 0.05776f; // linear approx, good for ┬▒1 oct
 526              		.loc 6 900 18 view .LVU163
 527 01f8 0E92     		str	r2, [sp, #56]
 528 01fa 384A     		ldr	r2, .L207+92
 529              	.LBE504:
 887:src/main.cpp  ****         if(s_lfo_phase>=1.0f)s_lfo_phase-=1.0f;
 530              		.loc 6 887 28 view .LVU164
 531 01fc 8DED0D7A 		vstr.32	s14, [sp, #52]
 852:src/main.cpp  ****         s_vibdepth= s_vibdepth* SLEW_MISC + tvib * (1.0f - SLEW_MISC);
 532              		.loc 6 852 50 view .LVU165
 533 0200 29EEA77A 		vmul.f32	s14, s19, s15
 534 0204 8DED0A7A 		vstr.32	s14, [sp, #40]
 853:src/main.cpp  ****         // Finger 2 params: fast attack, slow release
 535              		.loc 6 853 50 view .LVU166
 536 0208 29EE277A 		vmul.f32	s14, s18, s15
 865:src/main.cpp  ****         // Pitch envelope decays toward 1.0 (no-op when pitch_env_oct == 0).
 537              		.loc 6 865 57 view .LVU167
 538 020c 68EEA77A 		vmul.f32	s15, s17, s15
 853:src/main.cpp  ****         // Finger 2 params: fast attack, slow release
 539              		.loc 6 853 50 view .LVU168
 540 0210 8DED0B7A 		vstr.32	s14, [sp, #44]
 865:src/main.cpp  ****         // Pitch envelope decays toward 1.0 (no-op when pitch_env_oct == 0).
 541              		.loc 6 865 57 view .LVU169
 542 0214 CDED0C7A 		vstr.32	s15, [sp, #48]
 908:src/main.cpp  ****         float freq_oct = freq_vib * VOICE.oct_ratio;
 543              		.loc 6 908 43 view .LVU170
 544 0218 D3ED0A7A 		vldr.32	s15, [r3, #40]
 545              	.LBB505:
 546              	.LBB506:
 757:src/main.cpp  ****     float fb = k*s_flt[3];
 547              		.loc 6 757 11 view .LVU171
 548 021c 9FED307A 		vldr.32	s14, .L207+96
 549              	.LBE506:
 550              	.LBE505:
 908:src/main.cpp  ****         float freq_oct = freq_vib * VOICE.oct_ratio;
 551              		.loc 6 908 43 view .LVU172
 552 0220 CDED0F7A 		vstr.32	s15, [sp, #60]
 909:src/main.cpp  **** 
 553              		.loc 6 909 43 view .LVU173
 554 0224 D3ED0D7A 		vldr.32	s15, [r3, #52]
 555 0228 CDED107A 		vstr.32	s15, [sp, #64]
 913:src/main.cpp  **** 
ARM GAS  /tmp/claude-502/ccry90Vn.s 			page 35


 556              		.loc 6 913 42 view .LVU174
 557 022c D3ED167A 		vldr.32	s15, [r3, #88]
 558 0230 CDED117A 		vstr.32	s15, [sp, #68]
 916:src/main.cpp  ****         float osc2    = osc(s_phase2,   VOICE.osc2_wave) * VOICE.osc2_level;
 559              		.loc 6 916 66 view .LVU175
 560 0234 D3ED057A 		vldr.32	s15, [r3, #20]
 561 0238 CDED167A 		vstr.32	s15, [sp, #88]
 562              	.LBB592:
 563              	.LBB583:
 757:src/main.cpp  ****     float fb = k*s_flt[3];
 564              		.loc 6 757 11 view .LVU176
 565 023c D3ED127A 		vldr.32	s15, [r3, #72]
 566 0240 67EE677A 		vnmul.f32	s15, s14, s15
 567 0244 CDED137A 		vstr.32	s15, [sp, #76]
 568              	.LBE583:
 569              	.LBE592:
 917:src/main.cpp  ****         float sub     = osc(s_phase_sub,VOICE.sub_wave)  * VOICE.sub_level;
 570              		.loc 6 917 66 view .LVU177
 571 0248 D3ED087A 		vldr.32	s15, [r3, #32]
 572 024c CDED177A 		vstr.32	s15, [sp, #92]
 918:src/main.cpp  ****         float osc_oct = osc(s_phase_oct,VOICE.oct_wave)  * VOICE.oct_level;
 573              		.loc 6 918 66 view .LVU178
 574 0250 D3ED0B7A 		vldr.32	s15, [r3, #44]
 575 0254 CDED187A 		vstr.32	s15, [sp, #96]
 576              		.loc 6 919 66 view .LVU179
 577 0258 D3ED0E7A 		vldr.32	s15, [r3, #56]
 578 025c CDED197A 		vstr.32	s15, [sp, #100]
 579              	.LBB593:
 920:src/main.cpp  **** 
 921:src/main.cpp  ****         // Noise (xorshift32 ŌåÆ -1..1), voice-defined level. Adds breath / chiff /
 922:src/main.cpp  ****         // hiss. noise_hp blends from full white ("shhh") to high-passed ("tsss",
 923:src/main.cpp  ****         // for hi-hats). The `if` folds away when a voice sets noise_level = 0.
 924:src/main.cpp  ****         float noise = 0.0f;
 925:src/main.cpp  ****         if(VOICE.noise_level > 0.0f){
 580              		.loc 6 925 18 view .LVU180
 581 0260 D3ED147A 		vldr.32	s15, [r3, #80]
 582 0264 CDED047A 		vstr.32	s15, [sp, #16]
 583              	.LBE593:
 926:src/main.cpp  ****             s_noise_rng ^= s_noise_rng << 13;
 927:src/main.cpp  ****             s_noise_rng ^= s_noise_rng >> 17;
 928:src/main.cpp  ****             s_noise_rng ^= s_noise_rng << 5;
 929:src/main.cpp  ****             float white = (float)(int32_t)s_noise_rng * (1.0f/2147483648.0f);
 930:src/main.cpp  ****             // One-pole high-pass = white minus its low-frequency content.
 931:src/main.cpp  ****             s_noise_lp += NOISE_HP_COEF * (white - s_noise_lp);
 932:src/main.cpp  ****             float bright = white - s_noise_lp;
 933:src/main.cpp  ****             // Blend white ŌåÆ high-passed by noise_hp (├Ś2 to make up lost level).
 934:src/main.cpp  ****             float n = white + (bright * 2.0f - white) * VOICE.noise_hp;
 935:src/main.cpp  ****             noise = n * VOICE.noise_level;
 936:src/main.cpp  ****         }
 937:src/main.cpp  **** 
 938:src/main.cpp  ****         // Mix oscillator stack + noise
 939:src/main.cpp  ****         float mix = osc1 + osc2 + sub + osc_oct + noise;
 940:src/main.cpp  **** 
 941:src/main.cpp  ****         // Ring modulation (finger 2 pressure ŌåÆ metallic/bell edge)
 942:src/main.cpp  ****         float rm_carrier = tri(s_phase_rm);
 943:src/main.cpp  ****         mix = mix*(1.0f-s_ringmod) + (mix*rm_carrier)*s_ringmod;
 944:src/main.cpp  **** 
ARM GAS  /tmp/claude-502/ccry90Vn.s 			page 36


 945:src/main.cpp  ****         // Waveshaper drive before filter (adds harmonics, warms tone)
 946:src/main.cpp  ****         mix = fast_tanh(mix * s_drive);
 947:src/main.cpp  **** 
 948:src/main.cpp  ****         // Moog ladder filter ŌĆö no attack boost (was causing onset clicks)
 949:src/main.cpp  ****         float eff_cutoff = clampf(s_cutoff, 20.0f, 20000.0f);
 950:src/main.cpp  ****         float filtered = moog(mix, eff_cutoff, VOICE.resonance, sr);
 951:src/main.cpp  **** 
 952:src/main.cpp  ****         // Wavefold distortion (finger 2 pressure)
 953:src/main.cpp  ****         float crushed = wavefold(filtered, s_bitcrush);
 954:src/main.cpp  **** 
 955:src/main.cpp  ****         // Soft clip output
 956:src/main.cpp  ****         float sample = fast_tanh(crushed * 1.3f) * s_amp * s_master_vol;
 957:src/main.cpp  **** 
 958:src/main.cpp  ****         out[0][i] = sample;
 959:src/main.cpp  ****         out[1][i] = sample;
 960:src/main.cpp  **** 
 961:src/main.cpp  ****         // Advance phases
 962:src/main.cpp  ****         s_phase1   += freq_vib*VOICE.osc1_ratio/sr;  if(s_phase1  >=1.0f)s_phase1  -=1.0f;
 584              		.loc 6 962 38 view .LVU181
 585 0268 D3ED047A 		vldr.32	s15, [r3, #16]
 586 026c 164B     		ldr	r3, .L207+72
 587 026e CDED127A 		vstr.32	s15, [sp, #72]
 588 0272 1493     		str	r3, [sp, #80]
 589 0274 1B4B     		ldr	r3, .L207+100
 590 0276 0596     		str	r6, [sp, #20]
 591 0278 1593     		str	r3, [sp, #84]
 592 027a 0B46     		mov	r3, r1
 593 027c 70E2     		b	.L110
 594              	.L208:
 595 027e 00BF     		.align	2
 596              	.L207:
 597 0280 00000000 		.word	.LANCHOR0
 598 0284 00000000 		.word	.LANCHOR1
 599 0288 00000000 		.word	.LANCHOR2
 600 028c 00000000 		.word	.LANCHOR3
 601 0290 00000000 		.word	.LANCHOR4
 602 0294 00000000 		.word	.LANCHOR5
 603 0298 00000000 		.word	.LANCHOR6
 604 029c 00000000 		.word	.LANCHOR7
 605 02a0 00000000 		.word	.LANCHOR8
 606 02a4 00000000 		.word	.LANCHOR9
 607 02a8 00000000 		.word	.LANCHOR10
 608 02ac 00000000 		.word	.LANCHOR11
 609 02b0 00000000 		.word	.LANCHOR12
 610 02b4 00000000 		.word	.LANCHOR13
 611 02b8 6F12833A 		.word	981668463
 612 02bc 00000000 		.word	.LANCHOR14
 613 02c0 00000000 		.word	.LANCHOR15
 614 02c4 00000000 		.word	.LANCHOR16
 615 02c8 00000000 		.word	.LANCHOR17
 616 02cc 00000000 		.word	.LANCHOR18
 617 02d0 00000000 		.word	.LANCHOR19
 618 02d4 00D7233C 		.word	1008981760
 619 02d8 00000000 		.word	.LANCHOR30
 620 02dc 00000000 		.word	.LANCHOR21
 621 02e0 33337340 		.word	1081291571
 622 02e4 00000000 		.word	.LANCHOR20
ARM GAS  /tmp/claude-502/ccry90Vn.s 			page 37


 623 02e8 00409C46 		.word	1184645120
 624 02ec 48E17A3F 		.word	1065017672
 625 02f0 0AD7233C 		.word	1008981770
 626 02f4 6666A63F 		.word	1067869798
 627 02f8 00007043 		.word	1131413504
 628              	.LVL34:
 629              	.L201:
 630              	.LBB595:
 631              	.LBB596:
 627:src/main.cpp  **** }
 632              		.loc 6 627 24 view .LVU182
 633 02fc 1FED067A 		vldr.32	s14, .L207+104
 634 0300 F4EEC75A 		vcmpe.f32	s11, s14
 635 0304 F1EE10FA 		vmrs	APSR_nzcv, FPSCR
 636 0308 00F35A85 		bgt	.L132
 627:src/main.cpp  **** }
 637              		.loc 6 627 24 view .LVU183
 638              	.LBE596:
 639              	.LBE595:
 640              	.LBB599:
 641              	.LBB584:
 755:src/main.cpp  ****     if(f>0.98f)f=0.98f;
 642              		.loc 6 755 19 view .LVU184
 643 030c 75EEA55A 		vadd.f32	s11, s11, s11
 644              	.LVL35:
 645              	.L81:
 755:src/main.cpp  ****     if(f>0.98f)f=0.98f;
 646              		.loc 6 755 19 view .LVU185
 647              	.LBE584:
 648              	.LBE599:
 950:src/main.cpp  **** 
 649              		.loc 6 950 9 is_stmt 1 view .LVU186
 650              	.LBB600:
 651              	.LBI505:
 753:src/main.cpp  **** {
 652              		.loc 6 753 21 view .LVU187
 653              	.LBB585:
 755:src/main.cpp  ****     if(f>0.98f)f=0.98f;
 654              		.loc 6 755 5 view .LVU188
 755:src/main.cpp  ****     if(f>0.98f)f=0.98f;
 655              		.loc 6 755 11 is_stmt 0 view .LVU189
 656 0310 85EE887A 		vdiv.f32	s14, s11, s16
 657              	.LVL36:
 756:src/main.cpp  ****     float k  = 3.8f*res;
 658              		.loc 6 756 5 is_stmt 1 view .LVU190
 759:src/main.cpp  ****     s_flt[0]+=f*(fast_tanh(x)      -fast_tanh(s_flt[0]));
 659              		.loc 6 759 11 is_stmt 0 view .LVU191
 660 0314 DDED135A 		vldr.32	s11, [sp, #76]
 661 0318 E5EEA46A 		vfma.f32	s13, s11, s9
 662              	.LVL37:
 756:src/main.cpp  ****     float k  = 3.8f*res;
 663              		.loc 6 756 5 view .LVU192
 664 031c 5FED0D5A 		vldr.32	s11, .L207+108
 756:src/main.cpp  ****     float k  = 3.8f*res;
 665              		.loc 6 756 17 view .LVU193
 666 0320 B4EE657A 		vcmp.f32	s14, s11
 667 0324 F1EE10FA 		vmrs	APSR_nzcv, FPSCR
ARM GAS  /tmp/claude-502/ccry90Vn.s 			page 38


 668 0328 35FE877A 		vselgt.f32	s14, s11, s14
 669              	.LVL38:
 757:src/main.cpp  ****     float fb = k*s_flt[3];
 670              		.loc 6 757 5 is_stmt 1 view .LVU194
 758:src/main.cpp  ****     float x  = in - fb;
 671              		.loc 6 758 5 view .LVU195
 759:src/main.cpp  ****     s_flt[0]+=f*(fast_tanh(x)      -fast_tanh(s_flt[0]));
 672              		.loc 6 759 5 view .LVU196
 760:src/main.cpp  ****     s_flt[1]+=f*(fast_tanh(s_flt[0])-fast_tanh(s_flt[1]));
 673              		.loc 6 760 5 view .LVU197
 674              	.LBB507:
 675              	.LBI507:
 631:src/main.cpp  **** {
 676              		.loc 6 631 21 view .LVU198
 677              	.LBB508:
 633:src/main.cpp  ****     if(x<-3.0f)return -1.0f;
 678              		.loc 6 633 5 view .LVU199
 679 032c F0EE085A 		vmov.f32	s11, #3.0e+0
 680 0330 F4EEE56A 		vcmpe.f32	s13, s11
 681 0334 F1EE10FA 		vmrs	APSR_nzcv, FPSCR
 682 0338 00F31385 		bgt	.L133
 634:src/main.cpp  ****     float x2=x*x;
 683              		.loc 6 634 5 view .LVU200
 684 033c F8EE085A 		vmov.f32	s11, #-3.0e+0
 685 0340 F4EEE56A 		vcmpe.f32	s13, s11
 686 0344 F1EE10FA 		vmrs	APSR_nzcv, FPSCR
 687 0348 00F16386 		bmi	.L134
 688              	.LVL39:
 689              	.LBB509:
 690              	.LBI509:
 631:src/main.cpp  **** {
 691              		.loc 6 631 21 view .LVU201
 692              	.LBB510:
 635:src/main.cpp  ****     return x*(27.0f+x2)/(27.0f+9.0f*x2);
 693              		.loc 6 635 5 view .LVU202
 636:src/main.cpp  **** }
 694              		.loc 6 636 20 is_stmt 0 view .LVU203
 695 034c B3EE0B5A 		vmov.f32	s10, #2.7e+1
 635:src/main.cpp  ****     return x*(27.0f+x2)/(27.0f+9.0f*x2);
 696              		.loc 6 635 11 view .LVU204
 697 0350 66EEA65A 		vmul.f32	s11, s13, s13
 698              	.LVL40:
 636:src/main.cpp  **** }
 699              		.loc 6 636 5 is_stmt 1 view .LVU205
 636:src/main.cpp  **** }
 700              		.loc 6 636 31 is_stmt 0 view .LVU206
 701 0354 B2EE021A 		vmov.f32	s2, #9.0e+0
 702 0358 F0EE451A 		vmov.f32	s3, s10
 703 035c E5EE811A 		vfma.f32	s3, s11, s2
 636:src/main.cpp  **** }
 704              		.loc 6 636 20 view .LVU207
 705 0360 75EE855A 		vadd.f32	s11, s11, s10
 706              	.LVL41:
 636:src/main.cpp  **** }
 707              		.loc 6 636 13 view .LVU208
 708 0364 65EEA66A 		vmul.f32	s13, s11, s13
 709              	.LVL42:
ARM GAS  /tmp/claude-502/ccry90Vn.s 			page 39


 636:src/main.cpp  **** }
 710              		.loc 6 636 39 view .LVU209
 711 0368 C6EEA15A 		vdiv.f32	s11, s13, s3
 712              	.L84:
 713              	.LVL43:
 636:src/main.cpp  **** }
 714              		.loc 6 636 39 view .LVU210
 715              	.LBE510:
 716              	.LBE509:
 717              	.LBE508:
 718              	.LBE507:
 719              	.LBB513:
 720              	.LBI513:
 631:src/main.cpp  **** {
 721              		.loc 6 631 21 is_stmt 1 view .LVU211
 722              	.LBB514:
 633:src/main.cpp  ****     if(x<-3.0f)return -1.0f;
 723              		.loc 6 633 5 view .LVU212
 724 036c F0EE086A 		vmov.f32	s13, #3.0e+0
 725 0370 B4EEE63A 		vcmpe.f32	s6, s13
 726 0374 F1EE10FA 		vmrs	APSR_nzcv, FPSCR
 727 0378 00F3FD84 		bgt	.L135
 728              	.L205:
 634:src/main.cpp  ****     float x2=x*x;
 729              		.loc 6 634 5 view .LVU213
 730 037c F8EE086A 		vmov.f32	s13, #-3.0e+0
 731 0380 B4EEE63A 		vcmpe.f32	s6, s13
 732 0384 F1EE10FA 		vmrs	APSR_nzcv, FPSCR
 733 0388 00F13F86 		bmi	.L136
 734              	.LVL44:
 735              	.LBB515:
 736              	.LBI515:
 631:src/main.cpp  **** {
 737              		.loc 6 631 21 view .LVU214
 738              	.LBB516:
 635:src/main.cpp  ****     return x*(27.0f+x2)/(27.0f+9.0f*x2);
 739              		.loc 6 635 5 view .LVU215
 636:src/main.cpp  **** }
 740              		.loc 6 636 20 is_stmt 0 view .LVU216
 741 038c B3EE0B5A 		vmov.f32	s10, #2.7e+1
 635:src/main.cpp  ****     return x*(27.0f+x2)/(27.0f+9.0f*x2);
 742              		.loc 6 635 11 view .LVU217
 743 0390 63EE036A 		vmul.f32	s13, s6, s6
 744              	.LVL45:
 636:src/main.cpp  **** }
 745              		.loc 6 636 5 is_stmt 1 view .LVU218
 636:src/main.cpp  **** }
 746              		.loc 6 636 31 is_stmt 0 view .LVU219
 747 0394 B2EE021A 		vmov.f32	s2, #9.0e+0
 748 0398 F0EE451A 		vmov.f32	s3, s10
 749 039c E6EE811A 		vfma.f32	s3, s13, s2
 636:src/main.cpp  **** }
 750              		.loc 6 636 20 view .LVU220
 751 03a0 76EE856A 		vadd.f32	s13, s13, s10
 752              	.LVL46:
 636:src/main.cpp  **** }
 753              		.loc 6 636 13 view .LVU221
ARM GAS  /tmp/claude-502/ccry90Vn.s 			page 40


 754 03a4 66EE836A 		vmul.f32	s13, s13, s6
 636:src/main.cpp  **** }
 755              		.loc 6 636 39 view .LVU222
 756 03a8 86EEA15A 		vdiv.f32	s10, s13, s3
 757              	.LVL47:
 758              	.L85:
 636:src/main.cpp  **** }
 759              		.loc 6 636 39 view .LVU223
 760              	.LBE516:
 761              	.LBE515:
 762              	.LBE514:
 763              	.LBE513:
 760:src/main.cpp  ****     s_flt[1]+=f*(fast_tanh(s_flt[0])-fast_tanh(s_flt[1]));
 764              		.loc 6 760 36 view .LVU224
 765 03ac 75EEC55A 		vsub.f32	s11, s11, s10
 766              	.LBB520:
 767              	.LBB521:
 633:src/main.cpp  ****     if(x<-3.0f)return -1.0f;
 768              		.loc 6 633 5 view .LVU225
 769 03b0 F0EE086A 		vmov.f32	s13, #3.0e+0
 770              	.LBE521:
 771              	.LBE520:
 760:src/main.cpp  ****     s_flt[1]+=f*(fast_tanh(s_flt[0])-fast_tanh(s_flt[1]));
 772              		.loc 6 760 13 view .LVU226
 773 03b4 A5EE873A 		vfma.f32	s6, s11, s14
 774              	.LBB528:
 775              	.LBB524:
 633:src/main.cpp  ****     if(x<-3.0f)return -1.0f;
 776              		.loc 6 633 5 view .LVU227
 777 03b8 B4EEE63A 		vcmpe.f32	s6, s13
 778              	.LBE524:
 779              	.LBE528:
 760:src/main.cpp  ****     s_flt[1]+=f*(fast_tanh(s_flt[0])-fast_tanh(s_flt[1]));
 780              		.loc 6 760 13 view .LVU228
 781 03bc 84ED003A 		vstr.32	s6, [r4]
 761:src/main.cpp  ****     s_flt[2]+=f*(fast_tanh(s_flt[1])-fast_tanh(s_flt[2]));
 782              		.loc 6 761 5 is_stmt 1 view .LVU229
 783              	.LVL48:
 784              	.LBB529:
 785              	.LBI520:
 631:src/main.cpp  **** {
 786              		.loc 6 631 21 view .LVU230
 787              	.LBB525:
 633:src/main.cpp  ****     if(x<-3.0f)return -1.0f;
 788              		.loc 6 633 5 view .LVU231
 789 03c0 F1EE10FA 		vmrs	APSR_nzcv, FPSCR
 790 03c4 00F3F884 		bgt	.L137
 634:src/main.cpp  ****     float x2=x*x;
 791              		.loc 6 634 5 view .LVU232
 792 03c8 F8EE086A 		vmov.f32	s13, #-3.0e+0
 793 03cc B4EEE63A 		vcmpe.f32	s6, s13
 794 03d0 F1EE10FA 		vmrs	APSR_nzcv, FPSCR
 795 03d4 00F12586 		bmi	.L138
 796              	.LVL49:
 797              	.LBB522:
 798              	.LBI522:
 631:src/main.cpp  **** {
ARM GAS  /tmp/claude-502/ccry90Vn.s 			page 41


 799              		.loc 6 631 21 view .LVU233
 800              	.LBB523:
 635:src/main.cpp  ****     return x*(27.0f+x2)/(27.0f+9.0f*x2);
 801              		.loc 6 635 5 view .LVU234
 636:src/main.cpp  **** }
 802              		.loc 6 636 20 is_stmt 0 view .LVU235
 803 03d8 F3EE0B5A 		vmov.f32	s11, #2.7e+1
 635:src/main.cpp  ****     return x*(27.0f+x2)/(27.0f+9.0f*x2);
 804              		.loc 6 635 11 view .LVU236
 805 03dc 63EE036A 		vmul.f32	s13, s6, s6
 806              	.LVL50:
 636:src/main.cpp  **** }
 807              		.loc 6 636 5 is_stmt 1 view .LVU237
 636:src/main.cpp  **** }
 808              		.loc 6 636 31 is_stmt 0 view .LVU238
 809 03e0 F2EE021A 		vmov.f32	s3, #9.0e+0
 810 03e4 B0EE655A 		vmov.f32	s10, s11
 811 03e8 A6EEA15A 		vfma.f32	s10, s13, s3
 636:src/main.cpp  **** }
 812              		.loc 6 636 20 view .LVU239
 813 03ec 76EEA56A 		vadd.f32	s13, s13, s11
 814              	.LVL51:
 636:src/main.cpp  **** }
 815              		.loc 6 636 13 view .LVU240
 816 03f0 26EE833A 		vmul.f32	s6, s13, s6
 817              	.LVL52:
 636:src/main.cpp  **** }
 818              		.loc 6 636 39 view .LVU241
 819 03f4 C3EE056A 		vdiv.f32	s13, s6, s10
 820              	.LVL53:
 821              	.L86:
 636:src/main.cpp  **** }
 822              		.loc 6 636 39 view .LVU242
 823              	.LBE523:
 824              	.LBE522:
 825              	.LBE525:
 826              	.LBE529:
 827              	.LBB530:
 828              	.LBI530:
 631:src/main.cpp  **** {
 829              		.loc 6 631 21 is_stmt 1 view .LVU243
 830              	.LBB531:
 633:src/main.cpp  ****     if(x<-3.0f)return -1.0f;
 831              		.loc 6 633 5 view .LVU244
 832 03f8 F0EE085A 		vmov.f32	s11, #3.0e+0
 833 03fc F4EEE53A 		vcmpe.f32	s7, s11
 834 0400 F1EE10FA 		vmrs	APSR_nzcv, FPSCR
 835 0404 00F3D184 		bgt	.L139
 634:src/main.cpp  ****     float x2=x*x;
 836              		.loc 6 634 5 view .LVU245
 837 0408 F8EE085A 		vmov.f32	s11, #-3.0e+0
 838 040c F4EEE53A 		vcmpe.f32	s7, s11
 839 0410 F1EE10FA 		vmrs	APSR_nzcv, FPSCR
 840 0414 00F10186 		bmi	.L140
 841              	.LVL54:
 842              	.LBB532:
 843              	.LBI532:
ARM GAS  /tmp/claude-502/ccry90Vn.s 			page 42


 631:src/main.cpp  **** {
 844              		.loc 6 631 21 view .LVU246
 845              	.LBB533:
 635:src/main.cpp  ****     return x*(27.0f+x2)/(27.0f+9.0f*x2);
 846              		.loc 6 635 5 view .LVU247
 636:src/main.cpp  **** }
 847              		.loc 6 636 20 is_stmt 0 view .LVU248
 848 0418 B3EE0B5A 		vmov.f32	s10, #2.7e+1
 635:src/main.cpp  ****     return x*(27.0f+x2)/(27.0f+9.0f*x2);
 849              		.loc 6 635 11 view .LVU249
 850 041c 63EEA35A 		vmul.f32	s11, s7, s7
 851              	.LVL55:
 636:src/main.cpp  **** }
 852              		.loc 6 636 5 is_stmt 1 view .LVU250
 636:src/main.cpp  **** }
 853              		.loc 6 636 31 is_stmt 0 view .LVU251
 854 0420 F2EE021A 		vmov.f32	s3, #9.0e+0
 855 0424 B0EE453A 		vmov.f32	s6, s10
 856 0428 A5EEA13A 		vfma.f32	s6, s11, s3
 636:src/main.cpp  **** }
 857              		.loc 6 636 20 view .LVU252
 858 042c 75EE855A 		vadd.f32	s11, s11, s10
 859              	.LVL56:
 636:src/main.cpp  **** }
 860              		.loc 6 636 13 view .LVU253
 861 0430 65EEA35A 		vmul.f32	s11, s11, s7
 636:src/main.cpp  **** }
 862              		.loc 6 636 39 view .LVU254
 863 0434 85EE835A 		vdiv.f32	s10, s11, s6
 864              	.LVL57:
 865              	.L87:
 636:src/main.cpp  **** }
 866              		.loc 6 636 39 view .LVU255
 867              	.LBE533:
 868              	.LBE532:
 869              	.LBE531:
 870              	.LBE530:
 761:src/main.cpp  ****     s_flt[2]+=f*(fast_tanh(s_flt[1])-fast_tanh(s_flt[2]));
 871              		.loc 6 761 37 view .LVU256
 872 0438 76EEC56A 		vsub.f32	s13, s13, s10
 761:src/main.cpp  ****     s_flt[2]+=f*(fast_tanh(s_flt[1])-fast_tanh(s_flt[2]));
 873              		.loc 6 761 13 view .LVU257
 874 043c E7EE263A 		vfma.f32	s7, s14, s13
 875              	.LBB536:
 876              	.LBB537:
 633:src/main.cpp  ****     if(x<-3.0f)return -1.0f;
 877              		.loc 6 633 5 view .LVU258
 878 0440 F0EE086A 		vmov.f32	s13, #3.0e+0
 879 0444 F4EEE63A 		vcmpe.f32	s7, s13
 880              	.LBE537:
 881              	.LBE536:
 761:src/main.cpp  ****     s_flt[2]+=f*(fast_tanh(s_flt[1])-fast_tanh(s_flt[2]));
 882              		.loc 6 761 13 view .LVU259
 883 0448 C4ED013A 		vstr.32	s7, [r4, #4]
 762:src/main.cpp  ****     s_flt[3]+=f*(fast_tanh(s_flt[2])-fast_tanh(s_flt[3]));
 884              		.loc 6 762 5 is_stmt 1 view .LVU260
 885              	.LVL58:
ARM GAS  /tmp/claude-502/ccry90Vn.s 			page 43


 886              	.LBB543:
 887              	.LBI536:
 631:src/main.cpp  **** {
 888              		.loc 6 631 21 view .LVU261
 889              	.LBB540:
 633:src/main.cpp  ****     if(x<-3.0f)return -1.0f;
 890              		.loc 6 633 5 view .LVU262
 891 044c F1EE10FA 		vmrs	APSR_nzcv, FPSCR
 892 0450 00F3A784 		bgt	.L141
 634:src/main.cpp  ****     float x2=x*x;
 893              		.loc 6 634 5 view .LVU263
 894 0454 F8EE086A 		vmov.f32	s13, #-3.0e+0
 895 0458 F4EEE63A 		vcmpe.f32	s7, s13
 896 045c F1EE10FA 		vmrs	APSR_nzcv, FPSCR
 897 0460 00F1C085 		bmi	.L142
 898              	.LVL59:
 899              	.LBB538:
 900              	.LBI538:
 631:src/main.cpp  **** {
 901              		.loc 6 631 21 view .LVU264
 902              	.LBB539:
 635:src/main.cpp  ****     return x*(27.0f+x2)/(27.0f+9.0f*x2);
 903              		.loc 6 635 5 view .LVU265
 636:src/main.cpp  **** }
 904              		.loc 6 636 20 is_stmt 0 view .LVU266
 905 0464 F3EE0B5A 		vmov.f32	s11, #2.7e+1
 635:src/main.cpp  ****     return x*(27.0f+x2)/(27.0f+9.0f*x2);
 906              		.loc 6 635 11 view .LVU267
 907 0468 63EEA36A 		vmul.f32	s13, s7, s7
 908              	.LVL60:
 636:src/main.cpp  **** }
 909              		.loc 6 636 5 is_stmt 1 view .LVU268
 636:src/main.cpp  **** }
 910              		.loc 6 636 31 is_stmt 0 view .LVU269
 911 046c B2EE023A 		vmov.f32	s6, #9.0e+0
 912 0470 B0EE655A 		vmov.f32	s10, s11
 913 0474 A6EE835A 		vfma.f32	s10, s13, s6
 636:src/main.cpp  **** }
 914              		.loc 6 636 20 view .LVU270
 915 0478 76EEA56A 		vadd.f32	s13, s13, s11
 916              	.LVL61:
 636:src/main.cpp  **** }
 917              		.loc 6 636 13 view .LVU271
 918 047c 66EEA33A 		vmul.f32	s7, s13, s7
 919              	.LVL62:
 636:src/main.cpp  **** }
 920              		.loc 6 636 39 view .LVU272
 921 0480 C3EE856A 		vdiv.f32	s13, s7, s10
 922              	.LVL63:
 923              	.L88:
 636:src/main.cpp  **** }
 924              		.loc 6 636 39 view .LVU273
 925              	.LBE539:
 926              	.LBE538:
 927              	.LBE540:
 928              	.LBE543:
 929              	.LBB544:
ARM GAS  /tmp/claude-502/ccry90Vn.s 			page 44


 930              	.LBI544:
 631:src/main.cpp  **** {
 931              		.loc 6 631 21 is_stmt 1 view .LVU274
 932              	.LBB545:
 633:src/main.cpp  ****     if(x<-3.0f)return -1.0f;
 933              		.loc 6 633 5 view .LVU275
 934 0484 F0EE085A 		vmov.f32	s11, #3.0e+0
 935 0488 B4EEE54A 		vcmpe.f32	s8, s11
 936 048c F1EE10FA 		vmrs	APSR_nzcv, FPSCR
 937 0490 00F38384 		bgt	.L143
 634:src/main.cpp  ****     float x2=x*x;
 938              		.loc 6 634 5 view .LVU276
 939 0494 F8EE085A 		vmov.f32	s11, #-3.0e+0
 940 0498 B4EEE54A 		vcmpe.f32	s8, s11
 941 049c F1EE10FA 		vmrs	APSR_nzcv, FPSCR
 942 04a0 00F19C85 		bmi	.L144
 943              	.LVL64:
 944              	.LBB546:
 945              	.LBI546:
 631:src/main.cpp  **** {
 946              		.loc 6 631 21 view .LVU277
 947              	.LBB547:
 635:src/main.cpp  ****     return x*(27.0f+x2)/(27.0f+9.0f*x2);
 948              		.loc 6 635 5 view .LVU278
 636:src/main.cpp  **** }
 949              		.loc 6 636 20 is_stmt 0 view .LVU279
 950 04a4 B3EE0B5A 		vmov.f32	s10, #2.7e+1
 635:src/main.cpp  ****     return x*(27.0f+x2)/(27.0f+9.0f*x2);
 951              		.loc 6 635 11 view .LVU280
 952 04a8 64EE045A 		vmul.f32	s11, s8, s8
 953              	.LVL65:
 636:src/main.cpp  **** }
 954              		.loc 6 636 5 is_stmt 1 view .LVU281
 636:src/main.cpp  **** }
 955              		.loc 6 636 31 is_stmt 0 view .LVU282
 956 04ac B2EE023A 		vmov.f32	s6, #9.0e+0
 957 04b0 F0EE453A 		vmov.f32	s7, s10
 958 04b4 E5EE833A 		vfma.f32	s7, s11, s6
 636:src/main.cpp  **** }
 959              		.loc 6 636 20 view .LVU283
 960 04b8 75EE855A 		vadd.f32	s11, s11, s10
 961              	.LVL66:
 636:src/main.cpp  **** }
 962              		.loc 6 636 13 view .LVU284
 963 04bc 65EE845A 		vmul.f32	s11, s11, s8
 636:src/main.cpp  **** }
 964              		.loc 6 636 39 view .LVU285
 965 04c0 85EEA35A 		vdiv.f32	s10, s11, s7
 966              	.LVL67:
 967              	.L89:
 636:src/main.cpp  **** }
 968              		.loc 6 636 39 view .LVU286
 969              	.LBE547:
 970              	.LBE546:
 971              	.LBE545:
 972              	.LBE544:
 762:src/main.cpp  ****     s_flt[3]+=f*(fast_tanh(s_flt[2])-fast_tanh(s_flt[3]));
ARM GAS  /tmp/claude-502/ccry90Vn.s 			page 45


 973              		.loc 6 762 37 view .LVU287
 974 04c4 76EEC56A 		vsub.f32	s13, s13, s10
 762:src/main.cpp  ****     s_flt[3]+=f*(fast_tanh(s_flt[2])-fast_tanh(s_flt[3]));
 975              		.loc 6 762 13 view .LVU288
 976 04c8 A7EE264A 		vfma.f32	s8, s14, s13
 977              	.LBB550:
 978              	.LBB551:
 633:src/main.cpp  ****     if(x<-3.0f)return -1.0f;
 979              		.loc 6 633 5 view .LVU289
 980 04cc F0EE086A 		vmov.f32	s13, #3.0e+0
 981 04d0 B4EEE64A 		vcmpe.f32	s8, s13
 982              	.LBE551:
 983              	.LBE550:
 762:src/main.cpp  ****     s_flt[3]+=f*(fast_tanh(s_flt[2])-fast_tanh(s_flt[3]));
 984              		.loc 6 762 13 view .LVU290
 985 04d4 84ED024A 		vstr.32	s8, [r4, #8]
 763:src/main.cpp  ****     return s_flt[3];
 986              		.loc 6 763 5 is_stmt 1 view .LVU291
 987              	.LVL68:
 988              	.LBB557:
 989              	.LBI550:
 631:src/main.cpp  **** {
 990              		.loc 6 631 21 view .LVU292
 991              	.LBB554:
 633:src/main.cpp  ****     if(x<-3.0f)return -1.0f;
 992              		.loc 6 633 5 view .LVU293
 993 04d8 F1EE10FA 		vmrs	APSR_nzcv, FPSCR
 994 04dc 00F34F84 		bgt	.L145
 634:src/main.cpp  ****     float x2=x*x;
 995              		.loc 6 634 5 view .LVU294
 996 04e0 F8EE086A 		vmov.f32	s13, #-3.0e+0
 997 04e4 B4EEE64A 		vcmpe.f32	s8, s13
 998 04e8 F1EE10FA 		vmrs	APSR_nzcv, FPSCR
 999 04ec 00F18185 		bmi	.L146
 1000              	.LVL69:
 1001              	.LBB552:
 1002              	.LBI552:
 631:src/main.cpp  **** {
 1003              		.loc 6 631 21 view .LVU295
 1004              	.LBB553:
 635:src/main.cpp  ****     return x*(27.0f+x2)/(27.0f+9.0f*x2);
 1005              		.loc 6 635 5 view .LVU296
 636:src/main.cpp  **** }
 1006              		.loc 6 636 20 is_stmt 0 view .LVU297
 1007 04f0 F3EE0B5A 		vmov.f32	s11, #2.7e+1
 635:src/main.cpp  ****     return x*(27.0f+x2)/(27.0f+9.0f*x2);
 1008              		.loc 6 635 11 view .LVU298
 1009 04f4 64EE046A 		vmul.f32	s13, s8, s8
 1010              	.LVL70:
 636:src/main.cpp  **** }
 1011              		.loc 6 636 5 is_stmt 1 view .LVU299
 636:src/main.cpp  **** }
 1012              		.loc 6 636 31 is_stmt 0 view .LVU300
 1013 04f8 F2EE023A 		vmov.f32	s7, #9.0e+0
 1014 04fc B0EE655A 		vmov.f32	s10, s11
 1015 0500 A6EEA35A 		vfma.f32	s10, s13, s7
 636:src/main.cpp  **** }
ARM GAS  /tmp/claude-502/ccry90Vn.s 			page 46


 1016              		.loc 6 636 20 view .LVU301
 1017 0504 76EEA56A 		vadd.f32	s13, s13, s11
 1018              	.LVL71:
 636:src/main.cpp  **** }
 1019              		.loc 6 636 13 view .LVU302
 1020 0508 26EE844A 		vmul.f32	s8, s13, s8
 1021              	.LVL72:
 636:src/main.cpp  **** }
 1022              		.loc 6 636 39 view .LVU303
 1023 050c C4EE056A 		vdiv.f32	s13, s8, s10
 1024              	.LVL73:
 1025              	.L90:
 636:src/main.cpp  **** }
 1026              		.loc 6 636 39 view .LVU304
 1027              	.LBE553:
 1028              	.LBE552:
 1029              	.LBE554:
 1030              	.LBE557:
 1031              	.LBB558:
 1032              	.LBI558:
 631:src/main.cpp  **** {
 1033              		.loc 6 631 21 is_stmt 1 view .LVU305
 1034              	.LBB559:
 633:src/main.cpp  ****     if(x<-3.0f)return -1.0f;
 1035              		.loc 6 633 5 view .LVU306
 1036 0510 F0EE085A 		vmov.f32	s11, #3.0e+0
 1037 0514 F4EEE54A 		vcmpe.f32	s9, s11
 1038 0518 F1EE10FA 		vmrs	APSR_nzcv, FPSCR
 1039 051c 00F33984 		bgt	.L147
 1040              	.L206:
 634:src/main.cpp  ****     float x2=x*x;
 1041              		.loc 6 634 5 view .LVU307
 1042 0520 F8EE085A 		vmov.f32	s11, #-3.0e+0
 1043 0524 F4EEE54A 		vcmpe.f32	s9, s11
 1044 0528 F1EE10FA 		vmrs	APSR_nzcv, FPSCR
 1045 052c 00F16585 		bmi	.L148
 1046              	.LVL74:
 1047              	.LBB560:
 1048              	.LBI560:
 631:src/main.cpp  **** {
 1049              		.loc 6 631 21 view .LVU308
 1050              	.LBB561:
 635:src/main.cpp  ****     return x*(27.0f+x2)/(27.0f+9.0f*x2);
 1051              		.loc 6 635 5 view .LVU309
 636:src/main.cpp  **** }
 1052              		.loc 6 636 20 is_stmt 0 view .LVU310
 1053 0530 B3EE0B5A 		vmov.f32	s10, #2.7e+1
 635:src/main.cpp  ****     return x*(27.0f+x2)/(27.0f+9.0f*x2);
 1054              		.loc 6 635 11 view .LVU311
 1055 0534 64EEA45A 		vmul.f32	s11, s9, s9
 1056              	.LVL75:
 636:src/main.cpp  **** }
 1057              		.loc 6 636 5 is_stmt 1 view .LVU312
 636:src/main.cpp  **** }
 1058              		.loc 6 636 31 is_stmt 0 view .LVU313
 1059 0538 F2EE023A 		vmov.f32	s7, #9.0e+0
 1060 053c B0EE454A 		vmov.f32	s8, s10
ARM GAS  /tmp/claude-502/ccry90Vn.s 			page 47


 1061 0540 A5EEA34A 		vfma.f32	s8, s11, s7
 636:src/main.cpp  **** }
 1062              		.loc 6 636 20 view .LVU314
 1063 0544 75EE855A 		vadd.f32	s11, s11, s10
 1064              	.LVL76:
 636:src/main.cpp  **** }
 1065              		.loc 6 636 13 view .LVU315
 1066 0548 65EEA45A 		vmul.f32	s11, s11, s9
 636:src/main.cpp  **** }
 1067              		.loc 6 636 39 view .LVU316
 1068 054c 85EE845A 		vdiv.f32	s10, s11, s8
 1069              	.LVL77:
 1070              	.L91:
 636:src/main.cpp  **** }
 1071              		.loc 6 636 39 view .LVU317
 1072              	.LBE561:
 1073              	.LBE560:
 1074              	.LBE559:
 1075              	.LBE558:
 763:src/main.cpp  ****     return s_flt[3];
 1076              		.loc 6 763 37 view .LVU318
 1077 0550 76EEC56A 		vsub.f32	s13, s13, s10
 763:src/main.cpp  ****     return s_flt[3];
 1078              		.loc 6 763 13 view .LVU319
 1079 0554 E7EE264A 		vfma.f32	s9, s14, s13
 1080              	.LVL78:
 763:src/main.cpp  ****     return s_flt[3];
 1081              		.loc 6 763 13 view .LVU320
 1082              	.LBE585:
 1083              	.LBE600:
 1084              	.LBB601:
 1085              	.LBB602:
 772:src/main.cpp  ****     // Drive the signal harder as amount increases (1x to 5x)
 1086              		.loc 6 772 5 view .LVU321
 1087 0558 1FED9B7A 		vldr.32	s14, .L207+112
 1088              	.LVL79:
 772:src/main.cpp  ****     // Drive the signal harder as amount increases (1x to 5x)
 1089              		.loc 6 772 5 view .LVU322
 1090 055c F4EEC72A 		vcmpe.f32	s5, s14
 1091 0560 F1EE10FA 		vmrs	APSR_nzcv, FPSCR
 1092              	.LBE602:
 1093              	.LBE601:
 1094              	.LBB607:
 1095              	.LBB586:
 763:src/main.cpp  ****     return s_flt[3];
 1096              		.loc 6 763 13 view .LVU323
 1097 0564 C4ED034A 		vstr.32	s9, [r4, #12]
 764:src/main.cpp  **** }
 1098              		.loc 6 764 5 is_stmt 1 view .LVU324
 1099              	.LVL80:
 764:src/main.cpp  **** }
 1100              		.loc 6 764 5 is_stmt 0 view .LVU325
 1101              	.LBE586:
 1102              	.LBE607:
 953:src/main.cpp  **** 
 1103              		.loc 6 953 9 is_stmt 1 view .LVU326
 1104              	.LBB608:
ARM GAS  /tmp/claude-502/ccry90Vn.s 			page 48


 1105              	.LBI601:
 770:src/main.cpp  **** {
 1106              		.loc 6 770 21 view .LVU327
 1107              	.LBB606:
 772:src/main.cpp  ****     // Drive the signal harder as amount increases (1x to 5x)
 1108              		.loc 6 772 5 view .LVU328
 1109 0568 3BD4     		bmi	.L92
 774:src/main.cpp  ****     // Fold: reflect signal at ┬▒1 boundary repeatedly
 1110              		.loc 6 774 5 view .LVU329
 774:src/main.cpp  ****     // Fold: reflect signal at ┬▒1 boundary repeatedly
 1111              		.loc 6 774 31 is_stmt 0 view .LVU330
 1112 056a B7EE004A 		vmov.f32	s8, #1.0e+0
 1113 056e B1EE007A 		vmov.f32	s14, #4.0e+0
 1114              	.LBB603:
 782:src/main.cpp  ****         x = x * 2.0f - 1.0f;           // back to -1..1
 1115              		.loc 6 782 33 view .LVU331
 1116 0572 B0EE005A 		vmov.f32	s10, #2.0e+0
 1117              	.LBE603:
 774:src/main.cpp  ****     // Fold: reflect signal at ┬▒1 boundary repeatedly
 1118              		.loc 6 774 31 view .LVU332
 1119 0576 F0EE446A 		vmov.f32	s13, s8
 786:src/main.cpp  **** }
 1120              		.loc 6 786 20 view .LVU333
 1121 057a 74EE623A 		vsub.f32	s7, s8, s5
 774:src/main.cpp  ****     // Fold: reflect signal at ┬▒1 boundary repeatedly
 1122              		.loc 6 774 31 view .LVU334
 1123 057e E2EE876A 		vfma.f32	s13, s5, s14
 1124              	.LVL81:
 777:src/main.cpp  ****     // 2 passes of folding for richness
 1125              		.loc 6 777 5 is_stmt 1 view .LVU335
 779:src/main.cpp  ****         x = x * 0.5f + 0.5f;           // shift to 0..1
 1126              		.loc 6 779 5 view .LVU336
 1127              	.LBB604:
 779:src/main.cpp  ****         x = x * 0.5f + 0.5f;           // shift to 0..1
 1128              		.loc 6 779 28 view .LVU337
 780:src/main.cpp  ****         x = x - floorf(x);              // wrap to 0..1
 1129              		.loc 6 780 9 view .LVU338
 780:src/main.cpp  ****         x = x - floorf(x);              // wrap to 0..1
 1130              		.loc 6 780 11 is_stmt 0 view .LVU339
 1131 0582 B6EE007A 		vmov.f32	s14, #5.0e-1
 1132 0586 F0EE475A 		vmov.f32	s11, s14
 1133              	.LBE604:
 774:src/main.cpp  ****     // Fold: reflect signal at ┬▒1 boundary repeatedly
 1134              		.loc 6 774 11 view .LVU340
 1135 058a 66EEA46A 		vmul.f32	s13, s13, s9
 1136              	.LVL82:
 1137              	.LBB605:
 780:src/main.cpp  ****         x = x - floorf(x);              // wrap to 0..1
 1138              		.loc 6 780 11 view .LVU341
 1139 058e E6EE875A 		vfma.f32	s11, s13, s14
 1140              	.LVL83:
 781:src/main.cpp  ****         x = 1.0f - fabsf(2.0f*x - 1.0f); // triangle fold
 1141              		.loc 6 781 9 is_stmt 1 view .LVU342
 782:src/main.cpp  ****         x = x * 2.0f - 1.0f;           // back to -1..1
 1142              		.loc 6 782 33 is_stmt 0 view .LVU343
 1143 0592 FFEE006A 		vmov.f32	s13, #-1.0e+0
 1144              	.LVL84:
ARM GAS  /tmp/claude-502/ccry90Vn.s 			page 49


 781:src/main.cpp  ****         x = 1.0f - fabsf(2.0f*x - 1.0f); // triangle fold
 1145              		.loc 6 781 23 view .LVU344
 1146 0596 BBFE653A 		vrintm.f32	s6, s11
 1147              	.LVL85:
 782:src/main.cpp  ****         x = x * 2.0f - 1.0f;           // back to -1..1
 1148              		.loc 6 782 9 is_stmt 1 view .LVU345
 781:src/main.cpp  ****         x = 1.0f - fabsf(2.0f*x - 1.0f); // triangle fold
 1149              		.loc 6 781 11 is_stmt 0 view .LVU346
 1150 059a 35EEC33A 		vsub.f32	s6, s11, s6
 1151              	.LVL86:
 782:src/main.cpp  ****         x = x * 2.0f - 1.0f;           // back to -1..1
 1152              		.loc 6 782 33 view .LVU347
 1153 059e F0EE665A 		vmov.f32	s11, s13
 1154 05a2 E3EE055A 		vfma.f32	s11, s6, s10
 783:src/main.cpp  ****     }
 1155              		.loc 6 783 11 view .LVU348
 1156 05a6 B0EE663A 		vmov.f32	s6, s13
 1157              	.LVL87:
 782:src/main.cpp  ****         x = x * 2.0f - 1.0f;           // back to -1..1
 1158              		.loc 6 782 25 view .LVU349
 1159 05aa F0EEE55A 		vabs.f32	s11, s11
 782:src/main.cpp  ****         x = x * 2.0f - 1.0f;           // back to -1..1
 1160              		.loc 6 782 11 view .LVU350
 1161 05ae 74EE655A 		vsub.f32	s11, s8, s11
 1162              	.LVL88:
 783:src/main.cpp  ****     }
 1163              		.loc 6 783 9 is_stmt 1 view .LVU351
 783:src/main.cpp  ****     }
 1164              		.loc 6 783 11 is_stmt 0 view .LVU352
 1165 05b2 A5EE853A 		vfma.f32	s6, s11, s10
 1166              	.LVL89:
 779:src/main.cpp  ****         x = x * 0.5f + 0.5f;           // shift to 0..1
 1167              		.loc 6 779 5 is_stmt 1 view .LVU353
 779:src/main.cpp  ****         x = x * 0.5f + 0.5f;           // shift to 0..1
 1168              		.loc 6 779 28 view .LVU354
 780:src/main.cpp  ****         x = x - floorf(x);              // wrap to 0..1
 1169              		.loc 6 780 9 view .LVU355
 780:src/main.cpp  ****         x = x - floorf(x);              // wrap to 0..1
 1170              		.loc 6 780 11 is_stmt 0 view .LVU356
 1171 05b6 A3EE077A 		vfma.f32	s14, s6, s14
 1172              	.LVL90:
 781:src/main.cpp  ****         x = 1.0f - fabsf(2.0f*x - 1.0f); // triangle fold
 1173              		.loc 6 781 9 is_stmt 1 view .LVU357
 781:src/main.cpp  ****         x = 1.0f - fabsf(2.0f*x - 1.0f); // triangle fold
 1174              		.loc 6 781 23 is_stmt 0 view .LVU358
 1175 05ba FBFE475A 		vrintm.f32	s11, s14
 1176              	.LVL91:
 782:src/main.cpp  ****         x = x * 2.0f - 1.0f;           // back to -1..1
 1177              		.loc 6 782 9 is_stmt 1 view .LVU359
 781:src/main.cpp  ****         x = 1.0f - fabsf(2.0f*x - 1.0f); // triangle fold
 1178              		.loc 6 781 11 is_stmt 0 view .LVU360
 1179 05be 37EE657A 		vsub.f32	s14, s14, s11
 1180              	.LVL92:
 782:src/main.cpp  ****         x = x * 2.0f - 1.0f;           // back to -1..1
 1181              		.loc 6 782 33 view .LVU361
 1182 05c2 F0EE665A 		vmov.f32	s11, s13
 1183 05c6 E7EE055A 		vfma.f32	s11, s14, s10
ARM GAS  /tmp/claude-502/ccry90Vn.s 			page 50


 782:src/main.cpp  ****         x = x * 2.0f - 1.0f;           // back to -1..1
 1184              		.loc 6 782 25 view .LVU362
 1185 05ca F0EEE55A 		vabs.f32	s11, s11
 782:src/main.cpp  ****         x = x * 2.0f - 1.0f;           // back to -1..1
 1186              		.loc 6 782 11 view .LVU363
 1187 05ce 74EE655A 		vsub.f32	s11, s8, s11
 1188              	.LVL93:
 783:src/main.cpp  ****     }
 1189              		.loc 6 783 9 is_stmt 1 view .LVU364
 783:src/main.cpp  ****     }
 1190              		.loc 6 783 11 is_stmt 0 view .LVU365
 1191 05d2 E5EE856A 		vfma.f32	s13, s11, s10
 1192              	.LVL94:
 779:src/main.cpp  ****         x = x * 0.5f + 0.5f;           // shift to 0..1
 1193              		.loc 6 779 5 is_stmt 1 view .LVU366
 779:src/main.cpp  ****         x = x * 0.5f + 0.5f;           // shift to 0..1
 1194              		.loc 6 779 28 view .LVU367
 1195              	.LBE605:
 786:src/main.cpp  **** }
 1196              		.loc 6 786 5 view .LVU368
 786:src/main.cpp  **** }
 1197              		.loc 6 786 32 is_stmt 0 view .LVU369
 1198 05d6 62EEA66A 		vmul.f32	s13, s5, s13
 1199              	.LVL95:
 786:src/main.cpp  **** }
 1200              		.loc 6 786 33 view .LVU370
 1201 05da E3EEA46A 		vfma.f32	s13, s7, s9
 1202 05de F0EE664A 		vmov.f32	s9, s13
 1203              	.LVL96:
 1204              	.L92:
 786:src/main.cpp  **** }
 1205              		.loc 6 786 33 view .LVU371
 1206              	.LBE606:
 1207              	.LBE608:
 956:src/main.cpp  **** 
 1208              		.loc 6 956 9 is_stmt 1 view .LVU372
 956:src/main.cpp  **** 
 1209              		.loc 6 956 33 is_stmt 0 view .LVU373
 1210 05e2 1FEDBC7A 		vldr.32	s14, .L207+116
 1211 05e6 64EE874A 		vmul.f32	s9, s9, s14
 1212              	.LVL97:
 1213              	.LBB609:
 1214              	.LBI609:
 631:src/main.cpp  **** {
 1215              		.loc 6 631 21 is_stmt 1 view .LVU374
 1216              	.LBB610:
 633:src/main.cpp  ****     if(x<-3.0f)return -1.0f;
 1217              		.loc 6 633 5 view .LVU375
 1218 05ea B0EE087A 		vmov.f32	s14, #3.0e+0
 1219 05ee F4EEC74A 		vcmpe.f32	s9, s14
 1220 05f2 F1EE10FA 		vmrs	APSR_nzcv, FPSCR
 1221 05f6 19DC     		bgt	.L93
 634:src/main.cpp  ****     float x2=x*x;
 1222              		.loc 6 634 5 view .LVU376
 1223 05f8 B8EE087A 		vmov.f32	s14, #-3.0e+0
 1224 05fc F4EEC74A 		vcmpe.f32	s9, s14
 1225 0600 F1EE10FA 		vmrs	APSR_nzcv, FPSCR
ARM GAS  /tmp/claude-502/ccry90Vn.s 			page 51


 1226 0604 00F1FD84 		bmi	.L196
 1227              	.LVL98:
 1228              	.LBB611:
 1229              	.LBI611:
 631:src/main.cpp  **** {
 1230              		.loc 6 631 21 view .LVU377
 1231              	.LBB612:
 635:src/main.cpp  ****     return x*(27.0f+x2)/(27.0f+9.0f*x2);
 1232              		.loc 6 635 5 view .LVU378
 636:src/main.cpp  **** }
 1233              		.loc 6 636 20 is_stmt 0 view .LVU379
 1234 0608 F3EE0B6A 		vmov.f32	s13, #2.7e+1
 635:src/main.cpp  ****     return x*(27.0f+x2)/(27.0f+9.0f*x2);
 1235              		.loc 6 635 11 view .LVU380
 1236 060c 24EEA47A 		vmul.f32	s14, s9, s9
 1237              	.LVL99:
 636:src/main.cpp  **** }
 1238              		.loc 6 636 5 is_stmt 1 view .LVU381
 636:src/main.cpp  **** }
 1239              		.loc 6 636 31 is_stmt 0 view .LVU382
 1240 0610 B2EE025A 		vmov.f32	s10, #9.0e+0
 1241 0614 F0EE665A 		vmov.f32	s11, s13
 1242 0618 E7EE055A 		vfma.f32	s11, s14, s10
 1243              	.LVL100:
 636:src/main.cpp  **** }
 1244              		.loc 6 636 20 view .LVU383
 1245 061c 37EE267A 		vadd.f32	s14, s14, s13
 636:src/main.cpp  **** }
 1246              		.loc 6 636 13 view .LVU384
 1247 0620 67EE244A 		vmul.f32	s9, s14, s9
 1248              	.LVL101:
 636:src/main.cpp  **** }
 1249              		.loc 6 636 39 view .LVU385
 1250 0624 84EEA57A 		vdiv.f32	s14, s9, s11
 1251              	.LBE612:
 1252              	.LBE611:
 1253              	.LBE610:
 1254              	.LBE609:
 956:src/main.cpp  **** 
 1255              		.loc 6 956 50 view .LVU386
 1256 0628 26EE076A 		vmul.f32	s12, s12, s14
 1257              	.L93:
 1258              		.loc 6 962 31 view .LVU387
 1259 062c 9DED127A 		vldr.32	s14, [sp, #72]
 956:src/main.cpp  **** 
 1260              		.loc 6 956 60 view .LVU388
 1261 0630 2AEE066A 		vmul.f32	s12, s20, s12
 1262              	.LVL102:
 958:src/main.cpp  ****         out[1][i] = sample;
 1263              		.loc 6 958 9 is_stmt 1 view .LVU389
 958:src/main.cpp  ****         out[1][i] = sample;
 1264              		.loc 6 958 19 is_stmt 0 view .LVU390
 1265 0634 DBF80010 		ldr	r1, [fp]
 1266              		.loc 6 962 31 view .LVU391
 1267 0638 67EE877A 		vmul.f32	s15, s15, s14
 1268              	.LVL103:
 963:src/main.cpp  ****         s_phase2   += freq2   /sr;  if(s_phase2  >=1.0f)s_phase2  -=1.0f;
ARM GAS  /tmp/claude-502/ccry90Vn.s 			page 52


 964:src/main.cpp  ****         s_phase_sub+= freq_sub/sr;  if(s_phase_sub>=1.0f)s_phase_sub-=1.0f;
 965:src/main.cpp  ****         s_phase_oct+= freq_oct/sr;  if(s_phase_oct>=1.0f)s_phase_oct-=1.0f;
 966:src/main.cpp  ****         s_phase_rm += freq_rm /sr;  if(s_phase_rm >=1.0f)s_phase_rm -=1.0f;
 967:src/main.cpp  **** 
 968:src/main.cpp  ****         // LED3 PWM tick. Smooth duty, recompute threshold, compare counter.
 969:src/main.cpp  ****         led3_duty_smooth += (duty_target - led3_duty_smooth) * DUTY_TC;
 1269              		.loc 6 969 42 view .LVU392
 1270 063c DDED095A 		vldr.32	s11, [sp, #36]
 958:src/main.cpp  ****         out[1][i] = sample;
 1271              		.loc 6 958 19 view .LVU393
 1272 0640 01EB8501 		add	r1, r1, r5, lsl #2
 970:src/main.cpp  ****         uint32_t threshold = (uint32_t)(led3_duty_smooth * (float)PWM_LEVELS + 0.5f);
 1273              		.loc 6 970 78 view .LVU394
 1274 0644 5FEDD46A 		vldr.32	s13, .L207+120
 971:src/main.cpp  ****         if(threshold > PWM_LEVELS) threshold = PWM_LEVELS;
 972:src/main.cpp  ****         if(++pwm_counter >= PWM_LEVELS) pwm_counter = 0;
 1275              		.loc 6 972 12 view .LVU395
 1276 0648 DE4E     		ldr	r6, .L209
 962:src/main.cpp  ****         s_phase2   += freq2   /sr;  if(s_phase2  >=1.0f)s_phase2  -=1.0f;
 1277              		.loc 6 962 48 view .LVU396
 1278 064a 87EE887A 		vdiv.f32	s14, s15, s16
 958:src/main.cpp  ****         out[1][i] = sample;
 1279              		.loc 6 958 19 view .LVU397
 1280 064e 81ED006A 		vstr.32	s12, [r1]
 959:src/main.cpp  **** 
 1281              		.loc 6 959 9 is_stmt 1 view .LVU398
 959:src/main.cpp  **** 
 1282              		.loc 6 959 19 is_stmt 0 view .LVU399
 1283 0652 DBF80410 		ldr	r1, [fp, #4]
 1284 0656 01EB8501 		add	r1, r1, r5, lsl #2
 963:src/main.cpp  ****         s_phase_sub+= freq_sub/sr;  if(s_phase_sub>=1.0f)s_phase_sub-=1.0f;
 1285              		.loc 6 963 31 view .LVU400
 1286 065a CDEE087A 		vdiv.f32	s15, s26, s16
 959:src/main.cpp  **** 
 1287              		.loc 6 959 19 view .LVU401
 1288 065e 81ED006A 		vstr.32	s12, [r1]
 962:src/main.cpp  ****         s_phase2   += freq2   /sr;  if(s_phase2  >=1.0f)s_phase2  -=1.0f;
 1289              		.loc 6 962 9 is_stmt 1 view .LVU402
 962:src/main.cpp  ****         s_phase2   += freq2   /sr;  if(s_phase2  >=1.0f)s_phase2  -=1.0f;
 1290              		.loc 6 962 54 view .LVU403
 962:src/main.cpp  ****         s_phase2   += freq2   /sr;  if(s_phase2  >=1.0f)s_phase2  -=1.0f;
 1291              		.loc 6 962 84 is_stmt 0 view .LVU404
 1292 0662 D949     		ldr	r1, .L209+4
 969:src/main.cpp  ****         uint32_t threshold = (uint32_t)(led3_duty_smooth * (float)PWM_LEVELS + 0.5f);
 1293              		.loc 6 969 26 view .LVU405
 1294 0664 9FEDD96A 		vldr.32	s12, .L209+8
 1295              	.LVL104:
 962:src/main.cpp  ****         s_phase2   += freq2   /sr;  if(s_phase2  >=1.0f)s_phase2  -=1.0f;
 1296              		.loc 6 962 20 view .LVU406
 1297 0668 37EE297A 		vadd.f32	s14, s14, s19
 962:src/main.cpp  ****         s_phase2   += freq2   /sr;  if(s_phase2  >=1.0f)s_phase2  -=1.0f;
 1298              		.loc 6 962 54 view .LVU407
 1299 066c F7EE009A 		vmov.f32	s19, #1.0e+0
 1300 0670 B4EEE97A 		vcmpe.f32	s14, s19
 963:src/main.cpp  ****         s_phase_sub+= freq_sub/sr;  if(s_phase_sub>=1.0f)s_phase_sub-=1.0f;
 1301              		.loc 6 963 20 view .LVU408
 1302 0674 37EE899A 		vadd.f32	s18, s15, s18
ARM GAS  /tmp/claude-502/ccry90Vn.s 			page 53


 964:src/main.cpp  ****         s_phase_oct+= freq_oct/sr;  if(s_phase_oct>=1.0f)s_phase_oct-=1.0f;
 1303              		.loc 6 964 31 view .LVU409
 1304 0678 CCEE087A 		vdiv.f32	s15, s24, s16
 962:src/main.cpp  ****         s_phase2   += freq2   /sr;  if(s_phase2  >=1.0f)s_phase2  -=1.0f;
 1305              		.loc 6 962 54 view .LVU410
 1306 067c F1EE10FA 		vmrs	APSR_nzcv, FPSCR
 962:src/main.cpp  ****         s_phase2   += freq2   /sr;  if(s_phase2  >=1.0f)s_phase2  -=1.0f;
 1307              		.loc 6 962 74 is_stmt 1 view .LVU411
 962:src/main.cpp  ****         s_phase2   += freq2   /sr;  if(s_phase2  >=1.0f)s_phase2  -=1.0f;
 1308              		.loc 6 962 84 is_stmt 0 view .LVU412
 1309 0680 A8BF     		it	ge
 1310 0682 37EE697A 		vsubge.f32	s14, s14, s19
 1311 0686 81ED007A 		vstr.32	s14, [r1]
 963:src/main.cpp  ****         s_phase_sub+= freq_sub/sr;  if(s_phase_sub>=1.0f)s_phase_sub-=1.0f;
 1312              		.loc 6 963 9 is_stmt 1 view .LVU413
 963:src/main.cpp  ****         s_phase_sub+= freq_sub/sr;  if(s_phase_sub>=1.0f)s_phase_sub-=1.0f;
 1313              		.loc 6 963 37 view .LVU414
 1314 068a B7EE007A 		vmov.f32	s14, #1.0e+0
 963:src/main.cpp  ****         s_phase_sub+= freq_sub/sr;  if(s_phase_sub>=1.0f)s_phase_sub-=1.0f;
 1315              		.loc 6 963 67 is_stmt 0 view .LVU415
 1316 068e D049     		ldr	r1, .L209+12
 963:src/main.cpp  ****         s_phase_sub+= freq_sub/sr;  if(s_phase_sub>=1.0f)s_phase_sub-=1.0f;
 1317              		.loc 6 963 37 view .LVU416
 1318 0690 B4EEC79A 		vcmpe.f32	s18, s14
 964:src/main.cpp  ****         s_phase_oct+= freq_oct/sr;  if(s_phase_oct>=1.0f)s_phase_oct-=1.0f;
 1319              		.loc 6 964 20 view .LVU417
 1320 0694 77EEA88A 		vadd.f32	s17, s15, s17
 965:src/main.cpp  ****         s_phase_rm += freq_rm /sr;  if(s_phase_rm >=1.0f)s_phase_rm -=1.0f;
 1321              		.loc 6 965 31 view .LVU418
 1322 0698 CEEE087A 		vdiv.f32	s15, s28, s16
 963:src/main.cpp  ****         s_phase_sub+= freq_sub/sr;  if(s_phase_sub>=1.0f)s_phase_sub-=1.0f;
 1323              		.loc 6 963 37 view .LVU419
 1324 069c F1EE10FA 		vmrs	APSR_nzcv, FPSCR
 963:src/main.cpp  ****         s_phase_sub+= freq_sub/sr;  if(s_phase_sub>=1.0f)s_phase_sub-=1.0f;
 1325              		.loc 6 963 57 is_stmt 1 view .LVU420
 963:src/main.cpp  ****         s_phase_sub+= freq_sub/sr;  if(s_phase_sub>=1.0f)s_phase_sub-=1.0f;
 1326              		.loc 6 963 67 is_stmt 0 view .LVU421
 1327 06a0 A8BF     		it	ge
 1328 06a2 39EE479A 		vsubge.f32	s18, s18, s14
 964:src/main.cpp  ****         s_phase_oct+= freq_oct/sr;  if(s_phase_oct>=1.0f)s_phase_oct-=1.0f;
 1329              		.loc 6 964 37 view .LVU422
 1330 06a6 B7EE007A 		vmov.f32	s14, #1.0e+0
 963:src/main.cpp  ****         s_phase_sub+= freq_sub/sr;  if(s_phase_sub>=1.0f)s_phase_sub-=1.0f;
 1331              		.loc 6 963 67 view .LVU423
 1332 06aa 81ED009A 		vstr.32	s18, [r1]
 964:src/main.cpp  ****         s_phase_oct+= freq_oct/sr;  if(s_phase_oct>=1.0f)s_phase_oct-=1.0f;
 1333              		.loc 6 964 9 is_stmt 1 view .LVU424
 964:src/main.cpp  ****         s_phase_oct+= freq_oct/sr;  if(s_phase_oct>=1.0f)s_phase_oct-=1.0f;
 1334              		.loc 6 964 37 view .LVU425
 1335 06ae F4EEC78A 		vcmpe.f32	s17, s14
 964:src/main.cpp  ****         s_phase_oct+= freq_oct/sr;  if(s_phase_oct>=1.0f)s_phase_oct-=1.0f;
 1336              		.loc 6 964 69 is_stmt 0 view .LVU426
 1337 06b2 C849     		ldr	r1, .L209+16
 964:src/main.cpp  ****         s_phase_oct+= freq_oct/sr;  if(s_phase_oct>=1.0f)s_phase_oct-=1.0f;
 1338              		.loc 6 964 37 view .LVU427
 1339 06b4 F1EE10FA 		vmrs	APSR_nzcv, FPSCR
 964:src/main.cpp  ****         s_phase_oct+= freq_oct/sr;  if(s_phase_oct>=1.0f)s_phase_oct-=1.0f;
ARM GAS  /tmp/claude-502/ccry90Vn.s 			page 54


 1340              		.loc 6 964 58 is_stmt 1 view .LVU428
 965:src/main.cpp  ****         s_phase_rm += freq_rm /sr;  if(s_phase_rm >=1.0f)s_phase_rm -=1.0f;
 1341              		.loc 6 965 20 is_stmt 0 view .LVU429
 1342 06b8 37EE800A 		vadd.f32	s0, s15, s0
 966:src/main.cpp  **** 
 1343              		.loc 6 966 31 view .LVU430
 1344 06bc CDEE887A 		vdiv.f32	s15, s27, s16
 964:src/main.cpp  ****         s_phase_oct+= freq_oct/sr;  if(s_phase_oct>=1.0f)s_phase_oct-=1.0f;
 1345              		.loc 6 964 69 view .LVU431
 1346 06c0 A8BF     		it	ge
 1347 06c2 78EEC78A 		vsubge.f32	s17, s17, s14
 965:src/main.cpp  ****         s_phase_rm += freq_rm /sr;  if(s_phase_rm >=1.0f)s_phase_rm -=1.0f;
 1348              		.loc 6 965 37 view .LVU432
 1349 06c6 B7EE007A 		vmov.f32	s14, #1.0e+0
 964:src/main.cpp  ****         s_phase_oct+= freq_oct/sr;  if(s_phase_oct>=1.0f)s_phase_oct-=1.0f;
 1350              		.loc 6 964 69 view .LVU433
 1351 06ca C1ED008A 		vstr.32	s17, [r1]
 965:src/main.cpp  ****         s_phase_rm += freq_rm /sr;  if(s_phase_rm >=1.0f)s_phase_rm -=1.0f;
 1352              		.loc 6 965 9 is_stmt 1 view .LVU434
 965:src/main.cpp  ****         s_phase_rm += freq_rm /sr;  if(s_phase_rm >=1.0f)s_phase_rm -=1.0f;
 1353              		.loc 6 965 37 view .LVU435
 1354 06ce B4EEC70A 		vcmpe.f32	s0, s14
 965:src/main.cpp  ****         s_phase_rm += freq_rm /sr;  if(s_phase_rm >=1.0f)s_phase_rm -=1.0f;
 1355              		.loc 6 965 69 is_stmt 0 view .LVU436
 1356 06d2 C149     		ldr	r1, .L209+20
 965:src/main.cpp  ****         s_phase_rm += freq_rm /sr;  if(s_phase_rm >=1.0f)s_phase_rm -=1.0f;
 1357              		.loc 6 965 37 view .LVU437
 1358 06d4 F1EE10FA 		vmrs	APSR_nzcv, FPSCR
 965:src/main.cpp  ****         s_phase_rm += freq_rm /sr;  if(s_phase_rm >=1.0f)s_phase_rm -=1.0f;
 1359              		.loc 6 965 58 is_stmt 1 view .LVU438
 965:src/main.cpp  ****         s_phase_rm += freq_rm /sr;  if(s_phase_rm >=1.0f)s_phase_rm -=1.0f;
 1360              		.loc 6 965 69 is_stmt 0 view .LVU439
 1361 06d8 A8BF     		it	ge
 1362 06da 30EE470A 		vsubge.f32	s0, s0, s14
 966:src/main.cpp  **** 
 1363              		.loc 6 966 20 view .LVU440
 1364 06de 37EE822A 		vadd.f32	s4, s15, s4
 966:src/main.cpp  **** 
 1365              		.loc 6 966 37 view .LVU441
 1366 06e2 B7EE007A 		vmov.f32	s14, #1.0e+0
 965:src/main.cpp  ****         s_phase_rm += freq_rm /sr;  if(s_phase_rm >=1.0f)s_phase_rm -=1.0f;
 1367              		.loc 6 965 69 view .LVU442
 1368 06e6 81ED000A 		vstr.32	s0, [r1]
 966:src/main.cpp  **** 
 1369              		.loc 6 966 9 is_stmt 1 view .LVU443
 966:src/main.cpp  **** 
 1370              		.loc 6 966 37 view .LVU444
 970:src/main.cpp  ****         if(threshold > PWM_LEVELS) threshold = PWM_LEVELS;
 1371              		.loc 6 970 78 is_stmt 0 view .LVU445
 1372 06ea F6EE007A 		vmov.f32	s15, #5.0e-1
 966:src/main.cpp  **** 
 1373              		.loc 6 966 69 view .LVU446
 1374 06ee BB49     		ldr	r1, .L209+24
 966:src/main.cpp  **** 
 1375              		.loc 6 966 37 view .LVU447
 1376 06f0 B4EEC72A 		vcmpe.f32	s4, s14
 1377 06f4 F1EE10FA 		vmrs	APSR_nzcv, FPSCR
ARM GAS  /tmp/claude-502/ccry90Vn.s 			page 55


 966:src/main.cpp  **** 
 1378              		.loc 6 966 58 is_stmt 1 view .LVU448
 966:src/main.cpp  **** 
 1379              		.loc 6 966 69 is_stmt 0 view .LVU449
 1380 06f8 A8BF     		it	ge
 1381 06fa 32EE472A 		vsubge.f32	s4, s4, s14
 1382 06fe 81ED002A 		vstr.32	s4, [r1]
 969:src/main.cpp  ****         uint32_t threshold = (uint32_t)(led3_duty_smooth * (float)PWM_LEVELS + 0.5f);
 1383              		.loc 6 969 9 is_stmt 1 view .LVU450
 969:src/main.cpp  ****         uint32_t threshold = (uint32_t)(led3_duty_smooth * (float)PWM_LEVELS + 0.5f);
 1384              		.loc 6 969 42 is_stmt 0 view .LVU451
 1385 0702 B749     		ldr	r1, .L209+28
 1386 0704 91ED007A 		vldr.32	s14, [r1]
 1387 0708 75EEC75A 		vsub.f32	s11, s11, s14
 969:src/main.cpp  ****         uint32_t threshold = (uint32_t)(led3_duty_smooth * (float)PWM_LEVELS + 0.5f);
 1388              		.loc 6 969 26 view .LVU452
 1389 070c A5EE867A 		vfma.f32	s14, s11, s12
 970:src/main.cpp  ****         if(threshold > PWM_LEVELS) threshold = PWM_LEVELS;
 1390              		.loc 6 970 78 view .LVU453
 1391 0710 E7EE267A 		vfma.f32	s15, s14, s13
 969:src/main.cpp  ****         uint32_t threshold = (uint32_t)(led3_duty_smooth * (float)PWM_LEVELS + 0.5f);
 1392              		.loc 6 969 26 view .LVU454
 1393 0714 81ED007A 		vstr.32	s14, [r1]
 970:src/main.cpp  ****         if(threshold > PWM_LEVELS) threshold = PWM_LEVELS;
 1394              		.loc 6 970 9 is_stmt 1 view .LVU455
 1395              		.loc 6 972 12 is_stmt 0 view .LVU456
 1396 0718 3168     		ldr	r1, [r6]
 1397 071a 481C     		adds	r0, r1, #1
 970:src/main.cpp  ****         if(threshold > PWM_LEVELS) threshold = PWM_LEVELS;
 1398              		.loc 6 970 18 view .LVU457
 1399 071c FCEEE77A 		vcvt.u32.f32	s15, s15
 1400 0720 17EE901A 		vmov	r1, s15	@ int
 1401              	.LVL105:
 971:src/main.cpp  ****         if(++pwm_counter >= PWM_LEVELS) pwm_counter = 0;
 1402              		.loc 6 971 9 is_stmt 1 view .LVU458
 1403 0724 F029     		cmp	r1, #240
 1404 0726 28BF     		it	cs
 1405 0728 F021     		movcs	r1, #240
 1406              	.LVL106:
 1407              		.loc 6 972 9 view .LVU459
 1408 072a EF28     		cmp	r0, #239
 1409              		.loc 6 972 41 view .LVU460
 973:src/main.cpp  ****         bool desired = (pwm_counter < threshold);
 1410              		.loc 6 973 9 view .LVU461
 972:src/main.cpp  ****         bool desired = (pwm_counter < threshold);
 1411              		.loc 6 972 53 is_stmt 0 view .LVU462
 1412 072c 84BF     		itt	hi
 1413 072e 0020     		movhi	r0, #0
 1414 0730 A44E     		ldrhi	r6, .L209
 1415              		.loc 6 973 14 view .LVU463
 1416 0732 8142     		cmp	r1, r0
 972:src/main.cpp  ****         bool desired = (pwm_counter < threshold);
 1417              		.loc 6 972 53 view .LVU464
 1418 0734 3060     		str	r0, [r6]
 974:src/main.cpp  ****         if(desired != led3_state){ led3.Write(desired); led3_state = desired; }
 1419              		.loc 6 974 9 view .LVU465
 1420 0736 AB4E     		ldr	r6, .L209+32
ARM GAS  /tmp/claude-502/ccry90Vn.s 			page 56


 973:src/main.cpp  ****         bool desired = (pwm_counter < threshold);
 1421              		.loc 6 973 14 view .LVU466
 1422 0738 94BF     		ite	ls
 1423 073a 0021     		movls	r1, #0
 1424              	.LVL107:
 973:src/main.cpp  ****         bool desired = (pwm_counter < threshold);
 1425              		.loc 6 973 14 view .LVU467
 1426 073c 0121     		movhi	r1, #1
 1427              	.LVL108:
 1428              		.loc 6 974 9 is_stmt 1 view .LVU468
 1429 073e 3078     		ldrb	r0, [r6]	@ zero_extendqisi2
 1430 0740 8842     		cmp	r0, r1
 1431 0742 08D0     		beq	.L108
 1432              		.loc 6 974 46 is_stmt 0 discriminator 1 view .LVU469
 1433 0744 A848     		ldr	r0, .L209+36
 1434 0746 CDE90113 		strd	r1, r3, [sp, #4]
 1435 074a FFF7FEFF 		bl	_ZN5daisy4GPIO5WriteEb
 1436              	.LVL109:
 1437              		.loc 6 974 57 is_stmt 1 discriminator 1 view .LVU470
 1438              		.loc 6 974 68 is_stmt 0 discriminator 1 view .LVU471
 1439 074e 0199     		ldr	r1, [sp, #4]
 1440 0750 029B     		ldr	r3, [sp, #8]
 1441 0752 A64A     		ldr	r2, .L209+40
 1442 0754 3170     		strb	r1, [r6]
 1443              	.LVL110:
 1444              	.L108:
 1445              		.loc 6 974 68 discriminator 1 view .LVU472
 1446              	.LBE879:
 845:src/main.cpp  ****     {
 1447              		.loc 6 845 5 is_stmt 1 discriminator 2 view .LVU473
 1448 0756 0135     		adds	r5, r5, #1
 1449              	.LVL111:
 845:src/main.cpp  ****     {
 1450              		.loc 6 845 21 discriminator 2 view .LVU474
 1451 0758 0699     		ldr	r1, [sp, #24]
 1452 075a A942     		cmp	r1, r5
 1453 075c 00F08384 		beq	.L3
 1454              	.LVL112:
 1455              	.L110:
 1456              	.LBB880:
 848:src/main.cpp  ****         // Cutoff: fast when opening (smoothed), slow when closing (with release)
 1457              		.loc 6 848 9 view .LVU475
 848:src/main.cpp  ****         // Cutoff: fast when opening (smoothed), slow when closing (with release)
 1458              		.loc 6 848 54 is_stmt 0 view .LVU476
 1459 0760 F7EE005A 		vmov.f32	s11, #1.0e+0
 848:src/main.cpp  ****         // Cutoff: fast when opening (smoothed), slow when closing (with release)
 1460              		.loc 6 848 30 view .LVU477
 1461 0764 D3ED007A 		vldr.32	s15, [r3]
 848:src/main.cpp  ****         // Cutoff: fast when opening (smoothed), slow when closing (with release)
 1462              		.loc 6 848 48 view .LVU478
 1463 0768 9DED086A 		vldr.32	s12, [sp, #32]
 1464              	.LBB613:
 850:src/main.cpp  ****           s_cutoff = s_cutoff * sc + tcut * (1.0f - sc); }
 1465              		.loc 6 850 28 view .LVU479
 1466 076c A049     		ldr	r1, .L209+44
 1467              	.LBE613:
 848:src/main.cpp  ****         // Cutoff: fast when opening (smoothed), slow when closing (with release)
ARM GAS  /tmp/claude-502/ccry90Vn.s 			page 57


 1468              		.loc 6 848 54 view .LVU480
 1469 076e 35EEE77A 		vsub.f32	s14, s11, s15
 848:src/main.cpp  ****         // Cutoff: fast when opening (smoothed), slow when closing (with release)
 1470              		.loc 6 848 41 view .LVU481
 1471 0772 D2ED006A 		vldr.32	s13, [r2]
 1472              	.LBB614:
 850:src/main.cpp  ****           s_cutoff = s_cutoff * sc + tcut * (1.0f - sc); }
 1473              		.loc 6 850 28 view .LVU482
 1474 0776 D1ED004A 		vldr.32	s9, [r1]
 1475              	.LBE614:
 848:src/main.cpp  ****         // Cutoff: fast when opening (smoothed), slow when closing (with release)
 1476              		.loc 6 848 48 view .LVU483
 1477 077a 27EE067A 		vmul.f32	s14, s14, s12
 1478              	.LBB615:
 850:src/main.cpp  ****           s_cutoff = s_cutoff * sc + tcut * (1.0f - sc); }
 1479              		.loc 6 850 40 view .LVU484
 1480 077e F4EEEC4A 		vcmpe.f32	s9, s25
 1481              	.LBE615:
 848:src/main.cpp  ****         // Cutoff: fast when opening (smoothed), slow when closing (with release)
 1482              		.loc 6 848 41 view .LVU485
 1483 0782 A6EEA77A 		vfma.f32	s14, s13, s15
 1484              	.LBB616:
 850:src/main.cpp  ****           s_cutoff = s_cutoff * sc + tcut * (1.0f - sc); }
 1485              		.loc 6 850 40 view .LVU486
 1486 0786 F1EE10FA 		vmrs	APSR_nzcv, FPSCR
 1487              	.LBE616:
 848:src/main.cpp  ****         // Cutoff: fast when opening (smoothed), slow when closing (with release)
 1488              		.loc 6 848 19 view .LVU487
 1489 078a 82ED007A 		vstr.32	s14, [r2]
 850:src/main.cpp  ****           s_cutoff = s_cutoff * sc + tcut * (1.0f - sc); }
 1490              		.loc 6 850 9 is_stmt 1 view .LVU488
 1491              	.LBB617:
 850:src/main.cpp  ****           s_cutoff = s_cutoff * sc + tcut * (1.0f - sc); }
 1492              		.loc 6 850 11 view .LVU489
 850:src/main.cpp  ****           s_cutoff = s_cutoff * sc + tcut * (1.0f - sc); }
 1493              		.loc 6 850 40 is_stmt 0 view .LVU490
 1494 078e 00F18C82 		bmi	.L116
 850:src/main.cpp  ****           s_cutoff = s_cutoff * sc + tcut * (1.0f - sc); }
 1495              		.loc 6 850 40 discriminator 2 view .LVU491
 1496 0792 9849     		ldr	r1, .L209+48
 1497 0794 D1ED003A 		vldr.32	s7, [r1]
 851:src/main.cpp  ****         s_drive   = s_drive   * SLEW_MISC + tdrv * (1.0f - SLEW_MISC);
 1498              		.loc 6 851 51 discriminator 2 view .LVU492
 1499 0798 75EEE35A 		vsub.f32	s11, s11, s7
 1500              	.L16:
 1501              	.LVL113:
 851:src/main.cpp  ****         s_drive   = s_drive   * SLEW_MISC + tdrv * (1.0f - SLEW_MISC);
 1502              		.loc 6 851 11 is_stmt 1 discriminator 4 view .LVU493
 851:src/main.cpp  ****         s_drive   = s_drive   * SLEW_MISC + tdrv * (1.0f - SLEW_MISC);
 1503              		.loc 6 851 43 is_stmt 0 discriminator 4 view .LVU494
 1504 079c 6CEEA55A 		vmul.f32	s11, s25, s11
 1505              	.LBE617:
 852:src/main.cpp  ****         s_vibdepth= s_vibdepth* SLEW_MISC + tvib * (1.0f - SLEW_MISC);
 1506              		.loc 6 852 43 discriminator 4 view .LVU495
 1507 07a0 9548     		ldr	r0, .L209+52
 1508 07a2 9DED0ABA 		vldr.32	s22, [sp, #40]
 1509 07a6 90ED004A 		vldr.32	s8, [r0]
ARM GAS  /tmp/claude-502/ccry90Vn.s 			page 58


 1510              	.LBB618:
 851:src/main.cpp  ****         s_drive   = s_drive   * SLEW_MISC + tdrv * (1.0f - SLEW_MISC);
 1511              		.loc 6 851 36 discriminator 4 view .LVU496
 1512 07aa E4EEA35A 		vfma.f32	s11, s9, s7
 1513              	.LBE618:
 852:src/main.cpp  ****         s_vibdepth= s_vibdepth* SLEW_MISC + tvib * (1.0f - SLEW_MISC);
 1514              		.loc 6 852 43 discriminator 4 view .LVU497
 1515 07ae DFED934A 		vldr.32	s9, .L209+56
 1516              	.LBB619:
 855:src/main.cpp  ****           s_detune   = s_detune   * sa + tdet * (1.0f - sa); }
 1517              		.loc 6 855 31 discriminator 4 view .LVU498
 1518 07b2 9349     		ldr	r1, .L209+60
 1519              	.LBE619:
 852:src/main.cpp  ****         s_vibdepth= s_vibdepth* SLEW_MISC + tvib * (1.0f - SLEW_MISC);
 1520              		.loc 6 852 43 discriminator 4 view .LVU499
 1521 07b4 A4EE24BA 		vfma.f32	s22, s8, s9
 1522              	.LBB620:
 851:src/main.cpp  ****         s_drive   = s_drive   * SLEW_MISC + tdrv * (1.0f - SLEW_MISC);
 1523              		.loc 6 851 20 discriminator 4 view .LVU500
 1524 07b8 8D4E     		ldr	r6, .L209+44
 1525              	.LBE620:
 1526              	.LBB621:
 855:src/main.cpp  ****           s_detune   = s_detune   * sa + tdet * (1.0f - sa); }
 1527              		.loc 6 855 31 discriminator 4 view .LVU501
 1528 07ba 91ED003A 		vldr.32	s6, [r1]
 855:src/main.cpp  ****           s_detune   = s_detune   * sa + tdet * (1.0f - sa); }
 1529              		.loc 6 855 44 discriminator 4 view .LVU502
 1530 07be 9FED915A 		vldr.32	s10, .L209+64
 1531 07c2 B4EEEF3A 		vcmpe.f32	s6, s31
 1532 07c6 DFED906A 		vldr.32	s13, .L209+68
 1533              	.LBE621:
 1534              	.LBB622:
 851:src/main.cpp  ****         s_drive   = s_drive   * SLEW_MISC + tdrv * (1.0f - SLEW_MISC);
 1535              		.loc 6 851 20 discriminator 4 view .LVU503
 1536 07ca C6ED005A 		vstr.32	s11, [r6]
 1537              	.LBE622:
 852:src/main.cpp  ****         s_vibdepth= s_vibdepth* SLEW_MISC + tvib * (1.0f - SLEW_MISC);
 1538              		.loc 6 852 9 is_stmt 1 discriminator 4 view .LVU504
 1539              	.LBB623:
 859:src/main.cpp  ****           s_ringmod  = s_ringmod  * sa + trm  * (1.0f - sa); }
 1540              		.loc 6 859 31 is_stmt 0 discriminator 4 view .LVU505
 1541 07ce 8F4E     		ldr	r6, .L209+72
 1542              	.LBE623:
 852:src/main.cpp  ****         s_vibdepth= s_vibdepth* SLEW_MISC + tvib * (1.0f - SLEW_MISC);
 1543              		.loc 6 852 19 discriminator 4 view .LVU506
 1544 07d0 80ED00BA 		vstr.32	s22, [r0]
 853:src/main.cpp  ****         // Finger 2 params: fast attack, slow release
 1545              		.loc 6 853 9 is_stmt 1 discriminator 4 view .LVU507
 1546              	.LBB624:
 855:src/main.cpp  ****           s_detune   = s_detune   * sa + tdet * (1.0f - sa); }
 1547              		.loc 6 855 44 is_stmt 0 discriminator 4 view .LVU508
 1548 07d4 F1EE10FA 		vmrs	APSR_nzcv, FPSCR
 1549              	.LBE624:
 1550              	.LBB625:
 857:src/main.cpp  ****           s_bitcrush = s_bitcrush * sa + tbc  * (1.0f - sa); }
 1551              		.loc 6 857 31 discriminator 4 view .LVU509
 1552 07d8 8D48     		ldr	r0, .L209+76
ARM GAS  /tmp/claude-502/ccry90Vn.s 			page 59


 1553              	.LBE625:
 1554              	.LBB626:
 855:src/main.cpp  ****           s_detune   = s_detune   * sa + tdet * (1.0f - sa); }
 1555              		.loc 6 855 44 discriminator 4 view .LVU510
 1556 07da 9FED8E6A 		vldr.32	s12, .L209+80
 1557              	.LBE626:
 1558              	.LBB627:
 857:src/main.cpp  ****           s_bitcrush = s_bitcrush * sa + tbc  * (1.0f - sa); }
 1559              		.loc 6 857 31 discriminator 4 view .LVU511
 1560 07de D0ED003A 		vldr.32	s7, [r0]
 1561              	.LVL114:
 857:src/main.cpp  ****           s_bitcrush = s_bitcrush * sa + tbc  * (1.0f - sa); }
 1562              		.loc 6 857 31 discriminator 4 view .LVU512
 1563              	.LBE627:
 1564              	.LBB628:
 855:src/main.cpp  ****           s_detune   = s_detune   * sa + tdet * (1.0f - sa); }
 1565              		.loc 6 855 44 discriminator 4 view .LVU513
 1566 07e2 54BF     		ite	pl
 1567 07e4 F0EE661A 		vmovpl.f32	s3, s13
 1568 07e8 F0EE451A 		vmovmi.f32	s3, s10
 1569              	.LBE628:
 1570              	.LBB629:
 859:src/main.cpp  ****           s_ringmod  = s_ringmod  * sa + trm  * (1.0f - sa); }
 1571              		.loc 6 859 31 discriminator 4 view .LVU514
 1572 07ec 96ED004A 		vldr.32	s8, [r6]
 1573              	.LBE629:
 1574              	.LBB630:
 857:src/main.cpp  ****           s_bitcrush = s_bitcrush * sa + tbc  * (1.0f - sa); }
 1575              		.loc 6 857 44 discriminator 4 view .LVU515
 1576 07f0 F4EECF3A 		vcmpe.f32	s7, s30
 1577              	.LBE630:
 1578              	.LBB631:
 855:src/main.cpp  ****           s_detune   = s_detune   * sa + tdet * (1.0f - sa); }
 1579              		.loc 6 855 44 discriminator 4 view .LVU516
 1580 07f4 DFED887A 		vldr.32	s15, .L209+84
 856:src/main.cpp  ****         { float sa = tbc      > s_bitcrush ? SLEW_F2_A : SLEW_F2_R;
 1581              		.loc 6 856 47 discriminator 4 view .LVU517
 1582 07f8 6FEEA11A 		vmul.f32	s3, s31, s3
 1583              	.LBE631:
 853:src/main.cpp  ****         // Finger 2 params: fast attack, slow release
 1584              		.loc 6 853 43 discriminator 4 view .LVU518
 1585 07fc 9DED0B1A 		vldr.32	s2, [sp, #44]
 1586              	.LBB632:
 855:src/main.cpp  ****           s_detune   = s_detune   * sa + tdet * (1.0f - sa); }
 1587              		.loc 6 855 44 discriminator 4 view .LVU519
 1588 0800 54BF     		ite	pl
 1589 0802 F0EE672A 		vmovpl.f32	s5, s15
 1590 0806 F0EE462A 		vmovmi.f32	s5, s12
 1591              	.LBE632:
 865:src/main.cpp  ****         // Pitch envelope decays toward 1.0 (no-op when pitch_env_oct == 0).
 1592              		.loc 6 865 49 discriminator 4 view .LVU520
 1593 080a 9DED0CAA 		vldr.32	s20, [sp, #48]
 1594              	.LBB633:
 857:src/main.cpp  ****           s_bitcrush = s_bitcrush * sa + tbc  * (1.0f - sa); }
 1595              		.loc 6 857 44 discriminator 4 view .LVU521
 1596 080e F1EE10FA 		vmrs	APSR_nzcv, FPSCR
 1597              	.LBE633:
ARM GAS  /tmp/claude-502/ccry90Vn.s 			page 60


 1598              	.LBB634:
 859:src/main.cpp  ****           s_ringmod  = s_ringmod  * sa + trm  * (1.0f - sa); }
 1599              		.loc 6 859 44 discriminator 4 view .LVU522
 1600 0812 B4EEEE4A 		vcmpe.f32	s8, s29
 1601              	.LBE634:
 1602              	.LBB635:
 856:src/main.cpp  ****         { float sa = tbc      > s_bitcrush ? SLEW_F2_A : SLEW_F2_R;
 1603              		.loc 6 856 40 discriminator 4 view .LVU523
 1604 0816 E3EE221A 		vfma.f32	s3, s6, s5
 1605              	.LBE635:
 1606              	.LBB636:
 857:src/main.cpp  ****           s_bitcrush = s_bitcrush * sa + tbc  * (1.0f - sa); }
 1607              		.loc 6 857 44 discriminator 4 view .LVU524
 1608 081a 54BF     		ite	pl
 1609 081c F0EE662A 		vmovpl.f32	s5, s13
 1610 0820 F0EE452A 		vmovmi.f32	s5, s10
 1611 0824 54BF     		ite	pl
 1612 0826 B0EE673A 		vmovpl.f32	s6, s15
 1613 082a B0EE463A 		vmovmi.f32	s6, s12
 1614              	.LBE636:
 1615              	.LBB637:
 859:src/main.cpp  ****           s_ringmod  = s_ringmod  * sa + trm  * (1.0f - sa); }
 1616              		.loc 6 859 44 discriminator 4 view .LVU525
 1617 082e F1EE10FA 		vmrs	APSR_nzcv, FPSCR
 1618              	.LBE637:
 1619              	.LBB638:
 858:src/main.cpp  ****         { float sa = trm      > s_ringmod  ? SLEW_F2_A : SLEW_F2_R;
 1620              		.loc 6 858 47 discriminator 4 view .LVU526
 1621 0832 6FEE222A 		vmul.f32	s5, s30, s5
 1622              	.LBE638:
 1623              	.LBB639:
 859:src/main.cpp  ****           s_ringmod  = s_ringmod  * sa + trm  * (1.0f - sa); }
 1624              		.loc 6 859 44 discriminator 4 view .LVU527
 1625 0836 48BF     		it	mi
 1626 0838 F0EE456A 		vmovmi.f32	s13, s10
 1627              	.LBE639:
 1628              	.LBB640:
 856:src/main.cpp  ****         { float sa = tbc      > s_bitcrush ? SLEW_F2_A : SLEW_F2_R;
 1629              		.loc 6 856 22 discriminator 4 view .LVU528
 1630 083c C1ED001A 		vstr.32	s3, [r1]
 1631              	.LBE640:
 1632              	.LBB641:
 859:src/main.cpp  ****           s_ringmod  = s_ringmod  * sa + trm  * (1.0f - sa); }
 1633              		.loc 6 859 44 discriminator 4 view .LVU529
 1634 0840 48BF     		it	mi
 1635 0842 F0EE467A 		vmovmi.f32	s15, s12
 1636              	.LBE641:
 862:src/main.cpp  ****         s_amp = s_amp * slew_amp + tamp * (1.0f - slew_amp);
 1637              		.loc 6 862 32 discriminator 4 view .LVU530
 1638 0846 7549     		ldr	r1, .L209+88
 1639              	.LBB642:
 858:src/main.cpp  ****         { float sa = trm      > s_ringmod  ? SLEW_F2_A : SLEW_F2_R;
 1640              		.loc 6 858 40 discriminator 4 view .LVU531
 1641 0848 E3EE832A 		vfma.f32	s5, s7, s6
 1642              	.LBE642:
 1643              	.LBB643:
 860:src/main.cpp  ****         // Asymmetric envelope: per-voice attack (rising) and release (falling)
ARM GAS  /tmp/claude-502/ccry90Vn.s 			page 61


 1644              		.loc 6 860 47 discriminator 4 view .LVU532
 1645 084c 6EEEA66A 		vmul.f32	s13, s29, s13
 860:src/main.cpp  ****         // Asymmetric envelope: per-voice attack (rising) and release (falling)
 1646              		.loc 6 860 40 discriminator 4 view .LVU533
 1647 0850 E4EE276A 		vfma.f32	s13, s8, s15
 1648              	.LBE643:
 862:src/main.cpp  ****         s_amp = s_amp * slew_amp + tamp * (1.0f - slew_amp);
 1649              		.loc 6 862 32 discriminator 4 view .LVU534
 1650 0854 91ED004A 		vldr.32	s8, [r1]
 853:src/main.cpp  ****         // Finger 2 params: fast attack, slow release
 1651              		.loc 6 853 43 discriminator 4 view .LVU535
 1652 0858 7149     		ldr	r1, .L209+92
 862:src/main.cpp  ****         s_amp = s_amp * slew_amp + tamp * (1.0f - slew_amp);
 1653              		.loc 6 862 41 discriminator 4 view .LVU536
 1654 085a B4EEEA4A 		vcmpe.f32	s8, s21
 1655              	.LBB644:
 858:src/main.cpp  ****         { float sa = trm      > s_ringmod  ? SLEW_F2_A : SLEW_F2_R;
 1656              		.loc 6 858 22 discriminator 4 view .LVU537
 1657 085e C0ED002A 		vstr.32	s5, [r0]
 1658              	.LBE644:
 853:src/main.cpp  ****         // Finger 2 params: fast attack, slow release
 1659              		.loc 6 853 43 discriminator 4 view .LVU538
 1660 0862 D1ED007A 		vldr.32	s15, [r1]
 867:src/main.cpp  **** 
 1661              		.loc 6 867 35 discriminator 4 view .LVU539
 1662 0866 1598     		ldr	r0, [sp, #84]
 853:src/main.cpp  ****         // Finger 2 params: fast attack, slow release
 1663              		.loc 6 853 43 discriminator 4 view .LVU540
 1664 0868 A7EEA41A 		vfma.f32	s2, s15, s9
 862:src/main.cpp  ****         s_amp = s_amp * slew_amp + tamp * (1.0f - slew_amp);
 1665              		.loc 6 862 41 discriminator 4 view .LVU541
 1666 086c F1EE10FA 		vmrs	APSR_nzcv, FPSCR
 1667              	.LBB645:
 860:src/main.cpp  ****         // Asymmetric envelope: per-voice attack (rising) and release (falling)
 1668              		.loc 6 860 22 discriminator 4 view .LVU542
 1669 0870 C6ED006A 		vstr.32	s13, [r6]
 1670              	.LBE645:
 863:src/main.cpp  ****         // Master volume slew (smooths FSR jitter / 16 Hz update steps).
 1671              		.loc 6 863 49 discriminator 4 view .LVU543
 1672 0874 F7EE007A 		vmov.f32	s15, #1.0e+0
 867:src/main.cpp  **** 
 1673              		.loc 6 867 35 discriminator 4 view .LVU544
 1674 0878 90ED005A 		vldr.32	s10, [r0]
 1675 087c 35EE675A 		vsub.f32	s10, s10, s15
 853:src/main.cpp  ****         // Finger 2 params: fast attack, slow release
 1676              		.loc 6 853 19 discriminator 4 view .LVU545
 1677 0880 81ED001A 		vstr.32	s2, [r1]
 855:src/main.cpp  ****           s_detune   = s_detune   * sa + tdet * (1.0f - sa); }
 1678              		.loc 6 855 9 is_stmt 1 discriminator 4 view .LVU546
 1679              	.LBB646:
 855:src/main.cpp  ****           s_detune   = s_detune   * sa + tdet * (1.0f - sa); }
 1680              		.loc 6 855 11 discriminator 4 view .LVU547
 856:src/main.cpp  ****         { float sa = tbc      > s_bitcrush ? SLEW_F2_A : SLEW_F2_R;
 1681              		.loc 6 856 11 discriminator 4 view .LVU548
 1682              	.LBE646:
 857:src/main.cpp  ****           s_bitcrush = s_bitcrush * sa + tbc  * (1.0f - sa); }
 1683              		.loc 6 857 9 discriminator 4 view .LVU549
ARM GAS  /tmp/claude-502/ccry90Vn.s 			page 62


 1684              	.LBB647:
 857:src/main.cpp  ****           s_bitcrush = s_bitcrush * sa + tbc  * (1.0f - sa); }
 1685              		.loc 6 857 11 discriminator 4 view .LVU550
 1686              	.LVL115:
 858:src/main.cpp  ****         { float sa = trm      > s_ringmod  ? SLEW_F2_A : SLEW_F2_R;
 1687              		.loc 6 858 11 discriminator 4 view .LVU551
 1688              	.LBE647:
 859:src/main.cpp  ****           s_ringmod  = s_ringmod  * sa + trm  * (1.0f - sa); }
 1689              		.loc 6 859 9 discriminator 4 view .LVU552
 1690              	.LBB648:
 859:src/main.cpp  ****           s_ringmod  = s_ringmod  * sa + trm  * (1.0f - sa); }
 1691              		.loc 6 859 11 discriminator 4 view .LVU553
 860:src/main.cpp  ****         // Asymmetric envelope: per-voice attack (rising) and release (falling)
 1692              		.loc 6 860 11 discriminator 4 view .LVU554
 1693              	.LBE648:
 862:src/main.cpp  ****         s_amp = s_amp * slew_amp + tamp * (1.0f - slew_amp);
 1694              		.loc 6 862 9 discriminator 4 view .LVU555
 862:src/main.cpp  ****         s_amp = s_amp * slew_amp + tamp * (1.0f - slew_amp);
 1695              		.loc 6 862 41 is_stmt 0 discriminator 4 view .LVU556
 1696 0884 4CBF     		ite	mi
 1697 0886 6749     		ldrmi	r1, .L209+96
 1698 0888 5A49     		ldrpl	r1, .L209+48
 1699 088a D1ED004A 		vldr.32	s9, [r1]
 1700              	.LVL116:
 863:src/main.cpp  ****         // Master volume slew (smooths FSR jitter / 16 Hz update steps).
 1701              		.loc 6 863 9 is_stmt 1 discriminator 4 view .LVU557
 863:src/main.cpp  ****         // Master volume slew (smooths FSR jitter / 16 Hz update steps).
 1702              		.loc 6 863 15 is_stmt 0 discriminator 4 view .LVU558
 1703 088e 6349     		ldr	r1, .L209+88
 863:src/main.cpp  ****         // Master volume slew (smooths FSR jitter / 16 Hz update steps).
 1704              		.loc 6 863 49 discriminator 4 view .LVU559
 1705 0890 37EEE46A 		vsub.f32	s12, s15, s9
 863:src/main.cpp  ****         // Master volume slew (smooths FSR jitter / 16 Hz update steps).
 1706              		.loc 6 863 41 discriminator 4 view .LVU560
 1707 0894 26EE2A6A 		vmul.f32	s12, s12, s21
 863:src/main.cpp  ****         // Master volume slew (smooths FSR jitter / 16 Hz update steps).
 1708              		.loc 6 863 34 discriminator 4 view .LVU561
 1709 0898 A4EE246A 		vfma.f32	s12, s8, s9
 865:src/main.cpp  ****         // Pitch envelope decays toward 1.0 (no-op when pitch_env_oct == 0).
 1710              		.loc 6 865 49 discriminator 4 view .LVU562
 1711 089c DFED574A 		vldr.32	s9, .L209+56
 1712              	.LVL117:
 863:src/main.cpp  ****         // Master volume slew (smooths FSR jitter / 16 Hz update steps).
 1713              		.loc 6 863 15 discriminator 4 view .LVU563
 1714 08a0 81ED006A 		vstr.32	s12, [r1]
 1715              	.LVL118:
 865:src/main.cpp  ****         // Pitch envelope decays toward 1.0 (no-op when pitch_env_oct == 0).
 1716              		.loc 6 865 9 is_stmt 1 discriminator 4 view .LVU564
 865:src/main.cpp  ****         // Pitch envelope decays toward 1.0 (no-op when pitch_env_oct == 0).
 1717              		.loc 6 865 49 is_stmt 0 discriminator 4 view .LVU565
 1718 08a4 6049     		ldr	r1, .L209+100
 1719 08a6 91ED004A 		vldr.32	s8, [r1]
 1720 08aa A4EE24AA 		vfma.f32	s20, s8, s9
 865:src/main.cpp  ****         // Pitch envelope decays toward 1.0 (no-op when pitch_env_oct == 0).
 1721              		.loc 6 865 22 discriminator 4 view .LVU566
 1722 08ae 81ED00AA 		vstr.32	s20, [r1]
 867:src/main.cpp  **** 
ARM GAS  /tmp/claude-502/ccry90Vn.s 			page 63


 1723              		.loc 6 867 9 is_stmt 1 discriminator 4 view .LVU567
 867:src/main.cpp  **** 
 1724              		.loc 6 867 24 is_stmt 0 discriminator 4 view .LVU568
 1725 08b2 1499     		ldr	r1, [sp, #80]
 1726 08b4 D1ED004A 		vldr.32	s9, [r1]
 1727 08b8 E5EE247A 		vfma.f32	s15, s10, s9
 1728 08bc B0EE672A 		vmov.f32	s4, s15
 867:src/main.cpp  **** 
 1729              		.loc 6 867 17 discriminator 4 view .LVU569
 1730 08c0 C0ED007A 		vstr.32	s15, [r0]
 871:src/main.cpp  ****             s_flt[0] *= 0.999f;
 1731              		.loc 6 871 9 is_stmt 1 discriminator 4 view .LVU570
 1732 08c4 DFED417A 		vldr.32	s15, .L209+8
 1733 08c8 B4EEE76A 		vcmpe.f32	s12, s15
 1734 08cc F1EE10FA 		vmrs	APSR_nzcv, FPSCR
 1735 08d0 00F1D881 		bmi	.L23
 1736              	.LBB649:
 1737              	.LBB587:
 758:src/main.cpp  ****     float x  = in - fb;
 1738              		.loc 6 758 25 is_stmt 0 view .LVU571
 1739 08d4 D4ED034A 		vldr.32	s9, [r4, #12]
 760:src/main.cpp  ****     s_flt[1]+=f*(fast_tanh(s_flt[0])-fast_tanh(s_flt[1]));
 1740              		.loc 6 760 46 view .LVU572
 1741 08d8 94ED003A 		vldr.32	s6, [r4]
 1742              	.LVL119:
 761:src/main.cpp  ****     s_flt[2]+=f*(fast_tanh(s_flt[1])-fast_tanh(s_flt[2]));
 1743              		.loc 6 761 47 view .LVU573
 1744 08dc D4ED013A 		vldr.32	s7, [r4, #4]
 1745              	.LVL120:
 762:src/main.cpp  ****     s_flt[3]+=f*(fast_tanh(s_flt[2])-fast_tanh(s_flt[3]));
 1746              		.loc 6 762 47 view .LVU574
 1747 08e0 94ED024A 		vldr.32	s8, [r4, #8]
 1748              	.L24:
 1749              	.LBE587:
 1750              	.LBE649:
 880:src/main.cpp  ****             // Pull cutoff toward silence-floor proportional to amp decay
 1751              		.loc 6 880 9 is_stmt 1 view .LVU575
 1752              	.LBB650:
 1753 08e4 DFED397A 		vldr.32	s15, .L209+8
 1754 08e8 F4EEE7AA 		vcmpe.f32	s21, s15
 1755 08ec F1EE10FA 		vmrs	APSR_nzcv, FPSCR
 1756 08f0 0CD5     		bpl	.L25
 880:src/main.cpp  ****             // Pull cutoff toward silence-floor proportional to amp decay
 1757              		.loc 6 880 26 is_stmt 0 discriminator 1 view .LVU576
 1758 08f2 DFED4E7A 		vldr.32	s15, .L209+104
 1759 08f6 B4EEE76A 		vcmpe.f32	s12, s15
 1760 08fa F1EE10FA 		vmrs	APSR_nzcv, FPSCR
 1761 08fe 05DD     		ble	.L25
 1762              	.LBB651:
 882:src/main.cpp  ****             tcut = close_target;
 1763              		.loc 6 882 13 is_stmt 1 view .LVU577
 882:src/main.cpp  ****             tcut = close_target;
 1764              		.loc 6 882 19 is_stmt 0 view .LVU578
 1765 0900 F3EE0E7A 		vmov.f32	s15, #3.0e+1
 1766 0904 E6EE2C7A 		vfma.f32	s15, s12, s25
 1767 0908 F0EE67CA 		vmov.f32	s25, s15
 1768              	.LVL121:
ARM GAS  /tmp/claude-502/ccry90Vn.s 			page 64


 883:src/main.cpp  ****         }
 1769              		.loc 6 883 13 is_stmt 1 view .LVU579
 1770              	.L25:
 883:src/main.cpp  ****         }
 1771              		.loc 6 883 13 is_stmt 0 view .LVU580
 1772              	.LBE651:
 1773              	.LBE650:
 887:src/main.cpp  ****         if(s_lfo_phase>=1.0f)s_lfo_phase-=1.0f;
 1774              		.loc 6 887 9 is_stmt 1 view .LVU581
 887:src/main.cpp  ****         if(s_lfo_phase>=1.0f)s_lfo_phase-=1.0f;
 1775              		.loc 6 887 21 is_stmt 0 view .LVU582
 1776 090c 4849     		ldr	r1, .L209+108
 1777              	.LBB652:
 1778              	.LBB653:
 726:src/main.cpp  **** }
 1779              		.loc 6 726 19 view .LVU583
 1780 090e F1EE000A 		vmov.f32	s1, #4.0e+0
 1781              	.LBE653:
 1782              	.LBE652:
 887:src/main.cpp  ****         if(s_lfo_phase>=1.0f)s_lfo_phase-=1.0f;
 1783              		.loc 6 887 21 view .LVU584
 1784 0912 DDED0D7A 		vldr.32	s15, [sp, #52]
 1785 0916 91ED005A 		vldr.32	s10, [r1]
 1786 091a 37EE855A 		vadd.f32	s10, s15, s10
 888:src/main.cpp  ****         float lfo = tri(s_lfo_phase); // -1..1
 1787              		.loc 6 888 9 is_stmt 1 view .LVU585
 1788 091e F7EE007A 		vmov.f32	s15, #1.0e+0
 1789 0922 B4EEE75A 		vcmpe.f32	s10, s15
 1790 0926 F1EE10FA 		vmrs	APSR_nzcv, FPSCR
 888:src/main.cpp  ****         float lfo = tri(s_lfo_phase); // -1..1
 1791              		.loc 6 888 30 view .LVU586
 888:src/main.cpp  ****         float lfo = tri(s_lfo_phase); // -1..1
 1792              		.loc 6 888 41 is_stmt 0 view .LVU587
 1793 092a A4BF     		itt	ge
 1794 092c 35EE675A 		vsubge.f32	s10, s10, s15
 1795 0930 3F49     		ldrge	r1, .L209+108
 1796              	.LBB657:
 1797              	.LBB654:
 726:src/main.cpp  **** }
 1798              		.loc 6 726 19 view .LVU588
 1799 0932 F6EE007A 		vmov.f32	s15, #5.0e-1
 1800              	.LBE654:
 1801              	.LBE657:
 888:src/main.cpp  ****         float lfo = tri(s_lfo_phase); // -1..1
 1802              		.loc 6 888 41 view .LVU589
 1803 0936 81ED005A 		vstr.32	s10, [r1]
 889:src/main.cpp  **** 
 1804              		.loc 6 889 9 is_stmt 1 view .LVU590
 1805              	.LVL122:
 1806              	.LBB658:
 1807              	.LBI652:
 725:src/main.cpp  ****     return ph<0.5f?(4.0f*ph-1.0f):(3.0f-4.0f*ph);
 1808              		.loc 6 725 21 view .LVU591
 1809              	.LBB655:
 726:src/main.cpp  **** }
 1810              		.loc 6 726 5 view .LVU592
 726:src/main.cpp  **** }
ARM GAS  /tmp/claude-502/ccry90Vn.s 			page 65


 1811              		.loc 6 726 19 is_stmt 0 view .LVU593
 1812 093a B4EEE75A 		vcmpe.f32	s10, s15
 1813 093e F1EE10FA 		vmrs	APSR_nzcv, FPSCR
 1814 0942 40F19A81 		bpl	.L173
 726:src/main.cpp  **** }
 1815              		.loc 6 726 19 view .LVU594
 1816 0946 FFEE007A 		vmov.f32	s15, #-1.0e+0
 1817 094a E5EE207A 		vfma.f32	s15, s10, s1
 1818              	.L32:
 1819              	.LVL123:
 726:src/main.cpp  **** }
 1820              		.loc 6 726 19 view .LVU595
 1821              	.LBE655:
 1822              	.LBE658:
 893:src/main.cpp  ****         float freq_vib = s_freq * (1.0f + vib_amt) * s_pmult;  // s_pmult: pitch-env sweep
 1823              		.loc 6 893 9 is_stmt 1 view .LVU596
 894:src/main.cpp  **** 
 1824              		.loc 6 894 9 view .LVU597
 894:src/main.cpp  **** 
 1825              		.loc 6 894 41 is_stmt 0 view .LVU598
 1826 094e B7EE005A 		vmov.f32	s10, #1.0e+0
 1827 0952 DFED380A 		vldr.32	s1, .L209+112
 893:src/main.cpp  ****         float freq_vib = s_freq * (1.0f + vib_amt) * s_pmult;  // s_pmult: pitch-env sweep
 1828              		.loc 6 893 29 view .LVU599
 1829 0956 21EE271A 		vmul.f32	s2, s2, s15
 1830              	.LVL124:
 1831              	.LBB659:
 900:src/main.cpp  ****             float det_ratio = 1.0f + s_detune * 0.05776f; // linear approx, good for ┬▒1 oct
 1832              		.loc 6 900 9 view .LVU600
 1833 095a 0E99     		ldr	r1, [sp, #56]
 1834              	.LBE659:
 894:src/main.cpp  **** 
 1835              		.loc 6 894 41 view .LVU601
 1836 095c F0EE457A 		vmov.f32	s15, s10
 1837              	.LVL125:
 894:src/main.cpp  **** 
 1838              		.loc 6 894 41 view .LVU602
 1839 0960 E1EE207A 		vfma.f32	s15, s2, s1
 894:src/main.cpp  **** 
 1840              		.loc 6 894 33 view .LVU603
 1841 0964 67EE277A 		vmul.f32	s15, s14, s15
 894:src/main.cpp  **** 
 1842              		.loc 6 894 15 view .LVU604
 1843 0968 67EE827A 		vmul.f32	s15, s15, s4
 1844              	.LVL126:
 899:src/main.cpp  ****         if(VOICE.osc2_detune) {
 1845              		.loc 6 899 9 is_stmt 1 view .LVU605
 900:src/main.cpp  ****             float det_ratio = 1.0f + s_detune * 0.05776f; // linear approx, good for ┬▒1 oct
 1846              		.loc 6 900 9 view .LVU606
 1847              	.LBB660:
 1848 096c 0029     		cmp	r1, #0
 1849 096e 00F07981 		beq	.L33
 1850              	.LBB502:
 901:src/main.cpp  ****             freq2 = freq_vib * VOICE.osc2_ratio * det_ratio;
 1851              		.loc 6 901 13 view .LVU607
 902:src/main.cpp  ****         } else {
 1852              		.loc 6 902 38 is_stmt 0 view .LVU608
ARM GAS  /tmp/claude-502/ccry90Vn.s 			page 66


 1853 0972 0598     		ldr	r0, [sp, #20]
 1854 0974 0399     		ldr	r1, [sp, #12]
 901:src/main.cpp  ****             freq2 = freq_vib * VOICE.osc2_ratio * det_ratio;
 1855              		.loc 6 901 19 view .LVU609
 1856 0976 9FED302A 		vldr.32	s4, .L209+116
 902:src/main.cpp  ****         } else {
 1857              		.loc 6 902 38 view .LVU610
 1858 097a 091A     		subs	r1, r1, r0
 1859 097c 0098     		ldr	r0, [sp]
 901:src/main.cpp  ****             freq2 = freq_vib * VOICE.osc2_ratio * det_ratio;
 1860              		.loc 6 901 19 view .LVU611
 1861 097e A1EE825A 		vfma.f32	s10, s3, s4
 1862              	.LVL127:
 902:src/main.cpp  ****         } else {
 1863              		.loc 6 902 13 is_stmt 1 view .LVU612
 902:src/main.cpp  ****         } else {
 1864              		.loc 6 902 38 is_stmt 0 view .LVU613
 1865 0982 00EB8101 		add	r1, r0, r1, lsl #2
 902:src/main.cpp  ****         } else {
 1866              		.loc 6 902 30 view .LVU614
 1867 0986 91ED077A 		vldr.32	s14, [r1, #28]
 1868 098a 27EE877A 		vmul.f32	s14, s15, s14
 902:src/main.cpp  ****         } else {
 1869              		.loc 6 902 19 view .LVU615
 1870 098e 27EE05DA 		vmul.f32	s26, s14, s10
 1871              	.LVL128:
 1872              	.L34:
 902:src/main.cpp  ****         } else {
 1873              		.loc 6 902 19 view .LVU616
 1874              	.LBE502:
 1875              	.LBE660:
 908:src/main.cpp  ****         float freq_oct = freq_vib * VOICE.oct_ratio;
 1876              		.loc 6 908 9 is_stmt 1 view .LVU617
 908:src/main.cpp  ****         float freq_oct = freq_vib * VOICE.oct_ratio;
 1877              		.loc 6 908 15 is_stmt 0 view .LVU618
 1878 0992 9DED0F7A 		vldr.32	s14, [sp, #60]
 1879              	.LBB661:
 1880              	.LBB662:
 743:src/main.cpp  ****         case WAVE_SINE:   return osc_sine(ph);
 1881              		.loc 6 743 5 view .LVU619
 1882 0996 BAF1020F 		cmp	r10, #2
 1883              	.LBE662:
 1884              	.LBE661:
 916:src/main.cpp  ****         float osc2    = osc(s_phase2,   VOICE.osc2_wave) * VOICE.osc2_level;
 1885              		.loc 6 916 28 view .LVU620
 1886 099a 0B49     		ldr	r1, .L209+4
 908:src/main.cpp  ****         float freq_oct = freq_vib * VOICE.oct_ratio;
 1887              		.loc 6 908 15 view .LVU621
 1888 099c 27EE87CA 		vmul.f32	s24, s15, s14
 1889              	.LVL129:
 909:src/main.cpp  **** 
 1890              		.loc 6 909 9 is_stmt 1 view .LVU622
 909:src/main.cpp  **** 
 1891              		.loc 6 909 15 is_stmt 0 view .LVU623
 1892 09a0 9DED107A 		vldr.32	s14, [sp, #64]
 916:src/main.cpp  ****         float osc2    = osc(s_phase2,   VOICE.osc2_wave) * VOICE.osc2_level;
 1893              		.loc 6 916 28 view .LVU624
ARM GAS  /tmp/claude-502/ccry90Vn.s 			page 67


 1894 09a4 D1ED009A 		vldr.32	s19, [r1]
 909:src/main.cpp  **** 
 1895              		.loc 6 909 15 view .LVU625
 1896 09a8 27EE87EA 		vmul.f32	s28, s15, s14
 1897              	.LVL130:
 913:src/main.cpp  **** 
 1898              		.loc 6 913 9 is_stmt 1 view .LVU626
 913:src/main.cpp  **** 
 1899              		.loc 6 913 15 is_stmt 0 view .LVU627
 1900 09ac 9DED117A 		vldr.32	s14, [sp, #68]
 1901 09b0 67EE87DA 		vmul.f32	s27, s15, s14
 1902              	.LVL131:
 916:src/main.cpp  ****         float osc2    = osc(s_phase2,   VOICE.osc2_wave) * VOICE.osc2_level;
 1903              		.loc 6 916 9 is_stmt 1 view .LVU628
 1904              	.LBB689:
 1905              	.LBI661:
 742:src/main.cpp  ****     switch(w){
 1906              		.loc 6 742 21 view .LVU629
 1907              	.LBB681:
 743:src/main.cpp  ****         case WAVE_SINE:   return osc_sine(ph);
 1908              		.loc 6 743 5 view .LVU630
 1909 09b4 00F0C882 		beq	.L35
 743:src/main.cpp  ****         case WAVE_SINE:   return osc_sine(ph);
 1910              		.loc 6 743 5 is_stmt 0 view .LVU631
 1911 09b8 BAF1030F 		cmp	r10, #3
 1912 09bc 00F08A81 		beq	.L36
 1913 09c0 3CE0     		b	.L210
 1914              	.L211:
 1915 09c2 00BF     		.align	2
 1916              	.L209:
 1917 09c4 00000000 		.word	.LANCHOR40
 1918 09c8 00000000 		.word	.LANCHOR32
 1919 09cc 6F12833A 		.word	981668463
 1920 09d0 00000000 		.word	.LANCHOR33
 1921 09d4 00000000 		.word	.LANCHOR34
 1922 09d8 00000000 		.word	.LANCHOR35
 1923 09dc 00000000 		.word	.LANCHOR38
 1924 09e0 00000000 		.word	.LANCHOR39
 1925 09e4 00000000 		.word	.LANCHOR41
 1926 09e8 00000000 		.word	.LANCHOR42
 1927 09ec 00000000 		.word	.LANCHOR21
 1928 09f0 00000000 		.word	.LANCHOR22
 1929 09f4 00000000 		.word	.LANCHOR16
 1930 09f8 00000000 		.word	.LANCHOR23
 1931 09fc A4707D3F 		.word	1065185444
 1932 0a00 00000000 		.word	.LANCHOR25
 1933 0a04 00D7A33C 		.word	1017370368
 1934 0a08 0012833A 		.word	981668352
 1935 0a0c 00000000 		.word	.LANCHOR27
 1936 0a10 00000000 		.word	.LANCHOR26
 1937 0a14 48E17A3F 		.word	1065017672
 1938 0a18 77BE7F3F 		.word	1065336439
 1939 0a1c 00000000 		.word	.LANCHOR28
 1940 0a20 00000000 		.word	.LANCHOR24
 1941 0a24 00000000 		.word	.LANCHOR15
 1942 0a28 00000000 		.word	.LANCHOR29
 1943 0a2c 17B7D138 		.word	953267991
ARM GAS  /tmp/claude-502/ccry90Vn.s 			page 68


 1944 0a30 00000000 		.word	.LANCHOR31
 1945 0a34 CDCC4C3D 		.word	1028443341
 1946 0a38 C0956C3D 		.word	1030526400
 1947              	.L210:
 1948 0a3c BAF1010F 		cmp	r10, #1
 1949 0a40 00F0E881 		beq	.L197
 1950              	.LVL132:
 1951              	.LBB663:
 1952              	.LBI663:
 742:src/main.cpp  ****     switch(w){
 1953              		.loc 6 742 21 is_stmt 1 view .LVU632
 742:src/main.cpp  ****     switch(w){
 1954              		.loc 6 742 21 is_stmt 0 view .LVU633
 1955              	.LBE663:
 1956              	.LBE681:
 1957              	.LBE689:
 1958              	.LBE880:
 1959              	.LBE885:
 747:src/main.cpp  ****         default:          return tri(ph);
 1960              		.loc 6 747 9 is_stmt 1 view .LVU634
 748:src/main.cpp  ****     }
 1961              		.loc 6 748 9 view .LVU635
 748:src/main.cpp  ****     }
 1962              		.loc 6 748 27 view .LVU636
 1963              	.LBB886:
 1964              	.LBB881:
 1965              	.LBB690:
 1966              	.LBB682:
 1967              	.LBB670:
 1968              	.LBB664:
 1969              	.LBI664:
 725:src/main.cpp  ****     return ph<0.5f?(4.0f*ph-1.0f):(3.0f-4.0f*ph);
 1970              		.loc 6 725 21 view .LVU637
 1971              	.LBB665:
 726:src/main.cpp  **** }
 1972              		.loc 6 726 5 view .LVU638
 726:src/main.cpp  **** }
 1973              		.loc 6 726 19 is_stmt 0 view .LVU639
 1974 0a44 B6EE007A 		vmov.f32	s14, #5.0e-1
 1975 0a48 B1EE005A 		vmov.f32	s10, #4.0e+0
 1976 0a4c F4EEC79A 		vcmpe.f32	s19, s14
 1977 0a50 F1EE10FA 		vmrs	APSR_nzcv, FPSCR
 1978 0a54 00F14081 		bmi	.L187
 1979 0a58 B0EE087A 		vmov.f32	s14, #3.0e+0
 1980 0a5c A9EEC57A 		vfms.f32	s14, s19, s10
 1981              	.LBE665:
 1982              	.LBE664:
 1983              	.LBE670:
 1984              	.LBE682:
 1985              	.LBE690:
 916:src/main.cpp  ****         float osc2    = osc(s_phase2,   VOICE.osc2_wave) * VOICE.osc2_level;
 1986              		.loc 6 916 66 view .LVU640
 1987 0a60 9DED165A 		vldr.32	s10, [sp, #88]
 1988 0a64 27EE057A 		vmul.f32	s14, s14, s10
 1989 0a68 8DED017A 		vstr.32	s14, [sp, #4]
 1990              	.LVL133:
 1991              	.L42:
ARM GAS  /tmp/claude-502/ccry90Vn.s 			page 69


 917:src/main.cpp  ****         float sub     = osc(s_phase_sub,VOICE.sub_wave)  * VOICE.sub_level;
 1992              		.loc 6 917 9 is_stmt 1 view .LVU641
 917:src/main.cpp  ****         float sub     = osc(s_phase_sub,VOICE.sub_wave)  * VOICE.sub_level;
 1993              		.loc 6 917 28 is_stmt 0 view .LVU642
 1994 0a6c D649     		ldr	r1, .L212
 1995              	.LBB691:
 1996              	.LBB692:
 743:src/main.cpp  ****         case WAVE_SINE:   return osc_sine(ph);
 1997              		.loc 6 743 5 view .LVU643
 1998 0a6e B9F1020F 		cmp	r9, #2
 1999              	.LBE692:
 2000              	.LBE691:
 917:src/main.cpp  ****         float sub     = osc(s_phase_sub,VOICE.sub_wave)  * VOICE.sub_level;
 2001              		.loc 6 917 28 view .LVU644
 2002 0a72 91ED009A 		vldr.32	s18, [r1]
 2003              	.LVL134:
 2004              	.LBB731:
 2005              	.LBI691:
 742:src/main.cpp  ****     switch(w){
 2006              		.loc 6 742 21 is_stmt 1 view .LVU645
 2007              	.LBB718:
 743:src/main.cpp  ****         case WAVE_SINE:   return osc_sine(ph);
 2008              		.loc 6 743 5 view .LVU646
 2009 0a76 00F04081 		beq	.L45
 2010              	.L202:
 743:src/main.cpp  ****         case WAVE_SINE:   return osc_sine(ph);
 2011              		.loc 6 743 5 is_stmt 0 view .LVU647
 2012 0a7a B9F1030F 		cmp	r9, #3
 2013 0a7e 00F0A282 		beq	.L46
 2014 0a82 B9F1010F 		cmp	r9, #1
 2015 0a86 00F03082 		beq	.L198
 2016              	.LVL135:
 2017              	.LBB693:
 2018              	.LBI693:
 742:src/main.cpp  ****     switch(w){
 2019              		.loc 6 742 21 is_stmt 1 view .LVU648
 742:src/main.cpp  ****     switch(w){
 2020              		.loc 6 742 21 is_stmt 0 view .LVU649
 2021              	.LBE693:
 2022              	.LBE718:
 2023              	.LBE731:
 2024              	.LBE881:
 2025              	.LBE886:
 747:src/main.cpp  ****         default:          return tri(ph);
 2026              		.loc 6 747 9 is_stmt 1 view .LVU650
 748:src/main.cpp  ****     }
 2027              		.loc 6 748 9 view .LVU651
 748:src/main.cpp  ****     }
 2028              		.loc 6 748 27 view .LVU652
 2029              	.LBB887:
 2030              	.LBB882:
 2031              	.LBB732:
 2032              	.LBB719:
 2033              	.LBB702:
 2034              	.LBB694:
 2035              	.LBI694:
 725:src/main.cpp  ****     return ph<0.5f?(4.0f*ph-1.0f):(3.0f-4.0f*ph);
ARM GAS  /tmp/claude-502/ccry90Vn.s 			page 70


 2036              		.loc 6 725 21 view .LVU653
 2037              	.LBB695:
 726:src/main.cpp  **** }
 2038              		.loc 6 726 5 view .LVU654
 726:src/main.cpp  **** }
 2039              		.loc 6 726 19 is_stmt 0 view .LVU655
 2040 0a8a B6EE005A 		vmov.f32	s10, #5.0e-1
 2041 0a8e B4EEC59A 		vcmpe.f32	s18, s10
 2042 0a92 B1EE005A 		vmov.f32	s10, #4.0e+0
 2043 0a96 F1EE10FA 		vmrs	APSR_nzcv, FPSCR
 2044 0a9a 40F1DB82 		bpl	.L177
 726:src/main.cpp  **** }
 2045              		.loc 6 726 19 view .LVU656
 2046 0a9e FFEE000A 		vmov.f32	s1, #-1.0e+0
 2047              	.LBE695:
 2048              	.LBE694:
 2049              	.LBE702:
 2050              	.LBE719:
 2051              	.LBE732:
 917:src/main.cpp  ****         float sub     = osc(s_phase_sub,VOICE.sub_wave)  * VOICE.sub_level;
 2052              		.loc 6 917 66 view .LVU657
 2053 0aa2 9DED177A 		vldr.32	s14, [sp, #92]
 2054              	.LBB733:
 2055              	.LBB720:
 2056              	.LBB703:
 2057              	.LBB699:
 2058              	.LBB696:
 726:src/main.cpp  **** }
 2059              		.loc 6 726 19 view .LVU658
 2060 0aa6 E9EE050A 		vfma.f32	s1, s18, s10
 2061              	.LBE696:
 2062              	.LBE699:
 2063              	.LBE703:
 2064              	.LBE720:
 2065              	.LBE733:
 917:src/main.cpp  ****         float sub     = osc(s_phase_sub,VOICE.sub_wave)  * VOICE.sub_level;
 2066              		.loc 6 917 66 view .LVU659
 2067 0aaa 60EE870A 		vmul.f32	s1, s1, s14
 2068              	.LVL136:
 2069              	.L52:
 918:src/main.cpp  ****         float osc_oct = osc(s_phase_oct,VOICE.oct_wave)  * VOICE.oct_level;
 2070              		.loc 6 918 9 is_stmt 1 view .LVU660
 918:src/main.cpp  ****         float osc_oct = osc(s_phase_oct,VOICE.oct_wave)  * VOICE.oct_level;
 2071              		.loc 6 918 28 is_stmt 0 view .LVU661
 2072 0aae C749     		ldr	r1, .L212+4
 2073              	.LBB734:
 2074              	.LBB735:
 743:src/main.cpp  ****         case WAVE_SINE:   return osc_sine(ph);
 2075              		.loc 6 743 5 view .LVU662
 2076 0ab0 B8F1020F 		cmp	r8, #2
 2077              	.LBE735:
 2078              	.LBE734:
 918:src/main.cpp  ****         float osc_oct = osc(s_phase_oct,VOICE.oct_wave)  * VOICE.oct_level;
 2079              		.loc 6 918 28 view .LVU663
 2080 0ab4 D1ED008A 		vldr.32	s17, [r1]
 2081              	.LVL137:
 2082              	.LBB774:
ARM GAS  /tmp/claude-502/ccry90Vn.s 			page 71


 2083              	.LBI734:
 742:src/main.cpp  ****     switch(w){
 2084              		.loc 6 742 21 is_stmt 1 view .LVU664
 2085              	.LBB761:
 743:src/main.cpp  ****         case WAVE_SINE:   return osc_sine(ph);
 2086              		.loc 6 743 5 view .LVU665
 2087 0ab8 00F03281 		beq	.L55
 2088              	.L203:
 743:src/main.cpp  ****         case WAVE_SINE:   return osc_sine(ph);
 2089              		.loc 6 743 5 is_stmt 0 view .LVU666
 2090 0abc B8F1030F 		cmp	r8, #3
 2091 0ac0 00F00882 		beq	.L56
 2092 0ac4 B8F1010F 		cmp	r8, #1
 2093 0ac8 00F0D581 		beq	.L199
 2094              	.LVL138:
 2095              	.LBB736:
 2096              	.LBI736:
 742:src/main.cpp  ****     switch(w){
 2097              		.loc 6 742 21 is_stmt 1 view .LVU667
 742:src/main.cpp  ****     switch(w){
 2098              		.loc 6 742 21 is_stmt 0 view .LVU668
 2099              	.LBE736:
 2100              	.LBE761:
 2101              	.LBE774:
 2102              	.LBE882:
 2103              	.LBE887:
 747:src/main.cpp  ****         default:          return tri(ph);
 2104              		.loc 6 747 9 is_stmt 1 view .LVU669
 748:src/main.cpp  ****     }
 2105              		.loc 6 748 9 view .LVU670
 748:src/main.cpp  ****     }
 2106              		.loc 6 748 27 view .LVU671
 2107              	.LBB888:
 2108              	.LBB883:
 2109              	.LBB775:
 2110              	.LBB762:
 2111              	.LBB745:
 2112              	.LBB737:
 2113              	.LBI737:
 725:src/main.cpp  ****     return ph<0.5f?(4.0f*ph-1.0f):(3.0f-4.0f*ph);
 2114              		.loc 6 725 21 view .LVU672
 2115              	.LBB738:
 726:src/main.cpp  **** }
 2116              		.loc 6 726 5 view .LVU673
 726:src/main.cpp  **** }
 2117              		.loc 6 726 19 is_stmt 0 view .LVU674
 2118 0acc B6EE005A 		vmov.f32	s10, #5.0e-1
 2119 0ad0 F4EEC58A 		vcmpe.f32	s17, s10
 2120 0ad4 B1EE005A 		vmov.f32	s10, #4.0e+0
 2121 0ad8 F1EE10FA 		vmrs	APSR_nzcv, FPSCR
 2122 0adc 40F1A582 		bpl	.L179
 726:src/main.cpp  **** }
 2123              		.loc 6 726 19 view .LVU675
 2124 0ae0 BFEE001A 		vmov.f32	s2, #-1.0e+0
 2125              	.LBE738:
 2126              	.LBE737:
 2127              	.LBE745:
ARM GAS  /tmp/claude-502/ccry90Vn.s 			page 72


 2128              	.LBE762:
 2129              	.LBE775:
 918:src/main.cpp  ****         float osc_oct = osc(s_phase_oct,VOICE.oct_wave)  * VOICE.oct_level;
 2130              		.loc 6 918 66 view .LVU676
 2131 0ae4 9DED187A 		vldr.32	s14, [sp, #96]
 2132              	.LBB776:
 2133              	.LBB763:
 2134              	.LBB746:
 2135              	.LBB742:
 2136              	.LBB739:
 726:src/main.cpp  **** }
 2137              		.loc 6 726 19 view .LVU677
 2138 0ae8 A8EE851A 		vfma.f32	s2, s17, s10
 2139              	.LBE739:
 2140              	.LBE742:
 2141              	.LBE746:
 2142              	.LBE763:
 2143              	.LBE776:
 918:src/main.cpp  ****         float osc_oct = osc(s_phase_oct,VOICE.oct_wave)  * VOICE.oct_level;
 2144              		.loc 6 918 66 view .LVU678
 2145 0aec 21EE071A 		vmul.f32	s2, s2, s14
 2146              	.LVL139:
 2147              	.L62:
 919:src/main.cpp  **** 
 2148              		.loc 6 919 9 is_stmt 1 view .LVU679
 919:src/main.cpp  **** 
 2149              		.loc 6 919 28 is_stmt 0 view .LVU680
 2150 0af0 B749     		ldr	r1, .L212+8
 2151              	.LBB777:
 2152              	.LBB778:
 743:src/main.cpp  ****         case WAVE_SINE:   return osc_sine(ph);
 2153              		.loc 6 743 5 view .LVU681
 2154 0af2 022F     		cmp	r7, #2
 2155              	.LBE778:
 2156              	.LBE777:
 919:src/main.cpp  **** 
 2157              		.loc 6 919 28 view .LVU682
 2158 0af4 91ED000A 		vldr.32	s0, [r1]
 2159              	.LVL140:
 2160              	.LBB817:
 2161              	.LBI777:
 742:src/main.cpp  ****     switch(w){
 2162              		.loc 6 742 21 is_stmt 1 view .LVU683
 2163              	.LBB805:
 743:src/main.cpp  ****         case WAVE_SINE:   return osc_sine(ph);
 2164              		.loc 6 743 5 view .LVU684
 2165 0af8 00F02481 		beq	.L65
 2166              	.L204:
 743:src/main.cpp  ****         case WAVE_SINE:   return osc_sine(ph);
 2167              		.loc 6 743 5 is_stmt 0 view .LVU685
 2168 0afc 032F     		cmp	r7, #3
 2169 0afe 00F0DC80 		beq	.L66
 2170 0b02 012F     		cmp	r7, #1
 2171 0b04 00F02E82 		beq	.L200
 2172              	.LVL141:
 2173              	.LBB779:
 2174              	.LBI779:
ARM GAS  /tmp/claude-502/ccry90Vn.s 			page 73


 742:src/main.cpp  ****     switch(w){
 2175              		.loc 6 742 21 is_stmt 1 view .LVU686
 742:src/main.cpp  ****     switch(w){
 2176              		.loc 6 742 21 is_stmt 0 view .LVU687
 2177              	.LBE779:
 2178              	.LBE805:
 2179              	.LBE817:
 2180              	.LBE883:
 2181              	.LBE888:
 747:src/main.cpp  ****         default:          return tri(ph);
 2182              		.loc 6 747 9 is_stmt 1 view .LVU688
 748:src/main.cpp  ****     }
 2183              		.loc 6 748 9 view .LVU689
 748:src/main.cpp  ****     }
 2184              		.loc 6 748 27 view .LVU690
 2185              	.LBB889:
 2186              	.LBB884:
 2187              	.LBB818:
 2188              	.LBB806:
 2189              	.LBB790:
 2190              	.LBB780:
 2191              	.LBI780:
 725:src/main.cpp  ****     return ph<0.5f?(4.0f*ph-1.0f):(3.0f-4.0f*ph);
 2192              		.loc 6 725 21 view .LVU691
 2193              	.LBB781:
 726:src/main.cpp  **** }
 2194              		.loc 6 726 5 view .LVU692
 726:src/main.cpp  **** }
 2195              		.loc 6 726 19 is_stmt 0 view .LVU693
 2196 0b08 B6EE005A 		vmov.f32	s10, #5.0e-1
 2197 0b0c B4EEC50A 		vcmpe.f32	s0, s10
 2198 0b10 B1EE005A 		vmov.f32	s10, #4.0e+0
 2199 0b14 F1EE10FA 		vmrs	APSR_nzcv, FPSCR
 2200 0b18 00F1D180 		bmi	.L188
 726:src/main.cpp  **** }
 2201              		.loc 6 726 19 view .LVU694
 2202 0b1c F0EE081A 		vmov.f32	s3, #3.0e+0
 2203              	.LBE781:
 2204              	.LBE780:
 2205              	.LBE790:
 2206              	.LBE806:
 2207              	.LBE818:
 919:src/main.cpp  **** 
 2208              		.loc 6 919 66 view .LVU695
 2209 0b20 9DED197A 		vldr.32	s14, [sp, #100]
 2210              	.LBB819:
 2211              	.LBB807:
 2212              	.LBB791:
 2213              	.LBB786:
 2214              	.LBB782:
 726:src/main.cpp  **** }
 2215              		.loc 6 726 19 view .LVU696
 2216 0b24 E0EE451A 		vfms.f32	s3, s0, s10
 2217              	.LBE782:
 2218              	.LBE786:
 2219              	.LBE791:
 2220              	.LBE807:
ARM GAS  /tmp/claude-502/ccry90Vn.s 			page 74


 2221              	.LBE819:
 919:src/main.cpp  **** 
 2222              		.loc 6 919 66 view .LVU697
 2223 0b28 21EE877A 		vmul.f32	s14, s3, s14
 2224 0b2c 8DED027A 		vstr.32	s14, [sp, #8]
 2225              	.LVL142:
 2226              	.L72:
 924:src/main.cpp  ****         if(VOICE.noise_level > 0.0f){
 2227              		.loc 6 924 9 is_stmt 1 view .LVU698
 925:src/main.cpp  ****             s_noise_rng ^= s_noise_rng << 13;
 2228              		.loc 6 925 9 view .LVU699
 2229              	.LBB820:
 2230 0b30 9DED045A 		vldr.32	s10, [sp, #16]
 2231 0b34 B5EEC05A 		vcmpe.f32	s10, #0
 2232 0b38 F1EE10FA 		vmrs	APSR_nzcv, FPSCR
 2233 0b3c 40F3BA80 		ble	.L182
 2234              	.LBB594:
 926:src/main.cpp  ****             s_noise_rng ^= s_noise_rng >> 17;
 2235              		.loc 6 926 13 view .LVU700
 926:src/main.cpp  ****             s_noise_rng ^= s_noise_rng >> 17;
 2236              		.loc 6 926 40 is_stmt 0 view .LVU701
 2237 0b40 DFF8B4C2 		ldr	ip, .L212+48
 934:src/main.cpp  ****             noise = n * VOICE.noise_level;
 2238              		.loc 6 934 63 view .LVU702
 2239 0b44 059E     		ldr	r6, [sp, #20]
 926:src/main.cpp  ****             s_noise_rng ^= s_noise_rng >> 17;
 2240              		.loc 6 926 40 view .LVU703
 2241 0b46 DCF80010 		ldr	r1, [ip]
 931:src/main.cpp  ****             float bright = white - s_noise_lp;
 2242              		.loc 6 931 50 view .LVU704
 2243 0b4a A248     		ldr	r0, .L212+12
 926:src/main.cpp  ****             s_noise_rng ^= s_noise_rng >> 17;
 2244              		.loc 6 926 25 view .LVU705
 2245 0b4c 81EA4131 		eor	r1, r1, r1, lsl #13
 927:src/main.cpp  ****             s_noise_rng ^= s_noise_rng << 5;
 2246              		.loc 6 927 13 is_stmt 1 view .LVU706
 931:src/main.cpp  ****             float bright = white - s_noise_lp;
 2247              		.loc 6 931 50 is_stmt 0 view .LVU707
 2248 0b50 DFEDA1BA 		vldr.32	s23, .L212+16
 2249 0b54 90ED005A 		vldr.32	s10, [r0]
 927:src/main.cpp  ****             s_noise_rng ^= s_noise_rng << 5;
 2250              		.loc 6 927 25 view .LVU708
 2251 0b58 81EA5141 		eor	r1, r1, r1, lsr #17
 928:src/main.cpp  ****             float white = (float)(int32_t)s_noise_rng * (1.0f/2147483648.0f);
 2252              		.loc 6 928 13 is_stmt 1 view .LVU709
 931:src/main.cpp  ****             float bright = white - s_noise_lp;
 2253              		.loc 6 931 24 is_stmt 0 view .LVU710
 2254 0b5c DFED9F1A 		vldr.32	s3, .L212+20
 928:src/main.cpp  ****             float white = (float)(int32_t)s_noise_rng * (1.0f/2147483648.0f);
 2255              		.loc 6 928 25 view .LVU711
 2256 0b60 81EA4111 		eor	r1, r1, r1, lsl #5
 929:src/main.cpp  ****             // One-pole high-pass = white minus its low-frequency content.
 2257              		.loc 6 929 27 view .LVU712
 2258 0b64 07EE101A 		vmov	s14, r1	@ int
 928:src/main.cpp  ****             float white = (float)(int32_t)s_noise_rng * (1.0f/2147483648.0f);
 2259              		.loc 6 928 25 view .LVU713
 2260 0b68 CCF80010 		str	r1, [ip]
ARM GAS  /tmp/claude-502/ccry90Vn.s 			page 75


 929:src/main.cpp  ****             // One-pole high-pass = white minus its low-frequency content.
 2261              		.loc 6 929 13 is_stmt 1 view .LVU714
 934:src/main.cpp  ****             noise = n * VOICE.noise_level;
 2262              		.loc 6 934 63 is_stmt 0 view .LVU715
 2263 0b6c 0399     		ldr	r1, [sp, #12]
 929:src/main.cpp  ****             // One-pole high-pass = white minus its low-frequency content.
 2264              		.loc 6 929 27 view .LVU716
 2265 0b6e B8EEC72A 		vcvt.f32.s32	s4, s14
 2266              	.LVL143:
 931:src/main.cpp  ****             float bright = white - s_noise_lp;
 2267              		.loc 6 931 13 is_stmt 1 view .LVU717
 934:src/main.cpp  ****             noise = n * VOICE.noise_level;
 2268              		.loc 6 934 63 is_stmt 0 view .LVU718
 2269 0b72 891B     		subs	r1, r1, r6
 2270 0b74 009E     		ldr	r6, [sp]
 2271 0b76 06EB8101 		add	r1, r6, r1, lsl #2
 934:src/main.cpp  ****             noise = n * VOICE.noise_level;
 2272              		.loc 6 934 55 view .LVU719
 2273 0b7a 91ED1E7A 		vldr.32	s14, [r1, #120]
 2274 0b7e 8DED077A 		vstr.32	s14, [sp, #28]
 931:src/main.cpp  ****             float bright = white - s_noise_lp;
 2275              		.loc 6 931 50 view .LVU720
 2276 0b82 B0EE457A 		vmov.f32	s14, s10
 2277 0b86 92EE2B7A 		vfnms.f32	s14, s4, s23
 931:src/main.cpp  ****             float bright = white - s_noise_lp;
 2278              		.loc 6 931 24 view .LVU721
 2279 0b8a A7EE215A 		vfma.f32	s10, s14, s3
 934:src/main.cpp  ****             noise = n * VOICE.noise_level;
 2280              		.loc 6 934 55 view .LVU722
 2281 0b8e 9DED077A 		vldr.32	s14, [sp, #28]
 931:src/main.cpp  ****             float bright = white - s_noise_lp;
 2282              		.loc 6 931 24 view .LVU723
 2283 0b92 80ED005A 		vstr.32	s10, [r0]
 932:src/main.cpp  ****             // Blend white ŌåÆ high-passed by noise_hp (├Ś2 to make up lost level).
 2284              		.loc 6 932 13 is_stmt 1 view .LVU724
 932:src/main.cpp  ****             // Blend white ŌåÆ high-passed by noise_hp (├Ś2 to make up lost level).
 2285              		.loc 6 932 19 is_stmt 0 view .LVU725
 2286 0b96 92EE2B5A 		vfnms.f32	s10, s4, s23
 2287              	.LVL144:
 934:src/main.cpp  ****             noise = n * VOICE.noise_level;
 2288              		.loc 6 934 13 is_stmt 1 view .LVU726
 934:src/main.cpp  ****             noise = n * VOICE.noise_level;
 2289              		.loc 6 934 39 is_stmt 0 view .LVU727
 2290 0b9a 35EE055A 		vadd.f32	s10, s10, s10
 2291              	.LVL145:
 934:src/main.cpp  ****             noise = n * VOICE.noise_level;
 2292              		.loc 6 934 46 view .LVU728
 2293 0b9e A2EE6B5A 		vfms.f32	s10, s4, s23
 934:src/main.cpp  ****             noise = n * VOICE.noise_level;
 2294              		.loc 6 934 55 view .LVU729
 2295 0ba2 25EE075A 		vmul.f32	s10, s10, s14
 934:src/main.cpp  ****             noise = n * VOICE.noise_level;
 2296              		.loc 6 934 19 view .LVU730
 2297 0ba6 A2EE2B5A 		vfma.f32	s10, s4, s23
 2298              	.LVL146:
 935:src/main.cpp  ****         }
 2299              		.loc 6 935 13 is_stmt 1 view .LVU731
ARM GAS  /tmp/claude-502/ccry90Vn.s 			page 76


 935:src/main.cpp  ****         }
 2300              		.loc 6 935 19 is_stmt 0 view .LVU732
 2301 0baa 9DED042A 		vldr.32	s4, [sp, #16]
 2302              	.LVL147:
 935:src/main.cpp  ****         }
 2303              		.loc 6 935 19 view .LVU733
 2304 0bae 25EE025A 		vmul.f32	s10, s10, s4
 2305              	.LVL148:
 2306              	.L75:
 935:src/main.cpp  ****         }
 2307              		.loc 6 935 19 view .LVU734
 2308              	.LBE594:
 2309              	.LBE820:
 939:src/main.cpp  **** 
 2310              		.loc 6 939 9 is_stmt 1 view .LVU735
 939:src/main.cpp  **** 
 2311              		.loc 6 939 26 is_stmt 0 view .LVU736
 2312 0bb2 9DED017A 		vldr.32	s14, [sp, #4]
 939:src/main.cpp  **** 
 2313              		.loc 6 939 39 view .LVU737
 2314 0bb6 9DED022A 		vldr.32	s4, [sp, #8]
 939:src/main.cpp  **** 
 2315              		.loc 6 939 26 view .LVU738
 2316 0bba 37EE207A 		vadd.f32	s14, s14, s1
 942:src/main.cpp  ****         mix = mix*(1.0f-s_ringmod) + (mix*rm_carrier)*s_ringmod;
 2317              		.loc 6 942 31 view .LVU739
 2318 0bbe 8849     		ldr	r1, .L212+24
 939:src/main.cpp  **** 
 2319              		.loc 6 939 33 view .LVU740
 2320 0bc0 37EE017A 		vadd.f32	s14, s14, s2
 939:src/main.cpp  **** 
 2321              		.loc 6 939 39 view .LVU741
 2322 0bc4 37EE027A 		vadd.f32	s14, s14, s4
 942:src/main.cpp  ****         mix = mix*(1.0f-s_ringmod) + (mix*rm_carrier)*s_ringmod;
 2323              		.loc 6 942 31 view .LVU742
 2324 0bc8 91ED002A 		vldr.32	s4, [r1]
 939:src/main.cpp  **** 
 2325              		.loc 6 939 15 view .LVU743
 2326 0bcc 37EE055A 		vadd.f32	s10, s14, s10
 2327              	.LVL149:
 942:src/main.cpp  ****         mix = mix*(1.0f-s_ringmod) + (mix*rm_carrier)*s_ringmod;
 2328              		.loc 6 942 9 is_stmt 1 view .LVU744
 2329              	.LBB821:
 2330              	.LBI821:
 725:src/main.cpp  ****     return ph<0.5f?(4.0f*ph-1.0f):(3.0f-4.0f*ph);
 2331              		.loc 6 725 21 view .LVU745
 2332              	.LBB822:
 726:src/main.cpp  **** }
 2333              		.loc 6 726 5 view .LVU746
 726:src/main.cpp  **** }
 2334              		.loc 6 726 19 is_stmt 0 view .LVU747
 2335 0bd0 B6EE007A 		vmov.f32	s14, #5.0e-1
 2336 0bd4 B4EEC72A 		vcmpe.f32	s4, s14
 2337 0bd8 B1EE007A 		vmov.f32	s14, #4.0e+0
 2338 0bdc F1EE10FA 		vmrs	APSR_nzcv, FPSCR
 2339 0be0 3BD5     		bpl	.L183
 2340 0be2 FFEE001A 		vmov.f32	s3, #-1.0e+0
ARM GAS  /tmp/claude-502/ccry90Vn.s 			page 77


 2341 0be6 E2EE071A 		vfma.f32	s3, s4, s14
 2342              	.L79:
 2343              	.LVL150:
 726:src/main.cpp  **** }
 2344              		.loc 6 726 19 view .LVU748
 2345              	.LBE822:
 2346              	.LBE821:
 943:src/main.cpp  **** 
 2347              		.loc 6 943 9 is_stmt 1 view .LVU749
 943:src/main.cpp  **** 
 2348              		.loc 6 943 42 is_stmt 0 view .LVU750
 2349 0bea 65EE211A 		vmul.f32	s3, s10, s3
 2350              	.LVL151:
 943:src/main.cpp  **** 
 2351              		.loc 6 943 24 view .LVU751
 2352 0bee B7EE007A 		vmov.f32	s14, #1.0e+0
 943:src/main.cpp  **** 
 2353              		.loc 6 943 54 view .LVU752
 2354 0bf2 61EEA61A 		vmul.f32	s3, s3, s13
 943:src/main.cpp  **** 
 2355              		.loc 6 943 24 view .LVU753
 2356 0bf6 77EE666A 		vsub.f32	s13, s14, s13
 943:src/main.cpp  **** 
 2357              		.loc 6 943 13 view .LVU754
 2358 0bfa E6EE851A 		vfma.f32	s3, s13, s10
 2359              	.LVL152:
 946:src/main.cpp  **** 
 2360              		.loc 6 946 9 is_stmt 1 view .LVU755
 2361              	.LBB824:
 2362              	.LBB825:
 633:src/main.cpp  ****     if(x<-3.0f)return -1.0f;
 2363              		.loc 6 633 5 is_stmt 0 view .LVU756
 2364 0bfe F0EE086A 		vmov.f32	s13, #3.0e+0
 2365              	.LBE825:
 2366              	.LBE824:
 946:src/main.cpp  **** 
 2367              		.loc 6 946 24 view .LVU757
 2368 0c02 2BEE21BA 		vmul.f32	s22, s22, s3
 2369              	.LVL153:
 2370              	.LBB831:
 2371              	.LBI824:
 631:src/main.cpp  **** {
 2372              		.loc 6 631 21 is_stmt 1 view .LVU758
 2373              	.LBB828:
 633:src/main.cpp  ****     if(x<-3.0f)return -1.0f;
 2374              		.loc 6 633 5 view .LVU759
 2375 0c06 B4EEE6BA 		vcmpe.f32	s22, s13
 2376 0c0a F1EE10FA 		vmrs	APSR_nzcv, FPSCR
 2377 0c0e 00F3D080 		bgt	.L129
 634:src/main.cpp  ****     float x2=x*x;
 2378              		.loc 6 634 5 view .LVU760
 2379 0c12 B8EE087A 		vmov.f32	s14, #-3.0e+0
 2380 0c16 B4EEC7BA 		vcmpe.f32	s22, s14
 2381 0c1a F1EE10FA 		vmrs	APSR_nzcv, FPSCR
 2382 0c1e 00F1E581 		bmi	.L130
 2383              	.LVL154:
 2384              	.LBB826:
ARM GAS  /tmp/claude-502/ccry90Vn.s 			page 78


 2385              	.LBI826:
 631:src/main.cpp  **** {
 2386              		.loc 6 631 21 view .LVU761
 2387              	.LBB827:
 635:src/main.cpp  ****     return x*(27.0f+x2)/(27.0f+9.0f*x2);
 2388              		.loc 6 635 5 view .LVU762
 636:src/main.cpp  **** }
 2389              		.loc 6 636 20 is_stmt 0 view .LVU763
 2390 0c22 F3EE0B6A 		vmov.f32	s13, #2.7e+1
 635:src/main.cpp  ****     return x*(27.0f+x2)/(27.0f+9.0f*x2);
 2391              		.loc 6 635 11 view .LVU764
 2392 0c26 2BEE0B7A 		vmul.f32	s14, s22, s22
 2393              	.LVL155:
 636:src/main.cpp  **** }
 2394              		.loc 6 636 5 is_stmt 1 view .LVU765
 636:src/main.cpp  **** }
 2395              		.loc 6 636 31 is_stmt 0 view .LVU766
 2396 0c2a F2EE021A 		vmov.f32	s3, #9.0e+0
 2397              	.LVL156:
 636:src/main.cpp  **** }
 2398              		.loc 6 636 31 view .LVU767
 2399 0c2e B0EE665A 		vmov.f32	s10, s13
 636:src/main.cpp  **** }
 2400              		.loc 6 636 31 view .LVU768
 2401 0c32 A7EE215A 		vfma.f32	s10, s14, s3
 636:src/main.cpp  **** }
 2402              		.loc 6 636 20 view .LVU769
 2403 0c36 37EE267A 		vadd.f32	s14, s14, s13
 2404              	.LVL157:
 636:src/main.cpp  **** }
 2405              		.loc 6 636 13 view .LVU770
 2406 0c3a 27EE0BBA 		vmul.f32	s22, s14, s22
 2407              	.LVL158:
 636:src/main.cpp  **** }
 2408              		.loc 6 636 39 view .LVU771
 2409 0c3e CBEE056A 		vdiv.f32	s13, s22, s10
 2410              	.L80:
 2411              	.LVL159:
 636:src/main.cpp  **** }
 2412              		.loc 6 636 39 view .LVU772
 2413              	.LBE827:
 2414              	.LBE826:
 2415              	.LBE828:
 2416              	.LBE831:
 949:src/main.cpp  ****         float filtered = moog(mix, eff_cutoff, VOICE.resonance, sr);
 2417              		.loc 6 949 9 is_stmt 1 view .LVU773
 2418              	.LBB832:
 2419              	.LBI595:
 626:src/main.cpp  ****     return v<lo?lo:v>hi?hi:v;
 2420              		.loc 6 626 21 view .LVU774
 2421              	.LBB597:
 627:src/main.cpp  **** }
 2422              		.loc 6 627 5 view .LVU775
 627:src/main.cpp  **** }
 2423              		.loc 6 627 16 is_stmt 0 view .LVU776
 2424 0c42 B3EE047A 		vmov.f32	s14, #2.0e+1
 2425 0c46 F4EEC75A 		vcmpe.f32	s11, s14
ARM GAS  /tmp/claude-502/ccry90Vn.s 			page 79


 2426 0c4a F1EE10FA 		vmrs	APSR_nzcv, FPSCR
 2427 0c4e 7FF555AB 		bpl	.L201
 2428 0c52 DFED645A 		vldr.32	s11, .L212+28
 2429              	.LVL160:
 627:src/main.cpp  **** }
 2430              		.loc 6 627 16 view .LVU777
 2431 0c56 FFF75BBB 		b	.L81
 2432              	.LVL161:
 2433              	.L183:
 627:src/main.cpp  **** }
 2434              		.loc 6 627 16 view .LVU778
 2435              	.LBE597:
 2436              	.LBE832:
 2437              	.LBB833:
 2438              	.LBB823:
 726:src/main.cpp  **** }
 2439              		.loc 6 726 19 view .LVU779
 2440 0c5a F0EE081A 		vmov.f32	s3, #3.0e+0
 2441 0c5e E2EE471A 		vfms.f32	s3, s4, s14
 2442 0c62 C2E7     		b	.L79
 2443              	.LVL162:
 2444              	.L33:
 726:src/main.cpp  **** }
 2445              		.loc 6 726 19 view .LVU780
 2446              	.LBE823:
 2447              	.LBE833:
 2448              	.LBB834:
 904:src/main.cpp  ****         }
 2449              		.loc 6 904 13 is_stmt 1 view .LVU781
 904:src/main.cpp  ****         }
 2450              		.loc 6 904 38 is_stmt 0 view .LVU782
 2451 0c64 0598     		ldr	r0, [sp, #20]
 2452 0c66 0399     		ldr	r1, [sp, #12]
 2453 0c68 091A     		subs	r1, r1, r0
 2454 0c6a 0098     		ldr	r0, [sp]
 2455 0c6c 00EB8101 		add	r1, r0, r1, lsl #2
 904:src/main.cpp  ****         }
 2456              		.loc 6 904 19 view .LVU783
 2457 0c70 91ED077A 		vldr.32	s14, [r1, #28]
 2458 0c74 27EE87DA 		vmul.f32	s26, s15, s14
 2459              	.LVL163:
 904:src/main.cpp  ****         }
 2460              		.loc 6 904 19 view .LVU784
 2461 0c78 8BE6     		b	.L34
 2462              	.LVL164:
 2463              	.L173:
 904:src/main.cpp  ****         }
 2464              		.loc 6 904 19 view .LVU785
 2465              	.LBE834:
 2466              	.LBB835:
 2467              	.LBB656:
 726:src/main.cpp  **** }
 2468              		.loc 6 726 19 view .LVU786
 2469 0c7a F0EE087A 		vmov.f32	s15, #3.0e+0
 2470 0c7e E5EE607A 		vfms.f32	s15, s10, s1
 2471 0c82 64E6     		b	.L32
 2472              	.LVL165:
ARM GAS  /tmp/claude-502/ccry90Vn.s 			page 80


 2473              	.L23:
 726:src/main.cpp  **** }
 2474              		.loc 6 726 19 view .LVU787
 2475              	.LBE656:
 2476              	.LBE835:
 872:src/main.cpp  ****             s_flt[1] *= 0.999f;
 2477              		.loc 6 872 13 is_stmt 1 view .LVU788
 872:src/main.cpp  ****             s_flt[1] *= 0.999f;
 2478              		.loc 6 872 22 is_stmt 0 view .LVU789
 2479 0c84 DFED587A 		vldr.32	s15, .L212+32
 2480 0c88 94ED003A 		vldr.32	s6, [r4]
 2481              	.LVL166:
 873:src/main.cpp  ****             s_flt[2] *= 0.999f;
 2482              		.loc 6 873 22 view .LVU790
 2483 0c8c D4ED013A 		vldr.32	s7, [r4, #4]
 2484              	.LVL167:
 874:src/main.cpp  ****             s_flt[3] *= 0.999f;
 2485              		.loc 6 874 22 view .LVU791
 2486 0c90 94ED024A 		vldr.32	s8, [r4, #8]
 872:src/main.cpp  ****             s_flt[1] *= 0.999f;
 2487              		.loc 6 872 22 view .LVU792
 2488 0c94 23EE273A 		vmul.f32	s6, s6, s15
 873:src/main.cpp  ****             s_flt[2] *= 0.999f;
 2489              		.loc 6 873 13 is_stmt 1 view .LVU793
 875:src/main.cpp  ****         }
 2490              		.loc 6 875 22 is_stmt 0 view .LVU794
 2491 0c98 D4ED034A 		vldr.32	s9, [r4, #12]
 873:src/main.cpp  ****             s_flt[2] *= 0.999f;
 2492              		.loc 6 873 22 view .LVU795
 2493 0c9c 63EEA73A 		vmul.f32	s7, s7, s15
 874:src/main.cpp  ****             s_flt[3] *= 0.999f;
 2494              		.loc 6 874 13 is_stmt 1 view .LVU796
 874:src/main.cpp  ****             s_flt[3] *= 0.999f;
 2495              		.loc 6 874 22 is_stmt 0 view .LVU797
 2496 0ca0 24EE274A 		vmul.f32	s8, s8, s15
 875:src/main.cpp  ****         }
 2497              		.loc 6 875 13 is_stmt 1 view .LVU798
 875:src/main.cpp  ****         }
 2498              		.loc 6 875 22 is_stmt 0 view .LVU799
 2499 0ca4 64EEA74A 		vmul.f32	s9, s9, s15
 2500 0ca8 1CE6     		b	.L24
 2501              	.L116:
 2502              	.LBB836:
 875:src/main.cpp  ****         }
 2503              		.loc 6 875 22 view .LVU800
 2504 0caa DFED505A 		vldr.32	s11, .L212+36
 850:src/main.cpp  ****           s_cutoff = s_cutoff * sc + tcut * (1.0f - sc); }
 2505              		.loc 6 850 40 view .LVU801
 2506 0cae DFED503A 		vldr.32	s7, .L212+40
 2507 0cb2 73E5     		b	.L16
 2508              	.LVL168:
 2509              	.L182:
 850:src/main.cpp  ****           s_cutoff = s_cutoff * sc + tcut * (1.0f - sc); }
 2510              		.loc 6 850 40 view .LVU802
 2511              	.LBE836:
 924:src/main.cpp  ****         if(VOICE.noise_level > 0.0f){
 2512              		.loc 6 924 15 view .LVU803
ARM GAS  /tmp/claude-502/ccry90Vn.s 			page 81


 2513 0cb4 9FED565A 		vldr.32	s10, .L212+72
 2514 0cb8 7BE7     		b	.L75
 2515              	.LVL169:
 2516              	.L66:
 2517              	.LBB837:
 2518              	.LBB808:
 746:src/main.cpp  ****         case WAVE_TRI:
 2519              		.loc 6 746 9 is_stmt 1 view .LVU804
 746:src/main.cpp  ****         case WAVE_TRI:
 2520              		.loc 6 746 27 view .LVU805
 2521              	.LBB792:
 2522              	.LBI792:
 738:src/main.cpp  **** 
 2523              		.loc 6 738 21 view .LVU806
 2524              	.LBB793:
 738:src/main.cpp  **** 
 2525              		.loc 6 738 40 view .LVU807
 738:src/main.cpp  **** 
 2526              		.loc 6 738 57 is_stmt 0 view .LVU808
 2527 0cba B0EE005A 		vmov.f32	s10, #2.0e+0
 2528              	.LVL170:
 2529              	.L188:
 738:src/main.cpp  **** 
 2530              		.loc 6 738 57 view .LVU809
 2531              	.LBE793:
 2532              	.LBE792:
 2533              	.LBB794:
 2534              	.LBB787:
 2535              	.LBB783:
 726:src/main.cpp  **** }
 2536              		.loc 6 726 19 view .LVU810
 2537 0cbe FFEE001A 		vmov.f32	s3, #-1.0e+0
 2538              	.LBE783:
 2539              	.LBE787:
 2540              	.LBE794:
 2541              	.LBE808:
 2542              	.LBE837:
 919:src/main.cpp  **** 
 2543              		.loc 6 919 66 view .LVU811
 2544 0cc2 9DED197A 		vldr.32	s14, [sp, #100]
 2545              	.LBB838:
 2546              	.LBB809:
 2547              	.LBB795:
 2548              	.LBB788:
 2549              	.LBB784:
 726:src/main.cpp  **** }
 2550              		.loc 6 726 19 view .LVU812
 2551 0cc6 E0EE051A 		vfma.f32	s3, s0, s10
 2552              	.LBE784:
 2553              	.LBE788:
 2554              	.LBE795:
 2555              	.LBE809:
 2556              	.LBE838:
 919:src/main.cpp  **** 
 2557              		.loc 6 919 66 view .LVU813
 2558 0cca 21EE877A 		vmul.f32	s14, s3, s14
 2559 0cce 8DED027A 		vstr.32	s14, [sp, #8]
ARM GAS  /tmp/claude-502/ccry90Vn.s 			page 82


 2560              	.LBB839:
 2561              	.LBB810:
 2562              	.LBB796:
 2563              	.LBB789:
 2564              	.LBB785:
 2565 0cd2 2DE7     		b	.L72
 2566              	.LVL171:
 2567              	.L36:
 919:src/main.cpp  **** 
 2568              		.loc 6 919 66 view .LVU814
 2569              	.LBE785:
 2570              	.LBE789:
 2571              	.LBE796:
 2572              	.LBE810:
 2573              	.LBE839:
 2574              	.LBB840:
 2575              	.LBB683:
 746:src/main.cpp  ****         case WAVE_TRI:
 2576              		.loc 6 746 9 is_stmt 1 view .LVU815
 746:src/main.cpp  ****         case WAVE_TRI:
 2577              		.loc 6 746 27 view .LVU816
 2578              	.LBB671:
 2579              	.LBI671:
 738:src/main.cpp  **** 
 2580              		.loc 6 738 21 view .LVU817
 2581              	.LBB672:
 738:src/main.cpp  **** 
 2582              		.loc 6 738 40 view .LVU818
 738:src/main.cpp  **** 
 2583              		.loc 6 738 57 is_stmt 0 view .LVU819
 2584 0cd4 B0EE005A 		vmov.f32	s10, #2.0e+0
 2585              	.LVL172:
 2586              	.L187:
 738:src/main.cpp  **** 
 2587              		.loc 6 738 57 view .LVU820
 2588              	.LBE672:
 2589              	.LBE671:
 2590              	.LBB673:
 2591              	.LBB668:
 2592              	.LBB666:
 726:src/main.cpp  **** }
 2593              		.loc 6 726 19 view .LVU821
 2594 0cd8 BFEE007A 		vmov.f32	s14, #-1.0e+0
 2595              	.LBE666:
 2596              	.LBE668:
 2597              	.LBE673:
 2598              	.LBE683:
 2599              	.LBE840:
 917:src/main.cpp  ****         float sub     = osc(s_phase_sub,VOICE.sub_wave)  * VOICE.sub_level;
 2600              		.loc 6 917 28 view .LVU822
 2601 0cdc 3A49     		ldr	r1, .L212
 2602              	.LBB841:
 2603              	.LBB721:
 743:src/main.cpp  ****         case WAVE_SINE:   return osc_sine(ph);
 2604              		.loc 6 743 5 view .LVU823
 2605 0cde B9F1020F 		cmp	r9, #2
 2606              	.LBE721:
ARM GAS  /tmp/claude-502/ccry90Vn.s 			page 83


 2607              	.LBE841:
 917:src/main.cpp  ****         float sub     = osc(s_phase_sub,VOICE.sub_wave)  * VOICE.sub_level;
 2608              		.loc 6 917 28 view .LVU824
 2609 0ce2 91ED009A 		vldr.32	s18, [r1]
 2610              	.LBB842:
 2611              	.LBB684:
 2612              	.LBB674:
 2613              	.LBB669:
 2614              	.LBB667:
 726:src/main.cpp  **** }
 2615              		.loc 6 726 19 view .LVU825
 2616 0ce6 A9EE857A 		vfma.f32	s14, s19, s10
 2617              	.LBE667:
 2618              	.LBE669:
 2619              	.LBE674:
 2620              	.LBE684:
 2621              	.LBE842:
 916:src/main.cpp  ****         float osc2    = osc(s_phase2,   VOICE.osc2_wave) * VOICE.osc2_level;
 2622              		.loc 6 916 66 view .LVU826
 2623 0cea 9DED165A 		vldr.32	s10, [sp, #88]
 2624 0cee 27EE057A 		vmul.f32	s14, s14, s10
 2625 0cf2 8DED017A 		vstr.32	s14, [sp, #4]
 2626              	.LVL173:
 917:src/main.cpp  ****         float sub     = osc(s_phase_sub,VOICE.sub_wave)  * VOICE.sub_level;
 2627              		.loc 6 917 9 is_stmt 1 view .LVU827
 2628              	.LBB843:
 742:src/main.cpp  ****     switch(w){
 2629              		.loc 6 742 21 view .LVU828
 2630              	.LBB722:
 743:src/main.cpp  ****         case WAVE_SINE:   return osc_sine(ph);
 2631              		.loc 6 743 5 view .LVU829
 2632 0cf6 7FF4C0AE 		bne	.L202
 2633              	.L45:
 745:src/main.cpp  ****         case WAVE_SAW:    return osc_saw(ph);
 2634              		.loc 6 745 9 view .LVU830
 745:src/main.cpp  ****         case WAVE_SAW:    return osc_saw(ph);
 2635              		.loc 6 745 27 view .LVU831
 2636              	.LVL174:
 2637              	.LBB704:
 2638              	.LBI704:
 737:src/main.cpp  **** static inline float osc_saw(float ph){ return 2.0f*ph - 1.0f; }
 2639              		.loc 6 737 21 view .LVU832
 2640              	.LBB705:
 737:src/main.cpp  **** static inline float osc_saw(float ph){ return 2.0f*ph - 1.0f; }
 2641              		.loc 6 737 43 view .LVU833
 737:src/main.cpp  **** static inline float osc_saw(float ph){ return 2.0f*ph - 1.0f; }
 2642              		.loc 6 737 58 is_stmt 0 view .LVU834
 2643 0cfa B6EE005A 		vmov.f32	s10, #5.0e-1
 2644 0cfe B4EEC59A 		vcmpe.f32	s18, s10
 2645 0d02 F1EE10FA 		vmrs	APSR_nzcv, FPSCR
 2646 0d06 00F1A281 		bmi	.L123
 737:src/main.cpp  **** static inline float osc_saw(float ph){ return 2.0f*ph - 1.0f; }
 2647              		.loc 6 737 58 view .LVU835
 2648 0d0a 9DED177A 		vldr.32	s14, [sp, #92]
 2649              	.LBE705:
 2650              	.LBE704:
 2651              	.LBE722:
ARM GAS  /tmp/claude-502/ccry90Vn.s 			page 84


 2652              	.LBE843:
 2653              	.LBB844:
 2654              	.LBB764:
 743:src/main.cpp  ****         case WAVE_SINE:   return osc_sine(ph);
 2655              		.loc 6 743 5 view .LVU836
 2656 0d0e B8F1020F 		cmp	r8, #2
 2657              	.LBE764:
 2658              	.LBE844:
 918:src/main.cpp  ****         float osc_oct = osc(s_phase_oct,VOICE.oct_wave)  * VOICE.oct_level;
 2659              		.loc 6 918 28 view .LVU837
 2660 0d12 2E49     		ldr	r1, .L212+4
 2661 0d14 F1EE470A 		vneg.f32	s1, s14
 2662              	.LVL175:
 918:src/main.cpp  ****         float osc_oct = osc(s_phase_oct,VOICE.oct_wave)  * VOICE.oct_level;
 2663              		.loc 6 918 9 is_stmt 1 view .LVU838
 918:src/main.cpp  ****         float osc_oct = osc(s_phase_oct,VOICE.oct_wave)  * VOICE.oct_level;
 2664              		.loc 6 918 28 is_stmt 0 view .LVU839
 2665 0d18 D1ED008A 		vldr.32	s17, [r1]
 2666              	.LVL176:
 2667              	.LBB845:
 742:src/main.cpp  ****     switch(w){
 2668              		.loc 6 742 21 is_stmt 1 view .LVU840
 2669              	.LBB765:
 743:src/main.cpp  ****         case WAVE_SINE:   return osc_sine(ph);
 2670              		.loc 6 743 5 view .LVU841
 2671 0d1c 7FF4CEAE 		bne	.L203
 2672              	.L55:
 745:src/main.cpp  ****         case WAVE_SAW:    return osc_saw(ph);
 2673              		.loc 6 745 9 view .LVU842
 745:src/main.cpp  ****         case WAVE_SAW:    return osc_saw(ph);
 2674              		.loc 6 745 27 view .LVU843
 2675              	.LVL177:
 2676              	.LBB747:
 2677              	.LBI747:
 737:src/main.cpp  **** static inline float osc_saw(float ph){ return 2.0f*ph - 1.0f; }
 2678              		.loc 6 737 21 view .LVU844
 2679              	.LBB748:
 737:src/main.cpp  **** static inline float osc_saw(float ph){ return 2.0f*ph - 1.0f; }
 2680              		.loc 6 737 43 view .LVU845
 737:src/main.cpp  **** static inline float osc_saw(float ph){ return 2.0f*ph - 1.0f; }
 2681              		.loc 6 737 58 is_stmt 0 view .LVU846
 2682 0d20 B6EE005A 		vmov.f32	s10, #5.0e-1
 2683 0d24 F4EEC58A 		vcmpe.f32	s17, s10
 2684 0d28 F1EE10FA 		vmrs	APSR_nzcv, FPSCR
 2685 0d2c 00F18C81 		bmi	.L125
 737:src/main.cpp  **** static inline float osc_saw(float ph){ return 2.0f*ph - 1.0f; }
 2686              		.loc 6 737 58 view .LVU847
 2687 0d30 9DED187A 		vldr.32	s14, [sp, #96]
 2688              	.LBE748:
 2689              	.LBE747:
 2690              	.LBE765:
 2691              	.LBE845:
 2692              	.LBB846:
 2693              	.LBB811:
 743:src/main.cpp  ****         case WAVE_SINE:   return osc_sine(ph);
 2694              		.loc 6 743 5 view .LVU848
 2695 0d34 022F     		cmp	r7, #2
ARM GAS  /tmp/claude-502/ccry90Vn.s 			page 85


 2696              	.LBE811:
 2697              	.LBE846:
 919:src/main.cpp  **** 
 2698              		.loc 6 919 28 view .LVU849
 2699 0d36 2649     		ldr	r1, .L212+8
 2700 0d38 B1EE471A 		vneg.f32	s2, s14
 2701              	.LVL178:
 919:src/main.cpp  **** 
 2702              		.loc 6 919 9 is_stmt 1 view .LVU850
 919:src/main.cpp  **** 
 2703              		.loc 6 919 28 is_stmt 0 view .LVU851
 2704 0d3c 91ED000A 		vldr.32	s0, [r1]
 2705              	.LVL179:
 2706              	.LBB847:
 742:src/main.cpp  ****     switch(w){
 2707              		.loc 6 742 21 is_stmt 1 view .LVU852
 2708              	.LBB812:
 743:src/main.cpp  ****         case WAVE_SINE:   return osc_sine(ph);
 2709              		.loc 6 743 5 view .LVU853
 2710 0d40 7FF4DCAE 		bne	.L204
 2711              	.L65:
 745:src/main.cpp  ****         case WAVE_SAW:    return osc_saw(ph);
 2712              		.loc 6 745 9 view .LVU854
 745:src/main.cpp  ****         case WAVE_SAW:    return osc_saw(ph);
 2713              		.loc 6 745 27 view .LVU855
 2714              	.LVL180:
 2715              	.LBB797:
 2716              	.LBI797:
 737:src/main.cpp  **** static inline float osc_saw(float ph){ return 2.0f*ph - 1.0f; }
 2717              		.loc 6 737 21 view .LVU856
 2718              	.LBB798:
 737:src/main.cpp  **** static inline float osc_saw(float ph){ return 2.0f*ph - 1.0f; }
 2719              		.loc 6 737 43 view .LVU857
 737:src/main.cpp  **** static inline float osc_saw(float ph){ return 2.0f*ph - 1.0f; }
 2720              		.loc 6 737 58 is_stmt 0 view .LVU858
 2721 0d44 B6EE005A 		vmov.f32	s10, #5.0e-1
 2722 0d48 9DED197A 		vldr.32	s14, [sp, #100]
 2723 0d4c B4EEC50A 		vcmpe.f32	s0, s10
 2724 0d50 F1EE10FA 		vmrs	APSR_nzcv, FPSCR
 2725 0d54 00F17581 		bmi	.L127
 737:src/main.cpp  **** static inline float osc_saw(float ph){ return 2.0f*ph - 1.0f; }
 2726              		.loc 6 737 58 view .LVU859
 2727 0d58 B1EE477A 		vneg.f32	s14, s14
 2728 0d5c 8DED027A 		vstr.32	s14, [sp, #8]
 2729 0d60 E6E6     		b	.L72
 2730              	.LVL181:
 2731              	.L133:
 737:src/main.cpp  **** static inline float osc_saw(float ph){ return 2.0f*ph - 1.0f; }
 2732              		.loc 6 737 58 view .LVU860
 2733              	.LBE798:
 2734              	.LBE797:
 2735              	.LBE812:
 2736              	.LBE847:
 2737              	.LBB848:
 2738              	.LBB588:
 2739              	.LBB565:
 2740              	.LBB517:
ARM GAS  /tmp/claude-502/ccry90Vn.s 			page 86


 633:src/main.cpp  ****     if(x<-3.0f)return -1.0f;
 2741              		.loc 6 633 5 view .LVU861
 2742 0d62 F0EE086A 		vmov.f32	s13, #3.0e+0
 2743              	.LVL182:
 633:src/main.cpp  ****     if(x<-3.0f)return -1.0f;
 2744              		.loc 6 633 5 view .LVU862
 2745              	.LBE517:
 2746              	.LBE565:
 2747              	.LBB566:
 2748              	.LBB511:
 633:src/main.cpp  ****     if(x<-3.0f)return -1.0f;
 2749              		.loc 6 633 24 view .LVU863
 2750 0d66 F7EE005A 		vmov.f32	s11, #1.0e+0
 2751              	.LVL183:
 633:src/main.cpp  ****     if(x<-3.0f)return -1.0f;
 2752              		.loc 6 633 24 view .LVU864
 2753              	.LBE511:
 2754              	.LBE566:
 2755              	.LBB567:
 631:src/main.cpp  **** {
 2756              		.loc 6 631 21 is_stmt 1 view .LVU865
 2757              	.LBB518:
 633:src/main.cpp  ****     if(x<-3.0f)return -1.0f;
 2758              		.loc 6 633 5 view .LVU866
 2759 0d6a B4EEE63A 		vcmpe.f32	s6, s13
 2760 0d6e F1EE10FA 		vmrs	APSR_nzcv, FPSCR
 2761 0d72 7FF703AB 		ble	.L205
 2762              	.L135:
 633:src/main.cpp  ****     if(x<-3.0f)return -1.0f;
 2763              		.loc 6 633 24 is_stmt 0 view .LVU867
 2764 0d76 B7EE005A 		vmov.f32	s10, #1.0e+0
 2765 0d7a FFF717BB 		b	.L85
 2766              	.LVL184:
 2767              	.L145:
 633:src/main.cpp  ****     if(x<-3.0f)return -1.0f;
 2768              		.loc 6 633 24 view .LVU868
 2769              	.LBE518:
 2770              	.LBE567:
 2771              	.LBB568:
 2772              	.LBB562:
 633:src/main.cpp  ****     if(x<-3.0f)return -1.0f;
 2773              		.loc 6 633 5 view .LVU869
 2774 0d7e F0EE085A 		vmov.f32	s11, #3.0e+0
 2775              	.LBE562:
 2776              	.LBE568:
 2777              	.LBB569:
 2778              	.LBB555:
 633:src/main.cpp  ****     if(x<-3.0f)return -1.0f;
 2779              		.loc 6 633 24 view .LVU870
 2780 0d82 F7EE006A 		vmov.f32	s13, #1.0e+0
 2781              	.LVL185:
 633:src/main.cpp  ****     if(x<-3.0f)return -1.0f;
 2782              		.loc 6 633 24 view .LVU871
 2783              	.LBE555:
 2784              	.LBE569:
 2785              	.LBB570:
 631:src/main.cpp  **** {
ARM GAS  /tmp/claude-502/ccry90Vn.s 			page 87


 2786              		.loc 6 631 21 is_stmt 1 view .LVU872
 2787              	.LBB563:
 633:src/main.cpp  ****     if(x<-3.0f)return -1.0f;
 2788              		.loc 6 633 5 view .LVU873
 2789 0d86 F4EEE54A 		vcmpe.f32	s9, s11
 2790 0d8a F1EE10FA 		vmrs	APSR_nzcv, FPSCR
 2791 0d8e 7FF7C7AB 		ble	.L206
 2792              	.L147:
 633:src/main.cpp  ****     if(x<-3.0f)return -1.0f;
 2793              		.loc 6 633 24 is_stmt 0 view .LVU874
 2794 0d92 B7EE005A 		vmov.f32	s10, #1.0e+0
 2795 0d96 FFF7DBBB 		b	.L91
 2796              	.LVL186:
 2797              	.L143:
 633:src/main.cpp  ****     if(x<-3.0f)return -1.0f;
 2798              		.loc 6 633 24 view .LVU875
 2799              	.LBE563:
 2800              	.LBE570:
 2801              	.LBB571:
 2802              	.LBB548:
 2803 0d9a B7EE005A 		vmov.f32	s10, #1.0e+0
 2804 0d9e FFF791BB 		b	.L89
 2805              	.LVL187:
 2806              	.L141:
 633:src/main.cpp  ****     if(x<-3.0f)return -1.0f;
 2807              		.loc 6 633 24 view .LVU876
 2808              	.LBE548:
 2809              	.LBE571:
 2810              	.LBB572:
 2811              	.LBB541:
 2812 0da2 F7EE006A 		vmov.f32	s13, #1.0e+0
 2813 0da6 FFF76DBB 		b	.L88
 2814              	.LVL188:
 2815              	.L139:
 633:src/main.cpp  ****     if(x<-3.0f)return -1.0f;
 2816              		.loc 6 633 24 view .LVU877
 2817              	.LBE541:
 2818              	.LBE572:
 2819              	.LBB573:
 2820              	.LBB534:
 2821 0daa B7EE005A 		vmov.f32	s10, #1.0e+0
 2822 0dae FFF743BB 		b	.L87
 2823              	.LVL189:
 2824              	.L129:
 633:src/main.cpp  ****     if(x<-3.0f)return -1.0f;
 2825              		.loc 6 633 24 view .LVU878
 2826              	.LBE534:
 2827              	.LBE573:
 2828              	.LBE588:
 2829              	.LBE848:
 2830              	.LBB849:
 2831              	.LBB829:
 2832 0db2 F0EE476A 		vmov.f32	s13, s14
 2833 0db6 44E7     		b	.L80
 2834              	.LVL190:
 2835              	.L137:
 633:src/main.cpp  ****     if(x<-3.0f)return -1.0f;
ARM GAS  /tmp/claude-502/ccry90Vn.s 			page 88


 2836              		.loc 6 633 24 view .LVU879
 2837              	.LBE829:
 2838              	.LBE849:
 2839              	.LBB850:
 2840              	.LBB589:
 2841              	.LBB574:
 2842              	.LBB526:
 2843 0db8 F7EE006A 		vmov.f32	s13, #1.0e+0
 2844 0dbc FFF71CBB 		b	.L86
 2845              	.LVL191:
 2846              	.L132:
 633:src/main.cpp  ****     if(x<-3.0f)return -1.0f;
 2847              		.loc 6 633 24 view .LVU880
 2848              	.LBE526:
 2849              	.LBE574:
 2850              	.LBE589:
 2851              	.LBE850:
 2852              	.LBB851:
 2853              	.LBB598:
 2854 0dc0 DFED0C5A 		vldr.32	s11, .L212+44
 2855              	.LVL192:
 633:src/main.cpp  ****     if(x<-3.0f)return -1.0f;
 2856              		.loc 6 633 24 view .LVU881
 2857 0dc4 FFF7A4BA 		b	.L81
 2858              	.L213:
 2859              		.align	2
 2860              	.L212:
 2861 0dc8 00000000 		.word	.LANCHOR33
 2862 0dcc 00000000 		.word	.LANCHOR34
 2863 0dd0 00000000 		.word	.LANCHOR35
 2864 0dd4 00000000 		.word	.LANCHOR37
 2865 0dd8 00000030 		.word	805306368
 2866 0ddc CDCC4C3F 		.word	1061997773
 2867 0de0 00000000 		.word	.LANCHOR38
 2868 0de4 00002042 		.word	1109393408
 2869 0de8 77BE7F3F 		.word	1065336439
 2870 0dec 00481D3A 		.word	974997504
 2871 0df0 AED87F3F 		.word	1065343150
 2872 0df4 00401C47 		.word	1193033728
 2873 0df8 00000000 		.word	.LANCHOR36
 2874 0dfc DB0F4940 		.word	1078530011
 2875 0e00 DB0F49C0 		.word	-1068953637
 2876 0e04 83F9A23F 		.word	1067645315
 2877 0e08 7B81CF3E 		.word	1053786491
 2878 0e0c 6666663E 		.word	1046898278
 2879 0e10 00000000 		.word	0
 2880              	.LVL193:
 2881              	.L197:
 633:src/main.cpp  ****     if(x<-3.0f)return -1.0f;
 2882              		.loc 6 633 24 view .LVU882
 2883              	.LBE598:
 2884              	.LBE851:
 2885              	.LBB852:
 2886              	.LBB685:
 744:src/main.cpp  ****         case WAVE_SQUARE: return osc_square(ph);
 2887              		.loc 6 744 9 is_stmt 1 view .LVU883
 744:src/main.cpp  ****         case WAVE_SQUARE: return osc_square(ph);
ARM GAS  /tmp/claude-502/ccry90Vn.s 			page 89


 2888              		.loc 6 744 27 view .LVU884
 2889              	.LBB675:
 2890              	.LBI675:
 729:src/main.cpp  ****     constexpr float PI = 3.14159265f;
 2891              		.loc 6 729 21 view .LVU885
 2892              	.LBB676:
 730:src/main.cpp  ****     float x = ph*2.0f*PI - PI;                 // -ŽĆ..ŽĆ (angle shifted by ŽĆ)
 2893              		.loc 6 730 5 view .LVU886
 731:src/main.cpp  ****     float y = 1.27323954f*x - 0.405284735f*x*(x<0?-x:x);
 2894              		.loc 6 731 5 view .LVU887
 731:src/main.cpp  ****     float y = 1.27323954f*x - 0.405284735f*x*(x<0?-x:x);
 2895              		.loc 6 731 17 is_stmt 0 view .LVU888
 2896 0e14 39EEA92A 		vadd.f32	s4, s19, s19
 731:src/main.cpp  ****     float y = 1.27323954f*x - 0.405284735f*x*(x<0?-x:x);
 2897              		.loc 6 731 11 view .LVU889
 2898 0e18 1FED087A 		vldr.32	s14, .L212+52
 2899 0e1c 1FED085A 		vldr.32	s10, .L212+56
 2900 0e20 A2EE075A 		vfma.f32	s10, s4, s14
 2901              	.LVL194:
 732:src/main.cpp  ****     y = 0.225f*(y*(y<0?-y:y) - y) + y;         // one refinement pass
 2902              		.loc 6 732 5 is_stmt 1 view .LVU890
 732:src/main.cpp  ****     y = 0.225f*(y*(y<0?-y:y) - y) + y;         // one refinement pass
 2903              		.loc 6 732 26 is_stmt 0 view .LVU891
 2904 0e24 1FED097A 		vldr.32	s14, .L212+60
 732:src/main.cpp  ****     y = 0.225f*(y*(y<0?-y:y) - y) + y;         // one refinement pass
 2905              		.loc 6 732 43 view .LVU892
 2906 0e28 1FED092A 		vldr.32	s4, .L212+64
 732:src/main.cpp  ****     y = 0.225f*(y*(y<0?-y:y) - y) + y;         // one refinement pass
 2907              		.loc 6 732 50 view .LVU893
 2908 0e2c B5EEC05A 		vcmpe.f32	s10, #0
 732:src/main.cpp  ****     y = 0.225f*(y*(y<0?-y:y) - y) + y;         // one refinement pass
 2909              		.loc 6 732 43 view .LVU894
 2910 0e30 25EE022A 		vmul.f32	s4, s10, s4
 732:src/main.cpp  ****     y = 0.225f*(y*(y<0?-y:y) - y) + y;         // one refinement pass
 2911              		.loc 6 732 26 view .LVU895
 2912 0e34 25EE077A 		vmul.f32	s14, s10, s14
 732:src/main.cpp  ****     y = 0.225f*(y*(y<0?-y:y) - y) + y;         // one refinement pass
 2913              		.loc 6 732 50 view .LVU896
 2914 0e38 F1EE10FA 		vmrs	APSR_nzcv, FPSCR
 2915 0e3c 48BF     		it	mi
 2916 0e3e B1EE455A 		vnegmi.f32	s10, s10
 2917              	.LVL195:
 732:src/main.cpp  ****     y = 0.225f*(y*(y<0?-y:y) - y) + y;         // one refinement pass
 2918              		.loc 6 732 11 view .LVU897
 2919 0e42 A2EE457A 		vfms.f32	s14, s4, s10
 2920              	.LVL196:
 733:src/main.cpp  ****     return -y;                                 // undo the ŽĆ shift: sin(x+ŽĆ) = -sin(x)
 2921              		.loc 6 733 5 is_stmt 1 view .LVU898
 733:src/main.cpp  ****     return -y;                                 // undo the ŽĆ shift: sin(x+ŽĆ) = -sin(x)
 2922              		.loc 6 733 23 is_stmt 0 view .LVU899
 2923 0e46 B5EEC07A 		vcmpe.f32	s14, #0
 2924 0e4a B1EE475A 		vneg.f32	s10, s14
 2925 0e4e F1EE10FA 		vmrs	APSR_nzcv, FPSCR
 2926 0e52 54BF     		ite	pl
 2927 0e54 B0EE472A 		vmovpl.f32	s4, s14
 2928 0e58 B0EE452A 		vmovmi.f32	s4, s10
 733:src/main.cpp  ****     return -y;                                 // undo the ŽĆ shift: sin(x+ŽĆ) = -sin(x)
ARM GAS  /tmp/claude-502/ccry90Vn.s 			page 90


 2929              		.loc 6 733 30 view .LVU900
 2930 0e5c A7EE025A 		vfma.f32	s10, s14, s4
 733:src/main.cpp  ****     return -y;                                 // undo the ŽĆ shift: sin(x+ŽĆ) = -sin(x)
 2931              		.loc 6 733 7 view .LVU901
 2932 0e60 1FED162A 		vldr.32	s4, .L212+68
 2933 0e64 A5EE027A 		vfma.f32	s14, s10, s4
 2934              	.LVL197:
 734:src/main.cpp  **** }
 2935              		.loc 6 734 5 is_stmt 1 view .LVU902
 734:src/main.cpp  **** }
 2936              		.loc 6 734 5 is_stmt 0 view .LVU903
 2937              	.LBE676:
 2938              	.LBE675:
 2939              	.LBE685:
 2940              	.LBE852:
 916:src/main.cpp  ****         float osc2    = osc(s_phase2,   VOICE.osc2_wave) * VOICE.osc2_level;
 2941              		.loc 6 916 66 view .LVU904
 2942 0e68 9DED165A 		vldr.32	s10, [sp, #88]
 2943 0e6c 27EE457A 		vnmul.f32	s14, s14, s10
 2944 0e70 8DED017A 		vstr.32	s14, [sp, #4]
 2945              	.LBB853:
 2946              	.LBB686:
 744:src/main.cpp  ****         case WAVE_SQUARE: return osc_square(ph);
 2947              		.loc 6 744 45 view .LVU905
 2948 0e74 FAE5     		b	.L42
 2949              	.LVL198:
 2950              	.L199:
 744:src/main.cpp  ****         case WAVE_SQUARE: return osc_square(ph);
 2951              		.loc 6 744 45 view .LVU906
 2952              	.LBE686:
 2953              	.LBE853:
 2954              	.LBB854:
 2955              	.LBB766:
 744:src/main.cpp  ****         case WAVE_SQUARE: return osc_square(ph);
 2956              		.loc 6 744 9 is_stmt 1 view .LVU907
 744:src/main.cpp  ****         case WAVE_SQUARE: return osc_square(ph);
 2957              		.loc 6 744 27 view .LVU908
 2958              	.LBB750:
 2959              	.LBI750:
 729:src/main.cpp  ****     constexpr float PI = 3.14159265f;
 2960              		.loc 6 729 21 view .LVU909
 2961              	.LBB751:
 730:src/main.cpp  ****     float x = ph*2.0f*PI - PI;                 // -ŽĆ..ŽĆ (angle shifted by ŽĆ)
 2962              		.loc 6 730 5 view .LVU910
 731:src/main.cpp  ****     float y = 1.27323954f*x - 0.405284735f*x*(x<0?-x:x);
 2963              		.loc 6 731 5 view .LVU911
 731:src/main.cpp  ****     float y = 1.27323954f*x - 0.405284735f*x*(x<0?-x:x);
 2964              		.loc 6 731 17 is_stmt 0 view .LVU912
 2965 0e76 78EEA81A 		vadd.f32	s3, s17, s17
 731:src/main.cpp  ****     float y = 1.27323954f*x - 0.405284735f*x*(x<0?-x:x);
 2966              		.loc 6 731 11 view .LVU913
 2967 0e7a 1FED202A 		vldr.32	s4, .L212+52
 2968 0e7e 1FED205A 		vldr.32	s10, .L212+56
 732:src/main.cpp  ****     y = 0.225f*(y*(y<0?-y:y) - y) + y;         // one refinement pass
 2969              		.loc 6 732 26 view .LVU914
 2970 0e82 1FED201A 		vldr.32	s2, .L212+60
 731:src/main.cpp  ****     float y = 1.27323954f*x - 0.405284735f*x*(x<0?-x:x);
ARM GAS  /tmp/claude-502/ccry90Vn.s 			page 91


 2971              		.loc 6 731 11 view .LVU915
 2972 0e86 A1EE825A 		vfma.f32	s10, s3, s4
 2973              	.LVL199:
 732:src/main.cpp  ****     y = 0.225f*(y*(y<0?-y:y) - y) + y;         // one refinement pass
 2974              		.loc 6 732 5 is_stmt 1 view .LVU916
 732:src/main.cpp  ****     y = 0.225f*(y*(y<0?-y:y) - y) + y;         // one refinement pass
 2975              		.loc 6 732 43 is_stmt 0 view .LVU917
 2976 0e8a 1FED212A 		vldr.32	s4, .L212+64
 2977              	.LBE751:
 2978              	.LBE750:
 2979              	.LBE766:
 2980              	.LBE854:
 918:src/main.cpp  ****         float osc_oct = osc(s_phase_oct,VOICE.oct_wave)  * VOICE.oct_level;
 2981              		.loc 6 918 66 view .LVU918
 2982 0e8e 9DED187A 		vldr.32	s14, [sp, #96]
 2983              	.LBB855:
 2984              	.LBB767:
 2985              	.LBB753:
 2986              	.LBB752:
 732:src/main.cpp  ****     y = 0.225f*(y*(y<0?-y:y) - y) + y;         // one refinement pass
 2987              		.loc 6 732 50 view .LVU919
 2988 0e92 B5EEC05A 		vcmpe.f32	s10, #0
 732:src/main.cpp  ****     y = 0.225f*(y*(y<0?-y:y) - y) + y;         // one refinement pass
 2989              		.loc 6 732 43 view .LVU920
 2990 0e96 25EE022A 		vmul.f32	s4, s10, s4
 732:src/main.cpp  ****     y = 0.225f*(y*(y<0?-y:y) - y) + y;         // one refinement pass
 2991              		.loc 6 732 26 view .LVU921
 2992 0e9a 25EE011A 		vmul.f32	s2, s10, s2
 732:src/main.cpp  ****     y = 0.225f*(y*(y<0?-y:y) - y) + y;         // one refinement pass
 2993              		.loc 6 732 50 view .LVU922
 2994 0e9e F1EE10FA 		vmrs	APSR_nzcv, FPSCR
 2995 0ea2 48BF     		it	mi
 2996 0ea4 B1EE455A 		vnegmi.f32	s10, s10
 2997              	.LVL200:
 732:src/main.cpp  ****     y = 0.225f*(y*(y<0?-y:y) - y) + y;         // one refinement pass
 2998              		.loc 6 732 11 view .LVU923
 2999 0ea8 A2EE451A 		vfms.f32	s2, s4, s10
 3000              	.LVL201:
 733:src/main.cpp  ****     return -y;                                 // undo the ŽĆ shift: sin(x+ŽĆ) = -sin(x)
 3001              		.loc 6 733 5 is_stmt 1 view .LVU924
 733:src/main.cpp  ****     return -y;                                 // undo the ŽĆ shift: sin(x+ŽĆ) = -sin(x)
 3002              		.loc 6 733 23 is_stmt 0 view .LVU925
 3003 0eac B5EEC01A 		vcmpe.f32	s2, #0
 3004 0eb0 B1EE415A 		vneg.f32	s10, s2
 3005 0eb4 F1EE10FA 		vmrs	APSR_nzcv, FPSCR
 3006 0eb8 54BF     		ite	pl
 3007 0eba B0EE412A 		vmovpl.f32	s4, s2
 3008 0ebe B0EE452A 		vmovmi.f32	s4, s10
 733:src/main.cpp  ****     return -y;                                 // undo the ŽĆ shift: sin(x+ŽĆ) = -sin(x)
 3009              		.loc 6 733 30 view .LVU926
 3010 0ec2 A1EE025A 		vfma.f32	s10, s2, s4
 733:src/main.cpp  ****     return -y;                                 // undo the ŽĆ shift: sin(x+ŽĆ) = -sin(x)
 3011              		.loc 6 733 7 view .LVU927
 3012 0ec6 1FED2F2A 		vldr.32	s4, .L212+68
 3013 0eca A5EE021A 		vfma.f32	s2, s10, s4
 3014              	.LVL202:
 734:src/main.cpp  **** }
ARM GAS  /tmp/claude-502/ccry90Vn.s 			page 92


 3015              		.loc 6 734 5 is_stmt 1 view .LVU928
 734:src/main.cpp  **** }
 3016              		.loc 6 734 5 is_stmt 0 view .LVU929
 3017              	.LBE752:
 3018              	.LBE753:
 3019              	.LBE767:
 3020              	.LBE855:
 918:src/main.cpp  ****         float osc_oct = osc(s_phase_oct,VOICE.oct_wave)  * VOICE.oct_level;
 3021              		.loc 6 918 66 view .LVU930
 3022 0ece 21EE471A 		vnmul.f32	s2, s2, s14
 3023              	.LBB856:
 3024              	.LBB768:
 744:src/main.cpp  ****         case WAVE_SQUARE: return osc_square(ph);
 3025              		.loc 6 744 45 view .LVU931
 3026 0ed2 0DE6     		b	.L62
 3027              	.LVL203:
 3028              	.L56:
 746:src/main.cpp  ****         case WAVE_TRI:
 3029              		.loc 6 746 9 is_stmt 1 view .LVU932
 746:src/main.cpp  ****         case WAVE_TRI:
 3030              		.loc 6 746 27 view .LVU933
 3031              	.LBB754:
 3032              	.LBI754:
 738:src/main.cpp  **** 
 3033              		.loc 6 738 21 view .LVU934
 3034              	.LBB755:
 738:src/main.cpp  **** 
 3035              		.loc 6 738 40 view .LVU935
 738:src/main.cpp  **** 
 3036              		.loc 6 738 57 is_stmt 0 view .LVU936
 3037 0ed4 B0EE005A 		vmov.f32	s10, #2.0e+0
 3038              	.LBE755:
 3039              	.LBE754:
 3040              	.LBE768:
 3041              	.LBE856:
 918:src/main.cpp  ****         float osc_oct = osc(s_phase_oct,VOICE.oct_wave)  * VOICE.oct_level;
 3042              		.loc 6 918 66 view .LVU937
 3043 0ed8 9DED187A 		vldr.32	s14, [sp, #96]
 3044              	.LBB857:
 3045              	.LBB769:
 3046              	.LBB757:
 3047              	.LBB756:
 738:src/main.cpp  **** 
 3048              		.loc 6 738 57 view .LVU938
 3049 0edc BFEE001A 		vmov.f32	s2, #-1.0e+0
 3050 0ee0 A8EE851A 		vfma.f32	s2, s17, s10
 3051              	.LVL204:
 738:src/main.cpp  **** 
 3052              		.loc 6 738 57 view .LVU939
 3053              	.LBE756:
 3054              	.LBE757:
 3055              	.LBE769:
 3056              	.LBE857:
 918:src/main.cpp  ****         float osc_oct = osc(s_phase_oct,VOICE.oct_wave)  * VOICE.oct_level;
 3057              		.loc 6 918 66 view .LVU940
 3058 0ee4 21EE071A 		vmul.f32	s2, s2, s14
 3059              	.LBB858:
ARM GAS  /tmp/claude-502/ccry90Vn.s 			page 93


 3060              	.LBB770:
 746:src/main.cpp  ****         case WAVE_TRI:
 3061              		.loc 6 746 44 view .LVU941
 3062 0ee8 02E6     		b	.L62
 3063              	.LVL205:
 3064              	.L198:
 746:src/main.cpp  ****         case WAVE_TRI:
 3065              		.loc 6 746 44 view .LVU942
 3066              	.LBE770:
 3067              	.LBE858:
 3068              	.LBB859:
 3069              	.LBB723:
 744:src/main.cpp  ****         case WAVE_SQUARE: return osc_square(ph);
 3070              		.loc 6 744 9 is_stmt 1 view .LVU943
 744:src/main.cpp  ****         case WAVE_SQUARE: return osc_square(ph);
 3071              		.loc 6 744 27 view .LVU944
 3072              	.LBB707:
 3073              	.LBI707:
 729:src/main.cpp  ****     constexpr float PI = 3.14159265f;
 3074              		.loc 6 729 21 view .LVU945
 3075              	.LBB708:
 730:src/main.cpp  ****     float x = ph*2.0f*PI - PI;                 // -ŽĆ..ŽĆ (angle shifted by ŽĆ)
 3076              		.loc 6 730 5 view .LVU946
 731:src/main.cpp  ****     float y = 1.27323954f*x - 0.405284735f*x*(x<0?-x:x);
 3077              		.loc 6 731 5 view .LVU947
 731:src/main.cpp  ****     float y = 1.27323954f*x - 0.405284735f*x*(x<0?-x:x);
 3078              		.loc 6 731 17 is_stmt 0 view .LVU948
 3079 0eea 79EE091A 		vadd.f32	s3, s18, s18
 731:src/main.cpp  ****     float y = 1.27323954f*x - 0.405284735f*x*(x<0?-x:x);
 3080              		.loc 6 731 11 view .LVU949
 3081 0eee 1FED3D2A 		vldr.32	s4, .L212+52
 3082 0ef2 1FED3D5A 		vldr.32	s10, .L212+56
 732:src/main.cpp  ****     y = 0.225f*(y*(y<0?-y:y) - y) + y;         // one refinement pass
 3083              		.loc 6 732 26 view .LVU950
 3084 0ef6 5FED3D0A 		vldr.32	s1, .L212+60
 731:src/main.cpp  ****     float y = 1.27323954f*x - 0.405284735f*x*(x<0?-x:x);
 3085              		.loc 6 731 11 view .LVU951
 3086 0efa A1EE825A 		vfma.f32	s10, s3, s4
 3087              	.LVL206:
 732:src/main.cpp  ****     y = 0.225f*(y*(y<0?-y:y) - y) + y;         // one refinement pass
 3088              		.loc 6 732 5 is_stmt 1 view .LVU952
 732:src/main.cpp  ****     y = 0.225f*(y*(y<0?-y:y) - y) + y;         // one refinement pass
 3089              		.loc 6 732 43 is_stmt 0 view .LVU953
 3090 0efe 1FED3E2A 		vldr.32	s4, .L212+64
 3091              	.LBE708:
 3092              	.LBE707:
 3093              	.LBE723:
 3094              	.LBE859:
 917:src/main.cpp  ****         float sub     = osc(s_phase_sub,VOICE.sub_wave)  * VOICE.sub_level;
 3095              		.loc 6 917 66 view .LVU954
 3096 0f02 9DED177A 		vldr.32	s14, [sp, #92]
 3097              	.LBB860:
 3098              	.LBB724:
 3099              	.LBB710:
 3100              	.LBB709:
 732:src/main.cpp  ****     y = 0.225f*(y*(y<0?-y:y) - y) + y;         // one refinement pass
 3101              		.loc 6 732 50 view .LVU955
ARM GAS  /tmp/claude-502/ccry90Vn.s 			page 94


 3102 0f06 B5EEC05A 		vcmpe.f32	s10, #0
 732:src/main.cpp  ****     y = 0.225f*(y*(y<0?-y:y) - y) + y;         // one refinement pass
 3103              		.loc 6 732 43 view .LVU956
 3104 0f0a 25EE022A 		vmul.f32	s4, s10, s4
 732:src/main.cpp  ****     y = 0.225f*(y*(y<0?-y:y) - y) + y;         // one refinement pass
 3105              		.loc 6 732 26 view .LVU957
 3106 0f0e 65EE200A 		vmul.f32	s1, s10, s1
 732:src/main.cpp  ****     y = 0.225f*(y*(y<0?-y:y) - y) + y;         // one refinement pass
 3107              		.loc 6 732 50 view .LVU958
 3108 0f12 F1EE10FA 		vmrs	APSR_nzcv, FPSCR
 3109 0f16 48BF     		it	mi
 3110 0f18 B1EE455A 		vnegmi.f32	s10, s10
 3111              	.LVL207:
 732:src/main.cpp  ****     y = 0.225f*(y*(y<0?-y:y) - y) + y;         // one refinement pass
 3112              		.loc 6 732 11 view .LVU959
 3113 0f1c E2EE450A 		vfms.f32	s1, s4, s10
 3114              	.LVL208:
 733:src/main.cpp  ****     return -y;                                 // undo the ŽĆ shift: sin(x+ŽĆ) = -sin(x)
 3115              		.loc 6 733 5 is_stmt 1 view .LVU960
 733:src/main.cpp  ****     return -y;                                 // undo the ŽĆ shift: sin(x+ŽĆ) = -sin(x)
 3116              		.loc 6 733 23 is_stmt 0 view .LVU961
 3117 0f20 F5EEC00A 		vcmpe.f32	s1, #0
 3118 0f24 B1EE605A 		vneg.f32	s10, s1
 3119 0f28 F1EE10FA 		vmrs	APSR_nzcv, FPSCR
 3120 0f2c 54BF     		ite	pl
 3121 0f2e B0EE602A 		vmovpl.f32	s4, s1
 3122 0f32 B0EE452A 		vmovmi.f32	s4, s10
 733:src/main.cpp  ****     return -y;                                 // undo the ŽĆ shift: sin(x+ŽĆ) = -sin(x)
 3123              		.loc 6 733 30 view .LVU962
 3124 0f36 A0EE825A 		vfma.f32	s10, s1, s4
 733:src/main.cpp  ****     return -y;                                 // undo the ŽĆ shift: sin(x+ŽĆ) = -sin(x)
 3125              		.loc 6 733 7 view .LVU963
 3126 0f3a 1FED4C2A 		vldr.32	s4, .L212+68
 3127 0f3e E5EE020A 		vfma.f32	s1, s10, s4
 3128              	.LVL209:
 734:src/main.cpp  **** }
 3129              		.loc 6 734 5 is_stmt 1 view .LVU964
 734:src/main.cpp  **** }
 3130              		.loc 6 734 5 is_stmt 0 view .LVU965
 3131              	.LBE709:
 3132              	.LBE710:
 3133              	.LBE724:
 3134              	.LBE860:
 917:src/main.cpp  ****         float sub     = osc(s_phase_sub,VOICE.sub_wave)  * VOICE.sub_level;
 3135              		.loc 6 917 66 view .LVU966
 3136 0f42 60EEC70A 		vnmul.f32	s1, s1, s14
 3137              	.LBB861:
 3138              	.LBB725:
 744:src/main.cpp  ****         case WAVE_SQUARE: return osc_square(ph);
 3139              		.loc 6 744 45 view .LVU967
 3140 0f46 B2E5     		b	.L52
 3141              	.LVL210:
 3142              	.L35:
 744:src/main.cpp  ****         case WAVE_SQUARE: return osc_square(ph);
 3143              		.loc 6 744 45 view .LVU968
 3144              	.LBE725:
 3145              	.LBE861:
ARM GAS  /tmp/claude-502/ccry90Vn.s 			page 95


 3146              	.LBB862:
 3147              	.LBB687:
 745:src/main.cpp  ****         case WAVE_SAW:    return osc_saw(ph);
 3148              		.loc 6 745 9 is_stmt 1 view .LVU969
 745:src/main.cpp  ****         case WAVE_SAW:    return osc_saw(ph);
 3149              		.loc 6 745 27 view .LVU970
 3150              	.LBB677:
 3151              	.LBI677:
 737:src/main.cpp  **** static inline float osc_saw(float ph){ return 2.0f*ph - 1.0f; }
 3152              		.loc 6 737 21 view .LVU971
 3153              	.LBB678:
 737:src/main.cpp  **** static inline float osc_saw(float ph){ return 2.0f*ph - 1.0f; }
 3154              		.loc 6 737 43 view .LVU972
 737:src/main.cpp  **** static inline float osc_saw(float ph){ return 2.0f*ph - 1.0f; }
 3155              		.loc 6 737 58 is_stmt 0 view .LVU973
 3156 0f48 B6EE007A 		vmov.f32	s14, #5.0e-1
 3157 0f4c F4EEC79A 		vcmpe.f32	s19, s14
 3158 0f50 9DED167A 		vldr.32	s14, [sp, #88]
 3159 0f54 F1EE10FA 		vmrs	APSR_nzcv, FPSCR
 3160 0f58 70D4     		bmi	.L121
 3161 0f5a B1EE477A 		vneg.f32	s14, s14
 3162 0f5e 8DED017A 		vstr.32	s14, [sp, #4]
 3163 0f62 83E5     		b	.L42
 3164              	.LVL211:
 3165              	.L200:
 737:src/main.cpp  **** static inline float osc_saw(float ph){ return 2.0f*ph - 1.0f; }
 3166              		.loc 6 737 58 view .LVU974
 3167              	.LBE678:
 3168              	.LBE677:
 3169              	.LBE687:
 3170              	.LBE862:
 3171              	.LBB863:
 3172              	.LBB813:
 744:src/main.cpp  ****         case WAVE_SQUARE: return osc_square(ph);
 3173              		.loc 6 744 9 is_stmt 1 view .LVU975
 744:src/main.cpp  ****         case WAVE_SQUARE: return osc_square(ph);
 3174              		.loc 6 744 27 view .LVU976
 3175              	.LBB800:
 3176              	.LBI800:
 729:src/main.cpp  ****     constexpr float PI = 3.14159265f;
 3177              		.loc 6 729 21 view .LVU977
 3178              	.LBB801:
 730:src/main.cpp  ****     float x = ph*2.0f*PI - PI;                 // -ŽĆ..ŽĆ (angle shifted by ŽĆ)
 3179              		.loc 6 730 5 view .LVU978
 731:src/main.cpp  ****     float y = 1.27323954f*x - 0.405284735f*x*(x<0?-x:x);
 3180              		.loc 6 731 5 view .LVU979
 731:src/main.cpp  ****     float y = 1.27323954f*x - 0.405284735f*x*(x<0?-x:x);
 3181              		.loc 6 731 17 is_stmt 0 view .LVU980
 3182 0f64 70EE001A 		vadd.f32	s3, s0, s0
 731:src/main.cpp  ****     float y = 1.27323954f*x - 0.405284735f*x*(x<0?-x:x);
 3183              		.loc 6 731 11 view .LVU981
 3184 0f68 1FED5C2A 		vldr.32	s4, .L212+52
 3185 0f6c 1FED5C5A 		vldr.32	s10, .L212+56
 3186              	.LBE801:
 3187              	.LBE800:
 3188              	.LBE813:
 3189              	.LBE863:
ARM GAS  /tmp/claude-502/ccry90Vn.s 			page 96


 919:src/main.cpp  **** 
 3190              		.loc 6 919 66 view .LVU982
 3191 0f70 9DED197A 		vldr.32	s14, [sp, #100]
 3192              	.LBB864:
 3193              	.LBB814:
 3194              	.LBB803:
 3195              	.LBB802:
 731:src/main.cpp  ****     float y = 1.27323954f*x - 0.405284735f*x*(x<0?-x:x);
 3196              		.loc 6 731 11 view .LVU983
 3197 0f74 A1EE825A 		vfma.f32	s10, s3, s4
 3198              	.LVL212:
 732:src/main.cpp  ****     y = 0.225f*(y*(y<0?-y:y) - y) + y;         // one refinement pass
 3199              		.loc 6 732 5 is_stmt 1 view .LVU984
 732:src/main.cpp  ****     y = 0.225f*(y*(y<0?-y:y) - y) + y;         // one refinement pass
 3200              		.loc 6 732 26 is_stmt 0 view .LVU985
 3201 0f78 5FED5E1A 		vldr.32	s3, .L212+60
 732:src/main.cpp  ****     y = 0.225f*(y*(y<0?-y:y) - y) + y;         // one refinement pass
 3202              		.loc 6 732 43 view .LVU986
 3203 0f7c 1FED5E2A 		vldr.32	s4, .L212+64
 732:src/main.cpp  ****     y = 0.225f*(y*(y<0?-y:y) - y) + y;         // one refinement pass
 3204              		.loc 6 732 50 view .LVU987
 3205 0f80 B5EEC05A 		vcmpe.f32	s10, #0
 732:src/main.cpp  ****     y = 0.225f*(y*(y<0?-y:y) - y) + y;         // one refinement pass
 3206              		.loc 6 732 43 view .LVU988
 3207 0f84 25EE022A 		vmul.f32	s4, s10, s4
 732:src/main.cpp  ****     y = 0.225f*(y*(y<0?-y:y) - y) + y;         // one refinement pass
 3208              		.loc 6 732 26 view .LVU989
 3209 0f88 65EE211A 		vmul.f32	s3, s10, s3
 732:src/main.cpp  ****     y = 0.225f*(y*(y<0?-y:y) - y) + y;         // one refinement pass
 3210              		.loc 6 732 50 view .LVU990
 3211 0f8c F1EE10FA 		vmrs	APSR_nzcv, FPSCR
 3212 0f90 48BF     		it	mi
 3213 0f92 B1EE455A 		vnegmi.f32	s10, s10
 3214              	.LVL213:
 732:src/main.cpp  ****     y = 0.225f*(y*(y<0?-y:y) - y) + y;         // one refinement pass
 3215              		.loc 6 732 11 view .LVU991
 3216 0f96 E2EE451A 		vfms.f32	s3, s4, s10
 3217              	.LVL214:
 733:src/main.cpp  ****     return -y;                                 // undo the ŽĆ shift: sin(x+ŽĆ) = -sin(x)
 3218              		.loc 6 733 5 is_stmt 1 view .LVU992
 733:src/main.cpp  ****     return -y;                                 // undo the ŽĆ shift: sin(x+ŽĆ) = -sin(x)
 3219              		.loc 6 733 23 is_stmt 0 view .LVU993
 3220 0f9a F5EEC01A 		vcmpe.f32	s3, #0
 3221 0f9e B1EE615A 		vneg.f32	s10, s3
 3222 0fa2 F1EE10FA 		vmrs	APSR_nzcv, FPSCR
 3223 0fa6 54BF     		ite	pl
 3224 0fa8 B0EE612A 		vmovpl.f32	s4, s3
 3225 0fac B0EE452A 		vmovmi.f32	s4, s10
 733:src/main.cpp  ****     return -y;                                 // undo the ŽĆ shift: sin(x+ŽĆ) = -sin(x)
 3226              		.loc 6 733 30 view .LVU994
 3227 0fb0 A1EE825A 		vfma.f32	s10, s3, s4
 733:src/main.cpp  ****     return -y;                                 // undo the ŽĆ shift: sin(x+ŽĆ) = -sin(x)
 3228              		.loc 6 733 7 view .LVU995
 3229 0fb4 1FED6B2A 		vldr.32	s4, .L212+68
 3230 0fb8 E5EE021A 		vfma.f32	s3, s10, s4
 3231              	.LVL215:
 734:src/main.cpp  **** }
ARM GAS  /tmp/claude-502/ccry90Vn.s 			page 97


 3232              		.loc 6 734 5 is_stmt 1 view .LVU996
 734:src/main.cpp  **** }
 3233              		.loc 6 734 5 is_stmt 0 view .LVU997
 3234              	.LBE802:
 3235              	.LBE803:
 3236              	.LBE814:
 3237              	.LBE864:
 919:src/main.cpp  **** 
 3238              		.loc 6 919 66 view .LVU998
 3239 0fbc 21EEC77A 		vnmul.f32	s14, s3, s14
 3240 0fc0 8DED027A 		vstr.32	s14, [sp, #8]
 3241              	.LBB865:
 3242              	.LBB815:
 744:src/main.cpp  ****         case WAVE_SQUARE: return osc_square(ph);
 3243              		.loc 6 744 45 view .LVU999
 3244 0fc4 B4E5     		b	.L72
 3245              	.LVL216:
 3246              	.L46:
 744:src/main.cpp  ****         case WAVE_SQUARE: return osc_square(ph);
 3247              		.loc 6 744 45 view .LVU1000
 3248              	.LBE815:
 3249              	.LBE865:
 3250              	.LBB866:
 3251              	.LBB726:
 746:src/main.cpp  ****         case WAVE_TRI:
 3252              		.loc 6 746 9 is_stmt 1 view .LVU1001
 746:src/main.cpp  ****         case WAVE_TRI:
 3253              		.loc 6 746 27 view .LVU1002
 3254              	.LBB711:
 3255              	.LBI711:
 738:src/main.cpp  **** 
 3256              		.loc 6 738 21 view .LVU1003
 3257              	.LBB712:
 738:src/main.cpp  **** 
 3258              		.loc 6 738 40 view .LVU1004
 738:src/main.cpp  **** 
 3259              		.loc 6 738 57 is_stmt 0 view .LVU1005
 3260 0fc6 B0EE005A 		vmov.f32	s10, #2.0e+0
 3261              	.LBE712:
 3262              	.LBE711:
 3263              	.LBE726:
 3264              	.LBE866:
 917:src/main.cpp  ****         float sub     = osc(s_phase_sub,VOICE.sub_wave)  * VOICE.sub_level;
 3265              		.loc 6 917 66 view .LVU1006
 3266 0fca 9DED177A 		vldr.32	s14, [sp, #92]
 3267              	.LBB867:
 3268              	.LBB727:
 3269              	.LBB714:
 3270              	.LBB713:
 738:src/main.cpp  **** 
 3271              		.loc 6 738 57 view .LVU1007
 3272 0fce FFEE000A 		vmov.f32	s1, #-1.0e+0
 3273 0fd2 E9EE050A 		vfma.f32	s1, s18, s10
 3274              	.LVL217:
 738:src/main.cpp  **** 
 3275              		.loc 6 738 57 view .LVU1008
 3276              	.LBE713:
ARM GAS  /tmp/claude-502/ccry90Vn.s 			page 98


 3277              	.LBE714:
 3278              	.LBE727:
 3279              	.LBE867:
 917:src/main.cpp  ****         float sub     = osc(s_phase_sub,VOICE.sub_wave)  * VOICE.sub_level;
 3280              		.loc 6 917 66 view .LVU1009
 3281 0fd6 60EE870A 		vmul.f32	s1, s1, s14
 3282              	.LBB868:
 3283              	.LBB728:
 746:src/main.cpp  ****         case WAVE_TRI:
 3284              		.loc 6 746 44 view .LVU1010
 3285 0fda 68E5     		b	.L52
 3286              	.LVL218:
 3287              	.L144:
 746:src/main.cpp  ****         case WAVE_TRI:
 3288              		.loc 6 746 44 view .LVU1011
 3289              	.LBE728:
 3290              	.LBE868:
 3291              	.LBB869:
 3292              	.LBB590:
 3293              	.LBB575:
 3294              	.LBB549:
 634:src/main.cpp  ****     float x2=x*x;
 3295              		.loc 6 634 24 view .LVU1012
 3296 0fdc BFEE005A 		vmov.f32	s10, #-1.0e+0
 3297 0fe0 FFF770BA 		b	.L89
 3298              	.LVL219:
 3299              	.L142:
 634:src/main.cpp  ****     float x2=x*x;
 3300              		.loc 6 634 24 view .LVU1013
 3301              	.LBE549:
 3302              	.LBE575:
 3303              	.LBB576:
 3304              	.LBB542:
 3305 0fe4 FFEE006A 		vmov.f32	s13, #-1.0e+0
 3306 0fe8 FFF74CBA 		b	.L88
 3307              	.LVL220:
 3308              	.L130:
 634:src/main.cpp  ****     float x2=x*x;
 3309              		.loc 6 634 24 view .LVU1014
 3310              	.LBE542:
 3311              	.LBE576:
 3312              	.LBE590:
 3313              	.LBE869:
 3314              	.LBB870:
 3315              	.LBB830:
 3316 0fec FFEE006A 		vmov.f32	s13, #-1.0e+0
 3317 0ff0 27E6     		b	.L80
 3318              	.LVL221:
 3319              	.L146:
 634:src/main.cpp  ****     float x2=x*x;
 3320              		.loc 6 634 24 view .LVU1015
 3321              	.LBE830:
 3322              	.LBE870:
 3323              	.LBB871:
 3324              	.LBB591:
 3325              	.LBB577:
 3326              	.LBB556:
ARM GAS  /tmp/claude-502/ccry90Vn.s 			page 99


 3327 0ff2 FFEE006A 		vmov.f32	s13, #-1.0e+0
 3328 0ff6 FFF78BBA 		b	.L90
 3329              	.LVL222:
 3330              	.L148:
 634:src/main.cpp  ****     float x2=x*x;
 3331              		.loc 6 634 24 view .LVU1016
 3332              	.LBE556:
 3333              	.LBE577:
 3334              	.LBB578:
 3335              	.LBB564:
 3336 0ffa BFEE005A 		vmov.f32	s10, #-1.0e+0
 3337 0ffe FFF7A7BA 		b	.L91
 3338              	.LVL223:
 3339              	.L196:
 634:src/main.cpp  ****     float x2=x*x;
 3340              		.loc 6 634 24 view .LVU1017
 3341 1002 B1EE466A 		vneg.f32	s12, s12
 3342 1006 FFF711BB 		b	.L93
 3343              	.LVL224:
 3344              	.L136:
 634:src/main.cpp  ****     float x2=x*x;
 3345              		.loc 6 634 24 view .LVU1018
 3346              	.LBE564:
 3347              	.LBE578:
 3348              	.LBB579:
 3349              	.LBB519:
 3350 100a BFEE005A 		vmov.f32	s10, #-1.0e+0
 3351 100e FFF7CDB9 		b	.L85
 3352              	.LVL225:
 3353              	.L134:
 634:src/main.cpp  ****     float x2=x*x;
 3354              		.loc 6 634 24 view .LVU1019
 3355              	.LBE519:
 3356              	.LBE579:
 3357              	.LBB580:
 3358              	.LBB512:
 3359 1012 FFEE005A 		vmov.f32	s11, #-1.0e+0
 3360 1016 FFF7A9B9 		b	.L84
 3361              	.LVL226:
 3362              	.L140:
 634:src/main.cpp  ****     float x2=x*x;
 3363              		.loc 6 634 24 view .LVU1020
 3364              	.LBE512:
 3365              	.LBE580:
 3366              	.LBB581:
 3367              	.LBB535:
 3368 101a BFEE005A 		vmov.f32	s10, #-1.0e+0
 3369 101e FFF70BBA 		b	.L87
 3370              	.LVL227:
 3371              	.L138:
 634:src/main.cpp  ****     float x2=x*x;
 3372              		.loc 6 634 24 view .LVU1021
 3373              	.LBE535:
 3374              	.LBE581:
 3375              	.LBB582:
 3376              	.LBB527:
 3377 1022 FFEE006A 		vmov.f32	s13, #-1.0e+0
ARM GAS  /tmp/claude-502/ccry90Vn.s 			page 100


 3378 1026 FFF7E7B9 		b	.L86
 3379              	.LVL228:
 3380              	.L179:
 634:src/main.cpp  ****     float x2=x*x;
 3381              		.loc 6 634 24 view .LVU1022
 3382              	.LBE527:
 3383              	.LBE582:
 3384              	.LBE591:
 3385              	.LBE871:
 3386              	.LBB872:
 3387              	.LBB771:
 3388              	.LBB758:
 3389              	.LBB743:
 3390              	.LBB740:
 726:src/main.cpp  **** }
 3391              		.loc 6 726 19 view .LVU1023
 3392 102a B0EE081A 		vmov.f32	s2, #3.0e+0
 3393              	.LBE740:
 3394              	.LBE743:
 3395              	.LBE758:
 3396              	.LBE771:
 3397              	.LBE872:
 918:src/main.cpp  ****         float osc_oct = osc(s_phase_oct,VOICE.oct_wave)  * VOICE.oct_level;
 3398              		.loc 6 918 66 view .LVU1024
 3399 102e 9DED187A 		vldr.32	s14, [sp, #96]
 3400              	.LBB873:
 3401              	.LBB772:
 3402              	.LBB759:
 3403              	.LBB744:
 3404              	.LBB741:
 726:src/main.cpp  **** }
 3405              		.loc 6 726 19 view .LVU1025
 3406 1032 A8EEC51A 		vfms.f32	s2, s17, s10
 3407              	.LBE741:
 3408              	.LBE744:
 3409              	.LBE759:
 3410              	.LBE772:
 3411              	.LBE873:
 918:src/main.cpp  ****         float osc_oct = osc(s_phase_oct,VOICE.oct_wave)  * VOICE.oct_level;
 3412              		.loc 6 918 66 view .LVU1026
 3413 1036 21EE071A 		vmul.f32	s2, s2, s14
 3414 103a 59E5     		b	.L62
 3415              	.LVL229:
 3416              	.L121:
 3417              	.LBB874:
 3418              	.LBB688:
 3419              	.LBB680:
 3420              	.LBB679:
 918:src/main.cpp  ****         float osc_oct = osc(s_phase_oct,VOICE.oct_wave)  * VOICE.oct_level;
 3421              		.loc 6 918 66 view .LVU1027
 3422 103c 8DED017A 		vstr.32	s14, [sp, #4]
 3423 1040 14E5     		b	.L42
 3424              	.LVL230:
 3425              	.L127:
 918:src/main.cpp  ****         float osc_oct = osc(s_phase_oct,VOICE.oct_wave)  * VOICE.oct_level;
 3426              		.loc 6 918 66 view .LVU1028
 3427              	.LBE679:
ARM GAS  /tmp/claude-502/ccry90Vn.s 			page 101


 3428              	.LBE680:
 3429              	.LBE688:
 3430              	.LBE874:
 3431              	.LBB875:
 3432              	.LBB816:
 3433              	.LBB804:
 3434              	.LBB799:
 3435 1042 8DED027A 		vstr.32	s14, [sp, #8]
 3436 1046 73E5     		b	.L72
 3437              	.LVL231:
 3438              	.L125:
 918:src/main.cpp  ****         float osc_oct = osc(s_phase_oct,VOICE.oct_wave)  * VOICE.oct_level;
 3439              		.loc 6 918 66 view .LVU1029
 3440              	.LBE799:
 3441              	.LBE804:
 3442              	.LBE816:
 3443              	.LBE875:
 3444              	.LBB876:
 3445              	.LBB773:
 3446              	.LBB760:
 3447              	.LBB749:
 3448 1048 9DED181A 		vldr.32	s2, [sp, #96]
 3449 104c 50E5     		b	.L62
 3450              	.LVL232:
 3451              	.L123:
 918:src/main.cpp  ****         float osc_oct = osc(s_phase_oct,VOICE.oct_wave)  * VOICE.oct_level;
 3452              		.loc 6 918 66 view .LVU1030
 3453              	.LBE749:
 3454              	.LBE760:
 3455              	.LBE773:
 3456              	.LBE876:
 3457              	.LBB877:
 3458              	.LBB729:
 3459              	.LBB715:
 3460              	.LBB706:
 3461 104e DDED170A 		vldr.32	s1, [sp, #92]
 3462 1052 2CE5     		b	.L52
 3463              	.LVL233:
 3464              	.L177:
 918:src/main.cpp  ****         float osc_oct = osc(s_phase_oct,VOICE.oct_wave)  * VOICE.oct_level;
 3465              		.loc 6 918 66 view .LVU1031
 3466              	.LBE706:
 3467              	.LBE715:
 3468              	.LBB716:
 3469              	.LBB700:
 3470              	.LBB697:
 726:src/main.cpp  **** }
 3471              		.loc 6 726 19 view .LVU1032
 3472 1054 F0EE080A 		vmov.f32	s1, #3.0e+0
 3473              	.LBE697:
 3474              	.LBE700:
 3475              	.LBE716:
 3476              	.LBE729:
 3477              	.LBE877:
 917:src/main.cpp  ****         float sub     = osc(s_phase_sub,VOICE.sub_wave)  * VOICE.sub_level;
 3478              		.loc 6 917 66 view .LVU1033
 3479 1058 9DED177A 		vldr.32	s14, [sp, #92]
ARM GAS  /tmp/claude-502/ccry90Vn.s 			page 102


 3480              	.LBB878:
 3481              	.LBB730:
 3482              	.LBB717:
 3483              	.LBB701:
 3484              	.LBB698:
 726:src/main.cpp  **** }
 3485              		.loc 6 726 19 view .LVU1034
 3486 105c E9EE450A 		vfms.f32	s1, s18, s10
 3487              	.LBE698:
 3488              	.LBE701:
 3489              	.LBE717:
 3490              	.LBE730:
 3491              	.LBE878:
 917:src/main.cpp  ****         float sub     = osc(s_phase_sub,VOICE.sub_wave)  * VOICE.sub_level;
 3492              		.loc 6 917 66 view .LVU1035
 3493 1060 60EE870A 		vmul.f32	s1, s1, s14
 3494 1064 23E5     		b	.L52
 3495              	.LVL234:
 3496              	.L3:
 917:src/main.cpp  ****         float sub     = osc(s_phase_sub,VOICE.sub_wave)  * VOICE.sub_level;
 3497              		.loc 6 917 66 view .LVU1036
 3498              	.LBE884:
 3499              	.LBE889:
 975:src/main.cpp  ****     }
 976:src/main.cpp  **** }
 3500              		.loc 6 976 1 view .LVU1037
 3501 1066 1BB0     		add	sp, sp, #108
 3502              		.cfi_remember_state
 3503              		.cfi_def_cfa_offset 100
 3504              		@ sp needed
 3505 1068 BDEC108B 		vldm	sp!, {d8-d15}
 3506              		.cfi_restore 94
 3507              		.cfi_restore 95
 3508              		.cfi_restore 92
 3509              		.cfi_restore 93
 3510              		.cfi_restore 90
 3511              		.cfi_restore 91
 3512              		.cfi_restore 88
 3513              		.cfi_restore 89
 3514              		.cfi_restore 86
 3515              		.cfi_restore 87
 3516              		.cfi_restore 84
 3517              		.cfi_restore 85
 3518              		.cfi_restore 82
 3519              		.cfi_restore 83
 3520              		.cfi_restore 80
 3521              		.cfi_restore 81
 3522              		.cfi_def_cfa_offset 36
 3523              	.LVL235:
 3524              		.loc 6 976 1 view .LVU1038
 3525 106c BDE8F08F 		pop	{r4, r5, r6, r7, r8, r9, r10, fp, pc}
 3526              	.LVL236:
 3527              	.L112:
 3528              		.cfi_restore_state
 3529              	.LBB890:
 3530              	.LBB475:
 719:src/main.cpp  ****     return expf(-1.0f / (ms * 0.001f * sr));
ARM GAS  /tmp/claude-502/ccry90Vn.s 			page 103


 3531              		.loc 6 719 27 view .LVU1039
 3532 1070 1FED990A 		vldr.32	s0, .L212+72
 3533              	.LVL237:
 719:src/main.cpp  ****     return expf(-1.0f / (ms * 0.001f * sr));
 3534              		.loc 6 719 27 view .LVU1040
 3535 1074 FFF729B8 		b	.L8
 3536              	.LVL238:
 3537              	.L195:
 719:src/main.cpp  ****     return expf(-1.0f / (ms * 0.001f * sr));
 3538              		.loc 6 719 27 view .LVU1041
 3539              	.LBE475:
 3540              	.LBE890:
 842:src/main.cpp  ****     s_prev_tamp = tamp;
 3541              		.loc 6 842 48 is_stmt 1 discriminator 2 view .LVU1042
 842:src/main.cpp  ****     s_prev_tamp = tamp;
 3542              		.loc 6 842 56 is_stmt 0 discriminator 2 view .LVU1043
 3543 1078 0B49     		ldr	r1, .L214
 3544 107a 0C4B     		ldr	r3, .L214+4
 3545 107c 0968     		ldr	r1, [r1]	@ float
 3546 107e 1960     		str	r1, [r3]	@ float
 3547 1080 FFF799B8 		b	.L12
 3548              	.LVL239:
 3549              	.L111:
 801:src/main.cpp  **** 
 3550              		.loc 6 801 40 view .LVU1044
 3551 1084 DFED0A7A 		vldr.32	s15, .L214+8
 3552              	.LVL240:
 801:src/main.cpp  **** 
 3553              		.loc 6 801 40 view .LVU1045
 3554 1088 CDED097A 		vstr.32	s15, [sp, #36]
 3555 108c FEF7D4BF 		b	.L4
 3556              	.LVL241:
 3557              	.L115:
 3558              	.LBB891:
 3559              	.LBB497:
 719:src/main.cpp  ****     return expf(-1.0f / (ms * 0.001f * sr));
 3560              		.loc 6 719 27 view .LVU1046
 3561 1090 DFED077A 		vldr.32	s15, .L214+8
 3562              	.LVL242:
 719:src/main.cpp  ****     return expf(-1.0f / (ms * 0.001f * sr));
 3563              		.loc 6 719 27 view .LVU1047
 3564 1094 FFF76FB8 		b	.L11
 3565              	.LVL243:
 3566              	.L114:
 719:src/main.cpp  ****     return expf(-1.0f / (ms * 0.001f * sr));
 3567              		.loc 6 719 27 view .LVU1048
 3568              	.LBE497:
 3569              	.LBE891:
 3570              	.LBB892:
 3571              	.LBB490:
 3572 1098 9FED050A 		vldr.32	s0, .L214+8
 3573 109c FFF74DB8 		b	.L10
 3574              	.LVL244:
 3575              	.L113:
 719:src/main.cpp  ****     return expf(-1.0f / (ms * 0.001f * sr));
 3576              		.loc 6 719 27 view .LVU1049
 3577              	.LBE490:
ARM GAS  /tmp/claude-502/ccry90Vn.s 			page 104


 3578              	.LBE892:
 3579              	.LBB893:
 3580              	.LBB483:
 3581 10a0 9FED030A 		vldr.32	s0, .L214+8
 3582 10a4 FFF72DB8 		b	.L9
 3583              	.L215:
 3584              		.align	2
 3585              	.L214:
 3586 10a8 00000000 		.word	.LANCHOR18
 3587 10ac 00000000 		.word	.LANCHOR20
 3588 10b0 00000000 		.word	0
 3589              	.LBE483:
 3590              	.LBE893:
 3591              		.cfi_endproc
 3592              	.LFE2590:
 3594              		.section	.text._Z9i2c_startv,"ax",%progbits
 3595              		.align	1
 3596              		.p2align 2,,3
 3597              		.global	_Z9i2c_startv
 3598              		.syntax unified
 3599              		.thumb
 3600              		.thumb_func
 3602              	_Z9i2c_startv:
 3603              	.LFB2566:
 449:src/main.cpp  **** void i2c_stop() {sda_low();d();scl_high();d();sda_high();d();}
 3604              		.loc 6 449 17 is_stmt 1 view -0
 3605              		.cfi_startproc
 3606              		@ args = 0, pretend = 0, frame = 0
 3607              		@ frame_needed = 0, uses_anonymous_args = 0
 449:src/main.cpp  **** void i2c_stop() {sda_low();d();scl_high();d();sda_high();d();}
 3608              		.loc 6 449 18 view .LVU1051
 3609              	.LBB910:
 3610              	.LBI910:
 443:src/main.cpp  **** inline void sda_low() {sda.Init(SDA_PIN,GPIO::Mode::OUTPUT,GPIO::Pull::NOPULL);sda.Write(false);}
 3611              		.loc 6 443 13 view .LVU1052
 3612              	.LBB911:
 443:src/main.cpp  **** inline void sda_low() {sda.Init(SDA_PIN,GPIO::Mode::OUTPUT,GPIO::Pull::NOPULL);sda.Write(false);}
 3613              		.loc 6 443 24 view .LVU1053
 3614              	.LBE911:
 3615              	.LBE910:
 449:src/main.cpp  **** void i2c_stop() {sda_low();d();scl_high();d();sda_high();d();}
 3616              		.loc 6 449 17 is_stmt 0 view .LVU1054
 3617 0000 2DE9F041 		push	{r4, r5, r6, r7, r8, lr}
 3618              		.cfi_def_cfa_offset 24
 3619              		.cfi_offset 4, -24
 3620              		.cfi_offset 5, -20
 3621              		.cfi_offset 6, -16
 3622              		.cfi_offset 7, -12
 3623              		.cfi_offset 8, -8
 3624              		.cfi_offset 14, -4
 3625              	.LBB916:
 3626              	.LBB912:
 443:src/main.cpp  **** inline void sda_low() {sda.Init(SDA_PIN,GPIO::Mode::OUTPUT,GPIO::Pull::NOPULL);sda.Write(false);}
 3627              		.loc 6 443 32 view .LVU1055
 3628 0004 0024     		movs	r4, #0
 3629              	.LBE912:
 3630              	.LBE916:
ARM GAS  /tmp/claude-502/ccry90Vn.s 			page 105


 449:src/main.cpp  **** void i2c_stop() {sda_low();d();scl_high();d();sda_high();d();}
 3631              		.loc 6 449 17 view .LVU1056
 3632 0006 82B0     		sub	sp, sp, #8
 3633              		.cfi_def_cfa_offset 32
 3634              	.LBB917:
 3635              	.LBB913:
 443:src/main.cpp  **** inline void sda_low() {sda.Init(SDA_PIN,GPIO::Mode::OUTPUT,GPIO::Pull::NOPULL);sda.Write(false);}
 3636              		.loc 6 443 32 view .LVU1057
 3637 0008 1C4E     		ldr	r6, .L218
 3638 000a 0123     		movs	r3, #1
 3639 000c DFF87880 		ldr	r8, .L218+12
 3640 0010 2246     		mov	r2, r4
 3641              	.LBE913:
 3642              	.LBE917:
 3643              	.LBB918:
 3644              	.LBB919:
 445:src/main.cpp  **** inline void scl_low() {scl.Init(SCL_PIN,GPIO::Mode::OUTPUT,GPIO::Pull::NOPULL);scl.Write(false);}
 3645              		.loc 6 445 32 view .LVU1058
 3646 0012 1B4D     		ldr	r5, .L218+4
 3647              	.LBE919:
 3648              	.LBE918:
 3649              	.LBB922:
 3650              	.LBB914:
 443:src/main.cpp  **** inline void sda_low() {sda.Init(SDA_PIN,GPIO::Mode::OUTPUT,GPIO::Pull::NOPULL);sda.Write(false);}
 3651              		.loc 6 443 32 view .LVU1059
 3652 0014 3046     		mov	r0, r6
 3653 0016 D8F80010 		ldr	r1, [r8]
 3654              	.LBE914:
 3655              	.LBE922:
 3656              	.LBB923:
 3657              	.LBB920:
 445:src/main.cpp  **** inline void scl_low() {scl.Init(SCL_PIN,GPIO::Mode::OUTPUT,GPIO::Pull::NOPULL);scl.Write(false);}
 3658              		.loc 6 445 32 view .LVU1060
 3659 001a 1A4F     		ldr	r7, .L218+8
 3660              	.LBE920:
 3661              	.LBE923:
 3662              	.LBB924:
 3663              	.LBB915:
 443:src/main.cpp  **** inline void sda_low() {sda.Init(SDA_PIN,GPIO::Mode::OUTPUT,GPIO::Pull::NOPULL);sda.Write(false);}
 3664              		.loc 6 443 32 view .LVU1061
 3665 001c 0094     		str	r4, [sp]
 3666 001e FFF7FEFF 		bl	_ZN5daisy4GPIO4InitENS_3PinENS0_4ModeENS0_4PullENS0_5SpeedE
 3667              	.LVL245:
 3668              	.LBE915:
 3669              	.LBE924:
 449:src/main.cpp  **** void i2c_stop() {sda_low();d();scl_high();d();sda_high();d();}
 3670              		.loc 6 449 29 is_stmt 1 view .LVU1062
 3671              	.LBB925:
 3672              	.LBI925:
 447:src/main.cpp  **** 
 3673              		.loc 6 447 13 view .LVU1063
 3674              	.LBB926:
 447:src/main.cpp  **** 
 3675              		.loc 6 447 17 view .LVU1064
 447:src/main.cpp  **** 
 3676              		.loc 6 447 32 is_stmt 0 view .LVU1065
 3677 0022 0520     		movs	r0, #5
ARM GAS  /tmp/claude-502/ccry90Vn.s 			page 106


 3678 0024 FFF7FEFF 		bl	_ZN5daisy6System7DelayUsEm
 3679              	.LVL246:
 3680              	.LBE926:
 3681              	.LBE925:
 449:src/main.cpp  **** void i2c_stop() {sda_low();d();scl_high();d();sda_high();d();}
 3682              		.loc 6 449 33 is_stmt 1 view .LVU1066
 3683              	.LBB927:
 3684              	.LBI918:
 445:src/main.cpp  **** inline void scl_low() {scl.Init(SCL_PIN,GPIO::Mode::OUTPUT,GPIO::Pull::NOPULL);scl.Write(false);}
 3685              		.loc 6 445 13 view .LVU1067
 3686              	.LBB921:
 445:src/main.cpp  **** inline void scl_low() {scl.Init(SCL_PIN,GPIO::Mode::OUTPUT,GPIO::Pull::NOPULL);scl.Write(false);}
 3687              		.loc 6 445 24 view .LVU1068
 445:src/main.cpp  **** inline void scl_low() {scl.Init(SCL_PIN,GPIO::Mode::OUTPUT,GPIO::Pull::NOPULL);scl.Write(false);}
 3688              		.loc 6 445 32 is_stmt 0 view .LVU1069
 3689 0028 2246     		mov	r2, r4
 3690 002a 3968     		ldr	r1, [r7]
 3691 002c 0123     		movs	r3, #1
 3692 002e 2846     		mov	r0, r5
 3693 0030 0094     		str	r4, [sp]
 3694 0032 FFF7FEFF 		bl	_ZN5daisy4GPIO4InitENS_3PinENS0_4ModeENS0_4PullENS0_5SpeedE
 3695              	.LVL247:
 3696              	.LBE921:
 3697              	.LBE927:
 449:src/main.cpp  **** void i2c_stop() {sda_low();d();scl_high();d();sda_high();d();}
 3698              		.loc 6 449 44 is_stmt 1 view .LVU1070
 3699              	.LBB928:
 3700              	.LBI928:
 447:src/main.cpp  **** 
 3701              		.loc 6 447 13 view .LVU1071
 3702              	.LBB929:
 447:src/main.cpp  **** 
 3703              		.loc 6 447 17 view .LVU1072
 447:src/main.cpp  **** 
 3704              		.loc 6 447 32 is_stmt 0 view .LVU1073
 3705 0036 0520     		movs	r0, #5
 3706 0038 FFF7FEFF 		bl	_ZN5daisy6System7DelayUsEm
 3707              	.LVL248:
 3708              	.LBE929:
 3709              	.LBE928:
 449:src/main.cpp  **** void i2c_stop() {sda_low();d();scl_high();d();sda_high();d();}
 3710              		.loc 6 449 48 is_stmt 1 view .LVU1074
 3711              	.LBB930:
 3712              	.LBI930:
 444:src/main.cpp  **** inline void scl_high(){scl.Init(SCL_PIN,GPIO::Mode::INPUT, GPIO::Pull::PULLUP);}
 3713              		.loc 6 444 13 view .LVU1075
 3714              	.LBB931:
 444:src/main.cpp  **** inline void scl_high(){scl.Init(SCL_PIN,GPIO::Mode::INPUT, GPIO::Pull::PULLUP);}
 3715              		.loc 6 444 24 view .LVU1076
 444:src/main.cpp  **** inline void scl_high(){scl.Init(SCL_PIN,GPIO::Mode::INPUT, GPIO::Pull::PULLUP);}
 3716              		.loc 6 444 32 is_stmt 0 view .LVU1077
 3717 003c 2346     		mov	r3, r4
 3718 003e 0122     		movs	r2, #1
 3719 0040 D8F80010 		ldr	r1, [r8]
 3720 0044 3046     		mov	r0, r6
 3721 0046 0094     		str	r4, [sp]
 3722 0048 FFF7FEFF 		bl	_ZN5daisy4GPIO4InitENS_3PinENS0_4ModeENS0_4PullENS0_5SpeedE
ARM GAS  /tmp/claude-502/ccry90Vn.s 			page 107


 3723              	.LVL249:
 444:src/main.cpp  **** inline void scl_high(){scl.Init(SCL_PIN,GPIO::Mode::INPUT, GPIO::Pull::PULLUP);}
 3724              		.loc 6 444 80 is_stmt 1 view .LVU1078
 444:src/main.cpp  **** inline void scl_high(){scl.Init(SCL_PIN,GPIO::Mode::INPUT, GPIO::Pull::PULLUP);}
 3725              		.loc 6 444 89 is_stmt 0 view .LVU1079
 3726 004c 2146     		mov	r1, r4
 3727 004e 3046     		mov	r0, r6
 3728 0050 FFF7FEFF 		bl	_ZN5daisy4GPIO5WriteEb
 3729              	.LVL250:
 3730              	.LBE931:
 3731              	.LBE930:
 449:src/main.cpp  **** void i2c_stop() {sda_low();d();scl_high();d();sda_high();d();}
 3732              		.loc 6 449 58 is_stmt 1 view .LVU1080
 3733              	.LBB932:
 3734              	.LBI932:
 447:src/main.cpp  **** 
 3735              		.loc 6 447 13 view .LVU1081
 3736              	.LBB933:
 447:src/main.cpp  **** 
 3737              		.loc 6 447 17 view .LVU1082
 447:src/main.cpp  **** 
 3738              		.loc 6 447 32 is_stmt 0 view .LVU1083
 3739 0054 0520     		movs	r0, #5
 3740 0056 FFF7FEFF 		bl	_ZN5daisy6System7DelayUsEm
 3741              	.LVL251:
 3742              	.LBE933:
 3743              	.LBE932:
 449:src/main.cpp  **** void i2c_stop() {sda_low();d();scl_high();d();sda_high();d();}
 3744              		.loc 6 449 62 is_stmt 1 view .LVU1084
 3745              	.LBB934:
 3746              	.LBI934:
 446:src/main.cpp  **** inline void d(){System::DelayUs(HP);}
 3747              		.loc 6 446 13 view .LVU1085
 3748              	.LBB935:
 446:src/main.cpp  **** inline void d(){System::DelayUs(HP);}
 3749              		.loc 6 446 24 view .LVU1086
 446:src/main.cpp  **** inline void d(){System::DelayUs(HP);}
 3750              		.loc 6 446 32 is_stmt 0 view .LVU1087
 3751 005a 2346     		mov	r3, r4
 3752 005c 0122     		movs	r2, #1
 3753 005e 3968     		ldr	r1, [r7]
 3754 0060 2846     		mov	r0, r5
 3755 0062 0094     		str	r4, [sp]
 3756 0064 FFF7FEFF 		bl	_ZN5daisy4GPIO4InitENS_3PinENS0_4ModeENS0_4PullENS0_5SpeedE
 3757              	.LVL252:
 446:src/main.cpp  **** inline void d(){System::DelayUs(HP);}
 3758              		.loc 6 446 80 is_stmt 1 view .LVU1088
 446:src/main.cpp  **** inline void d(){System::DelayUs(HP);}
 3759              		.loc 6 446 89 is_stmt 0 view .LVU1089
 3760 0068 2846     		mov	r0, r5
 3761 006a 2146     		mov	r1, r4
 3762 006c FFF7FEFF 		bl	_ZN5daisy4GPIO5WriteEb
 3763              	.LVL253:
 3764              	.LBE935:
 3765              	.LBE934:
 449:src/main.cpp  **** void i2c_stop() {sda_low();d();scl_high();d();sda_high();d();}
 3766              		.loc 6 449 72 is_stmt 1 view .LVU1090
ARM GAS  /tmp/claude-502/ccry90Vn.s 			page 108


 3767              	.LBB936:
 3768              	.LBI936:
 447:src/main.cpp  **** 
 3769              		.loc 6 447 13 view .LVU1091
 3770              	.LBB937:
 447:src/main.cpp  **** 
 3771              		.loc 6 447 17 view .LVU1092
 447:src/main.cpp  **** 
 3772              		.loc 6 447 32 is_stmt 0 view .LVU1093
 3773 0070 0520     		movs	r0, #5
 3774              	.LBE937:
 3775              	.LBE936:
 449:src/main.cpp  **** void i2c_stop() {sda_low();d();scl_high();d();sda_high();d();}
 3776              		.loc 6 449 76 view .LVU1094
 3777 0072 02B0     		add	sp, sp, #8
 3778              		.cfi_def_cfa_offset 24
 3779              		@ sp needed
 3780 0074 BDE8F041 		pop	{r4, r5, r6, r7, r8, lr}
 3781              		.cfi_restore 14
 3782              		.cfi_restore 8
 3783              		.cfi_restore 7
 3784              		.cfi_restore 6
 3785              		.cfi_restore 5
 3786              		.cfi_restore 4
 3787              		.cfi_def_cfa_offset 0
 3788              	.LBB939:
 3789              	.LBB938:
 447:src/main.cpp  **** 
 3790              		.loc 6 447 32 view .LVU1095
 3791 0078 FFF7FEBF 		b	_ZN5daisy6System7DelayUsEm
 3792              	.LVL254:
 3793              	.L219:
 3794              		.align	2
 3795              	.L218:
 3796 007c 00000000 		.word	.LANCHOR44
 3797 0080 00000000 		.word	.LANCHOR46
 3798 0084 00000000 		.word	.LANCHOR45
 3799 0088 00000000 		.word	.LANCHOR43
 3800              	.LBE938:
 3801              	.LBE939:
 3802              		.cfi_endproc
 3803              	.LFE2566:
 3805              		.section	.text._Z8i2c_stopv,"ax",%progbits
 3806              		.align	1
 3807              		.p2align 2,,3
 3808              		.global	_Z8i2c_stopv
 3809              		.syntax unified
 3810              		.thumb
 3811              		.thumb_func
 3813              	_Z8i2c_stopv:
 3814              	.LFB2567:
 450:src/main.cpp  **** 
 3815              		.loc 6 450 17 is_stmt 1 view -0
 3816              		.cfi_startproc
 3817              		@ args = 0, pretend = 0, frame = 0
 3818              		@ frame_needed = 0, uses_anonymous_args = 0
 450:src/main.cpp  **** 
ARM GAS  /tmp/claude-502/ccry90Vn.s 			page 109


 3819              		.loc 6 450 18 view .LVU1097
 3820              	.LBB952:
 3821              	.LBI952:
 444:src/main.cpp  **** inline void scl_high(){scl.Init(SCL_PIN,GPIO::Mode::INPUT, GPIO::Pull::PULLUP);}
 3822              		.loc 6 444 13 view .LVU1098
 3823              	.LBB953:
 444:src/main.cpp  **** inline void scl_high(){scl.Init(SCL_PIN,GPIO::Mode::INPUT, GPIO::Pull::PULLUP);}
 3824              		.loc 6 444 24 view .LVU1099
 3825              	.LBE953:
 3826              	.LBE952:
 450:src/main.cpp  **** 
 3827              		.loc 6 450 17 is_stmt 0 view .LVU1100
 3828 0000 70B5     		push	{r4, r5, r6, lr}
 3829              		.cfi_def_cfa_offset 16
 3830              		.cfi_offset 4, -16
 3831              		.cfi_offset 5, -12
 3832              		.cfi_offset 6, -8
 3833              		.cfi_offset 14, -4
 3834              	.LBB956:
 3835              	.LBB954:
 444:src/main.cpp  **** inline void scl_high(){scl.Init(SCL_PIN,GPIO::Mode::INPUT, GPIO::Pull::PULLUP);}
 3836              		.loc 6 444 32 view .LVU1101
 3837 0002 0024     		movs	r4, #0
 3838              	.LBE954:
 3839              	.LBE956:
 450:src/main.cpp  **** 
 3840              		.loc 6 450 17 view .LVU1102
 3841 0004 82B0     		sub	sp, sp, #8
 3842              		.cfi_def_cfa_offset 24
 3843              	.LBB957:
 3844              	.LBB955:
 444:src/main.cpp  **** inline void scl_high(){scl.Init(SCL_PIN,GPIO::Mode::INPUT, GPIO::Pull::PULLUP);}
 3845              		.loc 6 444 32 view .LVU1103
 3846 0006 144D     		ldr	r5, .L222
 3847 0008 0122     		movs	r2, #1
 3848 000a 144E     		ldr	r6, .L222+4
 3849 000c 2346     		mov	r3, r4
 3850 000e 2846     		mov	r0, r5
 3851 0010 0094     		str	r4, [sp]
 3852 0012 3168     		ldr	r1, [r6]
 3853 0014 FFF7FEFF 		bl	_ZN5daisy4GPIO4InitENS_3PinENS0_4ModeENS0_4PullENS0_5SpeedE
 3854              	.LVL255:
 444:src/main.cpp  **** inline void scl_high(){scl.Init(SCL_PIN,GPIO::Mode::INPUT, GPIO::Pull::PULLUP);}
 3855              		.loc 6 444 80 is_stmt 1 view .LVU1104
 444:src/main.cpp  **** inline void scl_high(){scl.Init(SCL_PIN,GPIO::Mode::INPUT, GPIO::Pull::PULLUP);}
 3856              		.loc 6 444 89 is_stmt 0 view .LVU1105
 3857 0018 2146     		mov	r1, r4
 3858 001a 2846     		mov	r0, r5
 3859 001c FFF7FEFF 		bl	_ZN5daisy4GPIO5WriteEb
 3860              	.LVL256:
 3861              	.LBE955:
 3862              	.LBE957:
 450:src/main.cpp  **** 
 3863              		.loc 6 450 28 is_stmt 1 view .LVU1106
 3864              	.LBB958:
 3865              	.LBI958:
 447:src/main.cpp  **** 
ARM GAS  /tmp/claude-502/ccry90Vn.s 			page 110


 3866              		.loc 6 447 13 view .LVU1107
 3867              	.LBB959:
 447:src/main.cpp  **** 
 3868              		.loc 6 447 17 view .LVU1108
 447:src/main.cpp  **** 
 3869              		.loc 6 447 32 is_stmt 0 view .LVU1109
 3870 0020 0520     		movs	r0, #5
 3871 0022 FFF7FEFF 		bl	_ZN5daisy6System7DelayUsEm
 3872              	.LVL257:
 3873              	.LBE959:
 3874              	.LBE958:
 450:src/main.cpp  **** 
 3875              		.loc 6 450 32 is_stmt 1 view .LVU1110
 3876              	.LBB960:
 3877              	.LBI960:
 445:src/main.cpp  **** inline void scl_low() {scl.Init(SCL_PIN,GPIO::Mode::OUTPUT,GPIO::Pull::NOPULL);scl.Write(false);}
 3878              		.loc 6 445 13 view .LVU1111
 3879              	.LBB961:
 445:src/main.cpp  **** inline void scl_low() {scl.Init(SCL_PIN,GPIO::Mode::OUTPUT,GPIO::Pull::NOPULL);scl.Write(false);}
 3880              		.loc 6 445 24 view .LVU1112
 445:src/main.cpp  **** inline void scl_low() {scl.Init(SCL_PIN,GPIO::Mode::OUTPUT,GPIO::Pull::NOPULL);scl.Write(false);}
 3881              		.loc 6 445 32 is_stmt 0 view .LVU1113
 3882 0026 0E4A     		ldr	r2, .L222+8
 3883 0028 0123     		movs	r3, #1
 3884 002a 0E48     		ldr	r0, .L222+12
 3885 002c 1168     		ldr	r1, [r2]
 3886 002e 2246     		mov	r2, r4
 3887 0030 0094     		str	r4, [sp]
 3888 0032 FFF7FEFF 		bl	_ZN5daisy4GPIO4InitENS_3PinENS0_4ModeENS0_4PullENS0_5SpeedE
 3889              	.LVL258:
 3890              	.LBE961:
 3891              	.LBE960:
 450:src/main.cpp  **** 
 3892              		.loc 6 450 43 is_stmt 1 view .LVU1114
 3893              	.LBB962:
 3894              	.LBI962:
 447:src/main.cpp  **** 
 3895              		.loc 6 447 13 view .LVU1115
 3896              	.LBB963:
 447:src/main.cpp  **** 
 3897              		.loc 6 447 17 view .LVU1116
 447:src/main.cpp  **** 
 3898              		.loc 6 447 32 is_stmt 0 view .LVU1117
 3899 0036 0520     		movs	r0, #5
 3900 0038 FFF7FEFF 		bl	_ZN5daisy6System7DelayUsEm
 3901              	.LVL259:
 3902              	.LBE963:
 3903              	.LBE962:
 450:src/main.cpp  **** 
 3904              		.loc 6 450 47 is_stmt 1 view .LVU1118
 3905              	.LBB964:
 3906              	.LBI964:
 443:src/main.cpp  **** inline void sda_low() {sda.Init(SDA_PIN,GPIO::Mode::OUTPUT,GPIO::Pull::NOPULL);sda.Write(false);}
 3907              		.loc 6 443 13 view .LVU1119
 3908              	.LBB965:
 443:src/main.cpp  **** inline void sda_low() {sda.Init(SDA_PIN,GPIO::Mode::OUTPUT,GPIO::Pull::NOPULL);sda.Write(false);}
 3909              		.loc 6 443 24 view .LVU1120
ARM GAS  /tmp/claude-502/ccry90Vn.s 			page 111


 443:src/main.cpp  **** inline void sda_low() {sda.Init(SDA_PIN,GPIO::Mode::OUTPUT,GPIO::Pull::NOPULL);sda.Write(false);}
 3910              		.loc 6 443 32 is_stmt 0 view .LVU1121
 3911 003c 2846     		mov	r0, r5
 3912 003e 0123     		movs	r3, #1
 3913 0040 2246     		mov	r2, r4
 3914 0042 3168     		ldr	r1, [r6]
 3915 0044 0094     		str	r4, [sp]
 3916 0046 FFF7FEFF 		bl	_ZN5daisy4GPIO4InitENS_3PinENS0_4ModeENS0_4PullENS0_5SpeedE
 3917              	.LVL260:
 3918              	.LBE965:
 3919              	.LBE964:
 450:src/main.cpp  **** 
 3920              		.loc 6 450 58 is_stmt 1 view .LVU1122
 3921              	.LBB966:
 3922              	.LBI966:
 447:src/main.cpp  **** 
 3923              		.loc 6 447 13 view .LVU1123
 3924              	.LBB967:
 447:src/main.cpp  **** 
 3925              		.loc 6 447 17 view .LVU1124
 447:src/main.cpp  **** 
 3926              		.loc 6 447 32 is_stmt 0 view .LVU1125
 3927 004a 0520     		movs	r0, #5
 3928              	.LBE967:
 3929              	.LBE966:
 450:src/main.cpp  **** 
 3930              		.loc 6 450 62 view .LVU1126
 3931 004c 02B0     		add	sp, sp, #8
 3932              		.cfi_def_cfa_offset 16
 3933              		@ sp needed
 3934 004e BDE87040 		pop	{r4, r5, r6, lr}
 3935              		.cfi_restore 14
 3936              		.cfi_restore 6
 3937              		.cfi_restore 5
 3938              		.cfi_restore 4
 3939              		.cfi_def_cfa_offset 0
 3940              	.LBB969:
 3941              	.LBB968:
 447:src/main.cpp  **** 
 3942              		.loc 6 447 32 view .LVU1127
 3943 0052 FFF7FEBF 		b	_ZN5daisy6System7DelayUsEm
 3944              	.LVL261:
 3945              	.L223:
 3946 0056 00BF     		.align	2
 3947              	.L222:
 3948 0058 00000000 		.word	.LANCHOR44
 3949 005c 00000000 		.word	.LANCHOR43
 3950 0060 00000000 		.word	.LANCHOR45
 3951 0064 00000000 		.word	.LANCHOR46
 3952              	.LBE968:
 3953              	.LBE969:
 3954              		.cfi_endproc
 3955              	.LFE2567:
 3957              		.section	.text._Z14i2c_write_byteh,"ax",%progbits
 3958              		.align	1
 3959              		.p2align 2,,3
 3960              		.global	_Z14i2c_write_byteh
ARM GAS  /tmp/claude-502/ccry90Vn.s 			page 112


 3961              		.syntax unified
 3962              		.thumb
 3963              		.thumb_func
 3965              	_Z14i2c_write_byteh:
 3966              	.LVL262:
 3967              	.LFB2568:
 453:src/main.cpp  ****     for(int i=7;i>=0;i--){
 3968              		.loc 6 453 1 is_stmt 1 view -0
 3969              		.cfi_startproc
 3970              		@ args = 0, pretend = 0, frame = 0
 3971              		@ frame_needed = 0, uses_anonymous_args = 0
 454:src/main.cpp  ****         if(byte&(1<<i))sda_high();else sda_low();
 3972              		.loc 6 454 5 view .LVU1129
 3973              	.LBB997:
 454:src/main.cpp  ****         if(byte&(1<<i))sda_high();else sda_low();
 3974              		.loc 6 454 18 view .LVU1130
 3975              	.LBE997:
 453:src/main.cpp  ****     for(int i=7;i>=0;i--){
 3976              		.loc 6 453 1 is_stmt 0 view .LVU1131
 3977 0000 2DE9F041 		push	{r4, r5, r6, r7, r8, lr}
 3978              		.cfi_def_cfa_offset 24
 3979              		.cfi_offset 4, -24
 3980              		.cfi_offset 5, -20
 3981              		.cfi_offset 6, -16
 3982              		.cfi_offset 7, -12
 3983              		.cfi_offset 8, -8
 3984              		.cfi_offset 14, -4
 3985              	.LBB1028:
 454:src/main.cpp  ****         if(byte&(1<<i))sda_high();else sda_low();
 3986              		.loc 6 454 13 view .LVU1132
 3987 0004 0725     		movs	r5, #7
 3988              	.LBE1028:
 453:src/main.cpp  ****     for(int i=7;i>=0;i--){
 3989              		.loc 6 453 1 view .LVU1133
 3990 0006 82B0     		sub	sp, sp, #8
 3991              		.cfi_def_cfa_offset 32
 3992 0008 DFF8E480 		ldr	r8, .L232+12
 453:src/main.cpp  ****     for(int i=7;i>=0;i--){
 3993              		.loc 6 453 1 view .LVU1134
 3994 000c 0746     		mov	r7, r0
 3995 000e 354E     		ldr	r6, .L232
 3996 0010 25E0     		b	.L227
 3997              	.LVL263:
 3998              	.L231:
 3999              	.LBB1029:
 4000              	.LBB998:
 4001              	.LBB999:
 443:src/main.cpp  **** inline void sda_low() {sda.Init(SDA_PIN,GPIO::Mode::OUTPUT,GPIO::Pull::NOPULL);sda.Write(false);}
 4002              		.loc 6 443 32 view .LVU1135
 4003 0012 6246     		mov	r2, ip
 4004 0014 D8F80010 		ldr	r1, [r8]
 4005 0018 CDF800C0 		str	ip, [sp]
 4006 001c FFF7FEFF 		bl	_ZN5daisy4GPIO4InitENS_3PinENS0_4ModeENS0_4PullENS0_5SpeedE
 4007              	.LVL264:
 4008              	.L226:
 4009              	.LBE999:
 4010              	.LBE998:
ARM GAS  /tmp/claude-502/ccry90Vn.s 			page 113


 456:src/main.cpp  ****     }
 4011              		.loc 6 456 9 is_stmt 1 discriminator 2 view .LVU1136
 4012              	.LBB1003:
 4013              	.LBI1003:
 447:src/main.cpp  **** 
 4014              		.loc 6 447 13 discriminator 2 view .LVU1137
 4015              	.LBB1004:
 447:src/main.cpp  **** 
 4016              		.loc 6 447 17 discriminator 2 view .LVU1138
 4017              	.LBE1004:
 4018              	.LBE1003:
 4019              	.LBB1006:
 4020              	.LBB1007:
 445:src/main.cpp  **** inline void scl_low() {scl.Init(SCL_PIN,GPIO::Mode::OUTPUT,GPIO::Pull::NOPULL);scl.Write(false);}
 4021              		.loc 6 445 32 is_stmt 0 discriminator 2 view .LVU1139
 4022 0020 0024     		movs	r4, #0
 4023              	.LBE1007:
 4024              	.LBE1006:
 4025              	.LBB1010:
 4026              	.LBB1005:
 447:src/main.cpp  **** 
 4027              		.loc 6 447 32 discriminator 2 view .LVU1140
 4028 0022 0520     		movs	r0, #5
 4029 0024 FFF7FEFF 		bl	_ZN5daisy6System7DelayUsEm
 4030              	.LVL265:
 4031              	.LBE1005:
 4032              	.LBE1010:
 456:src/main.cpp  ****     }
 4033              		.loc 6 456 13 is_stmt 1 discriminator 2 view .LVU1141
 4034              	.LBB1011:
 4035              	.LBI1006:
 445:src/main.cpp  **** inline void scl_low() {scl.Init(SCL_PIN,GPIO::Mode::OUTPUT,GPIO::Pull::NOPULL);scl.Write(false);}
 4036              		.loc 6 445 13 discriminator 2 view .LVU1142
 4037              	.LBB1008:
 445:src/main.cpp  **** inline void scl_low() {scl.Init(SCL_PIN,GPIO::Mode::OUTPUT,GPIO::Pull::NOPULL);scl.Write(false);}
 4038              		.loc 6 445 24 discriminator 2 view .LVU1143
 445:src/main.cpp  **** inline void scl_low() {scl.Init(SCL_PIN,GPIO::Mode::OUTPUT,GPIO::Pull::NOPULL);scl.Write(false);}
 4039              		.loc 6 445 32 is_stmt 0 discriminator 2 view .LVU1144
 4040 0028 0123     		movs	r3, #1
 4041 002a 2246     		mov	r2, r4
 4042 002c 3168     		ldr	r1, [r6]
 4043 002e 2E48     		ldr	r0, .L232+4
 4044              	.LBE1008:
 4045              	.LBE1011:
 454:src/main.cpp  ****         if(byte&(1<<i))sda_high();else sda_low();
 4046              		.loc 6 454 5 discriminator 2 view .LVU1145
 4047 0030 013D     		subs	r5, r5, #1
 4048              	.LVL266:
 4049              	.LBB1012:
 4050              	.LBB1009:
 445:src/main.cpp  **** inline void scl_low() {scl.Init(SCL_PIN,GPIO::Mode::OUTPUT,GPIO::Pull::NOPULL);scl.Write(false);}
 4051              		.loc 6 445 32 discriminator 2 view .LVU1146
 4052 0032 0094     		str	r4, [sp]
 4053 0034 FFF7FEFF 		bl	_ZN5daisy4GPIO4InitENS_3PinENS0_4ModeENS0_4PullENS0_5SpeedE
 4054              	.LVL267:
 4055              	.LBE1009:
 4056              	.LBE1012:
ARM GAS  /tmp/claude-502/ccry90Vn.s 			page 114


 456:src/main.cpp  ****     }
 4057              		.loc 6 456 24 is_stmt 1 discriminator 2 view .LVU1147
 4058              	.LBB1013:
 4059              	.LBI1013:
 447:src/main.cpp  **** 
 4060              		.loc 6 447 13 discriminator 2 view .LVU1148
 4061              	.LBB1014:
 447:src/main.cpp  **** 
 4062              		.loc 6 447 17 discriminator 2 view .LVU1149
 447:src/main.cpp  **** 
 4063              		.loc 6 447 32 is_stmt 0 discriminator 2 view .LVU1150
 4064 0038 0520     		movs	r0, #5
 4065 003a FFF7FEFF 		bl	_ZN5daisy6System7DelayUsEm
 4066              	.LVL268:
 4067              	.LBE1014:
 4068              	.LBE1013:
 456:src/main.cpp  ****     }
 4069              		.loc 6 456 28 is_stmt 1 discriminator 2 view .LVU1151
 4070              	.LBB1015:
 4071              	.LBI1015:
 446:src/main.cpp  **** inline void d(){System::DelayUs(HP);}
 4072              		.loc 6 446 13 discriminator 2 view .LVU1152
 4073              	.LBB1016:
 446:src/main.cpp  **** inline void d(){System::DelayUs(HP);}
 4074              		.loc 6 446 24 discriminator 2 view .LVU1153
 446:src/main.cpp  **** inline void d(){System::DelayUs(HP);}
 4075              		.loc 6 446 32 is_stmt 0 discriminator 2 view .LVU1154
 4076 003e 2346     		mov	r3, r4
 4077 0040 0122     		movs	r2, #1
 4078 0042 2948     		ldr	r0, .L232+4
 4079 0044 3168     		ldr	r1, [r6]
 4080 0046 0094     		str	r4, [sp]
 4081 0048 FFF7FEFF 		bl	_ZN5daisy4GPIO4InitENS_3PinENS0_4ModeENS0_4PullENS0_5SpeedE
 4082              	.LVL269:
 446:src/main.cpp  **** inline void d(){System::DelayUs(HP);}
 4083              		.loc 6 446 80 is_stmt 1 discriminator 2 view .LVU1155
 446:src/main.cpp  **** inline void d(){System::DelayUs(HP);}
 4084              		.loc 6 446 89 is_stmt 0 discriminator 2 view .LVU1156
 4085 004c 2146     		mov	r1, r4
 4086 004e 2648     		ldr	r0, .L232+4
 4087 0050 FFF7FEFF 		bl	_ZN5daisy4GPIO5WriteEb
 4088              	.LVL270:
 4089              	.LBE1016:
 4090              	.LBE1015:
 456:src/main.cpp  ****     }
 4091              		.loc 6 456 38 is_stmt 1 discriminator 2 view .LVU1157
 4092              	.LBB1017:
 4093              	.LBI1017:
 447:src/main.cpp  **** 
 4094              		.loc 6 447 13 discriminator 2 view .LVU1158
 4095              	.LBB1018:
 447:src/main.cpp  **** 
 4096              		.loc 6 447 17 discriminator 2 view .LVU1159
 447:src/main.cpp  **** 
 4097              		.loc 6 447 32 is_stmt 0 discriminator 2 view .LVU1160
 4098 0054 0520     		movs	r0, #5
 4099 0056 FFF7FEFF 		bl	_ZN5daisy6System7DelayUsEm
ARM GAS  /tmp/claude-502/ccry90Vn.s 			page 115


 4100              	.LVL271:
 4101              	.LBE1018:
 4102              	.LBE1017:
 454:src/main.cpp  ****         if(byte&(1<<i))sda_high();else sda_low();
 4103              		.loc 6 454 5 is_stmt 1 discriminator 2 view .LVU1161
 454:src/main.cpp  ****         if(byte&(1<<i))sda_high();else sda_low();
 4104              		.loc 6 454 18 discriminator 2 view .LVU1162
 4105 005a 6B1C     		adds	r3, r5, #1
 4106 005c 14D0     		beq	.L230
 4107              	.LVL272:
 4108              	.L227:
 455:src/main.cpp  ****         d();scl_high();d();scl_low();d();
 4109              		.loc 6 455 9 view .LVU1163
 455:src/main.cpp  ****         d();scl_high();d();scl_low();d();
 4110              		.loc 6 455 24 view .LVU1164
 4111              	.LBB1019:
 4112              	.LBI998:
 443:src/main.cpp  **** inline void sda_low() {sda.Init(SDA_PIN,GPIO::Mode::OUTPUT,GPIO::Pull::NOPULL);sda.Write(false);}
 4113              		.loc 6 443 13 view .LVU1165
 4114              	.LBB1000:
 443:src/main.cpp  **** inline void sda_low() {sda.Init(SDA_PIN,GPIO::Mode::OUTPUT,GPIO::Pull::NOPULL);sda.Write(false);}
 4115              		.loc 6 443 24 view .LVU1166
 4116              	.LBE1000:
 4117              	.LBE1019:
 455:src/main.cpp  ****         d();scl_high();d();scl_low();d();
 4118              		.loc 6 455 40 view .LVU1167
 4119              	.LBB1020:
 4120              	.LBI1020:
 444:src/main.cpp  **** inline void scl_high(){scl.Init(SCL_PIN,GPIO::Mode::INPUT, GPIO::Pull::PULLUP);}
 4121              		.loc 6 444 13 view .LVU1168
 4122              	.LBB1021:
 444:src/main.cpp  **** inline void scl_high(){scl.Init(SCL_PIN,GPIO::Mode::INPUT, GPIO::Pull::PULLUP);}
 4123              		.loc 6 444 24 view .LVU1169
 444:src/main.cpp  **** inline void scl_high(){scl.Init(SCL_PIN,GPIO::Mode::INPUT, GPIO::Pull::PULLUP);}
 4124              		.loc 6 444 32 is_stmt 0 view .LVU1170
 4125 005e 0122     		movs	r2, #1
 4126              	.LBE1021:
 4127              	.LBE1020:
 455:src/main.cpp  ****         d();scl_high();d();scl_low();d();
 4128              		.loc 6 455 16 view .LVU1171
 4129 0060 47FA05F1 		asr	r1, r7, r5
 4130              	.LBB1024:
 4131              	.LBB1001:
 443:src/main.cpp  **** inline void sda_low() {sda.Init(SDA_PIN,GPIO::Mode::OUTPUT,GPIO::Pull::NOPULL);sda.Write(false);}
 4132              		.loc 6 443 32 view .LVU1172
 4133 0064 4FF0000C 		mov	ip, #0
 4134              	.LBE1001:
 4135              	.LBE1024:
 4136              	.LBB1025:
 4137              	.LBB1022:
 444:src/main.cpp  **** inline void scl_high(){scl.Init(SCL_PIN,GPIO::Mode::INPUT, GPIO::Pull::PULLUP);}
 4138              		.loc 6 444 32 view .LVU1173
 4139 0068 2048     		ldr	r0, .L232+8
 4140              	.LBE1022:
 4141              	.LBE1025:
 455:src/main.cpp  ****         d();scl_high();d();scl_low();d();
 4142              		.loc 6 455 9 view .LVU1174
ARM GAS  /tmp/claude-502/ccry90Vn.s 			page 116


 4143 006a 11EA0204 		ands	r4, r1, r2
 4144              	.LBB1026:
 4145              	.LBB1002:
 443:src/main.cpp  **** inline void sda_low() {sda.Init(SDA_PIN,GPIO::Mode::OUTPUT,GPIO::Pull::NOPULL);sda.Write(false);}
 4146              		.loc 6 443 32 view .LVU1175
 4147 006e 1346     		mov	r3, r2
 4148              	.LBE1002:
 4149              	.LBE1026:
 455:src/main.cpp  ****         d();scl_high();d();scl_low();d();
 4150              		.loc 6 455 9 view .LVU1176
 4151 0070 CFD1     		bne	.L231
 4152              	.LBB1027:
 4153              	.LBB1023:
 444:src/main.cpp  **** inline void scl_high(){scl.Init(SCL_PIN,GPIO::Mode::INPUT, GPIO::Pull::PULLUP);}
 4154              		.loc 6 444 32 view .LVU1177
 4155 0072 D8F80010 		ldr	r1, [r8]
 4156 0076 2346     		mov	r3, r4
 4157 0078 0094     		str	r4, [sp]
 4158 007a FFF7FEFF 		bl	_ZN5daisy4GPIO4InitENS_3PinENS0_4ModeENS0_4PullENS0_5SpeedE
 4159              	.LVL273:
 444:src/main.cpp  **** inline void scl_high(){scl.Init(SCL_PIN,GPIO::Mode::INPUT, GPIO::Pull::PULLUP);}
 4160              		.loc 6 444 80 is_stmt 1 view .LVU1178
 444:src/main.cpp  **** inline void scl_high(){scl.Init(SCL_PIN,GPIO::Mode::INPUT, GPIO::Pull::PULLUP);}
 4161              		.loc 6 444 89 is_stmt 0 view .LVU1179
 4162 007e 2146     		mov	r1, r4
 4163 0080 1A48     		ldr	r0, .L232+8
 4164 0082 FFF7FEFF 		bl	_ZN5daisy4GPIO5WriteEb
 4165              	.LVL274:
 444:src/main.cpp  **** inline void scl_high(){scl.Init(SCL_PIN,GPIO::Mode::INPUT, GPIO::Pull::PULLUP);}
 4166              		.loc 6 444 97 view .LVU1180
 4167 0086 CBE7     		b	.L226
 4168              	.L230:
 444:src/main.cpp  **** inline void scl_high(){scl.Init(SCL_PIN,GPIO::Mode::INPUT, GPIO::Pull::PULLUP);}
 4169              		.loc 6 444 97 view .LVU1181
 4170              	.LBE1023:
 4171              	.LBE1027:
 4172              	.LBE1029:
 458:src/main.cpp  ****     bool ack=!sda.Read();
 4173              		.loc 6 458 5 is_stmt 1 view .LVU1182
 4174              	.LBB1030:
 4175              	.LBI1030:
 443:src/main.cpp  **** inline void sda_low() {sda.Init(SDA_PIN,GPIO::Mode::OUTPUT,GPIO::Pull::NOPULL);sda.Write(false);}
 4176              		.loc 6 443 13 view .LVU1183
 4177              	.LBB1031:
 443:src/main.cpp  **** inline void sda_low() {sda.Init(SDA_PIN,GPIO::Mode::OUTPUT,GPIO::Pull::NOPULL);sda.Write(false);}
 4178              		.loc 6 443 24 view .LVU1184
 443:src/main.cpp  **** inline void sda_low() {sda.Init(SDA_PIN,GPIO::Mode::OUTPUT,GPIO::Pull::NOPULL);sda.Write(false);}
 4179              		.loc 6 443 32 is_stmt 0 view .LVU1185
 4180 0088 2246     		mov	r2, r4
 4181 008a D8F80010 		ldr	r1, [r8]
 4182 008e 0123     		movs	r3, #1
 4183 0090 1648     		ldr	r0, .L232+8
 4184 0092 0094     		str	r4, [sp]
 4185 0094 FFF7FEFF 		bl	_ZN5daisy4GPIO4InitENS_3PinENS0_4ModeENS0_4PullENS0_5SpeedE
 4186              	.LVL275:
 4187              	.LBE1031:
 4188              	.LBE1030:
ARM GAS  /tmp/claude-502/ccry90Vn.s 			page 117


 458:src/main.cpp  ****     bool ack=!sda.Read();
 4189              		.loc 6 458 16 is_stmt 1 view .LVU1186
 4190              	.LBB1032:
 4191              	.LBI1032:
 447:src/main.cpp  **** 
 4192              		.loc 6 447 13 view .LVU1187
 4193              	.LBB1033:
 447:src/main.cpp  **** 
 4194              		.loc 6 447 17 view .LVU1188
 447:src/main.cpp  **** 
 4195              		.loc 6 447 32 is_stmt 0 view .LVU1189
 4196 0098 0520     		movs	r0, #5
 4197 009a FFF7FEFF 		bl	_ZN5daisy6System7DelayUsEm
 4198              	.LVL276:
 4199              	.LBE1033:
 4200              	.LBE1032:
 458:src/main.cpp  ****     bool ack=!sda.Read();
 4201              		.loc 6 458 20 is_stmt 1 view .LVU1190
 4202              	.LBB1034:
 4203              	.LBI1034:
 445:src/main.cpp  **** inline void scl_low() {scl.Init(SCL_PIN,GPIO::Mode::OUTPUT,GPIO::Pull::NOPULL);scl.Write(false);}
 4204              		.loc 6 445 13 view .LVU1191
 4205              	.LBB1035:
 445:src/main.cpp  **** inline void scl_low() {scl.Init(SCL_PIN,GPIO::Mode::OUTPUT,GPIO::Pull::NOPULL);scl.Write(false);}
 4206              		.loc 6 445 24 view .LVU1192
 445:src/main.cpp  **** inline void scl_low() {scl.Init(SCL_PIN,GPIO::Mode::OUTPUT,GPIO::Pull::NOPULL);scl.Write(false);}
 4207              		.loc 6 445 32 is_stmt 0 view .LVU1193
 4208 009e 2246     		mov	r2, r4
 4209 00a0 3168     		ldr	r1, [r6]
 4210 00a2 0123     		movs	r3, #1
 4211 00a4 1048     		ldr	r0, .L232+4
 4212 00a6 0094     		str	r4, [sp]
 4213 00a8 FFF7FEFF 		bl	_ZN5daisy4GPIO4InitENS_3PinENS0_4ModeENS0_4PullENS0_5SpeedE
 4214              	.LVL277:
 4215              	.LBE1035:
 4216              	.LBE1034:
 458:src/main.cpp  ****     bool ack=!sda.Read();
 4217              		.loc 6 458 31 is_stmt 1 view .LVU1194
 4218              	.LBB1036:
 4219              	.LBI1036:
 447:src/main.cpp  **** 
 4220              		.loc 6 447 13 view .LVU1195
 4221              	.LBB1037:
 447:src/main.cpp  **** 
 4222              		.loc 6 447 17 view .LVU1196
 447:src/main.cpp  **** 
 4223              		.loc 6 447 32 is_stmt 0 view .LVU1197
 4224 00ac 0520     		movs	r0, #5
 4225 00ae FFF7FEFF 		bl	_ZN5daisy6System7DelayUsEm
 4226              	.LVL278:
 4227              	.LBE1037:
 4228              	.LBE1036:
 459:src/main.cpp  ****     scl_low();d();
 4229              		.loc 6 459 5 is_stmt 1 view .LVU1198
 459:src/main.cpp  ****     scl_low();d();
 4230              		.loc 6 459 23 is_stmt 0 view .LVU1199
 4231 00b2 0E48     		ldr	r0, .L232+8
ARM GAS  /tmp/claude-502/ccry90Vn.s 			page 118


 4232 00b4 FFF7FEFF 		bl	_ZN5daisy4GPIO4ReadEv
 4233              	.LVL279:
 4234              	.LBB1038:
 4235              	.LBB1039:
 446:src/main.cpp  **** inline void d(){System::DelayUs(HP);}
 4236              		.loc 6 446 32 view .LVU1200
 4237 00b8 2346     		mov	r3, r4
 4238 00ba 0122     		movs	r2, #1
 4239 00bc 3168     		ldr	r1, [r6]
 4240              	.LBE1039:
 4241              	.LBE1038:
 459:src/main.cpp  ****     scl_low();d();
 4242              		.loc 6 459 23 view .LVU1201
 4243 00be 0546     		mov	r5, r0
 4244              	.LVL280:
 460:src/main.cpp  ****     return ack;
 4245              		.loc 6 460 5 is_stmt 1 view .LVU1202
 4246              	.LBB1041:
 4247              	.LBI1038:
 446:src/main.cpp  **** inline void d(){System::DelayUs(HP);}
 4248              		.loc 6 446 13 view .LVU1203
 4249              	.LBB1040:
 446:src/main.cpp  **** inline void d(){System::DelayUs(HP);}
 4250              		.loc 6 446 24 view .LVU1204
 446:src/main.cpp  **** inline void d(){System::DelayUs(HP);}
 4251              		.loc 6 446 32 is_stmt 0 view .LVU1205
 4252 00c0 0094     		str	r4, [sp]
 4253 00c2 0948     		ldr	r0, .L232+4
 4254 00c4 FFF7FEFF 		bl	_ZN5daisy4GPIO4InitENS_3PinENS0_4ModeENS0_4PullENS0_5SpeedE
 4255              	.LVL281:
 446:src/main.cpp  **** inline void d(){System::DelayUs(HP);}
 4256              		.loc 6 446 80 is_stmt 1 view .LVU1206
 446:src/main.cpp  **** inline void d(){System::DelayUs(HP);}
 4257              		.loc 6 446 89 is_stmt 0 view .LVU1207
 4258 00c8 2146     		mov	r1, r4
 4259 00ca 0748     		ldr	r0, .L232+4
 4260 00cc FFF7FEFF 		bl	_ZN5daisy4GPIO5WriteEb
 4261              	.LVL282:
 4262              	.LBE1040:
 4263              	.LBE1041:
 460:src/main.cpp  ****     return ack;
 4264              		.loc 6 460 15 is_stmt 1 view .LVU1208
 4265              	.LBB1042:
 4266              	.LBI1042:
 447:src/main.cpp  **** 
 4267              		.loc 6 447 13 view .LVU1209
 4268              	.LBB1043:
 447:src/main.cpp  **** 
 4269              		.loc 6 447 17 view .LVU1210
 447:src/main.cpp  **** 
 4270              		.loc 6 447 32 is_stmt 0 view .LVU1211
 4271 00d0 0520     		movs	r0, #5
 4272 00d2 FFF7FEFF 		bl	_ZN5daisy6System7DelayUsEm
 4273              	.LVL283:
 4274              	.LBE1043:
 4275              	.LBE1042:
 461:src/main.cpp  **** }
ARM GAS  /tmp/claude-502/ccry90Vn.s 			page 119


 4276              		.loc 6 461 5 is_stmt 1 view .LVU1212
 459:src/main.cpp  ****     scl_low();d();
 4277              		.loc 6 459 24 is_stmt 0 view .LVU1213
 4278 00d6 85F00100 		eor	r0, r5, #1
 462:src/main.cpp  **** 
 4279              		.loc 6 462 1 view .LVU1214
 4280 00da C0B2     		uxtb	r0, r0
 4281 00dc 02B0     		add	sp, sp, #8
 4282              		.cfi_def_cfa_offset 24
 4283              		@ sp needed
 4284 00de BDE8F081 		pop	{r4, r5, r6, r7, r8, pc}
 4285              	.LVL284:
 4286              	.L233:
 462:src/main.cpp  **** 
 4287              		.loc 6 462 1 view .LVU1215
 4288 00e2 00BF     		.align	2
 4289              	.L232:
 4290 00e4 00000000 		.word	.LANCHOR45
 4291 00e8 00000000 		.word	.LANCHOR46
 4292 00ec 00000000 		.word	.LANCHOR44
 4293 00f0 00000000 		.word	.LANCHOR43
 4294              		.cfi_endproc
 4295              	.LFE2568:
 4297              		.section	.text._Z13i2c_read_byteb,"ax",%progbits
 4298              		.align	1
 4299              		.p2align 2,,3
 4300              		.global	_Z13i2c_read_byteb
 4301              		.syntax unified
 4302              		.thumb
 4303              		.thumb_func
 4305              	_Z13i2c_read_byteb:
 4306              	.LVL285:
 4307              	.LFB2569:
 465:src/main.cpp  ****     uint8_t b=0;sda_high();
 4308              		.loc 6 465 1 is_stmt 1 view -0
 4309              		.cfi_startproc
 4310              		@ args = 0, pretend = 0, frame = 0
 4311              		@ frame_needed = 0, uses_anonymous_args = 0
 466:src/main.cpp  ****     for(int i=7;i>=0;i--){d();scl_high();d();if(sda.Read())b|=(1<<i);scl_low();}
 4312              		.loc 6 466 5 view .LVU1217
 466:src/main.cpp  ****     for(int i=7;i>=0;i--){d();scl_high();d();if(sda.Read())b|=(1<<i);scl_low();}
 4313              		.loc 6 466 17 view .LVU1218
 4314              	.LBB1071:
 4315              	.LBI1071:
 443:src/main.cpp  **** inline void sda_low() {sda.Init(SDA_PIN,GPIO::Mode::OUTPUT,GPIO::Pull::NOPULL);sda.Write(false);}
 4316              		.loc 6 443 13 view .LVU1219
 4317              	.LBB1072:
 443:src/main.cpp  **** inline void sda_low() {sda.Init(SDA_PIN,GPIO::Mode::OUTPUT,GPIO::Pull::NOPULL);sda.Write(false);}
 4318              		.loc 6 443 24 view .LVU1220
 4319              	.LBE1072:
 4320              	.LBE1071:
 465:src/main.cpp  ****     uint8_t b=0;sda_high();
 4321              		.loc 6 465 1 is_stmt 0 view .LVU1221
 4322 0000 2DE9F043 		push	{r4, r5, r6, r7, r8, r9, lr}
 4323              		.cfi_def_cfa_offset 28
 4324              		.cfi_offset 4, -28
 4325              		.cfi_offset 5, -24
ARM GAS  /tmp/claude-502/ccry90Vn.s 			page 120


 4326              		.cfi_offset 6, -20
 4327              		.cfi_offset 7, -16
 4328              		.cfi_offset 8, -12
 4329              		.cfi_offset 9, -8
 4330              		.cfi_offset 14, -4
 4331              	.LBB1078:
 4332              	.LBB1073:
 443:src/main.cpp  **** inline void sda_low() {sda.Init(SDA_PIN,GPIO::Mode::OUTPUT,GPIO::Pull::NOPULL);sda.Write(false);}
 4333              		.loc 6 443 32 view .LVU1222
 4334 0004 0022     		movs	r2, #0
 4335              	.LBE1073:
 4336              	.LBE1078:
 465:src/main.cpp  ****     uint8_t b=0;sda_high();
 4337              		.loc 6 465 1 view .LVU1223
 4338 0006 83B0     		sub	sp, sp, #12
 4339              		.cfi_def_cfa_offset 40
 4340              	.LBB1079:
 4341              	.LBB1074:
 443:src/main.cpp  **** inline void sda_low() {sda.Init(SDA_PIN,GPIO::Mode::OUTPUT,GPIO::Pull::NOPULL);sda.Write(false);}
 4342              		.loc 6 443 32 view .LVU1224
 4343 0008 DFF8F480 		ldr	r8, .L244+12
 4344              	.LBE1074:
 4345              	.LBE1079:
 465:src/main.cpp  ****     uint8_t b=0;sda_high();
 4346              		.loc 6 465 1 view .LVU1225
 4347 000c 0746     		mov	r7, r0
 4348              	.LBB1080:
 4349              	.LBB1075:
 443:src/main.cpp  **** inline void sda_low() {sda.Init(SDA_PIN,GPIO::Mode::OUTPUT,GPIO::Pull::NOPULL);sda.Write(false);}
 4350              		.loc 6 443 32 view .LVU1226
 4351 000e 0123     		movs	r3, #1
 4352 0010 3848     		ldr	r0, .L244
 4353              	.LVL286:
 443:src/main.cpp  **** inline void sda_low() {sda.Init(SDA_PIN,GPIO::Mode::OUTPUT,GPIO::Pull::NOPULL);sda.Write(false);}
 4354              		.loc 6 443 32 view .LVU1227
 4355 0012 D8F80010 		ldr	r1, [r8]
 4356              	.LBE1075:
 4357              	.LBE1080:
 466:src/main.cpp  ****     for(int i=7;i>=0;i--){d();scl_high();d();if(sda.Read())b|=(1<<i);scl_low();}
 4358              		.loc 6 466 13 view .LVU1228
 4359 0016 9146     		mov	r9, r2
 4360              	.LBB1081:
 4361              	.LBB1076:
 443:src/main.cpp  **** inline void sda_low() {sda.Init(SDA_PIN,GPIO::Mode::OUTPUT,GPIO::Pull::NOPULL);sda.Write(false);}
 4362              		.loc 6 443 32 view .LVU1229
 4363 0018 0092     		str	r2, [sp]
 4364              	.LBE1076:
 4365              	.LBE1081:
 4366              	.LBB1082:
 467:src/main.cpp  ****     if(ack)sda_low();else sda_high();
 4367              		.loc 6 467 13 view .LVU1230
 4368 001a 0725     		movs	r5, #7
 4369 001c 364E     		ldr	r6, .L244+4
 4370              	.LBE1082:
 4371              	.LBB1101:
 4372              	.LBB1077:
 443:src/main.cpp  **** inline void sda_low() {sda.Init(SDA_PIN,GPIO::Mode::OUTPUT,GPIO::Pull::NOPULL);sda.Write(false);}
ARM GAS  /tmp/claude-502/ccry90Vn.s 			page 121


 4373              		.loc 6 443 32 view .LVU1231
 4374 001e FFF7FEFF 		bl	_ZN5daisy4GPIO4InitENS_3PinENS0_4ModeENS0_4PullENS0_5SpeedE
 4375              	.LVL287:
 443:src/main.cpp  **** inline void sda_low() {sda.Init(SDA_PIN,GPIO::Mode::OUTPUT,GPIO::Pull::NOPULL);sda.Write(false);}
 4376              		.loc 6 443 32 view .LVU1232
 4377              	.LBE1077:
 4378              	.LBE1101:
 4379              	.LBB1102:
 467:src/main.cpp  ****     if(ack)sda_low();else sda_high();
 4380              		.loc 6 467 18 is_stmt 1 view .LVU1233
 4381              	.L236:
 467:src/main.cpp  ****     if(ack)sda_low();else sda_high();
 4382              		.loc 6 467 27 view .LVU1234
 4383              	.LBB1083:
 4384              	.LBI1083:
 447:src/main.cpp  **** 
 4385              		.loc 6 447 13 view .LVU1235
 4386              	.LBB1084:
 447:src/main.cpp  **** 
 4387              		.loc 6 447 17 view .LVU1236
 4388              	.LBE1084:
 4389              	.LBE1083:
 4390              	.LBB1086:
 4391              	.LBB1087:
 446:src/main.cpp  **** inline void d(){System::DelayUs(HP);}
 4392              		.loc 6 446 32 is_stmt 0 view .LVU1237
 4393 0022 0024     		movs	r4, #0
 4394              	.LBE1087:
 4395              	.LBE1086:
 4396              	.LBB1092:
 4397              	.LBB1085:
 447:src/main.cpp  **** 
 4398              		.loc 6 447 32 view .LVU1238
 4399 0024 0520     		movs	r0, #5
 4400 0026 FFF7FEFF 		bl	_ZN5daisy6System7DelayUsEm
 4401              	.LVL288:
 4402              	.LBE1085:
 4403              	.LBE1092:
 467:src/main.cpp  ****     if(ack)sda_low();else sda_high();
 4404              		.loc 6 467 31 is_stmt 1 view .LVU1239
 4405              	.LBB1093:
 4406              	.LBI1093:
 445:src/main.cpp  **** inline void scl_low() {scl.Init(SCL_PIN,GPIO::Mode::OUTPUT,GPIO::Pull::NOPULL);scl.Write(false);}
 4407              		.loc 6 445 13 view .LVU1240
 4408              	.LBB1094:
 445:src/main.cpp  **** inline void scl_low() {scl.Init(SCL_PIN,GPIO::Mode::OUTPUT,GPIO::Pull::NOPULL);scl.Write(false);}
 4409              		.loc 6 445 24 view .LVU1241
 445:src/main.cpp  **** inline void scl_low() {scl.Init(SCL_PIN,GPIO::Mode::OUTPUT,GPIO::Pull::NOPULL);scl.Write(false);}
 4410              		.loc 6 445 32 is_stmt 0 view .LVU1242
 4411 002a 0123     		movs	r3, #1
 4412 002c 2246     		mov	r2, r4
 4413 002e 3168     		ldr	r1, [r6]
 4414 0030 3248     		ldr	r0, .L244+8
 4415 0032 0094     		str	r4, [sp]
 4416 0034 FFF7FEFF 		bl	_ZN5daisy4GPIO4InitENS_3PinENS0_4ModeENS0_4PullENS0_5SpeedE
 4417              	.LVL289:
 4418              	.LBE1094:
ARM GAS  /tmp/claude-502/ccry90Vn.s 			page 122


 4419              	.LBE1093:
 467:src/main.cpp  ****     if(ack)sda_low();else sda_high();
 4420              		.loc 6 467 42 is_stmt 1 view .LVU1243
 4421              	.LBB1095:
 4422              	.LBI1095:
 447:src/main.cpp  **** 
 4423              		.loc 6 447 13 view .LVU1244
 4424              	.LBB1096:
 447:src/main.cpp  **** 
 4425              		.loc 6 447 17 view .LVU1245
 447:src/main.cpp  **** 
 4426              		.loc 6 447 32 is_stmt 0 view .LVU1246
 4427 0038 0520     		movs	r0, #5
 4428 003a FFF7FEFF 		bl	_ZN5daisy6System7DelayUsEm
 4429              	.LVL290:
 4430              	.LBE1096:
 4431              	.LBE1095:
 467:src/main.cpp  ****     if(ack)sda_low();else sda_high();
 4432              		.loc 6 467 46 is_stmt 1 view .LVU1247
 467:src/main.cpp  ****     if(ack)sda_low();else sda_high();
 4433              		.loc 6 467 57 is_stmt 0 view .LVU1248
 4434 003e 2D48     		ldr	r0, .L244
 4435 0040 FFF7FEFF 		bl	_ZN5daisy4GPIO4ReadEv
 4436              	.LVL291:
 467:src/main.cpp  ****     if(ack)sda_low();else sda_high();
 4437              		.loc 6 467 60 is_stmt 1 view .LVU1249
 467:src/main.cpp  ****     if(ack)sda_low();else sda_high();
 4438              		.loc 6 467 65 is_stmt 0 view .LVU1250
 4439 0044 0121     		movs	r1, #1
 467:src/main.cpp  ****     if(ack)sda_low();else sda_high();
 4440              		.loc 6 467 57 view .LVU1251
 4441 0046 8646     		mov	lr, r0
 4442              	.LBB1097:
 4443              	.LBB1088:
 446:src/main.cpp  **** inline void d(){System::DelayUs(HP);}
 4444              		.loc 6 446 32 view .LVU1252
 4445 0048 2346     		mov	r3, r4
 4446              	.LBE1088:
 4447              	.LBE1097:
 467:src/main.cpp  ****     if(ack)sda_low();else sda_high();
 4448              		.loc 6 467 65 view .LVU1253
 4449 004a 01FA05FC 		lsl	ip, r1, r5
 4450              	.LBB1098:
 4451              	.LBB1089:
 446:src/main.cpp  **** inline void d(){System::DelayUs(HP);}
 4452              		.loc 6 446 32 view .LVU1254
 4453 004e 0A46     		mov	r2, r1
 4454 0050 2A48     		ldr	r0, .L244+8
 4455              	.LBE1089:
 4456              	.LBE1098:
 467:src/main.cpp  ****     if(ack)sda_low();else sda_high();
 4457              		.loc 6 467 5 view .LVU1255
 4458 0052 013D     		subs	r5, r5, #1
 4459              	.LVL292:
 4460              	.LBB1099:
 4461              	.LBB1090:
 446:src/main.cpp  **** inline void d(){System::DelayUs(HP);}
ARM GAS  /tmp/claude-502/ccry90Vn.s 			page 123


 4462              		.loc 6 446 32 view .LVU1256
 4463 0054 3168     		ldr	r1, [r6]
 4464              	.LBE1090:
 4465              	.LBE1099:
 467:src/main.cpp  ****     if(ack)sda_low();else sda_high();
 4466              		.loc 6 467 46 view .LVU1257
 4467 0056 BEF1000F 		cmp	lr, #0
 4468 005a 03D0     		beq	.L235
 467:src/main.cpp  ****     if(ack)sda_low();else sda_high();
 4469              		.loc 6 467 61 discriminator 3 view .LVU1258
 4470 005c 4CEA090C 		orr	ip, ip, r9
 4471 0060 5FFA8CF9 		uxtb	r9, ip
 4472              	.LVL293:
 4473              	.L235:
 467:src/main.cpp  ****     if(ack)sda_low();else sda_high();
 4474              		.loc 6 467 70 is_stmt 1 discriminator 5 view .LVU1259
 4475              	.LBB1100:
 4476              	.LBI1086:
 446:src/main.cpp  **** inline void d(){System::DelayUs(HP);}
 4477              		.loc 6 446 13 discriminator 5 view .LVU1260
 4478              	.LBB1091:
 446:src/main.cpp  **** inline void d(){System::DelayUs(HP);}
 4479              		.loc 6 446 24 discriminator 5 view .LVU1261
 446:src/main.cpp  **** inline void d(){System::DelayUs(HP);}
 4480              		.loc 6 446 32 is_stmt 0 discriminator 5 view .LVU1262
 4481 0064 0094     		str	r4, [sp]
 4482 0066 FFF7FEFF 		bl	_ZN5daisy4GPIO4InitENS_3PinENS0_4ModeENS0_4PullENS0_5SpeedE
 4483              	.LVL294:
 446:src/main.cpp  **** inline void d(){System::DelayUs(HP);}
 4484              		.loc 6 446 80 is_stmt 1 discriminator 5 view .LVU1263
 446:src/main.cpp  **** inline void d(){System::DelayUs(HP);}
 4485              		.loc 6 446 89 is_stmt 0 discriminator 5 view .LVU1264
 4486 006a 2146     		mov	r1, r4
 4487 006c 2348     		ldr	r0, .L244+8
 4488 006e FFF7FEFF 		bl	_ZN5daisy4GPIO5WriteEb
 4489              	.LVL295:
 4490              	.LBE1091:
 4491              	.LBE1100:
 467:src/main.cpp  ****     if(ack)sda_low();else sda_high();
 4492              		.loc 6 467 5 is_stmt 1 discriminator 5 view .LVU1265
 467:src/main.cpp  ****     if(ack)sda_low();else sda_high();
 4493              		.loc 6 467 18 discriminator 5 view .LVU1266
 4494 0072 6B1C     		adds	r3, r5, #1
 4495 0074 D5D1     		bne	.L236
 467:src/main.cpp  ****     if(ack)sda_low();else sda_high();
 4496              		.loc 6 467 18 is_stmt 0 discriminator 5 view .LVU1267
 4497              	.LBE1102:
 468:src/main.cpp  ****     d();scl_high();d();scl_low();d();sda_high();
 4498              		.loc 6 468 5 is_stmt 1 view .LVU1268
 4499 0076 002F     		cmp	r7, #0
 4500 0078 33D0     		beq	.L237
 468:src/main.cpp  ****     d();scl_high();d();scl_low();d();sda_high();
 4501              		.loc 6 468 12 view .LVU1269
 4502              	.LBB1103:
 4503              	.LBI1103:
 444:src/main.cpp  **** inline void scl_high(){scl.Init(SCL_PIN,GPIO::Mode::INPUT, GPIO::Pull::PULLUP);}
 4504              		.loc 6 444 13 view .LVU1270
ARM GAS  /tmp/claude-502/ccry90Vn.s 			page 124


 4505              	.LBB1104:
 444:src/main.cpp  **** inline void scl_high(){scl.Init(SCL_PIN,GPIO::Mode::INPUT, GPIO::Pull::PULLUP);}
 4506              		.loc 6 444 24 view .LVU1271
 444:src/main.cpp  **** inline void scl_high(){scl.Init(SCL_PIN,GPIO::Mode::INPUT, GPIO::Pull::PULLUP);}
 4507              		.loc 6 444 32 is_stmt 0 view .LVU1272
 4508 007a D8F80010 		ldr	r1, [r8]
 4509 007e 2346     		mov	r3, r4
 4510 0080 1C48     		ldr	r0, .L244
 4511 0082 0122     		movs	r2, #1
 4512 0084 0094     		str	r4, [sp]
 4513 0086 FFF7FEFF 		bl	_ZN5daisy4GPIO4InitENS_3PinENS0_4ModeENS0_4PullENS0_5SpeedE
 4514              	.LVL296:
 444:src/main.cpp  **** inline void scl_high(){scl.Init(SCL_PIN,GPIO::Mode::INPUT, GPIO::Pull::PULLUP);}
 4515              		.loc 6 444 80 is_stmt 1 view .LVU1273
 444:src/main.cpp  **** inline void scl_high(){scl.Init(SCL_PIN,GPIO::Mode::INPUT, GPIO::Pull::PULLUP);}
 4516              		.loc 6 444 89 is_stmt 0 view .LVU1274
 4517 008a 2146     		mov	r1, r4
 4518 008c 1948     		ldr	r0, .L244
 4519 008e FFF7FEFF 		bl	_ZN5daisy4GPIO5WriteEb
 4520              	.LVL297:
 4521              	.L238:
 444:src/main.cpp  **** inline void scl_high(){scl.Init(SCL_PIN,GPIO::Mode::INPUT, GPIO::Pull::PULLUP);}
 4522              		.loc 6 444 89 view .LVU1275
 4523              	.LBE1104:
 4524              	.LBE1103:
 469:src/main.cpp  ****     return b;
 4525              		.loc 6 469 5 is_stmt 1 view .LVU1276
 4526              	.LBB1105:
 4527              	.LBI1105:
 447:src/main.cpp  **** 
 4528              		.loc 6 447 13 view .LVU1277
 4529              	.LBB1106:
 447:src/main.cpp  **** 
 4530              		.loc 6 447 17 view .LVU1278
 4531              	.LBE1106:
 4532              	.LBE1105:
 4533              	.LBB1108:
 4534              	.LBB1109:
 445:src/main.cpp  **** inline void scl_low() {scl.Init(SCL_PIN,GPIO::Mode::OUTPUT,GPIO::Pull::NOPULL);scl.Write(false);}
 4535              		.loc 6 445 32 is_stmt 0 view .LVU1279
 4536 0092 0024     		movs	r4, #0
 4537              	.LBE1109:
 4538              	.LBE1108:
 4539              	.LBB1111:
 4540              	.LBB1107:
 447:src/main.cpp  **** 
 4541              		.loc 6 447 32 view .LVU1280
 4542 0094 0520     		movs	r0, #5
 4543 0096 FFF7FEFF 		bl	_ZN5daisy6System7DelayUsEm
 4544              	.LVL298:
 4545              	.LBE1107:
 4546              	.LBE1111:
 469:src/main.cpp  ****     return b;
 4547              		.loc 6 469 9 is_stmt 1 view .LVU1281
 4548              	.LBB1112:
 4549              	.LBI1108:
 445:src/main.cpp  **** inline void scl_low() {scl.Init(SCL_PIN,GPIO::Mode::OUTPUT,GPIO::Pull::NOPULL);scl.Write(false);}
ARM GAS  /tmp/claude-502/ccry90Vn.s 			page 125


 4550              		.loc 6 445 13 view .LVU1282
 4551              	.LBB1110:
 445:src/main.cpp  **** inline void scl_low() {scl.Init(SCL_PIN,GPIO::Mode::OUTPUT,GPIO::Pull::NOPULL);scl.Write(false);}
 4552              		.loc 6 445 24 view .LVU1283
 445:src/main.cpp  **** inline void scl_low() {scl.Init(SCL_PIN,GPIO::Mode::OUTPUT,GPIO::Pull::NOPULL);scl.Write(false);}
 4553              		.loc 6 445 32 is_stmt 0 view .LVU1284
 4554 009a 3168     		ldr	r1, [r6]
 4555 009c 2246     		mov	r2, r4
 4556 009e 0123     		movs	r3, #1
 4557 00a0 1648     		ldr	r0, .L244+8
 4558 00a2 0094     		str	r4, [sp]
 4559 00a4 FFF7FEFF 		bl	_ZN5daisy4GPIO4InitENS_3PinENS0_4ModeENS0_4PullENS0_5SpeedE
 4560              	.LVL299:
 4561              	.LBE1110:
 4562              	.LBE1112:
 469:src/main.cpp  ****     return b;
 4563              		.loc 6 469 20 is_stmt 1 view .LVU1285
 4564              	.LBB1113:
 4565              	.LBI1113:
 447:src/main.cpp  **** 
 4566              		.loc 6 447 13 view .LVU1286
 4567              	.LBB1114:
 447:src/main.cpp  **** 
 4568              		.loc 6 447 17 view .LVU1287
 447:src/main.cpp  **** 
 4569              		.loc 6 447 32 is_stmt 0 view .LVU1288
 4570 00a8 0520     		movs	r0, #5
 4571 00aa FFF7FEFF 		bl	_ZN5daisy6System7DelayUsEm
 4572              	.LVL300:
 4573              	.LBE1114:
 4574              	.LBE1113:
 469:src/main.cpp  ****     return b;
 4575              		.loc 6 469 24 is_stmt 1 view .LVU1289
 4576              	.LBB1115:
 4577              	.LBI1115:
 446:src/main.cpp  **** inline void d(){System::DelayUs(HP);}
 4578              		.loc 6 446 13 view .LVU1290
 4579              	.LBB1116:
 446:src/main.cpp  **** inline void d(){System::DelayUs(HP);}
 4580              		.loc 6 446 24 view .LVU1291
 446:src/main.cpp  **** inline void d(){System::DelayUs(HP);}
 4581              		.loc 6 446 32 is_stmt 0 view .LVU1292
 4582 00ae 2346     		mov	r3, r4
 4583 00b0 0122     		movs	r2, #1
 4584 00b2 3168     		ldr	r1, [r6]
 4585 00b4 1148     		ldr	r0, .L244+8
 4586 00b6 0094     		str	r4, [sp]
 4587 00b8 FFF7FEFF 		bl	_ZN5daisy4GPIO4InitENS_3PinENS0_4ModeENS0_4PullENS0_5SpeedE
 4588              	.LVL301:
 446:src/main.cpp  **** inline void d(){System::DelayUs(HP);}
 4589              		.loc 6 446 80 is_stmt 1 view .LVU1293
 446:src/main.cpp  **** inline void d(){System::DelayUs(HP);}
 4590              		.loc 6 446 89 is_stmt 0 view .LVU1294
 4591 00bc 2146     		mov	r1, r4
 4592 00be 0F48     		ldr	r0, .L244+8
 4593 00c0 FFF7FEFF 		bl	_ZN5daisy4GPIO5WriteEb
 4594              	.LVL302:
ARM GAS  /tmp/claude-502/ccry90Vn.s 			page 126


 4595              	.LBE1116:
 4596              	.LBE1115:
 469:src/main.cpp  ****     return b;
 4597              		.loc 6 469 34 is_stmt 1 view .LVU1295
 4598              	.LBB1117:
 4599              	.LBI1117:
 447:src/main.cpp  **** 
 4600              		.loc 6 447 13 view .LVU1296
 4601              	.LBB1118:
 447:src/main.cpp  **** 
 4602              		.loc 6 447 17 view .LVU1297
 447:src/main.cpp  **** 
 4603              		.loc 6 447 32 is_stmt 0 view .LVU1298
 4604 00c4 0520     		movs	r0, #5
 4605 00c6 FFF7FEFF 		bl	_ZN5daisy6System7DelayUsEm
 4606              	.LVL303:
 4607              	.LBE1118:
 4608              	.LBE1117:
 469:src/main.cpp  ****     return b;
 4609              		.loc 6 469 38 is_stmt 1 view .LVU1299
 4610              	.LBB1119:
 4611              	.LBI1119:
 443:src/main.cpp  **** inline void sda_low() {sda.Init(SDA_PIN,GPIO::Mode::OUTPUT,GPIO::Pull::NOPULL);sda.Write(false);}
 4612              		.loc 6 443 13 view .LVU1300
 4613              	.LBB1120:
 443:src/main.cpp  **** inline void sda_low() {sda.Init(SDA_PIN,GPIO::Mode::OUTPUT,GPIO::Pull::NOPULL);sda.Write(false);}
 4614              		.loc 6 443 24 view .LVU1301
 443:src/main.cpp  **** inline void sda_low() {sda.Init(SDA_PIN,GPIO::Mode::OUTPUT,GPIO::Pull::NOPULL);sda.Write(false);}
 4615              		.loc 6 443 32 is_stmt 0 view .LVU1302
 4616 00ca 0123     		movs	r3, #1
 4617 00cc 2246     		mov	r2, r4
 4618 00ce D8F80010 		ldr	r1, [r8]
 4619 00d2 0848     		ldr	r0, .L244
 4620 00d4 0094     		str	r4, [sp]
 4621 00d6 FFF7FEFF 		bl	_ZN5daisy4GPIO4InitENS_3PinENS0_4ModeENS0_4PullENS0_5SpeedE
 4622              	.LVL304:
 4623              	.LBE1120:
 4624              	.LBE1119:
 470:src/main.cpp  **** }
 4625              		.loc 6 470 5 is_stmt 1 view .LVU1303
 471:src/main.cpp  **** 
 4626              		.loc 6 471 1 is_stmt 0 view .LVU1304
 4627 00da 4846     		mov	r0, r9
 4628 00dc 03B0     		add	sp, sp, #12
 4629              		.cfi_remember_state
 4630              		.cfi_def_cfa_offset 28
 4631              		@ sp needed
 4632 00de BDE8F083 		pop	{r4, r5, r6, r7, r8, r9, pc}
 4633              	.LVL305:
 4634              	.L237:
 4635              		.cfi_restore_state
 468:src/main.cpp  ****     d();scl_high();d();scl_low();d();sda_high();
 4636              		.loc 6 468 27 is_stmt 1 view .LVU1305
 4637              	.LBB1121:
 4638              	.LBI1121:
 443:src/main.cpp  **** inline void sda_low() {sda.Init(SDA_PIN,GPIO::Mode::OUTPUT,GPIO::Pull::NOPULL);sda.Write(false);}
 4639              		.loc 6 443 13 view .LVU1306
ARM GAS  /tmp/claude-502/ccry90Vn.s 			page 127


 4640              	.LBB1122:
 443:src/main.cpp  **** inline void sda_low() {sda.Init(SDA_PIN,GPIO::Mode::OUTPUT,GPIO::Pull::NOPULL);sda.Write(false);}
 4641              		.loc 6 443 24 view .LVU1307
 443:src/main.cpp  **** inline void sda_low() {sda.Init(SDA_PIN,GPIO::Mode::OUTPUT,GPIO::Pull::NOPULL);sda.Write(false);}
 4642              		.loc 6 443 32 is_stmt 0 view .LVU1308
 4643 00e2 0123     		movs	r3, #1
 4644 00e4 3A46     		mov	r2, r7
 4645 00e6 D8F80010 		ldr	r1, [r8]
 4646 00ea 0248     		ldr	r0, .L244
 4647 00ec 0097     		str	r7, [sp]
 4648 00ee FFF7FEFF 		bl	_ZN5daisy4GPIO4InitENS_3PinENS0_4ModeENS0_4PullENS0_5SpeedE
 4649              	.LVL306:
 443:src/main.cpp  **** inline void sda_low() {sda.Init(SDA_PIN,GPIO::Mode::OUTPUT,GPIO::Pull::NOPULL);sda.Write(false);}
 4650              		.loc 6 443 80 view .LVU1309
 4651 00f2 CEE7     		b	.L238
 4652              	.L245:
 4653              		.align	2
 4654              	.L244:
 4655 00f4 00000000 		.word	.LANCHOR44
 4656 00f8 00000000 		.word	.LANCHOR45
 4657 00fc 00000000 		.word	.LANCHOR46
 4658 0100 00000000 		.word	.LANCHOR43
 4659              	.LBE1122:
 4660              	.LBE1121:
 4661              		.cfi_endproc
 4662              	.LFE2569:
 4664              		.section	.text._Z9mpr_writehh,"ax",%progbits
 4665              		.align	1
 4666              		.p2align 2,,3
 4667              		.global	_Z9mpr_writehh
 4668              		.syntax unified
 4669              		.thumb
 4670              		.thumb_func
 4672              	_Z9mpr_writehh:
 4673              	.LVL307:
 4674              	.LFB2570:
 474:src/main.cpp  ****     i2c_start();
 4675              		.loc 6 474 1 is_stmt 1 view -0
 4676              		.cfi_startproc
 4677              		@ args = 0, pretend = 0, frame = 0
 4678              		@ frame_needed = 0, uses_anonymous_args = 0
 475:src/main.cpp  ****     if(!i2c_write_byte((MPR_ADDR<<1)|0)){i2c_stop();return false;}
 4679              		.loc 6 475 5 view .LVU1311
 474:src/main.cpp  ****     i2c_start();
 4680              		.loc 6 474 1 is_stmt 0 view .LVU1312
 4681 0000 38B5     		push	{r3, r4, r5, lr}
 4682              		.cfi_def_cfa_offset 16
 4683              		.cfi_offset 3, -16
 4684              		.cfi_offset 4, -12
 4685              		.cfi_offset 5, -8
 4686              		.cfi_offset 14, -4
 474:src/main.cpp  ****     i2c_start();
 4687              		.loc 6 474 1 view .LVU1313
 4688 0002 0446     		mov	r4, r0
 4689 0004 0D46     		mov	r5, r1
 475:src/main.cpp  ****     if(!i2c_write_byte((MPR_ADDR<<1)|0)){i2c_stop();return false;}
 4690              		.loc 6 475 14 view .LVU1314
ARM GAS  /tmp/claude-502/ccry90Vn.s 			page 128


 4691 0006 FFF7FEFF 		bl	_Z9i2c_startv
 4692              	.LVL308:
 476:src/main.cpp  ****     if(!i2c_write_byte(reg))            {i2c_stop();return false;}
 4693              		.loc 6 476 5 is_stmt 1 view .LVU1315
 476:src/main.cpp  ****     if(!i2c_write_byte(reg))            {i2c_stop();return false;}
 4694              		.loc 6 476 23 is_stmt 0 view .LVU1316
 4695 000a B420     		movs	r0, #180
 4696 000c FFF7FEFF 		bl	_Z14i2c_write_byteh
 4697              	.LVL309:
 476:src/main.cpp  ****     if(!i2c_write_byte(reg))            {i2c_stop();return false;}
 4698              		.loc 6 476 5 view .LVU1317
 4699 0010 60B1     		cbz	r0, .L249
 477:src/main.cpp  ****     if(!i2c_write_byte(val))            {i2c_stop();return false;}
 4700              		.loc 6 477 5 is_stmt 1 view .LVU1318
 477:src/main.cpp  ****     if(!i2c_write_byte(val))            {i2c_stop();return false;}
 4701              		.loc 6 477 23 is_stmt 0 view .LVU1319
 4702 0012 2046     		mov	r0, r4
 4703 0014 FFF7FEFF 		bl	_Z14i2c_write_byteh
 4704              	.LVL310:
 477:src/main.cpp  ****     if(!i2c_write_byte(val))            {i2c_stop();return false;}
 4705              		.loc 6 477 5 view .LVU1320
 4706 0018 40B1     		cbz	r0, .L249
 4707              	.LVL311:
 4708              	.LBB1125:
 4709              	.LBI1125:
 473:src/main.cpp  **** {
 4710              		.loc 6 473 6 is_stmt 1 view .LVU1321
 4711              	.LBB1126:
 478:src/main.cpp  ****     i2c_stop();return true;
 4712              		.loc 6 478 5 view .LVU1322
 478:src/main.cpp  ****     i2c_stop();return true;
 4713              		.loc 6 478 23 is_stmt 0 view .LVU1323
 4714 001a 2846     		mov	r0, r5
 4715 001c FFF7FEFF 		bl	_Z14i2c_write_byteh
 4716              	.LVL312:
 478:src/main.cpp  ****     i2c_stop();return true;
 4717              		.loc 6 478 5 view .LVU1324
 4718 0020 0446     		mov	r4, r0
 4719              	.LVL313:
 478:src/main.cpp  ****     i2c_stop();return true;
 4720              		.loc 6 478 5 view .LVU1325
 4721 0022 18B1     		cbz	r0, .L249
 479:src/main.cpp  **** }
 4722              		.loc 6 479 5 is_stmt 1 view .LVU1326
 479:src/main.cpp  **** }
 4723              		.loc 6 479 13 is_stmt 0 view .LVU1327
 4724 0024 FFF7FEFF 		bl	_Z8i2c_stopv
 4725              	.LVL314:
 479:src/main.cpp  **** }
 4726              		.loc 6 479 16 is_stmt 1 view .LVU1328
 479:src/main.cpp  **** }
 4727              		.loc 6 479 16 is_stmt 0 view .LVU1329
 4728              	.LBE1126:
 4729              	.LBE1125:
 480:src/main.cpp  **** 
 4730              		.loc 6 480 1 view .LVU1330
 4731 0028 2046     		mov	r0, r4
ARM GAS  /tmp/claude-502/ccry90Vn.s 			page 129


 4732 002a 38BD     		pop	{r3, r4, r5, pc}
 4733              	.L249:
 476:src/main.cpp  ****     if(!i2c_write_byte(reg))            {i2c_stop();return false;}
 4734              		.loc 6 476 42 is_stmt 1 discriminator 1 view .LVU1331
 476:src/main.cpp  ****     if(!i2c_write_byte(reg))            {i2c_stop();return false;}
 4735              		.loc 6 476 60 is_stmt 0 discriminator 1 view .LVU1332
 4736 002c 0024     		movs	r4, #0
 476:src/main.cpp  ****     if(!i2c_write_byte(reg))            {i2c_stop();return false;}
 4737              		.loc 6 476 50 discriminator 1 view .LVU1333
 4738 002e FFF7FEFF 		bl	_Z8i2c_stopv
 4739              	.LVL315:
 476:src/main.cpp  ****     if(!i2c_write_byte(reg))            {i2c_stop();return false;}
 4740              		.loc 6 476 53 is_stmt 1 discriminator 1 view .LVU1334
 480:src/main.cpp  **** 
 4741              		.loc 6 480 1 is_stmt 0 discriminator 1 view .LVU1335
 4742 0032 2046     		mov	r0, r4
 4743 0034 38BD     		pop	{r3, r4, r5, pc}
 4744              		.cfi_endproc
 4745              	.LFE2570:
 4747 0036 00BF     		.section	.text._Z8mpr_readhPhh,"ax",%progbits
 4748              		.align	1
 4749              		.p2align 2,,3
 4750              		.global	_Z8mpr_readhPhh
 4751              		.syntax unified
 4752              		.thumb
 4753              		.thumb_func
 4755              	_Z8mpr_readhPhh:
 4756              	.LVL316:
 4757              	.LFB2571:
 483:src/main.cpp  ****     i2c_start();
 4758              		.loc 6 483 1 is_stmt 1 view -0
 4759              		.cfi_startproc
 4760              		@ args = 0, pretend = 0, frame = 0
 4761              		@ frame_needed = 0, uses_anonymous_args = 0
 483:src/main.cpp  ****     i2c_start();
 4762              		.loc 6 483 1 is_stmt 0 view .LVU1337
 4763 0000 2DE9F041 		push	{r4, r5, r6, r7, r8, lr}
 4764              		.cfi_def_cfa_offset 24
 4765              		.cfi_offset 4, -24
 4766              		.cfi_offset 5, -20
 4767              		.cfi_offset 6, -16
 4768              		.cfi_offset 7, -12
 4769              		.cfi_offset 8, -8
 4770              		.cfi_offset 14, -4
 483:src/main.cpp  ****     i2c_start();
 4771              		.loc 6 483 1 view .LVU1338
 4772 0004 0446     		mov	r4, r0
 484:src/main.cpp  ****     if(!i2c_write_byte((MPR_ADDR<<1)|0)){i2c_stop();return false;}
 4773              		.loc 6 484 5 is_stmt 1 view .LVU1339
 483:src/main.cpp  ****     i2c_start();
 4774              		.loc 6 483 1 is_stmt 0 view .LVU1340
 4775 0006 0E46     		mov	r6, r1
 4776 0008 1546     		mov	r5, r2
 484:src/main.cpp  ****     if(!i2c_write_byte((MPR_ADDR<<1)|0)){i2c_stop();return false;}
 4777              		.loc 6 484 14 view .LVU1341
 4778 000a FFF7FEFF 		bl	_Z9i2c_startv
 4779              	.LVL317:
ARM GAS  /tmp/claude-502/ccry90Vn.s 			page 130


 485:src/main.cpp  ****     if(!i2c_write_byte(reg))            {i2c_stop();return false;}
 4780              		.loc 6 485 5 is_stmt 1 view .LVU1342
 485:src/main.cpp  ****     if(!i2c_write_byte(reg))            {i2c_stop();return false;}
 4781              		.loc 6 485 23 is_stmt 0 view .LVU1343
 4782 000e B420     		movs	r0, #180
 4783 0010 FFF7FEFF 		bl	_Z14i2c_write_byteh
 4784              	.LVL318:
 485:src/main.cpp  ****     if(!i2c_write_byte(reg))            {i2c_stop();return false;}
 4785              		.loc 6 485 5 view .LVU1344
 4786 0014 08B3     		cbz	r0, .L260
 486:src/main.cpp  ****     i2c_start();
 4787              		.loc 6 486 5 is_stmt 1 view .LVU1345
 486:src/main.cpp  ****     i2c_start();
 4788              		.loc 6 486 23 is_stmt 0 view .LVU1346
 4789 0016 2046     		mov	r0, r4
 4790 0018 FFF7FEFF 		bl	_Z14i2c_write_byteh
 4791              	.LVL319:
 486:src/main.cpp  ****     i2c_start();
 4792              		.loc 6 486 5 view .LVU1347
 4793 001c E8B1     		cbz	r0, .L260
 4794              	.LVL320:
 4795              	.LBB1130:
 4796              	.LBI1130:
 482:src/main.cpp  **** {
 4797              		.loc 6 482 6 is_stmt 1 view .LVU1348
 4798              	.LBB1131:
 487:src/main.cpp  ****     if(!i2c_write_byte((MPR_ADDR<<1)|1)){i2c_stop();return false;}
 4799              		.loc 6 487 5 view .LVU1349
 487:src/main.cpp  ****     if(!i2c_write_byte((MPR_ADDR<<1)|1)){i2c_stop();return false;}
 4800              		.loc 6 487 14 is_stmt 0 view .LVU1350
 4801 001e FFF7FEFF 		bl	_Z9i2c_startv
 4802              	.LVL321:
 488:src/main.cpp  ****     for(uint8_t i=0;i<len;i++) buf[i]=i2c_read_byte(i<len-1);
 4803              		.loc 6 488 5 is_stmt 1 view .LVU1351
 488:src/main.cpp  ****     for(uint8_t i=0;i<len;i++) buf[i]=i2c_read_byte(i<len-1);
 4804              		.loc 6 488 23 is_stmt 0 view .LVU1352
 4805 0022 B520     		movs	r0, #181
 4806 0024 FFF7FEFF 		bl	_Z14i2c_write_byteh
 4807              	.LVL322:
 488:src/main.cpp  ****     for(uint8_t i=0;i<len;i++) buf[i]=i2c_read_byte(i<len-1);
 4808              		.loc 6 488 5 view .LVU1353
 4809 0028 0746     		mov	r7, r0
 4810 002a B0B1     		cbz	r0, .L260
 4811              	.LVL323:
 4812              	.LBB1132:
 489:src/main.cpp  ****     i2c_stop();return true;
 4813              		.loc 6 489 22 is_stmt 1 view .LVU1354
 4814 002c 85B1     		cbz	r5, .L262
 489:src/main.cpp  ****     i2c_stop();return true;
 4815              		.loc 6 489 58 is_stmt 0 view .LVU1355
 4816 002e 013D     		subs	r5, r5, #1
 4817              	.LVL324:
 489:src/main.cpp  ****     i2c_stop();return true;
 4818              		.loc 6 489 58 view .LVU1356
 4819 0030 741E     		subs	r4, r6, #1
 4820              	.LVL325:
 489:src/main.cpp  ****     i2c_stop();return true;
ARM GAS  /tmp/claude-502/ccry90Vn.s 			page 131


 4821              		.loc 6 489 58 view .LVU1357
 4822 0032 56FA85F8 		uxtab	r8, r6, r5
 4823 0036 C6F10106 		rsb	r6, r6, #1
 4824              	.LVL326:
 4825              	.L263:
 489:src/main.cpp  ****     i2c_stop();return true;
 4826              		.loc 6 489 32 is_stmt 1 view .LVU1358
 489:src/main.cpp  ****     i2c_stop();return true;
 4827              		.loc 6 489 52 is_stmt 0 view .LVU1359
 4828 003a 3019     		adds	r0, r6, r4
 4829 003c 8542     		cmp	r5, r0
 4830 003e D4BF     		ite	le
 4831 0040 0020     		movle	r0, #0
 4832 0042 0120     		movgt	r0, #1
 4833 0044 FFF7FEFF 		bl	_Z13i2c_read_byteb
 4834              	.LVL327:
 489:src/main.cpp  ****     i2c_stop();return true;
 4835              		.loc 6 489 38 view .LVU1360
 4836 0048 04F8010F 		strb	r0, [r4, #1]!
 4837              	.LVL328:
 489:src/main.cpp  ****     i2c_stop();return true;
 4838              		.loc 6 489 5 is_stmt 1 view .LVU1361
 489:src/main.cpp  ****     i2c_stop();return true;
 4839              		.loc 6 489 22 view .LVU1362
 4840 004c 4445     		cmp	r4, r8
 4841 004e F4D1     		bne	.L263
 4842              	.LVL329:
 4843              	.L262:
 489:src/main.cpp  ****     i2c_stop();return true;
 4844              		.loc 6 489 22 is_stmt 0 view .LVU1363
 4845              	.LBE1132:
 490:src/main.cpp  **** }
 4846              		.loc 6 490 5 is_stmt 1 view .LVU1364
 490:src/main.cpp  **** }
 4847              		.loc 6 490 13 is_stmt 0 view .LVU1365
 4848 0050 FFF7FEFF 		bl	_Z8i2c_stopv
 4849              	.LVL330:
 490:src/main.cpp  **** }
 4850              		.loc 6 490 16 is_stmt 1 view .LVU1366
 490:src/main.cpp  **** }
 4851              		.loc 6 490 16 is_stmt 0 view .LVU1367
 4852              	.LBE1131:
 4853              	.LBE1130:
 491:src/main.cpp  **** 
 4854              		.loc 6 491 1 view .LVU1368
 4855 0054 3846     		mov	r0, r7
 4856 0056 BDE8F081 		pop	{r4, r5, r6, r7, r8, pc}
 4857              	.LVL331:
 4858              	.L260:
 485:src/main.cpp  ****     if(!i2c_write_byte(reg))            {i2c_stop();return false;}
 4859              		.loc 6 485 42 is_stmt 1 discriminator 1 view .LVU1369
 485:src/main.cpp  ****     if(!i2c_write_byte(reg))            {i2c_stop();return false;}
 4860              		.loc 6 485 60 is_stmt 0 discriminator 1 view .LVU1370
 4861 005a 0027     		movs	r7, #0
 485:src/main.cpp  ****     if(!i2c_write_byte(reg))            {i2c_stop();return false;}
 4862              		.loc 6 485 50 discriminator 1 view .LVU1371
 4863 005c FFF7FEFF 		bl	_Z8i2c_stopv
ARM GAS  /tmp/claude-502/ccry90Vn.s 			page 132


 4864              	.LVL332:
 485:src/main.cpp  ****     if(!i2c_write_byte(reg))            {i2c_stop();return false;}
 4865              		.loc 6 485 53 is_stmt 1 discriminator 1 view .LVU1372
 491:src/main.cpp  **** 
 4866              		.loc 6 491 1 is_stmt 0 discriminator 1 view .LVU1373
 4867 0060 3846     		mov	r0, r7
 4868 0062 BDE8F081 		pop	{r4, r5, r6, r7, r8, pc}
 491:src/main.cpp  **** 
 4869              		.loc 6 491 1 discriminator 1 view .LVU1374
 4870              		.cfi_endproc
 4871              	.LFE2571:
 4873 0066 00BF     		.section	.text._Z8mpr_initv,"ax",%progbits
 4874              		.align	1
 4875              		.p2align 2,,3
 4876              		.global	_Z8mpr_initv
 4877              		.syntax unified
 4878              		.thumb
 4879              		.thumb_func
 4881              	_Z8mpr_initv:
 4882              	.LFB2572:
 494:src/main.cpp  ****     mpr_write(REG_SOFTRESET,0x63);System::Delay(10);
 4883              		.loc 6 494 1 is_stmt 1 view -0
 4884              		.cfi_startproc
 4885              		@ args = 0, pretend = 0, frame = 8
 4886              		@ frame_needed = 0, uses_anonymous_args = 0
 495:src/main.cpp  ****     mpr_write(REG_ECR,0x00);
 4887              		.loc 6 495 5 view .LVU1376
 494:src/main.cpp  ****     mpr_write(REG_SOFTRESET,0x63);System::Delay(10);
 4888              		.loc 6 494 1 is_stmt 0 view .LVU1377
 4889 0000 10B5     		push	{r4, lr}
 4890              		.cfi_def_cfa_offset 8
 4891              		.cfi_offset 4, -8
 4892              		.cfi_offset 14, -4
 495:src/main.cpp  ****     mpr_write(REG_ECR,0x00);
 4893              		.loc 6 495 14 view .LVU1378
 4894 0002 6321     		movs	r1, #99
 494:src/main.cpp  ****     mpr_write(REG_SOFTRESET,0x63);System::Delay(10);
 4895              		.loc 6 494 1 view .LVU1379
 4896 0004 82B0     		sub	sp, sp, #8
 4897              		.cfi_def_cfa_offset 16
 495:src/main.cpp  ****     mpr_write(REG_ECR,0x00);
 4898              		.loc 6 495 14 view .LVU1380
 4899 0006 8020     		movs	r0, #128
 501:src/main.cpp  ****     for(uint8_t ch=0;ch<12;ch++){mpr_write(0x41+ch*2,4);mpr_write(0x42+ch*2,2);}
 4900              		.loc 6 501 64 view .LVU1381
 4901 0008 4124     		movs	r4, #65
 495:src/main.cpp  ****     mpr_write(REG_ECR,0x00);
 4902              		.loc 6 495 14 view .LVU1382
 4903 000a FFF7FEFF 		bl	_Z9mpr_writehh
 4904              	.LVL333:
 495:src/main.cpp  ****     mpr_write(REG_ECR,0x00);
 4905              		.loc 6 495 35 is_stmt 1 view .LVU1383
 495:src/main.cpp  ****     mpr_write(REG_ECR,0x00);
 4906              		.loc 6 495 48 is_stmt 0 view .LVU1384
 4907 000e 0A20     		movs	r0, #10
 4908 0010 FFF7FEFF 		bl	_ZN5daisy6System5DelayEm
 4909              	.LVL334:
ARM GAS  /tmp/claude-502/ccry90Vn.s 			page 133


 496:src/main.cpp  ****     mpr_write(REG_MHDR,0x01);mpr_write(REG_NHDR,0x01);
 4910              		.loc 6 496 5 is_stmt 1 view .LVU1385
 496:src/main.cpp  ****     mpr_write(REG_MHDR,0x01);mpr_write(REG_NHDR,0x01);
 4911              		.loc 6 496 14 is_stmt 0 view .LVU1386
 4912 0014 0021     		movs	r1, #0
 4913 0016 5E20     		movs	r0, #94
 4914 0018 FFF7FEFF 		bl	_Z9mpr_writehh
 4915              	.LVL335:
 497:src/main.cpp  ****     mpr_write(REG_NCLR,0x10);mpr_write(REG_FDLR,0x20);
 4916              		.loc 6 497 5 is_stmt 1 view .LVU1387
 497:src/main.cpp  ****     mpr_write(REG_NCLR,0x10);mpr_write(REG_FDLR,0x20);
 4917              		.loc 6 497 14 is_stmt 0 view .LVU1388
 4918 001c 0121     		movs	r1, #1
 4919 001e 2B20     		movs	r0, #43
 4920 0020 FFF7FEFF 		bl	_Z9mpr_writehh
 4921              	.LVL336:
 497:src/main.cpp  ****     mpr_write(REG_NCLR,0x10);mpr_write(REG_FDLR,0x20);
 4922              		.loc 6 497 30 is_stmt 1 view .LVU1389
 497:src/main.cpp  ****     mpr_write(REG_NCLR,0x10);mpr_write(REG_FDLR,0x20);
 4923              		.loc 6 497 39 is_stmt 0 view .LVU1390
 4924 0024 0121     		movs	r1, #1
 4925 0026 2C20     		movs	r0, #44
 4926 0028 FFF7FEFF 		bl	_Z9mpr_writehh
 4927              	.LVL337:
 498:src/main.cpp  ****     mpr_write(REG_MHDF,0x01);mpr_write(REG_NHDF,0x01);
 4928              		.loc 6 498 5 is_stmt 1 view .LVU1391
 498:src/main.cpp  ****     mpr_write(REG_MHDF,0x01);mpr_write(REG_NHDF,0x01);
 4929              		.loc 6 498 14 is_stmt 0 view .LVU1392
 4930 002c 1021     		movs	r1, #16
 4931 002e 2D20     		movs	r0, #45
 4932 0030 FFF7FEFF 		bl	_Z9mpr_writehh
 4933              	.LVL338:
 498:src/main.cpp  ****     mpr_write(REG_MHDF,0x01);mpr_write(REG_NHDF,0x01);
 4934              		.loc 6 498 30 is_stmt 1 view .LVU1393
 498:src/main.cpp  ****     mpr_write(REG_MHDF,0x01);mpr_write(REG_NHDF,0x01);
 4935              		.loc 6 498 39 is_stmt 0 view .LVU1394
 4936 0034 2021     		movs	r1, #32
 4937 0036 2E20     		movs	r0, #46
 4938 0038 FFF7FEFF 		bl	_Z9mpr_writehh
 4939              	.LVL339:
 499:src/main.cpp  ****     mpr_write(REG_NCLF,0x10);mpr_write(REG_FDLF,0x20);
 4940              		.loc 6 499 5 is_stmt 1 view .LVU1395
 499:src/main.cpp  ****     mpr_write(REG_NCLF,0x10);mpr_write(REG_FDLF,0x20);
 4941              		.loc 6 499 14 is_stmt 0 view .LVU1396
 4942 003c 0121     		movs	r1, #1
 4943 003e 2F20     		movs	r0, #47
 4944 0040 FFF7FEFF 		bl	_Z9mpr_writehh
 4945              	.LVL340:
 499:src/main.cpp  ****     mpr_write(REG_NCLF,0x10);mpr_write(REG_FDLF,0x20);
 4946              		.loc 6 499 30 is_stmt 1 view .LVU1397
 499:src/main.cpp  ****     mpr_write(REG_NCLF,0x10);mpr_write(REG_FDLF,0x20);
 4947              		.loc 6 499 39 is_stmt 0 view .LVU1398
 4948 0044 0121     		movs	r1, #1
 4949 0046 3020     		movs	r0, #48
 4950 0048 FFF7FEFF 		bl	_Z9mpr_writehh
 4951              	.LVL341:
 500:src/main.cpp  ****     mpr_write(REG_NHDT,0x00);mpr_write(REG_NCLT,0x00);mpr_write(REG_FDLT,0x00);
ARM GAS  /tmp/claude-502/ccry90Vn.s 			page 134


 4952              		.loc 6 500 5 is_stmt 1 view .LVU1399
 500:src/main.cpp  ****     mpr_write(REG_NHDT,0x00);mpr_write(REG_NCLT,0x00);mpr_write(REG_FDLT,0x00);
 4953              		.loc 6 500 14 is_stmt 0 view .LVU1400
 4954 004c 1021     		movs	r1, #16
 4955 004e 3120     		movs	r0, #49
 4956 0050 FFF7FEFF 		bl	_Z9mpr_writehh
 4957              	.LVL342:
 500:src/main.cpp  ****     mpr_write(REG_NHDT,0x00);mpr_write(REG_NCLT,0x00);mpr_write(REG_FDLT,0x00);
 4958              		.loc 6 500 30 is_stmt 1 view .LVU1401
 500:src/main.cpp  ****     mpr_write(REG_NHDT,0x00);mpr_write(REG_NCLT,0x00);mpr_write(REG_FDLT,0x00);
 4959              		.loc 6 500 39 is_stmt 0 view .LVU1402
 4960 0054 2021     		movs	r1, #32
 4961 0056 3220     		movs	r0, #50
 4962 0058 FFF7FEFF 		bl	_Z9mpr_writehh
 4963              	.LVL343:
 501:src/main.cpp  ****     for(uint8_t ch=0;ch<12;ch++){mpr_write(0x41+ch*2,4);mpr_write(0x42+ch*2,2);}
 4964              		.loc 6 501 5 is_stmt 1 view .LVU1403
 501:src/main.cpp  ****     for(uint8_t ch=0;ch<12;ch++){mpr_write(0x41+ch*2,4);mpr_write(0x42+ch*2,2);}
 4965              		.loc 6 501 14 is_stmt 0 view .LVU1404
 4966 005c 0021     		movs	r1, #0
 4967 005e 3320     		movs	r0, #51
 4968 0060 FFF7FEFF 		bl	_Z9mpr_writehh
 4969              	.LVL344:
 501:src/main.cpp  ****     for(uint8_t ch=0;ch<12;ch++){mpr_write(0x41+ch*2,4);mpr_write(0x42+ch*2,2);}
 4970              		.loc 6 501 30 is_stmt 1 view .LVU1405
 501:src/main.cpp  ****     for(uint8_t ch=0;ch<12;ch++){mpr_write(0x41+ch*2,4);mpr_write(0x42+ch*2,2);}
 4971              		.loc 6 501 39 is_stmt 0 view .LVU1406
 4972 0064 0021     		movs	r1, #0
 4973 0066 3420     		movs	r0, #52
 4974 0068 FFF7FEFF 		bl	_Z9mpr_writehh
 4975              	.LVL345:
 501:src/main.cpp  ****     for(uint8_t ch=0;ch<12;ch++){mpr_write(0x41+ch*2,4);mpr_write(0x42+ch*2,2);}
 4976              		.loc 6 501 55 is_stmt 1 view .LVU1407
 501:src/main.cpp  ****     for(uint8_t ch=0;ch<12;ch++){mpr_write(0x41+ch*2,4);mpr_write(0x42+ch*2,2);}
 4977              		.loc 6 501 64 is_stmt 0 view .LVU1408
 4978 006c 0021     		movs	r1, #0
 4979 006e 3520     		movs	r0, #53
 4980 0070 FFF7FEFF 		bl	_Z9mpr_writehh
 4981              	.LVL346:
 502:src/main.cpp  ****     mpr_write(REG_DEBOUNCE,0x11);
 4982              		.loc 6 502 5 is_stmt 1 view .LVU1409
 4983              	.LBB1133:
 502:src/main.cpp  ****     mpr_write(REG_DEBOUNCE,0x11);
 4984              		.loc 6 502 24 view .LVU1410
 4985              	.L272:
 502:src/main.cpp  ****     mpr_write(REG_DEBOUNCE,0x11);
 4986              		.loc 6 502 34 discriminator 2 view .LVU1411
 502:src/main.cpp  ****     mpr_write(REG_DEBOUNCE,0x11);
 4987              		.loc 6 502 43 is_stmt 0 discriminator 2 view .LVU1412
 4988 0074 0421     		movs	r1, #4
 4989 0076 2046     		mov	r0, r4
 4990 0078 FFF7FEFF 		bl	_Z9mpr_writehh
 4991              	.LVL347:
 502:src/main.cpp  ****     mpr_write(REG_DEBOUNCE,0x11);
 4992              		.loc 6 502 57 is_stmt 1 discriminator 2 view .LVU1413
 502:src/main.cpp  ****     mpr_write(REG_DEBOUNCE,0x11);
 4993              		.loc 6 502 66 is_stmt 0 discriminator 2 view .LVU1414
ARM GAS  /tmp/claude-502/ccry90Vn.s 			page 135


 4994 007c 601C     		adds	r0, r4, #1
 502:src/main.cpp  ****     mpr_write(REG_DEBOUNCE,0x11);
 4995              		.loc 6 502 24 discriminator 2 view .LVU1415
 4996 007e 0234     		adds	r4, r4, #2
 502:src/main.cpp  ****     mpr_write(REG_DEBOUNCE,0x11);
 4997              		.loc 6 502 66 discriminator 2 view .LVU1416
 4998 0080 0221     		movs	r1, #2
 4999 0082 C0B2     		uxtb	r0, r0
 502:src/main.cpp  ****     mpr_write(REG_DEBOUNCE,0x11);
 5000              		.loc 6 502 24 discriminator 2 view .LVU1417
 5001 0084 E4B2     		uxtb	r4, r4
 502:src/main.cpp  ****     mpr_write(REG_DEBOUNCE,0x11);
 5002              		.loc 6 502 66 discriminator 2 view .LVU1418
 5003 0086 FFF7FEFF 		bl	_Z9mpr_writehh
 5004              	.LVL348:
 502:src/main.cpp  ****     mpr_write(REG_DEBOUNCE,0x11);
 5005              		.loc 6 502 5 is_stmt 1 discriminator 2 view .LVU1419
 502:src/main.cpp  ****     mpr_write(REG_DEBOUNCE,0x11);
 5006              		.loc 6 502 24 discriminator 2 view .LVU1420
 5007 008a 592C     		cmp	r4, #89
 5008 008c F2D1     		bne	.L272
 5009              	.LBE1133:
 503:src/main.cpp  ****     mpr_write(REG_CONFIG1,0xF0);  // FFI=34 | CDC=48uA
 5010              		.loc 6 503 5 view .LVU1421
 503:src/main.cpp  ****     mpr_write(REG_CONFIG1,0xF0);  // FFI=34 | CDC=48uA
 5011              		.loc 6 503 14 is_stmt 0 view .LVU1422
 5012 008e 1121     		movs	r1, #17
 5013 0090 5B20     		movs	r0, #91
 5014 0092 FFF7FEFF 		bl	_Z9mpr_writehh
 5015              	.LVL349:
 504:src/main.cpp  ****     mpr_write(REG_CONFIG2,0x4C);  // CDT=4us | SFI=18 | ESI=1ms
 5016              		.loc 6 504 5 is_stmt 1 view .LVU1423
 504:src/main.cpp  ****     mpr_write(REG_CONFIG2,0x4C);  // CDT=4us | SFI=18 | ESI=1ms
 5017              		.loc 6 504 14 is_stmt 0 view .LVU1424
 5018 0096 F021     		movs	r1, #240
 5019 0098 5C20     		movs	r0, #92
 5020 009a FFF7FEFF 		bl	_Z9mpr_writehh
 5021              	.LVL350:
 505:src/main.cpp  ****     mpr_write(REG_ECR,0x8C);
 5022              		.loc 6 505 5 is_stmt 1 view .LVU1425
 505:src/main.cpp  ****     mpr_write(REG_ECR,0x8C);
 5023              		.loc 6 505 14 is_stmt 0 view .LVU1426
 5024 009e 4C21     		movs	r1, #76
 5025 00a0 5D20     		movs	r0, #93
 5026 00a2 FFF7FEFF 		bl	_Z9mpr_writehh
 5027              	.LVL351:
 506:src/main.cpp  ****     System::Delay(100);
 5028              		.loc 6 506 5 is_stmt 1 view .LVU1427
 506:src/main.cpp  ****     System::Delay(100);
 5029              		.loc 6 506 14 is_stmt 0 view .LVU1428
 5030 00a6 8C21     		movs	r1, #140
 5031 00a8 5E20     		movs	r0, #94
 5032 00aa FFF7FEFF 		bl	_Z9mpr_writehh
 5033              	.LVL352:
 507:src/main.cpp  ****     uint8_t ecr=0;mpr_read(REG_ECR,&ecr,1);
 5034              		.loc 6 507 5 is_stmt 1 view .LVU1429
 507:src/main.cpp  ****     uint8_t ecr=0;mpr_read(REG_ECR,&ecr,1);
ARM GAS  /tmp/claude-502/ccry90Vn.s 			page 136


 5035              		.loc 6 507 18 is_stmt 0 view .LVU1430
 5036 00ae 6420     		movs	r0, #100
 5037 00b0 FFF7FEFF 		bl	_ZN5daisy6System5DelayEm
 5038              	.LVL353:
 508:src/main.cpp  ****     return(ecr==0x8C);
 5039              		.loc 6 508 5 is_stmt 1 view .LVU1431
 508:src/main.cpp  ****     return(ecr==0x8C);
 5040              		.loc 6 508 13 is_stmt 0 view .LVU1432
 5041 00b4 0023     		movs	r3, #0
 508:src/main.cpp  ****     return(ecr==0x8C);
 5042              		.loc 6 508 27 view .LVU1433
 5043 00b6 0122     		movs	r2, #1
 5044 00b8 0DF10701 		add	r1, sp, #7
 5045 00bc 5E20     		movs	r0, #94
 508:src/main.cpp  ****     return(ecr==0x8C);
 5046              		.loc 6 508 13 view .LVU1434
 5047 00be 8DF80730 		strb	r3, [sp, #7]
 508:src/main.cpp  ****     return(ecr==0x8C);
 5048              		.loc 6 508 19 is_stmt 1 view .LVU1435
 508:src/main.cpp  ****     return(ecr==0x8C);
 5049              		.loc 6 508 27 is_stmt 0 view .LVU1436
 5050 00c2 FFF7FEFF 		bl	_Z8mpr_readhPhh
 5051              	.LVL354:
 509:src/main.cpp  **** }
 5052              		.loc 6 509 5 is_stmt 1 view .LVU1437
 509:src/main.cpp  **** }
 5053              		.loc 6 509 21 is_stmt 0 view .LVU1438
 5054 00c6 9DF80700 		ldrb	r0, [sp, #7]	@ zero_extendqisi2
 510:src/main.cpp  **** 
 5055              		.loc 6 510 1 view .LVU1439
 5056 00ca A0F18C00 		sub	r0, #140
 5057 00ce B0FA80F0 		clz	r0, r0
 5058 00d2 4009     		lsrs	r0, r0, #5
 5059 00d4 02B0     		add	sp, sp, #8
 5060              		.cfi_def_cfa_offset 8
 5061              		@ sp needed
 5062 00d6 10BD     		pop	{r4, pc}
 5063              		.cfi_endproc
 5064              	.LFE2572:
 5066              		.section	.text._Z15read_electrodesPt,"ax",%progbits
 5067              		.align	1
 5068              		.p2align 2,,3
 5069              		.global	_Z15read_electrodesPt
 5070              		.syntax unified
 5071              		.thumb
 5072              		.thumb_func
 5074              	_Z15read_electrodesPt:
 5075              	.LVL355:
 5076              	.LFB2573:
 513:src/main.cpp  ****     uint8_t buf[24];
 5077              		.loc 6 513 1 is_stmt 1 view -0
 5078              		.cfi_startproc
 5079              		@ args = 0, pretend = 0, frame = 24
 5080              		@ frame_needed = 0, uses_anonymous_args = 0
 514:src/main.cpp  ****     mpr_read(REG_ELE0_LSB,buf,24);
 5081              		.loc 6 514 5 view .LVU1441
 515:src/main.cpp  ****     for(int i=0;i<N_CH;i++)
ARM GAS  /tmp/claude-502/ccry90Vn.s 			page 137


 5082              		.loc 6 515 5 view .LVU1442
 513:src/main.cpp  ****     uint8_t buf[24];
 5083              		.loc 6 513 1 is_stmt 0 view .LVU1443
 5084 0000 10B5     		push	{r4, lr}
 5085              		.cfi_def_cfa_offset 8
 5086              		.cfi_offset 4, -8
 5087              		.cfi_offset 14, -4
 5088 0002 86B0     		sub	sp, sp, #24
 5089              		.cfi_def_cfa_offset 32
 513:src/main.cpp  ****     uint8_t buf[24];
 5090              		.loc 6 513 1 view .LVU1444
 5091 0004 0446     		mov	r4, r0
 515:src/main.cpp  ****     for(int i=0;i<N_CH;i++)
 5092              		.loc 6 515 13 view .LVU1445
 5093 0006 1822     		movs	r2, #24
 5094 0008 0420     		movs	r0, #4
 5095              	.LVL356:
 515:src/main.cpp  ****     for(int i=0;i<N_CH;i++)
 5096              		.loc 6 515 13 view .LVU1446
 5097 000a 6946     		mov	r1, sp
 5098 000c FFF7FEFF 		bl	_Z8mpr_readhPhh
 5099              	.LVL357:
 516:src/main.cpp  ****         out[i]=(uint16_t)(buf[i*2]|((buf[i*2+1]&0x03)<<8));
 5100              		.loc 6 516 5 is_stmt 1 view .LVU1447
 5101              	.LBB1134:
 516:src/main.cpp  ****         out[i]=(uint16_t)(buf[i*2]|((buf[i*2+1]&0x03)<<8));
 5102              		.loc 6 516 18 view .LVU1448
 5103 0010 A01E     		subs	r0, r4, #2
 5104 0012 6A46     		mov	r2, sp
 5105 0014 06AC     		add	r4, sp, #24
 5106              	.LVL358:
 5107              	.L276:
 517:src/main.cpp  **** }
 5108              		.loc 6 517 9 discriminator 2 view .LVU1449
 517:src/main.cpp  **** }
 5109              		.loc 6 517 48 is_stmt 0 discriminator 2 view .LVU1450
 5110 0016 5378     		ldrb	r3, [r2, #1]	@ zero_extendqisi2
 517:src/main.cpp  **** }
 5111              		.loc 6 517 34 discriminator 2 view .LVU1451
 5112 0018 12F8021B 		ldrb	r1, [r2], #2	@ zero_extendqisi2
 517:src/main.cpp  **** }
 5113              		.loc 6 517 54 discriminator 2 view .LVU1452
 5114 001c 1B02     		lsls	r3, r3, #8
 516:src/main.cpp  ****         out[i]=(uint16_t)(buf[i*2]|((buf[i*2+1]&0x03)<<8));
 5115              		.loc 6 516 18 discriminator 2 view .LVU1453
 5116 001e 9442     		cmp	r4, r2
 517:src/main.cpp  **** }
 5117              		.loc 6 517 54 discriminator 2 view .LVU1454
 5118 0020 03F44073 		and	r3, r3, #768
 517:src/main.cpp  **** }
 5119              		.loc 6 517 35 discriminator 2 view .LVU1455
 5120 0024 43EA0103 		orr	r3, r3, r1
 517:src/main.cpp  **** }
 5121              		.loc 6 517 15 discriminator 2 view .LVU1456
 5122 0028 20F8023F 		strh	r3, [r0, #2]!	@ movhi
 516:src/main.cpp  ****         out[i]=(uint16_t)(buf[i*2]|((buf[i*2+1]&0x03)<<8));
 5123              		.loc 6 516 5 is_stmt 1 discriminator 2 view .LVU1457
ARM GAS  /tmp/claude-502/ccry90Vn.s 			page 138


 516:src/main.cpp  ****         out[i]=(uint16_t)(buf[i*2]|((buf[i*2+1]&0x03)<<8));
 5124              		.loc 6 516 18 discriminator 2 view .LVU1458
 5125 002c F3D1     		bne	.L276
 5126              	.LBE1134:
 518:src/main.cpp  **** 
 5127              		.loc 6 518 1 is_stmt 0 view .LVU1459
 5128 002e 06B0     		add	sp, sp, #24
 5129              		.cfi_def_cfa_offset 8
 5130              		@ sp needed
 5131 0030 10BD     		pop	{r4, pc}
 5132              		.cfi_endproc
 5133              	.LFE2573:
 5135 0032 00BF     		.section	.text._Z16capture_baselinePt,"ax",%progbits
 5136              		.align	1
 5137              		.p2align 2,,3
 5138              		.global	_Z16capture_baselinePt
 5139              		.syntax unified
 5140              		.thumb
 5141              		.thumb_func
 5143              	_Z16capture_baselinePt:
 5144              	.LVL359:
 5145              	.LFB2574:
 521:src/main.cpp  ****     uint32_t acc[N_CH]={0};uint16_t tmp[N_CH];
 5146              		.loc 6 521 1 is_stmt 1 view -0
 5147              		.cfi_startproc
 5148              		@ args = 0, pretend = 0, frame = 72
 5149              		@ frame_needed = 0, uses_anonymous_args = 0
 522:src/main.cpp  ****     for(int s=0;s<REBASELINE_SAMPLES;s++){
 5150              		.loc 6 522 5 view .LVU1461
 521:src/main.cpp  ****     uint32_t acc[N_CH]={0};uint16_t tmp[N_CH];
 5151              		.loc 6 521 1 is_stmt 0 view .LVU1462
 5152 0000 2DE9F041 		push	{r4, r5, r6, r7, r8, lr}
 5153              		.cfi_def_cfa_offset 24
 5154              		.cfi_offset 4, -24
 5155              		.cfi_offset 5, -20
 5156              		.cfi_offset 6, -16
 5157              		.cfi_offset 7, -12
 5158              		.cfi_offset 8, -8
 5159              		.cfi_offset 14, -4
 5160 0004 92B0     		sub	sp, sp, #72
 5161              		.cfi_def_cfa_offset 96
 522:src/main.cpp  ****     for(int s=0;s<REBASELINE_SAMPLES;s++){
 5162              		.loc 6 522 14 view .LVU1463
 5163 0006 2025     		movs	r5, #32
 5164 0008 0024     		movs	r4, #0
 521:src/main.cpp  ****     uint32_t acc[N_CH]={0};uint16_t tmp[N_CH];
 5165              		.loc 6 521 1 view .LVU1464
 5166 000a 0746     		mov	r7, r0
 522:src/main.cpp  ****     for(int s=0;s<REBASELINE_SAMPLES;s++){
 5167              		.loc 6 522 14 view .LVU1465
 5168 000c 0DF11808 		add	r8, sp, #24
 5169 0010 3022     		movs	r2, #48
 5170 0012 0021     		movs	r1, #0
 5171 0014 4046     		mov	r0, r8
 5172              	.LVL360:
 522:src/main.cpp  ****     for(int s=0;s<REBASELINE_SAMPLES;s++){
 5173              		.loc 6 522 14 view .LVU1466
ARM GAS  /tmp/claude-502/ccry90Vn.s 			page 139


 5174 0016 FFF7FEFF 		bl	memset
 5175              	.LVL361:
 522:src/main.cpp  ****     for(int s=0;s<REBASELINE_SAMPLES;s++){
 5176              		.loc 6 522 28 is_stmt 1 view .LVU1467
 523:src/main.cpp  ****         read_electrodes(tmp);
 5177              		.loc 6 523 5 view .LVU1468
 5178              	.LBB1135:
 523:src/main.cpp  ****         read_electrodes(tmp);
 5179              		.loc 6 523 18 view .LVU1469
 5180              	.L283:
 5181              	.LBB1136:
 524:src/main.cpp  ****         for(int i=0;i<N_CH;i++)acc[i]+=tmp[i];
 5182              		.loc 6 524 9 view .LVU1470
 524:src/main.cpp  ****         for(int i=0;i<N_CH;i++)acc[i]+=tmp[i];
 5183              		.loc 6 524 24 is_stmt 0 view .LVU1471
 5184 001a 6846     		mov	r0, sp
 5185 001c 4646     		mov	r6, r8
 5186 001e FFF7FEFF 		bl	_Z15read_electrodesPt
 5187              	.LVL362:
 525:src/main.cpp  ****         System::Delay(5);
 5188              		.loc 6 525 9 is_stmt 1 view .LVU1472
 5189              	.LBB1137:
 525:src/main.cpp  ****         System::Delay(5);
 5190              		.loc 6 525 22 view .LVU1473
 5191 0022 6A46     		mov	r2, sp
 5192              	.LBE1137:
 524:src/main.cpp  ****         for(int i=0;i<N_CH;i++)acc[i]+=tmp[i];
 5193              		.loc 6 524 24 is_stmt 0 view .LVU1474
 5194 0024 4146     		mov	r1, r8
 5195 0026 00E0     		b	.L281
 5196              	.LVL363:
 5197              	.L288:
 5198              	.LBB1138:
 525:src/main.cpp  ****         System::Delay(5);
 5199              		.loc 6 525 38 view .LVU1475
 5200 0028 0C68     		ldr	r4, [r1]
 5201              	.L281:
 525:src/main.cpp  ****         System::Delay(5);
 5202              		.loc 6 525 32 is_stmt 1 discriminator 2 view .LVU1476
 525:src/main.cpp  ****         System::Delay(5);
 5203              		.loc 6 525 45 is_stmt 0 discriminator 2 view .LVU1477
 5204 002a 32F8023B 		ldrh	r3, [r2], #2
 525:src/main.cpp  ****         System::Delay(5);
 5205              		.loc 6 525 38 discriminator 2 view .LVU1478
 5206 002e 2344     		add	r3, r3, r4
 525:src/main.cpp  ****         System::Delay(5);
 5207              		.loc 6 525 22 discriminator 2 view .LVU1479
 5208 0030 4245     		cmp	r2, r8
 525:src/main.cpp  ****         System::Delay(5);
 5209              		.loc 6 525 38 discriminator 2 view .LVU1480
 5210 0032 41F8043B 		str	r3, [r1], #4
 525:src/main.cpp  ****         System::Delay(5);
 5211              		.loc 6 525 9 is_stmt 1 discriminator 2 view .LVU1481
 525:src/main.cpp  ****         System::Delay(5);
 5212              		.loc 6 525 22 discriminator 2 view .LVU1482
 5213 0036 F7D1     		bne	.L288
 5214              	.LBE1138:
ARM GAS  /tmp/claude-502/ccry90Vn.s 			page 140


 526:src/main.cpp  ****     }
 5215              		.loc 6 526 9 discriminator 2 view .LVU1483
 526:src/main.cpp  ****     }
 5216              		.loc 6 526 22 is_stmt 0 discriminator 2 view .LVU1484
 5217 0038 0520     		movs	r0, #5
 5218 003a FFF7FEFF 		bl	_ZN5daisy6System5DelayEm
 5219              	.LVL364:
 5220              	.LBE1136:
 523:src/main.cpp  ****         read_electrodes(tmp);
 5221              		.loc 6 523 5 is_stmt 1 discriminator 2 view .LVU1485
 523:src/main.cpp  ****         read_electrodes(tmp);
 5222              		.loc 6 523 18 discriminator 2 view .LVU1486
 5223 003e 013D     		subs	r5, r5, #1
 5224              	.LVL365:
 523:src/main.cpp  ****         read_electrodes(tmp);
 5225              		.loc 6 523 18 is_stmt 0 discriminator 2 view .LVU1487
 5226 0040 01D0     		beq	.L282
 5227              	.LBB1140:
 5228              	.LBB1139:
 525:src/main.cpp  ****         System::Delay(5);
 5229              		.loc 6 525 38 view .LVU1488
 5230 0042 069C     		ldr	r4, [sp, #24]
 5231 0044 E9E7     		b	.L283
 5232              	.L282:
 5233 0046 BA1E     		subs	r2, r7, #2
 5234 0048 1637     		adds	r7, r7, #22
 5235              	.LVL366:
 5236              	.L284:
 525:src/main.cpp  ****         System::Delay(5);
 5237              		.loc 6 525 38 view .LVU1489
 5238              	.LBE1139:
 5239              	.LBE1140:
 5240              	.LBE1135:
 5241              	.LBB1141:
 528:src/main.cpp  **** }
 5242              		.loc 6 528 28 is_stmt 1 discriminator 2 view .LVU1490
 528:src/main.cpp  **** }
 5243              		.loc 6 528 50 is_stmt 0 discriminator 2 view .LVU1491
 5244 004a 56F8043B 		ldr	r3, [r6], #4
 528:src/main.cpp  **** }
 5245              		.loc 6 528 51 discriminator 2 view .LVU1492
 5246 004e 5B09     		lsrs	r3, r3, #5
 528:src/main.cpp  **** }
 5247              		.loc 6 528 33 discriminator 2 view .LVU1493
 5248 0050 22F8023F 		strh	r3, [r2, #2]!	@ movhi
 528:src/main.cpp  **** }
 5249              		.loc 6 528 5 is_stmt 1 discriminator 2 view .LVU1494
 528:src/main.cpp  **** }
 5250              		.loc 6 528 18 discriminator 2 view .LVU1495
 5251 0054 BA42     		cmp	r2, r7
 5252 0056 F8D1     		bne	.L284
 5253              	.LBE1141:
 529:src/main.cpp  **** 
 5254              		.loc 6 529 1 is_stmt 0 view .LVU1496
 5255 0058 12B0     		add	sp, sp, #72
 5256              		.cfi_def_cfa_offset 24
 5257              		@ sp needed
ARM GAS  /tmp/claude-502/ccry90Vn.s 			page 141


 5258 005a BDE8F081 		pop	{r4, r5, r6, r7, r8, pc}
 529:src/main.cpp  **** 
 5259              		.loc 6 529 1 view .LVU1497
 5260              		.cfi_endproc
 5261              	.LFE2574:
 5263 005e 00BF     		.section	.text._Z15centroid_windowPliiS_Pi,"ax",%progbits
 5264              		.align	1
 5265              		.p2align 2,,3
 5266              		.global	_Z15centroid_windowPliiS_Pi
 5267              		.syntax unified
 5268              		.thumb
 5269              		.thumb_func
 5271              	_Z15centroid_windowPliiS_Pi:
 5272              	.LVL367:
 5273              	.LFB2575:
 537:src/main.cpp  ****     int32_t sw=0,swx=0,pk=0;int pkc=s;
 5274              		.loc 6 537 1 is_stmt 1 view -0
 5275              		.cfi_startproc
 5276              		@ args = 4, pretend = 0, frame = 0
 5277              		@ frame_needed = 0, uses_anonymous_args = 0
 538:src/main.cpp  ****     for(int i=s;i<=e;i++){
 5278              		.loc 6 538 5 view .LVU1499
 538:src/main.cpp  ****     for(int i=s;i<=e;i++){
 5279              		.loc 6 538 29 view .LVU1500
 539:src/main.cpp  ****         int32_t w=d[i]>0?d[i]:0;
 5280              		.loc 6 539 5 view .LVU1501
 5281              	.LBB1144:
 539:src/main.cpp  ****         int32_t w=d[i]>0?d[i]:0;
 5282              		.loc 6 539 18 view .LVU1502
 5283 0000 9142     		cmp	r1, r2
 5284              	.LBE1144:
 537:src/main.cpp  ****     int32_t sw=0,swx=0,pk=0;int pkc=s;
 5285              		.loc 6 537 1 is_stmt 0 view .LVU1503
 5286 0002 F0B5     		push	{r4, r5, r6, r7, lr}
 5287              		.cfi_def_cfa_offset 20
 5288              		.cfi_offset 4, -20
 5289              		.cfi_offset 5, -16
 5290              		.cfi_offset 6, -12
 5291              		.cfi_offset 7, -8
 5292              		.cfi_offset 14, -4
 537:src/main.cpp  ****     int32_t sw=0,swx=0,pk=0;int pkc=s;
 5293              		.loc 6 537 1 view .LVU1504
 5294 0004 059F     		ldr	r7, [sp, #20]
 5295              	.LBB1146:
 539:src/main.cpp  ****         int32_t w=d[i]>0?d[i]:0;
 5296              		.loc 6 539 18 view .LVU1505
 5297 0006 2CDC     		bgt	.L296
 5298 0008 6FF0404E 		mvn	lr, #-1073741824
 5299              	.LBE1146:
 538:src/main.cpp  ****     for(int i=s;i<=e;i++){
 5300              		.loc 6 538 24 view .LVU1506
 5301 000c 0025     		movs	r5, #0
 5302 000e 561C     		adds	r6, r2, #1
 5303 0010 8E44     		add	lr, lr, r1
 538:src/main.cpp  ****     for(int i=s;i<=e;i++){
 5304              		.loc 6 538 18 view .LVU1507
 5305 0012 AC46     		mov	ip, r5
ARM GAS  /tmp/claude-502/ccry90Vn.s 			page 142


 538:src/main.cpp  ****     for(int i=s;i<=e;i++){
 5306              		.loc 6 538 13 view .LVU1508
 5307 0014 2C46     		mov	r4, r5
 5308 0016 00EB8E0E 		add	lr, r0, lr, lsl #2
 5309              	.LBB1147:
 539:src/main.cpp  ****         int32_t w=d[i]>0?d[i]:0;
 5310              		.loc 6 539 18 view .LVU1509
 5311 001a 0846     		mov	r0, r1
 5312              	.LVL368:
 5313              	.L292:
 5314              	.LBB1145:
 540:src/main.cpp  ****         sw+=w;swx+=w*i;
 5315              		.loc 6 540 9 is_stmt 1 view .LVU1510
 540:src/main.cpp  ****         sw+=w;swx+=w*i;
 5316              		.loc 6 540 17 is_stmt 0 view .LVU1511
 5317 001c 5EF8042F 		ldr	r2, [lr, #4]!
 5318 0020 22EAE272 		bic	r2, r2, r2, asr #31
 5319              	.LVL369:
 541:src/main.cpp  ****         if(w>pk){pk=w;pkc=i;}
 5320              		.loc 6 541 9 is_stmt 1 view .LVU1512
 542:src/main.cpp  ****     }
 5321              		.loc 6 542 9 is_stmt 0 view .LVU1513
 5322 0024 AA42     		cmp	r2, r5
 541:src/main.cpp  ****         if(w>pk){pk=w;pkc=i;}
 5323              		.loc 6 541 18 view .LVU1514
 5324 0026 00FB02CC 		mla	ip, r0, r2, ip
 5325              	.LVL370:
 541:src/main.cpp  ****         if(w>pk){pk=w;pkc=i;}
 5326              		.loc 6 541 11 view .LVU1515
 5327 002a 1444     		add	r4, r4, r2
 5328              	.LVL371:
 541:src/main.cpp  ****         if(w>pk){pk=w;pkc=i;}
 5329              		.loc 6 541 15 is_stmt 1 view .LVU1516
 542:src/main.cpp  ****     }
 5330              		.loc 6 542 9 view .LVU1517
 5331 002c 01DD     		ble	.L291
 542:src/main.cpp  ****     }
 5332              		.loc 6 542 9 is_stmt 0 view .LVU1518
 5333 002e 0146     		mov	r1, r0
 5334 0030 1546     		mov	r5, r2
 5335              	.LVL372:
 5336              	.L291:
 542:src/main.cpp  ****     }
 5337              		.loc 6 542 9 view .LVU1519
 5338              	.LBE1145:
 539:src/main.cpp  ****         int32_t w=d[i]>0?d[i]:0;
 5339              		.loc 6 539 5 is_stmt 1 discriminator 2 view .LVU1520
 5340 0032 0130     		adds	r0, r0, #1
 5341              	.LVL373:
 539:src/main.cpp  ****         int32_t w=d[i]>0?d[i]:0;
 5342              		.loc 6 539 18 discriminator 2 view .LVU1521
 5343 0034 B042     		cmp	r0, r6
 5344 0036 F1D1     		bne	.L292
 5345              	.LVL374:
 5346              	.L290:
 539:src/main.cpp  ****         int32_t w=d[i]>0?d[i]:0;
 5347              		.loc 6 539 18 is_stmt 0 discriminator 2 view .LVU1522
ARM GAS  /tmp/claude-502/ccry90Vn.s 			page 143


 5348              	.LBE1147:
 544:src/main.cpp  ****     if(sw==0)return -1;
 5349              		.loc 6 544 5 is_stmt 1 view .LVU1523
 5350 0038 03B1     		cbz	r3, .L293
 544:src/main.cpp  ****     if(sw==0)return -1;
 5351              		.loc 6 544 15 discriminator 1 view .LVU1524
 544:src/main.cpp  ****     if(sw==0)return -1;
 5352              		.loc 6 544 22 is_stmt 0 discriminator 1 view .LVU1525
 5353 003a 1D60     		str	r5, [r3]
 5354              	.L293:
 544:src/main.cpp  ****     if(sw==0)return -1;
 5355              		.loc 6 544 26 is_stmt 1 discriminator 3 view .LVU1526
 5356 003c 07B1     		cbz	r7, .L294
 544:src/main.cpp  ****     if(sw==0)return -1;
 5357              		.loc 6 544 38 discriminator 4 view .LVU1527
 544:src/main.cpp  ****     if(sw==0)return -1;
 5358              		.loc 6 544 47 is_stmt 0 discriminator 4 view .LVU1528
 5359 003e 3960     		str	r1, [r7]
 5360              	.L294:
 545:src/main.cpp  ****     int32_t p=(swx*1000)/(sw*(N_CH-1));
 5361              		.loc 6 545 5 is_stmt 1 view .LVU1529
 5362 0040 9CB1     		cbz	r4, .L297
 546:src/main.cpp  ****     if(p<0)p=0;if(p>1000)p=1000;
 5363              		.loc 6 546 5 view .LVU1530
 5364              	.LVL375:
 547:src/main.cpp  ****     return p;
 5365              		.loc 6 547 5 view .LVU1531
 546:src/main.cpp  ****     if(p<0)p=0;if(p>1000)p=1000;
 5366              		.loc 6 546 19 is_stmt 0 view .LVU1532
 5367 0042 4FF47A73 		mov	r3, #1000
 5368              	.LVL376:
 546:src/main.cpp  ****     if(p<0)p=0;if(p>1000)p=1000;
 5369              		.loc 6 546 29 view .LVU1533
 5370 0046 04EB8400 		add	r0, r4, r4, lsl #2
 546:src/main.cpp  ****     if(p<0)p=0;if(p>1000)p=1000;
 5371              		.loc 6 546 19 view .LVU1534
 5372 004a 03FB0CFC 		mul	ip, r3, ip
 5373              	.LVL377:
 546:src/main.cpp  ****     if(p<0)p=0;if(p>1000)p=1000;
 5374              		.loc 6 546 29 view .LVU1535
 5375 004e 04EB4000 		add	r0, r4, r0, lsl #1
 546:src/main.cpp  ****     if(p<0)p=0;if(p>1000)p=1000;
 5376              		.loc 6 546 13 view .LVU1536
 5377 0052 9CFBF0F0 		sdiv	r0, ip, r0
 5378 0056 9842     		cmp	r0, r3
 5379 0058 A8BF     		it	ge
 5380 005a 1846     		movge	r0, r3
 5381 005c 20EAE070 		bic	r0, r0, r0, asr #31
 549:src/main.cpp  **** 
 5382              		.loc 6 549 1 view .LVU1537
 5383 0060 F0BD     		pop	{r4, r5, r6, r7, pc}
 5384              	.LVL378:
 5385              	.L296:
 538:src/main.cpp  ****     for(int i=s;i<=e;i++){
 5386              		.loc 6 538 24 view .LVU1538
 5387 0062 0025     		movs	r5, #0
 538:src/main.cpp  ****     for(int i=s;i<=e;i++){
ARM GAS  /tmp/claude-502/ccry90Vn.s 			page 144


 5388              		.loc 6 538 18 view .LVU1539
 5389 0064 AC46     		mov	ip, r5
 538:src/main.cpp  ****     for(int i=s;i<=e;i++){
 5390              		.loc 6 538 13 view .LVU1540
 5391 0066 2C46     		mov	r4, r5
 5392 0068 E6E7     		b	.L290
 5393              	.LVL379:
 5394              	.L297:
 545:src/main.cpp  ****     int32_t p=(swx*1000)/(sw*(N_CH-1));
 5395              		.loc 6 545 22 view .LVU1541
 5396 006a 4FF0FF30 		mov	r0, #-1
 549:src/main.cpp  **** 
 5397              		.loc 6 549 1 view .LVU1542
 5398 006e F0BD     		pop	{r4, r5, r6, r7, pc}
 549:src/main.cpp  **** 
 5399              		.loc 6 549 1 view .LVU1543
 5400              		.cfi_endproc
 5401              	.LFE2575:
 5403              		.section	.text._Z12pressure_pctli,"ax",%progbits
 5404              		.align	1
 5405              		.p2align 2,,3
 5406              		.global	_Z12pressure_pctli
 5407              		.syntax unified
 5408              		.thumb
 5409              		.thumb_func
 5411              	_Z12pressure_pctli:
 5412              	.LVL380:
 5413              	.LFB2576:
 551:src/main.cpp  ****     int32_t range = PRESSURE_MAX_REF[ch] - TOUCH_THRESHOLD;
 5414              		.loc 6 551 41 is_stmt 1 view -0
 5415              		.cfi_startproc
 5416              		@ args = 0, pretend = 0, frame = 0
 5417              		@ frame_needed = 0, uses_anonymous_args = 0
 5418              		@ link register save eliminated.
 552:src/main.cpp  ****     int32_t raw   = pk - TOUCH_THRESHOLD;
 5419              		.loc 6 552 5 view .LVU1545
 553:src/main.cpp  ****     if(raw <= 0)     return 0;
 5420              		.loc 6 553 13 is_stmt 0 view .LVU1546
 5421 0000 A0F10A02 		sub	r2, r0, #10
 552:src/main.cpp  ****     int32_t raw   = pk - TOUCH_THRESHOLD;
 5422              		.loc 6 552 40 view .LVU1547
 5423 0004 1C4B     		ldr	r3, .L316
 554:src/main.cpp  ****     if(raw >= range) return 100;
 5424              		.loc 6 554 5 view .LVU1548
 5425 0006 002A     		cmp	r2, #0
 552:src/main.cpp  ****     int32_t raw   = pk - TOUCH_THRESHOLD;
 5426              		.loc 6 552 40 view .LVU1549
 5427 0008 53F82110 		ldr	r1, [r3, r1, lsl #2]
 5428              	.LVL381:
 553:src/main.cpp  ****     if(raw <= 0)     return 0;
 5429              		.loc 6 553 5 is_stmt 1 view .LVU1550
 554:src/main.cpp  ****     if(raw >= range) return 100;
 5430              		.loc 6 554 5 view .LVU1551
 5431 000c 30DD     		ble	.L315
 555:src/main.cpp  ****     // Clamp raw strictly before sqrt to prevent Newton overshoot
 5432              		.loc 6 555 5 view .LVU1552
 5433 000e 8142     		cmp	r1, r0
ARM GAS  /tmp/claude-502/ccry90Vn.s 			page 145


 5434 0010 30DD     		ble	.L314
 557:src/main.cpp  ****     int32_t scaled = raw * 10000 / range; // 0..10000
 5435              		.loc 6 557 5 view .LVU1553
 558:src/main.cpp  ****     if(scaled > 10000) scaled = 10000;
 5436              		.loc 6 558 5 view .LVU1554
 558:src/main.cpp  ****     if(scaled > 10000) scaled = 10000;
 5437              		.loc 6 558 26 is_stmt 0 view .LVU1555
 5438 0012 42F21070 		movw	r0, #10000
 5439              	.LVL382:
 552:src/main.cpp  ****     int32_t raw   = pk - TOUCH_THRESHOLD;
 5440              		.loc 6 552 13 view .LVU1556
 5441 0016 0A39     		subs	r1, r1, #10
 5442              	.LVL383:
 558:src/main.cpp  ****     if(scaled > 10000) scaled = 10000;
 5443              		.loc 6 558 26 view .LVU1557
 5444 0018 00FB02F2 		mul	r2, r0, r2
 5445              	.LVL384:
 558:src/main.cpp  ****     if(scaled > 10000) scaled = 10000;
 5446              		.loc 6 558 13 view .LVU1558
 5447 001c 92FBF1F3 		sdiv	r3, r2, r1
 5448              	.LVL385:
 559:src/main.cpp  ****     // Integer sqrt via Newton
 5449              		.loc 6 559 5 is_stmt 1 view .LVU1559
 5450 0020 8342     		cmp	r3, r0
 5451 0022 A8BF     		it	ge
 5452 0024 0346     		movge	r3, r0
 5453              	.LVL386:
 561:src/main.cpp  ****     s = (s + scaled/s) / 2;
 5454              		.loc 6 561 5 view .LVU1560
 561:src/main.cpp  ****     s = (s + scaled/s) / 2;
 5455              		.loc 6 561 24 is_stmt 0 view .LVU1561
 5456 0026 002B     		cmp	r3, #0
 5457 0028 1A46     		mov	r2, r3
 5458 002a B8BF     		it	lt
 5459 002c 5A1C     		addlt	r2, r3, #1
 5460 002e 5210     		asrs	r2, r2, #1
 561:src/main.cpp  ****     s = (s + scaled/s) / 2;
 5461              		.loc 6 561 13 view .LVU1562
 5462 0030 511C     		adds	r1, r2, #1
 5463              	.LVL387:
 562:src/main.cpp  ****     s = (s + scaled/s) / 2;
 5464              		.loc 6 562 5 is_stmt 1 view .LVU1563
 562:src/main.cpp  ****     s = (s + scaled/s) / 2;
 5465              		.loc 6 562 20 is_stmt 0 view .LVU1564
 5466 0032 93FBF1F2 		sdiv	r2, r3, r1
 562:src/main.cpp  ****     s = (s + scaled/s) / 2;
 5467              		.loc 6 562 7 view .LVU1565
 5468 0036 5218     		adds	r2, r2, r1
 5469 0038 48BF     		it	mi
 5470 003a 0132     		addmi	r2, r2, #1
 5471 003c 5110     		asrs	r1, r2, #1
 5472              	.LVL388:
 563:src/main.cpp  ****     s = (s + scaled/s) / 2;
 5473              		.loc 6 563 5 is_stmt 1 view .LVU1566
 563:src/main.cpp  ****     s = (s + scaled/s) / 2;
 5474              		.loc 6 563 20 is_stmt 0 view .LVU1567
 5475 003e 93FBF1F2 		sdiv	r2, r3, r1
ARM GAS  /tmp/claude-502/ccry90Vn.s 			page 146


 563:src/main.cpp  ****     s = (s + scaled/s) / 2;
 5476              		.loc 6 563 7 view .LVU1568
 5477 0042 5218     		adds	r2, r2, r1
 5478 0044 48BF     		it	mi
 5479 0046 0132     		addmi	r2, r2, #1
 5480 0048 5210     		asrs	r2, r2, #1
 5481              	.LVL389:
 564:src/main.cpp  ****     s = (s + scaled/s) / 2;
 5482              		.loc 6 564 5 is_stmt 1 view .LVU1569
 564:src/main.cpp  ****     s = (s + scaled/s) / 2;
 5483              		.loc 6 564 20 is_stmt 0 view .LVU1570
 5484 004a 93FBF2F1 		sdiv	r1, r3, r2
 564:src/main.cpp  ****     s = (s + scaled/s) / 2;
 5485              		.loc 6 564 7 view .LVU1571
 5486 004e 8A18     		adds	r2, r1, r2
 5487              	.LVL390:
 564:src/main.cpp  ****     s = (s + scaled/s) / 2;
 5488              		.loc 6 564 7 view .LVU1572
 5489 0050 48BF     		it	mi
 5490 0052 0132     		addmi	r2, r2, #1
 5491 0054 5210     		asrs	r2, r2, #1
 5492              	.LVL391:
 565:src/main.cpp  ****     // Hard clamp output ŌĆö Newton can land at 101 due to rounding
 5493              		.loc 6 565 5 is_stmt 1 view .LVU1573
 565:src/main.cpp  ****     // Hard clamp output ŌĆö Newton can land at 101 due to rounding
 5494              		.loc 6 565 20 is_stmt 0 view .LVU1574
 5495 0056 93FBF2F3 		sdiv	r3, r3, r2
 5496              	.LVL392:
 565:src/main.cpp  ****     // Hard clamp output ŌĆö Newton can land at 101 due to rounding
 5497              		.loc 6 565 12 view .LVU1575
 5498 005a 1344     		add	r3, r3, r2
 5499              	.LVL393:
 567:src/main.cpp  ****     if(s > 100) s = 100;
 5500              		.loc 6 567 5 is_stmt 1 view .LVU1576
 5501 005c 5A1C     		adds	r2, r3, #1
 5502 005e 07DB     		blt	.L315
 568:src/main.cpp  ****     return s;
 5503              		.loc 6 568 5 view .LVU1577
 565:src/main.cpp  ****     // Hard clamp output ŌĆö Newton can land at 101 due to rounding
 5504              		.loc 6 565 7 is_stmt 0 view .LVU1578
 5505 0060 002B     		cmp	r3, #0
 565:src/main.cpp  ****     // Hard clamp output ŌĆö Newton can land at 101 due to rounding
 5506              		.loc 6 565 7 view .LVU1579
 5507 0062 B8BF     		it	lt
 5508 0064 0133     		addlt	r3, r3, #1
 5509              	.LVL394:
 565:src/main.cpp  ****     // Hard clamp output ŌĆö Newton can land at 101 due to rounding
 5510              		.loc 6 565 7 view .LVU1580
 5511 0066 5810     		asrs	r0, r3, #1
 5512              	.LVL395:
 565:src/main.cpp  ****     // Hard clamp output ŌĆö Newton can land at 101 due to rounding
 5513              		.loc 6 565 7 view .LVU1581
 5514 0068 6428     		cmp	r0, #100
 5515 006a A8BF     		it	ge
 5516 006c 6420     		movge	r0, #100
 5517 006e 7047     		bx	lr
 5518              	.LVL396:
ARM GAS  /tmp/claude-502/ccry90Vn.s 			page 147


 5519              	.L315:
 554:src/main.cpp  ****     if(raw >= range) return 100;
 5520              		.loc 6 554 29 view .LVU1582
 5521 0070 0020     		movs	r0, #0
 570:src/main.cpp  **** 
 5522              		.loc 6 570 1 view .LVU1583
 5523 0072 7047     		bx	lr
 5524              	.LVL397:
 5525              	.L314:
 555:src/main.cpp  ****     // Clamp raw strictly before sqrt to prevent Newton overshoot
 5526              		.loc 6 555 29 view .LVU1584
 5527 0074 6420     		movs	r0, #100
 5528              	.LVL398:
 555:src/main.cpp  ****     // Clamp raw strictly before sqrt to prevent Newton overshoot
 5529              		.loc 6 555 29 view .LVU1585
 5530 0076 7047     		bx	lr
 5531              	.L317:
 5532              		.align	2
 5533              	.L316:
 5534 0078 00000000 		.word	.LANCHOR47
 5535              		.cfi_endproc
 5536              	.LFE2576:
 5538              		.section	.text._Z10detect_rawPlP6Finger,"ax",%progbits
 5539              		.align	1
 5540              		.p2align 2,,3
 5541              		.global	_Z10detect_rawPlP6Finger
 5542              		.syntax unified
 5543              		.thumb
 5544              		.thumb_func
 5546              	_Z10detect_rawPlP6Finger:
 5547              	.LVL399:
 5548              	.LFB2577:
 573:src/main.cpp  ****     out[0].active=out[1].active=false;
 5549              		.loc 6 573 1 is_stmt 1 view -0
 5550              		.cfi_startproc
 5551              		@ args = 0, pretend = 0, frame = 48
 5552              		@ frame_needed = 0, uses_anonymous_args = 0
 574:src/main.cpp  ****     int pka=0;int32_t da=0;
 5553              		.loc 6 574 5 view .LVU1587
 574:src/main.cpp  ****     int pka=0;int32_t da=0;
 5554              		.loc 6 574 32 is_stmt 0 view .LVU1588
 5555 0000 0022     		movs	r2, #0
 5556 0002 A0F1040C 		sub	ip, r0, #4
 573:src/main.cpp  ****     out[0].active=out[1].active=false;
 5557              		.loc 6 573 1 view .LVU1589
 5558 0006 2DE9F04F 		push	{r4, r5, r6, r7, r8, r9, r10, fp, lr}
 5559              		.cfi_def_cfa_offset 36
 5560              		.cfi_offset 4, -36
 5561              		.cfi_offset 5, -32
 5562              		.cfi_offset 6, -28
 5563              		.cfi_offset 7, -24
 5564              		.cfi_offset 8, -20
 5565              		.cfi_offset 9, -16
 5566              		.cfi_offset 10, -12
 5567              		.cfi_offset 11, -8
 5568              		.cfi_offset 14, -4
 5569              	.LBB1159:
ARM GAS  /tmp/claude-502/ccry90Vn.s 			page 148


 576:src/main.cpp  ****     if(da<TOUCH_THRESHOLD)return 0;
 5570              		.loc 6 576 13 view .LVU1590
 5571 000a 1346     		mov	r3, r2
 5572              	.LBE1159:
 573:src/main.cpp  ****     out[0].active=out[1].active=false;
 5573              		.loc 6 573 1 view .LVU1591
 5574 000c 8DB0     		sub	sp, sp, #52
 5575              		.cfi_def_cfa_offset 88
 573:src/main.cpp  ****     out[0].active=out[1].active=false;
 5576              		.loc 6 573 1 view .LVU1592
 5577 000e 0646     		mov	r6, r0
 5578 0010 0D46     		mov	r5, r1
 575:src/main.cpp  ****     for(int i=0;i<N_CH;i++)if(delta[i]>da){da=delta[i];pka=i;}
 5579              		.loc 6 575 23 view .LVU1593
 5580 0012 9646     		mov	lr, r2
 575:src/main.cpp  ****     for(int i=0;i<N_CH;i++)if(delta[i]>da){da=delta[i];pka=i;}
 5581              		.loc 6 575 9 view .LVU1594
 5582 0014 1446     		mov	r4, r2
 574:src/main.cpp  ****     int pka=0;int32_t da=0;
 5583              		.loc 6 574 32 view .LVU1595
 5584 0016 0A75     		strb	r2, [r1, #20]
 574:src/main.cpp  ****     int pka=0;int32_t da=0;
 5585              		.loc 6 574 18 view .LVU1596
 5586 0018 0A70     		strb	r2, [r1]
 575:src/main.cpp  ****     for(int i=0;i<N_CH;i++)if(delta[i]>da){da=delta[i];pka=i;}
 5587              		.loc 6 575 5 is_stmt 1 view .LVU1597
 5588              	.LVL400:
 575:src/main.cpp  ****     for(int i=0;i<N_CH;i++)if(delta[i]>da){da=delta[i];pka=i;}
 5589              		.loc 6 575 15 view .LVU1598
 576:src/main.cpp  ****     if(da<TOUCH_THRESHOLD)return 0;
 5590              		.loc 6 576 5 view .LVU1599
 5591              	.LBB1160:
 576:src/main.cpp  ****     if(da<TOUCH_THRESHOLD)return 0;
 5592              		.loc 6 576 18 view .LVU1600
 5593              	.L320:
 576:src/main.cpp  ****     if(da<TOUCH_THRESHOLD)return 0;
 5594              		.loc 6 576 28 discriminator 2 view .LVU1601
 576:src/main.cpp  ****     if(da<TOUCH_THRESHOLD)return 0;
 5595              		.loc 6 576 38 is_stmt 0 discriminator 2 view .LVU1602
 5596 001a 5CF8042F 		ldr	r2, [ip, #4]!
 576:src/main.cpp  ****     if(da<TOUCH_THRESHOLD)return 0;
 5597              		.loc 6 576 28 discriminator 2 view .LVU1603
 5598 001e 7245     		cmp	r2, lr
 5599 0020 01DD     		ble	.L319
 576:src/main.cpp  ****     if(da<TOUCH_THRESHOLD)return 0;
 5600              		.loc 6 576 28 view .LVU1604
 5601 0022 1C46     		mov	r4, r3
 5602 0024 9646     		mov	lr, r2
 5603              	.LVL401:
 5604              	.L319:
 576:src/main.cpp  ****     if(da<TOUCH_THRESHOLD)return 0;
 5605              		.loc 6 576 5 is_stmt 1 discriminator 5 view .LVU1605
 5606 0026 0133     		adds	r3, r3, #1
 5607              	.LVL402:
 576:src/main.cpp  ****     if(da<TOUCH_THRESHOLD)return 0;
 5608              		.loc 6 576 18 discriminator 5 view .LVU1606
 5609 0028 0C2B     		cmp	r3, #12
ARM GAS  /tmp/claude-502/ccry90Vn.s 			page 149


 5610 002a F6D1     		bne	.L320
 5611              	.LBE1160:
 577:src/main.cpp  ****     int ws=pka-2;if(ws<0)ws=0;int we=pka+2;if(we>=N_CH)we=N_CH-1;
 5612              		.loc 6 577 5 view .LVU1607
 5613 002c BEF1090F 		cmp	lr, #9
 5614 0030 03DC     		bgt	.L348
 577:src/main.cpp  ****     int ws=pka-2;if(ws<0)ws=0;int we=pka+2;if(we>=N_CH)we=N_CH-1;
 5615              		.loc 6 577 34 is_stmt 0 view .LVU1608
 5616 0032 0020     		movs	r0, #0
 5617              	.LVL403:
 595:src/main.cpp  **** 
 5618              		.loc 6 595 1 view .LVU1609
 5619 0034 0DB0     		add	sp, sp, #52
 5620              		.cfi_remember_state
 5621              		.cfi_def_cfa_offset 36
 5622              		@ sp needed
 5623 0036 BDE8F08F 		pop	{r4, r5, r6, r7, r8, r9, r10, fp, pc}
 5624              	.LVL404:
 5625              	.L348:
 5626              		.cfi_restore_state
 578:src/main.cpp  ****     int32_t pa;int pca;
 5627              		.loc 6 578 5 is_stmt 1 view .LVU1610
 578:src/main.cpp  ****     int32_t pa;int pca;
 5628              		.loc 6 578 35 is_stmt 0 view .LVU1611
 5629 003a 04F10208 		add	r8, r4, #2
 578:src/main.cpp  ****     int32_t pa;int pca;
 5630              		.loc 6 578 9 view .LVU1612
 5631 003e A71E     		subs	r7, r4, #2
 5632              	.LVL405:
 578:src/main.cpp  ****     int32_t pa;int pca;
 5633              		.loc 6 578 18 is_stmt 1 view .LVU1613
 5634 0040 B8F10B0F 		cmp	r8, #11
 5635 0044 27EAE777 		bic	r7, r7, r7, asr #31
 5636              	.LVL406:
 578:src/main.cpp  ****     int32_t pa;int pca;
 5637              		.loc 6 578 31 view .LVU1614
 578:src/main.cpp  ****     int32_t pa;int pca;
 5638              		.loc 6 578 44 view .LVU1615
 5639 0048 A8BF     		it	ge
 5640 004a 4FF00B08 		movge	r8, #11
 5641              	.LVL407:
 579:src/main.cpp  ****     int32_t posa=centroid_window(delta,ws,we,&pa,&pca);
 5642              		.loc 6 579 5 view .LVU1616
 579:src/main.cpp  ****     int32_t posa=centroid_window(delta,ws,we,&pa,&pca);
 5643              		.loc 6 579 16 view .LVU1617
 580:src/main.cpp  ****     out[0]={true,posa,pressure_pct(pa,pca),pca,pa};
 5644              		.loc 6 580 5 view .LVU1618
 5645              	.LBB1161:
 5646              	.LBI1161:
 536:src/main.cpp  **** {
 5647              		.loc 6 536 9 view .LVU1619
 5648              	.LBB1162:
 5649              	.LBB1163:
 539:src/main.cpp  ****         int32_t w=d[i]>0?d[i]:0;
 5650              		.loc 6 539 18 view .LVU1620
 5651 004e B845     		cmp	r8, r7
 5652 0050 C0F2AD80 		blt	.L335
ARM GAS  /tmp/claude-502/ccry90Vn.s 			page 150


 5653 0054 6FF0404C 		mvn	ip, #-1073741824
 5654              	.LBE1163:
 538:src/main.cpp  ****     for(int i=s;i<=e;i++){
 5655              		.loc 6 538 24 is_stmt 0 view .LVU1621
 5656 0058 4FF00009 		mov	r9, #0
 5657 005c 08F1010E 		add	lr, r8, #1
 5658              	.LVL408:
 5659              	.LBB1165:
 539:src/main.cpp  ****         int32_t w=d[i]>0?d[i]:0;
 5660              		.loc 6 539 18 view .LVU1622
 5661 0060 BA46     		mov	r10, r7
 5662 0062 BC44     		add	ip, ip, r7
 5663 0064 3A46     		mov	r2, r7
 5664              	.LBE1165:
 538:src/main.cpp  ****     for(int i=s;i<=e;i++){
 5665              		.loc 6 538 18 view .LVU1623
 5666 0066 4846     		mov	r0, r9
 5667              	.LVL409:
 538:src/main.cpp  ****     for(int i=s;i<=e;i++){
 5668              		.loc 6 538 13 view .LVU1624
 5669 0068 4946     		mov	r1, r9
 5670              	.LVL410:
 538:src/main.cpp  ****     for(int i=s;i<=e;i++){
 5671              		.loc 6 538 13 view .LVU1625
 5672 006a 06EB8C0C 		add	ip, r6, ip, lsl #2
 5673              	.LVL411:
 5674              	.L324:
 5675              	.LBB1166:
 5676              	.LBB1164:
 540:src/main.cpp  ****         sw+=w;swx+=w*i;
 5677              		.loc 6 540 9 is_stmt 1 view .LVU1626
 540:src/main.cpp  ****         sw+=w;swx+=w*i;
 5678              		.loc 6 540 17 is_stmt 0 view .LVU1627
 5679 006e 5CF8043F 		ldr	r3, [ip, #4]!
 5680 0072 23EAE373 		bic	r3, r3, r3, asr #31
 5681              	.LVL412:
 541:src/main.cpp  ****         if(w>pk){pk=w;pkc=i;}
 5682              		.loc 6 541 9 is_stmt 1 view .LVU1628
 542:src/main.cpp  ****     }
 5683              		.loc 6 542 9 is_stmt 0 view .LVU1629
 5684 0076 9945     		cmp	r9, r3
 541:src/main.cpp  ****         if(w>pk){pk=w;pkc=i;}
 5685              		.loc 6 541 18 view .LVU1630
 5686 0078 02FB0300 		mla	r0, r2, r3, r0
 5687              	.LVL413:
 541:src/main.cpp  ****         if(w>pk){pk=w;pkc=i;}
 5688              		.loc 6 541 11 view .LVU1631
 5689 007c 1944     		add	r1, r1, r3
 5690              	.LVL414:
 541:src/main.cpp  ****         if(w>pk){pk=w;pkc=i;}
 5691              		.loc 6 541 15 is_stmt 1 view .LVU1632
 542:src/main.cpp  ****     }
 5692              		.loc 6 542 9 view .LVU1633
 5693 007e 01DA     		bge	.L323
 542:src/main.cpp  ****     }
 5694              		.loc 6 542 9 is_stmt 0 view .LVU1634
 5695 0080 9246     		mov	r10, r2
ARM GAS  /tmp/claude-502/ccry90Vn.s 			page 151


 5696 0082 9946     		mov	r9, r3
 5697              	.LVL415:
 5698              	.L323:
 542:src/main.cpp  ****     }
 5699              		.loc 6 542 9 view .LVU1635
 5700              	.LBE1164:
 539:src/main.cpp  ****         int32_t w=d[i]>0?d[i]:0;
 5701              		.loc 6 539 5 is_stmt 1 view .LVU1636
 5702 0084 0132     		adds	r2, r2, #1
 5703              	.LVL416:
 539:src/main.cpp  ****         int32_t w=d[i]>0?d[i]:0;
 5704              		.loc 6 539 18 view .LVU1637
 5705 0086 7245     		cmp	r2, lr
 5706 0088 F1D1     		bne	.L324
 5707              	.LBE1166:
 544:src/main.cpp  ****     if(sw==0)return -1;
 5708              		.loc 6 544 5 view .LVU1638
 544:src/main.cpp  ****     if(sw==0)return -1;
 5709              		.loc 6 544 15 view .LVU1639
 5710              	.LVL417:
 544:src/main.cpp  ****     if(sw==0)return -1;
 5711              		.loc 6 544 26 view .LVU1640
 544:src/main.cpp  ****     if(sw==0)return -1;
 5712              		.loc 6 544 38 view .LVU1641
 545:src/main.cpp  ****     int32_t p=(swx*1000)/(sw*(N_CH-1));
 5713              		.loc 6 545 5 view .LVU1642
 5714 008a 0029     		cmp	r1, #0
 5715 008c 00F09880 		beq	.L336
 546:src/main.cpp  ****     if(p<0)p=0;if(p>1000)p=1000;
 5716              		.loc 6 546 5 view .LVU1643
 5717              	.LVL418:
 547:src/main.cpp  ****     return p;
 5718              		.loc 6 547 5 view .LVU1644
 546:src/main.cpp  ****     if(p<0)p=0;if(p>1000)p=1000;
 5719              		.loc 6 546 19 is_stmt 0 view .LVU1645
 5720 0090 4FF47A7B 		mov	fp, #1000
 5721 0094 0BFB00F0 		mul	r0, fp, r0
 5722              	.LVL419:
 546:src/main.cpp  ****     if(p<0)p=0;if(p>1000)p=1000;
 5723              		.loc 6 546 29 view .LVU1646
 5724 0098 01EB810B 		add	fp, r1, r1, lsl #2
 5725 009c 01EB4B0B 		add	fp, r1, fp, lsl #1
 546:src/main.cpp  ****     if(p<0)p=0;if(p>1000)p=1000;
 5726              		.loc 6 546 13 view .LVU1647
 5727 00a0 B0FBFBFB 		udiv	fp, r0, fp
 5728 00a4 BBF57A7F 		cmp	fp, #1000
 5729 00a8 A8BF     		it	ge
 5730 00aa 4FF47A7B 		movge	fp, #1000
 5731              	.LVL420:
 5732              	.L322:
 546:src/main.cpp  ****     if(p<0)p=0;if(p>1000)p=1000;
 5733              		.loc 6 546 13 view .LVU1648
 5734              	.LBE1162:
 5735              	.LBE1161:
 581:src/main.cpp  **** 
 5736              		.loc 6 581 5 is_stmt 1 view .LVU1649
 581:src/main.cpp  **** 
ARM GAS  /tmp/claude-502/ccry90Vn.s 			page 152


 5737              		.loc 6 581 35 is_stmt 0 view .LVU1650
 5738 00ae 5146     		mov	r1, r10
 5739 00b0 4846     		mov	r0, r9
 5740 00b2 FFF7FEFF 		bl	_Z12pressure_pctli
 5741              	.LVL421:
 581:src/main.cpp  **** 
 5742              		.loc 6 581 11 view .LVU1651
 5743 00b6 0123     		movs	r3, #1
 5744 00b8 EC46     		mov	ip, sp
 5745 00ba C5F804B0 		str	fp, [r5, #4]
 5746 00be 2B70     		strb	r3, [r5]
 5747              	.LBB1170:
 585:src/main.cpp  ****     int pkb=0;int32_t db=0;
 5748              		.loc 6 585 13 view .LVU1652
 5749 00c0 0023     		movs	r3, #0
 5750              	.LBE1170:
 581:src/main.cpp  **** 
 5751              		.loc 6 581 11 view .LVU1653
 5752 00c2 C5F81090 		str	r9, [r5, #16]
 583:src/main.cpp  ****     int ss=pka-2;if(ss<0)ss=0;int se=pka+2;if(se>=N_CH)se=N_CH-1;
 5753              		.loc 6 583 5 is_stmt 1 view .LVU1654
 584:src/main.cpp  ****     for(int i=0;i<N_CH;i++)d2[i]=(i>=ss&&i<=se)?0:delta[i];
 5754              		.loc 6 584 5 view .LVU1655
 5755              	.LVL422:
 584:src/main.cpp  ****     for(int i=0;i<N_CH;i++)d2[i]=(i>=ss&&i<=se)?0:delta[i];
 5756              		.loc 6 584 18 view .LVU1656
 584:src/main.cpp  ****     for(int i=0;i<N_CH;i++)d2[i]=(i>=ss&&i<=se)?0:delta[i];
 5757              		.loc 6 584 31 view .LVU1657
 584:src/main.cpp  ****     for(int i=0;i<N_CH;i++)d2[i]=(i>=ss&&i<=se)?0:delta[i];
 5758              		.loc 6 584 44 view .LVU1658
 5759              	.LBB1171:
 585:src/main.cpp  ****     int pkb=0;int32_t db=0;
 5760              		.loc 6 585 18 view .LVU1659
 5761              	.LBE1171:
 581:src/main.cpp  **** 
 5762              		.loc 6 581 11 is_stmt 0 view .LVU1660
 5763 00c6 C5E9020A 		strd	r0, r10, [r5, #8]
 5764 00ca 6846     		mov	r0, sp
 5765 00cc 04E0     		b	.L327
 5766              	.LVL423:
 5767              	.L325:
 5768              	.LBB1172:
 585:src/main.cpp  ****     int pkb=0;int32_t db=0;
 5769              		.loc 6 585 5 discriminator 6 view .LVU1661
 5770 00ce 0133     		adds	r3, r3, #1
 5771              	.LVL424:
 585:src/main.cpp  ****     int pkb=0;int32_t db=0;
 5772              		.loc 6 585 33 discriminator 6 view .LVU1662
 5773 00d0 4CF8042B 		str	r2, [ip], #4
 585:src/main.cpp  ****     int pkb=0;int32_t db=0;
 5774              		.loc 6 585 5 is_stmt 1 discriminator 6 view .LVU1663
 5775              	.LVL425:
 585:src/main.cpp  ****     int pkb=0;int32_t db=0;
 5776              		.loc 6 585 18 discriminator 6 view .LVU1664
 5777 00d4 0C2B     		cmp	r3, #12
 5778 00d6 0FD0     		beq	.L349
 5779              	.LVL426:
ARM GAS  /tmp/claude-502/ccry90Vn.s 			page 153


 5780              	.L327:
 585:src/main.cpp  ****     int pkb=0;int32_t db=0;
 5781              		.loc 6 585 28 discriminator 2 view .LVU1665
 585:src/main.cpp  ****     int pkb=0;int32_t db=0;
 5782              		.loc 6 585 48 is_stmt 0 discriminator 2 view .LVU1666
 5783 00d8 9F42     		cmp	r7, r3
 5784 00da 06DC     		bgt	.L341
 5785 00dc 9845     		cmp	r8, r3
 5786 00de ACBF     		ite	ge
 5787 00e0 0021     		movge	r1, #0
 5788 00e2 0121     		movlt	r1, #1
 5789 00e4 0A46     		mov	r2, r1
 5790 00e6 0029     		cmp	r1, #0
 5791 00e8 F1D0     		beq	.L325
 5792              	.L341:
 585:src/main.cpp  ****     int pkb=0;int32_t db=0;
 5793              		.loc 6 585 48 discriminator 3 view .LVU1667
 5794 00ea 56F82320 		ldr	r2, [r6, r3, lsl #2]
 585:src/main.cpp  ****     int pkb=0;int32_t db=0;
 5795              		.loc 6 585 5 discriminator 3 view .LVU1668
 5796 00ee 0133     		adds	r3, r3, #1
 5797              	.LVL427:
 585:src/main.cpp  ****     int pkb=0;int32_t db=0;
 5798              		.loc 6 585 18 discriminator 3 view .LVU1669
 5799 00f0 0C2B     		cmp	r3, #12
 585:src/main.cpp  ****     int pkb=0;int32_t db=0;
 5800              		.loc 6 585 33 discriminator 3 view .LVU1670
 5801 00f2 4CF8042B 		str	r2, [ip], #4
 585:src/main.cpp  ****     int pkb=0;int32_t db=0;
 5802              		.loc 6 585 5 is_stmt 1 discriminator 3 view .LVU1671
 5803              	.LVL428:
 585:src/main.cpp  ****     int pkb=0;int32_t db=0;
 5804              		.loc 6 585 18 discriminator 3 view .LVU1672
 5805 00f6 EFD1     		bne	.L327
 5806              	.L349:
 585:src/main.cpp  ****     int pkb=0;int32_t db=0;
 5807              		.loc 6 585 18 is_stmt 0 discriminator 3 view .LVU1673
 5808              	.LBE1172:
 5809              	.LBB1173:
 587:src/main.cpp  ****     int sep=pkb-pka;if(sep<0)sep=-sep;
 5810              		.loc 6 587 13 view .LVU1674
 5811 00f8 0023     		movs	r3, #0
 5812              	.LVL429:
 587:src/main.cpp  ****     int sep=pkb-pka;if(sep<0)sep=-sep;
 5813              		.loc 6 587 13 view .LVU1675
 5814              	.LBE1173:
 586:src/main.cpp  ****     for(int i=0;i<N_CH;i++)if(d2[i]>db){db=d2[i];pkb=i;}
 5815              		.loc 6 586 23 view .LVU1676
 5816 00fa 1946     		mov	r1, r3
 586:src/main.cpp  ****     for(int i=0;i<N_CH;i++)if(d2[i]>db){db=d2[i];pkb=i;}
 5817              		.loc 6 586 9 view .LVU1677
 5818 00fc 1E46     		mov	r6, r3
 5819              	.LVL430:
 5820              	.L329:
 5821              	.LBB1174:
 587:src/main.cpp  ****     int sep=pkb-pka;if(sep<0)sep=-sep;
 5822              		.loc 6 587 28 is_stmt 1 discriminator 2 view .LVU1678
ARM GAS  /tmp/claude-502/ccry90Vn.s 			page 154


 587:src/main.cpp  ****     int sep=pkb-pka;if(sep<0)sep=-sep;
 5823              		.loc 6 587 35 is_stmt 0 discriminator 2 view .LVU1679
 5824 00fe 50F8042B 		ldr	r2, [r0], #4
 587:src/main.cpp  ****     int sep=pkb-pka;if(sep<0)sep=-sep;
 5825              		.loc 6 587 28 discriminator 2 view .LVU1680
 5826 0102 8A42     		cmp	r2, r1
 5827 0104 01DD     		ble	.L328
 587:src/main.cpp  ****     int sep=pkb-pka;if(sep<0)sep=-sep;
 5828              		.loc 6 587 28 view .LVU1681
 5829 0106 1E46     		mov	r6, r3
 5830 0108 1146     		mov	r1, r2
 5831              	.LVL431:
 5832              	.L328:
 587:src/main.cpp  ****     int sep=pkb-pka;if(sep<0)sep=-sep;
 5833              		.loc 6 587 5 is_stmt 1 discriminator 5 view .LVU1682
 5834 010a 0133     		adds	r3, r3, #1
 5835              	.LVL432:
 587:src/main.cpp  ****     int sep=pkb-pka;if(sep<0)sep=-sep;
 5836              		.loc 6 587 18 discriminator 5 view .LVU1683
 5837 010c 0C2B     		cmp	r3, #12
 5838 010e F6D1     		bne	.L329
 5839              	.LBE1174:
 588:src/main.cpp  ****     if(db<TOUCH_THRESHOLD||sep<MIN_FINGER_SEP)return 1;
 5840              		.loc 6 588 5 view .LVU1684
 5841              	.LVL433:
 588:src/main.cpp  ****     if(db<TOUCH_THRESHOLD||sep<MIN_FINGER_SEP)return 1;
 5842              		.loc 6 588 21 view .LVU1685
 5843 0110 331B     		subs	r3, r6, r4
 5844              	.LVL434:
 588:src/main.cpp  ****     if(db<TOUCH_THRESHOLD||sep<MIN_FINGER_SEP)return 1;
 5845              		.loc 6 588 30 view .LVU1686
 588:src/main.cpp  ****     if(db<TOUCH_THRESHOLD||sep<MIN_FINGER_SEP)return 1;
 5846              		.loc 6 588 33 is_stmt 0 view .LVU1687
 5847 0112 48BF     		it	mi
 5848 0114 A31B     		submi	r3, r4, r6
 5849              	.LVL435:
 589:src/main.cpp  ****     int ws2=pkb-2;if(ws2<0)ws2=0;int we2=pkb+2;if(we2>=N_CH)we2=N_CH-1;
 5850              		.loc 6 589 5 is_stmt 1 view .LVU1688
 5851 0116 0929     		cmp	r1, #9
 5852 0118 45DD     		ble	.L338
 5853 011a 032B     		cmp	r3, #3
 5854 011c CCBF     		ite	gt
 5855 011e 0024     		movgt	r4, #0
 5856 0120 0124     		movle	r4, #1
 5857 0122 002C     		cmp	r4, #0
 5858 0124 3FD1     		bne	.L338
 590:src/main.cpp  ****     int32_t pb;int pcb;
 5859              		.loc 6 590 5 view .LVU1689
 590:src/main.cpp  ****     int32_t pb;int pcb;
 5860              		.loc 6 590 9 is_stmt 0 view .LVU1690
 5861 0126 A6F10208 		sub	r8, r6, #2
 5862              	.LVL436:
 590:src/main.cpp  ****     int32_t pb;int pcb;
 5863              		.loc 6 590 19 is_stmt 1 view .LVU1691
 590:src/main.cpp  ****     int32_t pb;int pcb;
 5864              		.loc 6 590 38 is_stmt 0 view .LVU1692
 5865 012a 0236     		adds	r6, r6, #2
ARM GAS  /tmp/claude-502/ccry90Vn.s 			page 155


 5866 012c 0B2E     		cmp	r6, #11
 5867 012e 28EAE878 		bic	r8, r8, r8, asr #31
 5868              	.LVL437:
 590:src/main.cpp  ****     int32_t pb;int pcb;
 5869              		.loc 6 590 34 is_stmt 1 view .LVU1693
 590:src/main.cpp  ****     int32_t pb;int pcb;
 5870              		.loc 6 590 48 view .LVU1694
 5871 0132 A8BF     		it	ge
 5872 0134 0B26     		movge	r6, #11
 5873              	.LVL438:
 591:src/main.cpp  ****     int32_t posb=centroid_window(d2,ws2,we2,&pb,&pcb);
 5874              		.loc 6 591 5 view .LVU1695
 591:src/main.cpp  ****     int32_t posb=centroid_window(d2,ws2,we2,&pb,&pcb);
 5875              		.loc 6 591 16 view .LVU1696
 592:src/main.cpp  ****     out[1]={true,posb,pressure_pct(pb,pcb),pcb,pb};
 5876              		.loc 6 592 5 view .LVU1697
 5877              	.LBB1175:
 5878              	.LBI1175:
 536:src/main.cpp  **** {
 5879              		.loc 6 536 9 view .LVU1698
 5880              	.LBB1176:
 5881              	.LBB1177:
 539:src/main.cpp  ****         int32_t w=d[i]>0?d[i]:0;
 5882              		.loc 6 539 18 view .LVU1699
 5883 0136 4645     		cmp	r6, r8
 5884 0138 3FDB     		blt	.L340
 5885 013a 721C     		adds	r2, r6, #1
 5886 013c 6FF04046 		mvn	r6, #-1073741824
 5887              	.LVL439:
 539:src/main.cpp  ****         int32_t w=d[i]>0?d[i]:0;
 5888              		.loc 6 539 18 is_stmt 0 view .LVU1700
 5889 0140 4046     		mov	r0, r8
 5890              	.LBE1177:
 538:src/main.cpp  ****     for(int i=s;i<=e;i++){
 5891              		.loc 6 538 18 view .LVU1701
 5892 0142 2746     		mov	r7, r4
 5893              	.LVL440:
 538:src/main.cpp  ****     for(int i=s;i<=e;i++){
 5894              		.loc 6 538 18 view .LVU1702
 5895 0144 4644     		add	r6, r6, r8
 538:src/main.cpp  ****     for(int i=s;i<=e;i++){
 5896              		.loc 6 538 13 view .LVU1703
 5897 0146 2146     		mov	r1, r4
 5898              	.LVL441:
 538:src/main.cpp  ****     for(int i=s;i<=e;i++){
 5899              		.loc 6 538 13 view .LVU1704
 5900 0148 0DEB8606 		add	r6, sp, r6, lsl #2
 5901              	.LVL442:
 5902              	.L333:
 5903              	.LBB1179:
 5904              	.LBB1178:
 540:src/main.cpp  ****         sw+=w;swx+=w*i;
 5905              		.loc 6 540 9 is_stmt 1 view .LVU1705
 540:src/main.cpp  ****         sw+=w;swx+=w*i;
 5906              		.loc 6 540 17 is_stmt 0 view .LVU1706
 5907 014c 56F8043F 		ldr	r3, [r6, #4]!
 5908 0150 23EAE373 		bic	r3, r3, r3, asr #31
ARM GAS  /tmp/claude-502/ccry90Vn.s 			page 156


 5909              	.LVL443:
 541:src/main.cpp  ****         if(w>pk){pk=w;pkc=i;}
 5910              		.loc 6 541 9 is_stmt 1 view .LVU1707
 542:src/main.cpp  ****     }
 5911              		.loc 6 542 9 is_stmt 0 view .LVU1708
 5912 0154 9C42     		cmp	r4, r3
 541:src/main.cpp  ****         if(w>pk){pk=w;pkc=i;}
 5913              		.loc 6 541 18 view .LVU1709
 5914 0156 03FB0077 		mla	r7, r3, r0, r7
 5915              	.LVL444:
 541:src/main.cpp  ****         if(w>pk){pk=w;pkc=i;}
 5916              		.loc 6 541 11 view .LVU1710
 5917 015a 1944     		add	r1, r1, r3
 5918              	.LVL445:
 541:src/main.cpp  ****         if(w>pk){pk=w;pkc=i;}
 5919              		.loc 6 541 15 is_stmt 1 view .LVU1711
 542:src/main.cpp  ****     }
 5920              		.loc 6 542 9 view .LVU1712
 5921 015c 01DA     		bge	.L332
 542:src/main.cpp  ****     }
 5922              		.loc 6 542 9 is_stmt 0 view .LVU1713
 5923 015e 8046     		mov	r8, r0
 5924 0160 1C46     		mov	r4, r3
 5925              	.LVL446:
 5926              	.L332:
 542:src/main.cpp  ****     }
 5927              		.loc 6 542 9 view .LVU1714
 5928              	.LBE1178:
 539:src/main.cpp  ****         int32_t w=d[i]>0?d[i]:0;
 5929              		.loc 6 539 5 is_stmt 1 view .LVU1715
 5930 0162 0130     		adds	r0, r0, #1
 5931              	.LVL447:
 539:src/main.cpp  ****         int32_t w=d[i]>0?d[i]:0;
 5932              		.loc 6 539 18 view .LVU1716
 5933 0164 8242     		cmp	r2, r0
 5934 0166 F1D1     		bne	.L333
 5935              	.LBE1179:
 544:src/main.cpp  ****     if(sw==0)return -1;
 5936              		.loc 6 544 5 view .LVU1717
 544:src/main.cpp  ****     if(sw==0)return -1;
 5937              		.loc 6 544 15 view .LVU1718
 5938              	.LVL448:
 544:src/main.cpp  ****     if(sw==0)return -1;
 5939              		.loc 6 544 26 view .LVU1719
 544:src/main.cpp  ****     if(sw==0)return -1;
 5940              		.loc 6 544 38 view .LVU1720
 545:src/main.cpp  ****     int32_t p=(swx*1000)/(sw*(N_CH-1));
 5941              		.loc 6 545 5 view .LVU1721
 5942 0168 39B3     		cbz	r1, .L340
 546:src/main.cpp  ****     if(p<0)p=0;if(p>1000)p=1000;
 5943              		.loc 6 546 5 view .LVU1722
 5944              	.LVL449:
 547:src/main.cpp  ****     return p;
 5945              		.loc 6 547 5 view .LVU1723
 546:src/main.cpp  ****     if(p<0)p=0;if(p>1000)p=1000;
 5946              		.loc 6 546 19 is_stmt 0 view .LVU1724
 5947 016a 4FF47A76 		mov	r6, #1000
ARM GAS  /tmp/claude-502/ccry90Vn.s 			page 157


 546:src/main.cpp  ****     if(p<0)p=0;if(p>1000)p=1000;
 5948              		.loc 6 546 29 view .LVU1725
 5949 016e 01EB8103 		add	r3, r1, r1, lsl #2
 5950              	.LVL450:
 546:src/main.cpp  ****     if(p<0)p=0;if(p>1000)p=1000;
 5951              		.loc 6 546 19 view .LVU1726
 5952 0172 07FB06F6 		mul	r6, r7, r6
 546:src/main.cpp  ****     if(p<0)p=0;if(p>1000)p=1000;
 5953              		.loc 6 546 29 view .LVU1727
 5954 0176 01EB4301 		add	r1, r1, r3, lsl #1
 5955              	.LVL451:
 546:src/main.cpp  ****     if(p<0)p=0;if(p>1000)p=1000;
 5956              		.loc 6 546 13 view .LVU1728
 5957 017a B6FBF1F6 		udiv	r6, r6, r1
 5958 017e B6F57A7F 		cmp	r6, #1000
 5959 0182 A8BF     		it	ge
 5960 0184 4FF47A76 		movge	r6, #1000
 5961              	.LVL452:
 5962              	.L331:
 546:src/main.cpp  ****     if(p<0)p=0;if(p>1000)p=1000;
 5963              		.loc 6 546 13 view .LVU1729
 5964              	.LBE1176:
 5965              	.LBE1175:
 593:src/main.cpp  ****     return 2;
 5966              		.loc 6 593 5 is_stmt 1 view .LVU1730
 593:src/main.cpp  ****     return 2;
 5967              		.loc 6 593 35 is_stmt 0 view .LVU1731
 5968 0188 4146     		mov	r1, r8
 5969 018a 2046     		mov	r0, r4
 5970 018c FFF7FEFF 		bl	_Z12pressure_pctli
 5971              	.LVL453:
 5972 0190 0346     		mov	r3, r0
 594:src/main.cpp  **** }
 5973              		.loc 6 594 12 view .LVU1732
 5974 0192 0220     		movs	r0, #2
 593:src/main.cpp  ****     return 2;
 5975              		.loc 6 593 11 view .LVU1733
 5976 0194 AE61     		str	r6, [r5, #24]
 5977 0196 6C62     		str	r4, [r5, #36]
 594:src/main.cpp  **** }
 5978              		.loc 6 594 5 is_stmt 1 view .LVU1734
 593:src/main.cpp  ****     return 2;
 5979              		.loc 6 593 11 is_stmt 0 view .LVU1735
 5980 0198 C5E90738 		strd	r3, r8, [r5, #28]
 5981 019c 0123     		movs	r3, #1
 5982 019e 2B75     		strb	r3, [r5, #20]
 595:src/main.cpp  **** 
 5983              		.loc 6 595 1 view .LVU1736
 5984 01a0 0DB0     		add	sp, sp, #52
 5985              		.cfi_remember_state
 5986              		.cfi_def_cfa_offset 36
 5987              		@ sp needed
 5988 01a2 BDE8F08F 		pop	{r4, r5, r6, r7, r8, r9, r10, fp, pc}
 5989              	.LVL454:
 5990              	.L338:
 5991              		.cfi_restore_state
 589:src/main.cpp  ****     int ws2=pkb-2;if(ws2<0)ws2=0;int we2=pkb+2;if(we2>=N_CH)we2=N_CH-1;
ARM GAS  /tmp/claude-502/ccry90Vn.s 			page 158


 5992              		.loc 6 589 54 view .LVU1737
 5993 01a6 0120     		movs	r0, #1
 595:src/main.cpp  **** 
 5994              		.loc 6 595 1 view .LVU1738
 5995 01a8 0DB0     		add	sp, sp, #52
 5996              		.cfi_remember_state
 5997              		.cfi_def_cfa_offset 36
 5998              		@ sp needed
 5999 01aa BDE8F08F 		pop	{r4, r5, r6, r7, r8, r9, r10, fp, pc}
 6000              	.LVL455:
 6001              	.L335:
 6002              		.cfi_restore_state
 6003              	.LBB1181:
 6004              	.LBB1168:
 6005              	.LBB1167:
 539:src/main.cpp  ****         int32_t w=d[i]>0?d[i]:0;
 6006              		.loc 6 539 18 view .LVU1739
 6007 01ae BA46     		mov	r10, r7
 6008              	.LBE1167:
 538:src/main.cpp  ****     for(int i=s;i<=e;i++){
 6009              		.loc 6 538 24 view .LVU1740
 6010 01b0 4FF00009 		mov	r9, #0
 545:src/main.cpp  ****     int32_t p=(swx*1000)/(sw*(N_CH-1));
 6011              		.loc 6 545 22 view .LVU1741
 6012 01b4 4FF0FF3B 		mov	fp, #-1
 6013 01b8 79E7     		b	.L322
 6014              	.LVL456:
 6015              	.L340:
 545:src/main.cpp  ****     int32_t p=(swx*1000)/(sw*(N_CH-1));
 6016              		.loc 6 545 22 view .LVU1742
 6017              	.LBE1168:
 6018              	.LBE1181:
 6019              	.LBB1182:
 6020              	.LBB1180:
 6021 01ba 4FF0FF36 		mov	r6, #-1
 6022 01be E3E7     		b	.L331
 6023              	.LVL457:
 6024              	.L336:
 545:src/main.cpp  ****     int32_t p=(swx*1000)/(sw*(N_CH-1));
 6025              		.loc 6 545 22 view .LVU1743
 6026              	.LBE1180:
 6027              	.LBE1182:
 6028              	.LBB1183:
 6029              	.LBB1169:
 6030 01c0 4FF0FF3B 		mov	fp, #-1
 6031 01c4 73E7     		b	.L322
 6032              	.LBE1169:
 6033              	.LBE1183:
 6034              		.cfi_endproc
 6035              	.LFE2577:
 6037 01c6 00BF     		.section	.text._Z14update_trackedP6Fingeri,"ax",%progbits
 6038              		.align	1
 6039              		.p2align 2,,3
 6040              		.global	_Z14update_trackedP6Fingeri
 6041              		.syntax unified
 6042              		.thumb
 6043              		.thumb_func
ARM GAS  /tmp/claude-502/ccry90Vn.s 			page 159


 6045              	_Z14update_trackedP6Fingeri:
 6046              	.LVL458:
 6047              	.LFB2578:
 598:src/main.cpp  ****     bool ra[2]={false,false};
 6048              		.loc 6 598 1 is_stmt 1 view -0
 6049              		.cfi_startproc
 6050              		@ args = 0, pretend = 0, frame = 8
 6051              		@ frame_needed = 0, uses_anonymous_args = 0
 599:src/main.cpp  ****     for(int slot=0;slot<2;slot++){
 6052              		.loc 6 599 5 view .LVU1745
 598:src/main.cpp  ****     bool ra[2]={false,false};
 6053              		.loc 6 598 1 is_stmt 0 view .LVU1746
 6054 0000 2DE9F047 		push	{r4, r5, r6, r7, r8, r9, r10, lr}
 6055              		.cfi_def_cfa_offset 32
 6056              		.cfi_offset 4, -32
 6057              		.cfi_offset 5, -28
 6058              		.cfi_offset 6, -24
 6059              		.cfi_offset 7, -20
 6060              		.cfi_offset 8, -16
 6061              		.cfi_offset 9, -12
 6062              		.cfi_offset 10, -8
 6063              		.cfi_offset 14, -4
 6064 0004 374C     		ldr	r4, .L374
 6065 0006 82B0     		sub	sp, sp, #8
 6066              		.cfi_def_cfa_offset 40
 599:src/main.cpp  ****     for(int slot=0;slot<2;slot++){
 6067              		.loc 6 599 10 view .LVU1747
 6068 0008 0022     		movs	r2, #0
 6069 000a 2346     		mov	r3, r4
 6070 000c 04F12808 		add	r8, r4, #40
 6071 0010 8DF80420 		strb	r2, [sp, #4]
 6072 0014 8DF80520 		strb	r2, [sp, #5]
 600:src/main.cpp  ****         if(!tracked[slot].alive)continue;
 6073              		.loc 6 600 5 is_stmt 1 view .LVU1748
 6074              	.LVL459:
 6075              	.LBB1184:
 600:src/main.cpp  ****         if(!tracked[slot].alive)continue;
 6076              		.loc 6 600 24 view .LVU1749
 6077              	.L356:
 6078              	.LBB1185:
 601:src/main.cpp  ****         int32_t best=MAX_POS_JUMP+1;int br=-1;
 6079              		.loc 6 601 9 view .LVU1750
 6080 0018 1A78     		ldrb	r2, [r3]	@ zero_extendqisi2
 6081 001a 9AB9     		cbnz	r2, .L372
 6082              	.L351:
 6083              	.LBE1185:
 600:src/main.cpp  ****         if(!tracked[slot].alive)continue;
 6084              		.loc 6 600 5 discriminator 2 view .LVU1751
 600:src/main.cpp  ****         if(!tracked[slot].alive)continue;
 6085              		.loc 6 600 24 discriminator 2 view .LVU1752
 6086 001c 1433     		adds	r3, r3, #20
 6087 001e 4345     		cmp	r3, r8
 6088 0020 FAD1     		bne	.L356
 6089              	.LVL460:
 600:src/main.cpp  ****         if(!tracked[slot].alive)continue;
 6090              		.loc 6 600 24 is_stmt 0 discriminator 2 view .LVU1753
 6091              	.LBE1184:
ARM GAS  /tmp/claude-502/ccry90Vn.s 			page 160


 6092              	.LBB1191:
 614:src/main.cpp  ****         if(ra[r])continue;
 6093              		.loc 6 614 18 is_stmt 1 view .LVU1754
 6094 0022 0029     		cmp	r1, #0
 6095 0024 0BDD     		ble	.L350
 614:src/main.cpp  ****         if(ra[r])continue;
 6096              		.loc 6 614 18 is_stmt 0 view .LVU1755
 6097 0026 01EB8103 		add	r3, r1, r1, lsl #2
 6098 002a 01AA     		add	r2, sp, #4
 6099 002c 00EB8303 		add	r3, r0, r3, lsl #2
 6100              	.LVL461:
 6101              	.L360:
 6102              	.LBB1192:
 615:src/main.cpp  ****         for(int slot=0;slot<2;slot++){
 6103              		.loc 6 615 9 is_stmt 1 view .LVU1756
 6104              	.LBB1193:
 616:src/main.cpp  ****             if(!tracked[slot].alive){
 6105              		.loc 6 616 28 view .LVU1757
 617:src/main.cpp  ****                 tracked[slot]={true,raw[r].pos,raw[r].pressure,raw[r].peak_ch,raw[r].peak_delta};
 6106              		.loc 6 617 13 view .LVU1758
 616:src/main.cpp  ****             if(!tracked[slot].alive){
 6107              		.loc 6 616 9 view .LVU1759
 616:src/main.cpp  ****             if(!tracked[slot].alive){
 6108              		.loc 6 616 28 view .LVU1760
 617:src/main.cpp  ****                 tracked[slot]={true,raw[r].pos,raw[r].pressure,raw[r].peak_ch,raw[r].peak_delta};
 6109              		.loc 6 617 13 view .LVU1761
 6110              	.LBE1193:
 615:src/main.cpp  ****         for(int slot=0;slot<2;slot++){
 6111              		.loc 6 615 16 is_stmt 0 view .LVU1762
 6112 0030 12F8011B 		ldrb	r1, [r2], #1	@ zero_extendqisi2
 6113              	.LVL462:
 615:src/main.cpp  ****         for(int slot=0;slot<2;slot++){
 6114              		.loc 6 615 9 view .LVU1763
 6115 0034 0029     		cmp	r1, #0
 6116 0036 39D0     		beq	.L373
 6117              	.L358:
 6118              	.LVL463:
 615:src/main.cpp  ****         for(int slot=0;slot<2;slot++){
 6119              		.loc 6 615 9 view .LVU1764
 6120              	.LBE1192:
 614:src/main.cpp  ****         if(ra[r])continue;
 6121              		.loc 6 614 5 is_stmt 1 discriminator 2 view .LVU1765
 614:src/main.cpp  ****         if(ra[r])continue;
 6122              		.loc 6 614 18 discriminator 2 view .LVU1766
 6123 0038 1430     		adds	r0, r0, #20
 6124 003a 9842     		cmp	r0, r3
 6125 003c F8D1     		bne	.L360
 6126              	.LVL464:
 6127              	.L350:
 614:src/main.cpp  ****         if(ra[r])continue;
 6128              		.loc 6 614 18 is_stmt 0 discriminator 2 view .LVU1767
 6129              	.LBE1191:
 623:src/main.cpp  **** 
 6130              		.loc 6 623 1 view .LVU1768
 6131 003e 02B0     		add	sp, sp, #8
 6132              		.cfi_remember_state
 6133              		.cfi_def_cfa_offset 32
ARM GAS  /tmp/claude-502/ccry90Vn.s 			page 161


 6134              		@ sp needed
 6135 0040 BDE8F087 		pop	{r4, r5, r6, r7, r8, r9, r10, pc}
 6136              	.LVL465:
 6137              	.L372:
 6138              		.cfi_restore_state
 6139              	.LBB1196:
 6140              	.LBB1189:
 6141              	.LBB1186:
 603:src/main.cpp  ****             if(ra[r])continue;
 6142              		.loc 6 603 22 is_stmt 1 view .LVU1769
 6143 0044 0029     		cmp	r1, #0
 6144 0046 49DD     		ble	.L352
 6145 0048 01AD     		add	r5, sp, #4
 6146 004a 8446     		mov	ip, r0
 603:src/main.cpp  ****             if(ra[r])continue;
 6147              		.loc 6 603 17 is_stmt 0 view .LVU1770
 6148 004c 0022     		movs	r2, #0
 6149              	.LBE1186:
 602:src/main.cpp  ****         for(int r=0;r<n;r++){
 6150              		.loc 6 602 41 view .LVU1771
 6151 004e 4FF0FF3E 		mov	lr, #-1
 602:src/main.cpp  ****         for(int r=0;r<n;r++){
 6152              		.loc 6 602 17 view .LVU1772
 6153 0052 4FF0C90A 		mov	r10, #201
 6154              	.LVL466:
 6155              	.L355:
 6156              	.LBB1188:
 6157              	.LBB1187:
 604:src/main.cpp  ****             int32_t c=raw[r].pos-tracked[slot].pos;if(c<0)c=-c;
 6158              		.loc 6 604 13 is_stmt 1 view .LVU1773
 605:src/main.cpp  ****             if(c<best){best=c;br=r;}
 6159              		.loc 6 605 13 view .LVU1774
 604:src/main.cpp  ****             int32_t c=raw[r].pos-tracked[slot].pos;if(c<0)c=-c;
 6160              		.loc 6 604 20 is_stmt 0 view .LVU1775
 6161 0056 15F8016B 		ldrb	r6, [r5], #1	@ zero_extendqisi2
 604:src/main.cpp  ****             int32_t c=raw[r].pos-tracked[slot].pos;if(c<0)c=-c;
 6162              		.loc 6 604 13 view .LVU1776
 6163 005a 5EB9     		cbnz	r6, .L353
 605:src/main.cpp  ****             if(c<best){best=c;br=r;}
 6164              		.loc 6 605 59 is_stmt 1 view .LVU1777
 605:src/main.cpp  ****             if(c<best){best=c;br=r;}
 6165              		.loc 6 605 30 is_stmt 0 view .LVU1778
 6166 005c DCF80460 		ldr	r6, [ip, #4]
 605:src/main.cpp  ****             if(c<best){best=c;br=r;}
 6167              		.loc 6 605 48 view .LVU1779
 6168 0060 5F68     		ldr	r7, [r3, #4]
 6169              	.LVL467:
 605:src/main.cpp  ****             if(c<best){best=c;br=r;}
 6170              		.loc 6 605 52 is_stmt 1 view .LVU1780
 6171 0062 B6EB0709 		subs	r9, r6, r7
 6172              	.LVL468:
 605:src/main.cpp  ****             if(c<best){best=c;br=r;}
 6173              		.loc 6 605 60 is_stmt 0 view .LVU1781
 6174 0066 48BF     		it	mi
 6175 0068 A7EB0609 		submi	r9, r7, r6
 6176              	.LVL469:
 606:src/main.cpp  ****         }
ARM GAS  /tmp/claude-502/ccry90Vn.s 			page 162


 6177              		.loc 6 606 13 is_stmt 1 view .LVU1782
 6178 006c CA45     		cmp	r10, r9
 6179 006e 01DD     		ble	.L353
 6180 0070 9646     		mov	lr, r2
 6181 0072 CA46     		mov	r10, r9
 6182              	.LVL470:
 6183              	.L353:
 606:src/main.cpp  ****         }
 6184              		.loc 6 606 13 is_stmt 0 view .LVU1783
 6185              	.LBE1187:
 603:src/main.cpp  ****             if(ra[r])continue;
 6186              		.loc 6 603 9 is_stmt 1 discriminator 2 view .LVU1784
 6187 0074 0132     		adds	r2, r2, #1
 6188              	.LVL471:
 603:src/main.cpp  ****             if(ra[r])continue;
 6189              		.loc 6 603 22 discriminator 2 view .LVU1785
 6190 0076 0CF1140C 		add	ip, ip, #20
 6191 007a 9142     		cmp	r1, r2
 6192 007c EBD1     		bne	.L355
 6193              	.LBE1188:
 608:src/main.cpp  ****             tracked[slot].pos=raw[br].pos;tracked[slot].pressure=raw[br].pressure;
 6194              		.loc 6 608 9 view .LVU1786
 6195 007e BEF1FF3F 		cmp	lr, #-1
 6196 0082 2BD0     		beq	.L352
 609:src/main.cpp  ****             tracked[slot].peak_ch=raw[br].peak_ch;tracked[slot].peak_delta=raw[br].peak_delta;
 6197              		.loc 6 609 13 view .LVU1787
 609:src/main.cpp  ****             tracked[slot].peak_ch=raw[br].peak_ch;tracked[slot].peak_delta=raw[br].peak_delta;
 6198              		.loc 6 609 37 is_stmt 0 view .LVU1788
 6199 0084 0EEB8E02 		add	r2, lr, lr, lsl #2
 6200              	.LVL472:
 611:src/main.cpp  ****         } else tracked[slot].alive=false;
 6201              		.loc 6 611 19 view .LVU1789
 6202 0088 0EF10805 		add	r5, lr, #8
 609:src/main.cpp  ****             tracked[slot].peak_ch=raw[br].peak_ch;tracked[slot].peak_delta=raw[br].peak_delta;
 6203              		.loc 6 609 37 view .LVU1790
 6204 008c 00EB8202 		add	r2, r0, r2, lsl #2
 611:src/main.cpp  ****         } else tracked[slot].alive=false;
 6205              		.loc 6 611 19 view .LVU1791
 6206 0090 0DEB050E 		add	lr, sp, r5
 6207 0094 0125     		movs	r5, #1
 6208 0096 0EF8045C 		strb	r5, [lr, #-4]
 609:src/main.cpp  ****             tracked[slot].peak_ch=raw[br].peak_ch;tracked[slot].peak_delta=raw[br].peak_delta;
 6209              		.loc 6 609 39 view .LVU1792
 6210 009a 5568     		ldr	r5, [r2, #4]
 609:src/main.cpp  ****             tracked[slot].peak_ch=raw[br].peak_ch;tracked[slot].peak_delta=raw[br].peak_delta;
 6211              		.loc 6 609 30 view .LVU1793
 6212 009c 5D60     		str	r5, [r3, #4]
 609:src/main.cpp  ****             tracked[slot].peak_ch=raw[br].peak_ch;tracked[slot].peak_delta=raw[br].peak_delta;
 6213              		.loc 6 609 43 is_stmt 1 view .LVU1794
 609:src/main.cpp  ****             tracked[slot].peak_ch=raw[br].peak_ch;tracked[slot].peak_delta=raw[br].peak_delta;
 6214              		.loc 6 609 74 is_stmt 0 view .LVU1795
 6215 009e 9568     		ldr	r5, [r2, #8]
 609:src/main.cpp  ****             tracked[slot].peak_ch=raw[br].peak_ch;tracked[slot].peak_delta=raw[br].peak_delta;
 6216              		.loc 6 609 65 view .LVU1796
 6217 00a0 9D60     		str	r5, [r3, #8]
 610:src/main.cpp  ****             ra[br]=true;
 6218              		.loc 6 610 13 is_stmt 1 view .LVU1797
ARM GAS  /tmp/claude-502/ccry90Vn.s 			page 163


 610:src/main.cpp  ****             ra[br]=true;
 6219              		.loc 6 610 34 is_stmt 0 view .LVU1798
 6220 00a2 D568     		ldr	r5, [r2, #12]
 610:src/main.cpp  ****             ra[br]=true;
 6221              		.loc 6 610 84 view .LVU1799
 6222 00a4 1269     		ldr	r2, [r2, #16]
 610:src/main.cpp  ****             ra[br]=true;
 6223              		.loc 6 610 34 view .LVU1800
 6224 00a6 DD60     		str	r5, [r3, #12]
 610:src/main.cpp  ****             ra[br]=true;
 6225              		.loc 6 610 51 is_stmt 1 view .LVU1801
 610:src/main.cpp  ****             ra[br]=true;
 6226              		.loc 6 610 75 is_stmt 0 view .LVU1802
 6227 00a8 1A61     		str	r2, [r3, #16]
 611:src/main.cpp  ****         } else tracked[slot].alive=false;
 6228              		.loc 6 611 13 is_stmt 1 view .LVU1803
 6229 00aa B7E7     		b	.L351
 6230              	.LVL473:
 6231              	.L373:
 611:src/main.cpp  ****         } else tracked[slot].alive=false;
 6232              		.loc 6 611 13 is_stmt 0 view .LVU1804
 6233              	.LBE1189:
 6234              	.LBE1196:
 6235              	.LBB1197:
 6236              	.LBB1195:
 6237              	.LBB1194:
 617:src/main.cpp  ****                 tracked[slot]={true,raw[r].pos,raw[r].pressure,raw[r].peak_ch,raw[r].peak_delta};
 6238              		.loc 6 617 13 view .LVU1805
 6239 00ac 2178     		ldrb	r1, [r4]	@ zero_extendqisi2
 6240 00ae 19B1     		cbz	r1, .L359
 6241 00b0 217D     		ldrb	r1, [r4, #20]	@ zero_extendqisi2
 6242 00b2 0029     		cmp	r1, #0
 6243 00b4 C0D1     		bne	.L358
 616:src/main.cpp  ****             if(!tracked[slot].alive){
 6244              		.loc 6 616 9 view .LVU1806
 6245 00b6 0121     		movs	r1, #1
 6246              	.L359:
 618:src/main.cpp  ****                 ra[r]=true;break;
 6247              		.loc 6 618 17 is_stmt 1 view .LVU1807
 618:src/main.cpp  ****                 ra[r]=true;break;
 6248              		.loc 6 618 30 is_stmt 0 view .LVU1808
 6249 00b8 01EB8101 		add	r1, r1, r1, lsl #2
 618:src/main.cpp  ****                 ra[r]=true;break;
 6250              		.loc 6 618 86 view .LVU1809
 6251 00bc 0769     		ldr	r7, [r0, #16]
 618:src/main.cpp  ****                 ra[r]=true;break;
 6252              		.loc 6 618 30 view .LVU1810
 6253 00be 4668     		ldr	r6, [r0, #4]
 6254 00c0 04EB8105 		add	r5, r4, r1, lsl #2
 618:src/main.cpp  ****                 ra[r]=true;break;
 6255              		.loc 6 618 71 view .LVU1811
 6256 00c4 D0E902EC 		ldrd	lr, ip, [r0, #8]
 618:src/main.cpp  ****                 ra[r]=true;break;
 6257              		.loc 6 618 30 view .LVU1812
 6258 00c8 C5E9016E 		strd	r6, lr, [r5, #4]
 6259 00cc C5E903C7 		strd	ip, r7, [r5, #12]
 619:src/main.cpp  ****             }
ARM GAS  /tmp/claude-502/ccry90Vn.s 			page 164


 6260              		.loc 6 619 17 is_stmt 1 view .LVU1813
 618:src/main.cpp  ****                 ra[r]=true;break;
 6261              		.loc 6 618 30 is_stmt 0 view .LVU1814
 6262 00d0 0125     		movs	r5, #1
 6263 00d2 04F82150 		strb	r5, [r4, r1, lsl #2]
 619:src/main.cpp  ****             }
 6264              		.loc 6 619 22 view .LVU1815
 6265 00d6 02F8015C 		strb	r5, [r2, #-1]
 619:src/main.cpp  ****             }
 6266              		.loc 6 619 28 is_stmt 1 view .LVU1816
 6267 00da ADE7     		b	.L358
 6268              	.LVL474:
 6269              	.L352:
 619:src/main.cpp  ****             }
 6270              		.loc 6 619 28 is_stmt 0 view .LVU1817
 6271              	.LBE1194:
 6272              	.LBE1195:
 6273              	.LBE1197:
 6274              	.LBB1198:
 6275              	.LBB1190:
 608:src/main.cpp  ****             tracked[slot].pos=raw[br].pos;tracked[slot].pressure=raw[br].pressure;
 6276              		.loc 6 608 9 is_stmt 1 view .LVU1818
 612:src/main.cpp  ****     }
 6277              		.loc 6 612 16 view .LVU1819
 612:src/main.cpp  ****     }
 6278              		.loc 6 612 35 is_stmt 0 view .LVU1820
 6279 00dc 0022     		movs	r2, #0
 6280 00de 1A70     		strb	r2, [r3]
 6281 00e0 9CE7     		b	.L351
 6282              	.L375:
 6283 00e2 00BF     		.align	2
 6284              	.L374:
 6285 00e4 00000000 		.word	.LANCHOR48
 6286              	.LBE1190:
 6287              	.LBE1198:
 6288              		.cfi_endproc
 6289              	.LFE2578:
 6291              		.section	.text._Z13quantize_midif,"ax",%progbits
 6292              		.align	1
 6293              		.p2align 2,,3
 6294              		.global	_Z13quantize_midif
 6295              		.syntax unified
 6296              		.thumb
 6297              		.thumb_func
 6299              	_Z13quantize_midif:
 6300              	.LVL475:
 6301              	.LFB2581:
 642:src/main.cpp  ****     int root = (int)midi;
 6302              		.loc 6 642 1 is_stmt 1 view -0
 6303              		.cfi_startproc
 6304              		@ args = 0, pretend = 0, frame = 0
 6305              		@ frame_needed = 0, uses_anonymous_args = 0
 643:src/main.cpp  ****     int pc   = root % 12;
 6306              		.loc 6 643 5 view .LVU1822
 643:src/main.cpp  ****     int pc   = root % 12;
 6307              		.loc 6 643 9 is_stmt 0 view .LVU1823
 6308 0000 FDEEC07A 		vcvt.s32.f32	s15, s0
ARM GAS  /tmp/claude-502/ccry90Vn.s 			page 165


 644:src/main.cpp  ****     int oct  = root / 12;
 6309              		.loc 6 644 9 view .LVU1824
 6310 0004 1B4B     		ldr	r3, .L384
 6311 0006 1C49     		ldr	r1, .L384+4
 645:src/main.cpp  ****     // find nearest scale degree
 6312              		.loc 6 645 9 view .LVU1825
 6313 0008 0022     		movs	r2, #0
 642:src/main.cpp  ****     int root = (int)midi;
 6314              		.loc 6 642 1 view .LVU1826
 6315 000a F0B5     		push	{r4, r5, r6, r7, lr}
 6316              		.cfi_def_cfa_offset 20
 6317              		.cfi_offset 4, -20
 6318              		.cfi_offset 5, -16
 6319              		.cfi_offset 6, -12
 6320              		.cfi_offset 7, -8
 6321              		.cfi_offset 14, -4
 643:src/main.cpp  ****     int pc   = root % 12;
 6322              		.loc 6 643 9 view .LVU1827
 6323 000c 17EE906A 		vmov	r6, s15	@ int
 6324              	.LVL476:
 644:src/main.cpp  ****     int oct  = root / 12;
 6325              		.loc 6 644 5 is_stmt 1 view .LVU1828
 6326 0010 01F12C04 		add	r4, r1, #44
 647:src/main.cpp  ****     for(int i=0;i<SCALE_LEN;i++){
 6327              		.loc 6 647 21 is_stmt 0 view .LVU1829
 6328 0014 4FF07F0E 		mov	lr, #127
 647:src/main.cpp  ****     for(int i=0;i<SCALE_LEN;i++){
 6329              		.loc 6 647 9 view .LVU1830
 6330 0018 1546     		mov	r5, r2
 644:src/main.cpp  ****     int oct  = root / 12;
 6331              		.loc 6 644 9 view .LVU1831
 6332 001a 83FB0603 		smull	r0, r3, r3, r6
 6333 001e F017     		asrs	r0, r6, #31
 6334 0020 C0EB6300 		rsb	r0, r0, r3, asr #1
 6335 0024 0746     		mov	r7, r0
 6336 0026 00EB4000 		add	r0, r0, r0, lsl #1
 6337 002a A6EB8000 		sub	r0, r6, r0, lsl #2
 6338              	.LVL477:
 645:src/main.cpp  ****     // find nearest scale degree
 6339              		.loc 6 645 5 is_stmt 1 view .LVU1832
 647:src/main.cpp  ****     for(int i=0;i<SCALE_LEN;i++){
 6340              		.loc 6 647 5 view .LVU1833
 648:src/main.cpp  ****         int d=SCALE[i]-pc; if(d<0)d=-d;
 6341              		.loc 6 648 5 view .LVU1834
 6342              	.LBB1199:
 648:src/main.cpp  ****         int d=SCALE[i]-pc; if(d<0)d=-d;
 6343              		.loc 6 648 18 view .LVU1835
 6344 002e 01E0     		b	.L380
 6345              	.LVL478:
 6346              	.L383:
 6347              	.LBB1200:
 649:src/main.cpp  ****         int d2=12-d; if(d2<d)d=d2;
 6348              		.loc 6 649 22 is_stmt 0 view .LVU1836
 6349 0030 51F8042F 		ldr	r2, [r1, #4]!
 6350              	.LVL479:
 6351              	.L380:
 649:src/main.cpp  ****         int d2=12-d; if(d2<d)d=d2;
ARM GAS  /tmp/claude-502/ccry90Vn.s 			page 166


 6352              		.loc 6 649 9 is_stmt 1 view .LVU1837
 649:src/main.cpp  ****         int d2=12-d; if(d2<d)d=d2;
 6353              		.loc 6 649 28 view .LVU1838
 649:src/main.cpp  ****         int d2=12-d; if(d2<d)d=d2;
 6354              		.loc 6 649 35 view .LVU1839
 649:src/main.cpp  ****         int d2=12-d; if(d2<d)d=d2;
 6355              		.loc 6 649 28 is_stmt 0 view .LVU1840
 6356 0034 131A     		subs	r3, r2, r0
 6357              	.LVL480:
 649:src/main.cpp  ****         int d2=12-d; if(d2<d)d=d2;
 6358              		.loc 6 649 36 view .LVU1841
 6359 0036 48BF     		it	mi
 6360 0038 831A     		submi	r3, r0, r2
 6361              	.LVL481:
 650:src/main.cpp  ****         if(d<best_dist){best_dist=d;best_deg=SCALE[i];}
 6362              		.loc 6 650 9 is_stmt 1 view .LVU1842
 650:src/main.cpp  ****         if(d<best_dist){best_dist=d;best_deg=SCALE[i];}
 6363              		.loc 6 650 13 is_stmt 0 view .LVU1843
 6364 003a C3F10C0C 		rsb	ip, r3, #12
 6365              	.LVL482:
 650:src/main.cpp  ****         if(d<best_dist){best_dist=d;best_deg=SCALE[i];}
 6366              		.loc 6 650 22 is_stmt 1 view .LVU1844
 6367 003e 6345     		cmp	r3, ip
 6368 0040 A8BF     		it	ge
 6369 0042 6346     		movge	r3, ip
 6370              	.LVL483:
 651:src/main.cpp  ****     }
 6371              		.loc 6 651 9 view .LVU1845
 6372 0044 7345     		cmp	r3, lr
 6373 0046 01DA     		bge	.L378
 651:src/main.cpp  ****     }
 6374              		.loc 6 651 45 is_stmt 0 view .LVU1846
 6375 0048 1546     		mov	r5, r2
 651:src/main.cpp  ****     }
 6376              		.loc 6 651 9 view .LVU1847
 6377 004a 9E46     		mov	lr, r3
 6378              	.LVL484:
 6379              	.L378:
 651:src/main.cpp  ****     }
 6380              		.loc 6 651 9 view .LVU1848
 6381              	.LBE1200:
 648:src/main.cpp  ****         int d=SCALE[i]-pc; if(d<0)d=-d;
 6382              		.loc 6 648 5 is_stmt 1 discriminator 2 view .LVU1849
 648:src/main.cpp  ****         int d=SCALE[i]-pc; if(d<0)d=-d;
 6383              		.loc 6 648 18 discriminator 2 view .LVU1850
 6384 004c A142     		cmp	r1, r4
 6385 004e EFD1     		bne	.L383
 6386              	.LBE1199:
 653:src/main.cpp  ****     // fractional semitone from the quantized note (for slide expression)
 6387              		.loc 6 653 5 view .LVU1851
 6388              	.LVL485:
 655:src/main.cpp  ****     return q+frac;
 6389              		.loc 6 655 5 view .LVU1852
 656:src/main.cpp  **** }
 6390              		.loc 6 656 5 view .LVU1853
 655:src/main.cpp  ****     return q+frac;
 6391              		.loc 6 655 21 is_stmt 0 view .LVU1854
ARM GAS  /tmp/claude-502/ccry90Vn.s 			page 167


 6392 0050 07EE906A 		vmov	s15, r6	@ int
 653:src/main.cpp  ****     // fractional semitone from the quantized note (for slide expression)
 6393              		.loc 6 653 24 view .LVU1855
 6394 0054 07EB4707 		add	r7, r7, r7, lsl #1
 6395              	.LVL486:
 655:src/main.cpp  ****     return q+frac;
 6396              		.loc 6 655 21 view .LVU1856
 6397 0058 F8EEE77A 		vcvt.f32.s32	s15, s15
 653:src/main.cpp  ****     // fractional semitone from the quantized note (for slide expression)
 6398              		.loc 6 653 27 view .LVU1857
 6399 005c 05EB8705 		add	r5, r5, r7, lsl #2
 6400              	.LVL487:
 655:src/main.cpp  ****     return q+frac;
 6401              		.loc 6 655 11 view .LVU1858
 6402 0060 30EE670A 		vsub.f32	s0, s0, s15
 6403              	.LVL488:
 653:src/main.cpp  ****     // fractional semitone from the quantized note (for slide expression)
 6404              		.loc 6 653 11 view .LVU1859
 6405 0064 07EE905A 		vmov	s15, r5	@ int
 6406 0068 F8EEE77A 		vcvt.f32.s32	s15, s15
 657:src/main.cpp  **** 
 6407              		.loc 6 657 1 view .LVU1860
 6408 006c 37EE800A 		vadd.f32	s0, s15, s0
 6409              	.LVL489:
 657:src/main.cpp  **** 
 6410              		.loc 6 657 1 view .LVU1861
 6411 0070 F0BD     		pop	{r4, r5, r6, r7, pc}
 6412              	.LVL490:
 6413              	.L385:
 657:src/main.cpp  **** 
 6414              		.loc 6 657 1 view .LVU1862
 6415 0072 00BF     		.align	2
 6416              	.L384:
 6417 0074 ABAAAA2A 		.word	715827883
 6418 0078 00000000 		.word	.LANCHOR49
 6419              		.cfi_endproc
 6420              	.LFE2581:
 6422              		.section	.text._Z8make_barPclli,"ax",%progbits
 6423              		.align	1
 6424              		.p2align 2,,3
 6425              		.global	_Z8make_barPclli
 6426              		.syntax unified
 6427              		.thumb
 6428              		.thumb_func
 6430              	_Z8make_barPclli:
 6431              	.LVL491:
 6432              	.LFB2591:
 977:src/main.cpp  **** 
 978:src/main.cpp  **** // ŌöĆŌöĆ Bar helpers ŌöĆŌöĆŌöĆŌöĆŌöĆŌöĆŌöĆŌöĆŌöĆŌöĆŌöĆŌöĆŌöĆŌöĆŌöĆŌöĆŌöĆŌöĆŌöĆŌöĆŌöĆŌöĆŌöĆŌöĆŌöĆŌö
 979:src/main.cpp  **** void make_bar(char* out,int32_t val,int32_t max,int w)
 980:src/main.cpp  **** {
 6433              		.loc 6 980 1 is_stmt 1 view -0
 6434              		.cfi_startproc
 6435              		@ args = 0, pretend = 0, frame = 0
 6436              		@ frame_needed = 0, uses_anonymous_args = 0
 981:src/main.cpp  ****     int n=(max>0&&val>0)?(int)((val*w+max/2)/max):0;
 6437              		.loc 6 981 5 view .LVU1864
ARM GAS  /tmp/claude-502/ccry90Vn.s 			page 168


 6438              		.loc 6 981 25 is_stmt 0 view .LVU1865
 6439 0000 002A     		cmp	r2, #0
 980:src/main.cpp  ****     int n=(max>0&&val>0)?(int)((val*w+max/2)/max):0;
 6440              		.loc 6 980 1 view .LVU1866
 6441 0002 10B5     		push	{r4, lr}
 6442              		.cfi_def_cfa_offset 8
 6443              		.cfi_offset 4, -8
 6444              		.cfi_offset 14, -4
 6445              		.loc 6 981 25 view .LVU1867
 6446 0004 23DD     		ble	.L391
 6447 0006 0029     		cmp	r1, #0
 6448 0008 21DD     		ble	.L391
 6449              		.loc 6 981 42 discriminator 1 view .LVU1868
 6450 000a 4FEA620E 		asr	lr, r2, #1
 6451              		.loc 6 981 38 discriminator 1 view .LVU1869
 6452 000e 03FB01E1 		mla	r1, r3, r1, lr
 6453              	.LVL492:
 6454              		.loc 6 981 25 discriminator 1 view .LVU1870
 6455 0012 91FBF2FC 		sdiv	ip, r1, r2
 6456              	.L387:
 6457              	.LVL493:
 982:src/main.cpp  ****     if(n>w)n=w;
 6458              		.loc 6 982 5 is_stmt 1 discriminator 4 view .LVU1871
 6459 0016 9C45     		cmp	ip, r3
 983:src/main.cpp  ****     out[0]='[';
 6460              		.loc 6 983 11 is_stmt 0 discriminator 4 view .LVU1872
 6461 0018 4FF05B02 		mov	r2, #91
 6462              	.LVL494:
 6463              		.loc 6 983 11 discriminator 4 view .LVU1873
 6464 001c A8BF     		it	ge
 6465 001e 9C46     		movge	ip, r3
 6466              	.LVL495:
 6467              		.loc 6 983 5 is_stmt 1 discriminator 4 view .LVU1874
 6468              	.LBB1202:
 984:src/main.cpp  ****     for(int i=0;i<w;i++)out[1+i]=(i<n)?'#':' ';
 6469              		.loc 6 984 18 is_stmt 0 discriminator 4 view .LVU1875
 6470 0020 002B     		cmp	r3, #0
 6471              	.LBE1202:
 983:src/main.cpp  ****     out[0]='[';
 6472              		.loc 6 983 11 discriminator 4 view .LVU1876
 6473 0022 0270     		strb	r2, [r0]
 6474              		.loc 6 984 5 is_stmt 1 discriminator 4 view .LVU1877
 6475              	.LVL496:
 6476              	.LBB1203:
 6477              		.loc 6 984 18 discriminator 4 view .LVU1878
 6478 0024 0DDD     		ble	.L388
 6479 0026 421C     		adds	r2, r0, #1
 6480 0028 6FEA000E 		mvn	lr, r0
 6481 002c D418     		adds	r4, r2, r3
 6482              	.LVL497:
 6483              	.L390:
 6484              		.loc 6 984 25 discriminator 2 view .LVU1879
 6485              		.loc 6 984 39 is_stmt 0 discriminator 2 view .LVU1880
 6486 002e 0EEB0201 		add	r1, lr, r2
 6487 0032 8C45     		cmp	ip, r1
 6488 0034 D4BF     		ite	le
 6489 0036 2021     		movle	r1, #32
ARM GAS  /tmp/claude-502/ccry90Vn.s 			page 169


 6490 0038 2321     		movgt	r1, #35
 6491              		.loc 6 984 33 discriminator 2 view .LVU1881
 6492 003a 02F8011B 		strb	r1, [r2], #1
 6493              		.loc 6 984 5 is_stmt 1 discriminator 2 view .LVU1882
 6494              		.loc 6 984 18 discriminator 2 view .LVU1883
 6495 003e A242     		cmp	r2, r4
 6496 0040 F5D1     		bne	.L390
 6497              	.L388:
 6498              		.loc 6 984 18 is_stmt 0 discriminator 2 view .LVU1884
 6499              	.LBE1203:
 985:src/main.cpp  ****     out[1+w]=']';out[2+w]='\0';
 6500              		.loc 6 985 5 is_stmt 1 view .LVU1885
 6501              		.loc 6 985 13 is_stmt 0 view .LVU1886
 6502 0042 1844     		add	r0, r0, r3
 6503              	.LVL498:
 6504              		.loc 6 985 13 view .LVU1887
 6505 0044 5D22     		movs	r2, #93
 6506              		.loc 6 985 26 view .LVU1888
 6507 0046 0023     		movs	r3, #0
 6508              	.LVL499:
 6509              		.loc 6 985 13 view .LVU1889
 6510 0048 4270     		strb	r2, [r0, #1]
 6511              		.loc 6 985 18 is_stmt 1 view .LVU1890
 6512              		.loc 6 985 26 is_stmt 0 view .LVU1891
 6513 004a 8370     		strb	r3, [r0, #2]
 986:src/main.cpp  **** }
 6514              		.loc 6 986 1 view .LVU1892
 6515 004c 10BD     		pop	{r4, pc}
 6516              	.LVL500:
 6517              	.L391:
 981:src/main.cpp  ****     if(n>w)n=w;
 6518              		.loc 6 981 25 view .LVU1893
 6519 004e 4FF0000C 		mov	ip, #0
 6520 0052 E0E7     		b	.L387
 6521              		.cfi_endproc
 6522              	.LFE2591:
 6524              		.global	__aeabi_ldivmod
 6525              		.section	.text._Z12make_pos_barPci,"ax",%progbits
 6526              		.align	1
 6527              		.p2align 2,,3
 6528              		.global	_Z12make_pos_barPci
 6529              		.syntax unified
 6530              		.thumb
 6531              		.thumb_func
 6533              	_Z12make_pos_barPci:
 6534              	.LVL501:
 6535              	.LFB2592:
 987:src/main.cpp  **** 
 988:src/main.cpp  **** void make_pos_bar(char* out,int w)
 989:src/main.cpp  **** {
 6536              		.loc 6 989 1 is_stmt 1 view -0
 6537              		.cfi_startproc
 6538              		@ args = 0, pretend = 0, frame = 0
 6539              		@ frame_needed = 0, uses_anonymous_args = 0
 990:src/main.cpp  ****     out[0]='|';
 6540              		.loc 6 990 5 view .LVU1895
 989:src/main.cpp  ****     out[0]='|';
ARM GAS  /tmp/claude-502/ccry90Vn.s 			page 170


 6541              		.loc 6 989 1 is_stmt 0 view .LVU1896
 6542 0000 70B5     		push	{r4, r5, r6, lr}
 6543              		.cfi_def_cfa_offset 16
 6544              		.cfi_offset 4, -16
 6545              		.cfi_offset 5, -12
 6546              		.cfi_offset 6, -8
 6547              		.cfi_offset 14, -4
 6548              		.loc 6 990 11 view .LVU1897
 6549 0002 7C23     		movs	r3, #124
 6550              	.LBB1207:
 991:src/main.cpp  ****     for(int i=0;i<w;i++)out[1+i]='-';
 6551              		.loc 6 991 18 view .LVU1898
 6552 0004 0C1E     		subs	r4, r1, #0
 6553              	.LBE1207:
 989:src/main.cpp  ****     out[0]='|';
 6554              		.loc 6 989 1 view .LVU1899
 6555 0006 0546     		mov	r5, r0
 990:src/main.cpp  ****     out[0]='|';
 6556              		.loc 6 990 11 view .LVU1900
 6557 0008 0370     		strb	r3, [r0]
 6558              		.loc 6 991 5 is_stmt 1 view .LVU1901
 6559              	.LVL502:
 6560              	.LBB1208:
 6561              		.loc 6 991 18 view .LVU1902
 6562 000a 04DD     		ble	.L405
 6563              		.loc 6 991 33 is_stmt 0 view .LVU1903
 6564 000c 2246     		mov	r2, r4
 6565 000e 2D21     		movs	r1, #45
 6566              	.LVL503:
 6567              		.loc 6 991 33 view .LVU1904
 6568 0010 0130     		adds	r0, r0, #1
 6569              	.LVL504:
 6570              		.loc 6 991 33 view .LVU1905
 6571 0012 FFF7FEFF 		bl	memset
 6572              	.LVL505:
 6573              	.L405:
 6574              		.loc 6 991 33 view .LVU1906
 6575              	.LBE1208:
 992:src/main.cpp  ****     out[1+w]='|';out[2+w]='\0';
 6576              		.loc 6 992 5 is_stmt 1 view .LVU1907
 6577              		.loc 6 992 13 is_stmt 0 view .LVU1908
 6578 0016 2B19     		adds	r3, r5, r4
 6579 0018 7C22     		movs	r2, #124
 6580              		.loc 6 992 26 view .LVU1909
 6581 001a 0021     		movs	r1, #0
 6582              	.LBB1209:
 6583              	.LBB1210:
 993:src/main.cpp  ****     for(int slot=0;slot<2;slot++){
 994:src/main.cpp  ****         if(!tracked[slot].alive)continue;
 6584              		.loc 6 994 27 view .LVU1910
 6585 001c 164E     		ldr	r6, .L414
 6586              	.LBE1210:
 6587              	.LBE1209:
 992:src/main.cpp  ****     out[1+w]='|';out[2+w]='\0';
 6588              		.loc 6 992 13 view .LVU1911
 6589 001e 5A70     		strb	r2, [r3, #1]
 992:src/main.cpp  ****     out[1+w]='|';out[2+w]='\0';
ARM GAS  /tmp/claude-502/ccry90Vn.s 			page 171


 6590              		.loc 6 992 18 is_stmt 1 view .LVU1912
 992:src/main.cpp  ****     out[1+w]='|';out[2+w]='\0';
 6591              		.loc 6 992 26 is_stmt 0 view .LVU1913
 6592 0020 9970     		strb	r1, [r3, #2]
 993:src/main.cpp  ****     for(int slot=0;slot<2;slot++){
 6593              		.loc 6 993 5 is_stmt 1 view .LVU1914
 6594              	.LVL506:
 6595              	.LBB1213:
 993:src/main.cpp  ****     for(int slot=0;slot<2;slot++){
 6596              		.loc 6 993 24 view .LVU1915
 6597              	.LBB1211:
 6598              		.loc 6 994 9 view .LVU1916
 6599 0022 3378     		ldrb	r3, [r6]	@ zero_extendqisi2
 6600 0024 93B1     		cbz	r3, .L404
 995:src/main.cpp  ****         int p=(int)(((int64_t)tracked[slot].pos*(w-1)+500)/1000);
 6601              		.loc 6 995 9 view .LVU1917
 6602              		.loc 6 995 54 is_stmt 0 view .LVU1918
 6603 0026 7268     		ldr	r2, [r6, #4]
 6604              		.loc 6 995 51 view .LVU1919
 6605 0028 631E     		subs	r3, r4, #1
 6606              		.loc 6 995 54 view .LVU1920
 6607 002a 4FF4FA70 		mov	r0, #500
 6608              		.loc 6 995 59 view .LVU1921
 6609 002e C2FB0301 		smlal	r0, r1, r2, r3
 6610 0032 0023     		movs	r3, #0
 6611 0034 4FF47A72 		mov	r2, #1000
 6612 0038 FFF7FEFF 		bl	__aeabi_ldivmod
 6613              	.LVL507:
 996:src/main.cpp  ****         if(p<0)p=0;if(p>=w)p=w-1;
 6614              		.loc 6 996 9 is_stmt 1 view .LVU1922
 6615 003c 20EAE070 		bic	r0, r0, r0, asr #31
 6616              	.LVL508:
 6617              		.loc 6 996 20 view .LVU1923
 997:src/main.cpp  ****         out[1+p]=(char)('1'+slot);
 6618              		.loc 6 997 17 is_stmt 0 view .LVU1924
 6619 0040 3123     		movs	r3, #49
 996:src/main.cpp  ****         if(p<0)p=0;if(p>=w)p=w-1;
 6620              		.loc 6 996 20 view .LVU1925
 6621 0042 8442     		cmp	r4, r0
 6622              		.loc 6 997 14 view .LVU1926
 6623 0044 CCBF     		ite	gt
 6624 0046 0130     		addgt	r0, r0, #1
 6625              	.LVL509:
 996:src/main.cpp  ****         if(p<0)p=0;if(p>=w)p=w-1;
 6626              		.loc 6 996 20 view .LVU1927
 6627 0048 2046     		movle	r0, r4
 6628              		.loc 6 997 9 is_stmt 1 view .LVU1928
 6629              		.loc 6 997 17 is_stmt 0 view .LVU1929
 6630 004a 2B54     		strb	r3, [r5, r0]
 6631              	.L404:
 6632              	.LBE1211:
 993:src/main.cpp  ****         if(!tracked[slot].alive)continue;
 6633              		.loc 6 993 5 is_stmt 1 view .LVU1930
 6634              	.LVL510:
 993:src/main.cpp  ****         if(!tracked[slot].alive)continue;
 6635              		.loc 6 993 24 view .LVU1931
 6636              	.LBB1212:
ARM GAS  /tmp/claude-502/ccry90Vn.s 			page 172


 994:src/main.cpp  ****         int p=(int)(((int64_t)tracked[slot].pos*(w-1)+500)/1000);
 6637              		.loc 6 994 9 view .LVU1932
 6638 004c 337D     		ldrb	r3, [r6, #20]	@ zero_extendqisi2
 6639 004e 93B1     		cbz	r3, .L401
 995:src/main.cpp  ****         if(p<0)p=0;if(p>=w)p=w-1;
 6640              		.loc 6 995 9 view .LVU1933
 995:src/main.cpp  ****         if(p<0)p=0;if(p>=w)p=w-1;
 6641              		.loc 6 995 51 is_stmt 0 view .LVU1934
 6642 0050 631E     		subs	r3, r4, #1
 995:src/main.cpp  ****         if(p<0)p=0;if(p>=w)p=w-1;
 6643              		.loc 6 995 54 view .LVU1935
 6644 0052 B269     		ldr	r2, [r6, #24]
 6645 0054 4FF4FA70 		mov	r0, #500
 6646 0058 0021     		movs	r1, #0
 995:src/main.cpp  ****         if(p<0)p=0;if(p>=w)p=w-1;
 6647              		.loc 6 995 59 view .LVU1936
 6648 005a C2FB0301 		smlal	r0, r1, r2, r3
 6649 005e 0023     		movs	r3, #0
 6650 0060 4FF47A72 		mov	r2, #1000
 6651 0064 FFF7FEFF 		bl	__aeabi_ldivmod
 6652              	.LVL511:
 996:src/main.cpp  ****         out[1+p]=(char)('1'+slot);
 6653              		.loc 6 996 9 is_stmt 1 view .LVU1937
 6654 0068 20EAE070 		bic	r0, r0, r0, asr #31
 6655              	.LVL512:
 996:src/main.cpp  ****         out[1+p]=(char)('1'+slot);
 6656              		.loc 6 996 20 view .LVU1938
 6657              		.loc 6 997 17 is_stmt 0 view .LVU1939
 6658 006c 3223     		movs	r3, #50
 996:src/main.cpp  ****         out[1+p]=(char)('1'+slot);
 6659              		.loc 6 996 20 view .LVU1940
 6660 006e 8442     		cmp	r4, r0
 6661              		.loc 6 997 14 view .LVU1941
 6662 0070 C8BF     		it	gt
 6663 0072 441C     		addgt	r4, r0, #1
 6664              	.LVL513:
 6665              		.loc 6 997 9 is_stmt 1 view .LVU1942
 6666              		.loc 6 997 17 is_stmt 0 view .LVU1943
 6667 0074 2B55     		strb	r3, [r5, r4]
 6668              	.LBE1212:
 993:src/main.cpp  ****         if(!tracked[slot].alive)continue;
 6669              		.loc 6 993 5 is_stmt 1 view .LVU1944
 6670              	.LVL514:
 993:src/main.cpp  ****         if(!tracked[slot].alive)continue;
 6671              		.loc 6 993 24 view .LVU1945
 6672              	.L401:
 993:src/main.cpp  ****         if(!tracked[slot].alive)continue;
 6673              		.loc 6 993 24 is_stmt 0 view .LVU1946
 6674              	.LBE1213:
 998:src/main.cpp  ****     }
 999:src/main.cpp  **** }
 6675              		.loc 6 999 1 view .LVU1947
 6676 0076 70BD     		pop	{r4, r5, r6, pc}
 6677              	.LVL515:
 6678              	.L415:
 6679              		.loc 6 999 1 view .LVU1948
 6680              		.align	2
ARM GAS  /tmp/claude-502/ccry90Vn.s 			page 173


 6681              	.L414:
 6682 0078 00000000 		.word	.LANCHOR48
 6683              		.cfi_endproc
 6684              	.LFE2592:
 6686              		.section	.rodata.main.str1.4,"aMS",%progbits,1
 6687              		.align	2
 6688              	.LC0:
 6689 0000 476C6173 		.ascii	"Glass Moog Synth\000"
 6689      73204D6F 
 6689      6F672053 
 6689      796E7468 
 6689      00
 6690 0011 000000   		.align	2
 6691              	.LC1:
 6692 0014 3D3D3D3D 		.ascii	"================\000"
 6692      3D3D3D3D 
 6692      3D3D3D3D 
 6692      3D3D3D3D 
 6692      00
 6693 0025 000000   		.align	2
 6694              	.LC2:
 6695 0028 566F6963 		.ascii	"Voice %d/%d: %s  (%d-%dHz)\000"
 6695      65202564 
 6695      2F25643A 
 6695      20257320 
 6695      20282564 
 6696 0043 00       		.align	2
 6697              	.LC3:
 6698 0044 46312070 		.ascii	"F1 pos=pitch  F1 prs=cutoff+vibrato\000"
 6698      6F733D70 
 6698      69746368 
 6698      20204631 
 6698      20707273 
 6699              		.align	2
 6700              	.LC4:
 6701 0068 46322070 		.ascii	"F2 pos=detune F2 prs=wavefold+ringmod\000"
 6701      6F733D64 
 6701      6574756E 
 6701      65204632 
 6701      20707273 
 6702 008e 0000     		.align	2
 6703              	.LC5:
 6704 0090 46322070 		.ascii	"F2 prs=wavefold+ringmod (osc2=fixed)\000"
 6704      72733D77 
 6704      61766566 
 6704      6F6C642B 
 6704      72696E67 
 6705 00b5 000000   		.align	2
 6706              	.LC6:
 6707 00b8 486F6C64 		.ascii	"Hold FSR pressed 5s to change voice (then every 2s)"
 6707      20465352 
 6707      20707265 
 6707      73736564 
 6707      20357320 
 6708 00eb 00       		.ascii	"\000"
 6709              		.align	2
 6710              	.LC7:
ARM GAS  /tmp/claude-502/ccry90Vn.s 			page 174


 6711 00ec 4D505231 		.ascii	"MPR121 OK \342\200\224 baseline captured\000"
 6711      3231204F 
 6711      4B20E280 
 6711      94206261 
 6711      73656C69 
 6712              		.align	2
 6713              	.LC8:
 6714 010c 52656164 		.ascii	"Ready.\012\000"
 6714      792E0A00 
 6715              		.align	2
 6716              	.LC9:
 6717 0114 5B766F69 		.ascii	"[voice %d/%d] %s\000"
 6717      63652025 
 6717      642F2564 
 6717      5D202573 
 6717      00
 6718 0125 000000   		.align	2
 6719              	.LC10:
 6720 0128 5B726562 		.ascii	"[rebaseline]\000"
 6720      6173656C 
 6720      696E655D 
 6720      00
 6721 0135 000000   		.align	2
 6722              	.LC11:
 6723 0138 5B667372 		.ascii	"[fsr recal] fsr_max=%d\000"
 6723      20726563 
 6723      616C5D20 
 6723      6673725F 
 6723      6D61783D 
 6724 014f 00       		.align	2
 6725              	.LC12:
 6726 0150 564F4943 		.ascii	"VOICE %d/%d  Drums [Kick|Snare|Tom|Hat]  -> %s\000"
 6726      45202564 
 6726      2F256420 
 6726      20447275 
 6726      6D73205B 
 6727 017f 00       		.align	2
 6728              	.LC13:
 6729 0180 564F4943 		.ascii	"VOICE %d/%d  %s  (%d-%dHz)\000"
 6729      45202564 
 6729      2F256420 
 6729      20257320 
 6729      20282564 
 6730 019b 00       		.align	2
 6731              	.LC14:
 6732 019c 20434820 		.ascii	" CH | DELTA | BAR\000"
 6732      7C204445 
 6732      4C544120 
 6732      7C204241 
 6732      5200
 6733 01ae 0000     		.align	2
 6734              	.LC15:
 6735 01b0 2D2D2D2D 		.ascii	"----+-------+--------------------\000"
 6735      2B2D2D2D 
 6735      2D2D2D2D 
 6735      2B2D2D2D 
 6735      2D2D2D2D 
ARM GAS  /tmp/claude-502/ccry90Vn.s 			page 175


 6736 01d2 0000     		.align	2
 6737              	.LC16:
 6738 01d4 20253264 		.ascii	" %2d | %5d | %s %c\000"
 6738      207C2025 
 6738      3564207C 
 6738      20257320 
 6738      256300
 6739 01e7 00       		.align	2
 6740              	.LC17:
 6741 01e8 0A504F53 		.ascii	"\012POS  %s\000"
 6741      20202573 
 6741      00
 6742 01f1 000000   		.align	2
 6743              	.LC18:
 6744 01f4 20202564 		.ascii	"  %d  pos:%4d  prs:%3d%%  %s\000"
 6744      2020706F 
 6744      733A2534 
 6744      64202070 
 6744      72733A25 
 6745 0211 000000   		.align	2
 6746              	.LC19:
 6747 0214 20202564 		.ascii	"  %d  pos: ---  prs: --%%  [                ]\000"
 6747      2020706F 
 6747      733A202D 
 6747      2D2D2020 
 6747      7072733A 
 6748 0242 0000     		.align	2
 6749              	.LC20:
 6750 0244 20465352 		.ascii	" FSR pressure  %3d%%  %s\000"
 6750      20707265 
 6750      73737572 
 6750      65202025 
 6750      33642525 
 6751 025d 000000   		.align	2
 6752              	.LC21:
 6753 0260 20206672 		.ascii	"  freq:%4dHz  cut:%5dHz  det:%c%d.%ds  fx:%2d%%  vi"
 6753      65713A25 
 6753      3464487A 
 6753      20206375 
 6753      743A2535 
 6754 0293 623A2532 		.ascii	"b:%2d%%\000"
 6754      64252500 
 6755 029b 00       		.align	2
 6756              	.LC22:
 6757 029c 2D2D2D2D 		.ascii	"--------------------------------------------\000"
 6757      2D2D2D2D 
 6757      2D2D2D2D 
 6757      2D2D2D2D 
 6757      2D2D2D2D 
 6758              		.section	.text.startup.main,"ax",%progbits
 6759              		.align	1
 6760              		.p2align 2,,3
 6761              		.global	main
 6762              		.syntax unified
 6763              		.thumb
 6764              		.thumb_func
 6766              	main:
ARM GAS  /tmp/claude-502/ccry90Vn.s 			page 176


 6767              	.LFB2593:
1000:src/main.cpp  **** 
1001:src/main.cpp  **** // ŌöĆŌöĆ Main ŌöĆŌöĆŌöĆŌöĆŌöĆŌöĆŌöĆŌöĆŌöĆŌöĆŌöĆŌöĆŌöĆŌöĆŌöĆŌöĆŌöĆŌöĆŌöĆŌöĆŌöĆŌöĆŌöĆŌöĆŌöĆŌöĆŌöĆŌöĆ
1002:src/main.cpp  **** int main()
1003:src/main.cpp  **** {
 6768              		.loc 6 1003 1 is_stmt 1 view -0
 6769              		.cfi_startproc
 6770              		@ args = 0, pretend = 0, frame = 320
 6771              		@ frame_needed = 0, uses_anonymous_args = 0
1004:src/main.cpp  ****     hw.Init();
 6772              		.loc 6 1004 5 view .LVU1950
1003:src/main.cpp  ****     hw.Init();
 6773              		.loc 6 1003 1 is_stmt 0 view .LVU1951
 6774 0000 2DE9F04F 		push	{r4, r5, r6, r7, r8, r9, r10, fp, lr}
 6775              		.cfi_def_cfa_offset 36
 6776              		.cfi_offset 4, -36
 6777              		.cfi_offset 5, -32
 6778              		.cfi_offset 6, -28
 6779              		.cfi_offset 7, -24
 6780              		.cfi_offset 8, -20
 6781              		.cfi_offset 9, -16
 6782              		.cfi_offset 10, -12
 6783              		.cfi_offset 11, -8
 6784              		.cfi_offset 14, -4
 6785              		.loc 6 1004 12 view .LVU1952
 6786 0004 0021     		movs	r1, #0
 6787 0006 9248     		ldr	r0, .L704
 6788              	.LBB1365:
 6789              	.LBB1366:
 443:src/main.cpp  **** inline void sda_low() {sda.Init(SDA_PIN,GPIO::Mode::OUTPUT,GPIO::Pull::NOPULL);sda.Write(false);}
 6790              		.loc 6 443 32 view .LVU1953
 6791 0008 0024     		movs	r4, #0
 6792              	.LBE1366:
 6793              	.LBE1365:
1003:src/main.cpp  ****     hw.Init();
 6794              		.loc 6 1003 1 view .LVU1954
 6795 000a 2DED0C8B 		vpush.64	{d8, d9, d10, d11, d12, d13}
 6796              		.cfi_def_cfa_offset 84
 6797              		.cfi_offset 80, -84
 6798              		.cfi_offset 81, -80
 6799              		.cfi_offset 82, -76
 6800              		.cfi_offset 83, -72
 6801              		.cfi_offset 84, -68
 6802              		.cfi_offset 85, -64
 6803              		.cfi_offset 86, -60
 6804              		.cfi_offset 87, -56
 6805              		.cfi_offset 88, -52
 6806              		.cfi_offset 89, -48
 6807              		.cfi_offset 90, -44
 6808              		.cfi_offset 91, -40
 6809 000e D5B0     		sub	sp, sp, #340
 6810              		.cfi_def_cfa_offset 424
 6811              		.loc 6 1004 12 view .LVU1955
 6812 0010 FFF7FEFF 		bl	_ZN5daisy9DaisySeed4InitEb
 6813              	.LVL516:
1005:src/main.cpp  ****     hw.SetAudioBlockSize(4);
 6814              		.loc 6 1005 5 is_stmt 1 view .LVU1956
ARM GAS  /tmp/claude-502/ccry90Vn.s 			page 177


 6815              		.loc 6 1005 25 is_stmt 0 view .LVU1957
 6816 0014 0421     		movs	r1, #4
 6817 0016 8E48     		ldr	r0, .L704
 6818 0018 FFF7FEFF 		bl	_ZN5daisy9DaisySeed17SetAudioBlockSizeEj
 6819              	.LVL517:
1006:src/main.cpp  **** 
1007:src/main.cpp  ****     // Power-on grace period so the lid can be closed before baseline capture.
1008:src/main.cpp  ****     System::Delay(5000);
 6820              		.loc 6 1008 5 is_stmt 1 view .LVU1958
 6821              		.loc 6 1008 18 is_stmt 0 view .LVU1959
 6822 001c 41F28830 		movw	r0, #5000
 6823 0020 FFF7FEFF 		bl	_ZN5daisy6System5DelayEm
 6824              	.LVL518:
1009:src/main.cpp  **** 
1010:src/main.cpp  ****     // ŌöĆŌöĆ I2C pins + MPR121 init BEFORE audio starts ŌöĆŌöĆŌöĆŌöĆŌöĆŌöĆŌöĆŌöĆŌöĆŌöĆŌöĆŌöĆŌöĆŌöĆ
1011:src/main.cpp  ****     // The audio ISR firing during bit-bang I2C corrupts I2C timing.
1012:src/main.cpp  ****     // Do all sensor work first, then start the audio engine.
1013:src/main.cpp  ****     sda_high();
 6825              		.loc 6 1013 5 is_stmt 1 view .LVU1960
 6826              	.LBB1368:
 6827              	.LBI1365:
 443:src/main.cpp  **** inline void sda_low() {sda.Init(SDA_PIN,GPIO::Mode::OUTPUT,GPIO::Pull::NOPULL);sda.Write(false);}
 6828              		.loc 6 443 13 view .LVU1961
 6829              	.LBB1367:
 443:src/main.cpp  **** inline void sda_low() {sda.Init(SDA_PIN,GPIO::Mode::OUTPUT,GPIO::Pull::NOPULL);sda.Write(false);}
 6830              		.loc 6 443 24 view .LVU1962
 443:src/main.cpp  **** inline void sda_low() {sda.Init(SDA_PIN,GPIO::Mode::OUTPUT,GPIO::Pull::NOPULL);sda.Write(false);}
 6831              		.loc 6 443 32 is_stmt 0 view .LVU1963
 6832 0024 8B49     		ldr	r1, .L704+4
 6833 0026 0123     		movs	r3, #1
 6834 0028 2246     		mov	r2, r4
 6835 002a 0968     		ldr	r1, [r1]
 6836 002c 8A48     		ldr	r0, .L704+8
 6837 002e 0094     		str	r4, [sp]
 6838 0030 FFF7FEFF 		bl	_ZN5daisy4GPIO4InitENS_3PinENS0_4ModeENS0_4PullENS0_5SpeedE
 6839              	.LVL519:
 6840              	.LBE1367:
 6841              	.LBE1368:
1014:src/main.cpp  ****     scl_high();
 6842              		.loc 6 1014 5 is_stmt 1 view .LVU1964
 6843              	.LBB1369:
 6844              	.LBI1369:
 445:src/main.cpp  **** inline void scl_low() {scl.Init(SCL_PIN,GPIO::Mode::OUTPUT,GPIO::Pull::NOPULL);scl.Write(false);}
 6845              		.loc 6 445 13 view .LVU1965
 6846              	.LBB1370:
 445:src/main.cpp  **** inline void scl_low() {scl.Init(SCL_PIN,GPIO::Mode::OUTPUT,GPIO::Pull::NOPULL);scl.Write(false);}
 6847              		.loc 6 445 24 view .LVU1966
 445:src/main.cpp  **** inline void scl_low() {scl.Init(SCL_PIN,GPIO::Mode::OUTPUT,GPIO::Pull::NOPULL);scl.Write(false);}
 6848              		.loc 6 445 32 is_stmt 0 view .LVU1967
 6849 0034 8949     		ldr	r1, .L704+12
 6850 0036 0123     		movs	r3, #1
 6851 0038 2246     		mov	r2, r4
 6852 003a 0968     		ldr	r1, [r1]
 6853 003c 8848     		ldr	r0, .L704+16
 6854 003e 0094     		str	r4, [sp]
 6855 0040 FFF7FEFF 		bl	_ZN5daisy4GPIO4InitENS_3PinENS0_4ModeENS0_4PullENS0_5SpeedE
 6856              	.LVL520:
ARM GAS  /tmp/claude-502/ccry90Vn.s 			page 178


 6857              	.LBE1370:
 6858              	.LBE1369:
1015:src/main.cpp  **** 
1016:src/main.cpp  ****     uint16_t baseline[N_CH];
 6859              		.loc 6 1016 5 is_stmt 1 view .LVU1968
1017:src/main.cpp  ****     if(mpr_init())
 6860              		.loc 6 1017 5 view .LVU1969
 6861              		.loc 6 1017 16 is_stmt 0 view .LVU1970
 6862 0044 FFF7FEFF 		bl	_Z8mpr_initv
 6863              	.LVL521:
1018:src/main.cpp  ****     {
1019:src/main.cpp  ****         System::Delay(300);
1020:src/main.cpp  ****         capture_baseline(baseline);
 6864              		.loc 6 1020 25 view .LVU1971
 6865 0048 17AB     		add	r3, sp, #92
1017:src/main.cpp  ****     if(mpr_init())
 6866              		.loc 6 1017 5 view .LVU1972
 6867 004a 0028     		cmp	r0, #0
 6868 004c 41F02281 		bne	.L653
 6869 0050 0893     		str	r3, [sp, #32]
 6870              	.L417:
1021:src/main.cpp  ****     }
1022:src/main.cpp  ****     // If MPR121 fails we still start audio so the problem is audible (silence)
1023:src/main.cpp  **** 
1024:src/main.cpp  ****     // ŌöĆŌöĆ DAC LEDs (pin 30 = DAC1, pin 31 = DAC2) + PWM LED (A0 = pin 22) ŌöĆŌöĆŌöĆŌöĆŌöĆŌöĆ
1025:src/main.cpp  ****     DacHandle::Config dac_cfg;
 6871              		.loc 6 1025 5 is_stmt 1 view .LVU1973
1026:src/main.cpp  ****     dac_cfg.bitdepth   = DacHandle::BitDepth::BITS_12;
 6872              		.loc 6 1026 5 view .LVU1974
1027:src/main.cpp  ****     dac_cfg.buff_state = DacHandle::BufferState::ENABLED;
 6873              		.loc 6 1027 24 is_stmt 0 view .LVU1975
 6874 0052 0024     		movs	r4, #0
1026:src/main.cpp  ****     dac_cfg.bitdepth   = DacHandle::BitDepth::BITS_12;
 6875              		.loc 6 1026 24 view .LVU1976
 6876 0054 0125     		movs	r5, #1
1028:src/main.cpp  ****     dac_cfg.mode       = DacHandle::Mode::POLLING;
1029:src/main.cpp  ****     dac_cfg.chn        = DacHandle::Channel::BOTH;
 6877              		.loc 6 1029 24 view .LVU1977
 6878 0056 0226     		movs	r6, #2
1030:src/main.cpp  ****     hw.dac.Init(dac_cfg);
 6879              		.loc 6 1030 16 view .LVU1978
 6880 0058 12A9     		add	r1, sp, #72
 6881 005a 8248     		ldr	r0, .L704+20
1029:src/main.cpp  ****     hw.dac.Init(dac_cfg);
 6882              		.loc 6 1029 24 view .LVU1979
 6883 005c 1396     		str	r6, [sp, #76]
1027:src/main.cpp  ****     dac_cfg.mode       = DacHandle::Mode::POLLING;
 6884              		.loc 6 1027 24 view .LVU1980
 6885 005e 1694     		str	r4, [sp, #88]
1026:src/main.cpp  ****     dac_cfg.buff_state = DacHandle::BufferState::ENABLED;
 6886              		.loc 6 1026 24 view .LVU1981
 6887 0060 CDE91445 		strd	r4, r5, [sp, #80]
1027:src/main.cpp  ****     dac_cfg.mode       = DacHandle::Mode::POLLING;
 6888              		.loc 6 1027 5 is_stmt 1 view .LVU1982
1028:src/main.cpp  ****     dac_cfg.chn        = DacHandle::Channel::BOTH;
 6889              		.loc 6 1028 5 view .LVU1983
1029:src/main.cpp  ****     hw.dac.Init(dac_cfg);
ARM GAS  /tmp/claude-502/ccry90Vn.s 			page 179


 6890              		.loc 6 1029 5 view .LVU1984
 6891              		.loc 6 1030 5 view .LVU1985
 6892              		.loc 6 1030 16 is_stmt 0 view .LVU1986
 6893 0064 FFF7FEFF 		bl	_ZN5daisy9DacHandle4InitERKNS0_6ConfigE
 6894              	.LVL522:
1031:src/main.cpp  ****     hw.dac.WriteValue(DacHandle::Channel::BOTH, 0);
 6895              		.loc 6 1031 5 is_stmt 1 view .LVU1987
 6896              		.loc 6 1031 22 is_stmt 0 view .LVU1988
 6897 0068 3146     		mov	r1, r6
 6898 006a 2246     		mov	r2, r4
 6899 006c 7D48     		ldr	r0, .L704+20
 6900 006e FFF7FEFF 		bl	_ZN5daisy9DacHandle10WriteValueENS0_7ChannelEt
 6901              	.LVL523:
1032:src/main.cpp  **** 
1033:src/main.cpp  ****     led3.Init(seed::A0, GPIO::Mode::OUTPUT, GPIO::Pull::NOPULL);
 6902              		.loc 6 1033 5 is_stmt 1 view .LVU1989
 6903              		.loc 6 1033 14 is_stmt 0 view .LVU1990
 6904 0072 7D4B     		ldr	r3, .L704+24
 6905 0074 2A46     		mov	r2, r5
 6906 0076 7D48     		ldr	r0, .L704+28
 6907 0078 1968     		ldr	r1, [r3]
 6908 007a 2346     		mov	r3, r4
 6909 007c 0094     		str	r4, [sp]
 6910 007e FFF7FEFF 		bl	_ZN5daisy4GPIO4InitENS_3PinENS0_4ModeENS0_4PullENS0_5SpeedE
 6911              	.LVL524:
1034:src/main.cpp  ****     led3.Write(false);
 6912              		.loc 6 1034 5 is_stmt 1 view .LVU1991
 6913              		.loc 6 1034 15 is_stmt 0 view .LVU1992
 6914 0082 2146     		mov	r1, r4
 6915 0084 7948     		ldr	r0, .L704+28
 6916 0086 FFF7FEFF 		bl	_ZN5daisy4GPIO5WriteEb
 6917              	.LVL525:
1035:src/main.cpp  **** 
1036:src/main.cpp  ****     // ŌöĆŌöĆ FSR (A1 / ADC1) ŌöĆŌöĆŌöĆŌöĆŌöĆŌöĆŌöĆŌöĆŌöĆŌöĆŌöĆŌöĆŌöĆŌöĆŌöĆŌöĆŌöĆŌöĆŌöĆŌöĆŌöĆŌöĆŌöĆ
1037:src/main.cpp  ****     // Wired so unpressed reads ~max (3.3V). Press pulls ADC down. Fixed
1038:src/main.cpp  ****     // thresholds: raw Ōēż FSR_MIN ŌåÆ 0%, raw Ōēź FSR_MAX ŌåÆ 100%, linear between.
1039:src/main.cpp  ****     AdcChannelConfig fsr_cfg;
 6918              		.loc 6 1039 5 is_stmt 1 view .LVU1993
1040:src/main.cpp  ****     fsr_cfg.InitSingle(seed::A1);
 6919              		.loc 6 1040 5 view .LVU1994
 6920              		.loc 6 1040 23 is_stmt 0 view .LVU1995
 6921 008a 0323     		movs	r3, #3
 6922 008c 8DF83040 		strb	r4, [sp, #48]
 6923 0090 3246     		mov	r2, r6
 6924 0092 8DF83130 		strb	r3, [sp, #49]
 6925 0096 0DA8     		add	r0, sp, #52
 6926 0098 0C99     		ldr	r1, [sp, #48]
 6927 009a FFF7FEFF 		bl	_ZN5daisy16AdcChannelConfig10InitSingleE12dsy_gpio_pinNS0_15ConversionSpeedE
 6928              	.LVL526:
1041:src/main.cpp  ****     hw.adc.Init(&fsr_cfg, 1);
 6929              		.loc 6 1041 5 is_stmt 1 view .LVU1996
 6930              		.loc 6 1041 16 is_stmt 0 view .LVU1997
 6931 009e 2A46     		mov	r2, r5
 6932 00a0 0423     		movs	r3, #4
 6933 00a2 0DA9     		add	r1, sp, #52
 6934 00a4 7248     		ldr	r0, .L704+32
 6935              	.LBB1371:
ARM GAS  /tmp/claude-502/ccry90Vn.s 			page 180


 6936              	.LBB1372:
 6937              	.LBB1373:
1042:src/main.cpp  ****     hw.adc.Start();
1043:src/main.cpp  **** 
1044:src/main.cpp  ****     constexpr uint16_t FSR_MIN       = 8000;
1045:src/main.cpp  ****     uint16_t           fsr_max       = 55000;
1046:src/main.cpp  ****     float              fsr_range_inv = 1.0f / (float)(fsr_max - FSR_MIN);
1047:src/main.cpp  **** 
1048:src/main.cpp  ****     auto commit_fsr_avg = [&](uint32_t acc, int n) {
1049:src/main.cpp  ****         if(n == 0) return;
1050:src/main.cpp  ****         uint16_t avg = (uint16_t)(acc / n);
1051:src/main.cpp  ****         // Sanity floor ŌĆö without enough headroom over FSR_MIN the volume curve
1052:src/main.cpp  ****         // becomes hyper-sensitive to noise.
1053:src/main.cpp  ****         if(avg < FSR_MIN + 500) avg = FSR_MIN + 500;
1054:src/main.cpp  ****         fsr_max       = avg;
1055:src/main.cpp  ****         fsr_range_inv = 1.0f / (float)(fsr_max - FSR_MIN);
1056:src/main.cpp  ****     };
1057:src/main.cpp  **** 
1058:src/main.cpp  ****     // Startup calibration: 2 s silent FSR average ŌåÆ fsr_max.
1059:src/main.cpp  ****     auto calibrate_fsr_silent = [&]() {
1060:src/main.cpp  ****         uint32_t start = System::GetNow();
1061:src/main.cpp  ****         uint32_t acc = 0; int n = 0;
 6938              		.loc 6 1061 18 view .LVU1998
 6939 00a6 2546     		mov	r5, r4
 6940              	.LBE1373:
 6941              	.LBE1372:
 6942              	.LBE1371:
1041:src/main.cpp  ****     hw.adc.Init(&fsr_cfg, 1);
 6943              		.loc 6 1041 16 view .LVU1999
 6944 00a8 FFF7FEFF 		bl	_ZN5daisy9AdcHandle4InitEPNS_16AdcChannelConfigEjNS0_12OverSamplingE
 6945              	.LVL527:
1042:src/main.cpp  ****     hw.adc.Start();
 6946              		.loc 6 1042 5 is_stmt 1 view .LVU2000
1042:src/main.cpp  ****     hw.adc.Start();
 6947              		.loc 6 1042 17 is_stmt 0 view .LVU2001
 6948 00ac 7048     		ldr	r0, .L704+32
 6949 00ae FFF7FEFF 		bl	_ZN5daisy9AdcHandle5StartEv
 6950              	.LVL528:
1044:src/main.cpp  ****     uint16_t           fsr_max       = 55000;
 6951              		.loc 6 1044 5 is_stmt 1 view .LVU2002
1045:src/main.cpp  ****     float              fsr_range_inv = 1.0f / (float)(fsr_max - FSR_MIN);
 6952              		.loc 6 1045 5 view .LVU2003
1046:src/main.cpp  **** 
 6953              		.loc 6 1046 5 view .LVU2004
1048:src/main.cpp  ****         if(n == 0) return;
 6954              		.loc 6 1048 5 view .LVU2005
1059:src/main.cpp  ****         uint32_t start = System::GetNow();
 6955              		.loc 6 1059 5 view .LVU2006
1062:src/main.cpp  ****         while(System::GetNow() - start < 2000) {
1063:src/main.cpp  ****             acc += hw.adc.Get(0);
1064:src/main.cpp  ****             n++;
1065:src/main.cpp  ****             System::Delay(10);
1066:src/main.cpp  ****         }
1067:src/main.cpp  ****         commit_fsr_avg(acc, n);
1068:src/main.cpp  ****     };
1069:src/main.cpp  **** 
1070:src/main.cpp  ****     // Idle behaviour: sweep a virtual position 0ŌåÆ1000ŌåÆ0 through the same
ARM GAS  /tmp/claude-502/ccry90Vn.s 			page 181


1071:src/main.cpp  ****     // LED-tent math as the pitch mapping (LED2=pos 0, LED1=middle, LED3=pos 1),
1072:src/main.cpp  ****     // recalibrate fsr_max during the first 2 s, then keep sweeping until any
1073:src/main.cpp  ****     // electrode crosses TOUCH_THRESHOLD.
1074:src/main.cpp  ****     auto idle_chase_and_calibrate = [&]() {
 6956              		.loc 6 1074 5 view .LVU2007
1075:src/main.cpp  ****         uint32_t start = System::GetNow();
1076:src/main.cpp  ****         uint32_t acc = 0; int n = 0;
1077:src/main.cpp  ****         bool     calibrated = false;
1078:src/main.cpp  ****         constexpr uint32_t SWEEP_PERIOD_MS = 12000;  // one 0ŌåÆ1ŌåÆ0 cycle
1079:src/main.cpp  ****         constexpr float    TAU             = 6.2831853f;
1080:src/main.cpp  ****         uint16_t scan[N_CH];
1081:src/main.cpp  **** 
1082:src/main.cpp  ****         while(true) {
1083:src/main.cpp  ****             uint32_t elapsed = System::GetNow() - start;
1084:src/main.cpp  **** 
1085:src/main.cpp  ****             // Sinusoidal position 0ŌåÆ1ŌåÆ0 over SWEEP_PERIOD_MS ŌĆö eases at the
1086:src/main.cpp  ****             // endpoints so the reversal is gentle instead of a triangle kink.
1087:src/main.cpp  ****             float phase = (float)(elapsed % SWEEP_PERIOD_MS) / (float)SWEEP_PERIOD_MS;
1088:src/main.cpp  ****             float p01   = 0.5f * (1.0f - cosf(phase * TAU));
1089:src/main.cpp  **** 
1090:src/main.cpp  ****             // Same tent + gamma-0.25 math as the pitch LED mapping.
1091:src/main.cpp  ****             float l1_raw = 1.0f - 2.0f * p01;                 if(l1_raw < 0) l1_raw = 0;
1092:src/main.cpp  ****             float l3_raw = 2.0f * p01 - 1.0f;                 if(l3_raw < 0) l3_raw = 0;
1093:src/main.cpp  ****             float l2_raw = 1.0f - 2.0f * fabsf(p01 - 0.5f);   if(l2_raw < 0) l2_raw = 0;
1094:src/main.cpp  ****             float led1   = sqrtf(sqrtf(l2_raw));              // middle (DAC1)
1095:src/main.cpp  ****             float led2   = sqrtf(sqrtf(l1_raw));              // pos 0  (DAC2)
1096:src/main.cpp  ****             float led3   = sqrtf(sqrtf(l3_raw)) * LED3_INTENSITY; // pos 1 (PWM A0)
1097:src/main.cpp  ****             hw.dac.WriteValue(DacHandle::Channel::ONE, (uint16_t)(led1 * 4095.0f));
1098:src/main.cpp  ****             hw.dac.WriteValue(DacHandle::Channel::TWO, (uint16_t)(led2 * 4095.0f));
1099:src/main.cpp  ****             g_led3_duty = led3;
1100:src/main.cpp  **** 
1101:src/main.cpp  ****             // FSR calibration window: first 2 s only.
1102:src/main.cpp  ****             if(!calibrated) {
1103:src/main.cpp  ****                 acc += hw.adc.Get(0);
1104:src/main.cpp  ****                 n++;
1105:src/main.cpp  ****                 if(elapsed >= 2000) {
1106:src/main.cpp  ****                     commit_fsr_avg(acc, n);
1107:src/main.cpp  ****                     calibrated = true;
1108:src/main.cpp  ****                 }
1109:src/main.cpp  ****             }
1110:src/main.cpp  **** 
1111:src/main.cpp  ****             // Exit on any touch.
1112:src/main.cpp  ****             read_electrodes(scan);
1113:src/main.cpp  ****             int32_t max_d = 0;
1114:src/main.cpp  ****             for(int i = 0; i < N_CH; i++) {
1115:src/main.cpp  ****                 int32_t d = (int32_t)baseline[i] - (int32_t)scan[i];
1116:src/main.cpp  ****                 if(d > max_d) max_d = d;
1117:src/main.cpp  ****             }
1118:src/main.cpp  ****             if(max_d >= TOUCH_THRESHOLD) break;
1119:src/main.cpp  **** 
1120:src/main.cpp  ****             System::Delay(10);
1121:src/main.cpp  ****         }
1122:src/main.cpp  **** 
1123:src/main.cpp  ****         // Clean handoff back to the main loop's LED writer.
1124:src/main.cpp  ****         hw.dac.WriteValue(DacHandle::Channel::ONE, 0);
1125:src/main.cpp  ****         hw.dac.WriteValue(DacHandle::Channel::TWO, 0);
1126:src/main.cpp  ****         g_led3_duty = 0.0f;
ARM GAS  /tmp/claude-502/ccry90Vn.s 			page 182


1127:src/main.cpp  ****     };
1128:src/main.cpp  **** 
1129:src/main.cpp  ****     calibrate_fsr_silent();
 6957              		.loc 6 1129 5 view .LVU2008
 6958              	.LBB1382:
 6959              	.LBI1371:
1059:src/main.cpp  ****         uint32_t start = System::GetNow();
 6960              		.loc 6 1059 33 view .LVU2009
 6961              	.LBB1381:
 6962              	.LBB1380:
1060:src/main.cpp  ****         uint32_t acc = 0; int n = 0;
 6963              		.loc 6 1060 9 view .LVU2010
1060:src/main.cpp  ****         uint32_t acc = 0; int n = 0;
 6964              		.loc 6 1060 40 is_stmt 0 view .LVU2011
 6965 00b2 FFF7FEFF 		bl	_ZN5daisy6System6GetNowEv
 6966              	.LVL529:
 6967 00b6 0646     		mov	r6, r0
 6968              	.LVL530:
1061:src/main.cpp  ****         while(System::GetNow() - start < 2000) {
 6969              		.loc 6 1061 9 is_stmt 1 view .LVU2012
1061:src/main.cpp  ****         while(System::GetNow() - start < 2000) {
 6970              		.loc 6 1061 27 view .LVU2013
1061:src/main.cpp  ****         while(System::GetNow() - start < 2000) {
 6971              		.loc 6 1061 27 is_stmt 0 view .LVU2014
 6972 00b8 07E0     		b	.L419
 6973              	.LVL531:
 6974              	.L678:
1063:src/main.cpp  ****             n++;
 6975              		.loc 6 1063 30 view .LVU2015
 6976 00ba FFF7FEFF 		bl	_ZNK5daisy9AdcHandle3GetEh
 6977              	.LVL532:
 6978 00be 0346     		mov	r3, r0
1065:src/main.cpp  ****         }
 6979              		.loc 6 1065 26 view .LVU2016
 6980 00c0 0A20     		movs	r0, #10
1064:src/main.cpp  ****             System::Delay(10);
 6981              		.loc 6 1064 14 view .LVU2017
 6982 00c2 0134     		adds	r4, r4, #1
 6983              	.LVL533:
1063:src/main.cpp  ****             n++;
 6984              		.loc 6 1063 17 view .LVU2018
 6985 00c4 1D44     		add	r5, r5, r3
 6986              	.LVL534:
1064:src/main.cpp  ****             System::Delay(10);
 6987              		.loc 6 1064 13 is_stmt 1 view .LVU2019
1065:src/main.cpp  ****         }
 6988              		.loc 6 1065 13 view .LVU2020
1065:src/main.cpp  ****         }
 6989              		.loc 6 1065 26 is_stmt 0 view .LVU2021
 6990 00c6 FFF7FEFF 		bl	_ZN5daisy6System5DelayEm
 6991              	.LVL535:
 6992              	.L419:
1062:src/main.cpp  ****             acc += hw.adc.Get(0);
 6993              		.loc 6 1062 9 is_stmt 1 view .LVU2022
1062:src/main.cpp  ****             acc += hw.adc.Get(0);
 6994              		.loc 6 1062 40 view .LVU2023
1062:src/main.cpp  ****             acc += hw.adc.Get(0);
ARM GAS  /tmp/claude-502/ccry90Vn.s 			page 183


 6995              		.loc 6 1062 29 is_stmt 0 view .LVU2024
 6996 00ca FFF7FEFF 		bl	_ZN5daisy6System6GetNowEv
 6997              	.LVL536:
1063:src/main.cpp  ****             n++;
 6998              		.loc 6 1063 13 is_stmt 1 view .LVU2025
1062:src/main.cpp  ****             acc += hw.adc.Get(0);
 6999              		.loc 6 1062 29 is_stmt 0 view .LVU2026
 7000 00ce 0346     		mov	r3, r0
1063:src/main.cpp  ****             n++;
 7001              		.loc 6 1063 30 view .LVU2027
 7002 00d0 0021     		movs	r1, #0
 7003 00d2 6748     		ldr	r0, .L704+32
1062:src/main.cpp  ****             acc += hw.adc.Get(0);
 7004              		.loc 6 1062 32 view .LVU2028
 7005 00d4 9B1B     		subs	r3, r3, r6
1062:src/main.cpp  ****             acc += hw.adc.Get(0);
 7006              		.loc 6 1062 40 view .LVU2029
 7007 00d6 B3F5FA6F 		cmp	r3, #2000
 7008 00da EED3     		bcc	.L678
1067:src/main.cpp  ****     };
 7009              		.loc 6 1067 9 is_stmt 1 view .LVU2030
 7010              	.LVL537:
 7011              	.LBB1374:
 7012              	.LBI1374:
1048:src/main.cpp  ****         if(n == 0) return;
 7013              		.loc 6 1048 27 view .LVU2031
 7014              	.LBB1375:
 7015              	.LBB1376:
1049:src/main.cpp  ****         uint16_t avg = (uint16_t)(acc / n);
 7016              		.loc 6 1049 9 view .LVU2032
 7017 00dc 002C     		cmp	r4, #0
 7018 00de 01F0E480 		beq	.L564
 7019              	.LVL538:
1049:src/main.cpp  ****         uint16_t avg = (uint16_t)(acc / n);
 7020              		.loc 6 1049 9 is_stmt 0 view .LVU2033
 7021              	.LBE1376:
 7022              	.LBB1377:
 7023              	.LBI1377:
1048:src/main.cpp  ****         if(n == 0) return;
 7024              		.loc 6 1048 27 is_stmt 1 view .LVU2034
 7025              	.LBB1378:
 7026              	.LBB1379:
1050:src/main.cpp  ****         // Sanity floor ŌĆö without enough headroom over FSR_MIN the volume curve
 7027              		.loc 6 1050 9 view .LVU2035
 7028 00e2 42F23412 		movw	r2, #8500
1055:src/main.cpp  ****     };
 7029              		.loc 6 1055 30 is_stmt 0 view .LVU2036
 7030 00e6 B7EE007A 		vmov.f32	s14, #1.0e+0
1050:src/main.cpp  ****         // Sanity floor ŌĆö without enough headroom over FSR_MIN the volume curve
 7031              		.loc 6 1050 39 view .LVU2037
 7032 00ea B5FBF4F4 		udiv	r4, r5, r4
 7033              	.LVL539:
1050:src/main.cpp  ****         // Sanity floor ŌĆö without enough headroom over FSR_MIN the volume curve
 7034              		.loc 6 1050 18 view .LVU2038
 7035 00ee A3B2     		uxth	r3, r4
 7036              	.LVL540:
1053:src/main.cpp  ****         fsr_max       = avg;
ARM GAS  /tmp/claude-502/ccry90Vn.s 			page 184


 7037              		.loc 6 1053 9 is_stmt 1 view .LVU2039
 7038 00f0 9342     		cmp	r3, r2
 7039 00f2 38BF     		it	cc
 7040 00f4 1346     		movcc	r3, r2
 7041              	.LVL541:
1053:src/main.cpp  ****         fsr_max       = avg;
 7042              		.loc 6 1053 9 is_stmt 0 view .LVU2040
 7043 00f6 0A93     		str	r3, [sp, #40]
 7044              	.LVL542:
1054:src/main.cpp  ****         fsr_range_inv = 1.0f / (float)(fsr_max - FSR_MIN);
 7045              		.loc 6 1054 9 is_stmt 1 view .LVU2041
1055:src/main.cpp  ****     };
 7046              		.loc 6 1055 9 view .LVU2042
1055:src/main.cpp  ****     };
 7047              		.loc 6 1055 48 is_stmt 0 view .LVU2043
 7048 00f8 A3F5FA53 		sub	r3, r3, #8000
 7049              	.LVL543:
1055:src/main.cpp  ****     };
 7050              		.loc 6 1055 48 view .LVU2044
 7051 00fc 07EE903A 		vmov	s15, r3	@ int
1055:src/main.cpp  ****     };
 7052              		.loc 6 1055 32 view .LVU2045
 7053 0100 F8EEE77A 		vcvt.f32.s32	s15, s15
1055:src/main.cpp  ****     };
 7054              		.loc 6 1055 30 view .LVU2046
 7055 0104 C7EE27BA 		vdiv.f32	s23, s14, s15
 7056              	.LVL544:
 7057              	.L420:
1055:src/main.cpp  ****     };
 7058              		.loc 6 1055 30 view .LVU2047
 7059              	.LBE1379:
 7060              	.LBE1378:
 7061              	.LBE1377:
 7062              	.LBE1375:
 7063              	.LBE1374:
 7064              	.LBE1380:
 7065              	.LBE1381:
 7066              	.LBE1382:
1130:src/main.cpp  **** 
1131:src/main.cpp  ****     // Boot-voice snapshot for the startup banner / initial targets. The main
1132:src/main.cpp  ****     // loop rebinds its own `VOICE` each frame so it always reflects the current
1133:src/main.cpp  ****     // voice index (which the FSR gesture can change live).
1134:src/main.cpp  ****     const Voice& VOICE = VOICES[g_voice_idx];
 7067              		.loc 6 1134 5 is_stmt 1 view .LVU2048
 7068              		.loc 6 1134 33 is_stmt 0 view .LVU2049
 7069 0108 5A4B     		ldr	r3, .L704+36
1135:src/main.cpp  **** 
1136:src/main.cpp  ****     // ŌöĆŌöĆ Start audio ŌöĆŌöĆŌöĆŌöĆŌöĆŌöĆŌöĆŌöĆŌöĆŌöĆŌöĆŌöĆŌöĆŌöĆŌöĆŌöĆŌöĆŌöĆŌöĆŌöĆŌöĆŌöĆŌöĆŌöĆŌ
1137:src/main.cpp  ****     // Set initial targets before callback fires (voice-relative starting pitch)
1138:src/main.cpp  ****     g_target_freq   = VOICE.freq_low * 2.0f;
1139:src/main.cpp  ****     g_target_cutoff = 100.0f;
1140:src/main.cpp  ****     g_amp_target    = 0.0f;
 7070              		.loc 6 1140 21 view .LVU2050
 7071 010a 0026     		movs	r6, #0
1138:src/main.cpp  ****     g_target_cutoff = 100.0f;
 7072              		.loc 6 1138 29 view .LVU2051
 7073 010c 5A49     		ldr	r1, .L704+40
ARM GAS  /tmp/claude-502/ccry90Vn.s 			page 185


1134:src/main.cpp  **** 
 7074              		.loc 6 1134 33 view .LVU2052
 7075 010e 1B68     		ldr	r3, [r3]
 7076              	.LVL545:
1138:src/main.cpp  ****     g_target_cutoff = 100.0f;
 7077              		.loc 6 1138 5 is_stmt 1 view .LVU2053
1138:src/main.cpp  ****     g_target_cutoff = 100.0f;
 7078              		.loc 6 1138 21 is_stmt 0 view .LVU2054
 7079 0110 5A48     		ldr	r0, .L704+44
1138:src/main.cpp  ****     g_target_cutoff = 100.0f;
 7080              		.loc 6 1138 29 view .LVU2055
 7081 0112 C3EB4313 		rsb	r3, r3, r3, lsl #5
 7082              	.LVL546:
 7083              		.loc 6 1140 21 view .LVU2056
 7084 0116 5A4F     		ldr	r7, .L704+48
1138:src/main.cpp  ****     g_target_cutoff = 100.0f;
 7085              		.loc 6 1138 29 view .LVU2057
 7086 0118 01EB8304 		add	r4, r1, r3, lsl #2
1141:src/main.cpp  ****     hw.StartAudio(AudioCallback);
 7087              		.loc 6 1141 18 view .LVU2058
 7088 011c 5949     		ldr	r1, .L704+52
1138:src/main.cpp  ****     g_target_cutoff = 100.0f;
 7089              		.loc 6 1138 29 view .LVU2059
 7090 011e 9D00     		lsls	r5, r3, #2
1139:src/main.cpp  ****     g_amp_target    = 0.0f;
 7091              		.loc 6 1139 21 view .LVU2060
 7092 0120 594B     		ldr	r3, .L704+56
1138:src/main.cpp  ****     g_target_cutoff = 100.0f;
 7093              		.loc 6 1138 29 view .LVU2061
 7094 0122 94ED018A 		vldr.32	s16, [r4, #4]
1138:src/main.cpp  ****     g_target_cutoff = 100.0f;
 7095              		.loc 6 1138 38 view .LVU2062
 7096 0126 78EE087A 		vadd.f32	s15, s16, s16
1138:src/main.cpp  ****     g_target_cutoff = 100.0f;
 7097              		.loc 6 1138 21 view .LVU2063
 7098 012a C0ED007A 		vstr.32	s15, [r0]
1139:src/main.cpp  ****     g_amp_target    = 0.0f;
 7099              		.loc 6 1139 5 is_stmt 1 view .LVU2064
1139:src/main.cpp  ****     g_amp_target    = 0.0f;
 7100              		.loc 6 1139 21 is_stmt 0 view .LVU2065
 7101 012e 5748     		ldr	r0, .L704+60
 7102 0130 0360     		str	r3, [r0]	@ float
1140:src/main.cpp  ****     hw.StartAudio(AudioCallback);
 7103              		.loc 6 1140 5 is_stmt 1 view .LVU2066
 7104              		.loc 6 1141 18 is_stmt 0 view .LVU2067
 7105 0132 4748     		ldr	r0, .L704
1140:src/main.cpp  ****     hw.StartAudio(AudioCallback);
 7106              		.loc 6 1140 21 view .LVU2068
 7107 0134 3E60     		str	r6, [r7]	@ float
 7108              		.loc 6 1141 5 is_stmt 1 view .LVU2069
 7109              		.loc 6 1141 18 is_stmt 0 view .LVU2070
 7110 0136 FFF7FEFF 		bl	_ZN5daisy9DaisySeed10StartAudioEPFvPKPKfPPfjE
 7111              	.LVL547:
1142:src/main.cpp  **** 
1143:src/main.cpp  ****     // Boot beep ŌĆö 200ms tone so you can confirm headphone audio is working
1144:src/main.cpp  ****     g_amp_target = 0.4f;
 7112              		.loc 6 1144 5 is_stmt 1 view .LVU2071
ARM GAS  /tmp/claude-502/ccry90Vn.s 			page 186


 7113              		.loc 6 1144 18 is_stmt 0 view .LVU2072
 7114 013a 554B     		ldr	r3, .L704+64
1145:src/main.cpp  ****     System::Delay(200);
 7115              		.loc 6 1145 18 view .LVU2073
 7116 013c C820     		movs	r0, #200
1144:src/main.cpp  ****     System::Delay(200);
 7117              		.loc 6 1144 18 view .LVU2074
 7118 013e 3B60     		str	r3, [r7]	@ float
 7119              		.loc 6 1145 5 is_stmt 1 view .LVU2075
 7120              		.loc 6 1145 18 is_stmt 0 view .LVU2076
 7121 0140 FFF7FEFF 		bl	_ZN5daisy6System5DelayEm
 7122              	.LVL548:
1146:src/main.cpp  ****     g_amp_target = 0.0f;
 7123              		.loc 6 1146 5 is_stmt 1 view .LVU2077
1147:src/main.cpp  ****     System::Delay(50);
 7124              		.loc 6 1147 18 is_stmt 0 view .LVU2078
 7125 0144 3220     		movs	r0, #50
1146:src/main.cpp  ****     g_amp_target = 0.0f;
 7126              		.loc 6 1146 18 view .LVU2079
 7127 0146 3E60     		str	r6, [r7]	@ float
 7128              		.loc 6 1147 5 is_stmt 1 view .LVU2080
 7129              		.loc 6 1147 18 is_stmt 0 view .LVU2081
 7130 0148 FFF7FEFF 		bl	_ZN5daisy6System5DelayEm
 7131              	.LVL549:
1148:src/main.cpp  **** 
1149:src/main.cpp  ****     // ŌöĆŌöĆ USB serial (blocks until host connects) ŌöĆŌöĆŌöĆŌöĆŌöĆŌöĆŌöĆŌöĆŌöĆŌöĆŌöĆŌöĆŌöĆŌöĆŌöĆ
1150:src/main.cpp  ****     hw.StartLog(false); // false = don't wait for serial monitor
 7132              		.loc 6 1150 5 is_stmt 1 view .LVU2082
 7133              	.LBB1383:
 7134              	.LBI1383:
  23:/Users/reza.kalfane/Workspaces/Daisy/DaisyExamples/libDaisy/src/daisy_seed.h **** 
  24:/Users/reza.kalfane/Workspaces/Daisy/DaisyExamples/libDaisy/src/daisy_seed.h ****     /** This function used to provide a pre-initialization configuraiton 
  25:/Users/reza.kalfane/Workspaces/Daisy/DaisyExamples/libDaisy/src/daisy_seed.h ****      *  it has since been deprecated, and does nothing.
  26:/Users/reza.kalfane/Workspaces/Daisy/DaisyExamples/libDaisy/src/daisy_seed.h ****      */
  27:/Users/reza.kalfane/Workspaces/Daisy/DaisyExamples/libDaisy/src/daisy_seed.h ****     void Configure();
  28:/Users/reza.kalfane/Workspaces/Daisy/DaisyExamples/libDaisy/src/daisy_seed.h **** 
  29:/Users/reza.kalfane/Workspaces/Daisy/DaisyExamples/libDaisy/src/daisy_seed.h ****     /** 
  30:/Users/reza.kalfane/Workspaces/Daisy/DaisyExamples/libDaisy/src/daisy_seed.h ****     Initializes the Daisy Seed and the following peripherals:
  31:/Users/reza.kalfane/Workspaces/Daisy/DaisyExamples/libDaisy/src/daisy_seed.h ****     SDRAM, QSPI, 24-bit 48kHz Audio via AK4556, Internal USB,
  32:/Users/reza.kalfane/Workspaces/Daisy/DaisyExamples/libDaisy/src/daisy_seed.h ****     as well as the built-in LED and Testpoint.
  33:/Users/reza.kalfane/Workspaces/Daisy/DaisyExamples/libDaisy/src/daisy_seed.h **** 
  34:/Users/reza.kalfane/Workspaces/Daisy/DaisyExamples/libDaisy/src/daisy_seed.h ****     ADCs, DACs, and other special peripherals (such as I2C, SPI, etc.)
  35:/Users/reza.kalfane/Workspaces/Daisy/DaisyExamples/libDaisy/src/daisy_seed.h ****     can be initialized using their specific initializers within libdaisy
  36:/Users/reza.kalfane/Workspaces/Daisy/DaisyExamples/libDaisy/src/daisy_seed.h ****     for a specific application.
  37:/Users/reza.kalfane/Workspaces/Daisy/DaisyExamples/libDaisy/src/daisy_seed.h ****     */
  38:/Users/reza.kalfane/Workspaces/Daisy/DaisyExamples/libDaisy/src/daisy_seed.h ****     void Init(bool boost = false);
  39:/Users/reza.kalfane/Workspaces/Daisy/DaisyExamples/libDaisy/src/daisy_seed.h **** 
  40:/Users/reza.kalfane/Workspaces/Daisy/DaisyExamples/libDaisy/src/daisy_seed.h ****     /** 
  41:/Users/reza.kalfane/Workspaces/Daisy/DaisyExamples/libDaisy/src/daisy_seed.h ****     Deinitializes all peripherals automatically handled by `Init`.
  42:/Users/reza.kalfane/Workspaces/Daisy/DaisyExamples/libDaisy/src/daisy_seed.h ****     */
  43:/Users/reza.kalfane/Workspaces/Daisy/DaisyExamples/libDaisy/src/daisy_seed.h ****     void DeInit();
  44:/Users/reza.kalfane/Workspaces/Daisy/DaisyExamples/libDaisy/src/daisy_seed.h **** 
  45:/Users/reza.kalfane/Workspaces/Daisy/DaisyExamples/libDaisy/src/daisy_seed.h ****     /** 
  46:/Users/reza.kalfane/Workspaces/Daisy/DaisyExamples/libDaisy/src/daisy_seed.h ****     Wait some ms before going on.
  47:/Users/reza.kalfane/Workspaces/Daisy/DaisyExamples/libDaisy/src/daisy_seed.h ****     \param del Delay time in ms.
  48:/Users/reza.kalfane/Workspaces/Daisy/DaisyExamples/libDaisy/src/daisy_seed.h ****     */
  49:/Users/reza.kalfane/Workspaces/Daisy/DaisyExamples/libDaisy/src/daisy_seed.h ****     void DelayMs(size_t del);
ARM GAS  /tmp/claude-502/ccry90Vn.s 			page 187


  50:/Users/reza.kalfane/Workspaces/Daisy/DaisyExamples/libDaisy/src/daisy_seed.h **** 
  51:/Users/reza.kalfane/Workspaces/Daisy/DaisyExamples/libDaisy/src/daisy_seed.h ****     /** 
  52:/Users/reza.kalfane/Workspaces/Daisy/DaisyExamples/libDaisy/src/daisy_seed.h ****     Returns the gpio_pin corresponding to the index 0-31.
  53:/Users/reza.kalfane/Workspaces/Daisy/DaisyExamples/libDaisy/src/daisy_seed.h ****     For the given GPIO on the Daisy Seed (labeled 1-32 in docs).
  54:/Users/reza.kalfane/Workspaces/Daisy/DaisyExamples/libDaisy/src/daisy_seed.h ****     */
  55:/Users/reza.kalfane/Workspaces/Daisy/DaisyExamples/libDaisy/src/daisy_seed.h ****     static dsy_gpio_pin GetPin(uint8_t pin_idx);
  56:/Users/reza.kalfane/Workspaces/Daisy/DaisyExamples/libDaisy/src/daisy_seed.h **** 
  57:/Users/reza.kalfane/Workspaces/Daisy/DaisyExamples/libDaisy/src/daisy_seed.h ****     /** Begins the audio for the seeds builtin audio.
  58:/Users/reza.kalfane/Workspaces/Daisy/DaisyExamples/libDaisy/src/daisy_seed.h ****     the specified callback will get called whenever
  59:/Users/reza.kalfane/Workspaces/Daisy/DaisyExamples/libDaisy/src/daisy_seed.h ****     new data is ready to be prepared.
  60:/Users/reza.kalfane/Workspaces/Daisy/DaisyExamples/libDaisy/src/daisy_seed.h ****     */
  61:/Users/reza.kalfane/Workspaces/Daisy/DaisyExamples/libDaisy/src/daisy_seed.h ****     void StartAudio(AudioHandle::InterleavingAudioCallback cb);
  62:/Users/reza.kalfane/Workspaces/Daisy/DaisyExamples/libDaisy/src/daisy_seed.h **** 
  63:/Users/reza.kalfane/Workspaces/Daisy/DaisyExamples/libDaisy/src/daisy_seed.h ****     /** Begins the audio for the seeds builtin audio.
  64:/Users/reza.kalfane/Workspaces/Daisy/DaisyExamples/libDaisy/src/daisy_seed.h ****     the specified callback will get called whenever
  65:/Users/reza.kalfane/Workspaces/Daisy/DaisyExamples/libDaisy/src/daisy_seed.h ****     new data is ready to be prepared.
  66:/Users/reza.kalfane/Workspaces/Daisy/DaisyExamples/libDaisy/src/daisy_seed.h ****     This will use the newer non-interleaved callback.
  67:/Users/reza.kalfane/Workspaces/Daisy/DaisyExamples/libDaisy/src/daisy_seed.h ****     */
  68:/Users/reza.kalfane/Workspaces/Daisy/DaisyExamples/libDaisy/src/daisy_seed.h ****     void StartAudio(AudioHandle::AudioCallback cb);
  69:/Users/reza.kalfane/Workspaces/Daisy/DaisyExamples/libDaisy/src/daisy_seed.h **** 
  70:/Users/reza.kalfane/Workspaces/Daisy/DaisyExamples/libDaisy/src/daisy_seed.h ****     /** Changes to a new interleaved callback
  71:/Users/reza.kalfane/Workspaces/Daisy/DaisyExamples/libDaisy/src/daisy_seed.h ****      */
  72:/Users/reza.kalfane/Workspaces/Daisy/DaisyExamples/libDaisy/src/daisy_seed.h ****     void ChangeAudioCallback(AudioHandle::InterleavingAudioCallback cb);
  73:/Users/reza.kalfane/Workspaces/Daisy/DaisyExamples/libDaisy/src/daisy_seed.h **** 
  74:/Users/reza.kalfane/Workspaces/Daisy/DaisyExamples/libDaisy/src/daisy_seed.h ****     /** Changes to a new multichannel callback
  75:/Users/reza.kalfane/Workspaces/Daisy/DaisyExamples/libDaisy/src/daisy_seed.h ****      */
  76:/Users/reza.kalfane/Workspaces/Daisy/DaisyExamples/libDaisy/src/daisy_seed.h ****     void ChangeAudioCallback(AudioHandle::AudioCallback cb);
  77:/Users/reza.kalfane/Workspaces/Daisy/DaisyExamples/libDaisy/src/daisy_seed.h **** 
  78:/Users/reza.kalfane/Workspaces/Daisy/DaisyExamples/libDaisy/src/daisy_seed.h ****     /** Stops the audio if it is running. */
  79:/Users/reza.kalfane/Workspaces/Daisy/DaisyExamples/libDaisy/src/daisy_seed.h ****     void StopAudio();
  80:/Users/reza.kalfane/Workspaces/Daisy/DaisyExamples/libDaisy/src/daisy_seed.h **** 
  81:/Users/reza.kalfane/Workspaces/Daisy/DaisyExamples/libDaisy/src/daisy_seed.h ****     /** Updates the Audio Sample Rate, and reinitializes.
  82:/Users/reza.kalfane/Workspaces/Daisy/DaisyExamples/libDaisy/src/daisy_seed.h ****      ** Audio must be stopped for this to work.
  83:/Users/reza.kalfane/Workspaces/Daisy/DaisyExamples/libDaisy/src/daisy_seed.h ****      */
  84:/Users/reza.kalfane/Workspaces/Daisy/DaisyExamples/libDaisy/src/daisy_seed.h ****     void SetAudioSampleRate(SaiHandle::Config::SampleRate samplerate);
  85:/Users/reza.kalfane/Workspaces/Daisy/DaisyExamples/libDaisy/src/daisy_seed.h **** 
  86:/Users/reza.kalfane/Workspaces/Daisy/DaisyExamples/libDaisy/src/daisy_seed.h ****     /** Returns the audio sample rate in Hz as a floating point number.
  87:/Users/reza.kalfane/Workspaces/Daisy/DaisyExamples/libDaisy/src/daisy_seed.h ****      */
  88:/Users/reza.kalfane/Workspaces/Daisy/DaisyExamples/libDaisy/src/daisy_seed.h ****     float AudioSampleRate();
  89:/Users/reza.kalfane/Workspaces/Daisy/DaisyExamples/libDaisy/src/daisy_seed.h **** 
  90:/Users/reza.kalfane/Workspaces/Daisy/DaisyExamples/libDaisy/src/daisy_seed.h ****     /** Sets the number of samples processed per channel by the audio callback.
  91:/Users/reza.kalfane/Workspaces/Daisy/DaisyExamples/libDaisy/src/daisy_seed.h ****      */
  92:/Users/reza.kalfane/Workspaces/Daisy/DaisyExamples/libDaisy/src/daisy_seed.h ****     void SetAudioBlockSize(size_t blocksize);
  93:/Users/reza.kalfane/Workspaces/Daisy/DaisyExamples/libDaisy/src/daisy_seed.h **** 
  94:/Users/reza.kalfane/Workspaces/Daisy/DaisyExamples/libDaisy/src/daisy_seed.h ****     /** Returns the number of samples per channel in a block of audio. */
  95:/Users/reza.kalfane/Workspaces/Daisy/DaisyExamples/libDaisy/src/daisy_seed.h ****     size_t AudioBlockSize();
  96:/Users/reza.kalfane/Workspaces/Daisy/DaisyExamples/libDaisy/src/daisy_seed.h **** 
  97:/Users/reza.kalfane/Workspaces/Daisy/DaisyExamples/libDaisy/src/daisy_seed.h ****     /** Returns the rate in Hz that the Audio callback is called */
  98:/Users/reza.kalfane/Workspaces/Daisy/DaisyExamples/libDaisy/src/daisy_seed.h ****     float AudioCallbackRate() const;
  99:/Users/reza.kalfane/Workspaces/Daisy/DaisyExamples/libDaisy/src/daisy_seed.h **** 
 100:/Users/reza.kalfane/Workspaces/Daisy/DaisyExamples/libDaisy/src/daisy_seed.h ****     /** Returns the SAI Handle for the Daisy Seed 
 101:/Users/reza.kalfane/Workspaces/Daisy/DaisyExamples/libDaisy/src/daisy_seed.h ****      *  This can be useful when adding a secondary codec,
 102:/Users/reza.kalfane/Workspaces/Daisy/DaisyExamples/libDaisy/src/daisy_seed.h ****      *  the result of this function can be passed to the audio reinit 
 103:/Users/reza.kalfane/Workspaces/Daisy/DaisyExamples/libDaisy/src/daisy_seed.h ****      *  with an SAI2 configuration
 104:/Users/reza.kalfane/Workspaces/Daisy/DaisyExamples/libDaisy/src/daisy_seed.h ****      */
 105:/Users/reza.kalfane/Workspaces/Daisy/DaisyExamples/libDaisy/src/daisy_seed.h ****     const SaiHandle& AudioSaiHandle() const;
 106:/Users/reza.kalfane/Workspaces/Daisy/DaisyExamples/libDaisy/src/daisy_seed.h **** 
ARM GAS  /tmp/claude-502/ccry90Vn.s 			page 188


 107:/Users/reza.kalfane/Workspaces/Daisy/DaisyExamples/libDaisy/src/daisy_seed.h ****     /** Sets the state of the built in LED
 108:/Users/reza.kalfane/Workspaces/Daisy/DaisyExamples/libDaisy/src/daisy_seed.h ****      */
 109:/Users/reza.kalfane/Workspaces/Daisy/DaisyExamples/libDaisy/src/daisy_seed.h ****     void SetLed(bool state);
 110:/Users/reza.kalfane/Workspaces/Daisy/DaisyExamples/libDaisy/src/daisy_seed.h **** 
 111:/Users/reza.kalfane/Workspaces/Daisy/DaisyExamples/libDaisy/src/daisy_seed.h ****     /** Sets the state of the test point near pin 10
 112:/Users/reza.kalfane/Workspaces/Daisy/DaisyExamples/libDaisy/src/daisy_seed.h ****      */
 113:/Users/reza.kalfane/Workspaces/Daisy/DaisyExamples/libDaisy/src/daisy_seed.h ****     void SetTestPoint(bool state);
 114:/Users/reza.kalfane/Workspaces/Daisy/DaisyExamples/libDaisy/src/daisy_seed.h **** 
 115:/Users/reza.kalfane/Workspaces/Daisy/DaisyExamples/libDaisy/src/daisy_seed.h ****     /** Print formatted debug log message
 116:/Users/reza.kalfane/Workspaces/Daisy/DaisyExamples/libDaisy/src/daisy_seed.h ****      */
 117:/Users/reza.kalfane/Workspaces/Daisy/DaisyExamples/libDaisy/src/daisy_seed.h ****     template <typename... VA>
 118:/Users/reza.kalfane/Workspaces/Daisy/DaisyExamples/libDaisy/src/daisy_seed.h ****     static void Print(const char* format, VA... va)
 119:/Users/reza.kalfane/Workspaces/Daisy/DaisyExamples/libDaisy/src/daisy_seed.h ****     {
 120:/Users/reza.kalfane/Workspaces/Daisy/DaisyExamples/libDaisy/src/daisy_seed.h ****         Log::Print(format, va...);
 121:/Users/reza.kalfane/Workspaces/Daisy/DaisyExamples/libDaisy/src/daisy_seed.h ****     }
 122:/Users/reza.kalfane/Workspaces/Daisy/DaisyExamples/libDaisy/src/daisy_seed.h **** 
 123:/Users/reza.kalfane/Workspaces/Daisy/DaisyExamples/libDaisy/src/daisy_seed.h ****     /** Print formatted debug log message with automatic line termination
 124:/Users/reza.kalfane/Workspaces/Daisy/DaisyExamples/libDaisy/src/daisy_seed.h ****     */
 125:/Users/reza.kalfane/Workspaces/Daisy/DaisyExamples/libDaisy/src/daisy_seed.h ****     template <typename... VA>
 126:/Users/reza.kalfane/Workspaces/Daisy/DaisyExamples/libDaisy/src/daisy_seed.h ****     static void PrintLine(const char* format, VA... va)
 127:/Users/reza.kalfane/Workspaces/Daisy/DaisyExamples/libDaisy/src/daisy_seed.h ****     {
 128:/Users/reza.kalfane/Workspaces/Daisy/DaisyExamples/libDaisy/src/daisy_seed.h ****         Log::PrintLine(format, va...);
 129:/Users/reza.kalfane/Workspaces/Daisy/DaisyExamples/libDaisy/src/daisy_seed.h ****     }
 130:/Users/reza.kalfane/Workspaces/Daisy/DaisyExamples/libDaisy/src/daisy_seed.h **** 
 131:/Users/reza.kalfane/Workspaces/Daisy/DaisyExamples/libDaisy/src/daisy_seed.h ****     /** Start the logging session. Optionally wait for terminal connection before proceeding.
 132:/Users/reza.kalfane/Workspaces/Daisy/DaisyExamples/libDaisy/src/daisy_seed.h ****     */
 133:/Users/reza.kalfane/Workspaces/Daisy/DaisyExamples/libDaisy/src/daisy_seed.h ****     static void StartLog(bool wait_for_pc = false)
 7135              		.loc 1 133 17 view .LVU2083
 7136              	.LBB1384:
 134:/Users/reza.kalfane/Workspaces/Daisy/DaisyExamples/libDaisy/src/daisy_seed.h ****     {
 135:/Users/reza.kalfane/Workspaces/Daisy/DaisyExamples/libDaisy/src/daisy_seed.h ****         Log::StartLog(wait_for_pc);
 7137              		.loc 1 135 9 view .LVU2084
 7138              		.loc 1 135 22 is_stmt 0 view .LVU2085
 7139 014c 0020     		movs	r0, #0
 7140 014e FFF7FEFF 		bl	_ZN5daisy6LoggerILNS_17LoggerDestinationE1EE8StartLogEb
 7141              	.LVL550:
 7142              		.loc 1 135 22 view .LVU2086
 7143              	.LBE1384:
 7144              	.LBE1383:
1151:src/main.cpp  **** 
1152:src/main.cpp  ****     hw.PrintLine("Glass Moog Synth");
 7145              		.loc 6 1152 5 is_stmt 1 view .LVU2087
 7146              	.LBB1385:
 7147              	.LBI1385:
 126:/Users/reza.kalfane/Workspaces/Daisy/DaisyExamples/libDaisy/src/daisy_seed.h ****     {
 7148              		.loc 1 126 17 view .LVU2088
 7149              	.LBB1386:
 128:/Users/reza.kalfane/Workspaces/Daisy/DaisyExamples/libDaisy/src/daisy_seed.h ****     }
 7150              		.loc 1 128 23 is_stmt 0 view .LVU2089
 7151 0152 5048     		ldr	r0, .L704+68
 7152 0154 FFF7FEFF 		bl	_ZN5daisy6LoggerILNS_17LoggerDestinationE1EE9PrintLineEPKcz
 7153              	.LVL551:
 128:/Users/reza.kalfane/Workspaces/Daisy/DaisyExamples/libDaisy/src/daisy_seed.h ****     }
 7154              		.loc 1 128 23 view .LVU2090
 7155              	.LBE1386:
 7156              	.LBE1385:
1153:src/main.cpp  ****     hw.PrintLine("================");
ARM GAS  /tmp/claude-502/ccry90Vn.s 			page 189


 7157              		.loc 6 1153 5 is_stmt 1 view .LVU2091
 7158              	.LBB1387:
 7159              	.LBI1387:
 126:/Users/reza.kalfane/Workspaces/Daisy/DaisyExamples/libDaisy/src/daisy_seed.h ****     {
 7160              		.loc 1 126 17 view .LVU2092
 7161              	.LBB1388:
 128:/Users/reza.kalfane/Workspaces/Daisy/DaisyExamples/libDaisy/src/daisy_seed.h ****     }
 7162              		.loc 1 128 23 is_stmt 0 view .LVU2093
 7163 0158 4F48     		ldr	r0, .L704+72
 7164 015a FFF7FEFF 		bl	_ZN5daisy6LoggerILNS_17LoggerDestinationE1EE9PrintLineEPKcz
 7165              	.LVL552:
 128:/Users/reza.kalfane/Workspaces/Daisy/DaisyExamples/libDaisy/src/daisy_seed.h ****     }
 7166              		.loc 1 128 23 view .LVU2094
 7167              	.LBE1388:
 7168              	.LBE1387:
1154:src/main.cpp  ****     hw.PrintLine("Voice %d/%d: %s  (%d-%dHz)",
 7169              		.loc 6 1154 5 is_stmt 1 view .LVU2095
 7170              		.loc 6 1154 17 is_stmt 0 view .LVU2096
 7171 015e D4ED027A 		vldr.32	s15, [r4, #8]
 7172 0162 BDEEC88A 		vcvt.s32.f32	s16, s16
 7173              	.LBB1389:
 7174              	.LBB1390:
 128:/Users/reza.kalfane/Workspaces/Daisy/DaisyExamples/libDaisy/src/daisy_seed.h ****     }
 7175              		.loc 1 128 23 view .LVU2097
 7176 0166 4449     		ldr	r1, .L704+40
 7177              	.LBE1390:
 7178              	.LBE1389:
 7179              		.loc 6 1154 17 view .LVU2098
 7180 0168 FDEEE77A 		vcvt.s32.f32	s15, s15
1155:src/main.cpp  ****                  g_voice_idx + 1, NUM_VOICES,
 7181              		.loc 6 1155 18 view .LVU2099
 7182 016c 414A     		ldr	r2, .L704+36
 7183              	.LBB1393:
 7184              	.LBB1391:
 128:/Users/reza.kalfane/Workspaces/Daisy/DaisyExamples/libDaisy/src/daisy_seed.h ****     }
 7185              		.loc 1 128 23 view .LVU2100
 7186 016e 4B59     		ldr	r3, [r1, r5]
 7187 0170 8DED008A 		vstr.32	s16, [sp]	@ int
 7188 0174 CDED017A 		vstr.32	s15, [sp, #4]	@ int
 7189              	.LBE1391:
 7190              	.LBE1393:
 7191              		.loc 6 1155 18 view .LVU2101
 7192 0178 1168     		ldr	r1, [r2]
 7193              	.LVL553:
 7194              	.LBB1394:
 7195              	.LBI1389:
 126:/Users/reza.kalfane/Workspaces/Daisy/DaisyExamples/libDaisy/src/daisy_seed.h ****     {
 7196              		.loc 1 126 17 is_stmt 1 view .LVU2102
 7197              	.LBB1392:
 128:/Users/reza.kalfane/Workspaces/Daisy/DaisyExamples/libDaisy/src/daisy_seed.h ****     }
 7198              		.loc 1 128 23 is_stmt 0 view .LVU2103
 7199 017a 0D22     		movs	r2, #13
 7200 017c 4748     		ldr	r0, .L704+76
 7201 017e 0131     		adds	r1, r1, #1
 7202              	.LVL554:
 128:/Users/reza.kalfane/Workspaces/Daisy/DaisyExamples/libDaisy/src/daisy_seed.h ****     }
 7203              		.loc 1 128 23 view .LVU2104
ARM GAS  /tmp/claude-502/ccry90Vn.s 			page 190


 7204 0180 FFF7FEFF 		bl	_ZN5daisy6LoggerILNS_17LoggerDestinationE1EE9PrintLineEPKcz
 7205              	.LVL555:
 128:/Users/reza.kalfane/Workspaces/Daisy/DaisyExamples/libDaisy/src/daisy_seed.h ****     }
 7206              		.loc 1 128 23 view .LVU2105
 7207              	.LBE1392:
 7208              	.LBE1394:
1156:src/main.cpp  ****                  VOICE.name, (int)VOICE.freq_low, (int)VOICE.freq_high);
1157:src/main.cpp  ****     hw.PrintLine("F1 pos=pitch  F1 prs=cutoff+vibrato");
 7209              		.loc 6 1157 5 is_stmt 1 view .LVU2106
 7210              	.LBB1395:
 7211              	.LBI1395:
 126:/Users/reza.kalfane/Workspaces/Daisy/DaisyExamples/libDaisy/src/daisy_seed.h ****     {
 7212              		.loc 1 126 17 view .LVU2107
 7213              	.LBB1396:
 128:/Users/reza.kalfane/Workspaces/Daisy/DaisyExamples/libDaisy/src/daisy_seed.h ****     }
 7214              		.loc 1 128 23 is_stmt 0 view .LVU2108
 7215 0184 4648     		ldr	r0, .L704+80
 7216 0186 FFF7FEFF 		bl	_ZN5daisy6LoggerILNS_17LoggerDestinationE1EE9PrintLineEPKcz
 7217              	.LVL556:
 128:/Users/reza.kalfane/Workspaces/Daisy/DaisyExamples/libDaisy/src/daisy_seed.h ****     }
 7218              		.loc 1 128 23 view .LVU2109
 7219              	.LBE1396:
 7220              	.LBE1395:
1158:src/main.cpp  ****     if(VOICE.osc2_detune)
 7221              		.loc 6 1158 5 is_stmt 1 view .LVU2110
 7222 018a 94F83D30 		ldrb	r3, [r4, #61]	@ zero_extendqisi2
 7223 018e 002B     		cmp	r3, #0
 7224 0190 01F07B80 		beq	.L421
1159:src/main.cpp  ****         hw.PrintLine("F2 pos=detune F2 prs=wavefold+ringmod");
 7225              		.loc 6 1159 9 view .LVU2111
 7226              	.LVL557:
 7227              	.LBB1397:
 7228              	.LBI1397:
 126:/Users/reza.kalfane/Workspaces/Daisy/DaisyExamples/libDaisy/src/daisy_seed.h ****     {
 7229              		.loc 1 126 17 view .LVU2112
 7230              	.LBB1398:
 128:/Users/reza.kalfane/Workspaces/Daisy/DaisyExamples/libDaisy/src/daisy_seed.h ****     }
 7231              		.loc 1 128 23 is_stmt 0 view .LVU2113
 7232 0194 4348     		ldr	r0, .L704+84
 7233 0196 FFF7FEFF 		bl	_ZN5daisy6LoggerILNS_17LoggerDestinationE1EE9PrintLineEPKcz
 7234              	.LVL558:
 7235              	.L422:
 128:/Users/reza.kalfane/Workspaces/Daisy/DaisyExamples/libDaisy/src/daisy_seed.h ****     }
 7236              		.loc 1 128 23 view .LVU2114
 7237              	.LBE1398:
 7238              	.LBE1397:
1160:src/main.cpp  ****     else
1161:src/main.cpp  ****         hw.PrintLine("F2 prs=wavefold+ringmod (osc2=fixed)");
1162:src/main.cpp  ****     hw.PrintLine("Hold FSR pressed 5s to change voice (then every 2s)");
 7239              		.loc 6 1162 5 is_stmt 1 view .LVU2115
 7240              	.LBB1399:
 7241              	.LBI1399:
 126:/Users/reza.kalfane/Workspaces/Daisy/DaisyExamples/libDaisy/src/daisy_seed.h ****     {
 7242              		.loc 1 126 17 view .LVU2116
 7243              	.LBB1400:
 128:/Users/reza.kalfane/Workspaces/Daisy/DaisyExamples/libDaisy/src/daisy_seed.h ****     }
 7244              		.loc 1 128 23 is_stmt 0 view .LVU2117
ARM GAS  /tmp/claude-502/ccry90Vn.s 			page 191


 7245 019a 4348     		ldr	r0, .L704+88
 7246 019c 0DF1A40A 		add	r10, sp, #164
 7247 01a0 FFF7FEFF 		bl	_ZN5daisy6LoggerILNS_17LoggerDestinationE1EE9PrintLineEPKcz
 7248              	.LVL559:
 128:/Users/reza.kalfane/Workspaces/Daisy/DaisyExamples/libDaisy/src/daisy_seed.h ****     }
 7249              		.loc 1 128 23 view .LVU2118
 7250              	.LBE1400:
 7251              	.LBE1399:
1163:src/main.cpp  ****     hw.PrintLine("MPR121 OK ŌĆö baseline captured");
 7252              		.loc 6 1163 5 is_stmt 1 view .LVU2119
 7253              	.LBB1401:
 7254              	.LBI1401:
 126:/Users/reza.kalfane/Workspaces/Daisy/DaisyExamples/libDaisy/src/daisy_seed.h ****     {
 7255              		.loc 1 126 17 view .LVU2120
 7256              	.LBB1402:
 128:/Users/reza.kalfane/Workspaces/Daisy/DaisyExamples/libDaisy/src/daisy_seed.h ****     }
 7257              		.loc 1 128 23 is_stmt 0 view .LVU2121
 7258 01a4 4148     		ldr	r0, .L704+92
 7259 01a6 FFF7FEFF 		bl	_ZN5daisy6LoggerILNS_17LoggerDestinationE1EE9PrintLineEPKcz
 7260              	.LVL560:
 128:/Users/reza.kalfane/Workspaces/Daisy/DaisyExamples/libDaisy/src/daisy_seed.h ****     }
 7261              		.loc 1 128 23 view .LVU2122
 7262              	.LBE1402:
 7263              	.LBE1401:
1164:src/main.cpp  ****     hw.PrintLine("Ready.\n");
 7264              		.loc 6 1164 5 is_stmt 1 view .LVU2123
 7265              	.LBB1403:
 7266              	.LBI1403:
 126:/Users/reza.kalfane/Workspaces/Daisy/DaisyExamples/libDaisy/src/daisy_seed.h ****     {
 7267              		.loc 1 126 17 view .LVU2124
 7268              	.LBB1404:
 128:/Users/reza.kalfane/Workspaces/Daisy/DaisyExamples/libDaisy/src/daisy_seed.h ****     }
 7269              		.loc 1 128 23 is_stmt 0 view .LVU2125
 7270 01aa 4148     		ldr	r0, .L704+96
 7271 01ac FFF7FEFF 		bl	_ZN5daisy6LoggerILNS_17LoggerDestinationE1EE9PrintLineEPKcz
 7272              	.LVL561:
 128:/Users/reza.kalfane/Workspaces/Daisy/DaisyExamples/libDaisy/src/daisy_seed.h ****     }
 7273              		.loc 1 128 23 view .LVU2126
 7274              	.LBE1404:
 7275              	.LBE1403:
1165:src/main.cpp  **** 
1166:src/main.cpp  ****     uint16_t data[N_CH];
 7276              		.loc 6 1166 5 is_stmt 1 view .LVU2127
1167:src/main.cpp  ****     int32_t  delta[N_CH];
 7277              		.loc 6 1167 5 view .LVU2128
1168:src/main.cpp  ****     char     bar[32], pos_bar[52];
 7278              		.loc 6 1168 5 view .LVU2129
1169:src/main.cpp  ****     Finger   raw[2];
 7279              		.loc 6 1169 5 view .LVU2130
1170:src/main.cpp  **** 
1171:src/main.cpp  ****     uint32_t idle_since      = System::GetNow();
 7280              		.loc 6 1171 5 view .LVU2131
1172:src/main.cpp  ****     uint32_t last_touch_ms   = System::GetNow();
1173:src/main.cpp  ****     bool     f1_was_on       = false;
1174:src/main.cpp  ****     uint32_t f1_last_seen_ms = 0;
1175:src/main.cpp  ****     static constexpr uint32_t F1_REQUANTIZE_MS = 200; // re-quantize only after this long off
1176:src/main.cpp  ****     float    f1_midi_base    = 60.0f; // last quantized note
ARM GAS  /tmp/claude-502/ccry90Vn.s 			page 192


1177:src/main.cpp  ****     bool     f1_sliding      = false; // true after first touch settles
1178:src/main.cpp  ****     float    multi_freq      = 60.0f; // MultiVoice: pitch latched at tap onset
1179:src/main.cpp  **** 
1180:src/main.cpp  ****     // Per-frame display counter (print every N frames to reduce serial spam)
1181:src/main.cpp  ****     int print_every = 1;
1182:src/main.cpp  ****     int frame_count = 0;
1183:src/main.cpp  **** 
1184:src/main.cpp  ****     // Smoothed LED brightness state (0..1), slewed toward per-frame targets.
1185:src/main.cpp  ****     // LED1 = DAC1 (pos 0 end), LED2 = DAC2 (middle), LED3 = PWM A0 (pos 1000 end).
1186:src/main.cpp  ****     float s_led1 = 0.0f, s_led2 = 0.0f, s_led3 = 0.0f;
 7281              		.loc 6 1186 41 is_stmt 0 view .LVU2132
 7282 01b0 DFED409A 		vldr.32	s19, .L704+100
1171:src/main.cpp  ****     uint32_t last_touch_ms   = System::GetNow();
 7283              		.loc 6 1171 46 view .LVU2133
 7284 01b4 FFF7FEFF 		bl	_ZN5daisy6System6GetNowEv
 7285              	.LVL562:
1187:src/main.cpp  **** 
1188:src/main.cpp  ****     // FSR voice-switch gesture state.
1189:src/main.cpp  ****     uint32_t fsr_hold_start  = 0;   // when the current press began (0 = released)
1190:src/main.cpp  ****     uint32_t fsr_next_switch = 0;   // timestamp of the next allowed switch
 7286              		.loc 6 1190 14 view .LVU2134
 7287 01b8 0023     		movs	r3, #0
1186:src/main.cpp  **** 
 7288              		.loc 6 1186 26 view .LVU2135
 7289 01ba F0EE69AA 		vmov.f32	s21, s19
1178:src/main.cpp  **** 
 7290              		.loc 6 1178 14 view .LVU2136
 7291 01be 9FED3EBA 		vldr.32	s22, .L704+104
 7292              		.loc 6 1190 14 view .LVU2137
 7293 01c2 1C46     		mov	r4, r3
1186:src/main.cpp  **** 
 7294              		.loc 6 1186 11 view .LVU2138
 7295 01c4 B0EE69AA 		vmov.f32	s20, s19
 7296 01c8 DFF8F490 		ldr	r9, .L704+112
 7297 01cc 0DF1B90B 		add	fp, sp, #185
 7298 01d0 2546     		mov	r5, r4
1171:src/main.cpp  ****     uint32_t last_touch_ms   = System::GetNow();
 7299              		.loc 6 1171 46 view .LVU2139
 7300 01d2 0690     		str	r0, [sp, #24]
 7301              	.LVL563:
1172:src/main.cpp  ****     bool     f1_was_on       = false;
 7302              		.loc 6 1172 5 is_stmt 1 view .LVU2140
 7303              		.loc 6 1190 14 is_stmt 0 view .LVU2141
 7304 01d4 0B93     		str	r3, [sp, #44]
1172:src/main.cpp  ****     bool     f1_was_on       = false;
 7305              		.loc 6 1172 46 view .LVU2142
 7306 01d6 FFF7FEFF 		bl	_ZN5daisy6System6GetNowEv
 7307              	.LVL564:
1189:src/main.cpp  ****     uint32_t fsr_next_switch = 0;   // timestamp of the next allowed switch
 7308              		.loc 6 1189 14 view .LVU2143
 7309 01da 0994     		str	r4, [sp, #36]
1172:src/main.cpp  ****     bool     f1_was_on       = false;
 7310              		.loc 6 1172 46 view .LVU2144
 7311 01dc 0790     		str	r0, [sp, #28]
 7312              	.LVL565:
1173:src/main.cpp  ****     uint32_t f1_last_seen_ms = 0;
 7313              		.loc 6 1173 5 is_stmt 1 view .LVU2145
ARM GAS  /tmp/claude-502/ccry90Vn.s 			page 193


1174:src/main.cpp  ****     static constexpr uint32_t F1_REQUANTIZE_MS = 200; // re-quantize only after this long off
 7314              		.loc 6 1174 5 view .LVU2146
1175:src/main.cpp  ****     float    f1_midi_base    = 60.0f; // last quantized note
 7315              		.loc 6 1175 5 view .LVU2147
1176:src/main.cpp  ****     bool     f1_sliding      = false; // true after first touch settles
 7316              		.loc 6 1176 5 view .LVU2148
1177:src/main.cpp  ****     float    multi_freq      = 60.0f; // MultiVoice: pitch latched at tap onset
 7317              		.loc 6 1177 5 view .LVU2149
1178:src/main.cpp  **** 
 7318              		.loc 6 1178 5 view .LVU2150
1181:src/main.cpp  ****     int frame_count = 0;
 7319              		.loc 6 1181 5 view .LVU2151
1182:src/main.cpp  **** 
 7320              		.loc 6 1182 5 view .LVU2152
1186:src/main.cpp  **** 
 7321              		.loc 6 1186 5 view .LVU2153
1189:src/main.cpp  ****     uint32_t fsr_next_switch = 0;   // timestamp of the next allowed switch
 7322              		.loc 6 1189 5 view .LVU2154
 7323              		.loc 6 1190 5 view .LVU2155
 7324              	.L551:
1191:src/main.cpp  **** 
1192:src/main.cpp  ****     // Flash all three LEDs `count` times to confirm a voice change (count = voice
1193:src/main.cpp  ****     // number). Blocks the touch loop briefly ŌĆö fine, we're mid-gesture and silent.
1194:src/main.cpp  ****     auto flash_voice_leds = [&](int count){
 7325              		.loc 6 1194 5 view .LVU2156
1195:src/main.cpp  ****         for(int f = 0; f < count; f++){
1196:src/main.cpp  ****             hw.dac.WriteValue(DacHandle::Channel::ONE, 4095);
1197:src/main.cpp  ****             hw.dac.WriteValue(DacHandle::Channel::TWO, 4095);
1198:src/main.cpp  ****             g_led3_duty = LED3_INTENSITY;
1199:src/main.cpp  ****             System::Delay(110);
1200:src/main.cpp  ****             hw.dac.WriteValue(DacHandle::Channel::ONE, 0);
1201:src/main.cpp  ****             hw.dac.WriteValue(DacHandle::Channel::TWO, 0);
1202:src/main.cpp  ****             g_led3_duty = 0.0f;
1203:src/main.cpp  ****             System::Delay(140);
1204:src/main.cpp  ****         }
1205:src/main.cpp  ****     };
1206:src/main.cpp  **** 
1207:src/main.cpp  ****     while(true)
 7326              		.loc 6 1207 5 view .LVU2157
 7327              	.LBB1405:
1208:src/main.cpp  ****     {
1209:src/main.cpp  ****         // ŌöĆŌöĆ FSR ŌåÆ master volume (no pressure = 100%, press attenuates) ŌöĆŌöĆŌöĆŌöĆŌöĆŌöĆŌö
1210:src/main.cpp  ****         uint16_t fsr_raw = hw.adc.Get(0);
 7328              		.loc 6 1210 9 view .LVU2158
 7329              		.loc 6 1210 38 is_stmt 0 view .LVU2159
 7330 01de 0021     		movs	r1, #0
 7331 01e0 2348     		ldr	r0, .L704+32
 7332 01e2 FFF7FEFF 		bl	_ZNK5daisy9AdcHandle3GetEh
 7333              	.LVL566:
1211:src/main.cpp  ****         float    vol;
 7334              		.loc 6 1211 9 is_stmt 1 view .LVU2160
1212:src/main.cpp  ****         if(fsr_raw <= FSR_MIN)      vol = 0.0f;
 7335              		.loc 6 1212 9 view .LVU2161
 7336 01e6 B0F5FA5F 		cmp	r0, #8000
 7337 01ea 00F22C83 		bhi	.L679
 7338              	.LVL567:
1213:src/main.cpp  ****         else if(fsr_raw >= fsr_max) vol = 1.0f;
ARM GAS  /tmp/claude-502/ccry90Vn.s 			page 194


1214:src/main.cpp  ****         else                        vol = (float)(fsr_raw - FSR_MIN) * fsr_range_inv;
1215:src/main.cpp  ****         g_master_vol = vol;
 7339              		.loc 6 1215 9 view .LVU2162
 7340              		.loc 6 1215 22 is_stmt 0 view .LVU2163
 7341 01ee 334B     		ldr	r3, .L704+108
 7342 01f0 9FED309A 		vldr.32	s18, .L704+100
 7343 01f4 83ED009A 		vstr.32	s18, [r3]
1216:src/main.cpp  **** 
1217:src/main.cpp  ****         // ŌöĆŌöĆ FSR-hold voice-switch gesture ŌöĆŌöĆŌöĆŌöĆŌöĆŌöĆŌöĆŌöĆŌöĆŌöĆŌöĆŌöĆŌöĆŌöĆŌöĆŌöĆŌöĆ
1218:src/main.cpp  ****         // Pressing the FSR to (near) silence and holding cycles the voice: first
1219:src/main.cpp  ****         // advance after 5 s, then every 2 s while still held. LEDs flash the new
1220:src/main.cpp  ****         // voice number. Releasing re-arms the 5 s wait.
1221:src/main.cpp  ****         bool fsr_pressed = (fsr_raw <= FSR_MIN);   // "low value" = at the mute floor
 7344              		.loc 6 1221 9 is_stmt 1 view .LVU2164
 7345              	.LVL568:
1222:src/main.cpp  ****         if(!fsr_pressed){
 7346              		.loc 6 1222 9 view .LVU2165
 7347              	.LBB1406:
 7348              	.LBB1407:
1223:src/main.cpp  ****             fsr_hold_start = 0;                    // released ŌåÆ disarm
1224:src/main.cpp  ****         } else {
1225:src/main.cpp  ****             uint32_t now = System::GetNow();
 7349              		.loc 6 1225 13 view .LVU2166
 7350              		.loc 6 1225 42 is_stmt 0 view .LVU2167
 7351 01f8 FFF7FEFF 		bl	_ZN5daisy6System6GetNowEv
 7352              	.LVL569:
1226:src/main.cpp  ****             if(fsr_hold_start == 0){
 7353              		.loc 6 1226 13 view .LVU2168
 7354 01fc 099B     		ldr	r3, [sp, #36]
1225:src/main.cpp  ****             if(fsr_hold_start == 0){
 7355              		.loc 6 1225 42 view .LVU2169
 7356 01fe 0690     		str	r0, [sp, #24]
 7357              	.LVL570:
 7358              		.loc 6 1226 13 is_stmt 1 view .LVU2170
 7359 0200 002B     		cmp	r3, #0
 7360 0202 40F03987 		bne	.L680
1227:src/main.cpp  ****                 fsr_hold_start  = now;
 7361              		.loc 6 1227 17 view .LVU2171
 7362              	.LVL571:
1228:src/main.cpp  ****                 fsr_next_switch = now + VOICE_SWITCH_FIRST_MS;
 7363              		.loc 6 1228 17 view .LVU2172
 7364              		.loc 6 1228 33 is_stmt 0 view .LVU2173
 7365 0206 41F28833 		movw	r3, #5000
 7366 020a 1A46     		mov	r2, r3
 7367 020c 069B     		ldr	r3, [sp, #24]
 7368 020e 9A18     		adds	r2, r3, r2
1227:src/main.cpp  ****                 fsr_hold_start  = now;
 7369              		.loc 6 1227 33 view .LVU2174
 7370 0210 0993     		str	r3, [sp, #36]
1229:src/main.cpp  ****             }
1230:src/main.cpp  ****             // Holding the FSR means no glass touch ŌĆö freeze the idle/rebaseline
1231:src/main.cpp  ****             // timers so they don't fire mid-gesture.
1232:src/main.cpp  ****             idle_since    = now;
1233:src/main.cpp  ****             last_touch_ms = now;
 7371              		.loc 6 1233 27 view .LVU2175
 7372 0212 0793     		str	r3, [sp, #28]
 7373              	.LVL572:
ARM GAS  /tmp/claude-502/ccry90Vn.s 			page 195


1228:src/main.cpp  ****                 fsr_next_switch = now + VOICE_SWITCH_FIRST_MS;
 7374              		.loc 6 1228 33 view .LVU2176
 7375 0214 0B92     		str	r2, [sp, #44]
 7376              	.LVL573:
1232:src/main.cpp  ****             last_touch_ms = now;
 7377              		.loc 6 1232 13 is_stmt 1 view .LVU2177
 7378              		.loc 6 1233 13 view .LVU2178
1234:src/main.cpp  ****             if((int32_t)(now - fsr_next_switch) >= 0){
 7379              		.loc 6 1234 13 view .LVU2179
 7380              	.L425:
 7381              		.loc 6 1234 13 is_stmt 0 view .LVU2180
 7382              	.LBE1407:
 7383              	.LBE1406:
1235:src/main.cpp  ****                 g_voice_idx = (g_voice_idx + 1) % NUM_VOICES;
1236:src/main.cpp  ****                 hw.PrintLine("[voice %d/%d] %s",
1237:src/main.cpp  ****                              g_voice_idx + 1, NUM_VOICES, VOICES[g_voice_idx].name);
1238:src/main.cpp  ****                 flash_voice_leds(g_voice_idx + 1);            // count = voice number
1239:src/main.cpp  ****                 fsr_next_switch = System::GetNow() + VOICE_SWITCH_REPEAT_MS; // re-time after flash
1240:src/main.cpp  ****             }
1241:src/main.cpp  ****         }
1242:src/main.cpp  **** 
1243:src/main.cpp  ****         read_electrodes(data);
 7384              		.loc 6 1243 9 is_stmt 1 view .LVU2181
 7385 0216 0DF1EC08 		add	r8, sp, #236
 7386              		.loc 6 1243 24 is_stmt 0 view .LVU2182
 7387 021a 1DA8     		add	r0, sp, #116
 7388 021c FFF7FEFF 		bl	_Z15read_electrodesPt
 7389              	.LVL574:
1244:src/main.cpp  **** 
1245:src/main.cpp  ****         int32_t max_delta=1;
 7390              		.loc 6 1245 9 is_stmt 1 view .LVU2183
1246:src/main.cpp  ****         for(int i=0;i<N_CH;i++){
 7391              		.loc 6 1246 9 view .LVU2184
 7392              	.LBB1423:
 7393              		.loc 6 1246 22 view .LVU2185
 7394              	.LBE1423:
1245:src/main.cpp  ****         for(int i=0;i<N_CH;i++){
 7395              		.loc 6 1245 17 is_stmt 0 view .LVU2186
 7396 0220 0127     		movs	r7, #1
 7397 0222 1DA8     		add	r0, sp, #116
1243:src/main.cpp  **** 
 7398              		.loc 6 1243 24 view .LVU2187
 7399 0224 4146     		mov	r1, r8
 7400 0226 089A     		ldr	r2, [sp, #32]
 7401 0228 08E0     		b	.L430
 7402              	.LVL575:
 7403              	.L682:
 7404              	.LBB1424:
1247:src/main.cpp  ****             delta[i]=(int32_t)baseline[i]-(int32_t)data[i];
 7405              		.loc 6 1247 21 view .LVU2188
 7406 022a 0B60     		str	r3, [r1]
 7407              	.L429:
1248:src/main.cpp  ****             if(delta[i]<0)delta[i]=0;
1249:src/main.cpp  ****             if(delta[i]>max_delta)max_delta=delta[i];
 7408              		.loc 6 1249 13 is_stmt 1 view .LVU2189
 7409 022c 9F42     		cmp	r7, r3
1246:src/main.cpp  ****             delta[i]=(int32_t)baseline[i]-(int32_t)data[i];
ARM GAS  /tmp/claude-502/ccry90Vn.s 			page 196


 7410              		.loc 6 1246 22 is_stmt 0 view .LVU2190
 7411 022e 01F10401 		add	r1, r1, #4
 7412 0232 B8BF     		it	lt
 7413 0234 1F46     		movlt	r7, r3
 7414              	.LVL576:
1246:src/main.cpp  ****             delta[i]=(int32_t)baseline[i]-(int32_t)data[i];
 7415              		.loc 6 1246 9 is_stmt 1 view .LVU2191
1246:src/main.cpp  ****             delta[i]=(int32_t)baseline[i]-(int32_t)data[i];
 7416              		.loc 6 1246 22 view .LVU2192
 7417 0236 1DAB     		add	r3, sp, #116
 7418 0238 9342     		cmp	r3, r2
 7419 023a 43D0     		beq	.L681
 7420              	.LVL577:
 7421              	.L430:
1247:src/main.cpp  ****             delta[i]=(int32_t)baseline[i]-(int32_t)data[i];
 7422              		.loc 6 1247 13 view .LVU2193
1248:src/main.cpp  ****             if(delta[i]<0)delta[i]=0;
 7423              		.loc 6 1248 13 view .LVU2194
1248:src/main.cpp  ****             if(delta[i]<0)delta[i]=0;
 7424              		.loc 6 1248 27 view .LVU2195
1247:src/main.cpp  ****             delta[i]=(int32_t)baseline[i]-(int32_t)data[i];
 7425              		.loc 6 1247 41 is_stmt 0 view .LVU2196
 7426 023c 32F8023B 		ldrh	r3, [r2], #2
1248:src/main.cpp  ****             if(delta[i]<0)delta[i]=0;
 7427              		.loc 6 1248 35 view .LVU2197
 7428 0240 0026     		movs	r6, #0
1247:src/main.cpp  ****             delta[i]=(int32_t)baseline[i]-(int32_t)data[i];
 7429              		.loc 6 1247 58 view .LVU2198
 7430 0242 30F8024B 		ldrh	r4, [r0], #2
1248:src/main.cpp  ****             if(delta[i]<0)delta[i]=0;
 7431              		.loc 6 1248 13 view .LVU2199
 7432 0246 1B1B     		subs	r3, r3, r4
 7433 0248 EFD5     		bpl	.L682
 7434 024a 3346     		mov	r3, r6
1248:src/main.cpp  ****             if(delta[i]<0)delta[i]=0;
 7435              		.loc 6 1248 35 discriminator 1 view .LVU2200
 7436 024c 0E60     		str	r6, [r1]
 7437 024e EDE7     		b	.L429
 7438              	.L705:
 7439              		.align	2
 7440              	.L704:
 7441 0250 00000000 		.word	.LANCHOR10
 7442 0254 00000000 		.word	.LANCHOR43
 7443 0258 00000000 		.word	.LANCHOR44
 7444 025c 00000000 		.word	.LANCHOR45
 7445 0260 00000000 		.word	.LANCHOR46
 7446 0264 20000000 		.word	.LANCHOR10+32
 7447 0268 00000000 		.word	.LANCHOR50
 7448 026c 00000000 		.word	.LANCHOR42
 7449 0270 18000000 		.word	.LANCHOR10+24
 7450 0274 00000000 		.word	.LANCHOR51
 7451 0278 00000000 		.word	.LANCHOR13
 7452 027c 00000000 		.word	.LANCHOR1
 7453 0280 00000000 		.word	.LANCHOR8
 7454 0284 00000000 		.word	_Z13AudioCallbackPKPKfPPfj
 7455 0288 0000C842 		.word	1120403456
 7456 028c 00000000 		.word	.LANCHOR2
ARM GAS  /tmp/claude-502/ccry90Vn.s 			page 197


 7457 0290 CDCCCC3E 		.word	1053609165
 7458 0294 00000000 		.word	.LC0
 7459 0298 14000000 		.word	.LC1
 7460 029c 28000000 		.word	.LC2
 7461 02a0 44000000 		.word	.LC3
 7462 02a4 68000000 		.word	.LC4
 7463 02a8 B8000000 		.word	.LC6
 7464 02ac EC000000 		.word	.LC7
 7465 02b0 0C010000 		.word	.LC8
 7466 02b4 00000000 		.word	0
 7467 02b8 00007042 		.word	1114636288
 7468 02bc 00000000 		.word	.LANCHOR9
 7469 02c0 00000000 		.word	.LANCHOR48
 7470              	.L681:
1248:src/main.cpp  ****             if(delta[i]<0)delta[i]=0;
 7471              		.loc 6 1248 35 discriminator 1 view .LVU2201
 7472              	.LBE1424:
1250:src/main.cpp  ****         }
1251:src/main.cpp  **** 
1252:src/main.cpp  ****         int n_raw=detect_raw(delta,raw);
 7473              		.loc 6 1252 9 is_stmt 1 view .LVU2202
 7474              		.loc 6 1252 29 is_stmt 0 view .LVU2203
 7475 02c4 31A9     		add	r1, sp, #196
 7476 02c6 3BA8     		add	r0, sp, #236
 7477 02c8 FFF7FEFF 		bl	_Z10detect_rawPlP6Finger
 7478              	.LVL578:
1253:src/main.cpp  ****         bool touching=(n_raw>0);
 7479              		.loc 6 1253 9 is_stmt 1 view .LVU2204
1254:src/main.cpp  **** 
1255:src/main.cpp  ****         // ŌöĆŌöĆ Auto-rebaseline ŌöĆŌöĆŌöĆŌöĆŌöĆŌöĆŌöĆŌöĆŌöĆŌöĆŌöĆŌöĆŌöĆŌöĆŌöĆŌöĆŌöĆŌöĆŌöĆŌöĆŌöĆŌö
1256:src/main.cpp  ****         if(touching){
 7480              		.loc 6 1256 9 view .LVU2205
 7481 02cc 061E     		subs	r6, r0, #0
 7482 02ce 40F30C83 		ble	.L431
1257:src/main.cpp  ****             idle_since=System::GetNow();
 7483              		.loc 6 1257 13 view .LVU2206
 7484              		.loc 6 1257 38 is_stmt 0 view .LVU2207
 7485 02d2 FFF7FEFF 		bl	_ZN5daisy6System6GetNowEv
 7486              	.LVL579:
 7487              		.loc 6 1257 38 view .LVU2208
 7488 02d6 0690     		str	r0, [sp, #24]
 7489              	.LVL580:
1258:src/main.cpp  ****         } else {
1259:src/main.cpp  ****             if(System::GetNow()-idle_since>=REBASELINE_IDLE_MS){
1260:src/main.cpp  ****                 tracked[0].alive=tracked[1].alive=false;
1261:src/main.cpp  ****                 capture_baseline(baseline);
1262:src/main.cpp  ****                 hw.PrintLine("[rebaseline]");
1263:src/main.cpp  ****                 idle_since=System::GetNow();
1264:src/main.cpp  ****             }
1265:src/main.cpp  ****         }
1266:src/main.cpp  **** 
1267:src/main.cpp  ****         // ŌöĆŌöĆ 5 s idle ŌåÆ chase + FSR recalibration, loops until touch ŌöĆŌöĆŌöĆŌöĆŌöĆŌöĆŌöĆŌö
1268:src/main.cpp  ****         if(touching){
 7490              		.loc 6 1268 9 is_stmt 1 view .LVU2209
1269:src/main.cpp  ****             last_touch_ms = System::GetNow();
 7491              		.loc 6 1269 13 view .LVU2210
 7492              		.loc 6 1269 43 is_stmt 0 view .LVU2211
ARM GAS  /tmp/claude-502/ccry90Vn.s 			page 198


 7493 02d8 FFF7FEFF 		bl	_ZN5daisy6System6GetNowEv
 7494              	.LVL581:
 7495              		.loc 6 1269 43 view .LVU2212
 7496 02dc 0790     		str	r0, [sp, #28]
 7497              	.LVL582:
 7498              	.L432:
1270:src/main.cpp  ****         } else if(System::GetNow() - last_touch_ms >= 5000){
1271:src/main.cpp  ****             idle_chase_and_calibrate();
1272:src/main.cpp  ****             last_touch_ms = System::GetNow();
1273:src/main.cpp  ****             idle_since    = System::GetNow();
1274:src/main.cpp  ****             hw.PrintLine("[fsr recal] fsr_max=%d", (int)fsr_max);
1275:src/main.cpp  ****         }
1276:src/main.cpp  **** 
1277:src/main.cpp  ****         update_tracked(raw,n_raw);
 7499              		.loc 6 1277 9 is_stmt 1 view .LVU2213
 7500              		.loc 6 1277 23 is_stmt 0 view .LVU2214
 7501 02de 3146     		mov	r1, r6
 7502 02e0 31A8     		add	r0, sp, #196
 7503 02e2 FFF7FEFF 		bl	_Z14update_trackedP6Fingeri
 7504              	.LVL583:
1278:src/main.cpp  **** 
1279:src/main.cpp  ****         // ŌöĆŌöĆ Finger 1 ŌåÆ Pitch + Filter cutoff + Vibrato ŌöĆŌöĆŌöĆŌöĆŌöĆŌöĆŌöĆŌöĆŌöĆŌöĆŌöĆŌöĆ
1280:src/main.cpp  ****         bool f1_on = tracked[0].alive;
 7505              		.loc 6 1280 9 is_stmt 1 view .LVU2215
 7506              		.loc 6 1280 14 is_stmt 0 view .LVU2216
 7507 02e6 99F80030 		ldrb	r3, [r9]	@ zero_extendqisi2
 7508 02ea 0593     		str	r3, [sp, #20]
 7509              	.LVL584:
1281:src/main.cpp  ****         if(f1_on) f1_last_seen_ms = System::GetNow();
 7510              		.loc 6 1281 9 is_stmt 1 view .LVU2217
 7511 02ec 002B     		cmp	r3, #0
 7512 02ee 40F0DC85 		bne	.L683
 7513              	.LVL585:
 7514              	.L461:
1282:src/main.cpp  ****         bool f1_fresh = !f1_was_on && (System::GetNow() - f1_last_seen_ms >= F1_REQUANTIZE_MS);
 7515              		.loc 6 1282 9 view .LVU2218
 7516              		.loc 6 1282 25 is_stmt 0 view .LVU2219
 7517 02f2 85F00106 		eor	r6, r5, #1
 7518              	.LVL586:
 7519              		.loc 6 1282 36 view .LVU2220
 7520 02f6 002D     		cmp	r5, #0
 7521 02f8 00F07C85 		beq	.L684
1283:src/main.cpp  **** 
1284:src/main.cpp  ****         // ŌöĆŌöĆ MultiVoice routing ŌöĆŌöĆŌöĆŌöĆŌöĆŌöĆŌöĆŌöĆŌöĆŌöĆŌöĆŌöĆŌöĆŌöĆŌöĆŌöĆŌöĆŌöĆŌöĆŌöĆŌö
1285:src/main.cpp  ****         // In Drums mode each fresh tap latches a drum (by slider zone) and a
1286:src/main.cpp  ****         // pitch (interval by fine position within the zone); both hold for the
1287:src/main.cpp  ****         // whole tap. Otherwise the active voice just tracks the selected one.
1288:src/main.cpp  ****         bool multi = (g_voice_idx == MULTI_IDX);
 7522              		.loc 6 1288 9 is_stmt 1 view .LVU2221
 7523              		.loc 6 1288 35 is_stmt 0 view .LVU2222
 7524 02fc 814B     		ldr	r3, .L706
 7525 02fe 1A68     		ldr	r2, [r3]
 7526              	.LVL587:
1289:src/main.cpp  ****         if(!multi){
 7527              		.loc 6 1289 9 is_stmt 1 view .LVU2223
 7528              	.LBB1425:
 7529 0300 0C2A     		cmp	r2, #12
ARM GAS  /tmp/claude-502/ccry90Vn.s 			page 199


 7530 0302 03D0     		beq	.L464
 7531              	.LVL588:
 7532              	.L562:
1290:src/main.cpp  ****             g_active_voice = g_voice_idx;
 7533              		.loc 6 1290 13 view .LVU2224
 7534              		.loc 6 1290 28 is_stmt 0 view .LVU2225
 7535 0304 7F4B     		ldr	r3, .L706
 7536 0306 8049     		ldr	r1, .L706+4
 7537 0308 1B68     		ldr	r3, [r3]
 7538 030a 0B60     		str	r3, [r1]
 7539              	.L464:
 7540              		.loc 6 1290 28 view .LVU2226
 7541              	.LBE1425:
1291:src/main.cpp  ****         } else if(f1_on && !f1_was_on){
1292:src/main.cpp  ****             float p    = clampf((float)tracked[0].pos / 1000.0f, 0.0f, 1.0f);
1293:src/main.cpp  ****             int   zone = (int)(p * 4.0f); if(zone > 3) zone = 3;
1294:src/main.cpp  ****             g_active_voice = MULTI_ZONES[zone];
1295:src/main.cpp  ****             float subp = p * 4.0f - (float)zone;                 // 0..1 within the zone
1296:src/main.cpp  ****             int   step = (int)(subp * (float)MULTI_NINTERVALS);
1297:src/main.cpp  ****             if(step >= MULTI_NINTERVALS) step = MULTI_NINTERVALS - 1;
1298:src/main.cpp  ****             multi_freq = VOICES[g_active_voice].freq_low * MULTI_INTERVALS[step];
1299:src/main.cpp  ****         }
1300:src/main.cpp  **** 
1301:src/main.cpp  ****         // Bind the active voice (a drum in MultiVoice mode) for the rest of the frame.
1302:src/main.cpp  ****         const Voice& VOICE = VOICES[g_active_voice];
 7542              		.loc 6 1302 9 is_stmt 1 view .LVU2227
 7543              		.loc 6 1302 37 is_stmt 0 view .LVU2228
 7544 030c 7E4B     		ldr	r3, .L706+4
 7545 030e 1D68     		ldr	r5, [r3]
 7546              	.LVL589:
1303:src/main.cpp  **** 
1304:src/main.cpp  ****         if(f1_on)
 7547              		.loc 6 1304 9 is_stmt 1 view .LVU2229
 7548              	.LBB1444:
 7549 0310 059B     		ldr	r3, [sp, #20]
 7550 0312 002B     		cmp	r3, #0
 7551 0314 40F0FC83 		bne	.L685
 7552              	.LVL590:
 7553              	.L468:
1305:src/main.cpp  ****         {
1306:src/main.cpp  ****             float pos01 = clampf((float)tracked[0].pos / 1000.0f, 0.0f, 1.0f);
1307:src/main.cpp  ****             float prs01 = clampf((float)tracked[0].pressure / 100.0f, 0.0f, 1.0f); // hard clamp
1308:src/main.cpp  **** 
1309:src/main.cpp  ****             // ŌöĆŌöĆ Direct exponential frequency mapping across the voice range ŌöĆŌöĆ
1310:src/main.cpp  ****             // freq = freq_low * (freq_high/freq_low)^pos01
1311:src/main.cpp  ****             //      = freq_low * e^(pos01 * log_freq_ratio)
1312:src/main.cpp  ****             float earg = pos01 * VOICE.log_freq_ratio;
1313:src/main.cpp  ****             float ex   = 1.0f + earg*(1.0f + earg*(0.5f + earg*0.1667f));
1314:src/main.cpp  ****             float freq_continuous = clampf(VOICE.freq_low * ex, VOICE.freq_low, VOICE.freq_high);
1315:src/main.cpp  **** 
1316:src/main.cpp  ****             // Convert to MIDI for quantizer: midi = 69 + 12*log2(freq/440)
1317:src/main.cpp  ****             // log2(x) = ln(x)/ln(2); ln approx via y=(x-1)/(x+1) series
1318:src/main.cpp  ****             float freq_ratio = freq_continuous / 440.0f;
1319:src/main.cpp  ****             float y = (freq_ratio - 1.0f) / (freq_ratio + 1.0f);
1320:src/main.cpp  ****             float y2 = y*y;
1321:src/main.cpp  ****             float ln_ratio = 2.0f*y*(1.0f + y2*(0.3333f + y2*0.2f));
1322:src/main.cpp  ****             float midi_raw = 69.0f + 17.3123f * ln_ratio; // 17.3123 = 12/ln(2)
ARM GAS  /tmp/claude-502/ccry90Vn.s 			page 200


1323:src/main.cpp  **** 
1324:src/main.cpp  ****             float freq; // final frequency to use
1325:src/main.cpp  **** 
1326:src/main.cpp  ****             if(multi)
1327:src/main.cpp  ****             {
1328:src/main.cpp  ****                 // MultiVoice: use the pitch latched at tap onset (zone interval).
1329:src/main.cpp  ****                 freq = multi_freq;
1330:src/main.cpp  ****                 f1_sliding = false;
1331:src/main.cpp  ****             }
1332:src/main.cpp  ****             else if(QUANTIZE_ENABLED && f1_fresh)
1333:src/main.cpp  ****             {
1334:src/main.cpp  ****                 // Touch-down: snap to nearest chromatic note
1335:src/main.cpp  ****                 f1_midi_base = quantize_midi(midi_raw);
1336:src/main.cpp  ****                 // Convert quantized MIDI back to Hz
1337:src/main.cpp  ****                 float qe = (f1_midi_base - 69.0f) * 0.05776f;
1338:src/main.cpp  ****                 freq = clampf(440.0f*(1.0f+qe*(1.0f+qe*(0.5f+qe*0.1667f))), VOICE.freq_low, VOICE.f
1339:src/main.cpp  ****                 f1_sliding = false;
1340:src/main.cpp  ****             }
1341:src/main.cpp  ****             else
1342:src/main.cpp  ****             {
1343:src/main.cpp  ****                 // Sliding or quantize disabled: follow continuous frequency directly
1344:src/main.cpp  ****                 f1_midi_base = f1_midi_base*0.88f + midi_raw*0.12f;
1345:src/main.cpp  ****                 freq = freq_continuous;
1346:src/main.cpp  ****                 f1_sliding = true;
1347:src/main.cpp  ****             }
1348:src/main.cpp  ****             freq = clampf(freq, VOICE.freq_low, VOICE.freq_high);
1349:src/main.cpp  **** 
1350:src/main.cpp  ****             // Cutoff: base tracks 2├Ś pitch, pressure opens it up
1351:src/main.cpp  ****             // Light press = 1├Ś pitch (dark, Moog-like tracking)
1352:src/main.cpp  ****             // Hard press = up to 12000 Hz (wide open)
1353:src/main.cpp  ****             // ŌöĆŌöĆ Moog-style exponential cutoff ŌöĆŌöĆŌöĆŌöĆŌöĆŌöĆŌöĆŌöĆŌöĆŌöĆŌöĆŌöĆŌöĆŌöĆŌöĆŌö
1354:src/main.cpp  ****             // At zero pressure: cutoff = 0.5x pitch (below fundamental, very dark)
1355:src/main.cpp  ****             // At full pressure: cutoff = 0.5x * 2^(6*prs) ŌĆö exponential opening
1356:src/main.cpp  ****             // 6 octaves of sweep = factor of 64x, so fully open = 32x pitch
1357:src/main.cpp  ****             // This gives the classic Moog "closed ŌåÆ wah ŌåÆ bright" feel.
1358:src/main.cpp  ****             // Power-3 on pressure so the bottom half stays dark and controlled.
1359:src/main.cpp  ****             // ŌöĆŌöĆ Smootherstep pressure curves (6xŌüĄ - 15xŌü┤ + 10x┬│) ŌöĆŌöĆŌöĆŌöĆŌöĆŌöĆŌöĆŌö
1360:src/main.cpp  ****             // Starts slow, steep in the middle, eases gently at the top.
1361:src/main.cpp  ****             // Much more playable than power curves ŌĆö feels like a real knob.
1362:src/main.cpp  ****             auto smoothstep = [](float x) -> float {
1363:src/main.cpp  ****                 x = x<0?0:x>1?1:x;
1364:src/main.cpp  ****                 return x*x*(3.0f - 2.0f*x);
1365:src/main.cpp  ****             };
1366:src/main.cpp  ****             auto smootherstep = [](float x) -> float {
1367:src/main.cpp  ****                 x = x<0?0:x>1?1:x;
1368:src/main.cpp  ****                 return x*x*x*(x*(x*6.0f - 15.0f) + 10.0f);
1369:src/main.cpp  ****             };
1370:src/main.cpp  **** 
1371:src/main.cpp  ****             // Cutoff: smootherstep ŌĆö very dark at low, dramatic in mid, eases at top.
1372:src/main.cpp  ****             // Base cutoff and sweep depth are voice-defined.
1373:src/main.cpp  ****             float prs_cut  = smootherstep(prs01);
1374:src/main.cpp  ****             float cutoff_oct = VOICE.cutoff_oct_max * prs_cut;
1375:src/main.cpp  ****             float oct_arg  = cutoff_oct * 0.6931f;
1376:src/main.cpp  ****             float oct_mult = 1.0f + oct_arg*(1.0f + oct_arg*(0.5f + oct_arg*(0.1667f + oct_arg*0.04
1377:src/main.cpp  ****             // Keytracking: how much the cutoff base follows pitch. keytrack=1 is
1378:src/main.cpp  ****             // full tracking (cutoff ŌłØ freq); <1 holds the cutoff lower as pitch
1379:src/main.cpp  ****             // rises, for a more consistent tone across the range. (constexpr ŌåÆ
ARM GAS  /tmp/claude-502/ccry90Vn.s 			page 201


1380:src/main.cpp  ****             // the common keytrack=1 case folds to no powf.)
1381:src/main.cpp  ****             float track_freq = (VOICE.keytrack >= 0.999f)
1382:src/main.cpp  ****                 ? freq
1383:src/main.cpp  ****                 : VOICE.freq_low * powf(freq / VOICE.freq_low, VOICE.keytrack);
1384:src/main.cpp  ****             float cutoff   = clampf(track_freq * VOICE.cutoff_mult * oct_mult, 20.0f, 18000.0f);
1385:src/main.cpp  **** 
1386:src/main.cpp  ****             // Vibrato: smoothstep, only activates above 60% pressure
1387:src/main.cpp  ****             float vib_in = clampf((prs01 - 0.6f) / 0.4f, 0.0f, 1.0f);
1388:src/main.cpp  ****             float vib    = smoothstep(vib_in) * 0.8f;
1389:src/main.cpp  **** 
1390:src/main.cpp  ****             // Drive: smoothstep ŌĆö clean at low, progressively warmer (voice-defined max)
1391:src/main.cpp  ****             float drive = 1.0f + smoothstep(prs01) * VOICE.drive_max;
1392:src/main.cpp  **** 
1393:src/main.cpp  ****             g_target_freq    = freq;
1394:src/main.cpp  ****             g_target_cutoff  = cutoff;
1395:src/main.cpp  ****             g_vibrato_depth  = vib;
1396:src/main.cpp  ****             g_target_drive   = drive;
1397:src/main.cpp  ****             g_finger_on      = true;
1398:src/main.cpp  ****             g_amp_target     = 0.72f;
1399:src/main.cpp  **** 
1400:src/main.cpp  ****         }
1401:src/main.cpp  ****         else
1402:src/main.cpp  ****         {
1403:src/main.cpp  ****             // Finger lifted: gate off, reset slide state
1404:src/main.cpp  ****             f1_sliding = false;
 7554              		.loc 6 1404 13 view .LVU2230
1405:src/main.cpp  ****             g_finger_on  = false;
 7555              		.loc 6 1405 13 view .LVU2231
1406:src/main.cpp  ****             g_amp_target = 0.0f;
 7556              		.loc 6 1406 26 is_stmt 0 view .LVU2232
 7557 0318 9FED7C6A 		vldr.32	s12, .L706+8
1405:src/main.cpp  ****             g_finger_on  = false;
 7558              		.loc 6 1405 26 view .LVU2233
 7559 031c 0023     		movs	r3, #0
 7560 031e 7C4A     		ldr	r2, .L706+12
 7561 0320 6C01     		lsls	r4, r5, #5
 7562              		.loc 6 1406 26 view .LVU2234
 7563 0322 F0EE467A 		vmov.f32	s15, s12
 7564              	.LBE1444:
 7565              	.LBB1517:
 7566              	.LBB1518:
1407:src/main.cpp  ****             // Do NOT reset cutoff here ŌĆö let it close with the amplitude
1408:src/main.cpp  ****             // in the audio callback to avoid discontinuity clicks
1409:src/main.cpp  ****         }
1410:src/main.cpp  **** 
1411:src/main.cpp  ****         // ŌöĆŌöĆ LED targets + slew ŌöĆŌöĆŌöĆŌöĆŌöĆŌöĆŌöĆŌöĆŌöĆŌöĆŌöĆŌöĆŌöĆŌöĆŌöĆŌöĆŌöĆŌöĆŌöĆŌöĆŌö
1412:src/main.cpp  ****         // Three-LED position indicator. Linear "tents" hand off cleanly:
1413:src/main.cpp  ****         //   LED1 (DAC1, middle)       ŌåÆ 1 - 2*|p - 0.5|
1414:src/main.cpp  ****         //   LED2 (DAC2, pos 0 end)    ŌåÆ max(0, 1 - 2*p)
1415:src/main.cpp  ****         //   LED3 (PWM A0, pos 1 end)  ŌåÆ max(0, 2*p - 1)
1416:src/main.cpp  ****         // Fourth-root curve (gamma=0.25) keeps each LED above its forward-voltage
1417:src/main.cpp  ****         // floor at the handoff points (50% raw ŌåÆ ~84% drive). Pressure adds a
1418:src/main.cpp  ****         // subtle ~75%ŌåÆ100% intensity scale.
1419:src/main.cpp  ****         float led1_target = 0.0f, led2_target = 0.0f, led3_target = 0.0f;
1420:src/main.cpp  ****         if(f1_on) {
1421:src/main.cpp  ****             float p01      = clampf((float)tracked[0].pos / 1000.0f, 0.0f, 1.0f);
1422:src/main.cpp  ****             float pr01     = clampf((float)tracked[0].pressure / 100.0f, 0.0f, 1.0f);
ARM GAS  /tmp/claude-502/ccry90Vn.s 			page 202


1423:src/main.cpp  ****             float prs_mult = 0.75f + 0.25f * pr01;
1424:src/main.cpp  ****             float l1_raw   = 1.0f - 2.0f * p01;                 if(l1_raw < 0) l1_raw = 0;
1425:src/main.cpp  ****             float l3_raw   = 2.0f * p01 - 1.0f;                 if(l3_raw < 0) l3_raw = 0;
1426:src/main.cpp  ****             float l2_raw   = 1.0f - 2.0f * fabsf(p01 - 0.5f);   if(l2_raw < 0) l2_raw = 0;
1427:src/main.cpp  ****             led1_target    = sqrtf(sqrtf(l2_raw)) * prs_mult;  // middle tent
1428:src/main.cpp  ****             led2_target    = sqrtf(sqrtf(l1_raw)) * prs_mult;  // pos 0 ramp
1429:src/main.cpp  ****             led3_target    = sqrtf(sqrtf(l3_raw)) * prs_mult * LED3_INTENSITY;
1430:src/main.cpp  ****         }
1431:src/main.cpp  ****         // Snap on touch onset so the LEDs respond instantly to the initial touch;
1432:src/main.cpp  ****         // smooth during sustained touch and on lift-off.
1433:src/main.cpp  ****         if(f1_on && !f1_was_on) {
1434:src/main.cpp  ****             s_led1 = led1_target;
1435:src/main.cpp  ****             s_led2 = led2_target;
1436:src/main.cpp  ****             s_led3 = led3_target;
1437:src/main.cpp  ****         } else {
1438:src/main.cpp  ****             float smooth3 = f1_on ? LED_SMOOTH : LED3_RELEASE_SMOOTH;
 7567              		.loc 6 1438 35 view .LVU2235
 7568 0326 DFED7B5A 		vldr.32	s11, .L706+16
 7569              	.LBE1518:
 7570              	.LBE1517:
 7571              	.LBB1521:
1406:src/main.cpp  ****             g_amp_target = 0.0f;
 7572              		.loc 6 1406 26 view .LVU2236
 7573 032a F0EE466A 		vmov.f32	s13, s12
1405:src/main.cpp  ****             g_amp_target = 0.0f;
 7574              		.loc 6 1405 26 view .LVU2237
 7575 032e 1370     		strb	r3, [r2]
1406:src/main.cpp  ****             g_amp_target = 0.0f;
 7576              		.loc 6 1406 13 is_stmt 1 view .LVU2238
1406:src/main.cpp  ****             g_amp_target = 0.0f;
 7577              		.loc 6 1406 26 is_stmt 0 view .LVU2239
 7578 0330 B0EE467A 		vmov.f32	s14, s12
 7579 0334 784B     		ldr	r3, .L706+20
 7580 0336 83ED006A 		vstr.32	s12, [r3]
 7581              	.LBE1521:
1419:src/main.cpp  ****         if(f1_on) {
 7582              		.loc 6 1419 9 is_stmt 1 view .LVU2240
 7583              	.LVL591:
1420:src/main.cpp  ****             float p01      = clampf((float)tracked[0].pos / 1000.0f, 0.0f, 1.0f);
 7584              		.loc 6 1420 9 view .LVU2241
1433:src/main.cpp  ****             s_led1 = led1_target;
 7585              		.loc 6 1433 9 view .LVU2242
 7586              	.L482:
 7587              	.LBB1522:
 7588              	.LBB1519:
1439:src/main.cpp  ****             s_led1 = s_led1 * LED_SMOOTH + led1_target * (1.0f - LED_SMOOTH);
 7589              		.loc 6 1439 13 discriminator 4 view .LVU2243
 7590              		.loc 6 1439 20 is_stmt 0 discriminator 4 view .LVU2244
 7591 033a 9FED786A 		vldr.32	s12, .L706+24
1440:src/main.cpp  ****             s_led2 = s_led2 * LED_SMOOTH + led2_target * (1.0f - LED_SMOOTH);
1441:src/main.cpp  ****             s_led3 = s_led3 * smooth3   + led3_target * (1.0f - smooth3);
 7592              		.loc 6 1441 20 discriminator 4 view .LVU2245
 7593 033e E9EEA57A 		vfma.f32	s15, s19, s11
1439:src/main.cpp  ****             s_led1 = s_led1 * LED_SMOOTH + led1_target * (1.0f - LED_SMOOTH);
 7594              		.loc 6 1439 20 discriminator 4 view .LVU2246
 7595 0342 AAEE067A 		vfma.f32	s14, s20, s12
1440:src/main.cpp  ****             s_led2 = s_led2 * LED_SMOOTH + led2_target * (1.0f - LED_SMOOTH);
ARM GAS  /tmp/claude-502/ccry90Vn.s 			page 203


 7596              		.loc 6 1440 20 discriminator 4 view .LVU2247
 7597 0346 EAEE866A 		vfma.f32	s13, s21, s12
 7598              		.loc 6 1441 20 discriminator 4 view .LVU2248
 7599 034a F0EE679A 		vmov.f32	s19, s15
 7600              	.LVL592:
1439:src/main.cpp  ****             s_led1 = s_led1 * LED_SMOOTH + led1_target * (1.0f - LED_SMOOTH);
 7601              		.loc 6 1439 20 discriminator 4 view .LVU2249
 7602 034e B0EE47AA 		vmov.f32	s20, s14
 7603              	.LVL593:
1440:src/main.cpp  ****             s_led2 = s_led2 * LED_SMOOTH + led2_target * (1.0f - LED_SMOOTH);
 7604              		.loc 6 1440 13 is_stmt 1 discriminator 4 view .LVU2250
1440:src/main.cpp  ****             s_led2 = s_led2 * LED_SMOOTH + led2_target * (1.0f - LED_SMOOTH);
 7605              		.loc 6 1440 20 is_stmt 0 discriminator 4 view .LVU2251
 7606 0352 F0EE66AA 		vmov.f32	s21, s13
 7607              	.LVL594:
 7608              		.loc 6 1441 13 is_stmt 1 discriminator 4 view .LVU2252
 7609              	.L512:
 7610              		.loc 6 1441 13 is_stmt 0 discriminator 4 view .LVU2253
 7611              	.LBE1519:
 7612              	.LBE1522:
1442:src/main.cpp  ****         }
1443:src/main.cpp  ****         hw.dac.WriteValue(DacHandle::Channel::ONE, (uint16_t)(s_led1 * 4095.0f));
 7613              		.loc 6 1443 9 is_stmt 1 view .LVU2254
 7614              		.loc 6 1443 70 is_stmt 0 view .LVU2255
 7615 0356 9FED728A 		vldr.32	s16, .L706+28
 7616              		.loc 6 1443 26 view .LVU2256
 7617 035a 0021     		movs	r1, #0
 7618 035c 7148     		ldr	r0, .L706+32
 7619              		.loc 6 1443 70 view .LVU2257
 7620 035e 6AEE087A 		vmul.f32	s15, s20, s16
 7621              		.loc 6 1443 26 view .LVU2258
 7622 0362 FCEEE77A 		vcvt.u32.f32	s15, s15
 7623 0366 17EE903A 		vmov	r3, s15	@ int
 7624 036a 9AB2     		uxth	r2, r3
 7625 036c FFF7FEFF 		bl	_ZN5daisy9DacHandle10WriteValueENS0_7ChannelEt
 7626              	.LVL595:
1444:src/main.cpp  ****         hw.dac.WriteValue(DacHandle::Channel::TWO, (uint16_t)(s_led2 * 4095.0f));
 7627              		.loc 6 1444 9 is_stmt 1 view .LVU2259
 7628              		.loc 6 1444 70 is_stmt 0 view .LVU2260
 7629 0370 6AEE887A 		vmul.f32	s15, s21, s16
 7630              		.loc 6 1444 26 view .LVU2261
 7631 0374 0121     		movs	r1, #1
 7632 0376 6B48     		ldr	r0, .L706+32
 7633 0378 FCEEE77A 		vcvt.u32.f32	s15, s15
 7634 037c 17EE903A 		vmov	r3, s15	@ int
 7635 0380 9AB2     		uxth	r2, r3
 7636 0382 FFF7FEFF 		bl	_ZN5daisy9DacHandle10WriteValueENS0_7ChannelEt
 7637              	.LVL596:
1445:src/main.cpp  ****         g_led3_duty = s_led3;  // audio callback sigma-delta's this onto A0
 7638              		.loc 6 1445 9 is_stmt 1 view .LVU2262
 7639              		.loc 6 1445 21 is_stmt 0 view .LVU2263
 7640 0386 684B     		ldr	r3, .L706+36
 7641 0388 C3ED009A 		vstr.32	s19, [r3]
1446:src/main.cpp  **** 
1447:src/main.cpp  ****         f1_was_on = f1_on;
 7642              		.loc 6 1447 9 is_stmt 1 view .LVU2264
 7643              	.LVL597:
ARM GAS  /tmp/claude-502/ccry90Vn.s 			page 204


1448:src/main.cpp  **** 
1449:src/main.cpp  ****         // ŌöĆŌöĆ Finger 2 ŌåÆ Detune + Bitcrush + Ring mod ŌöĆŌöĆŌöĆŌöĆŌöĆŌöĆŌöĆŌöĆŌöĆŌöĆŌöĆŌöĆŌöĆ
1450:src/main.cpp  ****         if(tracked[1].alive)
 7644              		.loc 6 1450 9 view .LVU2265
 7645              	.LBB1523:
 7646 038c 99F81430 		ldrb	r3, [r9, #20]	@ zero_extendqisi2
 7647 0390 002B     		cmp	r3, #0
 7648 0392 00F0DD80 		beq	.L513
 7649              	.LBB1524:
1451:src/main.cpp  ****         {
1452:src/main.cpp  ****             float pos01 = clampf((float)tracked[1].pos / 1000.0f, 0.0f, 1.0f);
 7650              		.loc 6 1452 13 view .LVU2266
 7651              		.loc 6 1452 34 is_stmt 0 view .LVU2267
 7652 0396 D9ED067A 		vldr.32	s15, [r9, #24]	@ int
 7653              		.loc 6 1452 33 view .LVU2268
 7654 039a DFED646A 		vldr.32	s13, .L706+40
 7655              		.loc 6 1452 34 view .LVU2269
 7656 039e F8EEE77A 		vcvt.f32.s32	s15, s15
 7657              		.loc 6 1452 33 view .LVU2270
 7658 03a2 87EEA67A 		vdiv.f32	s14, s15, s13
 7659              	.LVL598:
 7660              	.LBB1525:
 7661              	.LBI1525:
 626:src/main.cpp  ****     return v<lo?lo:v>hi?hi:v;
 7662              		.loc 6 626 21 is_stmt 1 view .LVU2271
 7663              	.LBB1526:
 627:src/main.cpp  **** }
 7664              		.loc 6 627 5 view .LVU2272
 627:src/main.cpp  **** }
 7665              		.loc 6 627 16 is_stmt 0 view .LVU2273
 7666 03a6 B5EEC07A 		vcmpe.f32	s14, #0
 7667 03aa F1EE10FA 		vmrs	APSR_nzcv, FPSCR
 7668 03ae 00F13F86 		bmi	.L589
 627:src/main.cpp  **** }
 7669              		.loc 6 627 24 view .LVU2274
 7670 03b2 F7EE007A 		vmov.f32	s15, #1.0e+0
 7671 03b6 B4EEE77A 		vcmpe.f32	s14, s15
 7672 03ba F1EE10FA 		vmrs	APSR_nzcv, FPSCR
 7673 03be 00F30787 		bgt	.L590
 7674              	.LBE1526:
 7675              	.LBE1525:
1453:src/main.cpp  ****             float prs01 = clampf((float)tracked[1].pressure / 100.0f, 0.0f, 1.0f); // hard clamp
1454:src/main.cpp  **** 
1455:src/main.cpp  ****             // Detune: finger 2 position maps to ┬▒7 semitones (┬▒1 fifth)
1456:src/main.cpp  ****             // Centre (pos=0.5) = no detune, left = flat, right = sharp
1457:src/main.cpp  ****             float detune_pos  = (pos01 - 0.5f) * 3.0f;  // ┬▒1.5 semitones raw
 7676              		.loc 6 1457 40 view .LVU2275
 7677 03c2 F6EE007A 		vmov.f32	s15, #5.0e-1
 7678              		.loc 6 1457 19 view .LVU2276
 7679 03c6 B0EE086A 		vmov.f32	s12, #3.0e+0
 7680              		.loc 6 1457 40 view .LVU2277
 7681 03ca 37EE677A 		vsub.f32	s14, s14, s15
 7682              	.LVL599:
 7683              		.loc 6 1457 19 view .LVU2278
 7684 03ce 27EE066A 		vmul.f32	s12, s14, s12
 7685              	.L514:
 7686              	.LVL600:
ARM GAS  /tmp/claude-502/ccry90Vn.s 			page 205


1453:src/main.cpp  ****             float prs01 = clampf((float)tracked[1].pressure / 100.0f, 0.0f, 1.0f); // hard clamp
 7687              		.loc 6 1453 13 is_stmt 1 view .LVU2279
1453:src/main.cpp  ****             float prs01 = clampf((float)tracked[1].pressure / 100.0f, 0.0f, 1.0f); // hard clamp
 7688              		.loc 6 1453 34 is_stmt 0 view .LVU2280
 7689 03d2 D9ED077A 		vldr.32	s15, [r9, #28]	@ int
1453:src/main.cpp  ****             float prs01 = clampf((float)tracked[1].pressure / 100.0f, 0.0f, 1.0f); // hard clamp
 7690              		.loc 6 1453 33 view .LVU2281
 7691 03d6 DFED566A 		vldr.32	s13, .L706+44
1453:src/main.cpp  ****             float prs01 = clampf((float)tracked[1].pressure / 100.0f, 0.0f, 1.0f); // hard clamp
 7692              		.loc 6 1453 34 view .LVU2282
 7693 03da F8EEE77A 		vcvt.f32.s32	s15, s15
1453:src/main.cpp  ****             float prs01 = clampf((float)tracked[1].pressure / 100.0f, 0.0f, 1.0f); // hard clamp
 7694              		.loc 6 1453 33 view .LVU2283
 7695 03de 87EEA67A 		vdiv.f32	s14, s15, s13
 7696              	.LVL601:
 7697              	.LBB1530:
 7698              	.LBI1530:
 626:src/main.cpp  ****     return v<lo?lo:v>hi?hi:v;
 7699              		.loc 6 626 21 is_stmt 1 view .LVU2284
 7700              	.LBB1531:
 627:src/main.cpp  **** }
 7701              		.loc 6 627 5 view .LVU2285
 627:src/main.cpp  **** }
 7702              		.loc 6 627 16 is_stmt 0 view .LVU2286
 7703 03e2 B5EEC07A 		vcmpe.f32	s14, #0
 7704 03e6 F1EE10FA 		vmrs	APSR_nzcv, FPSCR
 7705 03ea 00F1E185 		bmi	.L591
 627:src/main.cpp  **** }
 7706              		.loc 6 627 24 view .LVU2287
 7707 03ee F7EE006A 		vmov.f32	s13, #1.0e+0
 7708 03f2 B4EEE67A 		vcmpe.f32	s14, s13
 7709 03f6 F1EE10FA 		vmrs	APSR_nzcv, FPSCR
 7710 03fa 40F35A85 		ble	.L686
 7711 03fe F0EE667A 		vmov.f32	s15, s13
 7712              	.L515:
 7713              	.LVL602:
 627:src/main.cpp  **** }
 7714              		.loc 6 627 24 view .LVU2288
 7715              	.LBE1531:
 7716              	.LBE1530:
 7717              		.loc 6 1457 13 is_stmt 1 view .LVU2289
1458:src/main.cpp  **** 
1459:src/main.cpp  ****             // Wavefold: smootherstep ŌĆö barely there until deliberate pressure
1460:src/main.cpp  ****             auto smootherstep2 = [](float x) -> float {
 7718              		.loc 6 1460 13 view .LVU2290
1461:src/main.cpp  ****                 x = x<0?0:x>1?1:x;
1462:src/main.cpp  ****                 return x*x*x*(x*(x*6.0f - 15.0f) + 10.0f);
1463:src/main.cpp  ****             };
1464:src/main.cpp  ****             // Apply smootherstep twice and cap at 0.20 ŌĆö effect only arrives
1465:src/main.cpp  ****             // with real deliberate pressure, stays subtle even at max
1466:src/main.cpp  ****             float ss2 = smootherstep2(prs01);
 7719              		.loc 6 1466 13 view .LVU2291
 7720              	.LBB1533:
 7721              	.LBI1533:
1366:src/main.cpp  ****                 x = x<0?0:x>1?1:x;
 7722              		.loc 6 1366 33 view .LVU2292
 7723              	.LBB1534:
ARM GAS  /tmp/claude-502/ccry90Vn.s 			page 206


1367:src/main.cpp  ****                 return x*x*x*(x*(x*6.0f - 15.0f) + 10.0f);
 7724              		.loc 6 1367 17 view .LVU2293
1368:src/main.cpp  ****             };
 7725              		.loc 6 1368 17 view .LVU2294
1368:src/main.cpp  ****             };
 7726              		.loc 6 1368 17 is_stmt 0 view .LVU2295
 7727              	.LBE1534:
 7728              	.LBE1533:
1467:src/main.cpp  ****             float ss3 = smootherstep2(ss2);   // triple smootherstep ŌĆö very lazy
 7729              		.loc 6 1467 13 is_stmt 1 view .LVU2296
 7730              	.LBB1541:
 7731              	.LBI1541:
1366:src/main.cpp  ****                 x = x<0?0:x>1?1:x;
 7732              		.loc 6 1366 33 view .LVU2297
 7733              	.LBB1542:
1367:src/main.cpp  ****                 return x*x*x*(x*(x*6.0f - 15.0f) + 10.0f);
 7734              		.loc 6 1367 17 view .LVU2298
1367:src/main.cpp  ****                 return x*x*x*(x*(x*6.0f - 15.0f) + 10.0f);
 7735              		.loc 6 1367 17 is_stmt 0 view .LVU2299
 7736              	.LBE1542:
 7737              	.LBE1541:
 7738              	.LBB1546:
 7739              	.LBB1527:
 7740 0402 B0EE677A 		vmov.f32	s14, s15
 7741              	.LVL603:
 7742              	.L563:
1367:src/main.cpp  ****                 return x*x*x*(x*(x*6.0f - 15.0f) + 10.0f);
 7743              		.loc 6 1367 17 view .LVU2300
 7744              	.LBE1527:
 7745              	.LBE1546:
 7746              	.LBB1547:
 7747              	.LBB1543:
1368:src/main.cpp  ****             };
 7748              		.loc 6 1368 17 is_stmt 1 view .LVU2301
1368:src/main.cpp  ****             };
 7749              		.loc 6 1368 41 is_stmt 0 view .LVU2302
 7750 0406 FAEE0E5A 		vmov.f32	s11, #-1.5e+1
 7751 040a B1EE084A 		vmov.f32	s8, #6.0e+0
1368:src/main.cpp  ****             };
 7752              		.loc 6 1368 50 view .LVU2303
 7753 040e B2EE045A 		vmov.f32	s10, #1.0e+1
1368:src/main.cpp  ****             };
 7754              		.loc 6 1368 41 view .LVU2304
 7755 0412 F0EE653A 		vmov.f32	s7, s11
1368:src/main.cpp  ****             };
 7756              		.loc 6 1368 25 view .LVU2305
 7757 0416 67EEA76A 		vmul.f32	s13, s15, s15
1368:src/main.cpp  ****             };
 7758              		.loc 6 1368 50 view .LVU2306
 7759 041a F0EE454A 		vmov.f32	s9, s10
1368:src/main.cpp  ****             };
 7760              		.loc 6 1368 41 view .LVU2307
 7761 041e E7EE843A 		vfma.f32	s7, s15, s8
1368:src/main.cpp  ****             };
 7762              		.loc 6 1368 27 view .LVU2308
 7763 0422 66EEA76A 		vmul.f32	s13, s13, s15
1368:src/main.cpp  ****             };
ARM GAS  /tmp/claude-502/ccry90Vn.s 			page 207


 7764              		.loc 6 1368 50 view .LVU2309
 7765 0426 E3EEA74A 		vfma.f32	s9, s7, s15
1368:src/main.cpp  ****             };
 7766              		.loc 6 1368 57 view .LVU2310
 7767 042a 66EEA46A 		vmul.f32	s13, s13, s9
 7768              	.LVL604:
1368:src/main.cpp  ****             };
 7769              		.loc 6 1368 57 view .LVU2311
 7770              	.LBE1543:
 7771              	.LBE1547:
1468:src/main.cpp  ****             float bc  = smootherstep2(ss3) * VOICE.fold_max; // ceiling is voice-defined
 7772              		.loc 6 1468 13 is_stmt 1 view .LVU2312
 7773              	.LBB1548:
 7774              	.LBI1548:
1366:src/main.cpp  ****                 x = x<0?0:x>1?1:x;
 7775              		.loc 6 1366 33 view .LVU2313
 7776              	.LBB1549:
1367:src/main.cpp  ****                 return x*x*x*(x*(x*6.0f - 15.0f) + 10.0f);
 7777              		.loc 6 1367 17 view .LVU2314
1367:src/main.cpp  ****                 return x*x*x*(x*(x*6.0f - 15.0f) + 10.0f);
 7778              		.loc 6 1367 24 is_stmt 0 view .LVU2315
 7779 042e F5EEC06A 		vcmpe.f32	s13, #0
 7780 0432 F1EE10FA 		vmrs	APSR_nzcv, FPSCR
 7781 0436 40F10386 		bpl	.L669
 7782              	.LBE1549:
 7783              	.LBE1548:
1469:src/main.cpp  **** 
1470:src/main.cpp  ****             // Detune: smoothstep on position offset from centre
1471:src/main.cpp  ****             auto smoothstep2 = [](float x) -> float {
1472:src/main.cpp  ****                 x = x<0?0:x>1?1:x;
1473:src/main.cpp  ****                 return x*x*(3.0f - 2.0f*x);
1474:src/main.cpp  ****             };
1475:src/main.cpp  ****             // Detune amount scales with pressure via smoothstep ŌĆö no detune at low pressure
1476:src/main.cpp  ****             float det_prs = smoothstep2(prs01);
1477:src/main.cpp  **** 
1478:src/main.cpp  ****             // Ring mod: smoothstep, only above 85% pressure (ceiling voice-defined)
1479:src/main.cpp  ****             float rm_in = clampf((prs01 - 0.85f) / 0.15f, 0.0f, 1.0f);
 7784              		.loc 6 1479 41 view .LVU2316
 7785 043a DFED3E6A 		vldr.32	s13, .L706+48
 7786              	.LVL605:
 7787              		.loc 6 1479 33 view .LVU2317
 7788 043e 9FED3E5A 		vldr.32	s10, .L706+52
 7789              		.loc 6 1479 41 view .LVU2318
 7790 0442 77EE666A 		vsub.f32	s13, s14, s13
 7791              		.loc 6 1479 33 view .LVU2319
 7792 0446 DFED317A 		vldr.32	s15, .L706+8
 7793              	.LVL606:
 7794              		.loc 6 1479 33 view .LVU2320
 7795 044a C6EE855A 		vdiv.f32	s11, s13, s10
 7796              	.LVL607:
 7797              	.L519:
 7798              	.LBB1557:
 7799              	.LBB1550:
1368:src/main.cpp  ****             };
 7800              		.loc 6 1368 17 is_stmt 1 view .LVU2321
 7801              	.LBE1550:
 7802              	.LBE1557:
ARM GAS  /tmp/claude-502/ccry90Vn.s 			page 208


 7803              	.LBB1558:
 7804              	.LBB1559:
1472:src/main.cpp  ****                 return x*x*(3.0f - 2.0f*x);
 7805              		.loc 6 1472 24 is_stmt 0 view .LVU2322
 7806 044e 9FED2F5A 		vldr.32	s10, .L706+8
 7807              	.LBE1559:
 7808              	.LBE1558:
1468:src/main.cpp  **** 
 7809              		.loc 6 1468 52 view .LVU2323
 7810 0452 631B     		subs	r3, r4, r5
 7811 0454 394A     		ldr	r2, .L706+56
 7812 0456 02EB8303 		add	r3, r2, r3, lsl #2
 7813              	.LBB1565:
 7814              	.LBB1560:
1472:src/main.cpp  ****                 return x*x*(3.0f - 2.0f*x);
 7815              		.loc 6 1472 24 view .LVU2324
 7816 045a B4EEC57A 		vcmpe.f32	s14, s10
 7817              	.LBE1560:
 7818              	.LBE1565:
1468:src/main.cpp  **** 
 7819              		.loc 6 1468 52 view .LVU2325
 7820 045e D3ED186A 		vldr.32	s13, [r3, #96]
 7821              	.LBB1566:
 7822              	.LBB1561:
1472:src/main.cpp  ****                 return x*x*(3.0f - 2.0f*x);
 7823              		.loc 6 1472 24 view .LVU2326
 7824 0462 F1EE10FA 		vmrs	APSR_nzcv, FPSCR
 7825              	.LBE1561:
 7826              	.LBE1566:
1468:src/main.cpp  **** 
 7827              		.loc 6 1468 52 view .LVU2327
 7828 0466 67EEA67A 		vmul.f32	s15, s15, s13
 7829              	.LVL608:
1471:src/main.cpp  ****                 x = x<0?0:x>1?1:x;
 7830              		.loc 6 1471 13 is_stmt 1 view .LVU2328
1476:src/main.cpp  **** 
 7831              		.loc 6 1476 13 view .LVU2329
 7832              	.LBB1567:
 7833              	.LBI1558:
1471:src/main.cpp  ****                 x = x<0?0:x>1?1:x;
 7834              		.loc 6 1471 32 view .LVU2330
 7835              	.LBB1562:
1472:src/main.cpp  ****                 return x*x*(3.0f - 2.0f*x);
 7836              		.loc 6 1472 17 view .LVU2331
1472:src/main.cpp  ****                 return x*x*(3.0f - 2.0f*x);
 7837              		.loc 6 1472 24 is_stmt 0 view .LVU2332
 7838 046a 00F1E585 		bmi	.L687
1472:src/main.cpp  ****                 return x*x*(3.0f - 2.0f*x);
 7839              		.loc 6 1472 30 view .LVU2333
 7840 046e F7EE006A 		vmov.f32	s13, #1.0e+0
 7841 0472 B4EEE67A 		vcmpe.f32	s14, s13
 7842 0476 F1EE10FA 		vmrs	APSR_nzcv, FPSCR
 7843 047a 0BDC     		bgt	.L524
1473:src/main.cpp  ****             };
 7844              		.loc 6 1473 34 view .LVU2334
 7845 047c F0EE004A 		vmov.f32	s9, #2.0e+0
 7846 0480 B0EE085A 		vmov.f32	s10, #3.0e+0
ARM GAS  /tmp/claude-502/ccry90Vn.s 			page 209


 7847              	.LBE1562:
 7848              	.LBE1567:
 7849              	.LBB1568:
 7850              	.LBB1535:
1368:src/main.cpp  ****             };
 7851              		.loc 6 1368 25 view .LVU2335
 7852 0484 67EE076A 		vmul.f32	s13, s14, s14
 7853              	.LBE1535:
 7854              	.LBE1568:
 7855              	.LBB1569:
 7856              	.LBB1563:
1473:src/main.cpp  ****             };
 7857              		.loc 6 1473 34 view .LVU2336
 7858 0488 A7EE645A 		vfms.f32	s10, s14, s9
1473:src/main.cpp  ****             };
 7859              		.loc 6 1473 42 view .LVU2337
 7860 048c 26EE857A 		vmul.f32	s14, s13, s10
 7861              	.LVL609:
1473:src/main.cpp  ****             };
 7862              		.loc 6 1473 42 view .LVU2338
 7863              	.LBE1563:
 7864              	.LBE1569:
1480:src/main.cpp  ****             float rm    = smoothstep2(rm_in) * VOICE.ringmod_max;
1481:src/main.cpp  **** 
1482:src/main.cpp  ****             g_target_detune = detune_pos * det_prs; // pressure gates detune amount
 7865              		.loc 6 1482 42 view .LVU2339
 7866 0490 26EE076A 		vmul.f32	s12, s12, s14
 7867              	.L524:
 7868              	.LBB1570:
 7869              	.LBB1564:
1473:src/main.cpp  ****             };
 7870              		.loc 6 1473 17 is_stmt 1 view .LVU2340
 7871              	.LVL610:
1473:src/main.cpp  ****             };
 7872              		.loc 6 1473 17 is_stmt 0 view .LVU2341
 7873              	.LBE1564:
 7874              	.LBE1570:
1479:src/main.cpp  ****             float rm    = smoothstep2(rm_in) * VOICE.ringmod_max;
 7875              		.loc 6 1479 13 is_stmt 1 view .LVU2342
 7876              	.LBB1571:
 7877              	.LBI1571:
 626:src/main.cpp  ****     return v<lo?lo:v>hi?hi:v;
 7878              		.loc 6 626 21 view .LVU2343
 7879              	.LBB1572:
 627:src/main.cpp  **** }
 7880              		.loc 6 627 5 view .LVU2344
 627:src/main.cpp  **** }
 7881              		.loc 6 627 16 is_stmt 0 view .LVU2345
 7882 0494 F5EEC05A 		vcmpe.f32	s11, #0
 7883 0498 F1EE10FA 		vmrs	APSR_nzcv, FPSCR
 7884 049c 00F15E85 		bmi	.L595
 627:src/main.cpp  **** }
 7885              		.loc 6 627 24 view .LVU2346
 7886 04a0 B7EE007A 		vmov.f32	s14, #1.0e+0
 7887 04a4 F4EEC75A 		vcmpe.f32	s11, s14
 7888 04a8 F1EE10FA 		vmrs	APSR_nzcv, FPSCR
 7889 04ac 09DC     		bgt	.L525
ARM GAS  /tmp/claude-502/ccry90Vn.s 			page 210


 7890              	.LVL611:
 627:src/main.cpp  **** }
 7891              		.loc 6 627 24 view .LVU2347
 7892              	.LBE1572:
 7893              	.LBE1571:
1480:src/main.cpp  **** 
 7894              		.loc 6 1480 13 is_stmt 1 view .LVU2348
 7895              	.LBB1574:
 7896              	.LBI1574:
1471:src/main.cpp  ****                 x = x<0?0:x>1?1:x;
 7897              		.loc 6 1471 32 view .LVU2349
 7898              	.LBB1575:
1472:src/main.cpp  ****                 return x*x*(3.0f - 2.0f*x);
 7899              		.loc 6 1472 17 view .LVU2350
1473:src/main.cpp  ****             };
 7900              		.loc 6 1473 34 is_stmt 0 view .LVU2351
 7901 04ae B0EE005A 		vmov.f32	s10, #2.0e+0
 7902 04b2 F0EE086A 		vmov.f32	s13, #3.0e+0
1473:src/main.cpp  ****             };
 7903              		.loc 6 1473 25 view .LVU2352
 7904 04b6 25EEA57A 		vmul.f32	s14, s11, s11
1473:src/main.cpp  ****             };
 7905              		.loc 6 1473 34 view .LVU2353
 7906 04ba E5EEC56A 		vfms.f32	s13, s11, s10
1473:src/main.cpp  ****             };
 7907              		.loc 6 1473 42 view .LVU2354
 7908 04be 27EE267A 		vmul.f32	s14, s14, s13
 7909              	.LVL612:
 7910              	.L525:
1473:src/main.cpp  ****             };
 7911              		.loc 6 1473 17 is_stmt 1 view .LVU2355
 7912              	.LBE1575:
 7913              	.LBE1574:
 7914              		.loc 6 1482 29 is_stmt 0 view .LVU2356
 7915 04c2 1F4B     		ldr	r3, .L706+60
1480:src/main.cpp  **** 
 7916              		.loc 6 1480 54 view .LVU2357
 7917 04c4 1D4A     		ldr	r2, .L706+56
 7918              		.loc 6 1482 29 view .LVU2358
 7919 04c6 83ED006A 		vstr.32	s12, [r3]
1483:src/main.cpp  ****             g_bitcrush      = bc;
 7920              		.loc 6 1483 29 view .LVU2359
 7921 04ca 1E4B     		ldr	r3, .L706+64
 7922 04cc C3ED007A 		vstr.32	s15, [r3]
1480:src/main.cpp  **** 
 7923              		.loc 6 1480 54 view .LVU2360
 7924 04d0 631B     		subs	r3, r4, r5
 7925              	.LBE1524:
 7926              	.LBE1523:
1484:src/main.cpp  ****             g_ringmod       = rm;
1485:src/main.cpp  ****         }
1486:src/main.cpp  ****         else
1487:src/main.cpp  ****         {
1488:src/main.cpp  ****             // No second finger: return detune to zero, clear effects
1489:src/main.cpp  ****             g_target_detune = 0.0f;
1490:src/main.cpp  ****             g_bitcrush      = 0.0f;
1491:src/main.cpp  ****             g_ringmod       = 0.0f;
ARM GAS  /tmp/claude-502/ccry90Vn.s 			page 211


1492:src/main.cpp  ****         }
1493:src/main.cpp  **** 
1494:src/main.cpp  ****         // ŌöĆŌöĆ Serial display ŌöĆŌöĆŌöĆŌöĆŌöĆŌöĆŌöĆŌöĆŌöĆŌöĆŌöĆŌöĆŌöĆŌöĆŌöĆŌöĆŌöĆŌöĆŌöĆŌöĆŌöĆŌöĆ
1495:src/main.cpp  ****         frame_count++;
1496:src/main.cpp  ****         if(frame_count < print_every){ System::Delay(10); continue; }
1497:src/main.cpp  ****         frame_count = 0;
1498:src/main.cpp  **** 
1499:src/main.cpp  ****         if(g_voice_idx == MULTI_IDX)
1500:src/main.cpp  ****             hw.PrintLine("VOICE %d/%d  Drums [Kick|Snare|Tom|Hat]  -> %s",
1501:src/main.cpp  ****                 g_voice_idx + 1, NUM_VOICES, VOICE.name);
 7927              		.loc 6 1501 52 view .LVU2361
 7928 04d2 641B     		subs	r4, r4, r5
 7929              	.LBB1599:
 7930              	.LBB1593:
1480:src/main.cpp  **** 
 7931              		.loc 6 1480 54 view .LVU2362
 7932 04d4 02EB8303 		add	r3, r2, r3, lsl #2
 7933 04d8 D3ED177A 		vldr.32	s15, [r3, #92]
 7934              	.LVL613:
1484:src/main.cpp  ****             g_ringmod       = rm;
 7935              		.loc 6 1484 29 view .LVU2363
 7936 04dc 1A4B     		ldr	r3, .L706+68
1480:src/main.cpp  **** 
 7937              		.loc 6 1480 54 view .LVU2364
 7938 04de 67EE277A 		vmul.f32	s15, s14, s15
 7939              	.LVL614:
1482:src/main.cpp  ****             g_bitcrush      = bc;
 7940              		.loc 6 1482 13 is_stmt 1 view .LVU2365
1483:src/main.cpp  ****             g_ringmod       = rm;
 7941              		.loc 6 1483 13 view .LVU2366
1484:src/main.cpp  ****         }
 7942              		.loc 6 1484 13 view .LVU2367
1484:src/main.cpp  ****         }
 7943              		.loc 6 1484 29 is_stmt 0 view .LVU2368
 7944 04e2 C3ED007A 		vstr.32	s15, [r3]
 7945              	.LVL615:
1484:src/main.cpp  ****         }
 7946              		.loc 6 1484 29 view .LVU2369
 7947              	.LBE1593:
 7948              	.LBE1599:
1495:src/main.cpp  ****         if(frame_count < print_every){ System::Delay(10); continue; }
 7949              		.loc 6 1495 9 is_stmt 1 view .LVU2370
1496:src/main.cpp  ****         frame_count = 0;
 7950              		.loc 6 1496 9 view .LVU2371
1497:src/main.cpp  **** 
 7951              		.loc 6 1497 9 view .LVU2372
1499:src/main.cpp  ****             hw.PrintLine("VOICE %d/%d  Drums [Kick|Snare|Tom|Hat]  -> %s",
 7952              		.loc 6 1499 9 view .LVU2373
1499:src/main.cpp  ****             hw.PrintLine("VOICE %d/%d  Drums [Kick|Snare|Tom|Hat]  -> %s",
 7953              		.loc 6 1499 24 is_stmt 0 view .LVU2374
 7954 04e6 074B     		ldr	r3, .L706
 7955 04e8 1B68     		ldr	r3, [r3]
1499:src/main.cpp  ****             hw.PrintLine("VOICE %d/%d  Drums [Kick|Snare|Tom|Hat]  -> %s",
 7956              		.loc 6 1499 9 view .LVU2375
 7957 04ea 0C2B     		cmp	r3, #12
 7958 04ec 3CD1     		bne	.L527
 7959              	.LVL616:
ARM GAS  /tmp/claude-502/ccry90Vn.s 			page 212


 7960              	.L688:
1500:src/main.cpp  ****                 g_voice_idx + 1, NUM_VOICES, VOICE.name);
 7961              		.loc 6 1500 13 is_stmt 1 view .LVU2376
 7962              		.loc 6 1501 17 is_stmt 0 view .LVU2377
 7963 04ee 054A     		ldr	r2, .L706
 7964              	.LBB1600:
 7965              	.LBB1601:
 128:/Users/reza.kalfane/Workspaces/Daisy/DaisyExamples/libDaisy/src/daisy_seed.h ****     }
 7966              		.loc 1 128 23 view .LVU2378
 7967 04f0 124B     		ldr	r3, .L706+56
 7968              	.LBE1601:
 7969              	.LBE1600:
 7970              		.loc 6 1501 17 view .LVU2379
 7971 04f2 1168     		ldr	r1, [r2]
 7972              	.LVL617:
 7973              	.LBB1603:
 7974              	.LBI1600:
 126:/Users/reza.kalfane/Workspaces/Daisy/DaisyExamples/libDaisy/src/daisy_seed.h ****     {
 7975              		.loc 1 126 17 is_stmt 1 view .LVU2380
 7976              	.LBB1602:
 128:/Users/reza.kalfane/Workspaces/Daisy/DaisyExamples/libDaisy/src/daisy_seed.h ****     }
 7977              		.loc 1 128 23 is_stmt 0 view .LVU2381
 7978 04f4 0D22     		movs	r2, #13
 7979 04f6 53F82430 		ldr	r3, [r3, r4, lsl #2]
 7980 04fa 0131     		adds	r1, r1, #1
 7981              	.LVL618:
 128:/Users/reza.kalfane/Workspaces/Daisy/DaisyExamples/libDaisy/src/daisy_seed.h ****     }
 7982              		.loc 1 128 23 view .LVU2382
 7983 04fc 1348     		ldr	r0, .L706+72
 7984 04fe FFF7FEFF 		bl	_ZN5daisy6LoggerILNS_17LoggerDestinationE1EE9PrintLineEPKcz
 7985              	.LVL619:
 129:/Users/reza.kalfane/Workspaces/Daisy/DaisyExamples/libDaisy/src/daisy_seed.h **** 
 7986              		.loc 1 129 5 view .LVU2383
 7987 0502 49E0     		b	.L528
 7988              	.L707:
 7989              		.align	2
 7990              	.L706:
 7991 0504 00000000 		.word	.LANCHOR51
 7992 0508 00000000 		.word	.LANCHOR11
 7993 050c 00000000 		.word	0
 7994 0510 00000000 		.word	.LANCHOR54
 7995 0514 CDCCCC3D 		.word	1036831949
 7996 0518 00000000 		.word	.LANCHOR8
 7997 051c 6666E63E 		.word	1055286886
 7998 0520 00F07F45 		.word	1166012416
 7999 0524 20000000 		.word	.LANCHOR10+32
 8000 0528 00000000 		.word	.LANCHOR0
 8001 052c 00007A44 		.word	1148846080
 8002 0530 0000C842 		.word	1120403456
 8003 0534 9A99593F 		.word	1062836634
 8004 0538 9A99193E 		.word	1041865114
 8005 053c 00000000 		.word	.LANCHOR13
 8006 0540 00000000 		.word	.LANCHOR3
 8007 0544 00000000 		.word	.LANCHOR6
 8008 0548 00000000 		.word	.LANCHOR7
 8009 054c 50010000 		.word	.LC12
 8010              	.LVL620:
ARM GAS  /tmp/claude-502/ccry90Vn.s 			page 213


 8011              	.L513:
 129:/Users/reza.kalfane/Workspaces/Daisy/DaisyExamples/libDaisy/src/daisy_seed.h **** 
 8012              		.loc 1 129 5 view .LVU2384
 8013              	.LBE1602:
 8014              	.LBE1603:
 8015              	.LBB1604:
1489:src/main.cpp  ****             g_bitcrush      = 0.0f;
 8016              		.loc 6 1489 13 is_stmt 1 view .LVU2385
1489:src/main.cpp  ****             g_bitcrush      = 0.0f;
 8017              		.loc 6 1489 29 is_stmt 0 view .LVU2386
 8018 0550 0023     		movs	r3, #0
 8019 0552 C64A     		ldr	r2, .L708
 8020              	.LBE1604:
 8021              		.loc 6 1501 52 view .LVU2387
 8022 0554 641B     		subs	r4, r4, r5
 8023              	.LBB1605:
1489:src/main.cpp  ****             g_bitcrush      = 0.0f;
 8024              		.loc 6 1489 29 view .LVU2388
 8025 0556 1360     		str	r3, [r2]	@ float
1490:src/main.cpp  ****             g_ringmod       = 0.0f;
 8026              		.loc 6 1490 13 is_stmt 1 view .LVU2389
1490:src/main.cpp  ****             g_ringmod       = 0.0f;
 8027              		.loc 6 1490 29 is_stmt 0 view .LVU2390
 8028 0558 C54A     		ldr	r2, .L708+4
 8029 055a 1360     		str	r3, [r2]	@ float
1491:src/main.cpp  ****         }
 8030              		.loc 6 1491 13 is_stmt 1 view .LVU2391
1491:src/main.cpp  ****         }
 8031              		.loc 6 1491 29 is_stmt 0 view .LVU2392
 8032 055c C54A     		ldr	r2, .L708+8
 8033 055e 1360     		str	r3, [r2]	@ float
 8034              	.LBE1605:
1495:src/main.cpp  ****         if(frame_count < print_every){ System::Delay(10); continue; }
 8035              		.loc 6 1495 9 is_stmt 1 view .LVU2393
 8036              	.LVL621:
1496:src/main.cpp  ****         frame_count = 0;
 8037              		.loc 6 1496 9 view .LVU2394
1497:src/main.cpp  **** 
 8038              		.loc 6 1497 9 view .LVU2395
1499:src/main.cpp  ****             hw.PrintLine("VOICE %d/%d  Drums [Kick|Snare|Tom|Hat]  -> %s",
 8039              		.loc 6 1499 9 view .LVU2396
1499:src/main.cpp  ****             hw.PrintLine("VOICE %d/%d  Drums [Kick|Snare|Tom|Hat]  -> %s",
 8040              		.loc 6 1499 24 is_stmt 0 view .LVU2397
 8041 0560 C54B     		ldr	r3, .L708+12
 8042 0562 1B68     		ldr	r3, [r3]
1499:src/main.cpp  ****             hw.PrintLine("VOICE %d/%d  Drums [Kick|Snare|Tom|Hat]  -> %s",
 8043              		.loc 6 1499 9 view .LVU2398
 8044 0564 0C2B     		cmp	r3, #12
 8045 0566 C2D0     		beq	.L688
 8046              	.L527:
1502:src/main.cpp  ****         else
1503:src/main.cpp  ****             hw.PrintLine("VOICE %d/%d  %s  (%d-%dHz)",
 8047              		.loc 6 1503 13 is_stmt 1 view .LVU2399
1504:src/main.cpp  ****                 g_voice_idx + 1, NUM_VOICES, VOICE.name,
 8048              		.loc 6 1504 17 is_stmt 0 view .LVU2400
 8049 0568 C34B     		ldr	r3, .L708+12
 8050              	.LBB1606:
ARM GAS  /tmp/claude-502/ccry90Vn.s 			page 214


 8051              	.LBB1607:
 128:/Users/reza.kalfane/Workspaces/Daisy/DaisyExamples/libDaisy/src/daisy_seed.h ****     }
 8052              		.loc 1 128 23 view .LVU2401
 8053 056a C448     		ldr	r0, .L708+16
 8054              	.LBE1607:
 8055              	.LBE1606:
 8056              		.loc 6 1504 17 view .LVU2402
 8057 056c 1968     		ldr	r1, [r3]
 8058              	.LVL622:
 8059              	.LBB1612:
 8060              	.LBI1606:
 126:/Users/reza.kalfane/Workspaces/Daisy/DaisyExamples/libDaisy/src/daisy_seed.h ****     {
 8061              		.loc 1 126 17 is_stmt 1 view .LVU2403
 8062              	.LBE1612:
 8063              		.loc 6 1504 52 is_stmt 0 view .LVU2404
 8064 056e C44B     		ldr	r3, .L708+20
 8065              	.LBB1613:
 8066              	.LBB1608:
 128:/Users/reza.kalfane/Workspaces/Daisy/DaisyExamples/libDaisy/src/daisy_seed.h ****     }
 8067              		.loc 1 128 23 view .LVU2405
 8068 0570 0131     		adds	r1, r1, #1
 8069              	.LVL623:
 128:/Users/reza.kalfane/Workspaces/Daisy/DaisyExamples/libDaisy/src/daisy_seed.h ****     }
 8070              		.loc 1 128 23 view .LVU2406
 8071              	.LBE1608:
 8072              	.LBE1613:
 8073              		.loc 6 1504 52 view .LVU2407
 8074 0572 03EB8402 		add	r2, r3, r4, lsl #2
 8075              	.LBB1614:
 8076              	.LBB1609:
 128:/Users/reza.kalfane/Workspaces/Daisy/DaisyExamples/libDaisy/src/daisy_seed.h ****     }
 8077              		.loc 1 128 23 view .LVU2408
 8078 0576 53F82430 		ldr	r3, [r3, r4, lsl #2]
 8079              	.LBE1609:
 8080              	.LBE1614:
1503:src/main.cpp  ****                 g_voice_idx + 1, NUM_VOICES, VOICE.name,
 8081              		.loc 6 1503 25 view .LVU2409
 8082 057a 92ED027A 		vldr.32	s14, [r2, #8]
 8083 057e D2ED017A 		vldr.32	s15, [r2, #4]
 8084              	.LBB1615:
 8085              	.LBB1610:
 128:/Users/reza.kalfane/Workspaces/Daisy/DaisyExamples/libDaisy/src/daisy_seed.h ****     }
 8086              		.loc 1 128 23 view .LVU2410
 8087 0582 0D22     		movs	r2, #13
 8088              	.LBE1610:
 8089              	.LBE1615:
1503:src/main.cpp  ****                 g_voice_idx + 1, NUM_VOICES, VOICE.name,
 8090              		.loc 6 1503 25 view .LVU2411
 8091 0584 BDEEC77A 		vcvt.s32.f32	s14, s14
 8092 0588 FDEEE77A 		vcvt.s32.f32	s15, s15
 8093              	.LBB1616:
 8094              	.LBB1611:
 128:/Users/reza.kalfane/Workspaces/Daisy/DaisyExamples/libDaisy/src/daisy_seed.h ****     }
 8095              		.loc 1 128 23 view .LVU2412
 8096 058c 8DED017A 		vstr.32	s14, [sp, #4]	@ int
 8097 0590 CDED007A 		vstr.32	s15, [sp]	@ int
 8098 0594 FFF7FEFF 		bl	_ZN5daisy6LoggerILNS_17LoggerDestinationE1EE9PrintLineEPKcz
ARM GAS  /tmp/claude-502/ccry90Vn.s 			page 215


 8099              	.LVL624:
 8100              	.L528:
 128:/Users/reza.kalfane/Workspaces/Daisy/DaisyExamples/libDaisy/src/daisy_seed.h ****     }
 8101              		.loc 1 128 23 view .LVU2413
 8102              	.LBE1611:
 8103              	.LBE1616:
1505:src/main.cpp  ****                 (int)VOICE.freq_low, (int)VOICE.freq_high);
1506:src/main.cpp  ****         hw.PrintLine(" CH | DELTA | BAR");
 8104              		.loc 6 1506 9 is_stmt 1 view .LVU2414
 8105              	.LBB1617:
 8106              	.LBI1617:
 126:/Users/reza.kalfane/Workspaces/Daisy/DaisyExamples/libDaisy/src/daisy_seed.h ****     {
 8107              		.loc 1 126 17 view .LVU2415
 8108              	.LBB1618:
 128:/Users/reza.kalfane/Workspaces/Daisy/DaisyExamples/libDaisy/src/daisy_seed.h ****     }
 8109              		.loc 1 128 23 is_stmt 0 view .LVU2416
 8110 0598 BA48     		ldr	r0, .L708+24
 8111              	.LBE1618:
 8112              	.LBE1617:
 8113              	.LBB1620:
1507:src/main.cpp  ****         hw.PrintLine("----+-------+--------------------");
1508:src/main.cpp  ****         for(int i=0;i<N_CH;i++){
 8114              		.loc 6 1508 17 view .LVU2417
 8115 059a 0025     		movs	r5, #0
 8116              	.LBE1620:
 8117              	.LBB1642:
 8118              	.LBB1619:
 128:/Users/reza.kalfane/Workspaces/Daisy/DaisyExamples/libDaisy/src/daisy_seed.h ****     }
 8119              		.loc 1 128 23 view .LVU2418
 8120 059c FFF7FEFF 		bl	_ZN5daisy6LoggerILNS_17LoggerDestinationE1EE9PrintLineEPKcz
 8121              	.LVL625:
 128:/Users/reza.kalfane/Workspaces/Daisy/DaisyExamples/libDaisy/src/daisy_seed.h ****     }
 8122              		.loc 1 128 23 view .LVU2419
 8123              	.LBE1619:
 8124              	.LBE1642:
1507:src/main.cpp  ****         hw.PrintLine("----+-------+--------------------");
 8125              		.loc 6 1507 9 is_stmt 1 view .LVU2420
 8126              	.LBB1643:
 8127              	.LBI1643:
 126:/Users/reza.kalfane/Workspaces/Daisy/DaisyExamples/libDaisy/src/daisy_seed.h ****     {
 8128              		.loc 1 126 17 view .LVU2421
 8129              	.LBB1644:
 128:/Users/reza.kalfane/Workspaces/Daisy/DaisyExamples/libDaisy/src/daisy_seed.h ****     }
 8130              		.loc 1 128 23 is_stmt 0 view .LVU2422
 8131 05a0 B948     		ldr	r0, .L708+28
 8132              	.LBE1644:
 8133              	.LBE1643:
 8134              	.LBB1646:
 8135              	.LBB1621:
 8136              	.LBB1622:
 8137              	.LBB1623:
 981:src/main.cpp  ****     if(n>w)n=w;
 8138              		.loc 6 981 42 view .LVU2423
 8139 05a2 7B10     		asrs	r3, r7, #1
 8140 05a4 0493     		str	r3, [sp, #16]
 8141              	.LBE1623:
 8142              	.LBE1622:
ARM GAS  /tmp/claude-502/ccry90Vn.s 			page 216


 8143              	.LBE1621:
 8144              	.LBE1646:
 8145              	.LBB1647:
 8146              	.LBB1645:
 128:/Users/reza.kalfane/Workspaces/Daisy/DaisyExamples/libDaisy/src/daisy_seed.h ****     }
 8147              		.loc 1 128 23 view .LVU2424
 8148 05a6 FFF7FEFF 		bl	_ZN5daisy6LoggerILNS_17LoggerDestinationE1EE9PrintLineEPKcz
 8149              	.LVL626:
 128:/Users/reza.kalfane/Workspaces/Daisy/DaisyExamples/libDaisy/src/daisy_seed.h ****     }
 8150              		.loc 1 128 23 view .LVU2425
 8151              	.LBE1645:
 8152              	.LBE1647:
 8153              		.loc 6 1508 9 is_stmt 1 view .LVU2426
 8154              	.LBB1648:
 8155              		.loc 6 1508 22 view .LVU2427
 8156              	.L535:
 8157              	.LBB1639:
1509:src/main.cpp  ****             make_bar(bar,delta[i],max_delta,20);
 8158              		.loc 6 1509 13 view .LVU2428
 8159              		.loc 6 1509 21 is_stmt 0 view .LVU2429
 8160 05aa 58F8042B 		ldr	r2, [r8], #4
 8161              	.LVL627:
 8162              	.LBB1628:
 8163              	.LBI1622:
 979:src/main.cpp  **** {
 8164              		.loc 6 979 6 is_stmt 1 view .LVU2430
 8165              	.LBB1626:
 981:src/main.cpp  ****     if(n>w)n=w;
 8166              		.loc 6 981 5 view .LVU2431
 981:src/main.cpp  ****     if(n>w)n=w;
 8167              		.loc 6 981 25 is_stmt 0 view .LVU2432
 8168 05ae 002A     		cmp	r2, #0
 8169 05b0 40F33881 		ble	.L597
 981:src/main.cpp  ****     if(n>w)n=w;
 8170              		.loc 6 981 36 view .LVU2433
 8171 05b4 02EB8200 		add	r0, r2, r2, lsl #2
 981:src/main.cpp  ****     if(n>w)n=w;
 8172              		.loc 6 981 38 view .LVU2434
 8173 05b8 049B     		ldr	r3, [sp, #16]
 8174 05ba 03EB8000 		add	r0, r3, r0, lsl #2
 981:src/main.cpp  ****     if(n>w)n=w;
 8175              		.loc 6 981 25 view .LVU2435
 8176 05be B0FBF7F0 		udiv	r0, r0, r7
 8177 05c2 1428     		cmp	r0, #20
 8178 05c4 A8BF     		it	ge
 8179 05c6 1420     		movge	r0, #20
 8180              	.L529:
 982:src/main.cpp  ****     out[0]='[';
 8181              		.loc 6 982 5 is_stmt 1 view .LVU2436
 983:src/main.cpp  ****     for(int i=0;i<w;i++)out[1+i]=(i<n)?'#':' ';
 8182              		.loc 6 983 5 view .LVU2437
 983:src/main.cpp  ****     for(int i=0;i<w;i++)out[1+i]=(i<n)?'#':' ';
 8183              		.loc 6 983 11 is_stmt 0 view .LVU2438
 8184 05c8 5B23     		movs	r3, #91
 8185 05ca 0DF1A506 		add	r6, sp, #165
 8186 05ce 6FEA0A04 		mvn	r4, r10
 8187 05d2 8DF8A430 		strb	r3, [sp, #164]
ARM GAS  /tmp/claude-502/ccry90Vn.s 			page 217


 984:src/main.cpp  ****     out[1+w]=']';out[2+w]='\0';
 8188              		.loc 6 984 5 is_stmt 1 view .LVU2439
 8189              	.LVL628:
 8190              	.LBB1624:
 984:src/main.cpp  ****     out[1+w]=']';out[2+w]='\0';
 8191              		.loc 6 984 18 view .LVU2440
 8192              	.LBE1624:
 983:src/main.cpp  ****     for(int i=0;i<w;i++)out[1+i]=(i<n)?'#':' ';
 8193              		.loc 6 983 11 is_stmt 0 view .LVU2441
 8194 05d6 3346     		mov	r3, r6
 8195              	.LVL629:
 8196              	.L531:
 8197              	.LBB1625:
 984:src/main.cpp  ****     out[1+w]=']';out[2+w]='\0';
 8198              		.loc 6 984 25 is_stmt 1 view .LVU2442
 984:src/main.cpp  ****     out[1+w]=']';out[2+w]='\0';
 8199              		.loc 6 984 39 is_stmt 0 view .LVU2443
 8200 05d8 E118     		adds	r1, r4, r3
 8201 05da 8142     		cmp	r1, r0
 8202 05dc ACBF     		ite	ge
 8203 05de 2021     		movge	r1, #32
 8204 05e0 2321     		movlt	r1, #35
 984:src/main.cpp  ****     out[1+w]=']';out[2+w]='\0';
 8205              		.loc 6 984 33 view .LVU2444
 8206 05e2 03F8011B 		strb	r1, [r3], #1
 8207              	.LVL630:
 984:src/main.cpp  ****     out[1+w]=']';out[2+w]='\0';
 8208              		.loc 6 984 5 is_stmt 1 view .LVU2445
 984:src/main.cpp  ****     out[1+w]=']';out[2+w]='\0';
 8209              		.loc 6 984 18 view .LVU2446
 8210 05e6 9B45     		cmp	fp, r3
 8211 05e8 F6D1     		bne	.L531
 8212              	.LBE1625:
 985:src/main.cpp  **** }
 8213              		.loc 6 985 5 view .LVU2447
 985:src/main.cpp  **** }
 8214              		.loc 6 985 13 is_stmt 0 view .LVU2448
 8215 05ea 5D23     		movs	r3, #93
 8216              	.LVL631:
 985:src/main.cpp  **** }
 8217              		.loc 6 985 13 view .LVU2449
 8218 05ec 8DF8B930 		strb	r3, [sp, #185]
 985:src/main.cpp  **** }
 8219              		.loc 6 985 18 is_stmt 1 view .LVU2450
 985:src/main.cpp  **** }
 8220              		.loc 6 985 26 is_stmt 0 view .LVU2451
 8221 05f0 0023     		movs	r3, #0
 8222 05f2 8DF8BA30 		strb	r3, [sp, #186]
 8223              	.LVL632:
 985:src/main.cpp  **** }
 8224              		.loc 6 985 26 view .LVU2452
 8225              	.LBE1626:
 8226              	.LBE1628:
 8227              	.LBB1629:
1510:src/main.cpp  ****             char mk=' ';
1511:src/main.cpp  ****             for(int s=0;s<2;s++)
 8228              		.loc 6 1511 26 is_stmt 1 view .LVU2453
ARM GAS  /tmp/claude-502/ccry90Vn.s 			page 218


1512:src/main.cpp  ****                 if(tracked[s].alive&&i==tracked[s].peak_ch)mk=(char)('1'+s);
 8229              		.loc 6 1512 17 view .LVU2454
 8230 05f6 99F80030 		ldrb	r3, [r9]	@ zero_extendqisi2
 8231 05fa 002B     		cmp	r3, #0
 8232 05fc 00F01081 		beq	.L599
 8233              		.loc 6 1512 36 is_stmt 0 view .LVU2455
 8234 0600 D9F80C30 		ldr	r3, [r9, #12]
 8235              	.LBE1629:
1510:src/main.cpp  ****             char mk=' ';
 8236              		.loc 6 1510 18 view .LVU2456
 8237 0604 AB42     		cmp	r3, r5
 8238 0606 0CBF     		ite	eq
 8239 0608 3123     		moveq	r3, #49
 8240 060a 2023     		movne	r3, #32
 8241              	.L532:
 8242              	.LVL633:
 8243              	.LBB1630:
1511:src/main.cpp  ****                 if(tracked[s].alive&&i==tracked[s].peak_ch)mk=(char)('1'+s);
 8244              		.loc 6 1511 13 is_stmt 1 view .LVU2457
1511:src/main.cpp  ****                 if(tracked[s].alive&&i==tracked[s].peak_ch)mk=(char)('1'+s);
 8245              		.loc 6 1511 26 view .LVU2458
 8246              		.loc 6 1512 17 view .LVU2459
 8247 060c 99F81410 		ldrb	r1, [r9, #20]	@ zero_extendqisi2
 8248 0610 21B1     		cbz	r1, .L534
 8249              		.loc 6 1512 36 is_stmt 0 view .LVU2460
 8250 0612 D9F82010 		ldr	r1, [r9, #32]
 8251              	.LBE1630:
 8252              	.LBB1631:
 8253              	.LBB1632:
 128:/Users/reza.kalfane/Workspaces/Daisy/DaisyExamples/libDaisy/src/daisy_seed.h ****     }
 8254              		.loc 1 128 23 view .LVU2461
 8255 0616 A942     		cmp	r1, r5
 8256 0618 08BF     		it	eq
 8257 061a 3223     		moveq	r3, #50
 8258              	.LVL634:
 8259              	.L534:
 128:/Users/reza.kalfane/Workspaces/Daisy/DaisyExamples/libDaisy/src/daisy_seed.h ****     }
 8260              		.loc 1 128 23 view .LVU2462
 8261              	.LBE1632:
 8262              	.LBE1631:
 8263              	.LBB1635:
1511:src/main.cpp  ****                 if(tracked[s].alive&&i==tracked[s].peak_ch)mk=(char)('1'+s);
 8264              		.loc 6 1511 13 is_stmt 1 view .LVU2463
1511:src/main.cpp  ****                 if(tracked[s].alive&&i==tracked[s].peak_ch)mk=(char)('1'+s);
 8265              		.loc 6 1511 26 view .LVU2464
 8266              	.LBE1635:
1513:src/main.cpp  ****             hw.PrintLine(" %2d | %5d | %s %c",i,(int)delta[i],bar,mk);
 8267              		.loc 6 1513 13 view .LVU2465
 8268              	.LBB1636:
 8269              	.LBI1631:
 126:/Users/reza.kalfane/Workspaces/Daisy/DaisyExamples/libDaisy/src/daisy_seed.h ****     {
 8270              		.loc 1 126 17 view .LVU2466
 8271              	.LBB1633:
 128:/Users/reza.kalfane/Workspaces/Daisy/DaisyExamples/libDaisy/src/daisy_seed.h ****     }
 8272              		.loc 1 128 23 is_stmt 0 view .LVU2467
 8273 061c 2946     		mov	r1, r5
 8274              	.LBE1633:
ARM GAS  /tmp/claude-502/ccry90Vn.s 			page 219


 8275              	.LBE1636:
 8276              	.LBE1639:
1508:src/main.cpp  ****             make_bar(bar,delta[i],max_delta,20);
 8277              		.loc 6 1508 9 view .LVU2468
 8278 061e 0135     		adds	r5, r5, #1
 8279              	.LVL635:
 8280              	.LBB1640:
 8281              	.LBB1637:
 8282              	.LBB1634:
 128:/Users/reza.kalfane/Workspaces/Daisy/DaisyExamples/libDaisy/src/daisy_seed.h ****     }
 8283              		.loc 1 128 23 view .LVU2469
 8284 0620 0093     		str	r3, [sp]
 8285 0622 5346     		mov	r3, r10
 8286 0624 9948     		ldr	r0, .L708+32
 8287 0626 FFF7FEFF 		bl	_ZN5daisy6LoggerILNS_17LoggerDestinationE1EE9PrintLineEPKcz
 8288              	.LVL636:
 128:/Users/reza.kalfane/Workspaces/Daisy/DaisyExamples/libDaisy/src/daisy_seed.h ****     }
 8289              		.loc 1 128 23 view .LVU2470
 8290              	.LBE1634:
 8291              	.LBE1637:
 8292              	.LBE1640:
1508:src/main.cpp  ****             make_bar(bar,delta[i],max_delta,20);
 8293              		.loc 6 1508 9 is_stmt 1 view .LVU2471
1508:src/main.cpp  ****             make_bar(bar,delta[i],max_delta,20);
 8294              		.loc 6 1508 22 view .LVU2472
 8295 062a 0C2D     		cmp	r5, #12
 8296 062c BDD1     		bne	.L535
 8297              	.LBE1648:
1514:src/main.cpp  ****         }
1515:src/main.cpp  **** 
1516:src/main.cpp  ****         make_pos_bar(pos_bar,40);
 8298              		.loc 6 1516 9 view .LVU2473
 8299              	.LVL637:
 8300              	.LBB1649:
 8301              	.LBI1649:
 988:src/main.cpp  **** {
 8302              		.loc 6 988 6 view .LVU2474
 8303              	.LBB1650:
 990:src/main.cpp  ****     for(int i=0;i<w;i++)out[1+i]='-';
 8304              		.loc 6 990 5 view .LVU2475
 990:src/main.cpp  ****     for(int i=0;i<w;i++)out[1+i]='-';
 8305              		.loc 6 990 11 is_stmt 0 view .LVU2476
 8306 062e 7C25     		movs	r5, #124
 8307              	.LVL638:
 8308              	.LBB1651:
 991:src/main.cpp  ****     out[1+w]='|';out[2+w]='\0';
 8309              		.loc 6 991 33 view .LVU2477
 8310 0630 2D21     		movs	r1, #45
 8311 0632 2822     		movs	r2, #40
 8312 0634 0DF21D10 		addw	r0, sp, #285
 8313              	.LBE1651:
 990:src/main.cpp  ****     for(int i=0;i<w;i++)out[1+i]='-';
 8314              		.loc 6 990 11 view .LVU2478
 8315 0638 8DF81C51 		strb	r5, [sp, #284]
 991:src/main.cpp  ****     out[1+w]='|';out[2+w]='\0';
 8316              		.loc 6 991 5 is_stmt 1 view .LVU2479
 8317              	.LVL639:
ARM GAS  /tmp/claude-502/ccry90Vn.s 			page 220


 8318              	.LBB1652:
 991:src/main.cpp  ****     out[1+w]='|';out[2+w]='\0';
 8319              		.loc 6 991 18 view .LVU2480
 991:src/main.cpp  ****     out[1+w]='|';out[2+w]='\0';
 8320              		.loc 6 991 33 is_stmt 0 view .LVU2481
 8321 063c FFF7FEFF 		bl	memset
 8322              	.LVL640:
 991:src/main.cpp  ****     out[1+w]='|';out[2+w]='\0';
 8323              		.loc 6 991 33 view .LVU2482
 8324              	.LBE1652:
 992:src/main.cpp  ****     for(int slot=0;slot<2;slot++){
 8325              		.loc 6 992 5 is_stmt 1 view .LVU2483
 992:src/main.cpp  ****     for(int slot=0;slot<2;slot++){
 8326              		.loc 6 992 26 is_stmt 0 view .LVU2484
 8327 0640 0021     		movs	r1, #0
 8328              	.LBB1653:
 8329              	.LBB1654:
 994:src/main.cpp  ****         int p=(int)(((int64_t)tracked[slot].pos*(w-1)+500)/1000);
 8330              		.loc 6 994 9 view .LVU2485
 8331 0642 99F80030 		ldrb	r3, [r9]	@ zero_extendqisi2
 8332              	.LBE1654:
 8333              	.LBE1653:
 992:src/main.cpp  ****     for(int slot=0;slot<2;slot++){
 8334              		.loc 6 992 13 view .LVU2486
 8335 0646 8DF84551 		strb	r5, [sp, #325]
 992:src/main.cpp  ****     for(int slot=0;slot<2;slot++){
 8336              		.loc 6 992 18 is_stmt 1 view .LVU2487
 992:src/main.cpp  ****     for(int slot=0;slot<2;slot++){
 8337              		.loc 6 992 26 is_stmt 0 view .LVU2488
 8338 064a 8DF84611 		strb	r1, [sp, #326]
 993:src/main.cpp  ****         if(!tracked[slot].alive)continue;
 8339              		.loc 6 993 5 is_stmt 1 view .LVU2489
 8340              	.LVL641:
 8341              	.LBB1658:
 993:src/main.cpp  ****         if(!tracked[slot].alive)continue;
 8342              		.loc 6 993 24 view .LVU2490
 8343              	.LBB1655:
 994:src/main.cpp  ****         int p=(int)(((int64_t)tracked[slot].pos*(w-1)+500)/1000);
 8344              		.loc 6 994 9 view .LVU2491
 8345 064e BBB1     		cbz	r3, .L536
 995:src/main.cpp  ****         if(p<0)p=0;if(p>=w)p=w-1;
 8346              		.loc 6 995 9 view .LVU2492
 995:src/main.cpp  ****         if(p<0)p=0;if(p>=w)p=w-1;
 8347              		.loc 6 995 54 is_stmt 0 view .LVU2493
 8348 0650 D9F80430 		ldr	r3, [r9, #4]
 8349 0654 2722     		movs	r2, #39
 8350 0656 4FF4FA70 		mov	r0, #500
 995:src/main.cpp  ****         if(p<0)p=0;if(p>=w)p=w-1;
 8351              		.loc 6 995 59 view .LVU2494
 8352 065a C3FB0201 		smlal	r0, r1, r3, r2
 8353 065e 4FF47A72 		mov	r2, #1000
 8354 0662 0023     		movs	r3, #0
 8355 0664 FFF7FEFF 		bl	__aeabi_ldivmod
 8356              	.LVL642:
 996:src/main.cpp  ****         out[1+p]=(char)('1'+slot);
 8357              		.loc 6 996 9 is_stmt 1 view .LVU2495
 996:src/main.cpp  ****         out[1+p]=(char)('1'+slot);
ARM GAS  /tmp/claude-502/ccry90Vn.s 			page 221


 8358              		.loc 6 996 20 view .LVU2496
 8359 0668 2728     		cmp	r0, #39
 8360 066a 00F33382 		bgt	.L602
 997:src/main.cpp  ****     }
 8361              		.loc 6 997 14 is_stmt 0 view .LVU2497
 8362 066e 20EAE073 		bic	r3, r0, r0, asr #31
 8363              	.LVL643:
 997:src/main.cpp  ****     }
 8364              		.loc 6 997 14 view .LVU2498
 8365 0672 0133     		adds	r3, r3, #1
 8366              	.LVL644:
 8367              	.L537:
 997:src/main.cpp  ****     }
 8368              		.loc 6 997 9 is_stmt 1 view .LVU2499
 997:src/main.cpp  ****     }
 8369              		.loc 6 997 17 is_stmt 0 view .LVU2500
 8370 0674 03F5A873 		add	r3, r3, #336
 8371 0678 3122     		movs	r2, #49
 8372 067a 6B44     		add	r3, sp, r3
 8373 067c 03F8342C 		strb	r2, [r3, #-52]
 8374              	.L536:
 8375              	.LBE1655:
 993:src/main.cpp  ****         if(!tracked[slot].alive)continue;
 8376              		.loc 6 993 5 is_stmt 1 view .LVU2501
 8377              	.LVL645:
 993:src/main.cpp  ****         if(!tracked[slot].alive)continue;
 8378              		.loc 6 993 24 view .LVU2502
 8379              	.LBB1656:
 994:src/main.cpp  ****         int p=(int)(((int64_t)tracked[slot].pos*(w-1)+500)/1000);
 8380              		.loc 6 994 9 view .LVU2503
 8381 0680 99F81430 		ldrb	r3, [r9, #20]	@ zero_extendqisi2
 8382 0684 C3B1     		cbz	r3, .L538
 995:src/main.cpp  ****         if(p<0)p=0;if(p>=w)p=w-1;
 8383              		.loc 6 995 9 view .LVU2504
 995:src/main.cpp  ****         if(p<0)p=0;if(p>=w)p=w-1;
 8384              		.loc 6 995 54 is_stmt 0 view .LVU2505
 8385 0686 D9F81830 		ldr	r3, [r9, #24]
 8386 068a 2722     		movs	r2, #39
 8387 068c 4FF4FA70 		mov	r0, #500
 8388 0690 0021     		movs	r1, #0
 995:src/main.cpp  ****         if(p<0)p=0;if(p>=w)p=w-1;
 8389              		.loc 6 995 59 view .LVU2506
 8390 0692 C3FB0201 		smlal	r0, r1, r3, r2
 8391 0696 4FF47A72 		mov	r2, #1000
 8392 069a 0023     		movs	r3, #0
 8393 069c FFF7FEFF 		bl	__aeabi_ldivmod
 8394              	.LVL646:
 996:src/main.cpp  ****         out[1+p]=(char)('1'+slot);
 8395              		.loc 6 996 9 is_stmt 1 view .LVU2507
 996:src/main.cpp  ****         out[1+p]=(char)('1'+slot);
 8396              		.loc 6 996 20 view .LVU2508
 8397 06a0 2728     		cmp	r0, #39
 8398 06a2 00F31982 		bgt	.L603
 997:src/main.cpp  ****     }
 8399              		.loc 6 997 14 is_stmt 0 view .LVU2509
 8400 06a6 20EAE073 		bic	r3, r0, r0, asr #31
 8401              	.LVL647:
ARM GAS  /tmp/claude-502/ccry90Vn.s 			page 222


 997:src/main.cpp  ****     }
 8402              		.loc 6 997 14 view .LVU2510
 8403 06aa 0133     		adds	r3, r3, #1
 8404              	.LVL648:
 8405              	.L539:
 997:src/main.cpp  ****     }
 8406              		.loc 6 997 9 is_stmt 1 view .LVU2511
 997:src/main.cpp  ****     }
 8407              		.loc 6 997 17 is_stmt 0 view .LVU2512
 8408 06ac 03F5A873 		add	r3, r3, #336
 8409 06b0 3222     		movs	r2, #50
 8410 06b2 6B44     		add	r3, sp, r3
 8411 06b4 03F8342C 		strb	r2, [r3, #-52]
 8412              	.L538:
 8413              	.LBE1656:
 993:src/main.cpp  ****         if(!tracked[slot].alive)continue;
 8414              		.loc 6 993 5 is_stmt 1 view .LVU2513
 8415              	.LVL649:
 993:src/main.cpp  ****         if(!tracked[slot].alive)continue;
 8416              		.loc 6 993 24 view .LVU2514
 993:src/main.cpp  ****         if(!tracked[slot].alive)continue;
 8417              		.loc 6 993 24 is_stmt 0 view .LVU2515
 8418              	.LBE1658:
 8419              	.LBE1650:
 8420              	.LBE1649:
1517:src/main.cpp  ****         hw.PrintLine("\nPOS  %s",pos_bar);
 8421              		.loc 6 1517 9 is_stmt 1 view .LVU2516
 8422              	.LBB1661:
 8423              	.LBI1661:
 126:/Users/reza.kalfane/Workspaces/Daisy/DaisyExamples/libDaisy/src/daisy_seed.h ****     {
 8424              		.loc 1 126 17 view .LVU2517
 8425 06b8 754F     		ldr	r7, .L708+36
 8426              	.LBB1662:
 128:/Users/reza.kalfane/Workspaces/Daisy/DaisyExamples/libDaisy/src/daisy_seed.h ****     }
 8427              		.loc 1 128 23 is_stmt 0 view .LVU2518
 8428 06ba 47A9     		add	r1, sp, #284
 8429              	.LVL650:
 128:/Users/reza.kalfane/Workspaces/Daisy/DaisyExamples/libDaisy/src/daisy_seed.h ****     }
 8430              		.loc 1 128 23 view .LVU2519
 8431 06bc 7548     		ldr	r0, .L708+40
 8432 06be 4FF00108 		mov	r8, #1
 8433 06c2 FFF7FEFF 		bl	_ZN5daisy6LoggerILNS_17LoggerDestinationE1EE9PrintLineEPKcz
 8434              	.LVL651:
 128:/Users/reza.kalfane/Workspaces/Daisy/DaisyExamples/libDaisy/src/daisy_seed.h ****     }
 8435              		.loc 1 128 23 view .LVU2520
 8436              	.LBE1662:
 8437              	.LBE1661:
1518:src/main.cpp  **** 
1519:src/main.cpp  ****         // Always print both finger rows ŌĆö inactive shows dashes so line count is stable
1520:src/main.cpp  ****         for(int slot=0;slot<2;slot++){
 8438              		.loc 6 1520 9 is_stmt 1 view .LVU2521
 8439              	.LBB1663:
 8440              		.loc 6 1520 28 view .LVU2522
1521:src/main.cpp  ****             if(tracked[slot].alive){
 8441              		.loc 6 1521 13 view .LVU2523
 8442 06c6 3B78     		ldrb	r3, [r7]	@ zero_extendqisi2
 8443 06c8 0AF11105 		add	r5, r10, #17
ARM GAS  /tmp/claude-502/ccry90Vn.s 			page 223


 8444 06cc 002B     		cmp	r3, #0
 8445 06ce 00F0B180 		beq	.L540
 8446              	.LVL652:
 8447              	.L690:
1522:src/main.cpp  ****                 make_bar(bar,tracked[slot].pressure,100,16);
 8448              		.loc 6 1522 17 view .LVU2524
 8449              		.loc 6 1522 25 is_stmt 0 view .LVU2525
 8450 06d2 BB68     		ldr	r3, [r7, #8]
 8451              	.LVL653:
 8452              	.LBB1664:
 8453              	.LBI1664:
 979:src/main.cpp  **** {
 8454              		.loc 6 979 6 is_stmt 1 view .LVU2526
 8455              	.LBB1665:
 981:src/main.cpp  ****     if(n>w)n=w;
 8456              		.loc 6 981 5 view .LVU2527
 981:src/main.cpp  ****     if(n>w)n=w;
 8457              		.loc 6 981 25 is_stmt 0 view .LVU2528
 8458 06d4 002B     		cmp	r3, #0
 8459 06d6 40F3B280 		ble	.L604
 981:src/main.cpp  ****     if(n>w)n=w;
 8460              		.loc 6 981 36 view .LVU2529
 8461 06da 1801     		lsls	r0, r3, #4
 981:src/main.cpp  ****     if(n>w)n=w;
 8462              		.loc 6 981 25 view .LVU2530
 8463 06dc 6E4A     		ldr	r2, .L708+44
 981:src/main.cpp  ****     if(n>w)n=w;
 8464              		.loc 6 981 38 view .LVU2531
 8465 06de 3230     		adds	r0, r0, #50
 981:src/main.cpp  ****     if(n>w)n=w;
 8466              		.loc 6 981 25 view .LVU2532
 8467 06e0 A2FB0020 		umull	r2, r0, r2, r0
 8468 06e4 4009     		lsrs	r0, r0, #5
 8469 06e6 1028     		cmp	r0, #16
 8470 06e8 A8BF     		it	ge
 8471 06ea 1020     		movge	r0, #16
 8472              	.L541:
 982:src/main.cpp  ****     out[0]='[';
 8473              		.loc 6 982 5 is_stmt 1 view .LVU2533
 983:src/main.cpp  ****     for(int i=0;i<w;i++)out[1+i]=(i<n)?'#':' ';
 8474              		.loc 6 983 5 view .LVU2534
 983:src/main.cpp  ****     for(int i=0;i<w;i++)out[1+i]=(i<n)?'#':' ';
 8475              		.loc 6 983 11 is_stmt 0 view .LVU2535
 8476 06ec 5B22     		movs	r2, #91
 8477 06ee 8DF8A420 		strb	r2, [sp, #164]
 984:src/main.cpp  ****     out[1+w]=']';out[2+w]='\0';
 8478              		.loc 6 984 5 is_stmt 1 view .LVU2536
 8479              	.LVL654:
 8480              	.LBB1666:
 984:src/main.cpp  ****     out[1+w]=']';out[2+w]='\0';
 8481              		.loc 6 984 18 view .LVU2537
 8482              	.LBE1666:
 983:src/main.cpp  ****     for(int i=0;i<w;i++)out[1+i]=(i<n)?'#':' ';
 8483              		.loc 6 983 11 is_stmt 0 view .LVU2538
 8484 06f2 0DF1A502 		add	r2, sp, #165
 8485              	.LVL655:
 8486              	.L543:
ARM GAS  /tmp/claude-502/ccry90Vn.s 			page 224


 8487              	.LBB1667:
 984:src/main.cpp  ****     out[1+w]=']';out[2+w]='\0';
 8488              		.loc 6 984 25 is_stmt 1 view .LVU2539
 984:src/main.cpp  ****     out[1+w]=']';out[2+w]='\0';
 8489              		.loc 6 984 39 is_stmt 0 view .LVU2540
 8490 06f6 1119     		adds	r1, r2, r4
 8491 06f8 8142     		cmp	r1, r0
 8492 06fa ACBF     		ite	ge
 8493 06fc 2021     		movge	r1, #32
 8494 06fe 2321     		movlt	r1, #35
 984:src/main.cpp  ****     out[1+w]=']';out[2+w]='\0';
 8495              		.loc 6 984 33 view .LVU2541
 8496 0700 02F8011B 		strb	r1, [r2], #1
 8497              	.LVL656:
 984:src/main.cpp  ****     out[1+w]=']';out[2+w]='\0';
 8498              		.loc 6 984 5 is_stmt 1 view .LVU2542
 984:src/main.cpp  ****     out[1+w]=']';out[2+w]='\0';
 8499              		.loc 6 984 18 view .LVU2543
 8500 0704 AA42     		cmp	r2, r5
 8501 0706 F6D1     		bne	.L543
 8502              	.LBE1667:
 985:src/main.cpp  **** }
 8503              		.loc 6 985 5 view .LVU2544
 985:src/main.cpp  **** }
 8504              		.loc 6 985 13 is_stmt 0 view .LVU2545
 8505 0708 5D22     		movs	r2, #93
 8506              	.LVL657:
 985:src/main.cpp  **** }
 8507              		.loc 6 985 13 view .LVU2546
 8508              	.LBE1665:
 8509              	.LBE1664:
 8510              	.LBB1670:
 8511              	.LBB1671:
 128:/Users/reza.kalfane/Workspaces/Daisy/DaisyExamples/libDaisy/src/daisy_seed.h ****     }
 8512              		.loc 1 128 23 view .LVU2547
 8513 070a CDF800A0 		str	r10, [sp]
 8514 070e 4146     		mov	r1, r8
 8515 0710 6248     		ldr	r0, .L708+48
 8516              	.LBE1671:
 8517              	.LBE1670:
 8518              	.LBB1673:
 8519              	.LBB1668:
 985:src/main.cpp  **** }
 8520              		.loc 6 985 13 view .LVU2548
 8521 0712 8DF8B520 		strb	r2, [sp, #181]
 985:src/main.cpp  **** }
 8522              		.loc 6 985 18 is_stmt 1 view .LVU2549
 985:src/main.cpp  **** }
 8523              		.loc 6 985 26 is_stmt 0 view .LVU2550
 8524 0716 0022     		movs	r2, #0
 8525 0718 8DF8B620 		strb	r2, [sp, #182]
 8526              	.LVL658:
 985:src/main.cpp  **** }
 8527              		.loc 6 985 26 view .LVU2551
 8528              	.LBE1668:
 8529              	.LBE1673:
1523:src/main.cpp  ****                 hw.PrintLine("  %d  pos:%4d  prs:%3d%%  %s",
ARM GAS  /tmp/claude-502/ccry90Vn.s 			page 225


 8530              		.loc 6 1523 17 is_stmt 1 view .LVU2552
 8531              	.LBB1674:
 8532              	.LBI1670:
 126:/Users/reza.kalfane/Workspaces/Daisy/DaisyExamples/libDaisy/src/daisy_seed.h ****     {
 8533              		.loc 1 126 17 view .LVU2553
 8534              	.LBB1672:
 128:/Users/reza.kalfane/Workspaces/Daisy/DaisyExamples/libDaisy/src/daisy_seed.h ****     }
 8535              		.loc 1 128 23 is_stmt 0 view .LVU2554
 8536 071c 7A68     		ldr	r2, [r7, #4]
 8537 071e FFF7FEFF 		bl	_ZN5daisy6LoggerILNS_17LoggerDestinationE1EE9PrintLineEPKcz
 8538              	.LVL659:
 8539              	.L544:
 128:/Users/reza.kalfane/Workspaces/Daisy/DaisyExamples/libDaisy/src/daisy_seed.h ****     }
 8540              		.loc 1 128 23 view .LVU2555
 8541              	.LBE1672:
 8542              	.LBE1674:
1520:src/main.cpp  ****             if(tracked[slot].alive){
 8543              		.loc 6 1520 9 is_stmt 1 discriminator 2 view .LVU2556
1520:src/main.cpp  ****             if(tracked[slot].alive){
 8544              		.loc 6 1520 28 discriminator 2 view .LVU2557
 8545 0722 B8F1020F 		cmp	r8, #2
 8546 0726 07F11407 		add	r7, r7, #20
 8547 072a 7DD1     		bne	.L606
 8548              	.LBE1663:
1524:src/main.cpp  ****                     slot+1,(int)tracked[slot].pos,(int)tracked[slot].pressure,bar);
1525:src/main.cpp  ****             } else {
1526:src/main.cpp  ****                 hw.PrintLine("  %d  pos: ---  prs: --%%  [                ]",slot+1);
1527:src/main.cpp  ****             }
1528:src/main.cpp  ****         }
1529:src/main.cpp  **** 
1530:src/main.cpp  ****         // FSR (master-volume) pressure: unpressed = 0%, pressed to mute = 100%.
1531:src/main.cpp  ****         int fsr_pct = (int)((1.0f - vol) * 100.0f + 0.5f);
 8549              		.loc 6 1531 9 view .LVU2558
 8550              		.loc 6 1531 35 is_stmt 0 view .LVU2559
 8551 072c B7EE007A 		vmov.f32	s14, #1.0e+0
 8552              		.loc 6 1531 51 view .LVU2560
 8553 0730 DFED5B6A 		vldr.32	s13, .L708+52
 8554 0734 F6EE007A 		vmov.f32	s15, #5.0e-1
 8555              		.loc 6 1531 35 view .LVU2561
 8556 0738 37EE499A 		vsub.f32	s18, s14, s18
 8557              		.loc 6 1531 51 view .LVU2562
 8558 073c E9EE267A 		vfma.f32	s15, s18, s13
 8559              		.loc 6 1531 13 view .LVU2563
 8560 0740 FDEEE77A 		vcvt.s32.f32	s15, s15
 8561 0744 17EE903A 		vmov	r3, s15	@ int
 8562              	.LVL660:
1532:src/main.cpp  ****         if(fsr_pct < 0) fsr_pct = 0; else if(fsr_pct > 100) fsr_pct = 100;
 8563              		.loc 6 1532 9 is_stmt 1 view .LVU2564
 8564 0748 17EE901A 		vmov	r1, s15	@ int
 8565 074c 642B     		cmp	r3, #100
 8566 074e A8BF     		it	ge
 8567 0750 6421     		movge	r1, #100
 8568              	.LBB1678:
 8569              	.LBB1679:
 981:src/main.cpp  ****     if(n>w)n=w;
 8570              		.loc 6 981 25 is_stmt 0 view .LVU2565
 8571 0752 002B     		cmp	r3, #0
ARM GAS  /tmp/claude-502/ccry90Vn.s 			page 226


 8572 0754 21EAE171 		bic	r1, r1, r1, asr #31
 8573              	.LVL661:
 981:src/main.cpp  ****     if(n>w)n=w;
 8574              		.loc 6 981 25 view .LVU2566
 8575              	.LBE1679:
 8576              	.LBE1678:
1533:src/main.cpp  ****         make_bar(bar, fsr_pct, 100, 16);
 8577              		.loc 6 1533 9 is_stmt 1 view .LVU2567
 8578              	.LBB1684:
 8579              	.LBI1678:
 979:src/main.cpp  **** {
 8580              		.loc 6 979 6 view .LVU2568
 8581              	.LBB1681:
 981:src/main.cpp  ****     if(n>w)n=w;
 8582              		.loc 6 981 5 view .LVU2569
 981:src/main.cpp  ****     if(n>w)n=w;
 8583              		.loc 6 981 25 is_stmt 0 view .LVU2570
 8584 0758 73DD     		ble	.L607
 981:src/main.cpp  ****     if(n>w)n=w;
 8585              		.loc 6 981 36 view .LVU2571
 8586 075a 0A01     		lsls	r2, r1, #4
 981:src/main.cpp  ****     if(n>w)n=w;
 8587              		.loc 6 981 25 view .LVU2572
 8588 075c 4E4B     		ldr	r3, .L708+44
 981:src/main.cpp  ****     if(n>w)n=w;
 8589              		.loc 6 981 38 view .LVU2573
 8590 075e 3232     		adds	r2, r2, #50
 981:src/main.cpp  ****     if(n>w)n=w;
 8591              		.loc 6 981 25 view .LVU2574
 8592 0760 A3FB0232 		umull	r3, r2, r3, r2
 8593 0764 5209     		lsrs	r2, r2, #5
 8594              	.L546:
 8595              	.LVL662:
 982:src/main.cpp  ****     out[0]='[';
 8596              		.loc 6 982 5 is_stmt 1 view .LVU2575
 983:src/main.cpp  ****     for(int i=0;i<w;i++)out[1+i]=(i<n)?'#':' ';
 8597              		.loc 6 983 5 view .LVU2576
 983:src/main.cpp  ****     for(int i=0;i<w;i++)out[1+i]=(i<n)?'#':' ';
 8598              		.loc 6 983 11 is_stmt 0 view .LVU2577
 8599 0766 5B23     		movs	r3, #91
 8600 0768 8DF8A430 		strb	r3, [sp, #164]
 984:src/main.cpp  ****     out[1+w]=']';out[2+w]='\0';
 8601              		.loc 6 984 5 is_stmt 1 view .LVU2578
 8602              	.LVL663:
 8603              	.LBB1680:
 984:src/main.cpp  ****     out[1+w]=']';out[2+w]='\0';
 8604              		.loc 6 984 18 view .LVU2579
 8605              	.L548:
 984:src/main.cpp  ****     out[1+w]=']';out[2+w]='\0';
 8606              		.loc 6 984 25 view .LVU2580
 984:src/main.cpp  ****     out[1+w]=']';out[2+w]='\0';
 8607              		.loc 6 984 39 is_stmt 0 view .LVU2581
 8608 076c 3319     		adds	r3, r6, r4
 8609 076e 9A42     		cmp	r2, r3
 8610 0770 D4BF     		ite	le
 8611 0772 2023     		movle	r3, #32
 8612 0774 2323     		movgt	r3, #35
ARM GAS  /tmp/claude-502/ccry90Vn.s 			page 227


 984:src/main.cpp  ****     out[1+w]=']';out[2+w]='\0';
 8613              		.loc 6 984 33 view .LVU2582
 8614 0776 06F8013B 		strb	r3, [r6], #1
 8615              	.LVL664:
 984:src/main.cpp  ****     out[1+w]=']';out[2+w]='\0';
 8616              		.loc 6 984 5 is_stmt 1 view .LVU2583
 984:src/main.cpp  ****     out[1+w]=']';out[2+w]='\0';
 8617              		.loc 6 984 18 view .LVU2584
 8618 077a B542     		cmp	r5, r6
 8619 077c F6D1     		bne	.L548
 8620              	.LBE1680:
 985:src/main.cpp  **** }
 8621              		.loc 6 985 5 view .LVU2585
 985:src/main.cpp  **** }
 8622              		.loc 6 985 13 is_stmt 0 view .LVU2586
 8623 077e 5D23     		movs	r3, #93
 8624              	.LBE1681:
 8625              	.LBE1684:
 8626              	.LBB1685:
 8627              	.LBB1686:
 128:/Users/reza.kalfane/Workspaces/Daisy/DaisyExamples/libDaisy/src/daisy_seed.h ****     }
 8628              		.loc 1 128 23 view .LVU2587
 8629 0780 5246     		mov	r2, r10
 8630              	.LVL665:
 128:/Users/reza.kalfane/Workspaces/Daisy/DaisyExamples/libDaisy/src/daisy_seed.h ****     }
 8631              		.loc 1 128 23 view .LVU2588
 8632 0782 4848     		ldr	r0, .L708+56
 8633              	.LBE1686:
 8634              	.LBE1685:
 8635              	.LBB1688:
 8636              	.LBB1682:
 985:src/main.cpp  **** }
 8637              		.loc 6 985 13 view .LVU2589
 8638 0784 8DF8B530 		strb	r3, [sp, #181]
 985:src/main.cpp  **** }
 8639              		.loc 6 985 18 is_stmt 1 view .LVU2590
 985:src/main.cpp  **** }
 8640              		.loc 6 985 26 is_stmt 0 view .LVU2591
 8641 0788 0023     		movs	r3, #0
 8642 078a 8DF8B630 		strb	r3, [sp, #182]
 8643              	.LVL666:
 985:src/main.cpp  **** }
 8644              		.loc 6 985 26 view .LVU2592
 8645              	.LBE1682:
 8646              	.LBE1688:
1534:src/main.cpp  ****         hw.PrintLine(" FSR pressure  %3d%%  %s", fsr_pct, bar);
 8647              		.loc 6 1534 9 is_stmt 1 view .LVU2593
 8648              	.LBB1689:
 8649              	.LBI1685:
 126:/Users/reza.kalfane/Workspaces/Daisy/DaisyExamples/libDaisy/src/daisy_seed.h ****     {
 8650              		.loc 1 126 17 view .LVU2594
 8651              	.LBB1687:
 128:/Users/reza.kalfane/Workspaces/Daisy/DaisyExamples/libDaisy/src/daisy_seed.h ****     }
 8652              		.loc 1 128 23 is_stmt 0 view .LVU2595
 8653 078e FFF7FEFF 		bl	_ZN5daisy6LoggerILNS_17LoggerDestinationE1EE9PrintLineEPKcz
 8654              	.LVL667:
 128:/Users/reza.kalfane/Workspaces/Daisy/DaisyExamples/libDaisy/src/daisy_seed.h ****     }
ARM GAS  /tmp/claude-502/ccry90Vn.s 			page 228


 8655              		.loc 1 128 23 view .LVU2596
 8656              	.LBE1687:
 8657              	.LBE1689:
1535:src/main.cpp  **** 
1536:src/main.cpp  ****         // Audio param display ŌĆö fixed width, always same line count
1537:src/main.cpp  ****         int freq_i  = (int)g_target_freq;
 8658              		.loc 6 1537 9 is_stmt 1 view .LVU2597
 8659              		.loc 6 1537 23 is_stmt 0 view .LVU2598
 8660 0792 454B     		ldr	r3, .L708+60
1538:src/main.cpp  ****         int cut_i   = (int)g_target_cutoff;
1539:src/main.cpp  ****         int det_i10 = (int)(g_target_detune*10);
 8661              		.loc 6 1539 44 view .LVU2599
 8662 0794 F2EE044A 		vmov.f32	s9, #1.0e+1
1540:src/main.cpp  ****         int bc_i    = (int)(g_bitcrush*100);
 8663              		.loc 6 1540 39 view .LVU2600
 8664 0798 9FED415A 		vldr.32	s10, .L708+52
 8665              	.LVL668:
1537:src/main.cpp  ****         int cut_i   = (int)g_target_cutoff;
 8666              		.loc 6 1537 23 view .LVU2601
 8667 079c D3ED006A 		vldr.32	s13, [r3]
1538:src/main.cpp  ****         int cut_i   = (int)g_target_cutoff;
 8668              		.loc 6 1538 23 view .LVU2602
 8669 07a0 424B     		ldr	r3, .L708+64
1537:src/main.cpp  ****         int cut_i   = (int)g_target_cutoff;
 8670              		.loc 6 1537 28 view .LVU2603
 8671 07a2 FDEEE66A 		vcvt.s32.f32	s13, s13
1538:src/main.cpp  ****         int cut_i   = (int)g_target_cutoff;
 8672              		.loc 6 1538 23 view .LVU2604
 8673 07a6 93ED006A 		vldr.32	s12, [r3]
1539:src/main.cpp  ****         int bc_i    = (int)(g_bitcrush*100);
 8674              		.loc 6 1539 29 view .LVU2605
 8675 07aa 304B     		ldr	r3, .L708
1537:src/main.cpp  ****         int cut_i   = (int)g_target_cutoff;
 8676              		.loc 6 1537 28 view .LVU2606
 8677 07ac 16EE901A 		vmov	r1, s13	@ int
 8678              	.LVL669:
1538:src/main.cpp  ****         int det_i10 = (int)(g_target_detune*10);
 8679              		.loc 6 1538 9 is_stmt 1 view .LVU2607
1538:src/main.cpp  ****         int det_i10 = (int)(g_target_detune*10);
 8680              		.loc 6 1538 28 is_stmt 0 view .LVU2608
 8681 07b0 FDEEC66A 		vcvt.s32.f32	s13, s12
1539:src/main.cpp  ****         int bc_i    = (int)(g_bitcrush*100);
 8682              		.loc 6 1539 29 view .LVU2609
 8683 07b4 D3ED005A 		vldr.32	s11, [r3]
 8684              		.loc 6 1540 29 view .LVU2610
 8685 07b8 2D4B     		ldr	r3, .L708+4
1539:src/main.cpp  ****         int bc_i    = (int)(g_bitcrush*100);
 8686              		.loc 6 1539 44 view .LVU2611
 8687 07ba 65EEA45A 		vmul.f32	s11, s11, s9
1538:src/main.cpp  ****         int det_i10 = (int)(g_target_detune*10);
 8688              		.loc 6 1538 28 view .LVU2612
 8689 07be 16EE902A 		vmov	r2, s13	@ int
 8690              	.LVL670:
1539:src/main.cpp  ****         int bc_i    = (int)(g_bitcrush*100);
 8691              		.loc 6 1539 9 is_stmt 1 view .LVU2613
 8692              		.loc 6 1540 29 is_stmt 0 view .LVU2614
 8693 07c2 D3ED007A 		vldr.32	s15, [r3]
ARM GAS  /tmp/claude-502/ccry90Vn.s 			page 229


1541:src/main.cpp  ****         int vib_i   = (int)(g_vibrato_depth*100);
 8694              		.loc 6 1541 29 view .LVU2615
 8695 07c6 3A4B     		ldr	r3, .L708+68
1539:src/main.cpp  ****         int bc_i    = (int)(g_bitcrush*100);
 8696              		.loc 6 1539 47 view .LVU2616
 8697 07c8 FDEEE56A 		vcvt.s32.f32	s13, s11
 8698              		.loc 6 1541 29 view .LVU2617
 8699 07cc 93ED007A 		vldr.32	s14, [r3]
1540:src/main.cpp  ****         int vib_i   = (int)(g_vibrato_depth*100);
 8700              		.loc 6 1540 39 view .LVU2618
 8701 07d0 67EE857A 		vmul.f32	s15, s15, s10
1539:src/main.cpp  ****         int bc_i    = (int)(g_bitcrush*100);
 8702              		.loc 6 1539 47 view .LVU2619
 8703 07d4 16EE900A 		vmov	r0, s13	@ int
 8704              	.LVL671:
1540:src/main.cpp  ****         int vib_i   = (int)(g_vibrato_depth*100);
 8705              		.loc 6 1540 9 is_stmt 1 view .LVU2620
 8706              		.loc 6 1541 44 is_stmt 0 view .LVU2621
 8707 07d8 27EE057A 		vmul.f32	s14, s14, s10
1540:src/main.cpp  ****         int vib_i   = (int)(g_vibrato_depth*100);
 8708              		.loc 6 1540 43 view .LVU2622
 8709 07dc FDEEE77A 		vcvt.s32.f32	s15, s15
 8710              	.LVL672:
 8711              		.loc 6 1541 9 is_stmt 1 view .LVU2623
1542:src/main.cpp  ****         hw.PrintLine("  freq:%4dHz  cut:%5dHz  det:%c%d.%ds  fx:%2d%%  vib:%2d%%",
 8712              		.loc 6 1542 21 is_stmt 0 view .LVU2624
 8713 07e0 0028     		cmp	r0, #0
1541:src/main.cpp  ****         hw.PrintLine("  freq:%4dHz  cut:%5dHz  det:%c%d.%ds  fx:%2d%%  vib:%2d%%",
 8714              		.loc 6 1541 48 view .LVU2625
 8715 07e2 BDEEC77A 		vcvt.s32.f32	s14, s14
 8716              	.LVL673:
 8717              		.loc 6 1542 9 is_stmt 1 view .LVU2626
 8718              		.loc 6 1542 21 is_stmt 0 view .LVU2627
 8719 07e6 6FDB     		blt	.L689
 8720 07e8 324B     		ldr	r3, .L708+72
 8721 07ea C517     		asrs	r5, r0, #31
 8722 07ec 83FB0043 		smull	r4, r3, r3, r0
 8723 07f0 C5EBA305 		rsb	r5, r5, r3, asr #2
 8724 07f4 2B23     		movs	r3, #43
 8725 07f6 05EB8504 		add	r4, r5, r5, lsl #2
 8726 07fa A0EB4404 		sub	r4, r0, r4, lsl #1
 8727              	.LVL674:
 8728              	.L552:
 8729              	.LBB1690:
 8730              	.LBI1690:
 126:/Users/reza.kalfane/Workspaces/Daisy/DaisyExamples/libDaisy/src/daisy_seed.h ****     {
 8731              		.loc 1 126 17 is_stmt 1 discriminator 12 view .LVU2628
 8732              	.LBB1691:
 128:/Users/reza.kalfane/Workspaces/Daisy/DaisyExamples/libDaisy/src/daisy_seed.h ****     }
 8733              		.loc 1 128 23 is_stmt 0 discriminator 12 view .LVU2629
 8734 07fe 8DED037A 		vstr.32	s14, [sp, #12]	@ int
 8735 0802 CDED027A 		vstr.32	s15, [sp, #8]	@ int
 8736 0806 2C48     		ldr	r0, .L708+76
 8737 0808 CDE90054 		strd	r5, r4, [sp]
 8738              	.LBE1691:
 8739              	.LBE1690:
1280:src/main.cpp  ****         if(f1_on) f1_last_seen_ms = System::GetNow();
ARM GAS  /tmp/claude-502/ccry90Vn.s 			page 230


 8740              		.loc 6 1280 14 discriminator 12 view .LVU2630
 8741 080c 059D     		ldr	r5, [sp, #20]
 8742              	.LVL675:
 8743              	.LBB1693:
 8744              	.LBB1692:
 128:/Users/reza.kalfane/Workspaces/Daisy/DaisyExamples/libDaisy/src/daisy_seed.h ****     }
 8745              		.loc 1 128 23 discriminator 12 view .LVU2631
 8746 080e FFF7FEFF 		bl	_ZN5daisy6LoggerILNS_17LoggerDestinationE1EE9PrintLineEPKcz
 8747              	.LVL676:
 128:/Users/reza.kalfane/Workspaces/Daisy/DaisyExamples/libDaisy/src/daisy_seed.h ****     }
 8748              		.loc 1 128 23 discriminator 12 view .LVU2632
 8749              	.LBE1692:
 8750              	.LBE1693:
1543:src/main.cpp  ****             freq_i, cut_i,
1544:src/main.cpp  ****             det_i10<0?'-':'+',
1545:src/main.cpp  ****             det_i10<0?(-det_i10)/10:det_i10/10,
1546:src/main.cpp  ****             det_i10<0?(-det_i10)%10:det_i10%10,
1547:src/main.cpp  ****             bc_i, vib_i);
1548:src/main.cpp  ****         hw.PrintLine("--------------------------------------------");
 8751              		.loc 6 1548 9 is_stmt 1 discriminator 12 view .LVU2633
 8752              	.LBB1694:
 8753              	.LBI1694:
 126:/Users/reza.kalfane/Workspaces/Daisy/DaisyExamples/libDaisy/src/daisy_seed.h ****     {
 8754              		.loc 1 126 17 discriminator 12 view .LVU2634
 8755              	.LBB1695:
 128:/Users/reza.kalfane/Workspaces/Daisy/DaisyExamples/libDaisy/src/daisy_seed.h ****     }
 8756              		.loc 1 128 23 is_stmt 0 discriminator 12 view .LVU2635
 8757 0812 2A48     		ldr	r0, .L708+80
 8758 0814 FFF7FEFF 		bl	_ZN5daisy6LoggerILNS_17LoggerDestinationE1EE9PrintLineEPKcz
 8759              	.LVL677:
 128:/Users/reza.kalfane/Workspaces/Daisy/DaisyExamples/libDaisy/src/daisy_seed.h ****     }
 8760              		.loc 1 128 23 discriminator 12 view .LVU2636
 8761              	.LBE1695:
 8762              	.LBE1694:
1549:src/main.cpp  **** 
1550:src/main.cpp  ****         System::Delay(60);
 8763              		.loc 6 1550 9 is_stmt 1 discriminator 12 view .LVU2637
 8764              		.loc 6 1550 22 is_stmt 0 discriminator 12 view .LVU2638
 8765 0818 3C20     		movs	r0, #60
 8766 081a FFF7FEFF 		bl	_ZN5daisy6System5DelayEm
 8767              	.LVL678:
 8768 081e DEE4     		b	.L551
 8769              	.LVL679:
 8770              	.L599:
 8771              	.LBB1696:
 8772              	.LBB1641:
1510:src/main.cpp  ****             for(int s=0;s<2;s++)
 8773              		.loc 6 1510 18 view .LVU2639
 8774 0820 2023     		movs	r3, #32
 8775 0822 F3E6     		b	.L532
 8776              	.LVL680:
 8777              	.L597:
 8778              	.LBB1638:
 8779              	.LBB1627:
1510:src/main.cpp  ****             for(int s=0;s<2;s++)
 8780              		.loc 6 1510 18 view .LVU2640
 8781 0824 0020     		movs	r0, #0
ARM GAS  /tmp/claude-502/ccry90Vn.s 			page 231


 8782 0826 CFE6     		b	.L529
 8783              	.LVL681:
 8784              	.L606:
1510:src/main.cpp  ****             for(int s=0;s<2;s++)
 8785              		.loc 6 1510 18 view .LVU2641
 8786              	.LBE1627:
 8787              	.LBE1638:
 8788              	.LBE1641:
 8789              	.LBE1696:
 8790              	.LBB1697:
1521:src/main.cpp  ****                 make_bar(bar,tracked[slot].pressure,100,16);
 8791              		.loc 6 1521 13 view .LVU2642
 8792 0828 3B78     		ldrb	r3, [r7]	@ zero_extendqisi2
 8793 082a 4FF00208 		mov	r8, #2
 8794              	.LVL682:
1521:src/main.cpp  ****                 make_bar(bar,tracked[slot].pressure,100,16);
 8795              		.loc 6 1521 13 is_stmt 1 view .LVU2643
 8796 082e 002B     		cmp	r3, #0
 8797 0830 7FF44FAF 		bne	.L690
 8798              	.LVL683:
 8799              	.L540:
1526:src/main.cpp  ****             }
 8800              		.loc 6 1526 17 view .LVU2644
 8801              	.LBB1675:
 8802              	.LBI1675:
 126:/Users/reza.kalfane/Workspaces/Daisy/DaisyExamples/libDaisy/src/daisy_seed.h ****     {
 8803              		.loc 1 126 17 view .LVU2645
 8804              	.LBB1676:
 128:/Users/reza.kalfane/Workspaces/Daisy/DaisyExamples/libDaisy/src/daisy_seed.h ****     }
 8805              		.loc 1 128 23 is_stmt 0 view .LVU2646
 8806 0834 4146     		mov	r1, r8
 8807 0836 2248     		ldr	r0, .L708+84
 8808 0838 FFF7FEFF 		bl	_ZN5daisy6LoggerILNS_17LoggerDestinationE1EE9PrintLineEPKcz
 8809              	.LVL684:
 129:/Users/reza.kalfane/Workspaces/Daisy/DaisyExamples/libDaisy/src/daisy_seed.h **** 
 8810              		.loc 1 129 5 view .LVU2647
 8811 083c 71E7     		b	.L544
 8812              	.LVL685:
 8813              	.L604:
 129:/Users/reza.kalfane/Workspaces/Daisy/DaisyExamples/libDaisy/src/daisy_seed.h **** 
 8814              		.loc 1 129 5 view .LVU2648
 8815              	.LBE1676:
 8816              	.LBE1675:
 8817              	.LBB1677:
 8818              	.LBB1669:
 8819 083e 0020     		movs	r0, #0
 8820 0840 54E7     		b	.L541
 8821              	.LVL686:
 8822              	.L607:
 129:/Users/reza.kalfane/Workspaces/Daisy/DaisyExamples/libDaisy/src/daisy_seed.h **** 
 8823              		.loc 1 129 5 view .LVU2649
 8824              	.LBE1669:
 8825              	.LBE1677:
 8826              	.LBE1697:
 8827              	.LBB1698:
 8828              	.LBB1683:
 981:src/main.cpp  ****     if(n>w)n=w;
ARM GAS  /tmp/claude-502/ccry90Vn.s 			page 232


 8829              		.loc 6 981 25 view .LVU2650
 8830 0842 0022     		movs	r2, #0
 8831 0844 8FE7     		b	.L546
 8832              	.LVL687:
 8833              	.L679:
 981:src/main.cpp  ****     if(n>w)n=w;
 8834              		.loc 6 981 25 view .LVU2651
 8835              	.LBE1683:
 8836              	.LBE1698:
1213:src/main.cpp  ****         else                        vol = (float)(fsr_raw - FSR_MIN) * fsr_range_inv;
 8837              		.loc 6 1213 14 is_stmt 1 view .LVU2652
 8838 0846 0A9B     		ldr	r3, [sp, #40]
 8839 0848 9842     		cmp	r0, r3
 8840 084a 80F08B83 		bcs	.L565
1214:src/main.cpp  ****         g_master_vol = vol;
 8841              		.loc 6 1214 37 view .LVU2653
1214:src/main.cpp  ****         g_master_vol = vol;
 8842              		.loc 6 1214 59 is_stmt 0 view .LVU2654
 8843 084e A0F5FA50 		sub	r0, r0, #8000
 8844              	.LVL688:
1214:src/main.cpp  ****         g_master_vol = vol;
 8845              		.loc 6 1214 43 view .LVU2655
 8846 0852 07EE900A 		vmov	s15, r0	@ int
 8847 0856 B8EEE79A 		vcvt.f32.s32	s18, s15
1214:src/main.cpp  ****         g_master_vol = vol;
 8848              		.loc 6 1214 41 view .LVU2656
 8849 085a 29EE2B9A 		vmul.f32	s18, s18, s23
 8850              	.LVL689:
 8851              	.L424:
1215:src/main.cpp  **** 
 8852              		.loc 6 1215 9 is_stmt 1 view .LVU2657
1215:src/main.cpp  **** 
 8853              		.loc 6 1215 22 is_stmt 0 view .LVU2658
 8854 085e 194B     		ldr	r3, .L708+88
 8855 0860 83ED009A 		vstr.32	s18, [r3]
1221:src/main.cpp  ****         if(!fsr_pressed){
 8856              		.loc 6 1221 9 is_stmt 1 view .LVU2659
1222:src/main.cpp  ****             fsr_hold_start = 0;                    // released ŌåÆ disarm
 8857              		.loc 6 1222 9 view .LVU2660
 8858              	.LBB1699:
1223:src/main.cpp  ****         } else {
 8859              		.loc 6 1223 28 is_stmt 0 view .LVU2661
 8860 0864 0023     		movs	r3, #0
 8861 0866 0993     		str	r3, [sp, #36]
 8862              	.LVL690:
1223:src/main.cpp  ****         } else {
 8863              		.loc 6 1223 28 view .LVU2662
 8864 0868 D5E4     		b	.L425
 8865              	.L709:
 8866 086a 00BF     		.align	2
 8867              	.L708:
 8868 086c 00000000 		.word	.LANCHOR3
 8869 0870 00000000 		.word	.LANCHOR6
 8870 0874 00000000 		.word	.LANCHOR7
 8871 0878 00000000 		.word	.LANCHOR51
 8872 087c 80010000 		.word	.LC13
 8873 0880 00000000 		.word	.LANCHOR13
ARM GAS  /tmp/claude-502/ccry90Vn.s 			page 233


 8874 0884 9C010000 		.word	.LC14
 8875 0888 B0010000 		.word	.LC15
 8876 088c D4010000 		.word	.LC16
 8877 0890 00000000 		.word	.LANCHOR48
 8878 0894 E8010000 		.word	.LC17
 8879 0898 1F85EB51 		.word	1374389535
 8880 089c F4010000 		.word	.LC18
 8881 08a0 0000C842 		.word	1120403456
 8882 08a4 44020000 		.word	.LC20
 8883 08a8 00000000 		.word	.LANCHOR1
 8884 08ac 00000000 		.word	.LANCHOR2
 8885 08b0 00000000 		.word	.LANCHOR5
 8886 08b4 67666666 		.word	1717986919
 8887 08b8 60020000 		.word	.LC21
 8888 08bc 9C020000 		.word	.LC22
 8889 08c0 14020000 		.word	.LC19
 8890 08c4 00000000 		.word	.LANCHOR9
 8891              	.LVL691:
 8892              	.L689:
1223:src/main.cpp  ****         } else {
 8893              		.loc 6 1223 28 view .LVU2663
 8894              	.LBE1699:
1546:src/main.cpp  ****             bc_i, vib_i);
 8895              		.loc 6 1546 24 view .LVU2664
 8896 08c8 4342     		rsbs	r3, r0, #0
1542:src/main.cpp  ****             freq_i, cut_i,
 8897              		.loc 6 1542 21 view .LVU2665
 8898 08ca 844C     		ldr	r4, .L710
 8899 08cc A4FB0354 		umull	r5, r4, r4, r3
 8900 08d0 E408     		lsrs	r4, r4, #3
 8901 08d2 04EB8404 		add	r4, r4, r4, lsl #2
 8902 08d6 A3EB4404 		sub	r4, r3, r4, lsl #1
 8903 08da 814B     		ldr	r3, .L710+4
 8904 08dc 83FB0053 		smull	r5, r3, r3, r0
 8905 08e0 C017     		asrs	r0, r0, #31
 8906              	.LVL692:
1542:src/main.cpp  ****             freq_i, cut_i,
 8907              		.loc 6 1542 21 view .LVU2666
 8908 08e2 A0EBA305 		sub	r5, r0, r3, asr #2
 8909 08e6 2D23     		movs	r3, #45
 8910 08e8 89E7     		b	.L552
 8911              	.LVL693:
 8912              	.L431:
1259:src/main.cpp  ****                 tracked[0].alive=tracked[1].alive=false;
 8913              		.loc 6 1259 13 is_stmt 1 view .LVU2667
1259:src/main.cpp  ****                 tracked[0].alive=tracked[1].alive=false;
 8914              		.loc 6 1259 30 is_stmt 0 view .LVU2668
 8915 08ea FFF7FEFF 		bl	_ZN5daisy6System6GetNowEv
 8916              	.LVL694:
1259:src/main.cpp  ****                 tracked[0].alive=tracked[1].alive=false;
 8917              		.loc 6 1259 32 view .LVU2669
 8918 08ee 069B     		ldr	r3, [sp, #24]
 8919 08f0 C01A     		subs	r0, r0, r3
1259:src/main.cpp  ****                 tracked[0].alive=tracked[1].alive=false;
 8920              		.loc 6 1259 13 view .LVU2670
 8921 08f2 B0F5FA6F 		cmp	r0, #2000
 8922 08f6 80F02684 		bcs	.L691
ARM GAS  /tmp/claude-502/ccry90Vn.s 			page 234


 8923              	.L433:
1268:src/main.cpp  ****             last_touch_ms = System::GetNow();
 8924              		.loc 6 1268 9 is_stmt 1 view .LVU2671
1270:src/main.cpp  ****             idle_chase_and_calibrate();
 8925              		.loc 6 1270 16 view .LVU2672
1270:src/main.cpp  ****             idle_chase_and_calibrate();
 8926              		.loc 6 1270 33 is_stmt 0 view .LVU2673
 8927 08fa FFF7FEFF 		bl	_ZN5daisy6System6GetNowEv
 8928              	.LVL695:
1270:src/main.cpp  ****             idle_chase_and_calibrate();
 8929              		.loc 6 1270 36 view .LVU2674
 8930 08fe 079B     		ldr	r3, [sp, #28]
 8931 0900 C01A     		subs	r0, r0, r3
1270:src/main.cpp  ****             idle_chase_and_calibrate();
 8932              		.loc 6 1270 16 view .LVU2675
 8933 0902 41F28733 		movw	r3, #4999
 8934 0906 9842     		cmp	r0, r3
 8935 0908 7FF6E9AC 		bls	.L432
1271:src/main.cpp  ****             last_touch_ms = System::GetNow();
 8936              		.loc 6 1271 13 is_stmt 1 view .LVU2676
 8937              	.LVL696:
 8938              	.LBB1700:
 8939              	.LBI1700:
1074:src/main.cpp  ****         uint32_t start = System::GetNow();
 8940              		.loc 6 1074 37 view .LVU2677
 8941              	.LBB1701:
 8942              	.LBB1702:
1075:src/main.cpp  ****         uint32_t acc = 0; int n = 0;
 8943              		.loc 6 1075 9 view .LVU2678
1077:src/main.cpp  ****         constexpr uint32_t SWEEP_PERIOD_MS = 12000;  // one 0ŌåÆ1ŌåÆ0 cycle
 8944              		.loc 6 1077 18 is_stmt 0 view .LVU2679
 8945 090c 0022     		movs	r2, #0
1076:src/main.cpp  ****         bool     calibrated = false;
 8946              		.loc 6 1076 18 view .LVU2680
 8947 090e 0DEE106A 		vmov	s26, r6	@ int
1077:src/main.cpp  ****         constexpr uint32_t SWEEP_PERIOD_MS = 12000;  // one 0ŌåÆ1ŌåÆ0 cycle
 8948              		.loc 6 1077 18 view .LVU2681
 8949 0912 1446     		mov	r4, r2
1075:src/main.cpp  ****         uint32_t acc = 0; int n = 0;
 8950              		.loc 6 1075 40 view .LVU2682
 8951 0914 FFF7FEFF 		bl	_ZN5daisy6System6GetNowEv
 8952              	.LVL697:
1076:src/main.cpp  ****         bool     calibrated = false;
 8953              		.loc 6 1076 9 is_stmt 1 view .LVU2683
1076:src/main.cpp  ****         bool     calibrated = false;
 8954              		.loc 6 1076 27 view .LVU2684
1077:src/main.cpp  ****         constexpr uint32_t SWEEP_PERIOD_MS = 12000;  // one 0ŌåÆ1ŌåÆ0 cycle
 8955              		.loc 6 1077 9 view .LVU2685
1078:src/main.cpp  ****         constexpr float    TAU             = 6.2831853f;
 8956              		.loc 6 1078 9 view .LVU2686
1079:src/main.cpp  ****         uint16_t scan[N_CH];
 8957              		.loc 6 1079 9 view .LVU2687
1076:src/main.cpp  ****         bool     calibrated = false;
 8958              		.loc 6 1076 18 is_stmt 0 view .LVU2688
 8959 0918 0697     		str	r7, [sp, #24]
 8960              	.LVL698:
1076:src/main.cpp  ****         bool     calibrated = false;
ARM GAS  /tmp/claude-502/ccry90Vn.s 			page 235


 8961              		.loc 6 1076 18 view .LVU2689
 8962 091a 0746     		mov	r7, r0
 8963              	.LVL699:
1076:src/main.cpp  ****         bool     calibrated = false;
 8964              		.loc 6 1076 18 view .LVU2690
 8965 091c CDF81C80 		str	r8, [sp, #28]
 8966              	.LVL700:
1076:src/main.cpp  ****         bool     calibrated = false;
 8967              		.loc 6 1076 18 view .LVU2691
 8968 0920 2646     		mov	r6, r4
 8969              	.LVL701:
1076:src/main.cpp  ****         bool     calibrated = false;
 8970              		.loc 6 1076 18 view .LVU2692
 8971 0922 DDF82080 		ldr	r8, [sp, #32]
 8972 0926 CDE90445 		strd	r4, r5, [sp, #16]
 8973 092a 2546     		mov	r5, r4
 8974              	.LVL702:
 8975              	.L460:
1080:src/main.cpp  **** 
 8976              		.loc 6 1080 9 is_stmt 1 view .LVU2693
1082:src/main.cpp  ****             uint32_t elapsed = System::GetNow() - start;
 8977              		.loc 6 1082 9 view .LVU2694
 8978              	.LBB1703:
1083:src/main.cpp  **** 
 8979              		.loc 6 1083 13 view .LVU2695
1083:src/main.cpp  **** 
 8980              		.loc 6 1083 46 is_stmt 0 view .LVU2696
 8981 092c FFF7FEFF 		bl	_ZN5daisy6System6GetNowEv
 8982              	.LVL703:
1087:src/main.cpp  ****             float p01   = 0.5f * (1.0f - cosf(phase * TAU));
 8983              		.loc 6 1087 43 view .LVU2697
 8984 0930 6C4B     		ldr	r3, .L710+8
1083:src/main.cpp  **** 
 8985              		.loc 6 1083 51 view .LVU2698
 8986 0932 C41B     		subs	r4, r0, r7
 8987              	.LVL704:
1087:src/main.cpp  ****             float p01   = 0.5f * (1.0f - cosf(phase * TAU));
 8988              		.loc 6 1087 13 is_stmt 1 view .LVU2699
1088:src/main.cpp  **** 
 8989              		.loc 6 1088 13 view .LVU2700
1087:src/main.cpp  ****             float p01   = 0.5f * (1.0f - cosf(phase * TAU));
 8990              		.loc 6 1087 19 is_stmt 0 view .LVU2701
 8991 0934 DFED6C6A 		vldr.32	s13, .L710+12
1088:src/main.cpp  **** 
 8992              		.loc 6 1088 46 view .LVU2702
 8993 0938 9FED6C7A 		vldr.32	s14, .L710+16
1088:src/main.cpp  **** 
 8994              		.loc 6 1088 40 view .LVU2703
 8995 093c F7EE008A 		vmov.f32	s17, #1.0e+0
1087:src/main.cpp  ****             float p01   = 0.5f * (1.0f - cosf(phase * TAU));
 8996              		.loc 6 1087 43 view .LVU2704
 8997 0940 A3FB0423 		umull	r2, r3, r3, r4
 8998 0944 42F6E062 		movw	r2, #12000
 8999 0948 1B0A     		lsrs	r3, r3, #8
 9000 094a 02FB1343 		mls	r3, r2, r3, r4
1087:src/main.cpp  ****             float p01   = 0.5f * (1.0f - cosf(phase * TAU));
 9001              		.loc 6 1087 27 view .LVU2705
ARM GAS  /tmp/claude-502/ccry90Vn.s 			page 236


 9002 094e 07EE903A 		vmov	s15, r3	@ int
 9003 0952 F8EEE77A 		vcvt.f32.s32	s15, s15
1087:src/main.cpp  ****             float p01   = 0.5f * (1.0f - cosf(phase * TAU));
 9004              		.loc 6 1087 19 view .LVU2706
 9005 0956 87EEA60A 		vdiv.f32	s0, s15, s13
1088:src/main.cpp  **** 
 9006              		.loc 6 1088 46 view .LVU2707
 9007 095a 20EE070A 		vmul.f32	s0, s0, s14
 9008 095e FFF7FEFF 		bl	cosf
 9009              	.LVL705:
1088:src/main.cpp  **** 
 9010              		.loc 6 1088 19 view .LVU2708
 9011 0962 F6EE007A 		vmov.f32	s15, #5.0e-1
1088:src/main.cpp  **** 
 9012              		.loc 6 1088 40 view .LVU2709
 9013 0966 38EEC00A 		vsub.f32	s0, s17, s0
1093:src/main.cpp  ****             float led1   = sqrtf(sqrtf(l2_raw));              // middle (DAC1)
 9014              		.loc 6 1093 52 view .LVU2710
 9015 096a B6EE006A 		vmov.f32	s12, #5.0e-1
1092:src/main.cpp  ****             float l2_raw = 1.0f - 2.0f * fabsf(p01 - 0.5f);   if(l2_raw < 0) l2_raw = 0;
 9016              		.loc 6 1092 19 view .LVU2711
 9017 096e B7EE007A 		vmov.f32	s14, #1.0e+0
1088:src/main.cpp  **** 
 9018              		.loc 6 1088 19 view .LVU2712
 9019 0972 60EE277A 		vmul.f32	s15, s0, s15
 9020              	.LVL706:
1091:src/main.cpp  ****             float l3_raw = 2.0f * p01 - 1.0f;                 if(l3_raw < 0) l3_raw = 0;
 9021              		.loc 6 1091 13 is_stmt 1 view .LVU2713
1093:src/main.cpp  ****             float led1   = sqrtf(sqrtf(l2_raw));              // middle (DAC1)
 9022              		.loc 6 1093 19 is_stmt 0 view .LVU2714
 9023 0976 F0EE006A 		vmov.f32	s13, #2.0e+0
1091:src/main.cpp  ****             float l3_raw = 2.0f * p01 - 1.0f;                 if(l3_raw < 0) l3_raw = 0;
 9024              		.loc 6 1091 40 view .LVU2715
 9025 097a 37EEA78A 		vadd.f32	s16, s15, s15
1093:src/main.cpp  ****             float led1   = sqrtf(sqrtf(l2_raw));              // middle (DAC1)
 9026              		.loc 6 1093 52 view .LVU2716
 9027 097e 77EEC67A 		vsub.f32	s15, s15, s12
 9028              	.LVL707:
1091:src/main.cpp  ****             float l3_raw = 2.0f * p01 - 1.0f;                 if(l3_raw < 0) l3_raw = 0;
 9029              		.loc 6 1091 19 view .LVU2717
 9030 0982 78EEC88A 		vsub.f32	s17, s17, s16
 9031              	.LVL708:
1091:src/main.cpp  ****             float l3_raw = 2.0f * p01 - 1.0f;                 if(l3_raw < 0) l3_raw = 0;
 9032              		.loc 6 1091 63 is_stmt 1 view .LVU2718
1093:src/main.cpp  ****             float led1   = sqrtf(sqrtf(l2_raw));              // middle (DAC1)
 9033              		.loc 6 1093 47 is_stmt 0 view .LVU2719
 9034 0986 F0EEE77A 		vabs.f32	s15, s15
1092:src/main.cpp  ****             float l2_raw = 1.0f - 2.0f * fabsf(p01 - 0.5f);   if(l2_raw < 0) l2_raw = 0;
 9035              		.loc 6 1092 19 view .LVU2720
 9036 098a 38EE478A 		vsub.f32	s16, s16, s14
1093:src/main.cpp  ****             float led1   = sqrtf(sqrtf(l2_raw));              // middle (DAC1)
 9037              		.loc 6 1093 19 view .LVU2721
 9038 098e B7EE007A 		vmov.f32	s14, #1.0e+0
1091:src/main.cpp  ****             float l3_raw = 2.0f * p01 - 1.0f;                 if(l3_raw < 0) l3_raw = 0;
 9039              		.loc 6 1091 63 view .LVU2722
 9040 0992 F5EEC08A 		vcmpe.f32	s17, #0
1093:src/main.cpp  ****             float led1   = sqrtf(sqrtf(l2_raw));              // middle (DAC1)
ARM GAS  /tmp/claude-502/ccry90Vn.s 			page 237


 9041              		.loc 6 1093 19 view .LVU2723
 9042 0996 A7EEE67A 		vfms.f32	s14, s15, s13
1091:src/main.cpp  ****             float l3_raw = 2.0f * p01 - 1.0f;                 if(l3_raw < 0) l3_raw = 0;
 9043              		.loc 6 1091 63 view .LVU2724
 9044 099a F1EE10FA 		vmrs	APSR_nzcv, FPSCR
1092:src/main.cpp  ****             float l2_raw = 1.0f - 2.0f * fabsf(p01 - 0.5f);   if(l2_raw < 0) l2_raw = 0;
 9045              		.loc 6 1092 63 view .LVU2725
 9046 099e B5EEC08A 		vcmpe.f32	s16, #0
1091:src/main.cpp  ****             float l3_raw = 2.0f * p01 - 1.0f;                 if(l3_raw < 0) l3_raw = 0;
 9047              		.loc 6 1091 85 view .LVU2726
 9048 09a2 48BF     		it	mi
 9049 09a4 DFED528A 		vldrmi.32	s17, .L710+20
 9050              	.LVL709:
1092:src/main.cpp  ****             float l2_raw = 1.0f - 2.0f * fabsf(p01 - 0.5f);   if(l2_raw < 0) l2_raw = 0;
 9051              		.loc 6 1092 13 is_stmt 1 view .LVU2727
1092:src/main.cpp  ****             float l2_raw = 1.0f - 2.0f * fabsf(p01 - 0.5f);   if(l2_raw < 0) l2_raw = 0;
 9052              		.loc 6 1092 63 view .LVU2728
 9053 09a8 F1EE10FA 		vmrs	APSR_nzcv, FPSCR
1093:src/main.cpp  ****             float led1   = sqrtf(sqrtf(l2_raw));              // middle (DAC1)
 9054              		.loc 6 1093 63 is_stmt 0 view .LVU2729
 9055 09ac B5EEC07A 		vcmpe.f32	s14, #0
1092:src/main.cpp  ****             float l2_raw = 1.0f - 2.0f * fabsf(p01 - 0.5f);   if(l2_raw < 0) l2_raw = 0;
 9056              		.loc 6 1092 85 view .LVU2730
 9057 09b0 48BF     		it	mi
 9058 09b2 9FED4F8A 		vldrmi.32	s16, .L710+20
 9059              	.LVL710:
1093:src/main.cpp  ****             float led1   = sqrtf(sqrtf(l2_raw));              // middle (DAC1)
 9060              		.loc 6 1093 13 is_stmt 1 view .LVU2731
1093:src/main.cpp  ****             float led1   = sqrtf(sqrtf(l2_raw));              // middle (DAC1)
 9061              		.loc 6 1093 63 view .LVU2732
 9062 09b6 F1EE10FA 		vmrs	APSR_nzcv, FPSCR
 9063 09ba 67D4     		bmi	.L568
1094:src/main.cpp  ****             float led2   = sqrtf(sqrtf(l1_raw));              // pos 0  (DAC2)
 9064              		.loc 6 1094 13 view .LVU2733
 9065 09bc B5EE407A 		vcmp.f32	s14, #0
 9066 09c0 F1EE10FA 		vmrs	APSR_nzcv, FPSCR
 9067 09c4 00F17884 		bmi	.L692
 9068              	.LVL711:
 9069              	.L438:
1094:src/main.cpp  ****             float led2   = sqrtf(sqrtf(l1_raw));              // pos 0  (DAC2)
 9070              		.loc 6 1094 33 is_stmt 0 view .LVU2734
 9071 09c8 B1EEC70A 		vsqrt.f32	s0, s14
 9072              	.LVL712:
 9073              	.L441:
1094:src/main.cpp  ****             float led2   = sqrtf(sqrtf(l1_raw));              // pos 0  (DAC2)
 9074              		.loc 6 1094 33 view .LVU2735
 9075 09cc B5EE400A 		vcmp.f32	s0, #0
 9076 09d0 F1EE10FA 		vmrs	APSR_nzcv, FPSCR
 9077 09d4 00F17684 		bmi	.L655
 9078 09d8 B1EEC0CA 		vsqrt.f32	s24, s0
 9079              	.L444:
1095:src/main.cpp  ****             float led3   = sqrtf(sqrtf(l3_raw)) * LED3_INTENSITY; // pos 1 (PWM A0)
 9080              		.loc 6 1095 13 is_stmt 1 view .LVU2736
 9081 09dc F5EE408A 		vcmp.f32	s17, #0
 9082 09e0 F1EE10FA 		vmrs	APSR_nzcv, FPSCR
 9083 09e4 00F17484 		bmi	.L656
1095:src/main.cpp  ****             float led3   = sqrtf(sqrtf(l3_raw)) * LED3_INTENSITY; // pos 1 (PWM A0)
ARM GAS  /tmp/claude-502/ccry90Vn.s 			page 238


 9084              		.loc 6 1095 33 is_stmt 0 view .LVU2737
 9085 09e8 B1EEE80A 		vsqrt.f32	s0, s17
 9086              	.L447:
 9087 09ec B5EE400A 		vcmp.f32	s0, #0
 9088 09f0 F1EE10FA 		vmrs	APSR_nzcv, FPSCR
 9089 09f4 00F17284 		bmi	.L657
 9090 09f8 F1EEC08A 		vsqrt.f32	s17, s0
 9091              	.LVL713:
 9092              	.L450:
1096:src/main.cpp  ****             hw.dac.WriteValue(DacHandle::Channel::ONE, (uint16_t)(led1 * 4095.0f));
 9093              		.loc 6 1096 13 is_stmt 1 view .LVU2738
 9094 09fc B5EE408A 		vcmp.f32	s16, #0
 9095 0a00 F1EE10FA 		vmrs	APSR_nzcv, FPSCR
 9096 0a04 00F17084 		bmi	.L658
1096:src/main.cpp  ****             hw.dac.WriteValue(DacHandle::Channel::ONE, (uint16_t)(led1 * 4095.0f));
 9097              		.loc 6 1096 33 is_stmt 0 view .LVU2739
 9098 0a08 B1EEC80A 		vsqrt.f32	s0, s16
 9099              	.L453:
 9100 0a0c B5EE400A 		vcmp.f32	s0, #0
 9101 0a10 F1EE10FA 		vmrs	APSR_nzcv, FPSCR
 9102 0a14 00F16E84 		bmi	.L659
 9103 0a18 B1EEC07A 		vsqrt.f32	s14, s0
 9104              	.L456:
1097:src/main.cpp  ****             hw.dac.WriteValue(DacHandle::Channel::TWO, (uint16_t)(led2 * 4095.0f));
 9105              		.loc 6 1097 72 view .LVU2740
 9106 0a1c DFED35CA 		vldr.32	s25, .L710+24
1097:src/main.cpp  ****             hw.dac.WriteValue(DacHandle::Channel::TWO, (uint16_t)(led2 * 4095.0f));
 9107              		.loc 6 1097 30 view .LVU2741
 9108 0a20 0021     		movs	r1, #0
1096:src/main.cpp  ****             hw.dac.WriteValue(DacHandle::Channel::ONE, (uint16_t)(led1 * 4095.0f));
 9109              		.loc 6 1096 51 view .LVU2742
 9110 0a22 9FED358A 		vldr.32	s16, .L710+28
 9111              	.LVL714:
1097:src/main.cpp  ****             hw.dac.WriteValue(DacHandle::Channel::TWO, (uint16_t)(led2 * 4095.0f));
 9112              		.loc 6 1097 30 view .LVU2743
 9113 0a26 3548     		ldr	r0, .L710+32
1097:src/main.cpp  ****             hw.dac.WriteValue(DacHandle::Channel::TWO, (uint16_t)(led2 * 4095.0f));
 9114              		.loc 6 1097 72 view .LVU2744
 9115 0a28 6CEE2C7A 		vmul.f32	s15, s24, s25
1096:src/main.cpp  ****             hw.dac.WriteValue(DacHandle::Channel::ONE, (uint16_t)(led1 * 4095.0f));
 9116              		.loc 6 1096 51 view .LVU2745
 9117 0a2c 27EE088A 		vmul.f32	s16, s14, s16
 9118              	.LVL715:
1097:src/main.cpp  ****             hw.dac.WriteValue(DacHandle::Channel::TWO, (uint16_t)(led2 * 4095.0f));
 9119              		.loc 6 1097 13 is_stmt 1 view .LVU2746
1097:src/main.cpp  ****             hw.dac.WriteValue(DacHandle::Channel::TWO, (uint16_t)(led2 * 4095.0f));
 9120              		.loc 6 1097 30 is_stmt 0 view .LVU2747
 9121 0a30 FCEEE77A 		vcvt.u32.f32	s15, s15
 9122 0a34 17EE903A 		vmov	r3, s15	@ int
 9123 0a38 9AB2     		uxth	r2, r3
 9124 0a3a FFF7FEFF 		bl	_ZN5daisy9DacHandle10WriteValueENS0_7ChannelEt
 9125              	.LVL716:
1098:src/main.cpp  ****             g_led3_duty = led3;
 9126              		.loc 6 1098 13 is_stmt 1 view .LVU2748
1098:src/main.cpp  ****             g_led3_duty = led3;
 9127              		.loc 6 1098 72 is_stmt 0 view .LVU2749
 9128 0a3e 68EEAC7A 		vmul.f32	s15, s17, s25
ARM GAS  /tmp/claude-502/ccry90Vn.s 			page 239


1098:src/main.cpp  ****             g_led3_duty = led3;
 9129              		.loc 6 1098 30 view .LVU2750
 9130 0a42 0121     		movs	r1, #1
 9131 0a44 2D48     		ldr	r0, .L710+32
 9132 0a46 FCEEE77A 		vcvt.u32.f32	s15, s15
 9133 0a4a 17EE903A 		vmov	r3, s15	@ int
 9134 0a4e 9AB2     		uxth	r2, r3
 9135 0a50 FFF7FEFF 		bl	_ZN5daisy9DacHandle10WriteValueENS0_7ChannelEt
 9136              	.LVL717:
1099:src/main.cpp  **** 
 9137              		.loc 6 1099 13 is_stmt 1 view .LVU2751
1099:src/main.cpp  **** 
 9138              		.loc 6 1099 25 is_stmt 0 view .LVU2752
 9139 0a54 2A4B     		ldr	r3, .L710+36
 9140 0a56 83ED008A 		vstr.32	s16, [r3]
1102:src/main.cpp  ****                 acc += hw.adc.Get(0);
 9141              		.loc 6 1102 13 is_stmt 1 view .LVU2753
 9142 0a5a D5B1     		cbz	r5, .L693
 9143              	.LVL718:
 9144              	.L457:
1112:src/main.cpp  ****             int32_t max_d = 0;
 9145              		.loc 6 1112 13 view .LVU2754
1112:src/main.cpp  ****             int32_t max_d = 0;
 9146              		.loc 6 1112 28 is_stmt 0 view .LVU2755
 9147 0a5c 23A8     		add	r0, sp, #140
 9148 0a5e FFF7FEFF 		bl	_Z15read_electrodesPt
 9149              	.LVL719:
1113:src/main.cpp  ****             for(int i = 0; i < N_CH; i++) {
 9150              		.loc 6 1113 13 is_stmt 1 view .LVU2756
1114:src/main.cpp  ****                 int32_t d = (int32_t)baseline[i] - (int32_t)scan[i];
 9151              		.loc 6 1114 13 view .LVU2757
 9152              	.LBB1704:
1114:src/main.cpp  ****                 int32_t d = (int32_t)baseline[i] - (int32_t)scan[i];
 9153              		.loc 6 1114 30 view .LVU2758
 9154 0a62 23A8     		add	r0, sp, #140
 9155              	.LBE1704:
1112:src/main.cpp  ****             int32_t max_d = 0;
 9156              		.loc 6 1112 28 is_stmt 0 view .LVU2759
 9157 0a64 4246     		mov	r2, r8
1113:src/main.cpp  ****             for(int i = 0; i < N_CH; i++) {
 9158              		.loc 6 1113 21 view .LVU2760
 9159 0a66 0021     		movs	r1, #0
 9160              	.LVL720:
 9161              	.L458:
 9162              	.LBB1706:
 9163              	.LBB1705:
1115:src/main.cpp  ****                 if(d > max_d) max_d = d;
 9164              		.loc 6 1115 17 is_stmt 1 view .LVU2761
1115:src/main.cpp  ****                 if(d > max_d) max_d = d;
 9165              		.loc 6 1115 48 is_stmt 0 view .LVU2762
 9166 0a68 32F8023B 		ldrh	r3, [r2], #2
1115:src/main.cpp  ****                 if(d > max_d) max_d = d;
 9167              		.loc 6 1115 67 view .LVU2763
 9168 0a6c 30F8024B 		ldrh	r4, [r0], #2
 9169              	.LVL721:
1116:src/main.cpp  ****             }
 9170              		.loc 6 1116 17 is_stmt 1 view .LVU2764
ARM GAS  /tmp/claude-502/ccry90Vn.s 			page 240


1115:src/main.cpp  ****                 if(d > max_d) max_d = d;
 9171              		.loc 6 1115 25 is_stmt 0 view .LVU2765
 9172 0a70 1B1B     		subs	r3, r3, r4
 9173              	.LVL722:
1115:src/main.cpp  ****                 if(d > max_d) max_d = d;
 9174              		.loc 6 1115 25 view .LVU2766
 9175 0a72 9942     		cmp	r1, r3
 9176 0a74 B8BF     		it	lt
 9177 0a76 1946     		movlt	r1, r3
 9178              	.LVL723:
1115:src/main.cpp  ****                 if(d > max_d) max_d = d;
 9179              		.loc 6 1115 25 view .LVU2767
 9180              	.LBE1705:
1114:src/main.cpp  ****                 int32_t d = (int32_t)baseline[i] - (int32_t)scan[i];
 9181              		.loc 6 1114 13 is_stmt 1 view .LVU2768
1114:src/main.cpp  ****                 int32_t d = (int32_t)baseline[i] - (int32_t)scan[i];
 9182              		.loc 6 1114 30 view .LVU2769
 9183 0a78 1DAB     		add	r3, sp, #116
 9184 0a7a 9342     		cmp	r3, r2
 9185 0a7c F4D1     		bne	.L458
 9186              	.LBE1706:
1118:src/main.cpp  **** 
 9187              		.loc 6 1118 13 view .LVU2770
 9188 0a7e 0929     		cmp	r1, #9
 9189 0a80 00F37183 		bgt	.L459
1120:src/main.cpp  ****         }
 9190              		.loc 6 1120 13 view .LVU2771
1120:src/main.cpp  ****         }
 9191              		.loc 6 1120 26 is_stmt 0 view .LVU2772
 9192 0a84 0A20     		movs	r0, #10
 9193 0a86 FFF7FEFF 		bl	_ZN5daisy6System5DelayEm
 9194              	.LVL724:
1120:src/main.cpp  ****         }
 9195              		.loc 6 1120 26 view .LVU2773
 9196              	.LBE1703:
1082:src/main.cpp  ****             uint32_t elapsed = System::GetNow() - start;
 9197              		.loc 6 1082 9 is_stmt 1 view .LVU2774
1121:src/main.cpp  **** 
 9198              		.loc 6 1121 9 is_stmt 0 view .LVU2775
 9199 0a8a 4FE7     		b	.L460
 9200              	.LVL725:
 9201              	.L568:
 9202              	.LBB1718:
1093:src/main.cpp  ****             float led1   = sqrtf(sqrtf(l2_raw));              // middle (DAC1)
 9203              		.loc 6 1093 85 view .LVU2776
 9204 0a8c 9FED187A 		vldr.32	s14, .L710+20
 9205              	.LVL726:
1093:src/main.cpp  ****             float led1   = sqrtf(sqrtf(l2_raw));              // middle (DAC1)
 9206              		.loc 6 1093 85 view .LVU2777
 9207 0a90 9AE7     		b	.L438
 9208              	.LVL727:
 9209              	.L693:
1103:src/main.cpp  ****                 n++;
 9210              		.loc 6 1103 17 is_stmt 1 view .LVU2778
1103:src/main.cpp  ****                 n++;
 9211              		.loc 6 1103 34 is_stmt 0 view .LVU2779
 9212 0a92 2946     		mov	r1, r5
ARM GAS  /tmp/claude-502/ccry90Vn.s 			page 241


 9213 0a94 1B48     		ldr	r0, .L710+40
 9214 0a96 FFF7FEFF 		bl	_ZNK5daisy9AdcHandle3GetEh
 9215              	.LVL728:
1103:src/main.cpp  ****                 n++;
 9216              		.loc 6 1103 21 view .LVU2780
 9217 0a9a 049B     		ldr	r3, [sp, #16]
1105:src/main.cpp  ****                     commit_fsr_avg(acc, n);
 9218              		.loc 6 1105 17 view .LVU2781
 9219 0a9c B4F5FA6F 		cmp	r4, #2000
1104:src/main.cpp  ****                 if(elapsed >= 2000) {
 9220              		.loc 6 1104 18 view .LVU2782
 9221 0aa0 06F10106 		add	r6, r6, #1
 9222              	.LVL729:
1103:src/main.cpp  ****                 n++;
 9223              		.loc 6 1103 21 view .LVU2783
 9224 0aa4 0344     		add	r3, r3, r0
 9225 0aa6 0493     		str	r3, [sp, #16]
 9226              	.LVL730:
1104:src/main.cpp  ****                 if(elapsed >= 2000) {
 9227              		.loc 6 1104 17 is_stmt 1 view .LVU2784
1105:src/main.cpp  ****                     commit_fsr_avg(acc, n);
 9228              		.loc 6 1105 17 view .LVU2785
 9229 0aa8 D8D3     		bcc	.L457
1106:src/main.cpp  ****                     calibrated = true;
 9230              		.loc 6 1106 21 view .LVU2786
 9231              	.LVL731:
 9232              	.LBB1707:
 9233              	.LBI1707:
1048:src/main.cpp  ****         if(n == 0) return;
 9234              		.loc 6 1048 27 view .LVU2787
 9235              	.LBE1707:
 9236              	.LBE1718:
 9237              	.LBE1702:
 9238              	.LBE1701:
 9239              	.LBE1700:
 9240              	.LBE1405:
1049:src/main.cpp  ****         uint16_t avg = (uint16_t)(acc / n);
 9241              		.loc 6 1049 9 view .LVU2788
 9242              	.LBB1806:
 9243              	.LBB1727:
 9244              	.LBB1724:
 9245              	.LBB1721:
 9246              	.LBB1719:
 9247              	.LBB1716:
 9248              	.LBB1708:
 9249              	.LBB1709:
 9250              	.LBI1709:
1048:src/main.cpp  ****         if(n == 0) return;
 9251              		.loc 6 1048 27 view .LVU2789
 9252              	.LBB1710:
 9253              	.LBB1711:
1050:src/main.cpp  ****         // Sanity floor ŌĆö without enough headroom over FSR_MIN the volume curve
 9254              		.loc 6 1050 9 view .LVU2790
 9255 0aaa 42F23412 		movw	r2, #8500
1055:src/main.cpp  ****     };
 9256              		.loc 6 1055 30 is_stmt 0 view .LVU2791
 9257 0aae B7EE007A 		vmov.f32	s14, #1.0e+0
ARM GAS  /tmp/claude-502/ccry90Vn.s 			page 242


1055:src/main.cpp  ****     };
 9258              		.loc 6 1055 30 view .LVU2792
 9259              	.LBE1711:
 9260              	.LBE1710:
 9261              	.LBE1709:
 9262              	.LBE1708:
 9263              	.LBE1716:
1107:src/main.cpp  ****                 }
 9264              		.loc 6 1107 32 view .LVU2793
 9265 0ab2 0125     		movs	r5, #1
 9266              	.LVL732:
 9267              	.LBB1717:
 9268              	.LBB1715:
 9269              	.LBB1714:
 9270              	.LBB1713:
 9271              	.LBB1712:
1050:src/main.cpp  ****         // Sanity floor ŌĆö without enough headroom over FSR_MIN the volume curve
 9272              		.loc 6 1050 39 view .LVU2794
 9273 0ab4 B3FBF6F3 		udiv	r3, r3, r6
 9274              	.LVL733:
1050:src/main.cpp  ****         // Sanity floor ŌĆö without enough headroom over FSR_MIN the volume curve
 9275              		.loc 6 1050 18 view .LVU2795
 9276 0ab8 9BB2     		uxth	r3, r3
 9277              	.LVL734:
1053:src/main.cpp  ****         fsr_max       = avg;
 9278              		.loc 6 1053 9 is_stmt 1 view .LVU2796
 9279 0aba 9342     		cmp	r3, r2
 9280 0abc 38BF     		it	cc
 9281 0abe 1346     		movcc	r3, r2
 9282              	.LVL735:
1053:src/main.cpp  ****         fsr_max       = avg;
 9283              		.loc 6 1053 9 is_stmt 0 view .LVU2797
 9284 0ac0 0A93     		str	r3, [sp, #40]
 9285              	.LVL736:
1054:src/main.cpp  ****         fsr_range_inv = 1.0f / (float)(fsr_max - FSR_MIN);
 9286              		.loc 6 1054 9 is_stmt 1 view .LVU2798
1055:src/main.cpp  ****     };
 9287              		.loc 6 1055 9 view .LVU2799
1055:src/main.cpp  ****     };
 9288              		.loc 6 1055 48 is_stmt 0 view .LVU2800
 9289 0ac2 A3F5FA53 		sub	r3, r3, #8000
 9290              	.LVL737:
1055:src/main.cpp  ****     };
 9291              		.loc 6 1055 48 view .LVU2801
 9292 0ac6 07EE903A 		vmov	s15, r3	@ int
1055:src/main.cpp  ****     };
 9293              		.loc 6 1055 32 view .LVU2802
 9294 0aca F8EEE77A 		vcvt.f32.s32	s15, s15
1055:src/main.cpp  ****     };
 9295              		.loc 6 1055 30 view .LVU2803
 9296 0ace C7EE27BA 		vdiv.f32	s23, s14, s15
 9297              	.LVL738:
1055:src/main.cpp  ****     };
 9298              		.loc 6 1055 30 view .LVU2804
 9299 0ad2 C3E7     		b	.L457
 9300              	.LVL739:
 9301              	.L602:
ARM GAS  /tmp/claude-502/ccry90Vn.s 			page 243


1055:src/main.cpp  ****     };
 9302              		.loc 6 1055 30 view .LVU2805
 9303              	.LBE1712:
 9304              	.LBE1713:
 9305              	.LBE1714:
 9306              	.LBE1715:
 9307              	.LBE1717:
 9308              	.LBE1719:
 9309              	.LBE1721:
 9310              	.LBE1724:
 9311              	.LBE1727:
 9312              	.LBB1728:
 9313              	.LBB1660:
 9314              	.LBB1659:
 9315              	.LBB1657:
 996:src/main.cpp  ****         out[1+p]=(char)('1'+slot);
 9316              		.loc 6 996 20 view .LVU2806
 9317 0ad4 2823     		movs	r3, #40
 9318 0ad6 CDE5     		b	.L537
 9319              	.LVL740:
 9320              	.L603:
 996:src/main.cpp  ****         out[1+p]=(char)('1'+slot);
 9321              		.loc 6 996 20 view .LVU2807
 9322 0ad8 2823     		movs	r3, #40
 9323 0ada E7E5     		b	.L539
 9324              	.L711:
 9325              		.align	2
 9326              	.L710:
 9327 0adc CDCCCCCC 		.word	-858993459
 9328 0ae0 67666666 		.word	1717986919
 9329 0ae4 F1197605 		.word	91625969
 9330 0ae8 00803B46 		.word	1178304512
 9331 0aec DB0FC940 		.word	1086918619
 9332 0af0 00000000 		.word	0
 9333 0af4 00F07F45 		.word	1166012416
 9334 0af8 CDCCCC3D 		.word	1036831949
 9335 0afc 20000000 		.word	.LANCHOR10+32
 9336 0b00 00000000 		.word	.LANCHOR0
 9337 0b04 18000000 		.word	.LANCHOR10+24
 9338 0b08 00007A44 		.word	1148846080
 9339 0b0c 0000C842 		.word	1120403456
 9340              	.LVL741:
 9341              	.L685:
 996:src/main.cpp  ****         out[1+p]=(char)('1'+slot);
 9342              		.loc 6 996 20 view .LVU2808
 9343              	.LBE1657:
 9344              	.LBE1659:
 9345              	.LBE1660:
 9346              	.LBE1728:
 9347              	.LBB1729:
 9348              	.LBB1445:
1306:src/main.cpp  ****             float prs01 = clampf((float)tracked[0].pressure / 100.0f, 0.0f, 1.0f); // hard clamp
 9349              		.loc 6 1306 34 view .LVU2809
 9350 0b10 D9ED017A 		vldr.32	s15, [r9, #4]	@ int
1306:src/main.cpp  ****             float prs01 = clampf((float)tracked[0].pressure / 100.0f, 0.0f, 1.0f); // hard clamp
 9351              		.loc 6 1306 33 view .LVU2810
 9352 0b14 1FED047A 		vldr.32	s14, .L710+44
ARM GAS  /tmp/claude-502/ccry90Vn.s 			page 244


1306:src/main.cpp  ****             float prs01 = clampf((float)tracked[0].pressure / 100.0f, 0.0f, 1.0f); // hard clamp
 9353              		.loc 6 1306 34 view .LVU2811
 9354 0b18 F8EEE77A 		vcvt.f32.s32	s15, s15
1306:src/main.cpp  ****             float prs01 = clampf((float)tracked[0].pressure / 100.0f, 0.0f, 1.0f); // hard clamp
 9355              		.loc 6 1306 33 view .LVU2812
 9356 0b1c C7EE87CA 		vdiv.f32	s25, s15, s14
1306:src/main.cpp  ****             float prs01 = clampf((float)tracked[0].pressure / 100.0f, 0.0f, 1.0f); // hard clamp
 9357              		.loc 6 1306 13 is_stmt 1 view .LVU2813
 9358              	.LVL742:
 9359              	.LBB1446:
 9360              	.LBI1446:
 626:src/main.cpp  ****     return v<lo?lo:v>hi?hi:v;
 9361              		.loc 6 626 21 view .LVU2814
 9362              	.LBB1447:
 627:src/main.cpp  **** }
 9363              		.loc 6 627 5 view .LVU2815
 627:src/main.cpp  **** }
 9364              		.loc 6 627 16 is_stmt 0 view .LVU2816
 9365 0b20 F5EEC0CA 		vcmpe.f32	s25, #0
 9366 0b24 F1EE10FA 		vmrs	APSR_nzcv, FPSCR
 9367 0b28 00F1BC81 		bmi	.L571
 9368              	.LVL743:
 9369              	.L698:
 627:src/main.cpp  **** }
 9370              		.loc 6 627 24 view .LVU2817
 9371 0b2c B7EE007A 		vmov.f32	s14, #1.0e+0
 9372 0b30 F4EEC7CA 		vcmpe.f32	s25, s14
 9373 0b34 F1EE10FA 		vmrs	APSR_nzcv, FPSCR
 9374 0b38 37FE2C7A 		vselgt.f32	s14, s14, s25
 9375              	.L469:
 9376              	.LVL744:
 627:src/main.cpp  **** }
 9377              		.loc 6 627 24 view .LVU2818
 9378              	.LBE1447:
 9379              	.LBE1446:
1307:src/main.cpp  **** 
 9380              		.loc 6 1307 13 is_stmt 1 view .LVU2819
1307:src/main.cpp  **** 
 9381              		.loc 6 1307 34 is_stmt 0 view .LVU2820
 9382 0b3c D9ED027A 		vldr.32	s15, [r9, #8]	@ int
1307:src/main.cpp  **** 
 9383              		.loc 6 1307 33 view .LVU2821
 9384 0b40 5FED0E6A 		vldr.32	s13, .L710+48
1307:src/main.cpp  **** 
 9385              		.loc 6 1307 34 view .LVU2822
 9386 0b44 F8EEE77A 		vcvt.f32.s32	s15, s15
1307:src/main.cpp  **** 
 9387              		.loc 6 1307 33 view .LVU2823
 9388 0b48 87EEA6DA 		vdiv.f32	s26, s15, s13
 9389              	.LVL745:
 9390              	.LBB1451:
 9391              	.LBI1451:
 626:src/main.cpp  ****     return v<lo?lo:v>hi?hi:v;
 9392              		.loc 6 626 21 is_stmt 1 view .LVU2824
 9393              	.LBB1452:
 627:src/main.cpp  **** }
 9394              		.loc 6 627 5 view .LVU2825
ARM GAS  /tmp/claude-502/ccry90Vn.s 			page 245


 627:src/main.cpp  **** }
 9395              		.loc 6 627 16 is_stmt 0 view .LVU2826
 9396 0b4c B5EEC0DA 		vcmpe.f32	s26, #0
 9397 0b50 F1EE10FA 		vmrs	APSR_nzcv, FPSCR
 9398 0b54 00F16982 		bmi	.L573
 627:src/main.cpp  **** }
 9399              		.loc 6 627 24 view .LVU2827
 9400 0b58 B7EE008A 		vmov.f32	s16, #1.0e+0
 9401 0b5c B4EEC8DA 		vcmpe.f32	s26, s16
 9402 0b60 F1EE10FA 		vmrs	APSR_nzcv, FPSCR
 9403 0b64 38FE0D8A 		vselgt.f32	s16, s16, s26
 9404              	.L470:
 9405              	.LVL746:
 627:src/main.cpp  **** }
 9406              		.loc 6 627 24 view .LVU2828
 9407              	.LBE1452:
 9408              	.LBE1451:
1312:src/main.cpp  ****             float ex   = 1.0f + earg*(1.0f + earg*(0.5f + earg*0.1667f));
 9409              		.loc 6 1312 13 is_stmt 1 view .LVU2829
1312:src/main.cpp  ****             float ex   = 1.0f + earg*(1.0f + earg*(0.5f + earg*0.1667f));
 9410              		.loc 6 1312 40 is_stmt 0 view .LVU2830
 9411 0b68 C5EB4513 		rsb	r3, r5, r5, lsl #5
 9412 0b6c E249     		ldr	r1, .L712
1313:src/main.cpp  ****             float freq_continuous = clampf(VOICE.freq_low * ex, VOICE.freq_low, VOICE.freq_high);
 9413              		.loc 6 1313 57 view .LVU2831
 9414 0b6e F6EE006A 		vmov.f32	s13, #5.0e-1
 9415 0b72 9FEDE26A 		vldr.32	s12, .L712+4
1312:src/main.cpp  ****             float ex   = 1.0f + earg*(1.0f + earg*(0.5f + earg*0.1667f));
 9416              		.loc 6 1312 40 view .LVU2832
 9417 0b76 01EB8303 		add	r3, r1, r3, lsl #2
1313:src/main.cpp  ****             float freq_continuous = clampf(VOICE.freq_low * ex, VOICE.freq_low, VOICE.freq_high);
 9418              		.loc 6 1313 44 view .LVU2833
 9419 0b7a F7EE007A 		vmov.f32	s15, #1.0e+0
1312:src/main.cpp  ****             float ex   = 1.0f + earg*(1.0f + earg*(0.5f + earg*0.1667f));
 9420              		.loc 6 1312 40 view .LVU2834
 9421 0b7e 6C01     		lsls	r4, r5, #5
1312:src/main.cpp  ****             float ex   = 1.0f + earg*(1.0f + earg*(0.5f + earg*0.1667f));
 9422              		.loc 6 1312 19 view .LVU2835
 9423 0b80 D3ED035A 		vldr.32	s11, [r3, #12]
1314:src/main.cpp  **** 
 9424              		.loc 6 1314 50 view .LVU2836
 9425 0b84 93ED01CA 		vldr.32	s24, [r3, #4]
1312:src/main.cpp  ****             float ex   = 1.0f + earg*(1.0f + earg*(0.5f + earg*0.1667f));
 9426              		.loc 6 1312 19 view .LVU2837
 9427 0b88 27EE257A 		vmul.f32	s14, s14, s11
 9428              	.LVL747:
1313:src/main.cpp  ****             float freq_continuous = clampf(VOICE.freq_low * ex, VOICE.freq_low, VOICE.freq_high);
 9429              		.loc 6 1313 13 is_stmt 1 view .LVU2838
1314:src/main.cpp  **** 
 9430              		.loc 6 1314 87 is_stmt 0 view .LVU2839
 9431 0b8c D3ED028A 		vldr.32	s17, [r3, #8]
1313:src/main.cpp  ****             float freq_continuous = clampf(VOICE.freq_low * ex, VOICE.freq_low, VOICE.freq_high);
 9432              		.loc 6 1313 57 view .LVU2840
 9433 0b90 E7EE066A 		vfma.f32	s13, s14, s12
1313:src/main.cpp  ****             float freq_continuous = clampf(VOICE.freq_low * ex, VOICE.freq_low, VOICE.freq_high);
 9434              		.loc 6 1313 44 view .LVU2841
 9435 0b94 B0EE676A 		vmov.f32	s12, s15
ARM GAS  /tmp/claude-502/ccry90Vn.s 			page 246


 9436 0b98 A6EE876A 		vfma.f32	s12, s13, s14
1313:src/main.cpp  ****             float freq_continuous = clampf(VOICE.freq_low * ex, VOICE.freq_low, VOICE.freq_high);
 9437              		.loc 6 1313 19 view .LVU2842
 9438 0b9c E6EE077A 		vfma.f32	s15, s12, s14
 9439              	.LVL748:
1314:src/main.cpp  **** 
 9440              		.loc 6 1314 13 is_stmt 1 view .LVU2843
1314:src/main.cpp  **** 
 9441              		.loc 6 1314 43 is_stmt 0 view .LVU2844
 9442 0ba0 6CEE277A 		vmul.f32	s15, s24, s15
 9443              	.LVL749:
 9444              	.LBB1454:
 9445              	.LBI1454:
 626:src/main.cpp  ****     return v<lo?lo:v>hi?hi:v;
 9446              		.loc 6 626 21 is_stmt 1 view .LVU2845
 9447              	.LBB1455:
 627:src/main.cpp  **** }
 9448              		.loc 6 627 5 view .LVU2846
 627:src/main.cpp  **** }
 9449              		.loc 6 627 16 is_stmt 0 view .LVU2847
 9450 0ba4 B4EEE7CA 		vcmpe.f32	s24, s15
 9451 0ba8 F1EE10FA 		vmrs	APSR_nzcv, FPSCR
 9452 0bac 00F3EB81 		bgt	.L471
 627:src/main.cpp  **** }
 9453              		.loc 6 627 24 view .LVU2848
 9454 0bb0 F4EE687A 		vcmp.f32	s15, s17
 9455 0bb4 F1EE10FA 		vmrs	APSR_nzcv, FPSCR
 9456 0bb8 78FEA77A 		vselgt.f32	s15, s17, s15
 9457              	.LVL750:
 627:src/main.cpp  **** }
 9458              		.loc 6 627 24 view .LVU2849
 9459              	.LBE1455:
 9460              	.LBE1454:
1318:src/main.cpp  ****             float y = (freq_ratio - 1.0f) / (freq_ratio + 1.0f);
 9461              		.loc 6 1318 13 is_stmt 1 view .LVU2850
1319:src/main.cpp  ****             float y2 = y*y;
 9462              		.loc 6 1319 13 view .LVU2851
1320:src/main.cpp  ****             float ln_ratio = 2.0f*y*(1.0f + y2*(0.3333f + y2*0.2f));
 9463              		.loc 6 1320 13 view .LVU2852
1321:src/main.cpp  ****             float midi_raw = 69.0f + 17.3123f * ln_ratio; // 17.3123 = 12/ln(2)
 9464              		.loc 6 1321 13 view .LVU2853
1322:src/main.cpp  **** 
 9465              		.loc 6 1322 13 view .LVU2854
1324:src/main.cpp  **** 
 9466              		.loc 6 1324 13 view .LVU2855
1326:src/main.cpp  ****             {
 9467              		.loc 6 1326 13 view .LVU2856
 9468              	.LBB1457:
 9469 0bbc 0C2A     		cmp	r2, #12
 9470 0bbe 4BFE277A 		vseleq.f32	s15, s22, s15
 9471              	.LVL751:
 9472              	.L473:
1326:src/main.cpp  ****             {
 9473              		.loc 6 1326 13 is_stmt 0 view .LVU2857
 9474              	.LBE1457:
1348:src/main.cpp  **** 
 9475              		.loc 6 1348 13 is_stmt 1 view .LVU2858
ARM GAS  /tmp/claude-502/ccry90Vn.s 			page 247


 9476              	.LBB1458:
 9477              	.LBI1458:
 626:src/main.cpp  ****     return v<lo?lo:v>hi?hi:v;
 9478              		.loc 6 626 21 view .LVU2859
 9479              	.LBB1459:
 627:src/main.cpp  **** }
 9480              		.loc 6 627 5 view .LVU2860
 627:src/main.cpp  **** }
 9481              		.loc 6 627 16 is_stmt 0 view .LVU2861
 9482 0bc2 B4EEE7CA 		vcmpe.f32	s24, s15
 9483 0bc6 F1EE10FA 		vmrs	APSR_nzcv, FPSCR
 9484 0bca 40F3E181 		ble	.L556
 9485              	.LBE1459:
 9486              	.LBE1458:
 9487              	.LBB1463:
 9488              	.LBB1464:
1367:src/main.cpp  ****                 return x*x*x*(x*(x*6.0f - 15.0f) + 10.0f);
 9489              		.loc 6 1367 24 view .LVU2862
 9490 0bce B5EEC08A 		vcmpe.f32	s16, #0
 9491              	.LBE1464:
 9492              	.LBE1463:
 9493              	.LBB1468:
 9494              	.LBB1460:
 627:src/main.cpp  **** }
 9495              		.loc 6 627 16 view .LVU2863
 9496 0bd2 F0EE4C8A 		vmov.f32	s17, s24
 9497              	.LVL752:
 627:src/main.cpp  **** }
 9498              		.loc 6 627 16 view .LVU2864
 9499              	.LBE1460:
 9500              	.LBE1468:
1362:src/main.cpp  ****                 x = x<0?0:x>1?1:x;
 9501              		.loc 6 1362 13 is_stmt 1 view .LVU2865
1366:src/main.cpp  ****                 x = x<0?0:x>1?1:x;
 9502              		.loc 6 1366 13 view .LVU2866
1373:src/main.cpp  ****             float cutoff_oct = VOICE.cutoff_oct_max * prs_cut;
 9503              		.loc 6 1373 13 view .LVU2867
 9504              	.LBB1469:
 9505              	.LBI1463:
1366:src/main.cpp  ****                 x = x<0?0:x>1?1:x;
 9506              		.loc 6 1366 33 view .LVU2868
 9507              	.LBB1465:
1367:src/main.cpp  ****                 return x*x*x*(x*(x*6.0f - 15.0f) + 10.0f);
 9508              		.loc 6 1367 17 view .LVU2869
1367:src/main.cpp  ****                 return x*x*x*(x*(x*6.0f - 15.0f) + 10.0f);
 9509              		.loc 6 1367 24 is_stmt 0 view .LVU2870
 9510 0bd6 F1EE10FA 		vmrs	APSR_nzcv, FPSCR
 9511 0bda 00F1E681 		bmi	.L578
 9512              	.LVL753:
 9513              	.L701:
1367:src/main.cpp  ****                 return x*x*x*(x*(x*6.0f - 15.0f) + 10.0f);
 9514              		.loc 6 1367 30 view .LVU2871
 9515 0bde F7EE007A 		vmov.f32	s15, #1.0e+0
 9516              	.LVL754:
1367:src/main.cpp  ****                 return x*x*x*(x*(x*6.0f - 15.0f) + 10.0f);
 9517              		.loc 6 1367 30 view .LVU2872
 9518 0be2 B4EEE78A 		vcmpe.f32	s16, s15
ARM GAS  /tmp/claude-502/ccry90Vn.s 			page 248


 9519 0be6 F1EE10FA 		vmrs	APSR_nzcv, FPSCR
 9520 0bea 0FDC     		bgt	.L475
1368:src/main.cpp  ****             };
 9521              		.loc 6 1368 41 view .LVU2873
 9522 0bec B1EE086A 		vmov.f32	s12, #6.0e+0
 9523              	.LVL755:
1368:src/main.cpp  ****             };
 9524              		.loc 6 1368 41 view .LVU2874
 9525 0bf0 FAEE0E6A 		vmov.f32	s13, #-1.5e+1
 9526              	.LVL756:
1368:src/main.cpp  ****             };
 9527              		.loc 6 1368 50 view .LVU2875
 9528 0bf4 B2EE047A 		vmov.f32	s14, #1.0e+1
 9529              	.LVL757:
1368:src/main.cpp  ****             };
 9530              		.loc 6 1368 25 view .LVU2876
 9531 0bf8 68EE087A 		vmul.f32	s15, s16, s16
1368:src/main.cpp  ****             };
 9532              		.loc 6 1368 41 view .LVU2877
 9533 0bfc E8EE066A 		vfma.f32	s13, s16, s12
1368:src/main.cpp  ****             };
 9534              		.loc 6 1368 27 view .LVU2878
 9535 0c00 67EE887A 		vmul.f32	s15, s15, s16
1368:src/main.cpp  ****             };
 9536              		.loc 6 1368 50 view .LVU2879
 9537 0c04 A8EE267A 		vfma.f32	s14, s16, s13
1368:src/main.cpp  ****             };
 9538              		.loc 6 1368 57 view .LVU2880
 9539 0c08 67EE877A 		vmul.f32	s15, s15, s14
 9540              	.L475:
 9541              	.LVL758:
1368:src/main.cpp  ****             };
 9542              		.loc 6 1368 17 is_stmt 1 view .LVU2881
1368:src/main.cpp  ****             };
 9543              		.loc 6 1368 17 is_stmt 0 view .LVU2882
 9544              	.LBE1465:
 9545              	.LBE1469:
1374:src/main.cpp  ****             float oct_arg  = cutoff_oct * 0.6931f;
 9546              		.loc 6 1374 13 is_stmt 1 view .LVU2883
1375:src/main.cpp  ****             float oct_mult = 1.0f + oct_arg*(1.0f + oct_arg*(0.5f + oct_arg*(0.1667f + oct_arg*0.04
 9547              		.loc 6 1375 13 view .LVU2884
1374:src/main.cpp  ****             float oct_arg  = cutoff_oct * 0.6931f;
 9548              		.loc 6 1374 38 is_stmt 0 view .LVU2885
 9549 0c0c 631B     		subs	r3, r4, r5
 9550 0c0e BA4A     		ldr	r2, .L712
1375:src/main.cpp  ****             float oct_mult = 1.0f + oct_arg*(1.0f + oct_arg*(0.5f + oct_arg*(0.1667f + oct_arg*0.04
 9551              		.loc 6 1375 19 view .LVU2886
 9552 0c10 DFEDBB4A 		vldr.32	s9, .L712+8
1376:src/main.cpp  ****             // Keytracking: how much the cutoff base follows pitch. keytrack=1 is
 9553              		.loc 6 1376 67 view .LVU2887
 9554 0c14 F6EE006A 		vmov.f32	s13, #5.0e-1
1374:src/main.cpp  ****             float oct_arg  = cutoff_oct * 0.6931f;
 9555              		.loc 6 1374 38 view .LVU2888
 9556 0c18 02EB8303 		add	r3, r2, r3, lsl #2
1376:src/main.cpp  ****             // Keytracking: how much the cutoff base follows pitch. keytrack=1 is
 9557              		.loc 6 1376 86 view .LVU2889
 9558 0c1c 9FEDB95A 		vldr.32	s10, .L712+12
ARM GAS  /tmp/claude-502/ccry90Vn.s 			page 249


 9559 0c20 9FEDB66A 		vldr.32	s12, .L712+4
1376:src/main.cpp  ****             // Keytracking: how much the cutoff base follows pitch. keytrack=1 is
 9560              		.loc 6 1376 51 view .LVU2890
 9561 0c24 B7EE007A 		vmov.f32	s14, #1.0e+0
1374:src/main.cpp  ****             float oct_arg  = cutoff_oct * 0.6931f;
 9562              		.loc 6 1374 19 view .LVU2891
 9563 0c28 93ED114A 		vldr.32	s8, [r3, #68]
1382:src/main.cpp  ****                 : VOICE.freq_low * powf(freq / VOICE.freq_low, VOICE.keytrack);
 9564              		.loc 6 1382 17 view .LVU2892
 9565 0c2c DFEDB65A 		vldr.32	s11, .L712+16
1374:src/main.cpp  ****             float oct_arg  = cutoff_oct * 0.6931f;
 9566              		.loc 6 1374 19 view .LVU2893
 9567 0c30 67EE847A 		vmul.f32	s15, s15, s8
 9568              	.LVL759:
1381:src/main.cpp  ****                 ? freq
 9569              		.loc 6 1381 39 view .LVU2894
 9570 0c34 D3ED150A 		vldr.32	s1, [r3, #84]
1382:src/main.cpp  ****                 : VOICE.freq_low * powf(freq / VOICE.freq_low, VOICE.keytrack);
 9571              		.loc 6 1382 17 view .LVU2895
 9572 0c38 F4EEE50A 		vcmpe.f32	s1, s11
1375:src/main.cpp  ****             float oct_mult = 1.0f + oct_arg*(1.0f + oct_arg*(0.5f + oct_arg*(0.1667f + oct_arg*0.04
 9573              		.loc 6 1375 19 view .LVU2896
 9574 0c3c 67EEA47A 		vmul.f32	s15, s15, s9
 9575              	.LVL760:
1376:src/main.cpp  ****             // Keytracking: how much the cutoff base follows pitch. keytrack=1 is
 9576              		.loc 6 1376 13 is_stmt 1 view .LVU2897
1382:src/main.cpp  ****                 : VOICE.freq_low * powf(freq / VOICE.freq_low, VOICE.keytrack);
 9577              		.loc 6 1382 17 is_stmt 0 view .LVU2898
 9578 0c40 F1EE10FA 		vmrs	APSR_nzcv, FPSCR
1376:src/main.cpp  ****             // Keytracking: how much the cutoff base follows pitch. keytrack=1 is
 9579              		.loc 6 1376 86 view .LVU2899
 9580 0c44 A7EE856A 		vfma.f32	s12, s15, s10
1376:src/main.cpp  ****             // Keytracking: how much the cutoff base follows pitch. keytrack=1 is
 9581              		.loc 6 1376 67 view .LVU2900
 9582 0c48 E6EE276A 		vfma.f32	s13, s12, s15
1376:src/main.cpp  ****             // Keytracking: how much the cutoff base follows pitch. keytrack=1 is
 9583              		.loc 6 1376 51 view .LVU2901
 9584 0c4c B0EE476A 		vmov.f32	s12, s14
 9585 0c50 A6EEA76A 		vfma.f32	s12, s13, s15
1376:src/main.cpp  ****             // Keytracking: how much the cutoff base follows pitch. keytrack=1 is
 9586              		.loc 6 1376 19 view .LVU2902
 9587 0c54 A6EE277A 		vfma.f32	s14, s12, s15
 9588 0c58 F0EE47DA 		vmov.f32	s27, s14
 9589              	.LVL761:
1381:src/main.cpp  ****                 ? freq
 9590              		.loc 6 1381 13 is_stmt 1 view .LVU2903
1382:src/main.cpp  ****                 : VOICE.freq_low * powf(freq / VOICE.freq_low, VOICE.keytrack);
 9591              		.loc 6 1382 17 is_stmt 0 view .LVU2904
 9592 0c5c C0F26082 		blt	.L694
 9593 0c60 F0EE687A 		vmov.f32	s15, s17
 9594              	.LVL762:
 9595              	.L476:
1384:src/main.cpp  **** 
 9596              		.loc 6 1384 13 is_stmt 1 view .LVU2905
1384:src/main.cpp  **** 
 9597              		.loc 6 1384 56 is_stmt 0 view .LVU2906
 9598 0c64 631B     		subs	r3, r4, r5
ARM GAS  /tmp/claude-502/ccry90Vn.s 			page 250


 9599 0c66 A44A     		ldr	r2, .L712
 9600              	.LBB1470:
 9601              	.LBB1471:
 627:src/main.cpp  **** }
 9602              		.loc 6 627 16 view .LVU2907
 9603 0c68 F3EE046A 		vmov.f32	s13, #2.0e+1
 9604              	.LBE1471:
 9605              	.LBE1470:
1384:src/main.cpp  **** 
 9606              		.loc 6 1384 56 view .LVU2908
 9607 0c6c 02EB8303 		add	r3, r2, r3, lsl #2
1384:src/main.cpp  **** 
 9608              		.loc 6 1384 48 view .LVU2909
 9609 0c70 93ED106A 		vldr.32	s12, [r3, #64]
 9610 0c74 67EE867A 		vmul.f32	s15, s15, s12
 9611              	.LVL763:
1384:src/main.cpp  **** 
 9612              		.loc 6 1384 36 view .LVU2910
 9613 0c78 67EEAD7A 		vmul.f32	s15, s15, s27
 9614              	.LVL764:
 9615              	.LBB1474:
 9616              	.LBI1470:
 626:src/main.cpp  ****     return v<lo?lo:v>hi?hi:v;
 9617              		.loc 6 626 21 is_stmt 1 view .LVU2911
 9618              	.LBB1472:
 627:src/main.cpp  **** }
 9619              		.loc 6 627 5 view .LVU2912
 627:src/main.cpp  **** }
 9620              		.loc 6 627 16 is_stmt 0 view .LVU2913
 9621 0c7c F4EEE67A 		vcmpe.f32	s15, s13
 9622 0c80 F1EE10FA 		vmrs	APSR_nzcv, FPSCR
 9623 0c84 00F17C81 		bmi	.L581
 627:src/main.cpp  **** }
 9624              		.loc 6 627 24 view .LVU2914
 9625 0c88 9FEDA07A 		vldr.32	s14, .L712+20
 9626 0c8c F4EE477A 		vcmp.f32	s15, s14
 9627 0c90 F1EE10FA 		vmrs	APSR_nzcv, FPSCR
 9628 0c94 77FE277A 		vselgt.f32	s15, s14, s15
 9629              	.LVL765:
 9630              	.L477:
 627:src/main.cpp  **** }
 9631              		.loc 6 627 24 view .LVU2915
 9632              	.LBE1472:
 9633              	.LBE1474:
1387:src/main.cpp  ****             float vib    = smoothstep(vib_in) * 0.8f;
 9634              		.loc 6 1387 13 is_stmt 1 view .LVU2916
1387:src/main.cpp  ****             float vib    = smoothstep(vib_in) * 0.8f;
 9635              		.loc 6 1387 42 is_stmt 0 view .LVU2917
 9636 0c98 9FED9D7A 		vldr.32	s14, .L712+24
1387:src/main.cpp  ****             float vib    = smoothstep(vib_in) * 0.8f;
 9637              		.loc 6 1387 34 view .LVU2918
 9638 0c9c 9FED9D6A 		vldr.32	s12, .L712+28
1387:src/main.cpp  ****             float vib    = smoothstep(vib_in) * 0.8f;
 9639              		.loc 6 1387 42 view .LVU2919
 9640 0ca0 38EE477A 		vsub.f32	s14, s16, s14
1387:src/main.cpp  ****             float vib    = smoothstep(vib_in) * 0.8f;
 9641              		.loc 6 1387 34 view .LVU2920
ARM GAS  /tmp/claude-502/ccry90Vn.s 			page 251


 9642 0ca4 C7EE066A 		vdiv.f32	s13, s14, s12
 9643              	.LVL766:
 9644              	.LBB1475:
 9645              	.LBI1475:
 626:src/main.cpp  ****     return v<lo?lo:v>hi?hi:v;
 9646              		.loc 6 626 21 is_stmt 1 view .LVU2921
 9647              	.LBB1476:
 627:src/main.cpp  **** }
 9648              		.loc 6 627 5 view .LVU2922
 627:src/main.cpp  **** }
 9649              		.loc 6 627 16 is_stmt 0 view .LVU2923
 9650 0ca8 F5EEC06A 		vcmpe.f32	s13, #0
 9651 0cac F1EE10FA 		vmrs	APSR_nzcv, FPSCR
 9652 0cb0 00F15B81 		bmi	.L583
 627:src/main.cpp  **** }
 9653              		.loc 6 627 24 view .LVU2924
 9654 0cb4 B7EE007A 		vmov.f32	s14, #1.0e+0
 9655 0cb8 F4EEC76A 		vcmpe.f32	s13, s14
 9656 0cbc F1EE10FA 		vmrs	APSR_nzcv, FPSCR
 9657 0cc0 00F38382 		bgt	.L584
 9658              	.LVL767:
 627:src/main.cpp  **** }
 9659              		.loc 6 627 24 view .LVU2925
 9660              	.LBE1476:
 9661              	.LBE1475:
1388:src/main.cpp  **** 
 9662              		.loc 6 1388 13 is_stmt 1 view .LVU2926
 9663              	.LBB1479:
 9664              	.LBI1479:
1362:src/main.cpp  ****                 x = x<0?0:x>1?1:x;
 9665              		.loc 6 1362 31 view .LVU2927
 9666              	.LBB1480:
1363:src/main.cpp  ****                 return x*x*(3.0f - 2.0f*x);
 9667              		.loc 6 1363 17 view .LVU2928
1364:src/main.cpp  ****             };
 9668              		.loc 6 1364 34 is_stmt 0 view .LVU2929
 9669 0cc4 B0EE005A 		vmov.f32	s10, #2.0e+0
 9670              	.LBE1480:
 9671              	.LBE1479:
1388:src/main.cpp  **** 
 9672              		.loc 6 1388 49 view .LVU2930
 9673 0cc8 DFED935A 		vldr.32	s11, .L712+32
 9674              	.LBB1484:
 9675              	.LBB1481:
1364:src/main.cpp  ****             };
 9676              		.loc 6 1364 34 view .LVU2931
 9677 0ccc B0EE087A 		vmov.f32	s14, #3.0e+0
1364:src/main.cpp  ****             };
 9678              		.loc 6 1364 25 view .LVU2932
 9679 0cd0 26EEA66A 		vmul.f32	s12, s13, s13
1364:src/main.cpp  ****             };
 9680              		.loc 6 1364 34 view .LVU2933
 9681 0cd4 A6EEC57A 		vfms.f32	s14, s13, s10
1364:src/main.cpp  ****             };
 9682              		.loc 6 1364 42 view .LVU2934
 9683 0cd8 26EE076A 		vmul.f32	s12, s12, s14
 9684              	.LBE1481:
ARM GAS  /tmp/claude-502/ccry90Vn.s 			page 252


 9685              	.LBE1484:
1388:src/main.cpp  **** 
 9686              		.loc 6 1388 49 view .LVU2935
 9687 0cdc 26EE256A 		vmul.f32	s12, s12, s11
 9688              	.LVL768:
 9689              	.L478:
 9690              	.LBB1485:
 9691              	.LBB1482:
1364:src/main.cpp  ****             };
 9692              		.loc 6 1364 17 is_stmt 1 view .LVU2936
1364:src/main.cpp  ****             };
 9693              		.loc 6 1364 17 is_stmt 0 view .LVU2937
 9694              	.LBE1482:
 9695              	.LBE1485:
1391:src/main.cpp  **** 
 9696              		.loc 6 1391 13 is_stmt 1 view .LVU2938
 9697              	.LBB1486:
 9698              	.LBI1486:
1362:src/main.cpp  ****                 x = x<0?0:x>1?1:x;
 9699              		.loc 6 1362 31 view .LVU2939
 9700              	.LBB1487:
1363:src/main.cpp  ****                 return x*x*(3.0f - 2.0f*x);
 9701              		.loc 6 1363 17 view .LVU2940
1363:src/main.cpp  ****                 return x*x*(3.0f - 2.0f*x);
 9702              		.loc 6 1363 24 is_stmt 0 view .LVU2941
 9703 0ce0 B5EEC08A 		vcmpe.f32	s16, #0
 9704 0ce4 F1EE10FA 		vmrs	APSR_nzcv, FPSCR
 9705 0ce8 00F14781 		bmi	.L585
 9706              	.L700:
1363:src/main.cpp  ****                 return x*x*(3.0f - 2.0f*x);
 9707              		.loc 6 1363 30 view .LVU2942
 9708 0cec F7EE006A 		vmov.f32	s13, #1.0e+0
 9709 0cf0 B4EEE68A 		vcmpe.f32	s16, s13
 9710 0cf4 F1EE10FA 		vmrs	APSR_nzcv, FPSCR
 9711 0cf8 09DC     		bgt	.L479
1364:src/main.cpp  ****             };
 9712              		.loc 6 1364 34 view .LVU2943
 9713 0cfa F0EE005A 		vmov.f32	s11, #2.0e+0
 9714 0cfe B0EE087A 		vmov.f32	s14, #3.0e+0
1364:src/main.cpp  ****             };
 9715              		.loc 6 1364 25 view .LVU2944
 9716 0d02 68EE086A 		vmul.f32	s13, s16, s16
1364:src/main.cpp  ****             };
 9717              		.loc 6 1364 34 view .LVU2945
 9718 0d06 A8EE657A 		vfms.f32	s14, s16, s11
1364:src/main.cpp  ****             };
 9719              		.loc 6 1364 42 view .LVU2946
 9720 0d0a 66EE876A 		vmul.f32	s13, s13, s14
 9721              	.L479:
 9722              	.LVL769:
1364:src/main.cpp  ****             };
 9723              		.loc 6 1364 17 is_stmt 1 view .LVU2947
 9724              	.LBE1487:
 9725              	.LBE1486:
1393:src/main.cpp  ****             g_target_cutoff  = cutoff;
 9726              		.loc 6 1393 30 is_stmt 0 view .LVU2948
 9727 0d0e 834B     		ldr	r3, .L712+36
ARM GAS  /tmp/claude-502/ccry90Vn.s 			page 253


1391:src/main.cpp  **** 
 9728              		.loc 6 1391 60 view .LVU2949
 9729 0d10 B7EE007A 		vmov.f32	s14, #1.0e+0
 9730 0d14 784A     		ldr	r2, .L712
 9731              	.LBE1445:
 9732              	.LBE1729:
 9733              	.LBB1730:
 9734              	.LBB1731:
 9735              	.LBB1732:
 627:src/main.cpp  **** }
 9736              		.loc 6 627 16 view .LVU2950
 9737 0d16 F5EEC0CA 		vcmpe.f32	s25, #0
 9738              	.LBE1732:
 9739              	.LBE1731:
 9740              	.LBE1730:
 9741              	.LBB1761:
 9742              	.LBB1507:
1393:src/main.cpp  ****             g_target_cutoff  = cutoff;
 9743              		.loc 6 1393 30 view .LVU2951
 9744 0d1a C3ED008A 		vstr.32	s17, [r3]
1394:src/main.cpp  ****             g_vibrato_depth  = vib;
 9745              		.loc 6 1394 30 view .LVU2952
 9746 0d1e 804B     		ldr	r3, .L712+40
 9747              	.LBE1507:
 9748              	.LBE1761:
 9749              	.LBB1762:
 9750              	.LBB1737:
 9751              	.LBB1733:
 627:src/main.cpp  **** }
 9752              		.loc 6 627 16 view .LVU2953
 9753 0d20 F1EE10FA 		vmrs	APSR_nzcv, FPSCR
 9754              	.LBE1733:
 9755              	.LBE1737:
 9756              	.LBE1762:
 9757              	.LBB1763:
 9758              	.LBB1508:
1394:src/main.cpp  ****             g_vibrato_depth  = vib;
 9759              		.loc 6 1394 30 view .LVU2954
 9760 0d24 C3ED007A 		vstr.32	s15, [r3]
1391:src/main.cpp  **** 
 9761              		.loc 6 1391 60 view .LVU2955
 9762 0d28 F0EE477A 		vmov.f32	s15, s14
 9763              	.LVL770:
1395:src/main.cpp  ****             g_target_drive   = drive;
 9764              		.loc 6 1395 30 view .LVU2956
 9765 0d2c 7D4B     		ldr	r3, .L712+44
1395:src/main.cpp  ****             g_target_drive   = drive;
 9766              		.loc 6 1395 30 view .LVU2957
 9767 0d2e 83ED006A 		vstr.32	s12, [r3]
 9768              	.LVL771:
1391:src/main.cpp  **** 
 9769              		.loc 6 1391 60 view .LVU2958
 9770 0d32 A4EB0503 		sub	r3, r4, r5
 9771 0d36 02EB8303 		add	r3, r2, r3, lsl #2
1397:src/main.cpp  ****             g_amp_target     = 0.72f;
 9772              		.loc 6 1397 30 view .LVU2959
 9773 0d3a 7B4A     		ldr	r2, .L712+48
ARM GAS  /tmp/claude-502/ccry90Vn.s 			page 254


1391:src/main.cpp  **** 
 9774              		.loc 6 1391 60 view .LVU2960
 9775 0d3c 93ED136A 		vldr.32	s12, [r3, #76]
1396:src/main.cpp  ****             g_finger_on      = true;
 9776              		.loc 6 1396 30 view .LVU2961
 9777 0d40 7A4B     		ldr	r3, .L712+52
1391:src/main.cpp  **** 
 9778              		.loc 6 1391 60 view .LVU2962
 9779 0d42 E6EE267A 		vfma.f32	s15, s12, s13
 9780              	.LVL772:
1393:src/main.cpp  ****             g_target_cutoff  = cutoff;
 9781              		.loc 6 1393 13 is_stmt 1 view .LVU2963
1394:src/main.cpp  ****             g_vibrato_depth  = vib;
 9782              		.loc 6 1394 13 view .LVU2964
1395:src/main.cpp  ****             g_target_drive   = drive;
 9783              		.loc 6 1395 13 view .LVU2965
1396:src/main.cpp  ****             g_finger_on      = true;
 9784              		.loc 6 1396 13 view .LVU2966
1396:src/main.cpp  ****             g_finger_on      = true;
 9785              		.loc 6 1396 30 is_stmt 0 view .LVU2967
 9786 0d46 C3ED007A 		vstr.32	s15, [r3]
1397:src/main.cpp  ****             g_amp_target     = 0.72f;
 9787              		.loc 6 1397 13 is_stmt 1 view .LVU2968
1397:src/main.cpp  ****             g_amp_target     = 0.72f;
 9788              		.loc 6 1397 30 is_stmt 0 view .LVU2969
 9789 0d4a 4FF00103 		mov	r3, #1
 9790 0d4e 1370     		strb	r3, [r2]
1398:src/main.cpp  **** 
 9791              		.loc 6 1398 13 is_stmt 1 view .LVU2970
1398:src/main.cpp  **** 
 9792              		.loc 6 1398 30 is_stmt 0 view .LVU2971
 9793 0d50 774B     		ldr	r3, .L712+56
 9794 0d52 784A     		ldr	r2, .L712+60
 9795 0d54 1360     		str	r3, [r2]	@ float
 9796              	.LBE1508:
 9797              	.LBE1763:
1419:src/main.cpp  ****         if(f1_on) {
 9798              		.loc 6 1419 9 is_stmt 1 view .LVU2972
 9799              	.LVL773:
1420:src/main.cpp  ****             float p01      = clampf((float)tracked[0].pos / 1000.0f, 0.0f, 1.0f);
 9800              		.loc 6 1420 9 view .LVU2973
 9801              	.LBB1764:
1421:src/main.cpp  ****             float pr01     = clampf((float)tracked[0].pressure / 100.0f, 0.0f, 1.0f);
 9802              		.loc 6 1421 13 view .LVU2974
 9803              	.LBB1738:
 9804              	.LBI1731:
 626:src/main.cpp  ****     return v<lo?lo:v>hi?hi:v;
 9805              		.loc 6 626 21 view .LVU2975
 9806              	.LBB1734:
 627:src/main.cpp  **** }
 9807              		.loc 6 627 5 view .LVU2976
 627:src/main.cpp  **** }
 9808              		.loc 6 627 16 is_stmt 0 view .LVU2977
 9809 0d56 40F12F81 		bpl	.L695
 9810              	.LVL774:
 627:src/main.cpp  **** }
 9811              		.loc 6 627 16 view .LVU2978
ARM GAS  /tmp/claude-502/ccry90Vn.s 			page 255


 9812              	.LBE1734:
 9813              	.LBE1738:
1422:src/main.cpp  ****             float prs_mult = 0.75f + 0.25f * pr01;
 9814              		.loc 6 1422 13 is_stmt 1 view .LVU2979
 9815              	.LBB1739:
 9816              	.LBI1739:
 626:src/main.cpp  ****     return v<lo?lo:v>hi?hi:v;
 9817              		.loc 6 626 21 view .LVU2980
 9818              	.LBB1740:
 627:src/main.cpp  **** }
 9819              		.loc 6 627 5 view .LVU2981
 627:src/main.cpp  **** }
 9820              		.loc 6 627 16 is_stmt 0 view .LVU2982
 9821 0d5a B5EEC0DA 		vcmpe.f32	s26, #0
 9822 0d5e F1EE10FA 		vmrs	APSR_nzcv, FPSCR
 9823 0d62 40F11E82 		bpl	.L696
 9824              	.LBE1740:
 9825              	.LBE1739:
1424:src/main.cpp  ****             float l3_raw   = 2.0f * p01 - 1.0f;                 if(l3_raw < 0) l3_raw = 0;
 9826              		.loc 6 1424 19 view .LVU2983
 9827 0d66 F0EE478A 		vmov.f32	s17, s14
 9828              	.LVL775:
1425:src/main.cpp  ****             float l2_raw   = 1.0f - 2.0f * fabsf(p01 - 0.5f);   if(l2_raw < 0) l2_raw = 0;
 9829              		.loc 6 1425 87 view .LVU2984
 9830 0d6a 9FED79CA 		vldr.32	s24, .L712+88
 9831              	.LVL776:
 9832              	.L553:
1426:src/main.cpp  ****             led1_target    = sqrtf(sqrtf(l2_raw)) * prs_mult;  // middle tent
 9833              		.loc 6 1426 13 is_stmt 1 view .LVU2985
1426:src/main.cpp  ****             led1_target    = sqrtf(sqrtf(l2_raw)) * prs_mult;  // middle tent
 9834              		.loc 6 1426 65 view .LVU2986
1426:src/main.cpp  ****             led1_target    = sqrtf(sqrtf(l2_raw)) * prs_mult;  // middle tent
 9835              		.loc 6 1426 87 is_stmt 0 view .LVU2987
 9836 0d6e F6EE08DA 		vmov.f32	s27, #7.5e-1
 9837              	.LVL777:
1426:src/main.cpp  ****             led1_target    = sqrtf(sqrtf(l2_raw)) * prs_mult;  // middle tent
 9838              		.loc 6 1426 87 view .LVU2988
 9839 0d72 DFED776A 		vldr.32	s13, .L712+88
 9840              	.LVL778:
 9841              	.L493:
1427:src/main.cpp  ****             led2_target    = sqrtf(sqrtf(l1_raw)) * prs_mult;  // pos 0 ramp
 9842              		.loc 6 1427 35 view .LVU2989
 9843 0d76 B1EEE60A 		vsqrt.f32	s0, s13
 9844              	.LVL779:
 9845              	.L496:
1427:src/main.cpp  ****             led2_target    = sqrtf(sqrtf(l1_raw)) * prs_mult;  // pos 0 ramp
 9846              		.loc 6 1427 35 view .LVU2990
 9847 0d7a B5EE400A 		vcmp.f32	s0, #0
 9848 0d7e F1EE10FA 		vmrs	APSR_nzcv, FPSCR
 9849 0d82 00F1EB82 		bmi	.L664
 9850 0d86 F1EEC07A 		vsqrt.f32	s15, s0
 9851              	.L499:
 9852 0d8a F5EE408A 		vcmp.f32	s17, #0
1427:src/main.cpp  ****             led2_target    = sqrtf(sqrtf(l1_raw)) * prs_mult;  // pos 0 ramp
 9853              		.loc 6 1427 28 view .LVU2991
 9854 0d8e 2DEEA78A 		vmul.f32	s16, s27, s15
 9855              	.LVL780:
ARM GAS  /tmp/claude-502/ccry90Vn.s 			page 256


1428:src/main.cpp  ****             led3_target    = sqrtf(sqrtf(l3_raw)) * prs_mult * LED3_INTENSITY;
 9856              		.loc 6 1428 13 is_stmt 1 view .LVU2992
 9857 0d92 F1EE10FA 		vmrs	APSR_nzcv, FPSCR
 9858 0d96 00F1DC82 		bmi	.L665
1428:src/main.cpp  ****             led3_target    = sqrtf(sqrtf(l3_raw)) * prs_mult * LED3_INTENSITY;
 9859              		.loc 6 1428 35 is_stmt 0 view .LVU2993
 9860 0d9a B1EEE80A 		vsqrt.f32	s0, s17
 9861              	.L502:
 9862 0d9e B5EE400A 		vcmp.f32	s0, #0
 9863 0da2 F1EE10FA 		vmrs	APSR_nzcv, FPSCR
 9864 0da6 00F1CF82 		bmi	.L666
 9865 0daa F1EEC07A 		vsqrt.f32	s15, s0
 9866              	.L505:
 9867 0dae B5EE40CA 		vcmp.f32	s24, #0
1428:src/main.cpp  ****             led3_target    = sqrtf(sqrtf(l3_raw)) * prs_mult * LED3_INTENSITY;
 9868              		.loc 6 1428 28 view .LVU2994
 9869 0db2 6DEEA78A 		vmul.f32	s17, s27, s15
 9870              	.LVL781:
1429:src/main.cpp  ****         }
 9871              		.loc 6 1429 13 is_stmt 1 view .LVU2995
 9872 0db6 F1EE10FA 		vmrs	APSR_nzcv, FPSCR
 9873 0dba 00F1C082 		bmi	.L667
1429:src/main.cpp  ****         }
 9874              		.loc 6 1429 35 is_stmt 0 view .LVU2996
 9875 0dbe B1EECC0A 		vsqrt.f32	s0, s24
 9876              	.L508:
1429:src/main.cpp  ****         }
 9877              		.loc 6 1429 35 view .LVU2997
 9878 0dc2 B5EE400A 		vcmp.f32	s0, #0
 9879 0dc6 F1EE10FA 		vmrs	APSR_nzcv, FPSCR
 9880 0dca 00F1B382 		bmi	.L668
 9881 0dce F1EEC07A 		vsqrt.f32	s15, s0
 9882              	.L511:
1429:src/main.cpp  ****         }
 9883              		.loc 6 1429 28 view .LVU2998
 9884 0dd2 9FED597A 		vldr.32	s14, .L712+64
1429:src/main.cpp  ****         }
 9885              		.loc 6 1429 51 view .LVU2999
 9886 0dd6 6DEEA77A 		vmul.f32	s15, s27, s15
1429:src/main.cpp  ****         }
 9887              		.loc 6 1429 28 view .LVU3000
 9888 0dda 67EE877A 		vmul.f32	s15, s15, s14
 9889              	.LVL782:
1429:src/main.cpp  ****         }
 9890              		.loc 6 1429 28 view .LVU3001
 9891              	.LBE1764:
1433:src/main.cpp  ****             s_led1 = led1_target;
 9892              		.loc 6 1433 9 is_stmt 1 view .LVU3002
 9893              	.LBB1765:
 9894 0dde 002E     		cmp	r6, #0
 9895 0de0 00F0A581 		beq	.L697
 9896              	.LBE1765:
 9897              	.LBB1766:
1429:src/main.cpp  ****         }
 9898              		.loc 6 1429 28 is_stmt 0 view .LVU3003
 9899 0de4 F0EE679A 		vmov.f32	s19, s15
 9900              	.LVL783:
ARM GAS  /tmp/claude-502/ccry90Vn.s 			page 257


1428:src/main.cpp  ****             led3_target    = sqrtf(sqrtf(l3_raw)) * prs_mult * LED3_INTENSITY;
 9901              		.loc 6 1428 28 view .LVU3004
 9902 0de8 F0EE68AA 		vmov.f32	s21, s17
 9903              	.LVL784:
1427:src/main.cpp  ****             led2_target    = sqrtf(sqrtf(l1_raw)) * prs_mult;  // pos 0 ramp
 9904              		.loc 6 1427 28 view .LVU3005
 9905 0dec B0EE48AA 		vmov.f32	s20, s16
 9906              	.LVL785:
1427:src/main.cpp  ****             led2_target    = sqrtf(sqrtf(l1_raw)) * prs_mult;  // pos 0 ramp
 9907              		.loc 6 1427 28 view .LVU3006
 9908 0df0 FFF7B1BA 		b	.L512
 9909              	.LVL786:
 9910              	.L684:
1427:src/main.cpp  ****             led2_target    = sqrtf(sqrtf(l1_raw)) * prs_mult;  // pos 0 ramp
 9911              		.loc 6 1427 28 view .LVU3007
 9912              	.LBE1766:
1282:src/main.cpp  **** 
 9913              		.loc 6 1282 54 discriminator 1 view .LVU3008
 9914 0df4 FFF7FEFF 		bl	_ZN5daisy6System6GetNowEv
 9915              	.LVL787:
1288:src/main.cpp  ****         if(!multi){
 9916              		.loc 6 1288 9 is_stmt 1 discriminator 1 view .LVU3009
1288:src/main.cpp  ****         if(!multi){
 9917              		.loc 6 1288 35 is_stmt 0 discriminator 1 view .LVU3010
 9918 0df8 504B     		ldr	r3, .L712+68
 9919 0dfa 1A68     		ldr	r2, [r3]
 9920              	.LVL788:
1289:src/main.cpp  ****             g_active_voice = g_voice_idx;
 9921              		.loc 6 1289 9 is_stmt 1 discriminator 1 view .LVU3011
 9922              	.LBB1767:
 9923 0dfc 0C2A     		cmp	r2, #12
 9924 0dfe 7FF481AA 		bne	.L562
 9925              	.LBE1767:
 9926              	.LBE1806:
1291:src/main.cpp  ****             float p    = clampf((float)tracked[0].pos / 1000.0f, 0.0f, 1.0f);
 9927              		.loc 6 1291 16 view .LVU3012
 9928              	.LBB1807:
 9929              	.LBB1768:
 9930              	.LBB1426:
 9931 0e02 059B     		ldr	r3, [sp, #20]
 9932 0e04 002B     		cmp	r3, #0
 9933 0e06 00F09182 		beq	.L465
 9934              	.LBB1427:
1292:src/main.cpp  ****             int   zone = (int)(p * 4.0f); if(zone > 3) zone = 3;
 9935              		.loc 6 1292 13 view .LVU3013
1292:src/main.cpp  ****             int   zone = (int)(p * 4.0f); if(zone > 3) zone = 3;
 9936              		.loc 6 1292 33 is_stmt 0 view .LVU3014
 9937 0e0a D9ED017A 		vldr.32	s15, [r9, #4]	@ int
1292:src/main.cpp  ****             int   zone = (int)(p * 4.0f); if(zone > 3) zone = 3;
 9938              		.loc 6 1292 32 view .LVU3015
 9939 0e0e 9FED4C7A 		vldr.32	s14, .L712+72
1292:src/main.cpp  ****             int   zone = (int)(p * 4.0f); if(zone > 3) zone = 3;
 9940              		.loc 6 1292 33 view .LVU3016
 9941 0e12 F8EEE77A 		vcvt.f32.s32	s15, s15
1292:src/main.cpp  ****             int   zone = (int)(p * 4.0f); if(zone > 3) zone = 3;
 9942              		.loc 6 1292 32 view .LVU3017
 9943 0e16 C7EE87CA 		vdiv.f32	s25, s15, s14
ARM GAS  /tmp/claude-502/ccry90Vn.s 			page 258


 9944              	.LVL789:
 9945              	.LBB1428:
 9946              	.LBI1428:
 626:src/main.cpp  ****     return v<lo?lo:v>hi?hi:v;
 9947              		.loc 6 626 21 is_stmt 1 view .LVU3018
 9948              	.LBB1429:
 627:src/main.cpp  **** }
 9949              		.loc 6 627 5 view .LVU3019
 627:src/main.cpp  **** }
 9950              		.loc 6 627 16 is_stmt 0 view .LVU3020
 9951 0e1a F5EEC0CA 		vcmpe.f32	s25, #0
 9952 0e1e F1EE10FA 		vmrs	APSR_nzcv, FPSCR
 9953 0e22 00F1E481 		bmi	.L569
 627:src/main.cpp  **** }
 9954              		.loc 6 627 24 view .LVU3021
 9955 0e26 F7EE007A 		vmov.f32	s15, #1.0e+0
 9956 0e2a F4EEE7CA 		vcmpe.f32	s25, s15
 9957 0e2e F1EE10FA 		vmrs	APSR_nzcv, FPSCR
 9958 0e32 00F30382 		bgt	.L570
 9959              	.LBE1429:
 9960              	.LBE1428:
1293:src/main.cpp  ****             g_active_voice = MULTI_ZONES[zone];
 9961              		.loc 6 1293 34 view .LVU3022
 9962 0e36 F1EE007A 		vmov.f32	s15, #4.0e+0
1294:src/main.cpp  ****             float subp = p * 4.0f - (float)zone;                 // 0..1 within the zone
 9963              		.loc 6 1294 46 view .LVU3023
 9964 0e3a 4249     		ldr	r1, .L712+76
1298:src/main.cpp  ****         }
 9965              		.loc 6 1298 80 view .LVU3024
 9966 0e3c 4248     		ldr	r0, .L712+80
1293:src/main.cpp  ****             g_active_voice = MULTI_ZONES[zone];
 9967              		.loc 6 1293 34 view .LVU3025
 9968 0e3e 6CEEA77A 		vmul.f32	s15, s25, s15
1293:src/main.cpp  ****             g_active_voice = MULTI_ZONES[zone];
 9969              		.loc 6 1293 19 view .LVU3026
 9970 0e42 BDEEE77A 		vcvt.s32.f32	s14, s15
 9971 0e46 17EE103A 		vmov	r3, s14	@ int
 9972 0e4a 032B     		cmp	r3, #3
 9973 0e4c A8BF     		it	ge
 9974 0e4e 0323     		movge	r3, #3
1295:src/main.cpp  ****             int   step = (int)(subp * (float)MULTI_NINTERVALS);
 9975              		.loc 6 1295 37 view .LVU3027
 9976 0e50 07EE103A 		vmov	s14, r3	@ int
1294:src/main.cpp  ****             float subp = p * 4.0f - (float)zone;                 // 0..1 within the zone
 9977              		.loc 6 1294 46 view .LVU3028
 9978 0e54 51F82310 		ldr	r1, [r1, r3, lsl #2]
1295:src/main.cpp  ****             int   step = (int)(subp * (float)MULTI_NINTERVALS);
 9979              		.loc 6 1295 37 view .LVU3029
 9980 0e58 B8EEC77A 		vcvt.f32.s32	s14, s14
1295:src/main.cpp  ****             int   step = (int)(subp * (float)MULTI_NINTERVALS);
 9981              		.loc 6 1295 19 view .LVU3030
 9982 0e5c 77EEC77A 		vsub.f32	s15, s15, s14
1296:src/main.cpp  ****             if(step >= MULTI_NINTERVALS) step = MULTI_NINTERVALS - 1;
 9983              		.loc 6 1296 19 view .LVU3031
 9984 0e60 B0EE677A 		vmov.f32	s14, s15
 9985 0e64 BEEECF7A 		vcvt.s32.f32	s14, s14, #2
 9986 0e68 17EE103A 		vmov	r3, s14	@ int
ARM GAS  /tmp/claude-502/ccry90Vn.s 			page 259


1298:src/main.cpp  ****         }
 9987              		.loc 6 1298 80 view .LVU3032
 9988 0e6c 032B     		cmp	r3, #3
 9989 0e6e A8BF     		it	ge
 9990 0e70 0323     		movge	r3, #3
 9991 0e72 00EB8303 		add	r3, r0, r3, lsl #2
 9992 0e76 93ED00BA 		vldr.32	s22, [r3]
 9993              	.LVL790:
 9994              	.L466:
1293:src/main.cpp  ****             g_active_voice = MULTI_ZONES[zone];
 9995              		.loc 6 1293 13 is_stmt 1 view .LVU3033
1293:src/main.cpp  ****             g_active_voice = MULTI_ZONES[zone];
 9996              		.loc 6 1293 43 view .LVU3034
1294:src/main.cpp  ****             float subp = p * 4.0f - (float)zone;                 // 0..1 within the zone
 9997              		.loc 6 1294 13 view .LVU3035
1294:src/main.cpp  ****             float subp = p * 4.0f - (float)zone;                 // 0..1 within the zone
 9998              		.loc 6 1294 28 is_stmt 0 view .LVU3036
 9999 0e7a 344B     		ldr	r3, .L712+84
 10000              	.LBE1427:
 10001              	.LBE1426:
 10002              	.LBE1768:
 10003              	.LBB1769:
 10004              	.LBB1509:
 10005              	.LBB1490:
 10006              	.LBB1448:
 627:src/main.cpp  **** }
 10007              		.loc 6 627 16 view .LVU3037
 10008 0e7c F5EEC0CA 		vcmpe.f32	s25, #0
 10009              	.LBE1448:
 10010              	.LBE1490:
 10011              	.LBE1509:
 10012              	.LBE1769:
 10013              	.LBB1770:
 10014              	.LBB1439:
 10015              	.LBB1434:
1298:src/main.cpp  ****         }
 10016              		.loc 6 1298 49 view .LVU3038
 10017 0e80 1D48     		ldr	r0, .L712
1294:src/main.cpp  ****             float subp = p * 4.0f - (float)zone;                 // 0..1 within the zone
 10018              		.loc 6 1294 28 view .LVU3039
 10019 0e82 1960     		str	r1, [r3]
1295:src/main.cpp  ****             int   step = (int)(subp * (float)MULTI_NINTERVALS);
 10020              		.loc 6 1295 13 is_stmt 1 view .LVU3040
 10021              	.LVL791:
1296:src/main.cpp  ****             if(step >= MULTI_NINTERVALS) step = MULTI_NINTERVALS - 1;
 10022              		.loc 6 1296 13 view .LVU3041
1297:src/main.cpp  ****             multi_freq = VOICES[g_active_voice].freq_low * MULTI_INTERVALS[step];
 10023              		.loc 6 1297 13 view .LVU3042
1298:src/main.cpp  ****         }
 10024              		.loc 6 1298 13 view .LVU3043
1298:src/main.cpp  ****         }
 10025              		.loc 6 1298 33 is_stmt 0 view .LVU3044
 10026 0e84 1946     		mov	r1, r3
 10027 0e86 1B68     		ldr	r3, [r3]
 10028              	.LBE1434:
 10029              	.LBE1439:
 10030              	.LBE1770:
ARM GAS  /tmp/claude-502/ccry90Vn.s 			page 260


 10031              	.LBB1771:
 10032              	.LBB1510:
 10033              	.LBB1491:
 10034              	.LBB1449:
 627:src/main.cpp  **** }
 10035              		.loc 6 627 16 view .LVU3045
 10036 0e88 F1EE10FA 		vmrs	APSR_nzcv, FPSCR
 10037              	.LBE1449:
 10038              	.LBE1491:
 10039              	.LBE1510:
 10040              	.LBE1771:
1302:src/main.cpp  **** 
 10041              		.loc 6 1302 37 view .LVU3046
 10042 0e8c 0D68     		ldr	r5, [r1]
 10043              	.LBB1772:
 10044              	.LBB1440:
 10045              	.LBB1435:
1298:src/main.cpp  ****         }
 10046              		.loc 6 1298 49 view .LVU3047
 10047 0e8e C3EB4313 		rsb	r3, r3, r3, lsl #5
 10048              	.LBE1435:
 10049              	.LBE1440:
 10050              	.LBE1772:
1302:src/main.cpp  **** 
 10051              		.loc 6 1302 37 view .LVU3048
 10052 0e92 059E     		ldr	r6, [sp, #20]
 10053              	.LBB1773:
 10054              	.LBB1441:
 10055              	.LBB1436:
1298:src/main.cpp  ****         }
 10056              		.loc 6 1298 49 view .LVU3049
 10057 0e94 00EB8303 		add	r3, r0, r3, lsl #2
1298:src/main.cpp  ****         }
 10058              		.loc 6 1298 24 view .LVU3050
 10059 0e98 D3ED017A 		vldr.32	s15, [r3, #4]
 10060 0e9c 2BEE27BA 		vmul.f32	s22, s22, s15
 10061              	.LVL792:
1298:src/main.cpp  ****         }
 10062              		.loc 6 1298 24 view .LVU3051
 10063              	.LBE1436:
 10064              	.LBE1441:
 10065              	.LBE1773:
1302:src/main.cpp  **** 
 10066              		.loc 6 1302 9 is_stmt 1 view .LVU3052
1304:src/main.cpp  ****         {
 10067              		.loc 6 1304 9 view .LVU3053
 10068              	.LBB1774:
 10069              	.LBB1511:
1306:src/main.cpp  ****             float prs01 = clampf((float)tracked[0].pressure / 100.0f, 0.0f, 1.0f); // hard clamp
 10070              		.loc 6 1306 13 view .LVU3054
 10071              	.LBB1492:
 626:src/main.cpp  ****     return v<lo?lo:v>hi?hi:v;
 10072              		.loc 6 626 21 view .LVU3055
 10073              	.LBB1450:
 627:src/main.cpp  **** }
 10074              		.loc 6 627 5 view .LVU3056
 627:src/main.cpp  **** }
ARM GAS  /tmp/claude-502/ccry90Vn.s 			page 261


 10075              		.loc 6 627 16 is_stmt 0 view .LVU3057
 10076 0ea0 7FF544AE 		bpl	.L698
 10077              	.LVL793:
 10078              	.L571:
 627:src/main.cpp  **** }
 10079              		.loc 6 627 16 view .LVU3058
 10080 0ea4 9FED2A7A 		vldr.32	s14, .L712+88
 10081 0ea8 48E6     		b	.L469
 10082              	.LVL794:
 10083              	.L683:
 627:src/main.cpp  **** }
 10084              		.loc 6 627 16 view .LVU3059
 10085              	.LBE1450:
 10086              	.LBE1492:
 10087              	.LBE1511:
 10088              	.LBE1774:
1281:src/main.cpp  ****         bool f1_fresh = !f1_was_on && (System::GetNow() - f1_last_seen_ms >= F1_REQUANTIZE_MS);
 10089              		.loc 6 1281 19 is_stmt 1 discriminator 1 view .LVU3060
1281:src/main.cpp  ****         bool f1_fresh = !f1_was_on && (System::GetNow() - f1_last_seen_ms >= F1_REQUANTIZE_MS);
 10090              		.loc 6 1281 51 is_stmt 0 discriminator 1 view .LVU3061
 10091 0eaa FFF7FEFF 		bl	_ZN5daisy6System6GetNowEv
 10092              	.LVL795:
1281:src/main.cpp  ****         bool f1_fresh = !f1_was_on && (System::GetNow() - f1_last_seen_ms >= F1_REQUANTIZE_MS);
 10093              		.loc 6 1281 51 discriminator 1 view .LVU3062
 10094 0eae FFF720BA 		b	.L461
 10095              	.LVL796:
 10096              	.L686:
 10097              	.LBB1775:
 10098              	.LBB1594:
1457:src/main.cpp  **** 
 10099              		.loc 6 1457 13 is_stmt 1 view .LVU3063
1460:src/main.cpp  ****                 x = x<0?0:x>1?1:x;
 10100              		.loc 6 1460 13 view .LVU3064
1466:src/main.cpp  ****             float ss3 = smootherstep2(ss2);   // triple smootherstep ŌĆö very lazy
 10101              		.loc 6 1466 13 view .LVU3065
 10102              	.LBB1576:
1366:src/main.cpp  ****                 x = x<0?0:x>1?1:x;
 10103              		.loc 6 1366 33 view .LVU3066
 10104              	.LBB1536:
1367:src/main.cpp  ****                 return x*x*x*(x*(x*6.0f - 15.0f) + 10.0f);
 10105              		.loc 6 1367 17 view .LVU3067
1368:src/main.cpp  ****             };
 10106              		.loc 6 1368 41 is_stmt 0 view .LVU3068
 10107 0eb2 F1EE085A 		vmov.f32	s11, #6.0e+0
 10108              	.LBE1536:
 10109              	.LBE1576:
1479:src/main.cpp  ****             float rm    = smoothstep2(rm_in) * VOICE.ringmod_max;
 10110              		.loc 6 1479 41 view .LVU3069
 10111 0eb6 9FED274A 		vldr.32	s8, .L712+92
 10112              	.LBB1577:
 10113              	.LBB1537:
1368:src/main.cpp  ****             };
 10114              		.loc 6 1368 41 view .LVU3070
 10115 0eba FAEE0E4A 		vmov.f32	s9, #-1.5e+1
 10116              	.LBE1537:
 10117              	.LBE1577:
1479:src/main.cpp  ****             float rm    = smoothstep2(rm_in) * VOICE.ringmod_max;
ARM GAS  /tmp/claude-502/ccry90Vn.s 			page 262


 10118              		.loc 6 1479 33 view .LVU3071
 10119 0ebe DFED263A 		vldr.32	s7, .L712+96
 10120              	.LBB1578:
 10121              	.LBB1538:
1368:src/main.cpp  ****             };
 10122              		.loc 6 1368 50 view .LVU3072
 10123 0ec2 B2EE045A 		vmov.f32	s10, #1.0e+1
1368:src/main.cpp  ****             };
 10124              		.loc 6 1368 25 view .LVU3073
 10125 0ec6 67EE077A 		vmul.f32	s15, s14, s14
1368:src/main.cpp  ****             };
 10126              		.loc 6 1368 41 view .LVU3074
 10127 0eca E7EE254A 		vfma.f32	s9, s14, s11
 10128              	.LBE1538:
 10129              	.LBE1578:
1479:src/main.cpp  ****             float rm    = smoothstep2(rm_in) * VOICE.ringmod_max;
 10130              		.loc 6 1479 41 view .LVU3075
 10131 0ece 37EE444A 		vsub.f32	s8, s14, s8
 10132              	.LBB1579:
 10133              	.LBB1539:
1368:src/main.cpp  ****             };
 10134              		.loc 6 1368 27 view .LVU3076
 10135 0ed2 67EE877A 		vmul.f32	s15, s15, s14
 10136              	.LBE1539:
 10137              	.LBE1579:
1479:src/main.cpp  ****             float rm    = smoothstep2(rm_in) * VOICE.ringmod_max;
 10138              		.loc 6 1479 33 view .LVU3077
 10139 0ed6 C4EE235A 		vdiv.f32	s11, s8, s7
 10140              	.LBB1580:
 10141              	.LBB1540:
1368:src/main.cpp  ****             };
 10142              		.loc 6 1368 50 view .LVU3078
 10143 0eda A7EE245A 		vfma.f32	s10, s14, s9
1368:src/main.cpp  ****             };
 10144              		.loc 6 1368 57 view .LVU3079
 10145 0ede 67EE857A 		vmul.f32	s15, s15, s10
1368:src/main.cpp  ****             };
 10146              		.loc 6 1368 17 is_stmt 1 view .LVU3080
 10147              	.LVL797:
1368:src/main.cpp  ****             };
 10148              		.loc 6 1368 17 is_stmt 0 view .LVU3081
 10149              	.LBE1540:
 10150              	.LBE1580:
1467:src/main.cpp  ****             float bc  = smootherstep2(ss3) * VOICE.fold_max; // ceiling is voice-defined
 10151              		.loc 6 1467 13 is_stmt 1 view .LVU3082
 10152              	.LBB1581:
1366:src/main.cpp  ****                 x = x<0?0:x>1?1:x;
 10153              		.loc 6 1366 33 view .LVU3083
 10154              	.LBB1544:
1367:src/main.cpp  ****                 return x*x*x*(x*(x*6.0f - 15.0f) + 10.0f);
 10155              		.loc 6 1367 17 view .LVU3084
1367:src/main.cpp  ****                 return x*x*x*(x*(x*6.0f - 15.0f) + 10.0f);
 10156              		.loc 6 1367 24 is_stmt 0 view .LVU3085
 10157 0ee2 F5EEC07A 		vcmpe.f32	s15, #0
 10158 0ee6 F1EE10FA 		vmrs	APSR_nzcv, FPSCR
 10159 0eea 40F1BB80 		bpl	.L699
 10160 0eee DFED187A 		vldr.32	s15, .L712+88
ARM GAS  /tmp/claude-502/ccry90Vn.s 			page 263


 10161 0ef2 FFF7ACBA 		b	.L519
 10162              	.L713:
 10163 0ef6 00BF     		.align	2
 10164              	.L712:
 10165 0ef8 00000000 		.word	.LANCHOR13
 10166 0efc 68B32A3E 		.word	1042985832
 10167 0f00 006F313F 		.word	1060204288
 10168 0f04 9FCD2A3D 		.word	1026215327
 10169 0f08 77BE7F3F 		.word	1065336439
 10170 0f0c 00A08C46 		.word	1183621120
 10171 0f10 9A99193F 		.word	1058642330
 10172 0f14 CDCCCC3E 		.word	1053609165
 10173 0f18 CDCC4C3F 		.word	1061997773
 10174 0f1c 00000000 		.word	.LANCHOR1
 10175 0f20 00000000 		.word	.LANCHOR2
 10176 0f24 00000000 		.word	.LANCHOR5
 10177 0f28 00000000 		.word	.LANCHOR54
 10178 0f2c 00000000 		.word	.LANCHOR4
 10179 0f30 EC51383F 		.word	1060655596
 10180 0f34 00000000 		.word	.LANCHOR8
 10181 0f38 CDCCCC3D 		.word	1036831949
 10182 0f3c 00000000 		.word	.LANCHOR51
 10183 0f40 00007A44 		.word	1148846080
 10184 0f44 00000000 		.word	.LANCHOR52
 10185 0f48 00000000 		.word	.LANCHOR53
 10186 0f4c 00000000 		.word	.LANCHOR11
 10187 0f50 00000000 		.word	0
 10188 0f54 9A99593F 		.word	1062836634
 10189 0f58 9A99193E 		.word	1041865114
 10190              	.LVL798:
 10191              	.L595:
1367:src/main.cpp  ****                 return x*x*x*(x*(x*6.0f - 15.0f) + 10.0f);
 10192              		.loc 6 1367 24 view .LVU3086
 10193              	.LBE1544:
 10194              	.LBE1581:
 10195              	.LBB1582:
 10196              	.LBB1573:
 10197 0f5c 1FED047A 		vldr.32	s14, .L712+88
 10198 0f60 FFF7AFBA 		b	.L525
 10199              	.LVL799:
 10200              	.L565:
1367:src/main.cpp  ****                 return x*x*x*(x*(x*6.0f - 15.0f) + 10.0f);
 10201              		.loc 6 1367 24 view .LVU3087
 10202              	.LBE1573:
 10203              	.LBE1582:
 10204              	.LBE1594:
 10205              	.LBE1775:
1213:src/main.cpp  ****         else                        vol = (float)(fsr_raw - FSR_MIN) * fsr_range_inv;
 10206              		.loc 6 1213 41 view .LVU3088
 10207 0f64 B7EE009A 		vmov.f32	s18, #1.0e+0
 10208 0f68 79E4     		b	.L424
 10209              	.LVL800:
 10210              	.L583:
 10211              	.LBB1776:
 10212              	.LBB1512:
 10213              	.LBB1493:
 10214              	.LBB1488:
ARM GAS  /tmp/claude-502/ccry90Vn.s 			page 264


1363:src/main.cpp  ****                 return x*x*(3.0f - 2.0f*x);
 10215              		.loc 6 1363 24 view .LVU3089
 10216 0f6a B5EEC08A 		vcmpe.f32	s16, #0
 10217              	.LBE1488:
 10218              	.LBE1493:
 10219              	.LBB1494:
 10220              	.LBB1477:
 10221 0f6e 1FED086A 		vldr.32	s12, .L712+88
 10222              	.LVL801:
1363:src/main.cpp  ****                 return x*x*(3.0f - 2.0f*x);
 10223              		.loc 6 1363 24 view .LVU3090
 10224              	.LBE1477:
 10225              	.LBE1494:
 10226              	.LBB1495:
 10227              	.LBB1483:
1364:src/main.cpp  ****             };
 10228              		.loc 6 1364 17 is_stmt 1 view .LVU3091
1364:src/main.cpp  ****             };
 10229              		.loc 6 1364 17 is_stmt 0 view .LVU3092
 10230              	.LBE1483:
 10231              	.LBE1495:
1391:src/main.cpp  **** 
 10232              		.loc 6 1391 13 is_stmt 1 view .LVU3093
 10233              	.LBB1496:
1362:src/main.cpp  ****                 x = x<0?0:x>1?1:x;
 10234              		.loc 6 1362 31 view .LVU3094
 10235              	.LBB1489:
1363:src/main.cpp  ****                 return x*x*(3.0f - 2.0f*x);
 10236              		.loc 6 1363 17 view .LVU3095
1363:src/main.cpp  ****                 return x*x*(3.0f - 2.0f*x);
 10237              		.loc 6 1363 24 is_stmt 0 view .LVU3096
 10238 0f72 F1EE10FA 		vmrs	APSR_nzcv, FPSCR
 10239 0f76 7FF5B9AE 		bpl	.L700
 10240              	.L585:
1363:src/main.cpp  ****                 return x*x*(3.0f - 2.0f*x);
 10241              		.loc 6 1363 24 view .LVU3097
 10242 0f7a 5FED0B6A 		vldr.32	s13, .L712+88
 10243 0f7e C6E6     		b	.L479
 10244              	.LVL802:
 10245              	.L581:
1363:src/main.cpp  ****                 return x*x*(3.0f - 2.0f*x);
 10246              		.loc 6 1363 24 view .LVU3098
 10247              	.LBE1489:
 10248              	.LBE1496:
 10249              	.LBB1497:
 10250              	.LBB1473:
 627:src/main.cpp  **** }
 10251              		.loc 6 627 16 view .LVU3099
 10252 0f80 F0EE667A 		vmov.f32	s15, s13
 10253              	.LVL803:
 627:src/main.cpp  **** }
 10254              		.loc 6 627 16 view .LVU3100
 10255 0f84 88E6     		b	.L477
 10256              	.LVL804:
 10257              	.L471:
 627:src/main.cpp  **** }
 10258              		.loc 6 627 16 view .LVU3101
ARM GAS  /tmp/claude-502/ccry90Vn.s 			page 265


 10259              	.LBE1473:
 10260              	.LBE1497:
1318:src/main.cpp  ****             float y = (freq_ratio - 1.0f) / (freq_ratio + 1.0f);
 10261              		.loc 6 1318 13 is_stmt 1 view .LVU3102
1319:src/main.cpp  ****             float y2 = y*y;
 10262              		.loc 6 1319 13 view .LVU3103
1320:src/main.cpp  ****             float ln_ratio = 2.0f*y*(1.0f + y2*(0.3333f + y2*0.2f));
 10263              		.loc 6 1320 13 view .LVU3104
1321:src/main.cpp  ****             float midi_raw = 69.0f + 17.3123f * ln_ratio; // 17.3123 = 12/ln(2)
 10264              		.loc 6 1321 13 view .LVU3105
1322:src/main.cpp  **** 
 10265              		.loc 6 1322 13 view .LVU3106
1324:src/main.cpp  **** 
 10266              		.loc 6 1324 13 view .LVU3107
1326:src/main.cpp  ****             {
 10267              		.loc 6 1326 13 view .LVU3108
 10268              	.LBB1498:
 10269 0f86 0C2A     		cmp	r2, #12
 10270 0f88 00F02E81 		beq	.L611
 10271              	.LBE1498:
 10272              	.LBB1499:
 10273              	.LBB1456:
 627:src/main.cpp  **** }
 10274              		.loc 6 627 16 is_stmt 0 view .LVU3109
 10275 0f8c F0EE4C7A 		vmov.f32	s15, s24
 10276              	.LVL805:
 10277              	.L556:
 627:src/main.cpp  **** }
 10278              		.loc 6 627 16 view .LVU3110
 10279              	.LBE1456:
 10280              	.LBE1499:
 10281              	.LBB1500:
 10282              	.LBB1461:
 627:src/main.cpp  **** }
 10283              		.loc 6 627 24 view .LVU3111
 10284 0f90 F4EEE78A 		vcmpe.f32	s17, s15
 10285 0f94 F1EE10FA 		vmrs	APSR_nzcv, FPSCR
 10286              	.LBE1461:
 10287              	.LBE1500:
 10288              	.LBB1501:
 10289              	.LBB1466:
1367:src/main.cpp  ****                 return x*x*x*(x*(x*6.0f - 15.0f) + 10.0f);
 10290              		.loc 6 1367 24 view .LVU3112
 10291 0f98 B5EEC08A 		vcmpe.f32	s16, #0
 10292              	.LBE1466:
 10293              	.LBE1501:
 10294              	.LBB1502:
 10295              	.LBB1462:
 627:src/main.cpp  **** }
 10296              		.loc 6 627 24 view .LVU3113
 10297 0f9c 58BF     		it	pl
 10298 0f9e F0EE678A 		vmovpl.f32	s17, s15
 10299              	.LVL806:
 627:src/main.cpp  **** }
 10300              		.loc 6 627 24 view .LVU3114
 10301              	.LBE1462:
 10302              	.LBE1502:
ARM GAS  /tmp/claude-502/ccry90Vn.s 			page 266


1362:src/main.cpp  ****                 x = x<0?0:x>1?1:x;
 10303              		.loc 6 1362 13 is_stmt 1 view .LVU3115
1366:src/main.cpp  ****                 x = x<0?0:x>1?1:x;
 10304              		.loc 6 1366 13 view .LVU3116
1373:src/main.cpp  ****             float cutoff_oct = VOICE.cutoff_oct_max * prs_cut;
 10305              		.loc 6 1373 13 view .LVU3117
 10306              	.LBB1503:
1366:src/main.cpp  ****                 x = x<0?0:x>1?1:x;
 10307              		.loc 6 1366 33 view .LVU3118
 10308              	.LBB1467:
1367:src/main.cpp  ****                 return x*x*x*(x*(x*6.0f - 15.0f) + 10.0f);
 10309              		.loc 6 1367 17 view .LVU3119
1367:src/main.cpp  ****                 return x*x*x*(x*(x*6.0f - 15.0f) + 10.0f);
 10310              		.loc 6 1367 24 is_stmt 0 view .LVU3120
 10311 0fa2 F1EE10FA 		vmrs	APSR_nzcv, FPSCR
 10312 0fa6 7FF51AAE 		bpl	.L701
 10313              	.L578:
1367:src/main.cpp  ****                 return x*x*x*(x*(x*6.0f - 15.0f) + 10.0f);
 10314              		.loc 6 1367 24 view .LVU3121
 10315 0faa 5FED177A 		vldr.32	s15, .L712+88
 10316 0fae 2DE6     		b	.L475
 10317              	.LVL807:
 10318              	.L591:
1367:src/main.cpp  ****                 return x*x*x*(x*(x*6.0f - 15.0f) + 10.0f);
 10319              		.loc 6 1367 24 view .LVU3122
 10320              	.LBE1467:
 10321              	.LBE1503:
 10322              	.LBE1512:
 10323              	.LBE1776:
 10324              	.LBB1777:
 10325              	.LBB1595:
 10326              	.LBB1583:
 10327              	.LBB1532:
 627:src/main.cpp  **** }
 10328              		.loc 6 627 16 view .LVU3123
 10329 0fb0 5FED197A 		vldr.32	s15, .L712+88
 10330 0fb4 FFF725BA 		b	.L515
 10331              	.LVL808:
 10332              	.L695:
 627:src/main.cpp  **** }
 10333              		.loc 6 627 16 view .LVU3124
 10334              	.LBE1532:
 10335              	.LBE1583:
 10336              	.LBE1595:
 10337              	.LBE1777:
 10338              	.LBB1778:
 10339              	.LBB1750:
 10340              	.LBB1735:
 627:src/main.cpp  **** }
 10341              		.loc 6 627 24 view .LVU3125
 10342 0fb8 F4EEC7CA 		vcmpe.f32	s25, s14
 10343 0fbc F1EE10FA 		vmrs	APSR_nzcv, FPSCR
 10344              	.LBE1735:
 10345              	.LBE1750:
 10346              	.LBB1751:
 10347              	.LBB1741:
 627:src/main.cpp  **** }
ARM GAS  /tmp/claude-502/ccry90Vn.s 			page 267


 10348              		.loc 6 627 16 view .LVU3126
 10349 0fc0 B5EEC0DA 		vcmpe.f32	s26, #0
 10350              	.LBE1741:
 10351              	.LBE1751:
 10352              	.LBB1752:
 10353              	.LBB1736:
 627:src/main.cpp  **** }
 10354              		.loc 6 627 24 view .LVU3127
 10355 0fc4 00F30881 		bgt	.L483
 10356              	.LVL809:
 627:src/main.cpp  **** }
 10357              		.loc 6 627 24 view .LVU3128
 10358              	.LBE1736:
 10359              	.LBE1752:
1422:src/main.cpp  ****             float prs_mult = 0.75f + 0.25f * pr01;
 10360              		.loc 6 1422 13 is_stmt 1 view .LVU3129
 10361              	.LBB1753:
 626:src/main.cpp  ****     return v<lo?lo:v>hi?hi:v;
 10362              		.loc 6 626 21 view .LVU3130
 10363              	.LBB1742:
 627:src/main.cpp  **** }
 10364              		.loc 6 627 5 view .LVU3131
 627:src/main.cpp  **** }
 10365              		.loc 6 627 16 is_stmt 0 view .LVU3132
 10366 0fc8 F1EE10FA 		vmrs	APSR_nzcv, FPSCR
 10367 0fcc 40F11C81 		bpl	.L661
 10368              	.LBE1742:
 10369              	.LBE1753:
1426:src/main.cpp  ****             led1_target    = sqrtf(sqrtf(l2_raw)) * prs_mult;  // middle tent
 10370              		.loc 6 1426 54 view .LVU3133
 10371 0fd0 F6EE007A 		vmov.f32	s15, #5.0e-1
 10372              	.LVL810:
1424:src/main.cpp  ****             float l3_raw   = 2.0f * p01 - 1.0f;                 if(l3_raw < 0) l3_raw = 0;
 10373              		.loc 6 1424 19 view .LVU3134
 10374 0fd4 B0EE006A 		vmov.f32	s12, #2.0e+0
 10375              	.LVL811:
1425:src/main.cpp  ****             float l2_raw   = 1.0f - 2.0f * fabsf(p01 - 0.5f);   if(l2_raw < 0) l2_raw = 0;
 10376              		.loc 6 1425 19 view .LVU3135
 10377 0fd8 BFEE00CA 		vmov.f32	s24, #-1.0e+0
1426:src/main.cpp  ****             led1_target    = sqrtf(sqrtf(l2_raw)) * prs_mult;  // middle tent
 10378              		.loc 6 1426 19 view .LVU3136
 10379 0fdc F6EE08DA 		vmov.f32	s27, #7.5e-1
 10380              	.LVL812:
 10381              	.L677:
1426:src/main.cpp  ****             led1_target    = sqrtf(sqrtf(l2_raw)) * prs_mult;  // middle tent
 10382              		.loc 6 1426 54 view .LVU3137
 10383 0fe0 7CEEE77A 		vsub.f32	s15, s25, s15
1424:src/main.cpp  ****             float l3_raw   = 2.0f * p01 - 1.0f;                 if(l3_raw < 0) l3_raw = 0;
 10384              		.loc 6 1424 19 view .LVU3138
 10385 0fe4 F0EE478A 		vmov.f32	s17, s14
 10386              	.LVL813:
1425:src/main.cpp  ****             float l2_raw   = 1.0f - 2.0f * fabsf(p01 - 0.5f);   if(l2_raw < 0) l2_raw = 0;
 10387              		.loc 6 1425 19 view .LVU3139
 10388 0fe8 ACEE86CA 		vfma.f32	s24, s25, s12
1426:src/main.cpp  ****             led1_target    = sqrtf(sqrtf(l2_raw)) * prs_mult;  // middle tent
 10389              		.loc 6 1426 49 view .LVU3140
 10390 0fec F0EEE77A 		vabs.f32	s15, s15
ARM GAS  /tmp/claude-502/ccry90Vn.s 			page 268


1424:src/main.cpp  ****             float l3_raw   = 2.0f * p01 - 1.0f;                 if(l3_raw < 0) l3_raw = 0;
 10391              		.loc 6 1424 19 view .LVU3141
 10392 0ff0 ECEEC68A 		vfms.f32	s17, s25, s12
1426:src/main.cpp  ****             led1_target    = sqrtf(sqrtf(l2_raw)) * prs_mult;  // middle tent
 10393              		.loc 6 1426 19 view .LVU3142
 10394 0ff4 A7EEC67A 		vfms.f32	s14, s15, s12
 10395              	.LVL814:
1426:src/main.cpp  ****             led1_target    = sqrtf(sqrtf(l2_raw)) * prs_mult;  // middle tent
 10396              		.loc 6 1426 19 view .LVU3143
 10397 0ff8 F0EE476A 		vmov.f32	s13, s14
 10398              	.LVL815:
 10399              	.L486:
1423:src/main.cpp  ****             float l1_raw   = 1.0f - 2.0f * p01;                 if(l1_raw < 0) l1_raw = 0;
 10400              		.loc 6 1423 13 is_stmt 1 view .LVU3144
1424:src/main.cpp  ****             float l3_raw   = 2.0f * p01 - 1.0f;                 if(l3_raw < 0) l3_raw = 0;
 10401              		.loc 6 1424 13 view .LVU3145
1424:src/main.cpp  ****             float l3_raw   = 2.0f * p01 - 1.0f;                 if(l3_raw < 0) l3_raw = 0;
 10402              		.loc 6 1424 65 view .LVU3146
 10403 0ffc F5EEC08A 		vcmpe.f32	s17, #0
 10404 1000 F1EE10FA 		vmrs	APSR_nzcv, FPSCR
1425:src/main.cpp  ****             float l2_raw   = 1.0f - 2.0f * fabsf(p01 - 0.5f);   if(l2_raw < 0) l2_raw = 0;
 10405              		.loc 6 1425 65 is_stmt 0 view .LVU3147
 10406 1004 B5EEC0CA 		vcmpe.f32	s24, #0
1424:src/main.cpp  ****             float l3_raw   = 2.0f * p01 - 1.0f;                 if(l3_raw < 0) l3_raw = 0;
 10407              		.loc 6 1424 87 view .LVU3148
 10408 1008 48BF     		it	mi
 10409 100a 5FED2F8A 		vldrmi.32	s17, .L712+88
 10410              	.LVL816:
1425:src/main.cpp  ****             float l2_raw   = 1.0f - 2.0f * fabsf(p01 - 0.5f);   if(l2_raw < 0) l2_raw = 0;
 10411              		.loc 6 1425 13 is_stmt 1 view .LVU3149
1425:src/main.cpp  ****             float l2_raw   = 1.0f - 2.0f * fabsf(p01 - 0.5f);   if(l2_raw < 0) l2_raw = 0;
 10412              		.loc 6 1425 65 view .LVU3150
 10413 100e F1EE10FA 		vmrs	APSR_nzcv, FPSCR
1426:src/main.cpp  ****             led1_target    = sqrtf(sqrtf(l2_raw)) * prs_mult;  // middle tent
 10414              		.loc 6 1426 65 is_stmt 0 view .LVU3151
 10415 1012 F5EEC06A 		vcmpe.f32	s13, #0
1425:src/main.cpp  ****             float l2_raw   = 1.0f - 2.0f * fabsf(p01 - 0.5f);   if(l2_raw < 0) l2_raw = 0;
 10416              		.loc 6 1425 87 view .LVU3152
 10417 1016 48BF     		it	mi
 10418 1018 1FED33CA 		vldrmi.32	s24, .L712+88
 10419              	.LVL817:
1426:src/main.cpp  ****             led1_target    = sqrtf(sqrtf(l2_raw)) * prs_mult;  // middle tent
 10420              		.loc 6 1426 13 is_stmt 1 view .LVU3153
1426:src/main.cpp  ****             led1_target    = sqrtf(sqrtf(l2_raw)) * prs_mult;  // middle tent
 10421              		.loc 6 1426 65 view .LVU3154
 10422 101c F1EE10FA 		vmrs	APSR_nzcv, FPSCR
 10423 1020 40F12881 		bpl	.L702
1426:src/main.cpp  ****             led1_target    = sqrtf(sqrtf(l2_raw)) * prs_mult;  // middle tent
 10424              		.loc 6 1426 87 is_stmt 0 view .LVU3155
 10425 1024 5FED366A 		vldr.32	s13, .L712+88
 10426 1028 A5E6     		b	.L493
 10427              	.LVL818:
 10428              	.L573:
1426:src/main.cpp  ****             led1_target    = sqrtf(sqrtf(l2_raw)) * prs_mult;  // middle tent
 10429              		.loc 6 1426 87 view .LVU3156
 10430              	.LBE1778:
 10431              	.LBB1779:
ARM GAS  /tmp/claude-502/ccry90Vn.s 			page 269


 10432              	.LBB1513:
 10433              	.LBB1504:
 10434              	.LBB1453:
 627:src/main.cpp  **** }
 10435              		.loc 6 627 16 view .LVU3157
 10436 102a 1FED378A 		vldr.32	s16, .L712+88
 10437 102e 9BE5     		b	.L470
 10438              	.LVL819:
 10439              	.L589:
 627:src/main.cpp  **** }
 10440              		.loc 6 627 16 view .LVU3158
 10441              	.LBE1453:
 10442              	.LBE1504:
 10443              	.LBE1513:
 10444              	.LBE1779:
 10445              	.LBB1780:
 10446              	.LBB1596:
 10447              	.LBB1584:
 10448              	.LBB1528:
 10449 1030 BFEE086A 		vmov.f32	s12, #-1.5e+0
 10450 1034 FFF7CDB9 		b	.L514
 10451              	.LVL820:
 10452              	.L687:
 627:src/main.cpp  **** }
 10453              		.loc 6 627 16 view .LVU3159
 10454              	.LBE1528:
 10455              	.LBE1584:
1482:src/main.cpp  ****             g_bitcrush      = bc;
 10456              		.loc 6 1482 42 view .LVU3160
 10457 1038 26EE056A 		vmul.f32	s12, s12, s10
 10458 103c FFF72ABA 		b	.L524
 10459              	.LVL821:
 10460              	.L669:
 10461              	.LBB1585:
 10462              	.LBB1551:
1367:src/main.cpp  ****                 return x*x*x*(x*(x*6.0f - 15.0f) + 10.0f);
 10463              		.loc 6 1367 30 view .LVU3161
 10464 1040 F7EE007A 		vmov.f32	s15, #1.0e+0
 10465 1044 F4EEE76A 		vcmpe.f32	s13, s15
 10466 1048 F1EE10FA 		vmrs	APSR_nzcv, FPSCR
 10467 104c 40F35881 		ble	.L670
 10468              	.LBE1551:
 10469              	.LBE1585:
1479:src/main.cpp  ****             float rm    = smoothstep2(rm_in) * VOICE.ringmod_max;
 10470              		.loc 6 1479 41 view .LVU3162
 10471 1050 5FED406A 		vldr.32	s13, .L712+92
 10472              	.LVL822:
1479:src/main.cpp  ****             float rm    = smoothstep2(rm_in) * VOICE.ringmod_max;
 10473              		.loc 6 1479 33 view .LVU3163
 10474 1054 1FED405A 		vldr.32	s10, .L712+96
1479:src/main.cpp  ****             float rm    = smoothstep2(rm_in) * VOICE.ringmod_max;
 10475              		.loc 6 1479 41 view .LVU3164
 10476 1058 77EE666A 		vsub.f32	s13, s14, s13
1479:src/main.cpp  ****             float rm    = smoothstep2(rm_in) * VOICE.ringmod_max;
 10477              		.loc 6 1479 33 view .LVU3165
 10478 105c C6EE855A 		vdiv.f32	s11, s13, s10
 10479 1060 FFF7F5B9 		b	.L519
ARM GAS  /tmp/claude-502/ccry90Vn.s 			page 270


 10480              	.LVL823:
 10481              	.L699:
 10482              	.LBB1586:
 10483              	.LBB1545:
1367:src/main.cpp  ****                 return x*x*x*(x*(x*6.0f - 15.0f) + 10.0f);
 10484              		.loc 6 1367 30 view .LVU3166
 10485 1064 F4EEE67A 		vcmpe.f32	s15, s13
 10486 1068 F1EE10FA 		vmrs	APSR_nzcv, FPSCR
 10487 106c 7FF7CBA9 		ble	.L563
 10488 1070 F0EE667A 		vmov.f32	s15, s13
 10489              	.LVL824:
1368:src/main.cpp  ****             };
 10490              		.loc 6 1368 17 is_stmt 1 view .LVU3167
1368:src/main.cpp  ****             };
 10491              		.loc 6 1368 17 is_stmt 0 view .LVU3168
 10492              	.LBE1545:
 10493              	.LBE1586:
1468:src/main.cpp  **** 
 10494              		.loc 6 1468 13 is_stmt 1 view .LVU3169
 10495              	.LBB1587:
1366:src/main.cpp  ****                 x = x<0?0:x>1?1:x;
 10496              		.loc 6 1366 33 view .LVU3170
 10497              	.LBB1552:
1367:src/main.cpp  ****                 return x*x*x*(x*(x*6.0f - 15.0f) + 10.0f);
 10498              		.loc 6 1367 17 view .LVU3171
 10499 1074 FFF7EBB9 		b	.L519
 10500              	.LVL825:
 10501              	.L680:
1367:src/main.cpp  ****                 return x*x*x*(x*(x*6.0f - 15.0f) + 10.0f);
 10502              		.loc 6 1367 17 is_stmt 0 view .LVU3172
 10503              	.LBE1552:
 10504              	.LBE1587:
 10505              	.LBE1596:
 10506              	.LBE1780:
 10507              	.LBB1781:
 10508              	.LBB1420:
1232:src/main.cpp  ****             last_touch_ms = now;
 10509              		.loc 6 1232 13 is_stmt 1 view .LVU3173
1233:src/main.cpp  ****             if((int32_t)(now - fsr_next_switch) >= 0){
 10510              		.loc 6 1233 13 view .LVU3174
1234:src/main.cpp  ****                 g_voice_idx = (g_voice_idx + 1) % NUM_VOICES;
 10511              		.loc 6 1234 13 view .LVU3175
1234:src/main.cpp  ****                 g_voice_idx = (g_voice_idx + 1) % NUM_VOICES;
 10512              		.loc 6 1234 30 is_stmt 0 view .LVU3176
 10513 1078 069B     		ldr	r3, [sp, #24]
 10514 107a 0B9A     		ldr	r2, [sp, #44]
 10515 107c 9B1A     		subs	r3, r3, r2
1234:src/main.cpp  ****                 g_voice_idx = (g_voice_idx + 1) % NUM_VOICES;
 10516              		.loc 6 1234 13 view .LVU3177
 10517 107e 002B     		cmp	r3, #0
 10518 1080 C0F2EF80 		blt	.L566
1235:src/main.cpp  ****                 hw.PrintLine("[voice %d/%d] %s",
 10519              		.loc 6 1235 17 is_stmt 1 view .LVU3178
1235:src/main.cpp  ****                 hw.PrintLine("[voice %d/%d] %s",
 10520              		.loc 6 1235 32 is_stmt 0 view .LVU3179
 10521 1084 B84E     		ldr	r6, .L714
1235:src/main.cpp  ****                 hw.PrintLine("[voice %d/%d] %s",
ARM GAS  /tmp/claude-502/ccry90Vn.s 			page 271


 10522              		.loc 6 1235 49 view .LVU3180
 10523 1086 B94A     		ldr	r2, .L714+4
1235:src/main.cpp  ****                 hw.PrintLine("[voice %d/%d] %s",
 10524              		.loc 6 1235 32 view .LVU3181
 10525 1088 3168     		ldr	r1, [r6]
 10526              	.LBB1408:
 10527              	.LBB1409:
 128:/Users/reza.kalfane/Workspaces/Daisy/DaisyExamples/libDaisy/src/daisy_seed.h ****     }
 10528              		.loc 1 128 23 view .LVU3182
 10529 108a B948     		ldr	r0, .L714+8
 10530              	.LVL826:
 128:/Users/reza.kalfane/Workspaces/Daisy/DaisyExamples/libDaisy/src/daisy_seed.h ****     }
 10531              		.loc 1 128 23 view .LVU3183
 10532              	.LBE1409:
 10533              	.LBE1408:
1235:src/main.cpp  ****                 hw.PrintLine("[voice %d/%d] %s",
 10534              		.loc 6 1235 44 view .LVU3184
 10535 108c 0131     		adds	r1, r1, #1
1235:src/main.cpp  ****                 hw.PrintLine("[voice %d/%d] %s",
 10536              		.loc 6 1235 49 view .LVU3185
 10537 108e 82FB0132 		smull	r3, r2, r2, r1
 10538 1092 CB17     		asrs	r3, r1, #31
 10539 1094 C3EBA203 		rsb	r3, r3, r2, asr #2
 10540              	.LBB1414:
 10541              	.LBB1410:
 128:/Users/reza.kalfane/Workspaces/Daisy/DaisyExamples/libDaisy/src/daisy_seed.h ****     }
 10542              		.loc 1 128 23 view .LVU3186
 10543 1098 0D22     		movs	r2, #13
 10544              	.LBE1410:
 10545              	.LBE1414:
1235:src/main.cpp  ****                 hw.PrintLine("[voice %d/%d] %s",
 10546              		.loc 6 1235 49 view .LVU3187
 10547 109a 03EB4304 		add	r4, r3, r3, lsl #1
 10548 109e 03EB8403 		add	r3, r3, r4, lsl #2
 10549              	.LBB1415:
 10550              	.LBB1411:
 128:/Users/reza.kalfane/Workspaces/Daisy/DaisyExamples/libDaisy/src/daisy_seed.h ****     }
 10551              		.loc 1 128 23 view .LVU3188
 10552 10a2 B44C     		ldr	r4, .L714+12
 10553              	.LBE1411:
 10554              	.LBE1415:
1235:src/main.cpp  ****                 hw.PrintLine("[voice %d/%d] %s",
 10555              		.loc 6 1235 49 view .LVU3189
 10556 10a4 CB1A     		subs	r3, r1, r3
1235:src/main.cpp  ****                 hw.PrintLine("[voice %d/%d] %s",
 10557              		.loc 6 1235 29 view .LVU3190
 10558 10a6 3360     		str	r3, [r6]
1236:src/main.cpp  ****                              g_voice_idx + 1, NUM_VOICES, VOICES[g_voice_idx].name);
 10559              		.loc 6 1236 17 is_stmt 1 view .LVU3191
1237:src/main.cpp  ****                 flash_voice_leds(g_voice_idx + 1);            // count = voice number
 10560              		.loc 6 1237 30 is_stmt 0 view .LVU3192
 10561 10a8 3168     		ldr	r1, [r6]
1237:src/main.cpp  ****                 flash_voice_leds(g_voice_idx + 1);            // count = voice number
 10562              		.loc 6 1237 66 view .LVU3193
 10563 10aa 3368     		ldr	r3, [r6]
 10564              	.LVL827:
 10565              	.LBB1416:
ARM GAS  /tmp/claude-502/ccry90Vn.s 			page 272


 10566              	.LBI1408:
 126:/Users/reza.kalfane/Workspaces/Daisy/DaisyExamples/libDaisy/src/daisy_seed.h ****     {
 10567              		.loc 1 126 17 is_stmt 1 view .LVU3194
 10568              	.LBB1412:
 128:/Users/reza.kalfane/Workspaces/Daisy/DaisyExamples/libDaisy/src/daisy_seed.h ****     }
 10569              		.loc 1 128 23 is_stmt 0 view .LVU3195
 10570 10ac 0131     		adds	r1, r1, #1
 10571              	.LVL828:
 128:/Users/reza.kalfane/Workspaces/Daisy/DaisyExamples/libDaisy/src/daisy_seed.h ****     }
 10572              		.loc 1 128 23 view .LVU3196
 10573              	.LBE1412:
 10574              	.LBE1416:
1237:src/main.cpp  ****                 flash_voice_leds(g_voice_idx + 1);            // count = voice number
 10575              		.loc 6 1237 79 view .LVU3197
 10576 10ae C3EB4313 		rsb	r3, r3, r3, lsl #5
 10577              	.LVL829:
 10578              	.LBB1417:
 10579              	.LBB1413:
 128:/Users/reza.kalfane/Workspaces/Daisy/DaisyExamples/libDaisy/src/daisy_seed.h ****     }
 10580              		.loc 1 128 23 view .LVU3198
 10581 10b2 54F82330 		ldr	r3, [r4, r3, lsl #2]
 10582 10b6 FFF7FEFF 		bl	_ZN5daisy6LoggerILNS_17LoggerDestinationE1EE9PrintLineEPKcz
 10583              	.LVL830:
 128:/Users/reza.kalfane/Workspaces/Daisy/DaisyExamples/libDaisy/src/daisy_seed.h ****     }
 10584              		.loc 1 128 23 view .LVU3199
 10585              	.LBE1413:
 10586              	.LBE1417:
1238:src/main.cpp  ****                 fsr_next_switch = System::GetNow() + VOICE_SWITCH_REPEAT_MS; // re-time after flash
 10587              		.loc 6 1238 17 is_stmt 1 view .LVU3200
1238:src/main.cpp  ****                 fsr_next_switch = System::GetNow() + VOICE_SWITCH_REPEAT_MS; // re-time after flash
 10588              		.loc 6 1238 34 is_stmt 0 view .LVU3201
 10589 10ba 3468     		ldr	r4, [r6]
 10590              	.LVL831:
 10591              	.LBB1418:
 10592              	.LBI1418:
1194:src/main.cpp  ****         for(int f = 0; f < count; f++){
 10593              		.loc 6 1194 29 is_stmt 1 view .LVU3202
 10594              	.LBB1419:
1195:src/main.cpp  ****             hw.dac.WriteValue(DacHandle::Channel::ONE, 4095);
 10595              		.loc 6 1195 26 view .LVU3203
 10596 10bc 002C     		cmp	r4, #0
 10597 10be 24DB     		blt	.L427
1195:src/main.cpp  ****             hw.dac.WriteValue(DacHandle::Channel::ONE, 4095);
 10598              		.loc 6 1195 17 is_stmt 0 view .LVU3204
 10599 10c0 0026     		movs	r6, #0
 10600              	.LVL832:
 10601              	.L426:
1196:src/main.cpp  ****             hw.dac.WriteValue(DacHandle::Channel::TWO, 4095);
 10602              		.loc 6 1196 13 is_stmt 1 view .LVU3205
1196:src/main.cpp  ****             hw.dac.WriteValue(DacHandle::Channel::TWO, 4095);
 10603              		.loc 6 1196 30 is_stmt 0 view .LVU3206
 10604 10c2 40F6FF72 		movw	r2, #4095
 10605 10c6 0021     		movs	r1, #0
 10606 10c8 AB48     		ldr	r0, .L714+16
1195:src/main.cpp  ****             hw.dac.WriteValue(DacHandle::Channel::ONE, 4095);
 10607              		.loc 6 1195 9 view .LVU3207
 10608 10ca 0136     		adds	r6, r6, #1
ARM GAS  /tmp/claude-502/ccry90Vn.s 			page 273


 10609              	.LVL833:
1196:src/main.cpp  ****             hw.dac.WriteValue(DacHandle::Channel::TWO, 4095);
 10610              		.loc 6 1196 30 view .LVU3208
 10611 10cc FFF7FEFF 		bl	_ZN5daisy9DacHandle10WriteValueENS0_7ChannelEt
 10612              	.LVL834:
1197:src/main.cpp  ****             g_led3_duty = LED3_INTENSITY;
 10613              		.loc 6 1197 13 is_stmt 1 view .LVU3209
1197:src/main.cpp  ****             g_led3_duty = LED3_INTENSITY;
 10614              		.loc 6 1197 30 is_stmt 0 view .LVU3210
 10615 10d0 40F6FF72 		movw	r2, #4095
 10616 10d4 0121     		movs	r1, #1
 10617 10d6 A848     		ldr	r0, .L714+16
 10618 10d8 FFF7FEFF 		bl	_ZN5daisy9DacHandle10WriteValueENS0_7ChannelEt
 10619              	.LVL835:
1198:src/main.cpp  ****             System::Delay(110);
 10620              		.loc 6 1198 13 is_stmt 1 view .LVU3211
1198:src/main.cpp  ****             System::Delay(110);
 10621              		.loc 6 1198 25 is_stmt 0 view .LVU3212
 10622 10dc A74F     		ldr	r7, .L714+20
 10623 10de A84B     		ldr	r3, .L714+24
1199:src/main.cpp  ****             hw.dac.WriteValue(DacHandle::Channel::ONE, 0);
 10624              		.loc 6 1199 26 view .LVU3213
 10625 10e0 6E20     		movs	r0, #110
1198:src/main.cpp  ****             System::Delay(110);
 10626              		.loc 6 1198 25 view .LVU3214
 10627 10e2 3B60     		str	r3, [r7]	@ float
1199:src/main.cpp  ****             hw.dac.WriteValue(DacHandle::Channel::ONE, 0);
 10628              		.loc 6 1199 13 is_stmt 1 view .LVU3215
1199:src/main.cpp  ****             hw.dac.WriteValue(DacHandle::Channel::ONE, 0);
 10629              		.loc 6 1199 26 is_stmt 0 view .LVU3216
 10630 10e4 FFF7FEFF 		bl	_ZN5daisy6System5DelayEm
 10631              	.LVL836:
1200:src/main.cpp  ****             hw.dac.WriteValue(DacHandle::Channel::TWO, 0);
 10632              		.loc 6 1200 13 is_stmt 1 view .LVU3217
1200:src/main.cpp  ****             hw.dac.WriteValue(DacHandle::Channel::TWO, 0);
 10633              		.loc 6 1200 30 is_stmt 0 view .LVU3218
 10634 10e8 0022     		movs	r2, #0
 10635 10ea A348     		ldr	r0, .L714+16
 10636 10ec 1146     		mov	r1, r2
 10637 10ee FFF7FEFF 		bl	_ZN5daisy9DacHandle10WriteValueENS0_7ChannelEt
 10638              	.LVL837:
1201:src/main.cpp  ****             g_led3_duty = 0.0f;
 10639              		.loc 6 1201 13 is_stmt 1 view .LVU3219
1201:src/main.cpp  ****             g_led3_duty = 0.0f;
 10640              		.loc 6 1201 30 is_stmt 0 view .LVU3220
 10641 10f2 0022     		movs	r2, #0
 10642 10f4 0121     		movs	r1, #1
 10643 10f6 A048     		ldr	r0, .L714+16
 10644 10f8 FFF7FEFF 		bl	_ZN5daisy9DacHandle10WriteValueENS0_7ChannelEt
 10645              	.LVL838:
1202:src/main.cpp  ****             System::Delay(140);
 10646              		.loc 6 1202 13 is_stmt 1 view .LVU3221
1202:src/main.cpp  ****             System::Delay(140);
 10647              		.loc 6 1202 25 is_stmt 0 view .LVU3222
 10648 10fc 0023     		movs	r3, #0
1203:src/main.cpp  ****         }
 10649              		.loc 6 1203 26 view .LVU3223
ARM GAS  /tmp/claude-502/ccry90Vn.s 			page 274


 10650 10fe 8C20     		movs	r0, #140
1202:src/main.cpp  ****             System::Delay(140);
 10651              		.loc 6 1202 25 view .LVU3224
 10652 1100 3B60     		str	r3, [r7]	@ float
1203:src/main.cpp  ****         }
 10653              		.loc 6 1203 13 is_stmt 1 view .LVU3225
1203:src/main.cpp  ****         }
 10654              		.loc 6 1203 26 is_stmt 0 view .LVU3226
 10655 1102 FFF7FEFF 		bl	_ZN5daisy6System5DelayEm
 10656              	.LVL839:
1195:src/main.cpp  ****             hw.dac.WriteValue(DacHandle::Channel::ONE, 4095);
 10657              		.loc 6 1195 9 is_stmt 1 view .LVU3227
1195:src/main.cpp  ****             hw.dac.WriteValue(DacHandle::Channel::ONE, 4095);
 10658              		.loc 6 1195 26 view .LVU3228
 10659 1106 B442     		cmp	r4, r6
 10660 1108 DBDA     		bge	.L426
 10661              	.LVL840:
 10662              	.L427:
1195:src/main.cpp  ****             hw.dac.WriteValue(DacHandle::Channel::ONE, 4095);
 10663              		.loc 6 1195 26 is_stmt 0 view .LVU3229
 10664              	.LBE1419:
 10665              	.LBE1418:
1239:src/main.cpp  ****             }
 10666              		.loc 6 1239 17 is_stmt 1 view .LVU3230
1239:src/main.cpp  ****             }
 10667              		.loc 6 1239 49 is_stmt 0 view .LVU3231
 10668 110a FFF7FEFF 		bl	_ZN5daisy6System6GetNowEv
 10669              	.LVL841:
1239:src/main.cpp  ****             }
 10670              		.loc 6 1239 33 view .LVU3232
 10671 110e 00F5FA63 		add	r3, r0, #2000
 10672              	.LBE1420:
 10673              	.LBE1781:
1212:src/main.cpp  ****         else if(fsr_raw >= fsr_max) vol = 1.0f;
 10674              		.loc 6 1212 41 view .LVU3233
 10675 1112 9FED9C9A 		vldr.32	s18, .L714+28
 10676              	.LBB1782:
 10677              	.LBB1421:
1239:src/main.cpp  ****             }
 10678              		.loc 6 1239 33 view .LVU3234
 10679 1116 0B93     		str	r3, [sp, #44]
 10680              	.LVL842:
1233:src/main.cpp  ****             if((int32_t)(now - fsr_next_switch) >= 0){
 10681              		.loc 6 1233 27 view .LVU3235
 10682 1118 069B     		ldr	r3, [sp, #24]
 10683              	.LVL843:
1233:src/main.cpp  ****             if((int32_t)(now - fsr_next_switch) >= 0){
 10684              		.loc 6 1233 27 view .LVU3236
 10685 111a 0793     		str	r3, [sp, #28]
 10686 111c FFF77BB8 		b	.L425
 10687              	.LVL844:
 10688              	.L694:
1233:src/main.cpp  ****             if((int32_t)(now - fsr_next_switch) >= 0){
 10689              		.loc 6 1233 27 view .LVU3237
 10690              	.LBE1421:
 10691              	.LBE1782:
 10692              	.LBB1783:
ARM GAS  /tmp/claude-502/ccry90Vn.s 			page 275


 10693              	.LBB1514:
1383:src/main.cpp  ****             float cutoff   = clampf(track_freq * VOICE.cutoff_mult * oct_mult, 20.0f, 18000.0f);
 10694              		.loc 6 1383 40 discriminator 2 view .LVU3238
 10695 1120 88EE8C0A 		vdiv.f32	s0, s17, s24
 10696 1124 FFF7FEFF 		bl	powf
 10697              	.LVL845:
1382:src/main.cpp  ****                 : VOICE.freq_low * powf(freq / VOICE.freq_low, VOICE.keytrack);
 10698              		.loc 6 1382 17 discriminator 2 view .LVU3239
 10699 1128 6CEE007A 		vmul.f32	s15, s24, s0
 10700 112c 9AE5     		b	.L476
 10701              	.LVL846:
 10702              	.L697:
1382:src/main.cpp  ****                 : VOICE.freq_low * powf(freq / VOICE.freq_low, VOICE.keytrack);
 10703              		.loc 6 1382 17 discriminator 2 view .LVU3240
 10704              	.LBE1514:
 10705              	.LBE1783:
 10706              	.LBB1784:
 10707              	.LBB1520:
1439:src/main.cpp  ****             s_led2 = s_led2 * LED_SMOOTH + led2_target * (1.0f - LED_SMOOTH);
 10708              		.loc 6 1439 56 view .LVU3241
 10709 112e 9FED966A 		vldr.32	s12, .L714+32
1438:src/main.cpp  ****             s_led1 = s_led1 * LED_SMOOTH + led1_target * (1.0f - LED_SMOOTH);
 10710              		.loc 6 1438 35 view .LVU3242
 10711 1132 DFED965A 		vldr.32	s11, .L714+36
1439:src/main.cpp  ****             s_led2 = s_led2 * LED_SMOOTH + led2_target * (1.0f - LED_SMOOTH);
 10712              		.loc 6 1439 56 view .LVU3243
 10713 1136 28EE067A 		vmul.f32	s14, s16, s12
1440:src/main.cpp  ****             s_led3 = s_led3 * smooth3   + led3_target * (1.0f - smooth3);
 10714              		.loc 6 1440 56 view .LVU3244
 10715 113a 68EE866A 		vmul.f32	s13, s17, s12
1441:src/main.cpp  ****         }
 10716              		.loc 6 1441 55 view .LVU3245
 10717 113e 67EE867A 		vmul.f32	s15, s15, s12
 10718              	.LVL847:
1441:src/main.cpp  ****         }
 10719              		.loc 6 1441 55 view .LVU3246
 10720 1142 FFF7FAB8 		b	.L482
 10721              	.LVL848:
 10722              	.L691:
1441:src/main.cpp  ****         }
 10723              		.loc 6 1441 55 view .LVU3247
 10724              	.LBE1520:
 10725              	.LBE1784:
1260:src/main.cpp  ****                 capture_baseline(baseline);
 10726              		.loc 6 1260 17 is_stmt 1 view .LVU3248
1260:src/main.cpp  ****                 capture_baseline(baseline);
 10727              		.loc 6 1260 50 is_stmt 0 view .LVU3249
 10728 1146 0023     		movs	r3, #0
1261:src/main.cpp  ****                 hw.PrintLine("[rebaseline]");
 10729              		.loc 6 1261 33 view .LVU3250
 10730 1148 0898     		ldr	r0, [sp, #32]
1260:src/main.cpp  ****                 capture_baseline(baseline);
 10731              		.loc 6 1260 50 view .LVU3251
 10732 114a 89F81430 		strb	r3, [r9, #20]
1260:src/main.cpp  ****                 capture_baseline(baseline);
 10733              		.loc 6 1260 33 view .LVU3252
 10734 114e 89F80030 		strb	r3, [r9]
ARM GAS  /tmp/claude-502/ccry90Vn.s 			page 276


1261:src/main.cpp  ****                 hw.PrintLine("[rebaseline]");
 10735              		.loc 6 1261 17 is_stmt 1 view .LVU3253
1261:src/main.cpp  ****                 hw.PrintLine("[rebaseline]");
 10736              		.loc 6 1261 33 is_stmt 0 view .LVU3254
 10737 1152 FFF7FEFF 		bl	_Z16capture_baselinePt
 10738              	.LVL849:
1262:src/main.cpp  ****                 idle_since=System::GetNow();
 10739              		.loc 6 1262 17 is_stmt 1 view .LVU3255
 10740              	.LBB1785:
 10741              	.LBI1785:
 126:/Users/reza.kalfane/Workspaces/Daisy/DaisyExamples/libDaisy/src/daisy_seed.h ****     {
 10742              		.loc 1 126 17 view .LVU3256
 10743              	.LBB1786:
 128:/Users/reza.kalfane/Workspaces/Daisy/DaisyExamples/libDaisy/src/daisy_seed.h ****     }
 10744              		.loc 1 128 23 is_stmt 0 view .LVU3257
 10745 1156 8E48     		ldr	r0, .L714+40
 10746 1158 FFF7FEFF 		bl	_ZN5daisy6LoggerILNS_17LoggerDestinationE1EE9PrintLineEPKcz
 10747              	.LVL850:
 128:/Users/reza.kalfane/Workspaces/Daisy/DaisyExamples/libDaisy/src/daisy_seed.h ****     }
 10748              		.loc 1 128 23 view .LVU3258
 10749              	.LBE1786:
 10750              	.LBE1785:
1263:src/main.cpp  ****             }
 10751              		.loc 6 1263 17 is_stmt 1 view .LVU3259
1263:src/main.cpp  ****             }
 10752              		.loc 6 1263 42 is_stmt 0 view .LVU3260
 10753 115c FFF7FEFF 		bl	_ZN5daisy6System6GetNowEv
 10754              	.LVL851:
 10755 1160 0690     		str	r0, [sp, #24]
 10756              	.LVL852:
1263:src/main.cpp  ****             }
 10757              		.loc 6 1263 42 view .LVU3261
 10758 1162 FFF7CABB 		b	.L433
 10759              	.LVL853:
 10760              	.L459:
 10761              	.LBB1787:
 10762              	.LBB1725:
 10763              	.LBB1722:
1124:src/main.cpp  ****         hw.dac.WriteValue(DacHandle::Channel::TWO, 0);
 10764              		.loc 6 1124 26 view .LVU3262
 10765 1166 0022     		movs	r2, #0
 10766              	.LVL854:
1124:src/main.cpp  ****         hw.dac.WriteValue(DacHandle::Channel::TWO, 0);
 10767              		.loc 6 1124 26 view .LVU3263
 10768 1168 8348     		ldr	r0, .L714+16
 10769 116a 059D     		ldr	r5, [sp, #20]
 10770              	.LVL855:
1124:src/main.cpp  ****         hw.dac.WriteValue(DacHandle::Channel::TWO, 0);
 10771              		.loc 6 1124 26 view .LVU3264
 10772 116c 1DEE106A 		vmov	r6, s26	@ int
 10773              	.LVL856:
1124:src/main.cpp  ****         hw.dac.WriteValue(DacHandle::Channel::TWO, 0);
 10774              		.loc 6 1124 26 view .LVU3265
 10775 1170 1146     		mov	r1, r2
 10776              	.LVL857:
1124:src/main.cpp  ****         hw.dac.WriteValue(DacHandle::Channel::TWO, 0);
 10777              		.loc 6 1124 26 view .LVU3266
ARM GAS  /tmp/claude-502/ccry90Vn.s 			page 277


 10778 1172 DDE90678 		ldrd	r7, r8, [sp, #24]
 10779              	.LVL858:
1124:src/main.cpp  ****         hw.dac.WriteValue(DacHandle::Channel::TWO, 0);
 10780              		.loc 6 1124 9 is_stmt 1 view .LVU3267
1124:src/main.cpp  ****         hw.dac.WriteValue(DacHandle::Channel::TWO, 0);
 10781              		.loc 6 1124 26 is_stmt 0 view .LVU3268
 10782 1176 FFF7FEFF 		bl	_ZN5daisy9DacHandle10WriteValueENS0_7ChannelEt
 10783              	.LVL859:
1125:src/main.cpp  ****         g_led3_duty = 0.0f;
 10784              		.loc 6 1125 9 is_stmt 1 view .LVU3269
1125:src/main.cpp  ****         g_led3_duty = 0.0f;
 10785              		.loc 6 1125 26 is_stmt 0 view .LVU3270
 10786 117a 0121     		movs	r1, #1
 10787 117c 0022     		movs	r2, #0
 10788 117e 7E48     		ldr	r0, .L714+16
 10789 1180 FFF7FEFF 		bl	_ZN5daisy9DacHandle10WriteValueENS0_7ChannelEt
 10790              	.LVL860:
1126:src/main.cpp  ****     };
 10791              		.loc 6 1126 9 is_stmt 1 view .LVU3271
1126:src/main.cpp  ****     };
 10792              		.loc 6 1126 21 is_stmt 0 view .LVU3272
 10793 1184 0023     		movs	r3, #0
 10794 1186 7D4A     		ldr	r2, .L714+20
 10795 1188 1360     		str	r3, [r2]	@ float
 10796              	.LVL861:
1126:src/main.cpp  ****     };
 10797              		.loc 6 1126 21 view .LVU3273
 10798              	.LBE1722:
 10799              	.LBE1725:
 10800              	.LBE1787:
1272:src/main.cpp  ****             idle_since    = System::GetNow();
 10801              		.loc 6 1272 13 is_stmt 1 view .LVU3274
1272:src/main.cpp  ****             idle_since    = System::GetNow();
 10802              		.loc 6 1272 43 is_stmt 0 view .LVU3275
 10803 118a FFF7FEFF 		bl	_ZN5daisy6System6GetNowEv
 10804              	.LVL862:
 10805 118e 0790     		str	r0, [sp, #28]
 10806              	.LVL863:
1273:src/main.cpp  ****             hw.PrintLine("[fsr recal] fsr_max=%d", (int)fsr_max);
 10807              		.loc 6 1273 13 is_stmt 1 view .LVU3276
1273:src/main.cpp  ****             hw.PrintLine("[fsr recal] fsr_max=%d", (int)fsr_max);
 10808              		.loc 6 1273 43 is_stmt 0 view .LVU3277
 10809 1190 FFF7FEFF 		bl	_ZN5daisy6System6GetNowEv
 10810              	.LVL864:
 10811              	.LBB1788:
 10812              	.LBB1789:
 128:/Users/reza.kalfane/Workspaces/Daisy/DaisyExamples/libDaisy/src/daisy_seed.h ****     }
 10813              		.loc 1 128 23 view .LVU3278
 10814 1194 0A99     		ldr	r1, [sp, #40]
 10815              	.LBE1789:
 10816              	.LBE1788:
1273:src/main.cpp  ****             hw.PrintLine("[fsr recal] fsr_max=%d", (int)fsr_max);
 10817              		.loc 6 1273 43 view .LVU3279
 10818 1196 0690     		str	r0, [sp, #24]
 10819              	.LVL865:
1274:src/main.cpp  ****         }
 10820              		.loc 6 1274 13 is_stmt 1 view .LVU3280
ARM GAS  /tmp/claude-502/ccry90Vn.s 			page 278


 10821              	.LBB1791:
 10822              	.LBI1788:
 126:/Users/reza.kalfane/Workspaces/Daisy/DaisyExamples/libDaisy/src/daisy_seed.h ****     {
 10823              		.loc 1 126 17 view .LVU3281
 10824              	.LBB1790:
 128:/Users/reza.kalfane/Workspaces/Daisy/DaisyExamples/libDaisy/src/daisy_seed.h ****     }
 10825              		.loc 1 128 23 is_stmt 0 view .LVU3282
 10826 1198 7E48     		ldr	r0, .L714+44
 10827              	.LVL866:
 128:/Users/reza.kalfane/Workspaces/Daisy/DaisyExamples/libDaisy/src/daisy_seed.h ****     }
 10828              		.loc 1 128 23 view .LVU3283
 10829 119a FFF7FEFF 		bl	_ZN5daisy6LoggerILNS_17LoggerDestinationE1EE9PrintLineEPKcz
 10830              	.LVL867:
 129:/Users/reza.kalfane/Workspaces/Daisy/DaisyExamples/libDaisy/src/daisy_seed.h **** 
 10831              		.loc 1 129 5 view .LVU3284
 10832 119e FFF79EB8 		b	.L432
 10833              	.LVL868:
 10834              	.L696:
 129:/Users/reza.kalfane/Workspaces/Daisy/DaisyExamples/libDaisy/src/daisy_seed.h **** 
 10835              		.loc 1 129 5 view .LVU3285
 10836              	.LBE1790:
 10837              	.LBE1791:
 10838              	.LBB1792:
 10839              	.LBB1754:
 10840              	.LBB1743:
 627:src/main.cpp  **** }
 10841              		.loc 6 627 24 view .LVU3286
 10842 11a2 B4EEC7DA 		vcmpe.f32	s26, s14
 10843 11a6 F1EE10FA 		vmrs	APSR_nzcv, FPSCR
 10844 11aa 24DC     		bgt	.L612
 10845 11ac BFEE00CA 		vmov.f32	s24, #-1.0e+0
 10846 11b0 DFED746A 		vldr.32	s13, .L714+28
 10847 11b4 F0EE478A 		vmov.f32	s17, s14
 10848              	.LVL869:
 10849              	.L561:
 627:src/main.cpp  **** }
 10850              		.loc 6 627 24 view .LVU3287
 10851              	.LBE1743:
 10852              	.LBE1754:
1423:src/main.cpp  ****             float l1_raw   = 1.0f - 2.0f * p01;                 if(l1_raw < 0) l1_raw = 0;
 10853              		.loc 6 1423 19 view .LVU3288
 10854 11b8 B5EE007A 		vmov.f32	s14, #2.5e-1
 10855 11bc F6EE087A 		vmov.f32	s15, #7.5e-1
 10856 11c0 EDEE077A 		vfma.f32	s15, s26, s14
 10857 11c4 F0EE67DA 		vmov.f32	s27, s15
 10858              	.LVL870:
1423:src/main.cpp  ****             float l1_raw   = 1.0f - 2.0f * p01;                 if(l1_raw < 0) l1_raw = 0;
 10859              		.loc 6 1423 19 view .LVU3289
 10860 11c8 18E7     		b	.L486
 10861              	.LVL871:
 10862              	.L584:
1423:src/main.cpp  ****             float l1_raw   = 1.0f - 2.0f * p01;                 if(l1_raw < 0) l1_raw = 0;
 10863              		.loc 6 1423 19 view .LVU3290
 10864              	.LBE1792:
 10865              	.LBB1793:
 10866              	.LBB1515:
 10867              	.LBB1505:
ARM GAS  /tmp/claude-502/ccry90Vn.s 			page 279


 10868              	.LBB1478:
 10869 11ca 9FED736A 		vldr.32	s12, .L714+48
 10870 11ce 87E5     		b	.L478
 10871              	.LVL872:
 10872              	.L590:
1423:src/main.cpp  ****             float l1_raw   = 1.0f - 2.0f * p01;                 if(l1_raw < 0) l1_raw = 0;
 10873              		.loc 6 1423 19 view .LVU3291
 10874              	.LBE1478:
 10875              	.LBE1505:
 10876              	.LBE1515:
 10877              	.LBE1793:
 10878              	.LBB1794:
 10879              	.LBB1597:
 10880              	.LBB1588:
 10881              	.LBB1529:
 10882 11d0 B7EE086A 		vmov.f32	s12, #1.5e+0
 10883 11d4 FFF7FDB8 		b	.L514
 10884              	.LVL873:
 10885              	.L483:
1423:src/main.cpp  ****             float l1_raw   = 1.0f - 2.0f * p01;                 if(l1_raw < 0) l1_raw = 0;
 10886              		.loc 6 1423 19 view .LVU3292
 10887              	.LBE1529:
 10888              	.LBE1588:
 10889              	.LBE1597:
 10890              	.LBE1794:
 10891              	.LBB1795:
1422:src/main.cpp  ****             float prs_mult = 0.75f + 0.25f * pr01;
 10892              		.loc 6 1422 13 is_stmt 1 view .LVU3293
 10893              	.LBB1755:
 626:src/main.cpp  ****     return v<lo?lo:v>hi?hi:v;
 10894              		.loc 6 626 21 view .LVU3294
 10895              	.LBB1744:
 627:src/main.cpp  **** }
 10896              		.loc 6 627 5 view .LVU3295
 627:src/main.cpp  **** }
 10897              		.loc 6 627 16 is_stmt 0 view .LVU3296
 10898 11d8 F1EE10FA 		vmrs	APSR_nzcv, FPSCR
 10899 11dc 22D5     		bpl	.L703
 10900              	.LBE1744:
 10901              	.LBE1755:
1425:src/main.cpp  ****             float l2_raw   = 1.0f - 2.0f * fabsf(p01 - 0.5f);   if(l2_raw < 0) l2_raw = 0;
 10902              		.loc 6 1425 19 view .LVU3297
 10903 11de B0EE47CA 		vmov.f32	s24, s14
1424:src/main.cpp  ****             float l3_raw   = 2.0f * p01 - 1.0f;                 if(l3_raw < 0) l3_raw = 0;
 10904              		.loc 6 1424 87 view .LVU3298
 10905 11e2 DFED688A 		vldr.32	s17, .L714+28
 10906              	.LVL874:
1424:src/main.cpp  ****             float l3_raw   = 2.0f * p01 - 1.0f;                 if(l3_raw < 0) l3_raw = 0;
 10907              		.loc 6 1424 87 view .LVU3299
 10908 11e6 C2E5     		b	.L553
 10909              	.LVL875:
 10910              	.L611:
1424:src/main.cpp  ****             float l3_raw   = 2.0f * p01 - 1.0f;                 if(l3_raw < 0) l3_raw = 0;
 10911              		.loc 6 1424 87 view .LVU3300
 10912              	.LBE1795:
 10913              	.LBB1796:
 10914              	.LBB1516:
ARM GAS  /tmp/claude-502/ccry90Vn.s 			page 280


 10915              	.LBB1506:
1326:src/main.cpp  ****             {
 10916              		.loc 6 1326 13 view .LVU3301
 10917 11e8 F0EE4B7A 		vmov.f32	s15, s22
 10918 11ec E9E4     		b	.L473
 10919              	.LVL876:
 10920              	.L569:
1326:src/main.cpp  ****             {
 10921              		.loc 6 1326 13 view .LVU3302
 10922              	.LBE1506:
 10923              	.LBE1516:
 10924              	.LBE1796:
 10925              	.LBB1797:
 10926              	.LBB1442:
 10927              	.LBB1437:
 10928              	.LBB1432:
 10929              	.LBB1430:
 10930 11ee B7EE00BA 		vmov.f32	s22, #1.0e+0
 10931              	.LVL877:
1326:src/main.cpp  ****             {
 10932              		.loc 6 1326 13 view .LVU3303
 10933 11f2 0921     		movs	r1, #9
 10934 11f4 41E6     		b	.L466
 10935              	.LVL878:
 10936              	.L612:
1326:src/main.cpp  ****             {
 10937              		.loc 6 1326 13 view .LVU3304
 10938              	.LBE1430:
 10939              	.LBE1432:
 10940              	.LBE1437:
 10941              	.LBE1442:
 10942              	.LBE1797:
 10943              	.LBB1798:
1424:src/main.cpp  ****             float l3_raw   = 2.0f * p01 - 1.0f;                 if(l3_raw < 0) l3_raw = 0;
 10944              		.loc 6 1424 19 view .LVU3305
 10945 11f6 F0EE478A 		vmov.f32	s17, s14
 10946              	.LVL879:
1425:src/main.cpp  ****             float l2_raw   = 1.0f - 2.0f * fabsf(p01 - 0.5f);   if(l2_raw < 0) l2_raw = 0;
 10947              		.loc 6 1425 87 view .LVU3306
 10948 11fa 9FED62CA 		vldr.32	s24, .L714+28
 10949              	.LVL880:
 10950              	.L560:
1426:src/main.cpp  ****             led1_target    = sqrtf(sqrtf(l2_raw)) * prs_mult;  // middle tent
 10951              		.loc 6 1426 13 is_stmt 1 view .LVU3307
1426:src/main.cpp  ****             led1_target    = sqrtf(sqrtf(l2_raw)) * prs_mult;  // middle tent
 10952              		.loc 6 1426 65 view .LVU3308
1425:src/main.cpp  ****             float l2_raw   = 1.0f - 2.0f * fabsf(p01 - 0.5f);   if(l2_raw < 0) l2_raw = 0;
 10953              		.loc 6 1425 87 is_stmt 0 view .LVU3309
 10954 11fe F7EE00DA 		vmov.f32	s27, #1.0e+0
 10955              	.LVL881:
1425:src/main.cpp  ****             float l2_raw   = 1.0f - 2.0f * fabsf(p01 - 0.5f);   if(l2_raw < 0) l2_raw = 0;
 10956              		.loc 6 1425 87 view .LVU3310
 10957 1202 DFED606A 		vldr.32	s13, .L714+28
 10958 1206 B6E5     		b	.L493
 10959              	.LVL882:
 10960              	.L661:
 10961              	.LBB1756:
ARM GAS  /tmp/claude-502/ccry90Vn.s 			page 281


 10962              	.LBB1745:
 627:src/main.cpp  **** }
 10963              		.loc 6 627 24 view .LVU3311
 10964 1208 B4EEC7DA 		vcmpe.f32	s26, s14
 10965              	.LBE1745:
 10966              	.LBE1756:
1426:src/main.cpp  ****             led1_target    = sqrtf(sqrtf(l2_raw)) * prs_mult;  // middle tent
 10967              		.loc 6 1426 54 view .LVU3312
 10968 120c F6EE007A 		vmov.f32	s15, #5.0e-1
 10969              	.LVL883:
1424:src/main.cpp  ****             float l3_raw   = 2.0f * p01 - 1.0f;                 if(l3_raw < 0) l3_raw = 0;
 10970              		.loc 6 1424 19 view .LVU3313
 10971 1210 B0EE006A 		vmov.f32	s12, #2.0e+0
 10972              	.LVL884:
 10973              	.LBB1757:
 10974              	.LBB1746:
 627:src/main.cpp  **** }
 10975              		.loc 6 627 24 view .LVU3314
 10976 1214 F1EE10FA 		vmrs	APSR_nzcv, FPSCR
 10977              	.LBE1746:
 10978              	.LBE1757:
1425:src/main.cpp  ****             float l2_raw   = 1.0f - 2.0f * fabsf(p01 - 0.5f);   if(l2_raw < 0) l2_raw = 0;
 10979              		.loc 6 1425 19 view .LVU3315
 10980 1218 BFEE00CA 		vmov.f32	s24, #-1.0e+0
 10981              	.LBB1758:
 10982              	.LBB1747:
 627:src/main.cpp  **** }
 10983              		.loc 6 627 24 view .LVU3316
 10984 121c 12DD     		ble	.L662
 10985              	.LBE1747:
 10986              	.LBE1758:
1426:src/main.cpp  ****             led1_target    = sqrtf(sqrtf(l2_raw)) * prs_mult;  // middle tent
 10987              		.loc 6 1426 19 view .LVU3317
 10988 121e F0EE47DA 		vmov.f32	s27, s14
 10989              	.LVL885:
1426:src/main.cpp  ****             led1_target    = sqrtf(sqrtf(l2_raw)) * prs_mult;  // middle tent
 10990              		.loc 6 1426 19 view .LVU3318
 10991 1222 DDE6     		b	.L677
 10992              	.LVL886:
 10993              	.L703:
 10994              	.LBB1759:
 10995              	.LBB1748:
 627:src/main.cpp  **** }
 10996              		.loc 6 627 24 view .LVU3319
 10997 1224 B4EEC7DA 		vcmpe.f32	s26, s14
 10998 1228 F1EE10FA 		vmrs	APSR_nzcv, FPSCR
 10999 122c 1DDC     		bgt	.L613
 11000 122e FFEE008A 		vmov.f32	s17, #-1.0e+0
 11001              	.LVL887:
 627:src/main.cpp  **** }
 11002              		.loc 6 627 24 view .LVU3320
 11003 1232 DFED546A 		vldr.32	s13, .L714+28
 11004 1236 B0EE47CA 		vmov.f32	s24, s14
 11005 123a BDE7     		b	.L561
 11006              	.LVL888:
 11007              	.L570:
 627:src/main.cpp  **** }
ARM GAS  /tmp/claude-502/ccry90Vn.s 			page 282


 11008              		.loc 6 627 24 view .LVU3321
 11009              	.LBE1748:
 11010              	.LBE1759:
 11011              	.LBE1798:
 11012              	.LBB1799:
 11013              	.LBB1443:
 11014              	.LBB1438:
 11015              	.LBB1433:
 11016              	.LBB1431:
 11017 123c B0EE00BA 		vmov.f32	s22, #2.0e+0
 11018              	.LVL889:
 627:src/main.cpp  **** }
 11019              		.loc 6 627 24 view .LVU3322
 11020 1240 0B21     		movs	r1, #11
 11021 1242 1AE6     		b	.L466
 11022              	.LVL890:
 11023              	.L662:
 627:src/main.cpp  **** }
 11024              		.loc 6 627 24 view .LVU3323
 11025              	.LBE1431:
 11026              	.LBE1433:
 11027              	.LBE1438:
 11028              	.LBE1443:
 11029              	.LBE1799:
 11030              	.LBB1800:
1426:src/main.cpp  ****             led1_target    = sqrtf(sqrtf(l2_raw)) * prs_mult;  // middle tent
 11031              		.loc 6 1426 54 view .LVU3324
 11032 1244 7CEEE77A 		vsub.f32	s15, s25, s15
1424:src/main.cpp  ****             float l3_raw   = 2.0f * p01 - 1.0f;                 if(l3_raw < 0) l3_raw = 0;
 11033              		.loc 6 1424 19 view .LVU3325
 11034 1248 F0EE478A 		vmov.f32	s17, s14
 11035              	.LVL891:
1425:src/main.cpp  ****             float l2_raw   = 1.0f - 2.0f * fabsf(p01 - 0.5f);   if(l2_raw < 0) l2_raw = 0;
 11036              		.loc 6 1425 19 view .LVU3326
 11037 124c ACEE86CA 		vfma.f32	s24, s25, s12
1426:src/main.cpp  ****             led1_target    = sqrtf(sqrtf(l2_raw)) * prs_mult;  // middle tent
 11038              		.loc 6 1426 49 view .LVU3327
 11039 1250 F0EEE77A 		vabs.f32	s15, s15
1424:src/main.cpp  ****             float l3_raw   = 2.0f * p01 - 1.0f;                 if(l3_raw < 0) l3_raw = 0;
 11040              		.loc 6 1424 19 view .LVU3328
 11041 1254 ECEEC68A 		vfms.f32	s17, s25, s12
1426:src/main.cpp  ****             led1_target    = sqrtf(sqrtf(l2_raw)) * prs_mult;  // middle tent
 11042              		.loc 6 1426 19 view .LVU3329
 11043 1258 A7EEC67A 		vfms.f32	s14, s15, s12
 11044              	.LVL892:
1426:src/main.cpp  ****             led1_target    = sqrtf(sqrtf(l2_raw)) * prs_mult;  // middle tent
 11045              		.loc 6 1426 19 view .LVU3330
 11046 125c F0EE476A 		vmov.f32	s13, s14
 11047              	.LVL893:
1426:src/main.cpp  ****             led1_target    = sqrtf(sqrtf(l2_raw)) * prs_mult;  // middle tent
 11048              		.loc 6 1426 19 view .LVU3331
 11049 1260 AAE7     		b	.L561
 11050              	.LVL894:
 11051              	.L566:
1426:src/main.cpp  ****             led1_target    = sqrtf(sqrtf(l2_raw)) * prs_mult;  // middle tent
 11052              		.loc 6 1426 19 view .LVU3332
 11053              	.LBE1800:
ARM GAS  /tmp/claude-502/ccry90Vn.s 			page 283


 11054              	.LBB1801:
 11055              	.LBB1422:
1233:src/main.cpp  ****             if((int32_t)(now - fsr_next_switch) >= 0){
 11056              		.loc 6 1233 27 view .LVU3333
 11057 1262 069B     		ldr	r3, [sp, #24]
 11058 1264 0793     		str	r3, [sp, #28]
 11059 1266 FEF7D6BF 		b	.L425
 11060              	.LVL895:
 11061              	.L613:
1233:src/main.cpp  ****             if((int32_t)(now - fsr_next_switch) >= 0){
 11062              		.loc 6 1233 27 view .LVU3334
 11063              	.LBE1422:
 11064              	.LBE1801:
 11065              	.LBB1802:
 11066              	.LBB1760:
 11067              	.LBB1749:
 627:src/main.cpp  **** }
 11068              		.loc 6 627 24 view .LVU3335
 11069 126a B0EE47CA 		vmov.f32	s24, s14
 11070              	.LBE1749:
 11071              	.LBE1760:
1424:src/main.cpp  ****             float l3_raw   = 2.0f * p01 - 1.0f;                 if(l3_raw < 0) l3_raw = 0;
 11072              		.loc 6 1424 87 view .LVU3336
 11073 126e DFED458A 		vldr.32	s17, .L714+28
 11074              	.LVL896:
1424:src/main.cpp  ****             float l3_raw   = 2.0f * p01 - 1.0f;                 if(l3_raw < 0) l3_raw = 0;
 11075              		.loc 6 1424 87 view .LVU3337
 11076 1272 C4E7     		b	.L560
 11077              	.LVL897:
 11078              	.L702:
1427:src/main.cpp  ****             led2_target    = sqrtf(sqrtf(l1_raw)) * prs_mult;  // pos 0 ramp
 11079              		.loc 6 1427 13 is_stmt 1 view .LVU3338
 11080 1274 F5EE406A 		vcmp.f32	s13, #0
 11081 1278 F1EE10FA 		vmrs	APSR_nzcv, FPSCR
 11082 127c 7FF57BAD 		bpl	.L493
1427:src/main.cpp  ****             led2_target    = sqrtf(sqrtf(l1_raw)) * prs_mult;  // pos 0 ramp
 11083              		.loc 6 1427 35 is_stmt 0 view .LVU3339
 11084 1280 B0EE660A 		vmov.f32	s0, s13
 11085 1284 FFF7FEFF 		bl	sqrtf
 11086              	.LVL898:
 11087 1288 77E5     		b	.L496
 11088              	.LVL899:
 11089              	.L421:
1427:src/main.cpp  ****             led2_target    = sqrtf(sqrtf(l1_raw)) * prs_mult;  // pos 0 ramp
 11090              		.loc 6 1427 35 view .LVU3340
 11091              	.LBE1802:
 11092              	.LBE1807:
1161:src/main.cpp  ****     hw.PrintLine("Hold FSR pressed 5s to change voice (then every 2s)");
 11093              		.loc 6 1161 9 is_stmt 1 view .LVU3341
 11094              	.LBB1808:
 11095              	.LBI1808:
 126:/Users/reza.kalfane/Workspaces/Daisy/DaisyExamples/libDaisy/src/daisy_seed.h ****     {
 11096              		.loc 1 126 17 view .LVU3342
 11097              	.LBB1809:
 128:/Users/reza.kalfane/Workspaces/Daisy/DaisyExamples/libDaisy/src/daisy_seed.h ****     }
 11098              		.loc 1 128 23 is_stmt 0 view .LVU3343
 11099 128a 4448     		ldr	r0, .L714+52
ARM GAS  /tmp/claude-502/ccry90Vn.s 			page 284


 11100 128c FFF7FEFF 		bl	_ZN5daisy6LoggerILNS_17LoggerDestinationE1EE9PrintLineEPKcz
 11101              	.LVL900:
 129:/Users/reza.kalfane/Workspaces/Daisy/DaisyExamples/libDaisy/src/daisy_seed.h **** 
 11102              		.loc 1 129 5 view .LVU3344
 11103 1290 FEF783BF 		b	.L422
 11104              	.LVL901:
 11105              	.L653:
 129:/Users/reza.kalfane/Workspaces/Daisy/DaisyExamples/libDaisy/src/daisy_seed.h **** 
 11106              		.loc 1 129 5 view .LVU3345
 11107              	.LBE1809:
 11108              	.LBE1808:
1019:src/main.cpp  ****         capture_baseline(baseline);
 11109              		.loc 6 1019 9 is_stmt 1 view .LVU3346
1020:src/main.cpp  ****     }
 11110              		.loc 6 1020 25 is_stmt 0 view .LVU3347
 11111 1294 1C46     		mov	r4, r3
1019:src/main.cpp  ****         capture_baseline(baseline);
 11112              		.loc 6 1019 22 view .LVU3348
 11113 1296 4FF49670 		mov	r0, #300
1020:src/main.cpp  ****     }
 11114              		.loc 6 1020 25 view .LVU3349
 11115 129a 0893     		str	r3, [sp, #32]
1019:src/main.cpp  ****         capture_baseline(baseline);
 11116              		.loc 6 1019 22 view .LVU3350
 11117 129c FFF7FEFF 		bl	_ZN5daisy6System5DelayEm
 11118              	.LVL902:
1020:src/main.cpp  ****     }
 11119              		.loc 6 1020 9 is_stmt 1 view .LVU3351
1020:src/main.cpp  ****     }
 11120              		.loc 6 1020 25 is_stmt 0 view .LVU3352
 11121 12a0 2046     		mov	r0, r4
 11122 12a2 FFF7FEFF 		bl	_Z16capture_baselinePt
 11123              	.LVL903:
 11124 12a6 FEF7D4BE 		b	.L417
 11125              	.LVL904:
 11126              	.L564:
1045:src/main.cpp  ****     float              fsr_range_inv = 1.0f / (float)(fsr_max - FSR_MIN);
 11127              		.loc 6 1045 24 view .LVU3353
 11128 12aa 4DF2D863 		movw	r3, #55000
1046:src/main.cpp  **** 
 11129              		.loc 6 1046 24 view .LVU3354
 11130 12ae DFED3CBA 		vldr.32	s23, .L714+56
1045:src/main.cpp  ****     float              fsr_range_inv = 1.0f / (float)(fsr_max - FSR_MIN);
 11131              		.loc 6 1045 24 view .LVU3355
 11132 12b2 0A93     		str	r3, [sp, #40]
 11133 12b4 FEF728BF 		b	.L420
 11134              	.LVL905:
 11135              	.L692:
 11136              	.LBB1810:
 11137              	.LBB1803:
 11138              	.LBB1726:
 11139              	.LBB1723:
 11140              	.LBB1720:
1094:src/main.cpp  ****             float led2   = sqrtf(sqrtf(l1_raw));              // pos 0  (DAC2)
 11141              		.loc 6 1094 33 view .LVU3356
 11142 12b8 B0EE470A 		vmov.f32	s0, s14
 11143              	.LVL906:
ARM GAS  /tmp/claude-502/ccry90Vn.s 			page 285


1094:src/main.cpp  ****             float led2   = sqrtf(sqrtf(l1_raw));              // pos 0  (DAC2)
 11144              		.loc 6 1094 33 view .LVU3357
 11145 12bc FFF7FEFF 		bl	sqrtf
 11146              	.LVL907:
1094:src/main.cpp  ****             float led2   = sqrtf(sqrtf(l1_raw));              // pos 0  (DAC2)
 11147              		.loc 6 1094 33 view .LVU3358
 11148 12c0 FFF784BB 		b	.L441
 11149              	.L655:
1094:src/main.cpp  ****             float led2   = sqrtf(sqrtf(l1_raw));              // pos 0  (DAC2)
 11150              		.loc 6 1094 33 view .LVU3359
 11151 12c4 FFF7FEFF 		bl	sqrtf
 11152              	.LVL908:
 11153 12c8 B0EE40CA 		vmov.f32	s24, s0
 11154 12cc FFF786BB 		b	.L444
 11155              	.L656:
1095:src/main.cpp  ****             float led3   = sqrtf(sqrtf(l3_raw)) * LED3_INTENSITY; // pos 1 (PWM A0)
 11156              		.loc 6 1095 33 view .LVU3360
 11157 12d0 B0EE680A 		vmov.f32	s0, s17
 11158 12d4 FFF7FEFF 		bl	sqrtf
 11159              	.LVL909:
 11160 12d8 FFF788BB 		b	.L447
 11161              	.L657:
1095:src/main.cpp  ****             float led3   = sqrtf(sqrtf(l3_raw)) * LED3_INTENSITY; // pos 1 (PWM A0)
 11162              		.loc 6 1095 33 view .LVU3361
 11163 12dc FFF7FEFF 		bl	sqrtf
 11164              	.LVL910:
 11165 12e0 F0EE408A 		vmov.f32	s17, s0
 11166              	.LVL911:
1095:src/main.cpp  ****             float led3   = sqrtf(sqrtf(l3_raw)) * LED3_INTENSITY; // pos 1 (PWM A0)
 11167              		.loc 6 1095 33 view .LVU3362
 11168 12e4 FFF78ABB 		b	.L450
 11169              	.L658:
1096:src/main.cpp  ****             hw.dac.WriteValue(DacHandle::Channel::ONE, (uint16_t)(led1 * 4095.0f));
 11170              		.loc 6 1096 33 view .LVU3363
 11171 12e8 B0EE480A 		vmov.f32	s0, s16
 11172 12ec FFF7FEFF 		bl	sqrtf
 11173              	.LVL912:
 11174 12f0 FFF78CBB 		b	.L453
 11175              	.L659:
1096:src/main.cpp  ****             hw.dac.WriteValue(DacHandle::Channel::ONE, (uint16_t)(led1 * 4095.0f));
 11176              		.loc 6 1096 33 view .LVU3364
 11177 12f4 FFF7FEFF 		bl	sqrtf
 11178              	.LVL913:
 11179 12f8 B0EE407A 		vmov.f32	s14, s0
 11180 12fc FFF78EBB 		b	.L456
 11181              	.LVL914:
 11182              	.L670:
1096:src/main.cpp  ****             hw.dac.WriteValue(DacHandle::Channel::ONE, (uint16_t)(led1 * 4095.0f));
 11183              		.loc 6 1096 33 view .LVU3365
 11184              	.LBE1720:
 11185              	.LBE1723:
 11186              	.LBE1726:
 11187              	.LBE1803:
 11188              	.LBB1804:
 11189              	.LBB1598:
 11190              	.LBB1589:
 11191              	.LBB1553:
ARM GAS  /tmp/claude-502/ccry90Vn.s 			page 286


1368:src/main.cpp  ****             };
 11192              		.loc 6 1368 41 view .LVU3366
 11193 1300 E6EE845A 		vfma.f32	s11, s13, s8
 11194              	.LBE1553:
 11195              	.LBE1589:
1479:src/main.cpp  ****             float rm    = smoothstep2(rm_in) * VOICE.ringmod_max;
 11196              		.loc 6 1479 41 view .LVU3367
 11197 1304 DFED273A 		vldr.32	s7, .L714+60
 11198              	.LBB1590:
 11199              	.LBB1554:
1368:src/main.cpp  ****             };
 11200              		.loc 6 1368 25 view .LVU3368
 11201 1308 66EEA67A 		vmul.f32	s15, s13, s13
 11202              	.LBE1554:
 11203              	.LBE1590:
1479:src/main.cpp  ****             float rm    = smoothstep2(rm_in) * VOICE.ringmod_max;
 11204              		.loc 6 1479 33 view .LVU3369
 11205 130c 9FED263A 		vldr.32	s6, .L714+64
1479:src/main.cpp  ****             float rm    = smoothstep2(rm_in) * VOICE.ringmod_max;
 11206              		.loc 6 1479 41 view .LVU3370
 11207 1310 37EE634A 		vsub.f32	s8, s14, s7
 11208              	.LBB1591:
 11209              	.LBB1555:
1368:src/main.cpp  ****             };
 11210              		.loc 6 1368 27 view .LVU3371
 11211 1314 67EEA67A 		vmul.f32	s15, s15, s13
1368:src/main.cpp  ****             };
 11212              		.loc 6 1368 41 view .LVU3372
 11213 1318 F0EE654A 		vmov.f32	s9, s11
 11214              	.LBE1555:
 11215              	.LBE1591:
1479:src/main.cpp  ****             float rm    = smoothstep2(rm_in) * VOICE.ringmod_max;
 11216              		.loc 6 1479 33 view .LVU3373
 11217 131c C4EE035A 		vdiv.f32	s11, s8, s6
 11218              	.LBB1592:
 11219              	.LBB1556:
1368:src/main.cpp  ****             };
 11220              		.loc 6 1368 50 view .LVU3374
 11221 1320 A6EEA45A 		vfma.f32	s10, s13, s9
1368:src/main.cpp  ****             };
 11222              		.loc 6 1368 57 view .LVU3375
 11223 1324 67EE857A 		vmul.f32	s15, s15, s10
 11224 1328 FFF791B8 		b	.L519
 11225              	.LVL915:
 11226              	.L465:
1368:src/main.cpp  ****             };
 11227              		.loc 6 1368 57 view .LVU3376
 11228              	.LBE1556:
 11229              	.LBE1592:
 11230              	.LBE1598:
 11231              	.LBE1804:
1302:src/main.cpp  **** 
 11232              		.loc 6 1302 9 is_stmt 1 view .LVU3377
1302:src/main.cpp  **** 
 11233              		.loc 6 1302 37 is_stmt 0 view .LVU3378
 11234 132c 1F4B     		ldr	r3, .L714+68
 11235 132e 1D68     		ldr	r5, [r3]
ARM GAS  /tmp/claude-502/ccry90Vn.s 			page 287


 11236              	.LVL916:
1304:src/main.cpp  ****         {
 11237              		.loc 6 1304 9 is_stmt 1 view .LVU3379
 11238 1330 FEF7F2BF 		b	.L468
 11239              	.LVL917:
 11240              	.L668:
 11241              	.LBB1805:
1429:src/main.cpp  ****         }
 11242              		.loc 6 1429 35 is_stmt 0 view .LVU3380
 11243 1334 FFF7FEFF 		bl	sqrtf
 11244              	.LVL918:
 11245 1338 F0EE407A 		vmov.f32	s15, s0
 11246 133c 49E5     		b	.L511
 11247              	.L667:
1429:src/main.cpp  ****         }
 11248              		.loc 6 1429 35 view .LVU3381
 11249 133e B0EE4C0A 		vmov.f32	s0, s24
 11250 1342 FFF7FEFF 		bl	sqrtf
 11251              	.LVL919:
 11252 1346 3CE5     		b	.L508
 11253              	.LVL920:
 11254              	.L666:
1428:src/main.cpp  ****             led3_target    = sqrtf(sqrtf(l3_raw)) * prs_mult * LED3_INTENSITY;
 11255              		.loc 6 1428 35 view .LVU3382
 11256 1348 FFF7FEFF 		bl	sqrtf
 11257              	.LVL921:
 11258 134c F0EE407A 		vmov.f32	s15, s0
 11259 1350 2DE5     		b	.L505
 11260              	.L665:
 11261 1352 B0EE680A 		vmov.f32	s0, s17
 11262 1356 FFF7FEFF 		bl	sqrtf
 11263              	.LVL922:
 11264 135a 20E5     		b	.L502
 11265              	.LVL923:
 11266              	.L664:
1427:src/main.cpp  ****             led2_target    = sqrtf(sqrtf(l1_raw)) * prs_mult;  // pos 0 ramp
 11267              		.loc 6 1427 35 view .LVU3383
 11268 135c FFF7FEFF 		bl	sqrtf
 11269              	.LVL924:
 11270 1360 F0EE407A 		vmov.f32	s15, s0
 11271 1364 11E5     		b	.L499
 11272              	.L715:
 11273 1366 00BF     		.align	2
 11274              	.L714:
 11275 1368 00000000 		.word	.LANCHOR51
 11276 136c 4FECC44E 		.word	1321528399
 11277 1370 14010000 		.word	.LC9
 11278 1374 00000000 		.word	.LANCHOR13
 11279 1378 20000000 		.word	.LANCHOR10+32
 11280 137c 00000000 		.word	.LANCHOR0
 11281 1380 CDCCCC3D 		.word	1036831949
 11282 1384 00000000 		.word	0
 11283 1388 CDCC0C3F 		.word	1057803469
 11284 138c 6666E63E 		.word	1055286886
 11285 1390 28010000 		.word	.LC10
 11286 1394 38010000 		.word	.LC11
 11287 1398 CDCC4C3F 		.word	1061997773
ARM GAS  /tmp/claude-502/ccry90Vn.s 			page 288


 11288 139c 90000000 		.word	.LC5
 11289 13a0 247BB237 		.word	934443812
 11290 13a4 9A99593F 		.word	1062836634
 11291 13a8 9A99193E 		.word	1041865114
 11292 13ac 00000000 		.word	.LANCHOR11
 11293              	.LBE1805:
 11294              	.LBE1810:
 11295              		.cfi_endproc
 11296              	.LFE2593:
 11298              		.section	.text.startup._GLOBAL__sub_I_hw,"ax",%progbits
 11299              		.align	1
 11300              		.p2align 2,,3
 11301              		.syntax unified
 11302              		.thumb
 11303              		.thumb_func
 11305              	_GLOBAL__sub_I_hw:
 11306              	.LFB2637:
1551:src/main.cpp  ****     }
1552:src/main.cpp  **** }
 11307              		.loc 6 1552 1 is_stmt 1 view -0
 11308              		.cfi_startproc
 11309              		@ args = 0, pretend = 0, frame = 0
 11310              		@ frame_needed = 0, uses_anonymous_args = 0
 11311              	.LBB1856:
 11312              	.LBI1856:
 11313              		.loc 6 1552 1 view .LVU3385
 11314              	.LVL925:
 11315              	.LBB1857:
 11316              	.LBB1858:
 11317              	.LBI1858:
  21:/Users/reza.kalfane/Workspaces/Daisy/DaisyExamples/libDaisy/src/daisy_seed.h ****     ~DaisySeed() {}
 11318              		.loc 1 21 5 view .LVU3386
 11319              	.LBB1859:
 11320              	.LBB1860:
 11321              	.LBI1860:
 11322              		.file 7 "/Users/reza.kalfane/Workspaces/Daisy/DaisyExamples/libDaisy/src/per/qspi.h"
   1:/Users/reza.kalfane/Workspaces/Daisy/DaisyExamples/libDaisy/src/per/qspi.h **** #ifndef DSY_QSPI
   2:/Users/reza.kalfane/Workspaces/Daisy/DaisyExamples/libDaisy/src/per/qspi.h **** #define DSY_QSPI /**< Macro */
   3:/Users/reza.kalfane/Workspaces/Daisy/DaisyExamples/libDaisy/src/per/qspi.h **** 
   4:/Users/reza.kalfane/Workspaces/Daisy/DaisyExamples/libDaisy/src/per/qspi.h **** #ifndef UNIT_TEST // for unit tests, a dummy implementation
   5:/Users/reza.kalfane/Workspaces/Daisy/DaisyExamples/libDaisy/src/per/qspi.h **** 
   6:/Users/reza.kalfane/Workspaces/Daisy/DaisyExamples/libDaisy/src/per/qspi.h **** #include <cstdint>
   7:/Users/reza.kalfane/Workspaces/Daisy/DaisyExamples/libDaisy/src/per/qspi.h **** #include "daisy_core.h" // Added for dsy_gpio_pin typedef
   8:/Users/reza.kalfane/Workspaces/Daisy/DaisyExamples/libDaisy/src/per/qspi.h **** 
   9:/Users/reza.kalfane/Workspaces/Daisy/DaisyExamples/libDaisy/src/per/qspi.h **** #define DSY_QSPI_TEXT       \
  10:/Users/reza.kalfane/Workspaces/Daisy/DaisyExamples/libDaisy/src/per/qspi.h ****     __attribute__((section( \
  11:/Users/reza.kalfane/Workspaces/Daisy/DaisyExamples/libDaisy/src/per/qspi.h ****         ".qspiflash_text"))) /**< used for reading memory in memory_mapped mode. */
  12:/Users/reza.kalfane/Workspaces/Daisy/DaisyExamples/libDaisy/src/per/qspi.h **** #define DSY_QSPI_DATA       \
  13:/Users/reza.kalfane/Workspaces/Daisy/DaisyExamples/libDaisy/src/per/qspi.h ****     __attribute__((section( \
  14:/Users/reza.kalfane/Workspaces/Daisy/DaisyExamples/libDaisy/src/per/qspi.h ****         ".qspiflash_data"))) /**< used for reading memory in memory_mapped mode. */
  15:/Users/reza.kalfane/Workspaces/Daisy/DaisyExamples/libDaisy/src/per/qspi.h **** #define DSY_QSPI_BSS        \
  16:/Users/reza.kalfane/Workspaces/Daisy/DaisyExamples/libDaisy/src/per/qspi.h ****     __attribute__((section( \
  17:/Users/reza.kalfane/Workspaces/Daisy/DaisyExamples/libDaisy/src/per/qspi.h ****         ".qspiflash_bss"))) /**< used for reading memory in memory_mapped mode. */
  18:/Users/reza.kalfane/Workspaces/Daisy/DaisyExamples/libDaisy/src/per/qspi.h **** 
  19:/Users/reza.kalfane/Workspaces/Daisy/DaisyExamples/libDaisy/src/per/qspi.h **** namespace daisy
  20:/Users/reza.kalfane/Workspaces/Daisy/DaisyExamples/libDaisy/src/per/qspi.h **** {
  21:/Users/reza.kalfane/Workspaces/Daisy/DaisyExamples/libDaisy/src/per/qspi.h **** /** @addtogroup serial
ARM GAS  /tmp/claude-502/ccry90Vn.s 			page 289


  22:/Users/reza.kalfane/Workspaces/Daisy/DaisyExamples/libDaisy/src/per/qspi.h **** @{
  23:/Users/reza.kalfane/Workspaces/Daisy/DaisyExamples/libDaisy/src/per/qspi.h **** */
  24:/Users/reza.kalfane/Workspaces/Daisy/DaisyExamples/libDaisy/src/per/qspi.h **** 
  25:/Users/reza.kalfane/Workspaces/Daisy/DaisyExamples/libDaisy/src/per/qspi.h **** /** 
  26:/Users/reza.kalfane/Workspaces/Daisy/DaisyExamples/libDaisy/src/per/qspi.h ****  Driver for QSPI peripheral to interface with external flash memory. \n 
  27:/Users/reza.kalfane/Workspaces/Daisy/DaisyExamples/libDaisy/src/per/qspi.h ****     Currently supported QSPI Devices: \n 
  28:/Users/reza.kalfane/Workspaces/Daisy/DaisyExamples/libDaisy/src/per/qspi.h ****     * IS25LP080D
  29:/Users/reza.kalfane/Workspaces/Daisy/DaisyExamples/libDaisy/src/per/qspi.h **** */
  30:/Users/reza.kalfane/Workspaces/Daisy/DaisyExamples/libDaisy/src/per/qspi.h **** class QSPIHandle
  31:/Users/reza.kalfane/Workspaces/Daisy/DaisyExamples/libDaisy/src/per/qspi.h **** {
  32:/Users/reza.kalfane/Workspaces/Daisy/DaisyExamples/libDaisy/src/per/qspi.h ****   public:
  33:/Users/reza.kalfane/Workspaces/Daisy/DaisyExamples/libDaisy/src/per/qspi.h ****     enum Result
  34:/Users/reza.kalfane/Workspaces/Daisy/DaisyExamples/libDaisy/src/per/qspi.h ****     {
  35:/Users/reza.kalfane/Workspaces/Daisy/DaisyExamples/libDaisy/src/per/qspi.h ****         OK = 0,
  36:/Users/reza.kalfane/Workspaces/Daisy/DaisyExamples/libDaisy/src/per/qspi.h ****         ERR
  37:/Users/reza.kalfane/Workspaces/Daisy/DaisyExamples/libDaisy/src/per/qspi.h ****     };
  38:/Users/reza.kalfane/Workspaces/Daisy/DaisyExamples/libDaisy/src/per/qspi.h **** 
  39:/Users/reza.kalfane/Workspaces/Daisy/DaisyExamples/libDaisy/src/per/qspi.h ****     /** Indicates the current status of the module. 
  40:/Users/reza.kalfane/Workspaces/Daisy/DaisyExamples/libDaisy/src/per/qspi.h ****          *  Warnings are indicated by a leading W.
  41:/Users/reza.kalfane/Workspaces/Daisy/DaisyExamples/libDaisy/src/per/qspi.h ****          *  Errors are indicated by a leading E and cause an immediate exit.
  42:/Users/reza.kalfane/Workspaces/Daisy/DaisyExamples/libDaisy/src/per/qspi.h ****          * 
  43:/Users/reza.kalfane/Workspaces/Daisy/DaisyExamples/libDaisy/src/per/qspi.h ****          *  \param GOOD - No errors have been reported.
  44:/Users/reza.kalfane/Workspaces/Daisy/DaisyExamples/libDaisy/src/per/qspi.h ****          *  \param E_HAL_ERROR - HAL code did not return HAL_OK.
  45:/Users/reza.kalfane/Workspaces/Daisy/DaisyExamples/libDaisy/src/per/qspi.h ****          *  \param E_SWITCHING_MODES - An error was encountered while switching QSPI peripheral mod
  46:/Users/reza.kalfane/Workspaces/Daisy/DaisyExamples/libDaisy/src/per/qspi.h ****          *  \param E_INVALID_MODE - QSPI should not be written to while the program is executing fr
  47:/Users/reza.kalfane/Workspaces/Daisy/DaisyExamples/libDaisy/src/per/qspi.h ****          */
  48:/Users/reza.kalfane/Workspaces/Daisy/DaisyExamples/libDaisy/src/per/qspi.h ****     enum Status
  49:/Users/reza.kalfane/Workspaces/Daisy/DaisyExamples/libDaisy/src/per/qspi.h ****     {
  50:/Users/reza.kalfane/Workspaces/Daisy/DaisyExamples/libDaisy/src/per/qspi.h ****         GOOD = 0,
  51:/Users/reza.kalfane/Workspaces/Daisy/DaisyExamples/libDaisy/src/per/qspi.h ****         E_HAL_ERROR,
  52:/Users/reza.kalfane/Workspaces/Daisy/DaisyExamples/libDaisy/src/per/qspi.h ****         E_SWITCHING_MODES,
  53:/Users/reza.kalfane/Workspaces/Daisy/DaisyExamples/libDaisy/src/per/qspi.h ****         E_INVALID_MODE,
  54:/Users/reza.kalfane/Workspaces/Daisy/DaisyExamples/libDaisy/src/per/qspi.h ****     };
  55:/Users/reza.kalfane/Workspaces/Daisy/DaisyExamples/libDaisy/src/per/qspi.h **** 
  56:/Users/reza.kalfane/Workspaces/Daisy/DaisyExamples/libDaisy/src/per/qspi.h ****     /** Configuration structure for interfacing with QSPI Driver */
  57:/Users/reza.kalfane/Workspaces/Daisy/DaisyExamples/libDaisy/src/per/qspi.h ****     struct Config
  58:/Users/reza.kalfane/Workspaces/Daisy/DaisyExamples/libDaisy/src/per/qspi.h ****     {
  59:/Users/reza.kalfane/Workspaces/Daisy/DaisyExamples/libDaisy/src/per/qspi.h ****         /** Flash Devices supported. (Both of these are more-or-less the same, just different sizes
  60:/Users/reza.kalfane/Workspaces/Daisy/DaisyExamples/libDaisy/src/per/qspi.h ****         enum Device
  61:/Users/reza.kalfane/Workspaces/Daisy/DaisyExamples/libDaisy/src/per/qspi.h ****         {
  62:/Users/reza.kalfane/Workspaces/Daisy/DaisyExamples/libDaisy/src/per/qspi.h ****             IS25LP080D,  /**< & */
  63:/Users/reza.kalfane/Workspaces/Daisy/DaisyExamples/libDaisy/src/per/qspi.h ****             IS25LP064A,  /**< & */
  64:/Users/reza.kalfane/Workspaces/Daisy/DaisyExamples/libDaisy/src/per/qspi.h ****             DEVICE_LAST, /**< & */
  65:/Users/reza.kalfane/Workspaces/Daisy/DaisyExamples/libDaisy/src/per/qspi.h ****         };
  66:/Users/reza.kalfane/Workspaces/Daisy/DaisyExamples/libDaisy/src/per/qspi.h **** 
  67:/Users/reza.kalfane/Workspaces/Daisy/DaisyExamples/libDaisy/src/per/qspi.h ****         /** 
  68:/Users/reza.kalfane/Workspaces/Daisy/DaisyExamples/libDaisy/src/per/qspi.h ****         Modes of operation.
  69:/Users/reza.kalfane/Workspaces/Daisy/DaisyExamples/libDaisy/src/per/qspi.h ****         Memory Mapped mode: QSPI configured so that the QSPI can be
  70:/Users/reza.kalfane/Workspaces/Daisy/DaisyExamples/libDaisy/src/per/qspi.h ****         read from starting address 0x90000000. Writing is not
  71:/Users/reza.kalfane/Workspaces/Daisy/DaisyExamples/libDaisy/src/per/qspi.h ****         possible in this mode. \n 
  72:/Users/reza.kalfane/Workspaces/Daisy/DaisyExamples/libDaisy/src/per/qspi.h ****         Indirect Polling mode: Device driver enabled. 
  73:/Users/reza.kalfane/Workspaces/Daisy/DaisyExamples/libDaisy/src/per/qspi.h ****         */
  74:/Users/reza.kalfane/Workspaces/Daisy/DaisyExamples/libDaisy/src/per/qspi.h ****         enum Mode
  75:/Users/reza.kalfane/Workspaces/Daisy/DaisyExamples/libDaisy/src/per/qspi.h ****         {
  76:/Users/reza.kalfane/Workspaces/Daisy/DaisyExamples/libDaisy/src/per/qspi.h ****             MEMORY_MAPPED,    /**< & */
  77:/Users/reza.kalfane/Workspaces/Daisy/DaisyExamples/libDaisy/src/per/qspi.h ****             INDIRECT_POLLING, /**< & */
  78:/Users/reza.kalfane/Workspaces/Daisy/DaisyExamples/libDaisy/src/per/qspi.h ****             MODE_LAST,
ARM GAS  /tmp/claude-502/ccry90Vn.s 			page 290


  79:/Users/reza.kalfane/Workspaces/Daisy/DaisyExamples/libDaisy/src/per/qspi.h ****         };
  80:/Users/reza.kalfane/Workspaces/Daisy/DaisyExamples/libDaisy/src/per/qspi.h **** 
  81:/Users/reza.kalfane/Workspaces/Daisy/DaisyExamples/libDaisy/src/per/qspi.h ****         //SCK,  CE# (active low)
  82:/Users/reza.kalfane/Workspaces/Daisy/DaisyExamples/libDaisy/src/per/qspi.h ****         struct
  83:/Users/reza.kalfane/Workspaces/Daisy/DaisyExamples/libDaisy/src/per/qspi.h ****         {
  84:/Users/reza.kalfane/Workspaces/Daisy/DaisyExamples/libDaisy/src/per/qspi.h ****             dsy_gpio_pin io0; /**< & */
  85:/Users/reza.kalfane/Workspaces/Daisy/DaisyExamples/libDaisy/src/per/qspi.h ****             dsy_gpio_pin io1; /**< & */
  86:/Users/reza.kalfane/Workspaces/Daisy/DaisyExamples/libDaisy/src/per/qspi.h ****             dsy_gpio_pin io2; /**< & */
  87:/Users/reza.kalfane/Workspaces/Daisy/DaisyExamples/libDaisy/src/per/qspi.h ****             dsy_gpio_pin io3; /**< & */
  88:/Users/reza.kalfane/Workspaces/Daisy/DaisyExamples/libDaisy/src/per/qspi.h ****             dsy_gpio_pin clk; /**< & */
  89:/Users/reza.kalfane/Workspaces/Daisy/DaisyExamples/libDaisy/src/per/qspi.h ****             dsy_gpio_pin ncs; /**< & */
  90:/Users/reza.kalfane/Workspaces/Daisy/DaisyExamples/libDaisy/src/per/qspi.h ****         } pin_config;
  91:/Users/reza.kalfane/Workspaces/Daisy/DaisyExamples/libDaisy/src/per/qspi.h **** 
  92:/Users/reza.kalfane/Workspaces/Daisy/DaisyExamples/libDaisy/src/per/qspi.h ****         Device device;
  93:/Users/reza.kalfane/Workspaces/Daisy/DaisyExamples/libDaisy/src/per/qspi.h ****         Mode   mode;
  94:/Users/reza.kalfane/Workspaces/Daisy/DaisyExamples/libDaisy/src/per/qspi.h ****     };
  95:/Users/reza.kalfane/Workspaces/Daisy/DaisyExamples/libDaisy/src/per/qspi.h **** 
  96:/Users/reza.kalfane/Workspaces/Daisy/DaisyExamples/libDaisy/src/per/qspi.h ****     /** 
  97:/Users/reza.kalfane/Workspaces/Daisy/DaisyExamples/libDaisy/src/per/qspi.h ****         Initializes QSPI peripheral, and Resets, and prepares memory for access.
  98:/Users/reza.kalfane/Workspaces/Daisy/DaisyExamples/libDaisy/src/per/qspi.h ****         \param config should be populated with the mode, device and pin_config before calling this 
  99:/Users/reza.kalfane/Workspaces/Daisy/DaisyExamples/libDaisy/src/per/qspi.h ****         \return Result::OK or Result::ERR
 100:/Users/reza.kalfane/Workspaces/Daisy/DaisyExamples/libDaisy/src/per/qspi.h ****         */
 101:/Users/reza.kalfane/Workspaces/Daisy/DaisyExamples/libDaisy/src/per/qspi.h ****     Result Init(const Config& config);
 102:/Users/reza.kalfane/Workspaces/Daisy/DaisyExamples/libDaisy/src/per/qspi.h **** 
 103:/Users/reza.kalfane/Workspaces/Daisy/DaisyExamples/libDaisy/src/per/qspi.h ****     /** Returns the current config. */
 104:/Users/reza.kalfane/Workspaces/Daisy/DaisyExamples/libDaisy/src/per/qspi.h ****     const Config& GetConfig() const;
 105:/Users/reza.kalfane/Workspaces/Daisy/DaisyExamples/libDaisy/src/per/qspi.h **** 
 106:/Users/reza.kalfane/Workspaces/Daisy/DaisyExamples/libDaisy/src/per/qspi.h ****     // Couldn't this just be called before anything else in init? That
 107:/Users/reza.kalfane/Workspaces/Daisy/DaisyExamples/libDaisy/src/per/qspi.h ****     // would make manually calling it unnecessary.
 108:/Users/reza.kalfane/Workspaces/Daisy/DaisyExamples/libDaisy/src/per/qspi.h ****     /** 
 109:/Users/reza.kalfane/Workspaces/Daisy/DaisyExamples/libDaisy/src/per/qspi.h ****         Deinitializes the peripheral
 110:/Users/reza.kalfane/Workspaces/Daisy/DaisyExamples/libDaisy/src/per/qspi.h ****         This should be called before reinitializing QSPI in a different mode.
 111:/Users/reza.kalfane/Workspaces/Daisy/DaisyExamples/libDaisy/src/per/qspi.h ****         \return Result::OK or Result::ERR
 112:/Users/reza.kalfane/Workspaces/Daisy/DaisyExamples/libDaisy/src/per/qspi.h ****         */
 113:/Users/reza.kalfane/Workspaces/Daisy/DaisyExamples/libDaisy/src/per/qspi.h ****     Result DeInit();
 114:/Users/reza.kalfane/Workspaces/Daisy/DaisyExamples/libDaisy/src/per/qspi.h **** 
 115:/Users/reza.kalfane/Workspaces/Daisy/DaisyExamples/libDaisy/src/per/qspi.h ****     /** 
 116:/Users/reza.kalfane/Workspaces/Daisy/DaisyExamples/libDaisy/src/per/qspi.h ****         Writes a single page to to the specified address on the QSPI chip.
 117:/Users/reza.kalfane/Workspaces/Daisy/DaisyExamples/libDaisy/src/per/qspi.h ****         For IS25LP*, page size is 256 bytes.
 118:/Users/reza.kalfane/Workspaces/Daisy/DaisyExamples/libDaisy/src/per/qspi.h ****         \param address Address to write to
 119:/Users/reza.kalfane/Workspaces/Daisy/DaisyExamples/libDaisy/src/per/qspi.h ****         \param size Buffer size
 120:/Users/reza.kalfane/Workspaces/Daisy/DaisyExamples/libDaisy/src/per/qspi.h ****         \param buffer Buffer to write
 121:/Users/reza.kalfane/Workspaces/Daisy/DaisyExamples/libDaisy/src/per/qspi.h ****         \return Result::OK or Result::ERR
 122:/Users/reza.kalfane/Workspaces/Daisy/DaisyExamples/libDaisy/src/per/qspi.h ****         */
 123:/Users/reza.kalfane/Workspaces/Daisy/DaisyExamples/libDaisy/src/per/qspi.h ****     Result WritePage(uint32_t address, uint32_t size, uint8_t* buffer);
 124:/Users/reza.kalfane/Workspaces/Daisy/DaisyExamples/libDaisy/src/per/qspi.h **** 
 125:/Users/reza.kalfane/Workspaces/Daisy/DaisyExamples/libDaisy/src/per/qspi.h ****     /** 
 126:/Users/reza.kalfane/Workspaces/Daisy/DaisyExamples/libDaisy/src/per/qspi.h ****         Writes data in buffer to to the QSPI. Starting at address to address+size 
 127:/Users/reza.kalfane/Workspaces/Daisy/DaisyExamples/libDaisy/src/per/qspi.h ****         \param address Address to write to
 128:/Users/reza.kalfane/Workspaces/Daisy/DaisyExamples/libDaisy/src/per/qspi.h ****         \param size Buffer size
 129:/Users/reza.kalfane/Workspaces/Daisy/DaisyExamples/libDaisy/src/per/qspi.h ****         \param buffer Buffer to write
 130:/Users/reza.kalfane/Workspaces/Daisy/DaisyExamples/libDaisy/src/per/qspi.h ****         \return Result::OK or Result::ERR
 131:/Users/reza.kalfane/Workspaces/Daisy/DaisyExamples/libDaisy/src/per/qspi.h ****         */
 132:/Users/reza.kalfane/Workspaces/Daisy/DaisyExamples/libDaisy/src/per/qspi.h ****     Result Write(uint32_t address, uint32_t size, uint8_t* buffer);
 133:/Users/reza.kalfane/Workspaces/Daisy/DaisyExamples/libDaisy/src/per/qspi.h **** 
 134:/Users/reza.kalfane/Workspaces/Daisy/DaisyExamples/libDaisy/src/per/qspi.h ****     /** 
 135:/Users/reza.kalfane/Workspaces/Daisy/DaisyExamples/libDaisy/src/per/qspi.h ****         Erases the area specified on the chip.
ARM GAS  /tmp/claude-502/ccry90Vn.s 			page 291


 136:/Users/reza.kalfane/Workspaces/Daisy/DaisyExamples/libDaisy/src/per/qspi.h ****         Erasures will happen by 4K, 32K or 64K increments.
 137:/Users/reza.kalfane/Workspaces/Daisy/DaisyExamples/libDaisy/src/per/qspi.h ****         Smallest erase possible is 4kB at a time. (on IS25LP*)
 138:/Users/reza.kalfane/Workspaces/Daisy/DaisyExamples/libDaisy/src/per/qspi.h ****         \param start_addr Address to begin erasing from
 139:/Users/reza.kalfane/Workspaces/Daisy/DaisyExamples/libDaisy/src/per/qspi.h ****         \param end_addr  Address to stop erasing at
 140:/Users/reza.kalfane/Workspaces/Daisy/DaisyExamples/libDaisy/src/per/qspi.h ****         \return Result::OK or Result::ERR
 141:/Users/reza.kalfane/Workspaces/Daisy/DaisyExamples/libDaisy/src/per/qspi.h ****         */
 142:/Users/reza.kalfane/Workspaces/Daisy/DaisyExamples/libDaisy/src/per/qspi.h ****     Result Erase(uint32_t start_addr, uint32_t end_addr);
 143:/Users/reza.kalfane/Workspaces/Daisy/DaisyExamples/libDaisy/src/per/qspi.h **** 
 144:/Users/reza.kalfane/Workspaces/Daisy/DaisyExamples/libDaisy/src/per/qspi.h ****     /**  
 145:/Users/reza.kalfane/Workspaces/Daisy/DaisyExamples/libDaisy/src/per/qspi.h ****          Erases a single sector of the chip.  
 146:/Users/reza.kalfane/Workspaces/Daisy/DaisyExamples/libDaisy/src/per/qspi.h ****         TODO: Document the size of this function. 
 147:/Users/reza.kalfane/Workspaces/Daisy/DaisyExamples/libDaisy/src/per/qspi.h ****         \param address Address of sector to erase
 148:/Users/reza.kalfane/Workspaces/Daisy/DaisyExamples/libDaisy/src/per/qspi.h ****         \return Result::OK or Result::ERR
 149:/Users/reza.kalfane/Workspaces/Daisy/DaisyExamples/libDaisy/src/per/qspi.h ****         */
 150:/Users/reza.kalfane/Workspaces/Daisy/DaisyExamples/libDaisy/src/per/qspi.h ****     Result EraseSector(uint32_t address);
 151:/Users/reza.kalfane/Workspaces/Daisy/DaisyExamples/libDaisy/src/per/qspi.h **** 
 152:/Users/reza.kalfane/Workspaces/Daisy/DaisyExamples/libDaisy/src/per/qspi.h ****     /** Returns the current class status. Useful for debugging.
 153:/Users/reza.kalfane/Workspaces/Daisy/DaisyExamples/libDaisy/src/per/qspi.h ****      *  \returns Status
 154:/Users/reza.kalfane/Workspaces/Daisy/DaisyExamples/libDaisy/src/per/qspi.h ****      */
 155:/Users/reza.kalfane/Workspaces/Daisy/DaisyExamples/libDaisy/src/per/qspi.h ****     Status GetStatus();
 156:/Users/reza.kalfane/Workspaces/Daisy/DaisyExamples/libDaisy/src/per/qspi.h **** 
 157:/Users/reza.kalfane/Workspaces/Daisy/DaisyExamples/libDaisy/src/per/qspi.h ****     /** Returns a pointer to the actual memory used 
 158:/Users/reza.kalfane/Workspaces/Daisy/DaisyExamples/libDaisy/src/per/qspi.h ****      *  The memory at this address is read-only
 159:/Users/reza.kalfane/Workspaces/Daisy/DaisyExamples/libDaisy/src/per/qspi.h ****      *  to write to it use the Write function.
 160:/Users/reza.kalfane/Workspaces/Daisy/DaisyExamples/libDaisy/src/per/qspi.h ****      * 
 161:/Users/reza.kalfane/Workspaces/Daisy/DaisyExamples/libDaisy/src/per/qspi.h ****      *  \param offset returns the pointer starting this 
 162:/Users/reza.kalfane/Workspaces/Daisy/DaisyExamples/libDaisy/src/per/qspi.h ****      *                many bytes into the memory
 163:/Users/reza.kalfane/Workspaces/Daisy/DaisyExamples/libDaisy/src/per/qspi.h ****     */
 164:/Users/reza.kalfane/Workspaces/Daisy/DaisyExamples/libDaisy/src/per/qspi.h ****     void* GetData(uint32_t offset = 0);
 165:/Users/reza.kalfane/Workspaces/Daisy/DaisyExamples/libDaisy/src/per/qspi.h **** 
 166:/Users/reza.kalfane/Workspaces/Daisy/DaisyExamples/libDaisy/src/per/qspi.h ****     QSPIHandle() : pimpl_(nullptr) {}
 11323              		.loc 7 166 5 view .LVU3387
 11324              	.LBE1860:
 11325              	.LBE1859:
 11326              	.LBE1858:
 11327              	.LBE1857:
 11328              	.LBE1856:
 11329              		.loc 6 1552 1 is_stmt 0 view .LVU3388
 11330 0000 10B5     		push	{r4, lr}
 11331              		.cfi_def_cfa_offset 8
 11332              		.cfi_offset 4, -8
 11333              		.cfi_offset 14, -4
 11334              	.LBB1921:
 11335              	.LBB1920:
 11336              	.LBB1881:
 11337              	.LBB1879:
 11338              	.LBB1865:
 11339              	.LBB1861:
 11340              	.LBB1862:
 11341              		.loc 7 166 34 view .LVU3389
 11342 0002 0E48     		ldr	r0, .L718
 11343 0004 0024     		movs	r4, #0
 11344              	.LBE1862:
 11345              	.LBE1861:
 11346              	.LBE1865:
 11347              	.LBE1879:
 11348              	.LBE1881:
ARM GAS  /tmp/claude-502/ccry90Vn.s 			page 292


 438:src/main.cpp  **** GPIO      sda, scl;
 11349              		.loc 6 438 11 view .LVU3390
 11350 0006 0E4A     		ldr	r2, .L718+4
 11351 0008 0E49     		ldr	r1, .L718+8
 11352              	.LBB1882:
 11353              	.LBB1880:
 11354              	.LBB1866:
 11355              	.LBB1864:
 11356              	.LBB1863:
 11357              		.loc 7 166 34 view .LVU3391
 11358 000a 0460     		str	r4, [r0]
 11359              	.LVL926:
 11360              		.loc 7 166 34 view .LVU3392
 11361              	.LBE1863:
 11362              	.LBE1864:
 11363              	.LBE1866:
 11364              	.LBB1867:
 11365              	.LBI1867:
  95:/Users/reza.kalfane/Workspaces/Daisy/DaisyExamples/libDaisy/src/hid/audio.h ****     ~AudioHandle() {}
 11366              		.loc 5 95 5 is_stmt 1 view .LVU3393
 11367              	.LBB1868:
 11368              	.LBB1869:
  95:/Users/reza.kalfane/Workspaces/Daisy/DaisyExamples/libDaisy/src/hid/audio.h ****     ~AudioHandle() {}
 11369              		.loc 5 95 35 is_stmt 0 view .LVU3394
 11370 000c 4461     		str	r4, [r0, #20]
 11371              	.LVL927:
  95:/Users/reza.kalfane/Workspaces/Daisy/DaisyExamples/libDaisy/src/hid/audio.h ****     ~AudioHandle() {}
 11372              		.loc 5 95 35 view .LVU3395
 11373              	.LBE1869:
 11374              	.LBE1868:
 11375              	.LBE1867:
 11376              	.LBB1870:
 11377              	.LBI1870:
 109:/Users/reza.kalfane/Workspaces/Daisy/DaisyExamples/libDaisy/src/per/adc.h ****     ~AdcHandle() {}
 11378              		.loc 4 109 5 is_stmt 1 view .LVU3396
 109:/Users/reza.kalfane/Workspaces/Daisy/DaisyExamples/libDaisy/src/per/adc.h ****     ~AdcHandle() {}
 11379              		.loc 4 109 5 is_stmt 0 view .LVU3397
 11380              	.LBE1870:
 11381              	.LBB1871:
 11382              	.LBI1871:
 11383              		.file 8 "/Users/reza.kalfane/Workspaces/Daisy/DaisyExamples/libDaisy/src/per/dac.h"
   1:/Users/reza.kalfane/Workspaces/Daisy/DaisyExamples/libDaisy/src/per/dac.h **** #pragma once
   2:/Users/reza.kalfane/Workspaces/Daisy/DaisyExamples/libDaisy/src/per/dac.h **** #ifndef DSY_DAC_H
   3:/Users/reza.kalfane/Workspaces/Daisy/DaisyExamples/libDaisy/src/per/dac.h **** #define DSY_DAC_H
   4:/Users/reza.kalfane/Workspaces/Daisy/DaisyExamples/libDaisy/src/per/dac.h **** 
   5:/Users/reza.kalfane/Workspaces/Daisy/DaisyExamples/libDaisy/src/per/dac.h **** #include "daisy_core.h"
   6:/Users/reza.kalfane/Workspaces/Daisy/DaisyExamples/libDaisy/src/per/dac.h **** 
   7:/Users/reza.kalfane/Workspaces/Daisy/DaisyExamples/libDaisy/src/per/dac.h **** namespace daisy
   8:/Users/reza.kalfane/Workspaces/Daisy/DaisyExamples/libDaisy/src/per/dac.h **** {
   9:/Users/reza.kalfane/Workspaces/Daisy/DaisyExamples/libDaisy/src/per/dac.h **** /** @brief DAC handle for Built-in DAC Peripheral 
  10:/Users/reza.kalfane/Workspaces/Daisy/DaisyExamples/libDaisy/src/per/dac.h ****  *  @ingroup per_analog
  11:/Users/reza.kalfane/Workspaces/Daisy/DaisyExamples/libDaisy/src/per/dac.h ****  ** 
  12:/Users/reza.kalfane/Workspaces/Daisy/DaisyExamples/libDaisy/src/per/dac.h ****  ** For now only Normal Mode is supported,
  13:/Users/reza.kalfane/Workspaces/Daisy/DaisyExamples/libDaisy/src/per/dac.h ****  ** Sample and hold mode provides reduced power consumption, but requires a bit more setup.
  14:/Users/reza.kalfane/Workspaces/Daisy/DaisyExamples/libDaisy/src/per/dac.h ****  **
  15:/Users/reza.kalfane/Workspaces/Daisy/DaisyExamples/libDaisy/src/per/dac.h ****  ** For now connecting the DAC through other internal peripherals is also not supported.
  16:/Users/reza.kalfane/Workspaces/Daisy/DaisyExamples/libDaisy/src/per/dac.h ****  **
ARM GAS  /tmp/claude-502/ccry90Vn.s 			page 293


  17:/Users/reza.kalfane/Workspaces/Daisy/DaisyExamples/libDaisy/src/per/dac.h ****  ** Since the DAC channels have dedicated pins we don't need to pass in a pin config like with
  18:/Users/reza.kalfane/Workspaces/Daisy/DaisyExamples/libDaisy/src/per/dac.h ****  ** other modules. However, it is still important to not try to use the DAC pins for anything else.
  19:/Users/reza.kalfane/Workspaces/Daisy/DaisyExamples/libDaisy/src/per/dac.h ****  ** DAC Channel 1 is on PA4, and DAC Channel 2 is on PA5
  20:/Users/reza.kalfane/Workspaces/Daisy/DaisyExamples/libDaisy/src/per/dac.h ****  ***/
  21:/Users/reza.kalfane/Workspaces/Daisy/DaisyExamples/libDaisy/src/per/dac.h **** class DacHandle
  22:/Users/reza.kalfane/Workspaces/Daisy/DaisyExamples/libDaisy/src/per/dac.h **** {
  23:/Users/reza.kalfane/Workspaces/Daisy/DaisyExamples/libDaisy/src/per/dac.h ****   public:
  24:/Users/reza.kalfane/Workspaces/Daisy/DaisyExamples/libDaisy/src/per/dac.h ****     /** Return Values for the DacHandle class */
  25:/Users/reza.kalfane/Workspaces/Daisy/DaisyExamples/libDaisy/src/per/dac.h ****     enum class Result
  26:/Users/reza.kalfane/Workspaces/Daisy/DaisyExamples/libDaisy/src/per/dac.h ****     {
  27:/Users/reza.kalfane/Workspaces/Daisy/DaisyExamples/libDaisy/src/per/dac.h ****         OK,
  28:/Users/reza.kalfane/Workspaces/Daisy/DaisyExamples/libDaisy/src/per/dac.h ****         ERR,
  29:/Users/reza.kalfane/Workspaces/Daisy/DaisyExamples/libDaisy/src/per/dac.h ****     };
  30:/Users/reza.kalfane/Workspaces/Daisy/DaisyExamples/libDaisy/src/per/dac.h **** 
  31:/Users/reza.kalfane/Workspaces/Daisy/DaisyExamples/libDaisy/src/per/dac.h ****     /** Selects which channel(s) will be configured for use. */
  32:/Users/reza.kalfane/Workspaces/Daisy/DaisyExamples/libDaisy/src/per/dac.h ****     enum class Channel
  33:/Users/reza.kalfane/Workspaces/Daisy/DaisyExamples/libDaisy/src/per/dac.h ****     {
  34:/Users/reza.kalfane/Workspaces/Daisy/DaisyExamples/libDaisy/src/per/dac.h ****         ONE,
  35:/Users/reza.kalfane/Workspaces/Daisy/DaisyExamples/libDaisy/src/per/dac.h ****         TWO,
  36:/Users/reza.kalfane/Workspaces/Daisy/DaisyExamples/libDaisy/src/per/dac.h ****         BOTH,
  37:/Users/reza.kalfane/Workspaces/Daisy/DaisyExamples/libDaisy/src/per/dac.h ****     };
  38:/Users/reza.kalfane/Workspaces/Daisy/DaisyExamples/libDaisy/src/per/dac.h **** 
  39:/Users/reza.kalfane/Workspaces/Daisy/DaisyExamples/libDaisy/src/per/dac.h ****     /** Sets the Mode for the DAC channels.
  40:/Users/reza.kalfane/Workspaces/Daisy/DaisyExamples/libDaisy/src/per/dac.h ****      **
  41:/Users/reza.kalfane/Workspaces/Daisy/DaisyExamples/libDaisy/src/per/dac.h ****      ** Polling mode uses the blocking mode to transmit a single value at a time.
  42:/Users/reza.kalfane/Workspaces/Daisy/DaisyExamples/libDaisy/src/per/dac.h ****      **
  43:/Users/reza.kalfane/Workspaces/Daisy/DaisyExamples/libDaisy/src/per/dac.h ****      ** DMA mode uses a buffer, and periodically transmits it triggering a 
  44:/Users/reza.kalfane/Workspaces/Daisy/DaisyExamples/libDaisy/src/per/dac.h ****      ** callback to fill the buffer when it is ready for more samples.
  45:/Users/reza.kalfane/Workspaces/Daisy/DaisyExamples/libDaisy/src/per/dac.h ****      ***/
  46:/Users/reza.kalfane/Workspaces/Daisy/DaisyExamples/libDaisy/src/per/dac.h ****     enum class Mode
  47:/Users/reza.kalfane/Workspaces/Daisy/DaisyExamples/libDaisy/src/per/dac.h ****     {
  48:/Users/reza.kalfane/Workspaces/Daisy/DaisyExamples/libDaisy/src/per/dac.h ****         POLLING,
  49:/Users/reza.kalfane/Workspaces/Daisy/DaisyExamples/libDaisy/src/per/dac.h ****         DMA,
  50:/Users/reza.kalfane/Workspaces/Daisy/DaisyExamples/libDaisy/src/per/dac.h ****     };
  51:/Users/reza.kalfane/Workspaces/Daisy/DaisyExamples/libDaisy/src/per/dac.h **** 
  52:/Users/reza.kalfane/Workspaces/Daisy/DaisyExamples/libDaisy/src/per/dac.h ****     /** Sets the number of bits per sample transmitted out of the DAC.
  53:/Users/reza.kalfane/Workspaces/Daisy/DaisyExamples/libDaisy/src/per/dac.h ****      ** The output range will be: 0V - VDDA
  54:/Users/reza.kalfane/Workspaces/Daisy/DaisyExamples/libDaisy/src/per/dac.h ****      ** The resolution will be roughly: bitdepth / (VDDA - 0V) 
  55:/Users/reza.kalfane/Workspaces/Daisy/DaisyExamples/libDaisy/src/per/dac.h ****      ***/
  56:/Users/reza.kalfane/Workspaces/Daisy/DaisyExamples/libDaisy/src/per/dac.h ****     enum class BitDepth
  57:/Users/reza.kalfane/Workspaces/Daisy/DaisyExamples/libDaisy/src/per/dac.h ****     {
  58:/Users/reza.kalfane/Workspaces/Daisy/DaisyExamples/libDaisy/src/per/dac.h ****         BITS_8,
  59:/Users/reza.kalfane/Workspaces/Daisy/DaisyExamples/libDaisy/src/per/dac.h ****         BITS_12
  60:/Users/reza.kalfane/Workspaces/Daisy/DaisyExamples/libDaisy/src/per/dac.h ****     };
  61:/Users/reza.kalfane/Workspaces/Daisy/DaisyExamples/libDaisy/src/per/dac.h **** 
  62:/Users/reza.kalfane/Workspaces/Daisy/DaisyExamples/libDaisy/src/per/dac.h ****     /** Sets whether the DAC output is buffered for higher drive ability. */
  63:/Users/reza.kalfane/Workspaces/Daisy/DaisyExamples/libDaisy/src/per/dac.h ****     enum class BufferState
  64:/Users/reza.kalfane/Workspaces/Daisy/DaisyExamples/libDaisy/src/per/dac.h ****     {
  65:/Users/reza.kalfane/Workspaces/Daisy/DaisyExamples/libDaisy/src/per/dac.h ****         ENABLED,
  66:/Users/reza.kalfane/Workspaces/Daisy/DaisyExamples/libDaisy/src/per/dac.h ****         DISABLED,
  67:/Users/reza.kalfane/Workspaces/Daisy/DaisyExamples/libDaisy/src/per/dac.h ****     };
  68:/Users/reza.kalfane/Workspaces/Daisy/DaisyExamples/libDaisy/src/per/dac.h **** 
  69:/Users/reza.kalfane/Workspaces/Daisy/DaisyExamples/libDaisy/src/per/dac.h ****     /** Configuration structure for initializing the DAC structure. */
  70:/Users/reza.kalfane/Workspaces/Daisy/DaisyExamples/libDaisy/src/per/dac.h ****     struct Config
  71:/Users/reza.kalfane/Workspaces/Daisy/DaisyExamples/libDaisy/src/per/dac.h ****     {
  72:/Users/reza.kalfane/Workspaces/Daisy/DaisyExamples/libDaisy/src/per/dac.h ****         /** Target Samplerate in Hz used to configure the internal 
  73:/Users/reza.kalfane/Workspaces/Daisy/DaisyExamples/libDaisy/src/per/dac.h ****          ** timebase for DMA mode. Does nothing in POLLING mode.
ARM GAS  /tmp/claude-502/ccry90Vn.s 			page 294


  74:/Users/reza.kalfane/Workspaces/Daisy/DaisyExamples/libDaisy/src/per/dac.h ****          ** If the value is 0 at Init time this will default to 48000Hz 
  75:/Users/reza.kalfane/Workspaces/Daisy/DaisyExamples/libDaisy/src/per/dac.h ****          ** otherwise the driver will attempt meet the target.*/
  76:/Users/reza.kalfane/Workspaces/Daisy/DaisyExamples/libDaisy/src/per/dac.h ****         uint32_t target_samplerate;
  77:/Users/reza.kalfane/Workspaces/Daisy/DaisyExamples/libDaisy/src/per/dac.h **** 
  78:/Users/reza.kalfane/Workspaces/Daisy/DaisyExamples/libDaisy/src/per/dac.h ****         Channel     chn;
  79:/Users/reza.kalfane/Workspaces/Daisy/DaisyExamples/libDaisy/src/per/dac.h ****         Mode        mode;
  80:/Users/reza.kalfane/Workspaces/Daisy/DaisyExamples/libDaisy/src/per/dac.h ****         BitDepth    bitdepth;
  81:/Users/reza.kalfane/Workspaces/Daisy/DaisyExamples/libDaisy/src/per/dac.h ****         BufferState buff_state;
  82:/Users/reza.kalfane/Workspaces/Daisy/DaisyExamples/libDaisy/src/per/dac.h ****     };
  83:/Users/reza.kalfane/Workspaces/Daisy/DaisyExamples/libDaisy/src/per/dac.h **** 
  84:/Users/reza.kalfane/Workspaces/Daisy/DaisyExamples/libDaisy/src/per/dac.h ****     DacHandle() : pimpl_(nullptr) {}
 11384              		.loc 8 84 5 is_stmt 1 view .LVU3398
 11385              	.LBB1872:
 11386              	.LBB1873:
 11387              		.loc 8 84 33 is_stmt 0 view .LVU3399
 11388 000e 0462     		str	r4, [r0, #32]
 11389              	.LVL928:
 11390              		.loc 8 84 33 view .LVU3400
 11391              	.LBE1873:
 11392              	.LBE1872:
 11393              	.LBE1871:
 11394              	.LBB1874:
 11395              	.LBI1874:
  40:/Users/reza.kalfane/Workspaces/Daisy/DaisyExamples/libDaisy/src/hid/usb.h **** 
 11396              		.loc 3 40 5 is_stmt 1 view .LVU3401
  40:/Users/reza.kalfane/Workspaces/Daisy/DaisyExamples/libDaisy/src/hid/usb.h **** 
 11397              		.loc 3 40 5 is_stmt 0 view .LVU3402
 11398              	.LBE1874:
 11399              	.LBB1875:
 11400              	.LBI1875:
  96:/Users/reza.kalfane/Workspaces/Daisy/DaisyExamples/libDaisy/src/sys/system.h ****     ~System() {}
 11401              		.loc 2 96 5 is_stmt 1 view .LVU3403
  96:/Users/reza.kalfane/Workspaces/Daisy/DaisyExamples/libDaisy/src/sys/system.h ****     ~System() {}
 11402              		.loc 2 96 5 is_stmt 0 view .LVU3404
 11403              	.LBE1875:
 11404              	.LBB1876:
 11405              	.LBI1876:
 11406              		.file 9 "/Users/reza.kalfane/Workspaces/Daisy/DaisyExamples/libDaisy/src/per/sai.h"
   1:/Users/reza.kalfane/Workspaces/Daisy/DaisyExamples/libDaisy/src/per/sai.h **** #pragma once
   2:/Users/reza.kalfane/Workspaces/Daisy/DaisyExamples/libDaisy/src/per/sai.h **** #ifndef DSY_SAI_H
   3:/Users/reza.kalfane/Workspaces/Daisy/DaisyExamples/libDaisy/src/per/sai.h **** #define DSY_SAI_H
   4:/Users/reza.kalfane/Workspaces/Daisy/DaisyExamples/libDaisy/src/per/sai.h **** 
   5:/Users/reza.kalfane/Workspaces/Daisy/DaisyExamples/libDaisy/src/per/sai.h **** #include "daisy_core.h"
   6:/Users/reza.kalfane/Workspaces/Daisy/DaisyExamples/libDaisy/src/per/sai.h **** 
   7:/Users/reza.kalfane/Workspaces/Daisy/DaisyExamples/libDaisy/src/per/sai.h **** namespace daisy
   8:/Users/reza.kalfane/Workspaces/Daisy/DaisyExamples/libDaisy/src/per/sai.h **** {
   9:/Users/reza.kalfane/Workspaces/Daisy/DaisyExamples/libDaisy/src/per/sai.h **** /** 
  10:/Users/reza.kalfane/Workspaces/Daisy/DaisyExamples/libDaisy/src/per/sai.h ****  * Support for I2S Audio Protocol with different bit-depth, samplerate options
  11:/Users/reza.kalfane/Workspaces/Daisy/DaisyExamples/libDaisy/src/per/sai.h ****  * Allows for master or slave, as well as freedom of selecting direction, 
  12:/Users/reza.kalfane/Workspaces/Daisy/DaisyExamples/libDaisy/src/per/sai.h ****  * and other behavior for each peripheral, and block.
  13:/Users/reza.kalfane/Workspaces/Daisy/DaisyExamples/libDaisy/src/per/sai.h ****  * 
  14:/Users/reza.kalfane/Workspaces/Daisy/DaisyExamples/libDaisy/src/per/sai.h ****  * DMA Transfer commands must use buffers located within non-cached memory or use cache maintenance
  15:/Users/reza.kalfane/Workspaces/Daisy/DaisyExamples/libDaisy/src/per/sai.h ****  * To declare an unitialized global element in the DMA memory section:
  16:/Users/reza.kalfane/Workspaces/Daisy/DaisyExamples/libDaisy/src/per/sai.h ****  *    int32_t DSY_DMA_BUFFER_SECTOR my_buffer[96];
  17:/Users/reza.kalfane/Workspaces/Daisy/DaisyExamples/libDaisy/src/per/sai.h ****  *
  18:/Users/reza.kalfane/Workspaces/Daisy/DaisyExamples/libDaisy/src/per/sai.h ****  * Callback functions will be called once per half of the buffer. In the above example, 
  19:/Users/reza.kalfane/Workspaces/Daisy/DaisyExamples/libDaisy/src/per/sai.h ****  * the callback function would be called once for every 48 samples.
ARM GAS  /tmp/claude-502/ccry90Vn.s 			page 295


  20:/Users/reza.kalfane/Workspaces/Daisy/DaisyExamples/libDaisy/src/per/sai.h ****  * 
  21:/Users/reza.kalfane/Workspaces/Daisy/DaisyExamples/libDaisy/src/per/sai.h ****  * Use SAI Handle like this:
  22:/Users/reza.kalfane/Workspaces/Daisy/DaisyExamples/libDaisy/src/per/sai.h ****  * 
  23:/Users/reza.kalfane/Workspaces/Daisy/DaisyExamples/libDaisy/src/per/sai.h ****  *  SaiHandle::Config sai_config;
  24:/Users/reza.kalfane/Workspaces/Daisy/DaisyExamples/libDaisy/src/per/sai.h ****  *  sai_config.periph          = SaiHandle::Config::Peripheral::SAI_1;
  25:/Users/reza.kalfane/Workspaces/Daisy/DaisyExamples/libDaisy/src/per/sai.h ****  *  sai_config.sr              = SaiHandle::Config::SampleRate::SAI_48KHZ;
  26:/Users/reza.kalfane/Workspaces/Daisy/DaisyExamples/libDaisy/src/per/sai.h ****  *  sai_config.bit_depth       = SaiHandle::Config::BitDepth::SAI_24BIT;
  27:/Users/reza.kalfane/Workspaces/Daisy/DaisyExamples/libDaisy/src/per/sai.h ****  *  sai_config.a_sync          = SaiHandle::Config::Sync::MASTER;
  28:/Users/reza.kalfane/Workspaces/Daisy/DaisyExamples/libDaisy/src/per/sai.h ****  *  sai_config.b_sync          = SaiHandle::Config::Sync::SLAVE;
  29:/Users/reza.kalfane/Workspaces/Daisy/DaisyExamples/libDaisy/src/per/sai.h ****  *  sai_config.a_dir           = SaiHandle::Config::Direction::RECEIVE;
  30:/Users/reza.kalfane/Workspaces/Daisy/DaisyExamples/libDaisy/src/per/sai.h ****  *  sai_config.b_dir           = SaiHandle::Config::Direction::TRANSMIT;
  31:/Users/reza.kalfane/Workspaces/Daisy/DaisyExamples/libDaisy/src/per/sai.h ****  *  sai_config.pin_config.fs   = {DSY_GPIOE, 4};
  32:/Users/reza.kalfane/Workspaces/Daisy/DaisyExamples/libDaisy/src/per/sai.h ****  *  sai_config.pin_config.mclk = {DSY_GPIOE, 2};
  33:/Users/reza.kalfane/Workspaces/Daisy/DaisyExamples/libDaisy/src/per/sai.h ****  *  sai_config.pin_config.sck  = {DSY_GPIOE, 5};
  34:/Users/reza.kalfane/Workspaces/Daisy/DaisyExamples/libDaisy/src/per/sai.h ****  *  sai_config.pin_config.sa   = {DSY_GPIOE, 6};
  35:/Users/reza.kalfane/Workspaces/Daisy/DaisyExamples/libDaisy/src/per/sai.h ****  *  sai_config.pin_config.sb   = {DSY_GPIOE, 3};
  36:/Users/reza.kalfane/Workspaces/Daisy/DaisyExamples/libDaisy/src/per/sai.h ****  *  // Then Initialize
  37:/Users/reza.kalfane/Workspaces/Daisy/DaisyExamples/libDaisy/src/per/sai.h ****  *  SaiHandle sai;
  38:/Users/reza.kalfane/Workspaces/Daisy/DaisyExamples/libDaisy/src/per/sai.h ****  *  sai.Init(sai_config);
  39:/Users/reza.kalfane/Workspaces/Daisy/DaisyExamples/libDaisy/src/per/sai.h ****  *  // Now you can use it:
  40:/Users/reza.kalfane/Workspaces/Daisy/DaisyExamples/libDaisy/src/per/sai.h ****  *  sai.StartDma(. . .);
  41:/Users/reza.kalfane/Workspaces/Daisy/DaisyExamples/libDaisy/src/per/sai.h ****  */
  42:/Users/reza.kalfane/Workspaces/Daisy/DaisyExamples/libDaisy/src/per/sai.h **** class SaiHandle
  43:/Users/reza.kalfane/Workspaces/Daisy/DaisyExamples/libDaisy/src/per/sai.h **** {
  44:/Users/reza.kalfane/Workspaces/Daisy/DaisyExamples/libDaisy/src/per/sai.h ****   public:
  45:/Users/reza.kalfane/Workspaces/Daisy/DaisyExamples/libDaisy/src/per/sai.h ****     /** Contains settings for initialising an SAI Interface */
  46:/Users/reza.kalfane/Workspaces/Daisy/DaisyExamples/libDaisy/src/per/sai.h ****     struct Config
  47:/Users/reza.kalfane/Workspaces/Daisy/DaisyExamples/libDaisy/src/per/sai.h ****     {
  48:/Users/reza.kalfane/Workspaces/Daisy/DaisyExamples/libDaisy/src/per/sai.h ****         /** Specifies the internal peripheral to use (mapped to different hardware pins) */
  49:/Users/reza.kalfane/Workspaces/Daisy/DaisyExamples/libDaisy/src/per/sai.h ****         enum class Peripheral
  50:/Users/reza.kalfane/Workspaces/Daisy/DaisyExamples/libDaisy/src/per/sai.h ****         {
  51:/Users/reza.kalfane/Workspaces/Daisy/DaisyExamples/libDaisy/src/per/sai.h ****             SAI_1,
  52:/Users/reza.kalfane/Workspaces/Daisy/DaisyExamples/libDaisy/src/per/sai.h ****             SAI_2,
  53:/Users/reza.kalfane/Workspaces/Daisy/DaisyExamples/libDaisy/src/per/sai.h ****         };
  54:/Users/reza.kalfane/Workspaces/Daisy/DaisyExamples/libDaisy/src/per/sai.h **** 
  55:/Users/reza.kalfane/Workspaces/Daisy/DaisyExamples/libDaisy/src/per/sai.h ****         /** Rate at which samples will be streaming to/from the device. */
  56:/Users/reza.kalfane/Workspaces/Daisy/DaisyExamples/libDaisy/src/per/sai.h ****         enum class SampleRate
  57:/Users/reza.kalfane/Workspaces/Daisy/DaisyExamples/libDaisy/src/per/sai.h ****         {
  58:/Users/reza.kalfane/Workspaces/Daisy/DaisyExamples/libDaisy/src/per/sai.h ****             SAI_8KHZ,
  59:/Users/reza.kalfane/Workspaces/Daisy/DaisyExamples/libDaisy/src/per/sai.h ****             SAI_16KHZ,
  60:/Users/reza.kalfane/Workspaces/Daisy/DaisyExamples/libDaisy/src/per/sai.h ****             SAI_32KHZ,
  61:/Users/reza.kalfane/Workspaces/Daisy/DaisyExamples/libDaisy/src/per/sai.h ****             SAI_48KHZ,
  62:/Users/reza.kalfane/Workspaces/Daisy/DaisyExamples/libDaisy/src/per/sai.h ****             SAI_96KHZ,
  63:/Users/reza.kalfane/Workspaces/Daisy/DaisyExamples/libDaisy/src/per/sai.h ****         };
  64:/Users/reza.kalfane/Workspaces/Daisy/DaisyExamples/libDaisy/src/per/sai.h **** 
  65:/Users/reza.kalfane/Workspaces/Daisy/DaisyExamples/libDaisy/src/per/sai.h ****         /** Bit Depth that the hardware expects to be transferred to/from the device. */
  66:/Users/reza.kalfane/Workspaces/Daisy/DaisyExamples/libDaisy/src/per/sai.h ****         enum class BitDepth
  67:/Users/reza.kalfane/Workspaces/Daisy/DaisyExamples/libDaisy/src/per/sai.h ****         {
  68:/Users/reza.kalfane/Workspaces/Daisy/DaisyExamples/libDaisy/src/per/sai.h ****             SAI_16BIT,
  69:/Users/reza.kalfane/Workspaces/Daisy/DaisyExamples/libDaisy/src/per/sai.h ****             SAI_24BIT,
  70:/Users/reza.kalfane/Workspaces/Daisy/DaisyExamples/libDaisy/src/per/sai.h ****             SAI_32BIT,
  71:/Users/reza.kalfane/Workspaces/Daisy/DaisyExamples/libDaisy/src/per/sai.h ****         };
  72:/Users/reza.kalfane/Workspaces/Daisy/DaisyExamples/libDaisy/src/per/sai.h **** 
  73:/Users/reza.kalfane/Workspaces/Daisy/DaisyExamples/libDaisy/src/per/sai.h ****         /** Specifies whether a particular block is the master or the slave 
  74:/Users/reza.kalfane/Workspaces/Daisy/DaisyExamples/libDaisy/src/per/sai.h ****          ** If both are set to slave, no MCLK signal will be used, and it is
  75:/Users/reza.kalfane/Workspaces/Daisy/DaisyExamples/libDaisy/src/per/sai.h ****          ** expected that the codec will have its own xtal.
  76:/Users/reza.kalfane/Workspaces/Daisy/DaisyExamples/libDaisy/src/per/sai.h ****          */
ARM GAS  /tmp/claude-502/ccry90Vn.s 			page 296


  77:/Users/reza.kalfane/Workspaces/Daisy/DaisyExamples/libDaisy/src/per/sai.h ****         enum class Sync
  78:/Users/reza.kalfane/Workspaces/Daisy/DaisyExamples/libDaisy/src/per/sai.h ****         {
  79:/Users/reza.kalfane/Workspaces/Daisy/DaisyExamples/libDaisy/src/per/sai.h ****             MASTER,
  80:/Users/reza.kalfane/Workspaces/Daisy/DaisyExamples/libDaisy/src/per/sai.h ****             SLAVE,
  81:/Users/reza.kalfane/Workspaces/Daisy/DaisyExamples/libDaisy/src/per/sai.h ****         };
  82:/Users/reza.kalfane/Workspaces/Daisy/DaisyExamples/libDaisy/src/per/sai.h **** 
  83:/Users/reza.kalfane/Workspaces/Daisy/DaisyExamples/libDaisy/src/per/sai.h ****         /** Specifies the direction for each peripheral block. */
  84:/Users/reza.kalfane/Workspaces/Daisy/DaisyExamples/libDaisy/src/per/sai.h ****         enum class Direction
  85:/Users/reza.kalfane/Workspaces/Daisy/DaisyExamples/libDaisy/src/per/sai.h ****         {
  86:/Users/reza.kalfane/Workspaces/Daisy/DaisyExamples/libDaisy/src/per/sai.h ****             TRANSMIT,
  87:/Users/reza.kalfane/Workspaces/Daisy/DaisyExamples/libDaisy/src/per/sai.h ****             RECEIVE,
  88:/Users/reza.kalfane/Workspaces/Daisy/DaisyExamples/libDaisy/src/per/sai.h ****         };
  89:/Users/reza.kalfane/Workspaces/Daisy/DaisyExamples/libDaisy/src/per/sai.h **** 
  90:/Users/reza.kalfane/Workspaces/Daisy/DaisyExamples/libDaisy/src/per/sai.h ****         Peripheral periph;
  91:/Users/reza.kalfane/Workspaces/Daisy/DaisyExamples/libDaisy/src/per/sai.h ****         struct
  92:/Users/reza.kalfane/Workspaces/Daisy/DaisyExamples/libDaisy/src/per/sai.h ****         {
  93:/Users/reza.kalfane/Workspaces/Daisy/DaisyExamples/libDaisy/src/per/sai.h ****             dsy_gpio_pin mclk, fs, sck, sa, sb;
  94:/Users/reza.kalfane/Workspaces/Daisy/DaisyExamples/libDaisy/src/per/sai.h ****         } pin_config;
  95:/Users/reza.kalfane/Workspaces/Daisy/DaisyExamples/libDaisy/src/per/sai.h ****         SampleRate sr;
  96:/Users/reza.kalfane/Workspaces/Daisy/DaisyExamples/libDaisy/src/per/sai.h ****         BitDepth   bit_depth;
  97:/Users/reza.kalfane/Workspaces/Daisy/DaisyExamples/libDaisy/src/per/sai.h ****         Sync       a_sync, b_sync;
  98:/Users/reza.kalfane/Workspaces/Daisy/DaisyExamples/libDaisy/src/per/sai.h ****         Direction  a_dir, b_dir;
  99:/Users/reza.kalfane/Workspaces/Daisy/DaisyExamples/libDaisy/src/per/sai.h ****     };
 100:/Users/reza.kalfane/Workspaces/Daisy/DaisyExamples/libDaisy/src/per/sai.h **** 
 101:/Users/reza.kalfane/Workspaces/Daisy/DaisyExamples/libDaisy/src/per/sai.h ****     /** Return values for SAI functions */
 102:/Users/reza.kalfane/Workspaces/Daisy/DaisyExamples/libDaisy/src/per/sai.h ****     enum class Result
 103:/Users/reza.kalfane/Workspaces/Daisy/DaisyExamples/libDaisy/src/per/sai.h ****     {
 104:/Users/reza.kalfane/Workspaces/Daisy/DaisyExamples/libDaisy/src/per/sai.h ****         OK,
 105:/Users/reza.kalfane/Workspaces/Daisy/DaisyExamples/libDaisy/src/per/sai.h ****         ERR,
 106:/Users/reza.kalfane/Workspaces/Daisy/DaisyExamples/libDaisy/src/per/sai.h ****     };
 107:/Users/reza.kalfane/Workspaces/Daisy/DaisyExamples/libDaisy/src/per/sai.h **** 
 108:/Users/reza.kalfane/Workspaces/Daisy/DaisyExamples/libDaisy/src/per/sai.h ****     SaiHandle() : pimpl_(nullptr) {}
 11407              		.loc 9 108 5 is_stmt 1 view .LVU3405
 11408              	.LBB1877:
 11409              	.LBB1878:
 11410              		.loc 9 108 33 is_stmt 0 view .LVU3406
 11411 0010 C463     		str	r4, [r0, #60]
 11412              	.LVL929:
 11413              		.loc 9 108 33 view .LVU3407
 11414              	.LBE1878:
 11415              	.LBE1877:
 11416              	.LBE1876:
 11417              	.LBE1880:
 11418              	.LBE1882:
 438:src/main.cpp  **** GPIO      sda, scl;
 11419              		.loc 6 438 11 view .LVU3408
 11420 0012 FFF7FEFF 		bl	__aeabi_atexit
 11421              	.LVL930:
 11422              	.LBB1883:
 11423              	.LBI1883:
 11424              		.file 10 "/Users/reza.kalfane/Workspaces/Daisy/DaisyExamples/libDaisy/src/per/gpio.h"
   1:/Users/reza.kalfane/Workspaces/Daisy/DaisyExamples/libDaisy/src/per/gpio.h **** #pragma once
   2:/Users/reza.kalfane/Workspaces/Daisy/DaisyExamples/libDaisy/src/per/gpio.h **** #ifndef DSY_GPIO_H
   3:/Users/reza.kalfane/Workspaces/Daisy/DaisyExamples/libDaisy/src/per/gpio.h **** #define DSY_GPIO_H
   4:/Users/reza.kalfane/Workspaces/Daisy/DaisyExamples/libDaisy/src/per/gpio.h **** #include "daisy_core.h"
   5:/Users/reza.kalfane/Workspaces/Daisy/DaisyExamples/libDaisy/src/per/gpio.h **** 
   6:/Users/reza.kalfane/Workspaces/Daisy/DaisyExamples/libDaisy/src/per/gpio.h **** #ifdef __cplusplus
ARM GAS  /tmp/claude-502/ccry90Vn.s 			page 297


   7:/Users/reza.kalfane/Workspaces/Daisy/DaisyExamples/libDaisy/src/per/gpio.h **** 
   8:/Users/reza.kalfane/Workspaces/Daisy/DaisyExamples/libDaisy/src/per/gpio.h **** namespace daisy
   9:/Users/reza.kalfane/Workspaces/Daisy/DaisyExamples/libDaisy/src/per/gpio.h **** {
  10:/Users/reza.kalfane/Workspaces/Daisy/DaisyExamples/libDaisy/src/per/gpio.h **** /** @brief General Purpose I/O control 
  11:/Users/reza.kalfane/Workspaces/Daisy/DaisyExamples/libDaisy/src/per/gpio.h ****  *  @details peripheral control over a single GPIO
  12:/Users/reza.kalfane/Workspaces/Daisy/DaisyExamples/libDaisy/src/per/gpio.h ****  *  @ingroup peripheral
  13:/Users/reza.kalfane/Workspaces/Daisy/DaisyExamples/libDaisy/src/per/gpio.h ****  *   
  14:/Users/reza.kalfane/Workspaces/Daisy/DaisyExamples/libDaisy/src/per/gpio.h ****  *  Button Input (with internal Pullup resistor)
  15:/Users/reza.kalfane/Workspaces/Daisy/DaisyExamples/libDaisy/src/per/gpio.h ****  *  @include GPIO_Input.cpp 
  16:/Users/reza.kalfane/Workspaces/Daisy/DaisyExamples/libDaisy/src/per/gpio.h ****  * 
  17:/Users/reza.kalfane/Workspaces/Daisy/DaisyExamples/libDaisy/src/per/gpio.h ****  *  Output Example (perfect for blinking an LED)
  18:/Users/reza.kalfane/Workspaces/Daisy/DaisyExamples/libDaisy/src/per/gpio.h ****  *  @include GPIO_Output.cpp
  19:/Users/reza.kalfane/Workspaces/Daisy/DaisyExamples/libDaisy/src/per/gpio.h ****  * 
  20:/Users/reza.kalfane/Workspaces/Daisy/DaisyExamples/libDaisy/src/per/gpio.h **** */
  21:/Users/reza.kalfane/Workspaces/Daisy/DaisyExamples/libDaisy/src/per/gpio.h **** class GPIO
  22:/Users/reza.kalfane/Workspaces/Daisy/DaisyExamples/libDaisy/src/per/gpio.h **** {
  23:/Users/reza.kalfane/Workspaces/Daisy/DaisyExamples/libDaisy/src/per/gpio.h ****   public:
  24:/Users/reza.kalfane/Workspaces/Daisy/DaisyExamples/libDaisy/src/per/gpio.h ****     /** @brief Mode of operation for the specified GPIO */
  25:/Users/reza.kalfane/Workspaces/Daisy/DaisyExamples/libDaisy/src/per/gpio.h ****     enum class Mode
  26:/Users/reza.kalfane/Workspaces/Daisy/DaisyExamples/libDaisy/src/per/gpio.h ****     {
  27:/Users/reza.kalfane/Workspaces/Daisy/DaisyExamples/libDaisy/src/per/gpio.h ****         INPUT,     /**< Input for reading state of pin */
  28:/Users/reza.kalfane/Workspaces/Daisy/DaisyExamples/libDaisy/src/per/gpio.h ****         OUTPUT,    /**< Output w/ push-pull configuration */
  29:/Users/reza.kalfane/Workspaces/Daisy/DaisyExamples/libDaisy/src/per/gpio.h ****         OUTPUT_OD, /**< Output w/ open-drain configuration */
  30:/Users/reza.kalfane/Workspaces/Daisy/DaisyExamples/libDaisy/src/per/gpio.h ****         ANALOG,    /**< Analog for connection to ADC or DAC peripheral */
  31:/Users/reza.kalfane/Workspaces/Daisy/DaisyExamples/libDaisy/src/per/gpio.h ****     };
  32:/Users/reza.kalfane/Workspaces/Daisy/DaisyExamples/libDaisy/src/per/gpio.h **** 
  33:/Users/reza.kalfane/Workspaces/Daisy/DaisyExamples/libDaisy/src/per/gpio.h ****     /** @brief Configures whether an internal Pull up or Pull down resistor is used. 
  34:/Users/reza.kalfane/Workspaces/Daisy/DaisyExamples/libDaisy/src/per/gpio.h ****      *  
  35:/Users/reza.kalfane/Workspaces/Daisy/DaisyExamples/libDaisy/src/per/gpio.h ****      * Internal Pull up/down resistors are typically 40k ohms, and will be between
  36:/Users/reza.kalfane/Workspaces/Daisy/DaisyExamples/libDaisy/src/per/gpio.h ****      * 30k and 50k
  37:/Users/reza.kalfane/Workspaces/Daisy/DaisyExamples/libDaisy/src/per/gpio.h ****      * 
  38:/Users/reza.kalfane/Workspaces/Daisy/DaisyExamples/libDaisy/src/per/gpio.h ****      * When the Pin is configured in Analog mode, the pull up/down resistors are
  39:/Users/reza.kalfane/Workspaces/Daisy/DaisyExamples/libDaisy/src/per/gpio.h ****      * disabled by hardware. 
  40:/Users/reza.kalfane/Workspaces/Daisy/DaisyExamples/libDaisy/src/per/gpio.h ****      */
  41:/Users/reza.kalfane/Workspaces/Daisy/DaisyExamples/libDaisy/src/per/gpio.h ****     enum class Pull
  42:/Users/reza.kalfane/Workspaces/Daisy/DaisyExamples/libDaisy/src/per/gpio.h ****     {
  43:/Users/reza.kalfane/Workspaces/Daisy/DaisyExamples/libDaisy/src/per/gpio.h ****         NOPULL,   /**< No pull up resistor */
  44:/Users/reza.kalfane/Workspaces/Daisy/DaisyExamples/libDaisy/src/per/gpio.h ****         PULLUP,   /**< Internal pull up enabled */
  45:/Users/reza.kalfane/Workspaces/Daisy/DaisyExamples/libDaisy/src/per/gpio.h ****         PULLDOWN, /**< Internal pull down enabled*/
  46:/Users/reza.kalfane/Workspaces/Daisy/DaisyExamples/libDaisy/src/per/gpio.h ****     };
  47:/Users/reza.kalfane/Workspaces/Daisy/DaisyExamples/libDaisy/src/per/gpio.h **** 
  48:/Users/reza.kalfane/Workspaces/Daisy/DaisyExamples/libDaisy/src/per/gpio.h ****     /** @brief Output speed controls the drive strength, and slew rate of the pin */
  49:/Users/reza.kalfane/Workspaces/Daisy/DaisyExamples/libDaisy/src/per/gpio.h ****     enum class Speed
  50:/Users/reza.kalfane/Workspaces/Daisy/DaisyExamples/libDaisy/src/per/gpio.h ****     {
  51:/Users/reza.kalfane/Workspaces/Daisy/DaisyExamples/libDaisy/src/per/gpio.h ****         LOW,
  52:/Users/reza.kalfane/Workspaces/Daisy/DaisyExamples/libDaisy/src/per/gpio.h ****         MEDIUM,
  53:/Users/reza.kalfane/Workspaces/Daisy/DaisyExamples/libDaisy/src/per/gpio.h ****         HIGH,
  54:/Users/reza.kalfane/Workspaces/Daisy/DaisyExamples/libDaisy/src/per/gpio.h ****         VERY_HIGH,
  55:/Users/reza.kalfane/Workspaces/Daisy/DaisyExamples/libDaisy/src/per/gpio.h ****     };
  56:/Users/reza.kalfane/Workspaces/Daisy/DaisyExamples/libDaisy/src/per/gpio.h **** 
  57:/Users/reza.kalfane/Workspaces/Daisy/DaisyExamples/libDaisy/src/per/gpio.h ****     /** @brief Configuration for a given GPIO */
  58:/Users/reza.kalfane/Workspaces/Daisy/DaisyExamples/libDaisy/src/per/gpio.h ****     struct Config
  59:/Users/reza.kalfane/Workspaces/Daisy/DaisyExamples/libDaisy/src/per/gpio.h ****     {
  60:/Users/reza.kalfane/Workspaces/Daisy/DaisyExamples/libDaisy/src/per/gpio.h ****         Pin   pin;
  61:/Users/reza.kalfane/Workspaces/Daisy/DaisyExamples/libDaisy/src/per/gpio.h ****         Mode  mode;
  62:/Users/reza.kalfane/Workspaces/Daisy/DaisyExamples/libDaisy/src/per/gpio.h ****         Pull  pull;
  63:/Users/reza.kalfane/Workspaces/Daisy/DaisyExamples/libDaisy/src/per/gpio.h ****         Speed speed;
ARM GAS  /tmp/claude-502/ccry90Vn.s 			page 298


  64:/Users/reza.kalfane/Workspaces/Daisy/DaisyExamples/libDaisy/src/per/gpio.h **** 
  65:/Users/reza.kalfane/Workspaces/Daisy/DaisyExamples/libDaisy/src/per/gpio.h ****         /** Constructor with no arguments will prepare an invalid GPIO set as
  66:/Users/reza.kalfane/Workspaces/Daisy/DaisyExamples/libDaisy/src/per/gpio.h ****          *  an input, with no pullup. 
  67:/Users/reza.kalfane/Workspaces/Daisy/DaisyExamples/libDaisy/src/per/gpio.h ****          */
  68:/Users/reza.kalfane/Workspaces/Daisy/DaisyExamples/libDaisy/src/per/gpio.h ****         Config()
  69:/Users/reza.kalfane/Workspaces/Daisy/DaisyExamples/libDaisy/src/per/gpio.h ****         : pin(), mode(Mode::INPUT), pull(Pull::NOPULL), speed(Speed::LOW)
  70:/Users/reza.kalfane/Workspaces/Daisy/DaisyExamples/libDaisy/src/per/gpio.h ****         {
  71:/Users/reza.kalfane/Workspaces/Daisy/DaisyExamples/libDaisy/src/per/gpio.h ****         }
  72:/Users/reza.kalfane/Workspaces/Daisy/DaisyExamples/libDaisy/src/per/gpio.h ****     };
  73:/Users/reza.kalfane/Workspaces/Daisy/DaisyExamples/libDaisy/src/per/gpio.h **** 
  74:/Users/reza.kalfane/Workspaces/Daisy/DaisyExamples/libDaisy/src/per/gpio.h ****     GPIO() {}
 11425              		.loc 10 74 5 is_stmt 1 view .LVU3409
 11426              	.LBB1884:
 11427              	.LBB1885:
 11428              	.LBI1885:
  68:/Users/reza.kalfane/Workspaces/Daisy/DaisyExamples/libDaisy/src/per/gpio.h ****         : pin(), mode(Mode::INPUT), pull(Pull::NOPULL), speed(Speed::LOW)
 11429              		.loc 10 68 9 view .LVU3410
 11430              	.LBB1886:
 11431              	.LBB1887:
 11432              	.LBB1888:
 11433              	.LBI1888:
 11434              		.file 11 "/Users/reza.kalfane/Workspaces/Daisy/DaisyExamples/libDaisy/src/daisy_core.h"
   1:/Users/reza.kalfane/Workspaces/Daisy/DaisyExamples/libDaisy/src/daisy_core.h **** #pragma once
   2:/Users/reza.kalfane/Workspaces/Daisy/DaisyExamples/libDaisy/src/daisy_core.h **** #ifndef DSY_CORE_HW_H
   3:/Users/reza.kalfane/Workspaces/Daisy/DaisyExamples/libDaisy/src/daisy_core.h **** #define DSY_CORE_HW_H /**< & */
   4:/Users/reza.kalfane/Workspaces/Daisy/DaisyExamples/libDaisy/src/daisy_core.h **** #include <stdint.h>
   5:/Users/reza.kalfane/Workspaces/Daisy/DaisyExamples/libDaisy/src/daisy_core.h **** #include <stdlib.h>
   6:/Users/reza.kalfane/Workspaces/Daisy/DaisyExamples/libDaisy/src/daisy_core.h **** 
   7:/Users/reza.kalfane/Workspaces/Daisy/DaisyExamples/libDaisy/src/daisy_core.h **** #if defined(_MSC_VER)
   8:/Users/reza.kalfane/Workspaces/Daisy/DaisyExamples/libDaisy/src/daisy_core.h **** #define FORCE_INLINE __forceinline /**< & */
   9:/Users/reza.kalfane/Workspaces/Daisy/DaisyExamples/libDaisy/src/daisy_core.h **** #elif defined(__clang__)
  10:/Users/reza.kalfane/Workspaces/Daisy/DaisyExamples/libDaisy/src/daisy_core.h **** #define FORCE_INLINE inline __attribute__((always_inline)) /**< & */
  11:/Users/reza.kalfane/Workspaces/Daisy/DaisyExamples/libDaisy/src/daisy_core.h **** #pragma clang diagnostic ignored "-Wduplicate-decl-specifier"
  12:/Users/reza.kalfane/Workspaces/Daisy/DaisyExamples/libDaisy/src/daisy_core.h **** #elif defined(__GNUC__)
  13:/Users/reza.kalfane/Workspaces/Daisy/DaisyExamples/libDaisy/src/daisy_core.h **** #define FORCE_INLINE inline __attribute__((always_inline)) /**< & */
  14:/Users/reza.kalfane/Workspaces/Daisy/DaisyExamples/libDaisy/src/daisy_core.h **** #else
  15:/Users/reza.kalfane/Workspaces/Daisy/DaisyExamples/libDaisy/src/daisy_core.h **** #error unknown compiler
  16:/Users/reza.kalfane/Workspaces/Daisy/DaisyExamples/libDaisy/src/daisy_core.h **** #endif
  17:/Users/reza.kalfane/Workspaces/Daisy/DaisyExamples/libDaisy/src/daisy_core.h **** 
  18:/Users/reza.kalfane/Workspaces/Daisy/DaisyExamples/libDaisy/src/daisy_core.h **** /** @addtogroup utility
  19:/Users/reza.kalfane/Workspaces/Daisy/DaisyExamples/libDaisy/src/daisy_core.h ****     @{
  20:/Users/reza.kalfane/Workspaces/Daisy/DaisyExamples/libDaisy/src/daisy_core.h **** */
  21:/Users/reza.kalfane/Workspaces/Daisy/DaisyExamples/libDaisy/src/daisy_core.h **** 
  22:/Users/reza.kalfane/Workspaces/Daisy/DaisyExamples/libDaisy/src/daisy_core.h **** /** Macro for area of memory that is configured as cacheless
  23:/Users/reza.kalfane/Workspaces/Daisy/DaisyExamples/libDaisy/src/daisy_core.h **** This should be used primarily for DMA buffers, and the like.
  24:/Users/reza.kalfane/Workspaces/Daisy/DaisyExamples/libDaisy/src/daisy_core.h **** */
  25:/Users/reza.kalfane/Workspaces/Daisy/DaisyExamples/libDaisy/src/daisy_core.h **** #define DMA_BUFFER_MEM_SECTION __attribute__((section(".sram1_bss")))
  26:/Users/reza.kalfane/Workspaces/Daisy/DaisyExamples/libDaisy/src/daisy_core.h **** /** 
  27:/Users/reza.kalfane/Workspaces/Daisy/DaisyExamples/libDaisy/src/daisy_core.h **** THE DTCM RAM section is also non-cached. However, is not suitable 
  28:/Users/reza.kalfane/Workspaces/Daisy/DaisyExamples/libDaisy/src/daisy_core.h **** for DMA transfers. Performance is on par with internal SRAM w/ 
  29:/Users/reza.kalfane/Workspaces/Daisy/DaisyExamples/libDaisy/src/daisy_core.h **** cache enabled.
  30:/Users/reza.kalfane/Workspaces/Daisy/DaisyExamples/libDaisy/src/daisy_core.h **** */
  31:/Users/reza.kalfane/Workspaces/Daisy/DaisyExamples/libDaisy/src/daisy_core.h **** #define DTCM_MEM_SECTION __attribute__((section(".dtcmram_bss")))
  32:/Users/reza.kalfane/Workspaces/Daisy/DaisyExamples/libDaisy/src/daisy_core.h **** 
  33:/Users/reza.kalfane/Workspaces/Daisy/DaisyExamples/libDaisy/src/daisy_core.h **** #define FBIPMAX 0.999985f             /**< close to 1.0f-LSB at 16 bit */
  34:/Users/reza.kalfane/Workspaces/Daisy/DaisyExamples/libDaisy/src/daisy_core.h **** #define FBIPMIN (-FBIPMAX)            /**< - (1 - LSB) */
  35:/Users/reza.kalfane/Workspaces/Daisy/DaisyExamples/libDaisy/src/daisy_core.h **** #define U82F_SCALE 0.0078740f         /**< 1 / 127 */
ARM GAS  /tmp/claude-502/ccry90Vn.s 			page 299


  36:/Users/reza.kalfane/Workspaces/Daisy/DaisyExamples/libDaisy/src/daisy_core.h **** #define F2U8_SCALE 127.0f             /**< 128 - 1 */
  37:/Users/reza.kalfane/Workspaces/Daisy/DaisyExamples/libDaisy/src/daisy_core.h **** #define S82F_SCALE 0.0078125f         /**< 1 / (2**7) */
  38:/Users/reza.kalfane/Workspaces/Daisy/DaisyExamples/libDaisy/src/daisy_core.h **** #define F2S8_SCALE 127.0f             /**< (2 ** 7) - 1 */
  39:/Users/reza.kalfane/Workspaces/Daisy/DaisyExamples/libDaisy/src/daisy_core.h **** #define S162F_SCALE 3.0517578125e-05f /**< 1 / (2** 15) */
  40:/Users/reza.kalfane/Workspaces/Daisy/DaisyExamples/libDaisy/src/daisy_core.h **** #define F2S16_SCALE 32767.0f          /**< (2 ** 15) - 1 */
  41:/Users/reza.kalfane/Workspaces/Daisy/DaisyExamples/libDaisy/src/daisy_core.h **** #define F2S24_SCALE 8388608.0f        /**< 2 ** 23 */
  42:/Users/reza.kalfane/Workspaces/Daisy/DaisyExamples/libDaisy/src/daisy_core.h **** #define S242F_SCALE 1.192092896e-07f  /**< 1 / (2 ** 23) */
  43:/Users/reza.kalfane/Workspaces/Daisy/DaisyExamples/libDaisy/src/daisy_core.h **** #define S24SIGN 0x800000              /**< 2 ** 23 */
  44:/Users/reza.kalfane/Workspaces/Daisy/DaisyExamples/libDaisy/src/daisy_core.h **** #define S322F_SCALE 4.6566129e-10f    /**< 1 / (2** 31) */
  45:/Users/reza.kalfane/Workspaces/Daisy/DaisyExamples/libDaisy/src/daisy_core.h **** #define F2S32_SCALE 2147483647.f      /**< (2 ** 31) - 1 */
  46:/Users/reza.kalfane/Workspaces/Daisy/DaisyExamples/libDaisy/src/daisy_core.h **** 
  47:/Users/reza.kalfane/Workspaces/Daisy/DaisyExamples/libDaisy/src/daisy_core.h **** 
  48:/Users/reza.kalfane/Workspaces/Daisy/DaisyExamples/libDaisy/src/daisy_core.h **** /** shorthand macro for simplifying the reading of the left 
  49:/Users/reza.kalfane/Workspaces/Daisy/DaisyExamples/libDaisy/src/daisy_core.h ****  *  channel of a non-interleaved output buffer named out */
  50:/Users/reza.kalfane/Workspaces/Daisy/DaisyExamples/libDaisy/src/daisy_core.h **** #define OUT_L out[0]
  51:/Users/reza.kalfane/Workspaces/Daisy/DaisyExamples/libDaisy/src/daisy_core.h **** 
  52:/Users/reza.kalfane/Workspaces/Daisy/DaisyExamples/libDaisy/src/daisy_core.h **** /** shorthand macro for simplifying the reading of the right 
  53:/Users/reza.kalfane/Workspaces/Daisy/DaisyExamples/libDaisy/src/daisy_core.h ****  *  channel of a non-interleaved output buffer named out */
  54:/Users/reza.kalfane/Workspaces/Daisy/DaisyExamples/libDaisy/src/daisy_core.h **** #define OUT_R out[1]
  55:/Users/reza.kalfane/Workspaces/Daisy/DaisyExamples/libDaisy/src/daisy_core.h **** 
  56:/Users/reza.kalfane/Workspaces/Daisy/DaisyExamples/libDaisy/src/daisy_core.h **** /** shorthand macro for simplifying the reading of the left 
  57:/Users/reza.kalfane/Workspaces/Daisy/DaisyExamples/libDaisy/src/daisy_core.h ****  *  channel of a non-interleaved input buffer named in */
  58:/Users/reza.kalfane/Workspaces/Daisy/DaisyExamples/libDaisy/src/daisy_core.h **** #define IN_L in[0]
  59:/Users/reza.kalfane/Workspaces/Daisy/DaisyExamples/libDaisy/src/daisy_core.h **** 
  60:/Users/reza.kalfane/Workspaces/Daisy/DaisyExamples/libDaisy/src/daisy_core.h **** /** shorthand macro for simplifying the reading of the right 
  61:/Users/reza.kalfane/Workspaces/Daisy/DaisyExamples/libDaisy/src/daisy_core.h ****  *  channel of a non-interleaved input buffer named in */
  62:/Users/reza.kalfane/Workspaces/Daisy/DaisyExamples/libDaisy/src/daisy_core.h **** #define IN_R in[1]
  63:/Users/reza.kalfane/Workspaces/Daisy/DaisyExamples/libDaisy/src/daisy_core.h **** 
  64:/Users/reza.kalfane/Workspaces/Daisy/DaisyExamples/libDaisy/src/daisy_core.h **** /** 
  65:/Users/reza.kalfane/Workspaces/Daisy/DaisyExamples/libDaisy/src/daisy_core.h ****     Computes cube.
  66:/Users/reza.kalfane/Workspaces/Daisy/DaisyExamples/libDaisy/src/daisy_core.h ****     \param x Number to be cubed
  67:/Users/reza.kalfane/Workspaces/Daisy/DaisyExamples/libDaisy/src/daisy_core.h ****     \return x ^ 3
  68:/Users/reza.kalfane/Workspaces/Daisy/DaisyExamples/libDaisy/src/daisy_core.h **** */
  69:/Users/reza.kalfane/Workspaces/Daisy/DaisyExamples/libDaisy/src/daisy_core.h **** FORCE_INLINE float cube(float x)
  70:/Users/reza.kalfane/Workspaces/Daisy/DaisyExamples/libDaisy/src/daisy_core.h **** {
  71:/Users/reza.kalfane/Workspaces/Daisy/DaisyExamples/libDaisy/src/daisy_core.h ****     return (x * x) * x;
  72:/Users/reza.kalfane/Workspaces/Daisy/DaisyExamples/libDaisy/src/daisy_core.h **** }
  73:/Users/reza.kalfane/Workspaces/Daisy/DaisyExamples/libDaisy/src/daisy_core.h **** 
  74:/Users/reza.kalfane/Workspaces/Daisy/DaisyExamples/libDaisy/src/daisy_core.h **** /** 
  75:/Users/reza.kalfane/Workspaces/Daisy/DaisyExamples/libDaisy/src/daisy_core.h ****     Converts unsigned 8-bit to float
  76:/Users/reza.kalfane/Workspaces/Daisy/DaisyExamples/libDaisy/src/daisy_core.h ****     \param x Number to be scaled.
  77:/Users/reza.kalfane/Workspaces/Daisy/DaisyExamples/libDaisy/src/daisy_core.h ****     \return Scaled number.
  78:/Users/reza.kalfane/Workspaces/Daisy/DaisyExamples/libDaisy/src/daisy_core.h **** */
  79:/Users/reza.kalfane/Workspaces/Daisy/DaisyExamples/libDaisy/src/daisy_core.h **** FORCE_INLINE float u82f(uint8_t x)
  80:/Users/reza.kalfane/Workspaces/Daisy/DaisyExamples/libDaisy/src/daisy_core.h **** {
  81:/Users/reza.kalfane/Workspaces/Daisy/DaisyExamples/libDaisy/src/daisy_core.h ****     return ((float)x - 127.f) * U82F_SCALE;
  82:/Users/reza.kalfane/Workspaces/Daisy/DaisyExamples/libDaisy/src/daisy_core.h **** }
  83:/Users/reza.kalfane/Workspaces/Daisy/DaisyExamples/libDaisy/src/daisy_core.h **** 
  84:/Users/reza.kalfane/Workspaces/Daisy/DaisyExamples/libDaisy/src/daisy_core.h **** /**
  85:/Users/reza.kalfane/Workspaces/Daisy/DaisyExamples/libDaisy/src/daisy_core.h ****     Converts float to unsigned 8-bit
  86:/Users/reza.kalfane/Workspaces/Daisy/DaisyExamples/libDaisy/src/daisy_core.h **** */
  87:/Users/reza.kalfane/Workspaces/Daisy/DaisyExamples/libDaisy/src/daisy_core.h **** FORCE_INLINE uint8_t f2u8(float x)
  88:/Users/reza.kalfane/Workspaces/Daisy/DaisyExamples/libDaisy/src/daisy_core.h **** {
  89:/Users/reza.kalfane/Workspaces/Daisy/DaisyExamples/libDaisy/src/daisy_core.h ****     x = x <= FBIPMIN ? FBIPMIN : x;
  90:/Users/reza.kalfane/Workspaces/Daisy/DaisyExamples/libDaisy/src/daisy_core.h ****     x = x >= FBIPMAX ? FBIPMAX : x;
  91:/Users/reza.kalfane/Workspaces/Daisy/DaisyExamples/libDaisy/src/daisy_core.h ****     return (uint8_t)((x * F2U8_SCALE) + F2U8_SCALE);
  92:/Users/reza.kalfane/Workspaces/Daisy/DaisyExamples/libDaisy/src/daisy_core.h **** }
ARM GAS  /tmp/claude-502/ccry90Vn.s 			page 300


  93:/Users/reza.kalfane/Workspaces/Daisy/DaisyExamples/libDaisy/src/daisy_core.h **** 
  94:/Users/reza.kalfane/Workspaces/Daisy/DaisyExamples/libDaisy/src/daisy_core.h **** 
  95:/Users/reza.kalfane/Workspaces/Daisy/DaisyExamples/libDaisy/src/daisy_core.h **** /** 
  96:/Users/reza.kalfane/Workspaces/Daisy/DaisyExamples/libDaisy/src/daisy_core.h ****     Converts Signed 8-bit to float
  97:/Users/reza.kalfane/Workspaces/Daisy/DaisyExamples/libDaisy/src/daisy_core.h ****     \param x Number to be scaled.
  98:/Users/reza.kalfane/Workspaces/Daisy/DaisyExamples/libDaisy/src/daisy_core.h ****     \return Scaled number.
  99:/Users/reza.kalfane/Workspaces/Daisy/DaisyExamples/libDaisy/src/daisy_core.h **** */
 100:/Users/reza.kalfane/Workspaces/Daisy/DaisyExamples/libDaisy/src/daisy_core.h **** FORCE_INLINE float s82f(int8_t x)
 101:/Users/reza.kalfane/Workspaces/Daisy/DaisyExamples/libDaisy/src/daisy_core.h **** {
 102:/Users/reza.kalfane/Workspaces/Daisy/DaisyExamples/libDaisy/src/daisy_core.h ****     return (float)x * S82F_SCALE;
 103:/Users/reza.kalfane/Workspaces/Daisy/DaisyExamples/libDaisy/src/daisy_core.h **** }
 104:/Users/reza.kalfane/Workspaces/Daisy/DaisyExamples/libDaisy/src/daisy_core.h **** 
 105:/Users/reza.kalfane/Workspaces/Daisy/DaisyExamples/libDaisy/src/daisy_core.h **** /**
 106:/Users/reza.kalfane/Workspaces/Daisy/DaisyExamples/libDaisy/src/daisy_core.h ****     Converts float to Signed 8-bit
 107:/Users/reza.kalfane/Workspaces/Daisy/DaisyExamples/libDaisy/src/daisy_core.h **** */
 108:/Users/reza.kalfane/Workspaces/Daisy/DaisyExamples/libDaisy/src/daisy_core.h **** FORCE_INLINE int8_t f2s8(float x)
 109:/Users/reza.kalfane/Workspaces/Daisy/DaisyExamples/libDaisy/src/daisy_core.h **** {
 110:/Users/reza.kalfane/Workspaces/Daisy/DaisyExamples/libDaisy/src/daisy_core.h ****     x = x <= FBIPMIN ? FBIPMIN : x;
 111:/Users/reza.kalfane/Workspaces/Daisy/DaisyExamples/libDaisy/src/daisy_core.h ****     x = x >= FBIPMAX ? FBIPMAX : x;
 112:/Users/reza.kalfane/Workspaces/Daisy/DaisyExamples/libDaisy/src/daisy_core.h ****     return (int32_t)(x * F2S8_SCALE);
 113:/Users/reza.kalfane/Workspaces/Daisy/DaisyExamples/libDaisy/src/daisy_core.h **** }
 114:/Users/reza.kalfane/Workspaces/Daisy/DaisyExamples/libDaisy/src/daisy_core.h **** 
 115:/Users/reza.kalfane/Workspaces/Daisy/DaisyExamples/libDaisy/src/daisy_core.h **** /** 
 116:/Users/reza.kalfane/Workspaces/Daisy/DaisyExamples/libDaisy/src/daisy_core.h ****     Converts Signed 16-bit to float
 117:/Users/reza.kalfane/Workspaces/Daisy/DaisyExamples/libDaisy/src/daisy_core.h ****     \param x Number to be scaled.
 118:/Users/reza.kalfane/Workspaces/Daisy/DaisyExamples/libDaisy/src/daisy_core.h ****     \return Scaled number.
 119:/Users/reza.kalfane/Workspaces/Daisy/DaisyExamples/libDaisy/src/daisy_core.h **** */
 120:/Users/reza.kalfane/Workspaces/Daisy/DaisyExamples/libDaisy/src/daisy_core.h **** FORCE_INLINE float s162f(int16_t x)
 121:/Users/reza.kalfane/Workspaces/Daisy/DaisyExamples/libDaisy/src/daisy_core.h **** {
 122:/Users/reza.kalfane/Workspaces/Daisy/DaisyExamples/libDaisy/src/daisy_core.h ****     return (float)x * S162F_SCALE;
 123:/Users/reza.kalfane/Workspaces/Daisy/DaisyExamples/libDaisy/src/daisy_core.h **** }
 124:/Users/reza.kalfane/Workspaces/Daisy/DaisyExamples/libDaisy/src/daisy_core.h **** 
 125:/Users/reza.kalfane/Workspaces/Daisy/DaisyExamples/libDaisy/src/daisy_core.h **** /**
 126:/Users/reza.kalfane/Workspaces/Daisy/DaisyExamples/libDaisy/src/daisy_core.h ****     Converts float to Signed 16-bit
 127:/Users/reza.kalfane/Workspaces/Daisy/DaisyExamples/libDaisy/src/daisy_core.h **** */
 128:/Users/reza.kalfane/Workspaces/Daisy/DaisyExamples/libDaisy/src/daisy_core.h **** FORCE_INLINE int16_t f2s16(float x)
 129:/Users/reza.kalfane/Workspaces/Daisy/DaisyExamples/libDaisy/src/daisy_core.h **** {
 130:/Users/reza.kalfane/Workspaces/Daisy/DaisyExamples/libDaisy/src/daisy_core.h ****     x = x <= FBIPMIN ? FBIPMIN : x;
 131:/Users/reza.kalfane/Workspaces/Daisy/DaisyExamples/libDaisy/src/daisy_core.h ****     x = x >= FBIPMAX ? FBIPMAX : x;
 132:/Users/reza.kalfane/Workspaces/Daisy/DaisyExamples/libDaisy/src/daisy_core.h ****     return (int32_t)(x * F2S16_SCALE);
 133:/Users/reza.kalfane/Workspaces/Daisy/DaisyExamples/libDaisy/src/daisy_core.h **** }
 134:/Users/reza.kalfane/Workspaces/Daisy/DaisyExamples/libDaisy/src/daisy_core.h **** 
 135:/Users/reza.kalfane/Workspaces/Daisy/DaisyExamples/libDaisy/src/daisy_core.h **** /**
 136:/Users/reza.kalfane/Workspaces/Daisy/DaisyExamples/libDaisy/src/daisy_core.h ****     Converts Signed 24-bit to float
 137:/Users/reza.kalfane/Workspaces/Daisy/DaisyExamples/libDaisy/src/daisy_core.h ****  */
 138:/Users/reza.kalfane/Workspaces/Daisy/DaisyExamples/libDaisy/src/daisy_core.h **** FORCE_INLINE float s242f(int32_t x)
 139:/Users/reza.kalfane/Workspaces/Daisy/DaisyExamples/libDaisy/src/daisy_core.h **** {
 140:/Users/reza.kalfane/Workspaces/Daisy/DaisyExamples/libDaisy/src/daisy_core.h ****     x = (x ^ S24SIGN) - S24SIGN; //sign extend aka ((x<<8)>>8)
 141:/Users/reza.kalfane/Workspaces/Daisy/DaisyExamples/libDaisy/src/daisy_core.h ****     return (float)x * S242F_SCALE;
 142:/Users/reza.kalfane/Workspaces/Daisy/DaisyExamples/libDaisy/src/daisy_core.h **** }
 143:/Users/reza.kalfane/Workspaces/Daisy/DaisyExamples/libDaisy/src/daisy_core.h **** /**
 144:/Users/reza.kalfane/Workspaces/Daisy/DaisyExamples/libDaisy/src/daisy_core.h ****     Converts float to Signed 24-bit
 145:/Users/reza.kalfane/Workspaces/Daisy/DaisyExamples/libDaisy/src/daisy_core.h ****  */
 146:/Users/reza.kalfane/Workspaces/Daisy/DaisyExamples/libDaisy/src/daisy_core.h **** FORCE_INLINE int32_t f2s24(float x)
 147:/Users/reza.kalfane/Workspaces/Daisy/DaisyExamples/libDaisy/src/daisy_core.h **** {
 148:/Users/reza.kalfane/Workspaces/Daisy/DaisyExamples/libDaisy/src/daisy_core.h ****     x = x <= FBIPMIN ? FBIPMIN : x;
 149:/Users/reza.kalfane/Workspaces/Daisy/DaisyExamples/libDaisy/src/daisy_core.h ****     x = x >= FBIPMAX ? FBIPMAX : x;
ARM GAS  /tmp/claude-502/ccry90Vn.s 			page 301


 150:/Users/reza.kalfane/Workspaces/Daisy/DaisyExamples/libDaisy/src/daisy_core.h ****     return (int32_t)(x * F2S24_SCALE);
 151:/Users/reza.kalfane/Workspaces/Daisy/DaisyExamples/libDaisy/src/daisy_core.h **** }
 152:/Users/reza.kalfane/Workspaces/Daisy/DaisyExamples/libDaisy/src/daisy_core.h **** 
 153:/Users/reza.kalfane/Workspaces/Daisy/DaisyExamples/libDaisy/src/daisy_core.h **** /**
 154:/Users/reza.kalfane/Workspaces/Daisy/DaisyExamples/libDaisy/src/daisy_core.h ****     Converts Signed 32-bit to float
 155:/Users/reza.kalfane/Workspaces/Daisy/DaisyExamples/libDaisy/src/daisy_core.h ****  */
 156:/Users/reza.kalfane/Workspaces/Daisy/DaisyExamples/libDaisy/src/daisy_core.h **** FORCE_INLINE float s322f(int32_t x)
 157:/Users/reza.kalfane/Workspaces/Daisy/DaisyExamples/libDaisy/src/daisy_core.h **** {
 158:/Users/reza.kalfane/Workspaces/Daisy/DaisyExamples/libDaisy/src/daisy_core.h ****     return (float)x * S322F_SCALE;
 159:/Users/reza.kalfane/Workspaces/Daisy/DaisyExamples/libDaisy/src/daisy_core.h **** }
 160:/Users/reza.kalfane/Workspaces/Daisy/DaisyExamples/libDaisy/src/daisy_core.h **** /**
 161:/Users/reza.kalfane/Workspaces/Daisy/DaisyExamples/libDaisy/src/daisy_core.h ****     Converts float to Signed 24-bit
 162:/Users/reza.kalfane/Workspaces/Daisy/DaisyExamples/libDaisy/src/daisy_core.h ****  */
 163:/Users/reza.kalfane/Workspaces/Daisy/DaisyExamples/libDaisy/src/daisy_core.h **** FORCE_INLINE int32_t f2s32(float x)
 164:/Users/reza.kalfane/Workspaces/Daisy/DaisyExamples/libDaisy/src/daisy_core.h **** {
 165:/Users/reza.kalfane/Workspaces/Daisy/DaisyExamples/libDaisy/src/daisy_core.h ****     x = x <= FBIPMIN ? FBIPMIN : x;
 166:/Users/reza.kalfane/Workspaces/Daisy/DaisyExamples/libDaisy/src/daisy_core.h ****     x = x >= FBIPMAX ? FBIPMAX : x;
 167:/Users/reza.kalfane/Workspaces/Daisy/DaisyExamples/libDaisy/src/daisy_core.h ****     return (int32_t)(x * F2S32_SCALE);
 168:/Users/reza.kalfane/Workspaces/Daisy/DaisyExamples/libDaisy/src/daisy_core.h **** }
 169:/Users/reza.kalfane/Workspaces/Daisy/DaisyExamples/libDaisy/src/daisy_core.h **** 
 170:/Users/reza.kalfane/Workspaces/Daisy/DaisyExamples/libDaisy/src/daisy_core.h **** 
 171:/Users/reza.kalfane/Workspaces/Daisy/DaisyExamples/libDaisy/src/daisy_core.h **** /** Enums and a simple struct for defining a hardware pin on the MCU
 172:/Users/reza.kalfane/Workspaces/Daisy/DaisyExamples/libDaisy/src/daisy_core.h ****  *  These correlate with the stm32 datasheet, and are used to configure
 173:/Users/reza.kalfane/Workspaces/Daisy/DaisyExamples/libDaisy/src/daisy_core.h ****  *  the hardware.
 174:/Users/reza.kalfane/Workspaces/Daisy/DaisyExamples/libDaisy/src/daisy_core.h ****  * 
 175:/Users/reza.kalfane/Workspaces/Daisy/DaisyExamples/libDaisy/src/daisy_core.h ****  *  This along with the dsy_gpio_pin class should no longer be used.
 176:/Users/reza.kalfane/Workspaces/Daisy/DaisyExamples/libDaisy/src/daisy_core.h ****  *  They are available for backwards compatability. 
 177:/Users/reza.kalfane/Workspaces/Daisy/DaisyExamples/libDaisy/src/daisy_core.h ****  * 
 178:/Users/reza.kalfane/Workspaces/Daisy/DaisyExamples/libDaisy/src/daisy_core.h ****  *  Please use GPIOPort enum and the Pin struct instead.
 179:/Users/reza.kalfane/Workspaces/Daisy/DaisyExamples/libDaisy/src/daisy_core.h ****  */
 180:/Users/reza.kalfane/Workspaces/Daisy/DaisyExamples/libDaisy/src/daisy_core.h **** typedef enum
 181:/Users/reza.kalfane/Workspaces/Daisy/DaisyExamples/libDaisy/src/daisy_core.h **** {
 182:/Users/reza.kalfane/Workspaces/Daisy/DaisyExamples/libDaisy/src/daisy_core.h ****     DSY_GPIOA, /**< & */
 183:/Users/reza.kalfane/Workspaces/Daisy/DaisyExamples/libDaisy/src/daisy_core.h ****     DSY_GPIOB, /**< & */
 184:/Users/reza.kalfane/Workspaces/Daisy/DaisyExamples/libDaisy/src/daisy_core.h ****     DSY_GPIOC, /**< & */
 185:/Users/reza.kalfane/Workspaces/Daisy/DaisyExamples/libDaisy/src/daisy_core.h ****     DSY_GPIOD, /**< & */
 186:/Users/reza.kalfane/Workspaces/Daisy/DaisyExamples/libDaisy/src/daisy_core.h ****     DSY_GPIOE, /**< & */
 187:/Users/reza.kalfane/Workspaces/Daisy/DaisyExamples/libDaisy/src/daisy_core.h ****     DSY_GPIOF, /**< & */
 188:/Users/reza.kalfane/Workspaces/Daisy/DaisyExamples/libDaisy/src/daisy_core.h ****     DSY_GPIOG, /**< & */
 189:/Users/reza.kalfane/Workspaces/Daisy/DaisyExamples/libDaisy/src/daisy_core.h ****     DSY_GPIOH, /**< & */
 190:/Users/reza.kalfane/Workspaces/Daisy/DaisyExamples/libDaisy/src/daisy_core.h ****     DSY_GPIOI, /**< & */
 191:/Users/reza.kalfane/Workspaces/Daisy/DaisyExamples/libDaisy/src/daisy_core.h ****     DSY_GPIOJ, /**< & */
 192:/Users/reza.kalfane/Workspaces/Daisy/DaisyExamples/libDaisy/src/daisy_core.h ****     DSY_GPIOK, /**< & */
 193:/Users/reza.kalfane/Workspaces/Daisy/DaisyExamples/libDaisy/src/daisy_core.h ****     DSY_GPIOX, /** This is a non-existant port for unsupported bits of hardware. */
 194:/Users/reza.kalfane/Workspaces/Daisy/DaisyExamples/libDaisy/src/daisy_core.h ****     DSY_GPIO_LAST, /** Final enum member */
 195:/Users/reza.kalfane/Workspaces/Daisy/DaisyExamples/libDaisy/src/daisy_core.h **** } dsy_gpio_port;
 196:/Users/reza.kalfane/Workspaces/Daisy/DaisyExamples/libDaisy/src/daisy_core.h **** 
 197:/Users/reza.kalfane/Workspaces/Daisy/DaisyExamples/libDaisy/src/daisy_core.h **** /** Hardware define pins 
 198:/Users/reza.kalfane/Workspaces/Daisy/DaisyExamples/libDaisy/src/daisy_core.h ****  *  
 199:/Users/reza.kalfane/Workspaces/Daisy/DaisyExamples/libDaisy/src/daisy_core.h ****  *  The dsy_gpio_pin struct should no longer be used, and is only available for
 200:/Users/reza.kalfane/Workspaces/Daisy/DaisyExamples/libDaisy/src/daisy_core.h ****  *  backwards compatability.
 201:/Users/reza.kalfane/Workspaces/Daisy/DaisyExamples/libDaisy/src/daisy_core.h ****  * 
 202:/Users/reza.kalfane/Workspaces/Daisy/DaisyExamples/libDaisy/src/daisy_core.h ****  *  Please use Pin struct instead.
 203:/Users/reza.kalfane/Workspaces/Daisy/DaisyExamples/libDaisy/src/daisy_core.h ****  */
 204:/Users/reza.kalfane/Workspaces/Daisy/DaisyExamples/libDaisy/src/daisy_core.h **** typedef struct
 205:/Users/reza.kalfane/Workspaces/Daisy/DaisyExamples/libDaisy/src/daisy_core.h **** {
 206:/Users/reza.kalfane/Workspaces/Daisy/DaisyExamples/libDaisy/src/daisy_core.h ****     dsy_gpio_port port; /**< & */
ARM GAS  /tmp/claude-502/ccry90Vn.s 			page 302


 207:/Users/reza.kalfane/Workspaces/Daisy/DaisyExamples/libDaisy/src/daisy_core.h ****     uint8_t       pin;  /**< number 0-15 */
 208:/Users/reza.kalfane/Workspaces/Daisy/DaisyExamples/libDaisy/src/daisy_core.h **** } dsy_gpio_pin;
 209:/Users/reza.kalfane/Workspaces/Daisy/DaisyExamples/libDaisy/src/daisy_core.h **** 
 210:/Users/reza.kalfane/Workspaces/Daisy/DaisyExamples/libDaisy/src/daisy_core.h **** /** Helper for creating pins from port/pin combos easily
 211:/Users/reza.kalfane/Workspaces/Daisy/DaisyExamples/libDaisy/src/daisy_core.h ****  * 
 212:/Users/reza.kalfane/Workspaces/Daisy/DaisyExamples/libDaisy/src/daisy_core.h ****  *  The dsy_gpio_pin struct should no longer be used, and is only available for
 213:/Users/reza.kalfane/Workspaces/Daisy/DaisyExamples/libDaisy/src/daisy_core.h ****  *  backwards compatability.
 214:/Users/reza.kalfane/Workspaces/Daisy/DaisyExamples/libDaisy/src/daisy_core.h ****  * 
 215:/Users/reza.kalfane/Workspaces/Daisy/DaisyExamples/libDaisy/src/daisy_core.h ****  *  Please use Pin struct instead.
 216:/Users/reza.kalfane/Workspaces/Daisy/DaisyExamples/libDaisy/src/daisy_core.h **** */
 217:/Users/reza.kalfane/Workspaces/Daisy/DaisyExamples/libDaisy/src/daisy_core.h **** FORCE_INLINE dsy_gpio_pin dsy_pin(dsy_gpio_port port, uint8_t pin)
 218:/Users/reza.kalfane/Workspaces/Daisy/DaisyExamples/libDaisy/src/daisy_core.h **** {
 219:/Users/reza.kalfane/Workspaces/Daisy/DaisyExamples/libDaisy/src/daisy_core.h ****     dsy_gpio_pin p;
 220:/Users/reza.kalfane/Workspaces/Daisy/DaisyExamples/libDaisy/src/daisy_core.h ****     p.port = port;
 221:/Users/reza.kalfane/Workspaces/Daisy/DaisyExamples/libDaisy/src/daisy_core.h ****     p.pin  = pin;
 222:/Users/reza.kalfane/Workspaces/Daisy/DaisyExamples/libDaisy/src/daisy_core.h ****     return p;
 223:/Users/reza.kalfane/Workspaces/Daisy/DaisyExamples/libDaisy/src/daisy_core.h **** }
 224:/Users/reza.kalfane/Workspaces/Daisy/DaisyExamples/libDaisy/src/daisy_core.h **** 
 225:/Users/reza.kalfane/Workspaces/Daisy/DaisyExamples/libDaisy/src/daisy_core.h **** /** Helper for testing sameness of two dsy_gpio_pins
 226:/Users/reza.kalfane/Workspaces/Daisy/DaisyExamples/libDaisy/src/daisy_core.h ****  *  \return    1 if same, 0 if different
 227:/Users/reza.kalfane/Workspaces/Daisy/DaisyExamples/libDaisy/src/daisy_core.h ****  * 
 228:/Users/reza.kalfane/Workspaces/Daisy/DaisyExamples/libDaisy/src/daisy_core.h ****  *  The dsy_gpio_pin struct should no longer be used, and is only available for
 229:/Users/reza.kalfane/Workspaces/Daisy/DaisyExamples/libDaisy/src/daisy_core.h ****  *  backwards compatability.
 230:/Users/reza.kalfane/Workspaces/Daisy/DaisyExamples/libDaisy/src/daisy_core.h ****  * 
 231:/Users/reza.kalfane/Workspaces/Daisy/DaisyExamples/libDaisy/src/daisy_core.h ****  *  Please use Pin struct instead.
 232:/Users/reza.kalfane/Workspaces/Daisy/DaisyExamples/libDaisy/src/daisy_core.h ****  */
 233:/Users/reza.kalfane/Workspaces/Daisy/DaisyExamples/libDaisy/src/daisy_core.h **** FORCE_INLINE uint8_t dsy_pin_cmp(dsy_gpio_pin *a, dsy_gpio_pin *b)
 234:/Users/reza.kalfane/Workspaces/Daisy/DaisyExamples/libDaisy/src/daisy_core.h **** {
 235:/Users/reza.kalfane/Workspaces/Daisy/DaisyExamples/libDaisy/src/daisy_core.h ****     return ((a->port == b->port) && (a->pin == b->pin));
 236:/Users/reza.kalfane/Workspaces/Daisy/DaisyExamples/libDaisy/src/daisy_core.h **** }
 237:/Users/reza.kalfane/Workspaces/Daisy/DaisyExamples/libDaisy/src/daisy_core.h **** 
 238:/Users/reza.kalfane/Workspaces/Daisy/DaisyExamples/libDaisy/src/daisy_core.h **** #ifdef __cplusplus
 239:/Users/reza.kalfane/Workspaces/Daisy/DaisyExamples/libDaisy/src/daisy_core.h **** 
 240:/Users/reza.kalfane/Workspaces/Daisy/DaisyExamples/libDaisy/src/daisy_core.h **** namespace daisy
 241:/Users/reza.kalfane/Workspaces/Daisy/DaisyExamples/libDaisy/src/daisy_core.h **** {
 242:/Users/reza.kalfane/Workspaces/Daisy/DaisyExamples/libDaisy/src/daisy_core.h **** /** @brief GPIO Port names */
 243:/Users/reza.kalfane/Workspaces/Daisy/DaisyExamples/libDaisy/src/daisy_core.h **** enum GPIOPort
 244:/Users/reza.kalfane/Workspaces/Daisy/DaisyExamples/libDaisy/src/daisy_core.h **** {
 245:/Users/reza.kalfane/Workspaces/Daisy/DaisyExamples/libDaisy/src/daisy_core.h ****     PORTA, /**< Port A */
 246:/Users/reza.kalfane/Workspaces/Daisy/DaisyExamples/libDaisy/src/daisy_core.h ****     PORTB, /**< Port B */
 247:/Users/reza.kalfane/Workspaces/Daisy/DaisyExamples/libDaisy/src/daisy_core.h ****     PORTC, /**< Port C */
 248:/Users/reza.kalfane/Workspaces/Daisy/DaisyExamples/libDaisy/src/daisy_core.h ****     PORTD, /**< Port D */
 249:/Users/reza.kalfane/Workspaces/Daisy/DaisyExamples/libDaisy/src/daisy_core.h ****     PORTE, /**< Port E */
 250:/Users/reza.kalfane/Workspaces/Daisy/DaisyExamples/libDaisy/src/daisy_core.h ****     PORTF, /**< Port F */
 251:/Users/reza.kalfane/Workspaces/Daisy/DaisyExamples/libDaisy/src/daisy_core.h ****     PORTG, /**< Port G */
 252:/Users/reza.kalfane/Workspaces/Daisy/DaisyExamples/libDaisy/src/daisy_core.h ****     PORTH, /**< Port H */
 253:/Users/reza.kalfane/Workspaces/Daisy/DaisyExamples/libDaisy/src/daisy_core.h ****     PORTI, /**< Port I */
 254:/Users/reza.kalfane/Workspaces/Daisy/DaisyExamples/libDaisy/src/daisy_core.h ****     PORTJ, /**< Port J */
 255:/Users/reza.kalfane/Workspaces/Daisy/DaisyExamples/libDaisy/src/daisy_core.h ****     PORTK, /**< Port K */
 256:/Users/reza.kalfane/Workspaces/Daisy/DaisyExamples/libDaisy/src/daisy_core.h ****     PORTX, /**< Used as a dummy port to signal an invalid pin. */
 257:/Users/reza.kalfane/Workspaces/Daisy/DaisyExamples/libDaisy/src/daisy_core.h **** };
 258:/Users/reza.kalfane/Workspaces/Daisy/DaisyExamples/libDaisy/src/daisy_core.h **** 
 259:/Users/reza.kalfane/Workspaces/Daisy/DaisyExamples/libDaisy/src/daisy_core.h **** /** @brief representation of hardware port/pin combination */
 260:/Users/reza.kalfane/Workspaces/Daisy/DaisyExamples/libDaisy/src/daisy_core.h **** struct Pin
 261:/Users/reza.kalfane/Workspaces/Daisy/DaisyExamples/libDaisy/src/daisy_core.h **** {
 262:/Users/reza.kalfane/Workspaces/Daisy/DaisyExamples/libDaisy/src/daisy_core.h ****     GPIOPort port;
 263:/Users/reza.kalfane/Workspaces/Daisy/DaisyExamples/libDaisy/src/daisy_core.h ****     uint8_t  pin;
ARM GAS  /tmp/claude-502/ccry90Vn.s 			page 303


 264:/Users/reza.kalfane/Workspaces/Daisy/DaisyExamples/libDaisy/src/daisy_core.h **** 
 265:/Users/reza.kalfane/Workspaces/Daisy/DaisyExamples/libDaisy/src/daisy_core.h ****     /** @brief Constructor creates a valid pin. 
 266:/Users/reza.kalfane/Workspaces/Daisy/DaisyExamples/libDaisy/src/daisy_core.h ****      *  @param pt GPIOPort between PA, and PK corresponding to STM32 Port.
 267:/Users/reza.kalfane/Workspaces/Daisy/DaisyExamples/libDaisy/src/daisy_core.h ****      *  @param pn pin number in range of 0-15
 268:/Users/reza.kalfane/Workspaces/Daisy/DaisyExamples/libDaisy/src/daisy_core.h ****     */
 269:/Users/reza.kalfane/Workspaces/Daisy/DaisyExamples/libDaisy/src/daisy_core.h ****     constexpr Pin(const GPIOPort pt, const uint8_t pn) : port(pt), pin(pn) {}
 270:/Users/reza.kalfane/Workspaces/Daisy/DaisyExamples/libDaisy/src/daisy_core.h **** 
 271:/Users/reza.kalfane/Workspaces/Daisy/DaisyExamples/libDaisy/src/daisy_core.h ****     /** @brief Basic Constructor creates an invalid Pin object */
 272:/Users/reza.kalfane/Workspaces/Daisy/DaisyExamples/libDaisy/src/daisy_core.h ****     constexpr Pin() : port(PORTX), pin(255) {}
 11435              		.loc 11 272 15 view .LVU3411
 11436              		.loc 11 272 15 is_stmt 0 view .LVU3412
 11437              	.LBE1888:
 11438              	.LBE1887:
 11439              	.LBE1886:
 11440              	.LBE1885:
 11441              		.loc 10 74 12 view .LVU3413
 11442 0016 0C49     		ldr	r1, .L718+12
 11443 0018 4FF60B70 		movw	r0, #65291
 11444              	.LBE1884:
 11445              	.LBE1883:
 11446              	.LBB1897:
 11447              	.LBB1898:
 11448 001c 0B4A     		ldr	r2, .L718+16
 11449              	.LBE1898:
 11450              	.LBE1897:
 11451              	.LBB1908:
 11452              	.LBB1909:
 11453 001e 0C4B     		ldr	r3, .L718+20
 11454              	.LBE1909:
 11455              	.LBE1908:
 11456              	.LBB1915:
 11457              	.LBB1895:
 11458 0020 0860     		str	r0, [r1]
 11459              	.LBB1893:
 11460              	.LBB1891:
 11461              	.LBB1889:
  69:/Users/reza.kalfane/Workspaces/Daisy/DaisyExamples/libDaisy/src/per/gpio.h ****         {
 11462              		.loc 10 69 73 view .LVU3414
 11463 0022 CC60     		str	r4, [r1, #12]
 11464              	.LVL931:
  69:/Users/reza.kalfane/Workspaces/Daisy/DaisyExamples/libDaisy/src/per/gpio.h ****         {
 11465              		.loc 10 69 73 view .LVU3415
 11466              	.LBE1889:
 11467              	.LBE1891:
 11468              	.LBE1893:
 11469              	.LBE1895:
 11470              	.LBE1915:
 11471              	.LBB1916:
 11472              	.LBI1897:
 11473              		.loc 10 74 5 is_stmt 1 view .LVU3416
 11474              	.LBB1906:
 11475              	.LBB1899:
 11476              	.LBI1899:
  68:/Users/reza.kalfane/Workspaces/Daisy/DaisyExamples/libDaisy/src/per/gpio.h ****         : pin(), mode(Mode::INPUT), pull(Pull::NOPULL), speed(Speed::LOW)
 11477              		.loc 10 68 9 view .LVU3417
 11478              	.LBB1900:
 11479              	.LBB1901:
ARM GAS  /tmp/claude-502/ccry90Vn.s 			page 304


 11480              	.LBB1902:
 11481              	.LBI1902:
 11482              		.loc 11 272 15 view .LVU3418
 11483              		.loc 11 272 15 is_stmt 0 view .LVU3419
 11484              	.LBE1902:
 11485              	.LBE1901:
 11486              	.LBE1900:
 11487              	.LBE1899:
 11488              	.LBE1906:
 11489              	.LBE1916:
 11490              	.LBB1917:
 11491              	.LBB1896:
 11492              	.LBB1894:
 11493              	.LBB1892:
 11494              	.LBB1890:
  69:/Users/reza.kalfane/Workspaces/Daisy/DaisyExamples/libDaisy/src/per/gpio.h ****         {
 11495              		.loc 10 69 73 view .LVU3420
 11496 0024 C1E90144 		strd	r4, r4, [r1, #4]
 11497              	.LBE1890:
 11498              	.LBE1892:
 11499              	.LBE1894:
 11500              	.LBE1896:
 11501              	.LBE1917:
 11502              	.LBB1918:
 11503              	.LBB1907:
 11504              	.LBB1905:
 11505              	.LBB1904:
 11506              	.LBB1903:
 11507 0028 C2E90004 		strd	r0, r4, [r2]
 11508 002c C2E90244 		strd	r4, r4, [r2, #8]
 11509              	.LVL932:
  69:/Users/reza.kalfane/Workspaces/Daisy/DaisyExamples/libDaisy/src/per/gpio.h ****         {
 11510              		.loc 10 69 73 view .LVU3421
 11511              	.LBE1903:
 11512              	.LBE1904:
 11513              	.LBE1905:
 11514              	.LBE1907:
 11515              	.LBE1918:
 11516              	.LBB1919:
 11517              	.LBI1908:
 11518              		.loc 10 74 5 is_stmt 1 view .LVU3422
 11519              	.LBB1914:
 11520              	.LBB1910:
 11521              	.LBI1910:
  68:/Users/reza.kalfane/Workspaces/Daisy/DaisyExamples/libDaisy/src/per/gpio.h ****         : pin(), mode(Mode::INPUT), pull(Pull::NOPULL), speed(Speed::LOW)
 11522              		.loc 10 68 9 view .LVU3423
 11523              	.LBB1911:
 11524              	.LBB1912:
 11525              	.LBB1913:
 11526              	.LBI1913:
 11527              		.loc 11 272 15 view .LVU3424
 11528              		.loc 11 272 15 is_stmt 0 view .LVU3425
 11529              	.LBE1913:
  69:/Users/reza.kalfane/Workspaces/Daisy/DaisyExamples/libDaisy/src/per/gpio.h ****         {
 11530              		.loc 10 69 73 view .LVU3426
 11531 0030 C3E90004 		strd	r0, r4, [r3]
 11532 0034 C3E90244 		strd	r4, r4, [r3, #8]
ARM GAS  /tmp/claude-502/ccry90Vn.s 			page 305


 11533              	.LVL933:
  69:/Users/reza.kalfane/Workspaces/Daisy/DaisyExamples/libDaisy/src/per/gpio.h ****         {
 11534              		.loc 10 69 73 view .LVU3427
 11535              	.LBE1912:
 11536              	.LBE1911:
 11537              	.LBE1910:
 11538              	.LBE1914:
 11539              	.LBE1919:
 11540              	.LBE1920:
 11541              	.LBE1921:
 11542              		.loc 6 1552 1 view .LVU3428
 11543 0038 10BD     		pop	{r4, pc}
 11544              	.L719:
 11545 003a 00BF     		.align	2
 11546              	.L718:
 11547 003c 00000000 		.word	.LANCHOR10
 11548 0040 00000000 		.word	__dso_handle
 11549 0044 00000000 		.word	_ZN5daisy9DaisySeedD1Ev
 11550 0048 00000000 		.word	.LANCHOR44
 11551 004c 00000000 		.word	.LANCHOR46
 11552 0050 00000000 		.word	.LANCHOR42
 11553              		.cfi_endproc
 11554              	.LFE2637:
 11556              		.section	.init_array,"aw",%init_array
 11557              		.align	2
 11558 0000 00000000 		.word	_GLOBAL__sub_I_hw(target1)
 11559              		.global	g_master_vol
 11560              		.global	g_led3_duty
 11561              		.global	g_amp_target
 11562              		.global	g_finger_on
 11563              		.global	g_ringmod
 11564              		.global	g_bitcrush
 11565              		.global	g_vibrato_depth
 11566              		.global	g_target_drive
 11567              		.global	g_target_detune
 11568              		.global	g_target_cutoff
 11569              		.global	g_target_freq
 11570              		.global	led3
 11571              		.global	scl
 11572              		.global	sda
 11573              		.global	hw
 11574              		.section	.rodata.str1.4,"aMS",%progbits,1
 11575              		.align	2
 11576              	.LC23:
 11577 0000 4C656164 		.ascii	"Lead\000"
 11577      00
 11578 0005 000000   		.align	2
 11579              	.LC24:
 11580 0008 42617373 		.ascii	"Bass\000"
 11580      00
 11581 000d 000000   		.align	2
 11582              	.LC25:
 11583 0010 4F70656E 		.ascii	"OpenBass\000"
 11583      42617373 
 11583      00
 11584 0019 000000   		.align	2
 11585              	.LC26:
ARM GAS  /tmp/claude-502/ccry90Vn.s 			page 306


 11586 001c 52696368 		.ascii	"RichBass\000"
 11586      42617373 
 11586      00
 11587 0025 000000   		.align	2
 11588              	.LC27:
 11589 0028 4F726761 		.ascii	"Organ\000"
 11589      6E00
 11590 002e 0000     		.align	2
 11591              	.LC28:
 11592 0030 53637265 		.ascii	"Scream\000"
 11592      616D00
 11593 0037 00       		.align	2
 11594              	.LC29:
 11595 0038 436C6F73 		.ascii	"ClosedBass\000"
 11595      65644261 
 11595      737300
 11596 0043 00       		.align	2
 11597              	.LC30:
 11598 0044 50616400 		.ascii	"Pad\000"
 11599              		.align	2
 11600              	.LC31:
 11601 0048 546F6D00 		.ascii	"Tom\000"
 11602              		.align	2
 11603              	.LC32:
 11604 004c 4B69636B 		.ascii	"Kick\000"
 11604      00
 11605 0051 000000   		.align	2
 11606              	.LC33:
 11607 0054 536E6172 		.ascii	"Snare\000"
 11607      6500
 11608 005a 0000     		.align	2
 11609              	.LC34:
 11610 005c 48694861 		.ascii	"HiHat\000"
 11610      7400
 11611 0062 0000     		.align	2
 11612              	.LC35:
 11613 0064 4472756D 		.ascii	"Drums\000"
 11613      7300
 11614              		.section	.bss._ZL10s_bitcrush,"aw",%nobits
 11615              		.align	2
 11616              		.set	.LANCHOR26,. + 0
 11619              	_ZL10s_bitcrush:
 11620 0000 00000000 		.space	4
 11621              		.section	.bss._ZL10s_noise_lp,"aw",%nobits
 11622              		.align	2
 11623              		.set	.LANCHOR37,. + 0
 11626              	_ZL10s_noise_lp:
 11627 0000 00000000 		.space	4
 11628              		.section	.bss._ZL10s_phase_rm,"aw",%nobits
 11629              		.align	2
 11630              		.set	.LANCHOR38,. + 0
 11633              	_ZL10s_phase_rm:
 11634 0000 00000000 		.space	4
 11635              		.section	.bss._ZL10s_vibdepth,"aw",%nobits
 11636              		.align	2
 11637              		.set	.LANCHOR24,. + 0
 11640              	_ZL10s_vibdepth:
ARM GAS  /tmp/claude-502/ccry90Vn.s 			page 307


 11641 0000 00000000 		.space	4
 11642              		.section	.bss._ZL11s_lfo_phase,"aw",%nobits
 11643              		.align	2
 11644              		.set	.LANCHOR31,. + 0
 11647              	_ZL11s_lfo_phase:
 11648 0000 00000000 		.space	4
 11649              		.section	.bss._ZL11s_phase_oct,"aw",%nobits
 11650              		.align	2
 11651              		.set	.LANCHOR35,. + 0
 11654              	_ZL11s_phase_oct:
 11655 0000 00000000 		.space	4
 11656              		.section	.bss._ZL11s_phase_sub,"aw",%nobits
 11657              		.align	2
 11658              		.set	.LANCHOR34,. + 0
 11661              	_ZL11s_phase_sub:
 11662 0000 00000000 		.space	4
 11663              		.section	.bss._ZL5s_amp,"aw",%nobits
 11664              		.align	2
 11665              		.set	.LANCHOR28,. + 0
 11668              	_ZL5s_amp:
 11669 0000 00000000 		.space	4
 11670              		.section	.bss._ZL5s_flt,"aw",%nobits
 11671              		.align	2
 11672              		.set	.LANCHOR30,. + 0
 11675              	_ZL5s_flt:
 11676 0000 00000000 		.space	16
 11676      00000000 
 11676      00000000 
 11676      00000000 
 11677              		.section	.bss._ZL7tracked,"aw",%nobits
 11678              		.align	2
 11679              		.set	.LANCHOR48,. + 0
 11682              	_ZL7tracked:
 11683 0000 00000000 		.space	40
 11683      00000000 
 11683      00000000 
 11683      00000000 
 11683      00000000 
 11684              		.section	.bss._ZL8s_detune,"aw",%nobits
 11685              		.align	2
 11686              		.set	.LANCHOR25,. + 0
 11689              	_ZL8s_detune:
 11690 0000 00000000 		.space	4
 11691              		.section	.bss._ZL8s_phase1,"aw",%nobits
 11692              		.align	2
 11693              		.set	.LANCHOR32,. + 0
 11696              	_ZL8s_phase1:
 11697 0000 00000000 		.space	4
 11698              		.section	.bss._ZL8s_phase2,"aw",%nobits
 11699              		.align	2
 11700              		.set	.LANCHOR33,. + 0
 11703              	_ZL8s_phase2:
 11704 0000 00000000 		.space	4
 11705              		.section	.bss._ZL9s_ringmod,"aw",%nobits
 11706              		.align	2
 11707              		.set	.LANCHOR27,. + 0
 11710              	_ZL9s_ringmod:
ARM GAS  /tmp/claude-502/ccry90Vn.s 			page 308


 11711 0000 00000000 		.space	4
 11712              		.section	.bss._ZZ13AudioCallbackPKPKfPPfjE10led3_state,"aw",%nobits
 11713              		.set	.LANCHOR41,. + 0
 11716              	_ZZ13AudioCallbackPKPKfPPfjE10led3_state:
 11717 0000 00       		.space	1
 11718              		.section	.bss._ZZ13AudioCallbackPKPKfPPfjE11pwm_counter,"aw",%nobits
 11719              		.align	2
 11720              		.set	.LANCHOR40,. + 0
 11723              	_ZZ13AudioCallbackPKPKfPPfjE11pwm_counter:
 11724 0000 00000000 		.space	4
 11725              		.section	.bss._ZZ13AudioCallbackPKPKfPPfjE11s_prev_tamp,"aw",%nobits
 11726              		.align	2
 11727              		.set	.LANCHOR19,. + 0
 11730              	_ZZ13AudioCallbackPKPKfPPfjE11s_prev_tamp:
 11731 0000 00000000 		.space	4
 11732              		.section	.bss._ZZ13AudioCallbackPKPKfPPfjE12s_penv_start,"aw",%nobits
 11733              		.align	2
 11734              		.set	.LANCHOR18,. + 0
 11737              	_ZZ13AudioCallbackPKPKfPPfjE12s_penv_start:
 11738 0000 00000000 		.space	4
 11739              		.section	.bss._ZZ13AudioCallbackPKPKfPPfjE16led3_duty_smooth,"aw",%nobits
 11740              		.align	2
 11741              		.set	.LANCHOR39,. + 0
 11744              	_ZZ13AudioCallbackPKPKfPPfjE16led3_duty_smooth:
 11745 0000 00000000 		.space	4
 11746              		.section	.bss._ZZ13AudioCallbackPKPKfPPfjE7s_atk_c,"aw",%nobits
 11747              		.align	2
 11748              		.set	.LANCHOR15,. + 0
 11751              	_ZZ13AudioCallbackPKPKfPPfjE7s_atk_c:
 11752 0000 00000000 		.space	4
 11753              		.section	.bss._ZZ13AudioCallbackPKPKfPPfjE7s_rel_c,"aw",%nobits
 11754              		.align	2
 11755              		.set	.LANCHOR16,. + 0
 11758              	_ZZ13AudioCallbackPKPKfPPfjE7s_rel_c:
 11759 0000 00000000 		.space	4
 11760              		.section	.bss._ZZ13AudioCallbackPKPKfPPfjE8s_penv_c,"aw",%nobits
 11761              		.align	2
 11762              		.set	.LANCHOR17,. + 0
 11765              	_ZZ13AudioCallbackPKPKfPPfjE8s_penv_c:
 11766 0000 00000000 		.space	4
 11767              		.section	.bss._ZZ13AudioCallbackPKPKfPPfjE9s_glide_c,"aw",%nobits
 11768              		.align	2
 11769              		.set	.LANCHOR14,. + 0
 11772              	_ZZ13AudioCallbackPKPKfPPfjE9s_glide_c:
 11773 0000 00000000 		.space	4
 11774              		.section	.bss.g_amp_target,"aw",%nobits
 11775              		.align	2
 11776              		.set	.LANCHOR8,. + 0
 11779              	g_amp_target:
 11780 0000 00000000 		.space	4
 11781              		.section	.bss.g_bitcrush,"aw",%nobits
 11782              		.align	2
 11783              		.set	.LANCHOR6,. + 0
 11786              	g_bitcrush:
 11787 0000 00000000 		.space	4
 11788              		.section	.bss.g_finger_on,"aw",%nobits
 11789              		.set	.LANCHOR54,. + 0
ARM GAS  /tmp/claude-502/ccry90Vn.s 			page 309


 11792              	g_finger_on:
 11793 0000 00       		.space	1
 11794              		.section	.bss.g_led3_duty,"aw",%nobits
 11795              		.align	2
 11796              		.set	.LANCHOR0,. + 0
 11799              	g_led3_duty:
 11800 0000 00000000 		.space	4
 11801              		.section	.bss.g_ringmod,"aw",%nobits
 11802              		.align	2
 11803              		.set	.LANCHOR7,. + 0
 11806              	g_ringmod:
 11807 0000 00000000 		.space	4
 11808              		.section	.bss.g_target_detune,"aw",%nobits
 11809              		.align	2
 11810              		.set	.LANCHOR3,. + 0
 11813              	g_target_detune:
 11814 0000 00000000 		.space	4
 11815              		.section	.bss.g_vibrato_depth,"aw",%nobits
 11816              		.align	2
 11817              		.set	.LANCHOR5,. + 0
 11820              	g_vibrato_depth:
 11821 0000 00000000 		.space	4
 11822              		.section	.bss.hw,"aw",%nobits
 11823              		.align	2
 11824              		.set	.LANCHOR10,. + 0
 11827              	hw:
 11828 0000 00000000 		.space	64
 11828      00000000 
 11828      00000000 
 11828      00000000 
 11828      00000000 
 11829              		.section	.bss.led3,"aw",%nobits
 11830              		.align	2
 11831              		.set	.LANCHOR42,. + 0
 11834              	led3:
 11835 0000 00000000 		.space	20
 11835      00000000 
 11835      00000000 
 11835      00000000 
 11835      00000000 
 11836              		.section	.bss.scl,"aw",%nobits
 11837              		.align	2
 11838              		.set	.LANCHOR46,. + 0
 11841              	scl:
 11842 0000 00000000 		.space	20
 11842      00000000 
 11842      00000000 
 11842      00000000 
 11842      00000000 
 11843              		.section	.bss.sda,"aw",%nobits
 11844              		.align	2
 11845              		.set	.LANCHOR44,. + 0
 11848              	sda:
 11849 0000 00000000 		.space	20
 11849      00000000 
 11849      00000000 
 11849      00000000 
ARM GAS  /tmp/claude-502/ccry90Vn.s 			page 310


 11849      00000000 
 11850              		.section	.data._ZL11g_voice_idx,"aw"
 11851              		.align	2
 11852              		.set	.LANCHOR51,. + 0
 11855              	_ZL11g_voice_idx:
 11856 0000 0C000000 		.word	12
 11857              		.section	.data._ZL11s_noise_rng,"aw"
 11858              		.align	2
 11859              		.set	.LANCHOR36,. + 0
 11862              	_ZL11s_noise_rng:
 11863 0000 67452301 		.word	19088743
 11864              		.section	.data._ZL12s_master_vol,"aw"
 11865              		.align	2
 11866              		.set	.LANCHOR29,. + 0
 11869              	_ZL12s_master_vol:
 11870 0000 0000803F 		.word	1065353216
 11871              		.section	.data._ZL14g_active_voice,"aw"
 11872              		.align	2
 11873              		.set	.LANCHOR11,. + 0
 11876              	_ZL14g_active_voice:
 11877 0000 09000000 		.word	9
 11878              		.section	.data._ZL6s_freq,"aw"
 11879              		.align	2
 11880              		.set	.LANCHOR21,. + 0
 11883              	_ZL6s_freq:
 11884 0000 ECD18242 		.word	1115869676
 11885              		.section	.data._ZL7s_drive,"aw"
 11886              		.align	2
 11887              		.set	.LANCHOR23,. + 0
 11890              	_ZL7s_drive:
 11891 0000 0000803F 		.word	1065353216
 11892              		.section	.data._ZL8s_cutoff,"aw"
 11893              		.align	2
 11894              		.set	.LANCHOR22,. + 0
 11897              	_ZL8s_cutoff:
 11898 0000 0000C842 		.word	1120403456
 11899              		.section	.data._ZZ13AudioCallbackPKPKfPPfjE10s_coeff_vi,"aw"
 11900              		.align	2
 11901              		.set	.LANCHOR12,. + 0
 11904              	_ZZ13AudioCallbackPKPKfPPfjE10s_coeff_vi:
 11905 0000 FFFFFFFF 		.word	-1
 11906              		.section	.data._ZZ13AudioCallbackPKPKfPPfjE7s_pmult,"aw"
 11907              		.align	2
 11908              		.set	.LANCHOR20,. + 0
 11911              	_ZZ13AudioCallbackPKPKfPPfjE7s_pmult:
 11912 0000 0000803F 		.word	1065353216
 11913              		.section	.data.g_master_vol,"aw"
 11914              		.align	2
 11915              		.set	.LANCHOR9,. + 0
 11918              	g_master_vol:
 11919 0000 0000803F 		.word	1065353216
 11920              		.section	.data.g_target_cutoff,"aw"
 11921              		.align	2
 11922              		.set	.LANCHOR2,. + 0
 11925              	g_target_cutoff:
 11926 0000 0000C842 		.word	1120403456
 11927              		.section	.data.g_target_drive,"aw"
ARM GAS  /tmp/claude-502/ccry90Vn.s 			page 311


 11928              		.align	2
 11929              		.set	.LANCHOR4,. + 0
 11932              	g_target_drive:
 11933 0000 0000803F 		.word	1065353216
 11934              		.section	.data.g_target_freq,"aw"
 11935              		.align	2
 11936              		.set	.LANCHOR1,. + 0
 11939              	g_target_freq:
 11940 0000 ECD18242 		.word	1115869676
 11941              		.section	.rodata._ZL11MULTI_ZONES,"a"
 11942              		.align	2
 11943              		.set	.LANCHOR52,. + 0
 11946              	_ZL11MULTI_ZONES:
 11947 0000 09000000 		.word	9
 11948 0004 0A000000 		.word	10
 11949 0008 08000000 		.word	8
 11950 000c 0B000000 		.word	11
 11951              		.section	.rodata._ZL15MULTI_INTERVALS,"a"
 11952              		.align	2
 11953              		.set	.LANCHOR53,. + 0
 11956              	_ZL15MULTI_INTERVALS:
 11957 0000 0000803F 		.word	1065353216
 11958 0004 0ADCAA3F 		.word	1068162058
 11959 0008 9FC8BF3F 		.word	1069533343
 11960 000c 00000040 		.word	1073741824
 11961              		.section	.rodata._ZL16PRESSURE_MAX_REF,"a"
 11962              		.align	2
 11963              		.set	.LANCHOR47,. + 0
 11966              	_ZL16PRESSURE_MAX_REF:
 11967 0000 2A000000 		.word	42
 11968 0004 23000000 		.word	35
 11969 0008 22000000 		.word	34
 11970 000c 22000000 		.word	34
 11971 0010 22000000 		.word	34
 11972 0014 22000000 		.word	34
 11973 0018 22000000 		.word	34
 11974 001c 22000000 		.word	34
 11975 0020 21000000 		.word	33
 11976 0024 20000000 		.word	32
 11977 0028 1D000000 		.word	29
 11978 002c 1E000000 		.word	30
 11979              		.section	.rodata._ZL5SCALE,"a"
 11980              		.align	2
 11981              		.set	.LANCHOR49,. + 0
 11984              	_ZL5SCALE:
 11985 0000 00000000 		.word	0
 11986 0004 01000000 		.word	1
 11987 0008 02000000 		.word	2
 11988 000c 03000000 		.word	3
 11989 0010 04000000 		.word	4
 11990 0014 05000000 		.word	5
 11991 0018 06000000 		.word	6
 11992 001c 07000000 		.word	7
 11993 0020 08000000 		.word	8
 11994 0024 09000000 		.word	9
 11995 0028 0A000000 		.word	10
 11996 002c 0B000000 		.word	11
ARM GAS  /tmp/claude-502/ccry90Vn.s 			page 312


 11997              		.section	.rodata._ZL6VOICES,"a"
 11998              		.align	2
 11999              		.set	.LANCHOR13,. + 0
 12002              	_ZL6VOICES:
 12003 0000 00000000 		.word	.LC23
 12004 0004 00004842 		.word	1112014848
 12005 0008 00009643 		.word	1133903872
 12006 000c 6458E53F 		.word	1071994980
 12007 0010 0000803F 		.word	1065353216
 12008 0014 0000003F 		.word	1056964608
 12009 0018 00       		.byte	0
 12010 0019 000000   		.space	3
 12011 001c 0000803F 		.word	1065353216
 12012 0020 AE47613E 		.word	1046562734
 12013 0024 00       		.byte	0
 12014 0025 000000   		.space	3
 12015 0028 0000003F 		.word	1056964608
 12016 002c EC51383E 		.word	1043878380
 12017 0030 00       		.byte	0
 12018 0031 000000   		.space	3
 12019 0034 00000040 		.word	1073741824
 12020 0038 9A99193E 		.word	1041865114
 12021 003c 00       		.byte	0
 12022 003d 01       		.byte	1
 12023 003e 0000     		.space	2
 12024 0040 9A99993E 		.word	1050253722
 12025 0044 00004041 		.word	1094713344
 12026 0048 0000403F 		.word	1061158912
 12027 004c 00002040 		.word	1075838976
 12028 0050 00000000 		.word	0
 12029 0054 0000803F 		.word	1065353216
 12030 0058 0000803F 		.word	1065353216
 12031 005c 9A99193E 		.word	1041865114
 12032 0060 EC51383E 		.word	1043878380
 12033 0064 00008040 		.word	1082130432
 12034 0068 0000C843 		.word	1137180672
 12035 006c 00002042 		.word	1109393408
 12036 0070 00000000 		.space	12
 12036      00000000 
 12036      00000000 
 12037 007c 08000000 		.word	.LC24
 12038 0080 00002042 		.word	1109393408
 12039 0084 00002043 		.word	1126170624
 12040 0088 F371B13F 		.word	1068593651
 12041 008c 0000803F 		.word	1065353216
 12042 0090 6666E63E 		.word	1055286886
 12043 0094 00       		.byte	0
 12044 0095 000000   		.space	3
 12045 0098 9FC8BF3F 		.word	1069533343
 12046 009c 9A99993E 		.word	1050253722
 12047 00a0 00       		.byte	0
 12048 00a1 000000   		.space	3
 12049 00a4 0000003F 		.word	1056964608
 12050 00a8 7B14AE3E 		.word	1051595899
 12051 00ac 00       		.byte	0
 12052 00ad 000000   		.space	3
 12053 00b0 00000040 		.word	1073741824
ARM GAS  /tmp/claude-502/ccry90Vn.s 			page 313


 12054 00b4 CDCC4C3E 		.word	1045220557
 12055 00b8 00       		.byte	0
 12056 00b9 00       		.byte	0
 12057 00ba 0000     		.space	2
 12058 00bc 0000803E 		.word	1048576000
 12059 00c0 0000E040 		.word	1088421888
 12060 00c4 0000003F 		.word	1056964608
 12061 00c8 0000803F 		.word	1065353216
 12062 00cc 00000000 		.word	0
 12063 00d0 0000803F 		.word	1065353216
 12064 00d4 0000803F 		.word	1065353216
 12065 00d8 8FC2F53D 		.word	1039516303
 12066 00dc 8FC2F53D 		.word	1039516303
 12067 00e0 0000C040 		.word	1086324736
 12068 00e4 00009643 		.word	1133903872
 12069 00e8 0000C841 		.word	1103626240
 12070 00ec 00000000 		.space	12
 12070      00000000 
 12070      00000000 
 12071 00f8 10000000 		.word	.LC25
 12072 00fc 00002042 		.word	1109393408
 12073 0100 00003443 		.word	1127481344
 12074 0104 B285C03F 		.word	1069581746
 12075 0108 0000803F 		.word	1065353216
 12076 010c 6666E63E 		.word	1055286886
 12077 0110 00       		.byte	0
 12078 0111 000000   		.space	3
 12079 0114 9FC8BF3F 		.word	1069533343
 12080 0118 9A99993E 		.word	1050253722
 12081 011c 00       		.byte	0
 12082 011d 000000   		.space	3
 12083 0120 0000003F 		.word	1056964608
 12084 0124 9A99993E 		.word	1050253722
 12085 0128 00       		.byte	0
 12086 0129 000000   		.space	3
 12087 012c 00000040 		.word	1073741824
 12088 0130 AE47613E 		.word	1046562734
 12089 0134 00       		.byte	0
 12090 0135 00       		.byte	0
 12091 0136 0000     		.space	2
 12092 0138 0000003F 		.word	1056964608
 12093 013c 00002041 		.word	1092616192
 12094 0140 6666263F 		.word	1059481190
 12095 0144 6666E63F 		.word	1072064102
 12096 0148 00000000 		.word	0
 12097 014c 0000803F 		.word	1065353216
 12098 0150 0000803F 		.word	1065353216
 12099 0154 9A99193E 		.word	1041865114
 12100 0158 9A99193E 		.word	1041865114
 12101 015c 0000A040 		.word	1084227584
 12102 0160 0000AF43 		.word	1135542272
 12103 0164 0000C841 		.word	1103626240
 12104 0168 00000000 		.space	12
 12104      00000000 
 12104      00000000 
 12105 0174 1C000000 		.word	.LC26
 12106 0178 00002042 		.word	1109393408
ARM GAS  /tmp/claude-502/ccry90Vn.s 			page 314


 12107 017c 00002043 		.word	1126170624
 12108 0180 F371B13F 		.word	1068593651
 12109 0184 0000803F 		.word	1065353216
 12110 0188 CDCCCC3E 		.word	1053609165
 12111 018c 03       		.byte	3
 12112 018d 000000   		.space	3
 12113 0190 9FC8BF3F 		.word	1069533343
 12114 0194 B81E853E 		.word	1048911544
 12115 0198 02       		.byte	2
 12116 0199 000000   		.space	3
 12117 019c 0000003F 		.word	1056964608
 12118 01a0 0AD7A33E 		.word	1050924810
 12119 01a4 01       		.byte	1
 12120 01a5 000000   		.space	3
 12121 01a8 00000040 		.word	1073741824
 12122 01ac EC51383E 		.word	1043878380
 12123 01b0 03       		.byte	3
 12124 01b1 00       		.byte	0
 12125 01b2 0000     		.space	2
 12126 01b4 CDCC4C3E 		.word	1045220557
 12127 01b8 00005041 		.word	1095761920
 12128 01bc 85EB513F 		.word	1062333317
 12129 01c0 CDCC0C40 		.word	1074580685
 12130 01c4 00000000 		.word	0
 12131 01c8 0000803F 		.word	1065353216
 12132 01cc 0000803F 		.word	1065353216
 12133 01d0 CDCC4C3E 		.word	1045220557
 12134 01d4 CDCC4C3E 		.word	1045220557
 12135 01d8 00004040 		.word	1077936128
 12136 01dc 00007A43 		.word	1132068864
 12137 01e0 00009041 		.word	1099956224
 12138 01e4 00000000 		.space	12
 12138      00000000 
 12138      00000000 
 12139 01f0 28000000 		.word	.LC27
 12140 01f4 00008242 		.word	1115815936
 12141 01f8 00000244 		.word	1140981760
 12142 01fc 8C150540 		.word	1074075020
 12143 0200 0000803F 		.word	1065353216
 12144 0204 6666E63E 		.word	1055286886
 12145 0208 01       		.byte	1
 12146 0209 000000   		.space	3
 12147 020c D7A3803F 		.word	1065395159
 12148 0210 CDCCCC3E 		.word	1053609165
 12149 0214 01       		.byte	1
 12150 0215 000000   		.space	3
 12151 0218 0000003F 		.word	1056964608
 12152 021c 9A99993E 		.word	1050253722
 12153 0220 01       		.byte	1
 12154 0221 000000   		.space	3
 12155 0224 00000040 		.word	1073741824
 12156 0228 295C8F3E 		.word	1049582633
 12157 022c 01       		.byte	1
 12158 022d 00       		.byte	0
 12159 022e 0000     		.space	2
 12160 0230 00000040 		.word	1073741824
 12161 0234 0000A040 		.word	1084227584
ARM GAS  /tmp/claude-502/ccry90Vn.s 			page 315


 12162 0238 CDCC4C3E 		.word	1045220557
 12163 023c CDCC4C3F 		.word	1061997773
 12164 0240 8FC2F53C 		.word	1022739087
 12165 0244 0000803F 		.word	1065353216
 12166 0248 0000803F 		.word	1065353216
 12167 024c CDCC4C3D 		.word	1028443341
 12168 0250 00000000 		.word	0
 12169 0254 00000041 		.word	1090519040
 12170 0258 0000F042 		.word	1123024896
 12171 025c 00000041 		.word	1090519040
 12172 0260 00000000 		.space	12
 12172      00000000 
 12172      00000000 
 12173 026c 30000000 		.word	.LC28
 12174 0270 0000B442 		.word	1119092736
 12175 0274 00003444 		.word	1144258560
 12176 0278 8C150540 		.word	1074075020
 12177 027c 0000803F 		.word	1065353216
 12178 0280 3D0AD73E 		.word	1054280253
 12179 0284 03       		.byte	3
 12180 0285 000000   		.space	3
 12181 0288 2506813F 		.word	1065420325
 12182 028c 5C8FC23E 		.word	1052938076
 12183 0290 03       		.byte	3
 12184 0291 000000   		.space	3
 12185 0294 0000003F 		.word	1056964608
 12186 0298 CDCC4C3E 		.word	1045220557
 12187 029c 03       		.byte	3
 12188 029d 000000   		.space	3
 12189 02a0 00000040 		.word	1073741824
 12190 02a4 9A99993E 		.word	1050253722
 12191 02a8 03       		.byte	3
 12192 02a9 00       		.byte	0
 12193 02aa 0000     		.space	2
 12194 02ac 00004040 		.word	1077936128
 12195 02b0 00003041 		.word	1093664768
 12196 02b4 6666663F 		.word	1063675494
 12197 02b8 00008040 		.word	1082130432
 12198 02bc CDCC4C3D 		.word	1028443341
 12199 02c0 0000803F 		.word	1065353216
 12200 02c4 00002040 		.word	1075838976
 12201 02c8 CDCCCC3E 		.word	1053609165
 12202 02cc 9A99993E 		.word	1050253722
 12203 02d0 00000040 		.word	1073741824
 12204 02d4 00004843 		.word	1128792064
 12205 02d8 00000C42 		.word	1108082688
 12206 02dc 00000000 		.space	12
 12206      00000000 
 12206      00000000 
 12207 02e8 38000000 		.word	.LC29
 12208 02ec 00000C42 		.word	1108082688
 12209 02f0 00000C43 		.word	1124859904
 12210 02f4 F371B13F 		.word	1068593651
 12211 02f8 0000803F 		.word	1065353216
 12212 02fc 3D0AD73E 		.word	1054280253
 12213 0300 00       		.byte	0
 12214 0301 000000   		.space	3
ARM GAS  /tmp/claude-502/ccry90Vn.s 			page 316


 12215 0304 9FC8BF3F 		.word	1069533343
 12216 0308 EC51383E 		.word	1043878380
 12217 030c 00       		.byte	0
 12218 030d 000000   		.space	3
 12219 0310 0000003F 		.word	1056964608
 12220 0314 AE47E13E 		.word	1054951342
 12221 0318 01       		.byte	1
 12222 0319 000000   		.space	3
 12223 031c 00000040 		.word	1073741824
 12224 0320 CDCCCC3D 		.word	1036831949
 12225 0324 00       		.byte	0
 12226 0325 00       		.byte	0
 12227 0326 0000     		.space	2
 12228 0328 0000803F 		.word	1065353216
 12229 032c 00000040 		.word	1073741824
 12230 0330 9A99993E 		.word	1050253722
 12231 0334 0000003F 		.word	1056964608
 12232 0338 00000000 		.word	0
 12233 033c 9A99193F 		.word	1058642330
 12234 0340 0000803F 		.word	1065353216
 12235 0344 00000000 		.word	0
 12236 0348 00000000 		.word	0
 12237 034c 00002041 		.word	1092616192
 12238 0350 0000FA43 		.word	1140457472
 12239 0354 0000F041 		.word	1106247680
 12240 0358 00000000 		.space	12
 12240      00000000 
 12240      00000000 
 12241 0364 44000000 		.word	.LC30
 12242 0368 00008C42 		.word	1116471296
 12243 036c 00000C44 		.word	1141637120
 12244 0370 8C150540 		.word	1074075020
 12245 0374 0000803F 		.word	1065353216
 12246 0378 0AD7A33E 		.word	1050924810
 12247 037c 03       		.byte	3
 12248 037d 000000   		.space	3
 12249 0380 9CC4803F 		.word	1065403548
 12250 0384 9A99993E 		.word	1050253722
 12251 0388 03       		.byte	3
 12252 0389 000000   		.space	3
 12253 038c 0000003F 		.word	1056964608
 12254 0390 AE47613E 		.word	1046562734
 12255 0394 00       		.byte	0
 12256 0395 000000   		.space	3
 12257 0398 00000040 		.word	1073741824
 12258 039c EC51383E 		.word	1043878380
 12259 03a0 01       		.byte	1
 12260 03a1 00       		.byte	0
 12261 03a2 0000     		.space	2
 12262 03a4 9A99993F 		.word	1067030938
 12263 03a8 00004040 		.word	1077936128
 12264 03ac CDCC4C3E 		.word	1045220557
 12265 03b0 9A99193F 		.word	1058642330
 12266 03b4 8FC2753C 		.word	1014350479
 12267 03b8 0000803F 		.word	1065353216
 12268 03bc 0000803F 		.word	1065353216
 12269 03c0 00000000 		.word	0
ARM GAS  /tmp/claude-502/ccry90Vn.s 			page 317


 12270 03c4 0AD7A33D 		.word	1034147594
 12271 03c8 00800945 		.word	1158250496
 12272 03cc 0000FA44 		.word	1157234688
 12273 03d0 0000A042 		.word	1117782016
 12274 03d4 00000000 		.space	12
 12274      00000000 
 12274      00000000 
 12275 03e0 48000000 		.word	.LC31
 12276 03e4 00002042 		.word	1109393408
 12277 03e8 0000C843 		.word	1137180672
 12278 03ec A25D1340 		.word	1075010978
 12279 03f0 0000803F 		.word	1065353216
 12280 03f4 AE47613E 		.word	1046562734
 12281 03f8 01       		.byte	1
 12282 03f9 000000   		.space	3
 12283 03fc CDCCCC3F 		.word	1070386381
 12284 0400 9A99193E 		.word	1041865114
 12285 0404 01       		.byte	1
 12286 0405 000000   		.space	3
 12287 0408 0000003F 		.word	1056964608
 12288 040c CDCCCC3D 		.word	1036831949
 12289 0410 01       		.byte	1
 12290 0411 000000   		.space	3
 12291 0414 00000040 		.word	1073741824
 12292 0418 00000000 		.word	0
 12293 041c 01       		.byte	1
 12294 041d 00       		.byte	0
 12295 041e 0000     		.space	2
 12296 0420 0000C040 		.word	1086324736
 12297 0424 00004040 		.word	1077936128
 12298 0428 9A99993E 		.word	1050253722
 12299 042c 0000C03F 		.word	1069547520
 12300 0430 3333333F 		.word	1060320051
 12301 0434 9A99993E 		.word	1050253722
 12302 0438 0000803F 		.word	1065353216
 12303 043c 00000000 		.word	0
 12304 0440 CDCCCC3D 		.word	1036831949
 12305 0444 0000803F 		.word	1065353216
 12306 0448 00001643 		.word	1125515264
 12307 044c 0000A040 		.word	1084227584
 12308 0450 0000803F 		.word	1065353216
 12309 0454 0000A042 		.word	1117782016
 12310 0458 00000000 		.space	4
 12311 045c 4C000000 		.word	.LC32
 12312 0460 0000F041 		.word	1106247680
 12313 0464 0000A042 		.word	1117782016
 12314 0468 AD177B3F 		.word	1065031597
 12315 046c 0000803F 		.word	1065353216
 12316 0470 CDCC0C3F 		.word	1057803469
 12317 0474 01       		.byte	1
 12318 0475 000000   		.space	3
 12319 0478 00000040 		.word	1073741824
 12320 047c CDCCCC3D 		.word	1036831949
 12321 0480 01       		.byte	1
 12322 0481 000000   		.space	3
 12323 0484 0000003F 		.word	1056964608
 12324 0488 9A99193E 		.word	1041865114
ARM GAS  /tmp/claude-502/ccry90Vn.s 			page 318


 12325 048c 01       		.byte	1
 12326 048d 000000   		.space	3
 12327 0490 00000040 		.word	1073741824
 12328 0494 00000000 		.word	0
 12329 0498 01       		.byte	1
 12330 0499 00       		.byte	0
 12331 049a 0000     		.space	2
 12332 049c 00004040 		.word	1077936128
 12333 04a0 00000040 		.word	1073741824
 12334 04a4 CDCC4C3E 		.word	1045220557
 12335 04a8 6666E63F 		.word	1072064102
 12336 04ac 0AD7A33D 		.word	1034147594
 12337 04b0 0000003F 		.word	1056964608
 12338 04b4 0000803F 		.word	1065353216
 12339 04b8 00000000 		.word	0
 12340 04bc 00000000 		.word	0
 12341 04c0 0000803F 		.word	1065353216
 12342 04c4 00002043 		.word	1126170624
 12343 04c8 0000A040 		.word	1084227584
 12344 04cc 00000040 		.word	1073741824
 12345 04d0 00003442 		.word	1110704128
 12346 04d4 00000000 		.space	4
 12347 04d8 54000000 		.word	.LC33
 12348 04dc 00001643 		.word	1125515264
 12349 04e0 0000FA43 		.word	1140457472
 12350 04e4 B01B9A3F 		.word	1067064240
 12351 04e8 0000803F 		.word	1065353216
 12352 04ec EC51383E 		.word	1043878380
 12353 04f0 01       		.byte	1
 12354 04f1 000000   		.space	3
 12355 04f4 6666E63F 		.word	1072064102
 12356 04f8 295C0F3E 		.word	1041194025
 12357 04fc 00       		.byte	0
 12358 04fd 000000   		.space	3
 12359 0500 0000003F 		.word	1056964608
 12360 0504 8FC2753D 		.word	1031127695
 12361 0508 01       		.byte	1
 12362 0509 000000   		.space	3
 12363 050c 00000040 		.word	1073741824
 12364 0510 00000000 		.word	0
 12365 0514 01       		.byte	1
 12366 0515 00       		.byte	0
 12367 0516 0000     		.space	2
 12368 0518 00009041 		.word	1099956224
 12369 051c 00008040 		.word	1082130432
 12370 0520 9A99993E 		.word	1050253722
 12371 0524 0000C03F 		.word	1069547520
 12372 0528 9A99593F 		.word	1062836634
 12373 052c 9A99993E 		.word	1050253722
 12374 0530 0000803F 		.word	1065353216
 12375 0534 00000000 		.word	0
 12376 0538 CDCCCC3D 		.word	1036831949
 12377 053c 0000803F 		.word	1065353216
 12378 0540 00000C43 		.word	1124859904
 12379 0544 0000A040 		.word	1084227584
 12380 0548 3333333F 		.word	1060320051
 12381 054c 0000F041 		.word	1106247680
ARM GAS  /tmp/claude-502/ccry90Vn.s 			page 319


 12382 0550 00000000 		.space	4
 12383 0554 5C000000 		.word	.LC34
 12384 0558 00007A45 		.word	1165623296
 12385 055c 00E02B46 		.word	1177280512
 12386 0560 1C7C813F 		.word	1065450524
 12387 0564 0000803F 		.word	1065353216
 12388 0568 CDCCCC3D 		.word	1036831949
 12389 056c 02       		.byte	2
 12390 056d 000000   		.space	3
 12391 0570 3D0AD73F 		.word	1071057469
 12392 0574 0AD7A33D 		.word	1034147594
 12393 0578 02       		.byte	2
 12394 0579 000000   		.space	3
 12395 057c 0000003F 		.word	1056964608
 12396 0580 00000000 		.word	0
 12397 0584 01       		.byte	1
 12398 0585 000000   		.space	3
 12399 0588 00000040 		.word	1073741824
 12400 058c 8FC2753D 		.word	1031127695
 12401 0590 02       		.byte	2
 12402 0591 00       		.byte	0
 12403 0592 0000     		.space	2
 12404 0594 0000C841 		.word	1103626240
 12405 0598 00000040 		.word	1073741824
 12406 059c CDCC4C3E 		.word	1045220557
 12407 05a0 9A99993F 		.word	1067030938
 12408 05a4 CDCC4C3F 		.word	1061997773
 12409 05a8 CDCC4C3E 		.word	1045220557
 12410 05ac 0000803F 		.word	1065353216
 12411 05b0 00000000 		.word	0
 12412 05b4 CDCC4C3D 		.word	1028443341
 12413 05b8 0000803F 		.word	1065353216
 12414 05bc 00002043 		.word	1126170624
 12415 05c0 00004040 		.word	1077936128
 12416 05c4 00000000 		.word	0
 12417 05c8 00000000 		.word	0
 12418 05cc 0000803F 		.word	1065353216
 12419 05d0 64000000 		.word	.LC35
 12420 05d4 0000F041 		.word	1106247680
 12421 05d8 0000A042 		.word	1117782016
 12422 05dc AD177B3F 		.word	1065031597
 12423 05e0 0000803F 		.word	1065353216
 12424 05e4 CDCC0C3F 		.word	1057803469
 12425 05e8 01       		.byte	1
 12426 05e9 000000   		.space	3
 12427 05ec 0000803F 		.word	1065353216
 12428 05f0 00000000 		.word	0
 12429 05f4 01       		.byte	1
 12430 05f5 000000   		.space	3
 12431 05f8 0000003F 		.word	1056964608
 12432 05fc 00000000 		.word	0
 12433 0600 01       		.byte	1
 12434 0601 000000   		.space	3
 12435 0604 00000040 		.word	1073741824
 12436 0608 00000000 		.word	0
 12437 060c 01       		.byte	1
 12438 060d 00       		.byte	0
ARM GAS  /tmp/claude-502/ccry90Vn.s 			page 320


 12439 060e 0000     		.space	2
 12440 0610 00004040 		.word	1077936128
 12441 0614 00000040 		.word	1073741824
 12442 0618 CDCC4C3E 		.word	1045220557
 12443 061c 0000803F 		.word	1065353216
 12444 0620 00000000 		.word	0
 12445 0624 0000003F 		.word	1056964608
 12446 0628 0000803F 		.word	1065353216
 12447 062c 00000000 		.word	0
 12448 0630 00000000 		.word	0
 12449 0634 0000803F 		.word	1065353216
 12450 0638 00002043 		.word	1126170624
 12451 063c 0000A040 		.word	1084227584
 12452 0640 00000000 		.word	0
 12453 0644 00000000 		.word	0
 12454 0648 00000000 		.word	0
 12455              		.section	.rodata._ZL7SCL_PIN,"a"
 12456              		.align	2
 12457              		.set	.LANCHOR45,. + 0
 12460              	_ZL7SCL_PIN:
 12461 0000 01       		.byte	1
 12462 0001 08       		.byte	8
 12463              		.section	.rodata._ZL7SDA_PIN,"a"
 12464              		.align	2
 12465              		.set	.LANCHOR43,. + 0
 12468              	_ZL7SDA_PIN:
 12469 0000 01       		.byte	1
 12470 0001 09       		.byte	9
 12471              		.section	.rodata._ZN5daisy4seedL2A0E,"a"
 12472              		.align	2
 12473              		.set	.LANCHOR50,. + 0
 12476              	_ZN5daisy4seedL2A0E:
 12477 0000 02       		.byte	2
 12478 0001 00       		.byte	0
 12479              		.text
 12480              	.Letext0:
 12481              		.file 12 "/Library/DaisyToolchain/0.2.0/arm/arm-none-eabi/include/machine/_default_types.h"
 12482              		.file 13 "/Library/DaisyToolchain/0.2.0/arm/arm-none-eabi/include/sys/_stdint.h"
 12483              		.file 14 "/Library/DaisyToolchain/0.2.0/arm/arm-none-eabi/include/stdint.h"
 12484              		.file 15 "/Library/DaisyToolchain/0.2.0/arm/lib/gcc/arm-none-eabi/10.3.1/include/stddef.h"
 12485              		.file 16 "/Library/DaisyToolchain/0.2.0/arm/arm-none-eabi/include/c++/10.3.1/cmath"
 12486              		.file 17 "/Library/DaisyToolchain/0.2.0/arm/arm-none-eabi/include/c++/10.3.1/bits/std_abs.h"
 12487              		.file 18 "/Library/DaisyToolchain/0.2.0/arm/arm-none-eabi/include/c++/10.3.1/cstdlib"
 12488              		.file 19 "/Library/DaisyToolchain/0.2.0/arm/arm-none-eabi/include/c++/10.3.1/cstdint"
 12489              		.file 20 "/Library/DaisyToolchain/0.2.0/arm/arm-none-eabi/include/c++/10.3.1/type_traits"
 12490              		.file 21 "/Library/DaisyToolchain/0.2.0/arm/arm-none-eabi/include/c++/10.3.1/debug/debug.h"
 12491              		.file 22 "/Library/DaisyToolchain/0.2.0/arm/arm-none-eabi/include/c++/10.3.1/arm-none-eabi/thumb/v
 12492              		.file 23 "/Library/DaisyToolchain/0.2.0/arm/arm-none-eabi/include/c++/10.3.1/bits/algorithmfwd.h"
 12493              		.file 24 "/Library/DaisyToolchain/0.2.0/arm/arm-none-eabi/include/c++/10.3.1/bits/stl_pair.h"
 12494              		.file 25 "/Library/DaisyToolchain/0.2.0/arm/arm-none-eabi/include/c++/10.3.1/bits/exception_ptr.h"
 12495              		.file 26 "/Library/DaisyToolchain/0.2.0/arm/arm-none-eabi/include/c++/10.3.1/cstdarg"
 12496              		.file 27 "/Library/DaisyToolchain/0.2.0/arm/arm-none-eabi/include/c++/10.3.1/cstdio"
 12497              		.file 28 "/Library/DaisyToolchain/0.2.0/arm/arm-none-eabi/include/c++/10.3.1/cstring"
 12498              		.file 29 "/Library/DaisyToolchain/0.2.0/arm/arm-none-eabi/include/c++/10.3.1/bits/predefined_ops.h
 12499              		.file 30 "/Library/DaisyToolchain/0.2.0/arm/arm-none-eabi/include/sys/_types.h"
 12500              		.file 31 "/Library/DaisyToolchain/0.2.0/arm/arm-none-eabi/include/sys/reent.h"
 12501              		.file 32 "/Library/DaisyToolchain/0.2.0/arm/arm-none-eabi/include/sys/lock.h"
ARM GAS  /tmp/claude-502/ccry90Vn.s 			page 321


 12502              		.file 33 "/Library/DaisyToolchain/0.2.0/arm/arm-none-eabi/include/math.h"
 12503              		.file 34 "/Library/DaisyToolchain/0.2.0/arm/arm-none-eabi/include/stdlib.h"
 12504              		.file 35 "/Library/DaisyToolchain/0.2.0/arm/arm-none-eabi/include/c++/10.3.1/math.h"
 12505              		.file 36 "/Library/DaisyToolchain/0.2.0/arm/arm-none-eabi/include/c++/10.3.1/stdlib.h"
 12506              		.file 37 "/Users/reza.kalfane/Workspaces/Daisy/DaisyExamples/libDaisy/src/per/tim.h"
 12507              		.file 38 "/Users/reza.kalfane/Workspaces/Daisy/DaisyExamples/libDaisy/src/hid/logger_impl.h"
 12508              		.file 39 "/Users/reza.kalfane/Workspaces/Daisy/DaisyExamples/libDaisy/src/util/wav_format.h"
 12509              		.file 40 "/Users/reza.kalfane/Workspaces/Daisy/DaisyExamples/libDaisy/src/dev/max11300.h"
 12510              		.file 41 "/Users/reza.kalfane/Workspaces/Daisy/DaisyExamples/libDaisy/src/hid/logger.h"
 12511              		.file 42 "/Users/reza.kalfane/Workspaces/Daisy/DaisyExamples/libDaisy/src/dev/sdram.h"
 12512              		.file 43 "/Library/DaisyToolchain/0.2.0/arm/lib/gcc/arm-none-eabi/10.3.1/include/stdarg.h"
 12513              		.file 44 "/Library/DaisyToolchain/0.2.0/arm/arm-none-eabi/include/stdio.h"
 12514              		.file 45 "/Library/DaisyToolchain/0.2.0/arm/arm-none-eabi/include/string.h"
 12515              		.file 46 "/Users/reza.kalfane/Workspaces/Daisy/DaisyExamples/libDaisy/src/dev/sr_595.h"
 12516              		.file 47 "<built-in>"
ARM GAS  /tmp/claude-502/ccry90Vn.s 			page 322


DEFINED SYMBOLS
                            *ABS*:0000000000000000 main.cpp
/tmp/claude-502/ccry90Vn.s:19     .text._ZN5daisy9DaisySeedD2Ev:0000000000000000 $t
/tmp/claude-502/ccry90Vn.s:26     .text._ZN5daisy9DaisySeedD2Ev:0000000000000000 _ZN5daisy9DaisySeedD2Ev
/tmp/claude-502/ccry90Vn.s:26     .text._ZN5daisy9DaisySeedD2Ev:0000000000000000 _ZN5daisy9DaisySeedD1Ev
/tmp/claude-502/ccry90Vn.s:67     .text._Z13AudioCallbackPKPKfPPfj:0000000000000000 $t
/tmp/claude-502/ccry90Vn.s:74     .text._Z13AudioCallbackPKPKfPPfj:0000000000000000 _Z13AudioCallbackPKPKfPPfj
/tmp/claude-502/ccry90Vn.s:597    .text._Z13AudioCallbackPKPKfPPfj:0000000000000280 $d
/tmp/claude-502/ccry90Vn.s:633    .text._Z13AudioCallbackPKPKfPPfj:00000000000002fc $t
/tmp/claude-502/ccry90Vn.s:1917   .text._Z13AudioCallbackPKPKfPPfj:00000000000009c4 $d
/tmp/claude-502/ccry90Vn.s:1948   .text._Z13AudioCallbackPKPKfPPfj:0000000000000a3c $t
/tmp/claude-502/ccry90Vn.s:2861   .text._Z13AudioCallbackPKPKfPPfj:0000000000000dc8 $d
/tmp/claude-502/ccry90Vn.s:2896   .text._Z13AudioCallbackPKPKfPPfj:0000000000000e14 $t
/tmp/claude-502/ccry90Vn.s:3586   .text._Z13AudioCallbackPKPKfPPfj:00000000000010a8 $d
/tmp/claude-502/ccry90Vn.s:3595   .text._Z9i2c_startv:0000000000000000 $t
/tmp/claude-502/ccry90Vn.s:3602   .text._Z9i2c_startv:0000000000000000 _Z9i2c_startv
/tmp/claude-502/ccry90Vn.s:3796   .text._Z9i2c_startv:000000000000007c $d
/tmp/claude-502/ccry90Vn.s:3806   .text._Z8i2c_stopv:0000000000000000 $t
/tmp/claude-502/ccry90Vn.s:3813   .text._Z8i2c_stopv:0000000000000000 _Z8i2c_stopv
/tmp/claude-502/ccry90Vn.s:3948   .text._Z8i2c_stopv:0000000000000058 $d
/tmp/claude-502/ccry90Vn.s:3958   .text._Z14i2c_write_byteh:0000000000000000 $t
/tmp/claude-502/ccry90Vn.s:3965   .text._Z14i2c_write_byteh:0000000000000000 _Z14i2c_write_byteh
/tmp/claude-502/ccry90Vn.s:4290   .text._Z14i2c_write_byteh:00000000000000e4 $d
/tmp/claude-502/ccry90Vn.s:4298   .text._Z13i2c_read_byteb:0000000000000000 $t
/tmp/claude-502/ccry90Vn.s:4305   .text._Z13i2c_read_byteb:0000000000000000 _Z13i2c_read_byteb
/tmp/claude-502/ccry90Vn.s:4655   .text._Z13i2c_read_byteb:00000000000000f4 $d
/tmp/claude-502/ccry90Vn.s:4665   .text._Z9mpr_writehh:0000000000000000 $t
/tmp/claude-502/ccry90Vn.s:4672   .text._Z9mpr_writehh:0000000000000000 _Z9mpr_writehh
/tmp/claude-502/ccry90Vn.s:4748   .text._Z8mpr_readhPhh:0000000000000000 $t
/tmp/claude-502/ccry90Vn.s:4755   .text._Z8mpr_readhPhh:0000000000000000 _Z8mpr_readhPhh
/tmp/claude-502/ccry90Vn.s:4874   .text._Z8mpr_initv:0000000000000000 $t
/tmp/claude-502/ccry90Vn.s:4881   .text._Z8mpr_initv:0000000000000000 _Z8mpr_initv
/tmp/claude-502/ccry90Vn.s:5067   .text._Z15read_electrodesPt:0000000000000000 $t
/tmp/claude-502/ccry90Vn.s:5074   .text._Z15read_electrodesPt:0000000000000000 _Z15read_electrodesPt
/tmp/claude-502/ccry90Vn.s:5136   .text._Z16capture_baselinePt:0000000000000000 $t
/tmp/claude-502/ccry90Vn.s:5143   .text._Z16capture_baselinePt:0000000000000000 _Z16capture_baselinePt
/tmp/claude-502/ccry90Vn.s:5264   .text._Z15centroid_windowPliiS_Pi:0000000000000000 $t
/tmp/claude-502/ccry90Vn.s:5271   .text._Z15centroid_windowPliiS_Pi:0000000000000000 _Z15centroid_windowPliiS_Pi
/tmp/claude-502/ccry90Vn.s:5404   .text._Z12pressure_pctli:0000000000000000 $t
/tmp/claude-502/ccry90Vn.s:5411   .text._Z12pressure_pctli:0000000000000000 _Z12pressure_pctli
/tmp/claude-502/ccry90Vn.s:5534   .text._Z12pressure_pctli:0000000000000078 $d
/tmp/claude-502/ccry90Vn.s:5539   .text._Z10detect_rawPlP6Finger:0000000000000000 $t
/tmp/claude-502/ccry90Vn.s:5546   .text._Z10detect_rawPlP6Finger:0000000000000000 _Z10detect_rawPlP6Finger
/tmp/claude-502/ccry90Vn.s:6038   .text._Z14update_trackedP6Fingeri:0000000000000000 $t
/tmp/claude-502/ccry90Vn.s:6045   .text._Z14update_trackedP6Fingeri:0000000000000000 _Z14update_trackedP6Fingeri
/tmp/claude-502/ccry90Vn.s:6285   .text._Z14update_trackedP6Fingeri:00000000000000e4 $d
/tmp/claude-502/ccry90Vn.s:6292   .text._Z13quantize_midif:0000000000000000 $t
/tmp/claude-502/ccry90Vn.s:6299   .text._Z13quantize_midif:0000000000000000 _Z13quantize_midif
/tmp/claude-502/ccry90Vn.s:6417   .text._Z13quantize_midif:0000000000000074 $d
/tmp/claude-502/ccry90Vn.s:6423   .text._Z8make_barPclli:0000000000000000 $t
/tmp/claude-502/ccry90Vn.s:6430   .text._Z8make_barPclli:0000000000000000 _Z8make_barPclli
/tmp/claude-502/ccry90Vn.s:6526   .text._Z12make_pos_barPci:0000000000000000 $t
/tmp/claude-502/ccry90Vn.s:6533   .text._Z12make_pos_barPci:0000000000000000 _Z12make_pos_barPci
/tmp/claude-502/ccry90Vn.s:6682   .text._Z12make_pos_barPci:0000000000000078 $d
/tmp/claude-502/ccry90Vn.s:6687   .rodata.main.str1.4:0000000000000000 $d
/tmp/claude-502/ccry90Vn.s:6759   .text.startup.main:0000000000000000 $t
/tmp/claude-502/ccry90Vn.s:6766   .text.startup.main:0000000000000000 main
ARM GAS  /tmp/claude-502/ccry90Vn.s 			page 323


/tmp/claude-502/ccry90Vn.s:7441   .text.startup.main:0000000000000250 $d
/tmp/claude-502/ccry90Vn.s:7475   .text.startup.main:00000000000002c4 $t
/tmp/claude-502/ccry90Vn.s:7991   .text.startup.main:0000000000000504 $d
/tmp/claude-502/ccry90Vn.s:8018   .text.startup.main:0000000000000550 $t
/tmp/claude-502/ccry90Vn.s:8868   .text.startup.main:000000000000086c $d
/tmp/claude-502/ccry90Vn.s:8896   .text.startup.main:00000000000008c8 $t
/tmp/claude-502/ccry90Vn.s:9327   .text.startup.main:0000000000000adc $d
/tmp/claude-502/ccry90Vn.s:9350   .text.startup.main:0000000000000b10 $t
/tmp/claude-502/ccry90Vn.s:10165  .text.startup.main:0000000000000ef8 $d
/tmp/claude-502/ccry90Vn.s:10197  .text.startup.main:0000000000000f5c $t
/tmp/claude-502/ccry90Vn.s:11275  .text.startup.main:0000000000001368 $d
/tmp/claude-502/ccry90Vn.s:11299  .text.startup._GLOBAL__sub_I_hw:0000000000000000 $t
/tmp/claude-502/ccry90Vn.s:11305  .text.startup._GLOBAL__sub_I_hw:0000000000000000 _GLOBAL__sub_I_hw
/tmp/claude-502/ccry90Vn.s:11547  .text.startup._GLOBAL__sub_I_hw:000000000000003c $d
/tmp/claude-502/ccry90Vn.s:11557  .init_array:0000000000000000 $d
/tmp/claude-502/ccry90Vn.s:11918  .data.g_master_vol:0000000000000000 g_master_vol
/tmp/claude-502/ccry90Vn.s:11799  .bss.g_led3_duty:0000000000000000 g_led3_duty
/tmp/claude-502/ccry90Vn.s:11779  .bss.g_amp_target:0000000000000000 g_amp_target
/tmp/claude-502/ccry90Vn.s:11792  .bss.g_finger_on:0000000000000000 g_finger_on
/tmp/claude-502/ccry90Vn.s:11806  .bss.g_ringmod:0000000000000000 g_ringmod
/tmp/claude-502/ccry90Vn.s:11786  .bss.g_bitcrush:0000000000000000 g_bitcrush
/tmp/claude-502/ccry90Vn.s:11820  .bss.g_vibrato_depth:0000000000000000 g_vibrato_depth
/tmp/claude-502/ccry90Vn.s:11932  .data.g_target_drive:0000000000000000 g_target_drive
/tmp/claude-502/ccry90Vn.s:11813  .bss.g_target_detune:0000000000000000 g_target_detune
/tmp/claude-502/ccry90Vn.s:11925  .data.g_target_cutoff:0000000000000000 g_target_cutoff
/tmp/claude-502/ccry90Vn.s:11939  .data.g_target_freq:0000000000000000 g_target_freq
/tmp/claude-502/ccry90Vn.s:11834  .bss.led3:0000000000000000 led3
/tmp/claude-502/ccry90Vn.s:11841  .bss.scl:0000000000000000 scl
/tmp/claude-502/ccry90Vn.s:11848  .bss.sda:0000000000000000 sda
/tmp/claude-502/ccry90Vn.s:11827  .bss.hw:0000000000000000 hw
/tmp/claude-502/ccry90Vn.s:11575  .rodata.str1.4:0000000000000000 $d
/tmp/claude-502/ccry90Vn.s:11615  .bss._ZL10s_bitcrush:0000000000000000 $d
/tmp/claude-502/ccry90Vn.s:11619  .bss._ZL10s_bitcrush:0000000000000000 _ZL10s_bitcrush
/tmp/claude-502/ccry90Vn.s:11622  .bss._ZL10s_noise_lp:0000000000000000 $d
/tmp/claude-502/ccry90Vn.s:11626  .bss._ZL10s_noise_lp:0000000000000000 _ZL10s_noise_lp
/tmp/claude-502/ccry90Vn.s:11629  .bss._ZL10s_phase_rm:0000000000000000 $d
/tmp/claude-502/ccry90Vn.s:11633  .bss._ZL10s_phase_rm:0000000000000000 _ZL10s_phase_rm
/tmp/claude-502/ccry90Vn.s:11636  .bss._ZL10s_vibdepth:0000000000000000 $d
/tmp/claude-502/ccry90Vn.s:11640  .bss._ZL10s_vibdepth:0000000000000000 _ZL10s_vibdepth
/tmp/claude-502/ccry90Vn.s:11643  .bss._ZL11s_lfo_phase:0000000000000000 $d
/tmp/claude-502/ccry90Vn.s:11647  .bss._ZL11s_lfo_phase:0000000000000000 _ZL11s_lfo_phase
/tmp/claude-502/ccry90Vn.s:11650  .bss._ZL11s_phase_oct:0000000000000000 $d
/tmp/claude-502/ccry90Vn.s:11654  .bss._ZL11s_phase_oct:0000000000000000 _ZL11s_phase_oct
/tmp/claude-502/ccry90Vn.s:11657  .bss._ZL11s_phase_sub:0000000000000000 $d
/tmp/claude-502/ccry90Vn.s:11661  .bss._ZL11s_phase_sub:0000000000000000 _ZL11s_phase_sub
/tmp/claude-502/ccry90Vn.s:11664  .bss._ZL5s_amp:0000000000000000 $d
/tmp/claude-502/ccry90Vn.s:11668  .bss._ZL5s_amp:0000000000000000 _ZL5s_amp
/tmp/claude-502/ccry90Vn.s:11671  .bss._ZL5s_flt:0000000000000000 $d
/tmp/claude-502/ccry90Vn.s:11675  .bss._ZL5s_flt:0000000000000000 _ZL5s_flt
/tmp/claude-502/ccry90Vn.s:11678  .bss._ZL7tracked:0000000000000000 $d
/tmp/claude-502/ccry90Vn.s:11682  .bss._ZL7tracked:0000000000000000 _ZL7tracked
/tmp/claude-502/ccry90Vn.s:11685  .bss._ZL8s_detune:0000000000000000 $d
/tmp/claude-502/ccry90Vn.s:11689  .bss._ZL8s_detune:0000000000000000 _ZL8s_detune
/tmp/claude-502/ccry90Vn.s:11692  .bss._ZL8s_phase1:0000000000000000 $d
/tmp/claude-502/ccry90Vn.s:11696  .bss._ZL8s_phase1:0000000000000000 _ZL8s_phase1
/tmp/claude-502/ccry90Vn.s:11699  .bss._ZL8s_phase2:0000000000000000 $d
/tmp/claude-502/ccry90Vn.s:11703  .bss._ZL8s_phase2:0000000000000000 _ZL8s_phase2
ARM GAS  /tmp/claude-502/ccry90Vn.s 			page 324


/tmp/claude-502/ccry90Vn.s:11706  .bss._ZL9s_ringmod:0000000000000000 $d
/tmp/claude-502/ccry90Vn.s:11710  .bss._ZL9s_ringmod:0000000000000000 _ZL9s_ringmod
/tmp/claude-502/ccry90Vn.s:11716  .bss._ZZ13AudioCallbackPKPKfPPfjE10led3_state:0000000000000000 _ZZ13AudioCallbackPKPKfPPfjE10led3_state
/tmp/claude-502/ccry90Vn.s:11717  .bss._ZZ13AudioCallbackPKPKfPPfjE10led3_state:0000000000000000 $d
/tmp/claude-502/ccry90Vn.s:11719  .bss._ZZ13AudioCallbackPKPKfPPfjE11pwm_counter:0000000000000000 $d
/tmp/claude-502/ccry90Vn.s:11723  .bss._ZZ13AudioCallbackPKPKfPPfjE11pwm_counter:0000000000000000 _ZZ13AudioCallbackPKPKfPPfjE11pwm_counter
/tmp/claude-502/ccry90Vn.s:11726  .bss._ZZ13AudioCallbackPKPKfPPfjE11s_prev_tamp:0000000000000000 $d
/tmp/claude-502/ccry90Vn.s:11730  .bss._ZZ13AudioCallbackPKPKfPPfjE11s_prev_tamp:0000000000000000 _ZZ13AudioCallbackPKPKfPPfjE11s_prev_tamp
/tmp/claude-502/ccry90Vn.s:11733  .bss._ZZ13AudioCallbackPKPKfPPfjE12s_penv_start:0000000000000000 $d
/tmp/claude-502/ccry90Vn.s:11737  .bss._ZZ13AudioCallbackPKPKfPPfjE12s_penv_start:0000000000000000 _ZZ13AudioCallbackPKPKfPPfjE12s_penv_start
/tmp/claude-502/ccry90Vn.s:11740  .bss._ZZ13AudioCallbackPKPKfPPfjE16led3_duty_smooth:0000000000000000 $d
/tmp/claude-502/ccry90Vn.s:11744  .bss._ZZ13AudioCallbackPKPKfPPfjE16led3_duty_smooth:0000000000000000 _ZZ13AudioCallbackPKPKfPPfjE16led3_duty_smooth
/tmp/claude-502/ccry90Vn.s:11747  .bss._ZZ13AudioCallbackPKPKfPPfjE7s_atk_c:0000000000000000 $d
/tmp/claude-502/ccry90Vn.s:11751  .bss._ZZ13AudioCallbackPKPKfPPfjE7s_atk_c:0000000000000000 _ZZ13AudioCallbackPKPKfPPfjE7s_atk_c
/tmp/claude-502/ccry90Vn.s:11754  .bss._ZZ13AudioCallbackPKPKfPPfjE7s_rel_c:0000000000000000 $d
/tmp/claude-502/ccry90Vn.s:11758  .bss._ZZ13AudioCallbackPKPKfPPfjE7s_rel_c:0000000000000000 _ZZ13AudioCallbackPKPKfPPfjE7s_rel_c
/tmp/claude-502/ccry90Vn.s:11761  .bss._ZZ13AudioCallbackPKPKfPPfjE8s_penv_c:0000000000000000 $d
/tmp/claude-502/ccry90Vn.s:11765  .bss._ZZ13AudioCallbackPKPKfPPfjE8s_penv_c:0000000000000000 _ZZ13AudioCallbackPKPKfPPfjE8s_penv_c
/tmp/claude-502/ccry90Vn.s:11768  .bss._ZZ13AudioCallbackPKPKfPPfjE9s_glide_c:0000000000000000 $d
/tmp/claude-502/ccry90Vn.s:11772  .bss._ZZ13AudioCallbackPKPKfPPfjE9s_glide_c:0000000000000000 _ZZ13AudioCallbackPKPKfPPfjE9s_glide_c
/tmp/claude-502/ccry90Vn.s:11775  .bss.g_amp_target:0000000000000000 $d
/tmp/claude-502/ccry90Vn.s:11782  .bss.g_bitcrush:0000000000000000 $d
/tmp/claude-502/ccry90Vn.s:11793  .bss.g_finger_on:0000000000000000 $d
/tmp/claude-502/ccry90Vn.s:11795  .bss.g_led3_duty:0000000000000000 $d
/tmp/claude-502/ccry90Vn.s:11802  .bss.g_ringmod:0000000000000000 $d
/tmp/claude-502/ccry90Vn.s:11809  .bss.g_target_detune:0000000000000000 $d
/tmp/claude-502/ccry90Vn.s:11816  .bss.g_vibrato_depth:0000000000000000 $d
/tmp/claude-502/ccry90Vn.s:11823  .bss.hw:0000000000000000 $d
/tmp/claude-502/ccry90Vn.s:11830  .bss.led3:0000000000000000 $d
/tmp/claude-502/ccry90Vn.s:11837  .bss.scl:0000000000000000 $d
/tmp/claude-502/ccry90Vn.s:11844  .bss.sda:0000000000000000 $d
/tmp/claude-502/ccry90Vn.s:11851  .data._ZL11g_voice_idx:0000000000000000 $d
/tmp/claude-502/ccry90Vn.s:11855  .data._ZL11g_voice_idx:0000000000000000 _ZL11g_voice_idx
/tmp/claude-502/ccry90Vn.s:11858  .data._ZL11s_noise_rng:0000000000000000 $d
/tmp/claude-502/ccry90Vn.s:11862  .data._ZL11s_noise_rng:0000000000000000 _ZL11s_noise_rng
/tmp/claude-502/ccry90Vn.s:11865  .data._ZL12s_master_vol:0000000000000000 $d
/tmp/claude-502/ccry90Vn.s:11869  .data._ZL12s_master_vol:0000000000000000 _ZL12s_master_vol
/tmp/claude-502/ccry90Vn.s:11872  .data._ZL14g_active_voice:0000000000000000 $d
/tmp/claude-502/ccry90Vn.s:11876  .data._ZL14g_active_voice:0000000000000000 _ZL14g_active_voice
/tmp/claude-502/ccry90Vn.s:11879  .data._ZL6s_freq:0000000000000000 $d
/tmp/claude-502/ccry90Vn.s:11883  .data._ZL6s_freq:0000000000000000 _ZL6s_freq
/tmp/claude-502/ccry90Vn.s:11886  .data._ZL7s_drive:0000000000000000 $d
/tmp/claude-502/ccry90Vn.s:11890  .data._ZL7s_drive:0000000000000000 _ZL7s_drive
/tmp/claude-502/ccry90Vn.s:11893  .data._ZL8s_cutoff:0000000000000000 $d
/tmp/claude-502/ccry90Vn.s:11897  .data._ZL8s_cutoff:0000000000000000 _ZL8s_cutoff
/tmp/claude-502/ccry90Vn.s:11900  .data._ZZ13AudioCallbackPKPKfPPfjE10s_coeff_vi:0000000000000000 $d
/tmp/claude-502/ccry90Vn.s:11904  .data._ZZ13AudioCallbackPKPKfPPfjE10s_coeff_vi:0000000000000000 _ZZ13AudioCallbackPKPKfPPfjE10s_coeff_vi
/tmp/claude-502/ccry90Vn.s:11907  .data._ZZ13AudioCallbackPKPKfPPfjE7s_pmult:0000000000000000 $d
/tmp/claude-502/ccry90Vn.s:11911  .data._ZZ13AudioCallbackPKPKfPPfjE7s_pmult:0000000000000000 _ZZ13AudioCallbackPKPKfPPfjE7s_pmult
/tmp/claude-502/ccry90Vn.s:11914  .data.g_master_vol:0000000000000000 $d
/tmp/claude-502/ccry90Vn.s:11921  .data.g_target_cutoff:0000000000000000 $d
/tmp/claude-502/ccry90Vn.s:11928  .data.g_target_drive:0000000000000000 $d
/tmp/claude-502/ccry90Vn.s:11935  .data.g_target_freq:0000000000000000 $d
/tmp/claude-502/ccry90Vn.s:11942  .rodata._ZL11MULTI_ZONES:0000000000000000 $d
/tmp/claude-502/ccry90Vn.s:11946  .rodata._ZL11MULTI_ZONES:0000000000000000 _ZL11MULTI_ZONES
/tmp/claude-502/ccry90Vn.s:11952  .rodata._ZL15MULTI_INTERVALS:0000000000000000 $d
/tmp/claude-502/ccry90Vn.s:11956  .rodata._ZL15MULTI_INTERVALS:0000000000000000 _ZL15MULTI_INTERVALS
ARM GAS  /tmp/claude-502/ccry90Vn.s 			page 325


/tmp/claude-502/ccry90Vn.s:11962  .rodata._ZL16PRESSURE_MAX_REF:0000000000000000 $d
/tmp/claude-502/ccry90Vn.s:11966  .rodata._ZL16PRESSURE_MAX_REF:0000000000000000 _ZL16PRESSURE_MAX_REF
/tmp/claude-502/ccry90Vn.s:11980  .rodata._ZL5SCALE:0000000000000000 $d
/tmp/claude-502/ccry90Vn.s:11984  .rodata._ZL5SCALE:0000000000000000 _ZL5SCALE
/tmp/claude-502/ccry90Vn.s:11998  .rodata._ZL6VOICES:0000000000000000 $d
/tmp/claude-502/ccry90Vn.s:12002  .rodata._ZL6VOICES:0000000000000000 _ZL6VOICES
/tmp/claude-502/ccry90Vn.s:12456  .rodata._ZL7SCL_PIN:0000000000000000 $d
/tmp/claude-502/ccry90Vn.s:12460  .rodata._ZL7SCL_PIN:0000000000000000 _ZL7SCL_PIN
/tmp/claude-502/ccry90Vn.s:12464  .rodata._ZL7SDA_PIN:0000000000000000 $d
/tmp/claude-502/ccry90Vn.s:12468  .rodata._ZL7SDA_PIN:0000000000000000 _ZL7SDA_PIN
/tmp/claude-502/ccry90Vn.s:12472  .rodata._ZN5daisy4seedL2A0E:0000000000000000 $d
/tmp/claude-502/ccry90Vn.s:12476  .rodata._ZN5daisy4seedL2A0E:0000000000000000 _ZN5daisy4seedL2A0E
                           .group:0000000000000000 _ZN5daisy9DaisySeedD5Ev

UNDEFINED SYMBOLS
_ZN5daisy9DaisySeed15AudioSampleRateEv
expf
exp2f
_ZN5daisy4GPIO5WriteEb
_ZN5daisy4GPIO4InitENS_3PinENS0_4ModeENS0_4PullENS0_5SpeedE
_ZN5daisy6System7DelayUsEm
_ZN5daisy4GPIO4ReadEv
_ZN5daisy6System5DelayEm
memset
__aeabi_ldivmod
_ZN5daisy9DaisySeed4InitEb
_ZN5daisy9DaisySeed17SetAudioBlockSizeEj
_ZN5daisy9DacHandle4InitERKNS0_6ConfigE
_ZN5daisy9DacHandle10WriteValueENS0_7ChannelEt
_ZN5daisy16AdcChannelConfig10InitSingleE12dsy_gpio_pinNS0_15ConversionSpeedE
_ZN5daisy9AdcHandle4InitEPNS_16AdcChannelConfigEjNS0_12OverSamplingE
_ZN5daisy9AdcHandle5StartEv
_ZN5daisy6System6GetNowEv
_ZNK5daisy9AdcHandle3GetEh
_ZN5daisy9DaisySeed10StartAudioEPFvPKPKfPPfjE
_ZN5daisy6LoggerILNS_17LoggerDestinationE1EE8StartLogEb
_ZN5daisy6LoggerILNS_17LoggerDestinationE1EE9PrintLineEPKcz
cosf
powf
sqrtf
__aeabi_atexit
__dso_handle
