ARM GAS  /tmp/claude-502/cc2bPfvH.s 			page 1


   1              		.cpu cortex-m7
   2              		.arch armv7e-m
   3              		.fpu fpv5-d16
   4              		.eabi_attribute 28, 1
   5              		.eabi_attribute 20, 1
   6              		.eabi_attribute 21, 1
   7              		.eabi_attribute 23, 3
   8              		.eabi_attribute 24, 1
   9              		.eabi_attribute 25, 1
  10              		.eabi_attribute 26, 1
  11              		.eabi_attribute 30, 2
  12              		.eabi_attribute 34, 1
  13              		.eabi_attribute 18, 4
  14              		.file	"main.cpp"
  15              		.text
  16              	.Ltext0:
  17              		.cfi_sections	.debug_frame
  18              		.section	.text._ZN5daisy9DaisySeedD2Ev,"axG",%progbits,_ZN5daisy9DaisySeedD5Ev,comdat
  19              		.align	1
  20              		.p2align 2,,3
  21              		.weak	_ZN5daisy9DaisySeedD2Ev
  22              		.syntax unified
  23              		.thumb
  24              		.thumb_func
  26              	_ZN5daisy9DaisySeedD2Ev:
  27              	.LVL0:
  28              	.LFB2556:
  29              		.file 1 "/Users/reza.kalfane/Workspaces/Daisy/DaisyExamples/libDaisy/src/daisy_seed.h"
   1:/Users/reza.kalfane/Workspaces/Daisy/DaisyExamples/libDaisy/src/daisy_seed.h **** #pragma once
   2:/Users/reza.kalfane/Workspaces/Daisy/DaisyExamples/libDaisy/src/daisy_seed.h **** #ifndef DSY_SEED_H
   3:/Users/reza.kalfane/Workspaces/Daisy/DaisyExamples/libDaisy/src/daisy_seed.h **** #define DSY_SEED_H
   4:/Users/reza.kalfane/Workspaces/Daisy/DaisyExamples/libDaisy/src/daisy_seed.h **** 
   5:/Users/reza.kalfane/Workspaces/Daisy/DaisyExamples/libDaisy/src/daisy_seed.h **** #include "daisy.h"
   6:/Users/reza.kalfane/Workspaces/Daisy/DaisyExamples/libDaisy/src/daisy_seed.h **** 
   7:/Users/reza.kalfane/Workspaces/Daisy/DaisyExamples/libDaisy/src/daisy_seed.h **** //Uncomment this out if you're still using the rev2 hardware
   8:/Users/reza.kalfane/Workspaces/Daisy/DaisyExamples/libDaisy/src/daisy_seed.h **** //#define SEED_REV2
   9:/Users/reza.kalfane/Workspaces/Daisy/DaisyExamples/libDaisy/src/daisy_seed.h **** 
  10:/Users/reza.kalfane/Workspaces/Daisy/DaisyExamples/libDaisy/src/daisy_seed.h **** namespace daisy
  11:/Users/reza.kalfane/Workspaces/Daisy/DaisyExamples/libDaisy/src/daisy_seed.h **** {
  12:/Users/reza.kalfane/Workspaces/Daisy/DaisyExamples/libDaisy/src/daisy_seed.h **** /**
  13:/Users/reza.kalfane/Workspaces/Daisy/DaisyExamples/libDaisy/src/daisy_seed.h ****    @brief This is the higher-level interface for the Daisy board. \n 
  14:/Users/reza.kalfane/Workspaces/Daisy/DaisyExamples/libDaisy/src/daisy_seed.h ****     All basic peripheral configuration/initialization is setup here. \n
  15:/Users/reza.kalfane/Workspaces/Daisy/DaisyExamples/libDaisy/src/daisy_seed.h **** 
  16:/Users/reza.kalfane/Workspaces/Daisy/DaisyExamples/libDaisy/src/daisy_seed.h ****    @ingroup boards
  17:/Users/reza.kalfane/Workspaces/Daisy/DaisyExamples/libDaisy/src/daisy_seed.h **** */
  18:/Users/reza.kalfane/Workspaces/Daisy/DaisyExamples/libDaisy/src/daisy_seed.h **** class DaisySeed
  19:/Users/reza.kalfane/Workspaces/Daisy/DaisyExamples/libDaisy/src/daisy_seed.h **** {
  20:/Users/reza.kalfane/Workspaces/Daisy/DaisyExamples/libDaisy/src/daisy_seed.h ****   public:
  21:/Users/reza.kalfane/Workspaces/Daisy/DaisyExamples/libDaisy/src/daisy_seed.h ****     DaisySeed() {}
  22:/Users/reza.kalfane/Workspaces/Daisy/DaisyExamples/libDaisy/src/daisy_seed.h ****     ~DaisySeed() {}
  30              		.loc 1 22 5 view -0
  31              		.cfi_startproc
  32              		@ args = 0, pretend = 0, frame = 0
  33              		@ frame_needed = 0, uses_anonymous_args = 0
  34              		@ link register save eliminated.
  35              	.LBB312:
  36              	.LBI312:
ARM GAS  /tmp/claude-502/cc2bPfvH.s 			page 2


  37              		.file 2 "/Users/reza.kalfane/Workspaces/Daisy/DaisyExamples/libDaisy/src/sys/system.h"
   1:/Users/reza.kalfane/Workspaces/Daisy/DaisyExamples/libDaisy/src/sys/system.h **** #ifndef DSY_SYSTEM_H
   2:/Users/reza.kalfane/Workspaces/Daisy/DaisyExamples/libDaisy/src/sys/system.h **** #define DSY_SYSTEM_H
   3:/Users/reza.kalfane/Workspaces/Daisy/DaisyExamples/libDaisy/src/sys/system.h **** 
   4:/Users/reza.kalfane/Workspaces/Daisy/DaisyExamples/libDaisy/src/sys/system.h **** #ifndef UNIT_TEST // for unit tests, a dummy implementation is provided below
   5:/Users/reza.kalfane/Workspaces/Daisy/DaisyExamples/libDaisy/src/sys/system.h **** 
   6:/Users/reza.kalfane/Workspaces/Daisy/DaisyExamples/libDaisy/src/sys/system.h **** #include <cstdint>
   7:/Users/reza.kalfane/Workspaces/Daisy/DaisyExamples/libDaisy/src/sys/system.h **** #include "per/tim.h"
   8:/Users/reza.kalfane/Workspaces/Daisy/DaisyExamples/libDaisy/src/sys/system.h **** 
   9:/Users/reza.kalfane/Workspaces/Daisy/DaisyExamples/libDaisy/src/sys/system.h **** namespace daisy
  10:/Users/reza.kalfane/Workspaces/Daisy/DaisyExamples/libDaisy/src/sys/system.h **** {
  11:/Users/reza.kalfane/Workspaces/Daisy/DaisyExamples/libDaisy/src/sys/system.h **** /** A handle for interacting with the Core System.
  12:/Users/reza.kalfane/Workspaces/Daisy/DaisyExamples/libDaisy/src/sys/system.h ****  ** This includes the Clock tree, MPU, global DMA initialization,
  13:/Users/reza.kalfane/Workspaces/Daisy/DaisyExamples/libDaisy/src/sys/system.h ****  ** cache handling, and any other necessary global initiailzation
  14:/Users/reza.kalfane/Workspaces/Daisy/DaisyExamples/libDaisy/src/sys/system.h ****  **
  15:/Users/reza.kalfane/Workspaces/Daisy/DaisyExamples/libDaisy/src/sys/system.h ****  ** @author shensley
  16:/Users/reza.kalfane/Workspaces/Daisy/DaisyExamples/libDaisy/src/sys/system.h ****  ** @ingroup system
  17:/Users/reza.kalfane/Workspaces/Daisy/DaisyExamples/libDaisy/src/sys/system.h ****  */
  18:/Users/reza.kalfane/Workspaces/Daisy/DaisyExamples/libDaisy/src/sys/system.h **** class System
  19:/Users/reza.kalfane/Workspaces/Daisy/DaisyExamples/libDaisy/src/sys/system.h **** {
  20:/Users/reza.kalfane/Workspaces/Daisy/DaisyExamples/libDaisy/src/sys/system.h ****   public:
  21:/Users/reza.kalfane/Workspaces/Daisy/DaisyExamples/libDaisy/src/sys/system.h ****     /** Contains settings for initializing the System */
  22:/Users/reza.kalfane/Workspaces/Daisy/DaisyExamples/libDaisy/src/sys/system.h ****     struct Config
  23:/Users/reza.kalfane/Workspaces/Daisy/DaisyExamples/libDaisy/src/sys/system.h ****     {
  24:/Users/reza.kalfane/Workspaces/Daisy/DaisyExamples/libDaisy/src/sys/system.h ****         /** Specifies the system clock frequency that feeds APB/AHB clocks, etc. */
  25:/Users/reza.kalfane/Workspaces/Daisy/DaisyExamples/libDaisy/src/sys/system.h ****         enum class SysClkFreq
  26:/Users/reza.kalfane/Workspaces/Daisy/DaisyExamples/libDaisy/src/sys/system.h ****         {
  27:/Users/reza.kalfane/Workspaces/Daisy/DaisyExamples/libDaisy/src/sys/system.h ****             FREQ_400MHZ,
  28:/Users/reza.kalfane/Workspaces/Daisy/DaisyExamples/libDaisy/src/sys/system.h ****             FREQ_480MHZ,
  29:/Users/reza.kalfane/Workspaces/Daisy/DaisyExamples/libDaisy/src/sys/system.h ****         };
  30:/Users/reza.kalfane/Workspaces/Daisy/DaisyExamples/libDaisy/src/sys/system.h **** 
  31:/Users/reza.kalfane/Workspaces/Daisy/DaisyExamples/libDaisy/src/sys/system.h ****         /** Method to call on the struct to set to defaults
  32:/Users/reza.kalfane/Workspaces/Daisy/DaisyExamples/libDaisy/src/sys/system.h ****          ** CPU Freq set to 400MHz
  33:/Users/reza.kalfane/Workspaces/Daisy/DaisyExamples/libDaisy/src/sys/system.h ****          ** Cache Enabled
  34:/Users/reza.kalfane/Workspaces/Daisy/DaisyExamples/libDaisy/src/sys/system.h ****          ** */
  35:/Users/reza.kalfane/Workspaces/Daisy/DaisyExamples/libDaisy/src/sys/system.h ****         void Defaults()
  36:/Users/reza.kalfane/Workspaces/Daisy/DaisyExamples/libDaisy/src/sys/system.h ****         {
  37:/Users/reza.kalfane/Workspaces/Daisy/DaisyExamples/libDaisy/src/sys/system.h ****             cpu_freq    = SysClkFreq::FREQ_400MHZ;
  38:/Users/reza.kalfane/Workspaces/Daisy/DaisyExamples/libDaisy/src/sys/system.h ****             use_dcache  = true;
  39:/Users/reza.kalfane/Workspaces/Daisy/DaisyExamples/libDaisy/src/sys/system.h ****             use_icache  = true;
  40:/Users/reza.kalfane/Workspaces/Daisy/DaisyExamples/libDaisy/src/sys/system.h ****             skip_clocks = false;
  41:/Users/reza.kalfane/Workspaces/Daisy/DaisyExamples/libDaisy/src/sys/system.h ****         }
  42:/Users/reza.kalfane/Workspaces/Daisy/DaisyExamples/libDaisy/src/sys/system.h **** 
  43:/Users/reza.kalfane/Workspaces/Daisy/DaisyExamples/libDaisy/src/sys/system.h ****         /** Method to call on the struct to set to boost mode:
  44:/Users/reza.kalfane/Workspaces/Daisy/DaisyExamples/libDaisy/src/sys/system.h ****          ** CPU Freq set to 480MHz
  45:/Users/reza.kalfane/Workspaces/Daisy/DaisyExamples/libDaisy/src/sys/system.h ****          ** Cache Enabled
  46:/Users/reza.kalfane/Workspaces/Daisy/DaisyExamples/libDaisy/src/sys/system.h ****          ** */
  47:/Users/reza.kalfane/Workspaces/Daisy/DaisyExamples/libDaisy/src/sys/system.h ****         void Boost()
  48:/Users/reza.kalfane/Workspaces/Daisy/DaisyExamples/libDaisy/src/sys/system.h ****         {
  49:/Users/reza.kalfane/Workspaces/Daisy/DaisyExamples/libDaisy/src/sys/system.h ****             cpu_freq    = SysClkFreq::FREQ_480MHZ;
  50:/Users/reza.kalfane/Workspaces/Daisy/DaisyExamples/libDaisy/src/sys/system.h ****             use_dcache  = true;
  51:/Users/reza.kalfane/Workspaces/Daisy/DaisyExamples/libDaisy/src/sys/system.h ****             use_icache  = true;
  52:/Users/reza.kalfane/Workspaces/Daisy/DaisyExamples/libDaisy/src/sys/system.h ****             skip_clocks = false;
  53:/Users/reza.kalfane/Workspaces/Daisy/DaisyExamples/libDaisy/src/sys/system.h ****         }
  54:/Users/reza.kalfane/Workspaces/Daisy/DaisyExamples/libDaisy/src/sys/system.h **** 
  55:/Users/reza.kalfane/Workspaces/Daisy/DaisyExamples/libDaisy/src/sys/system.h ****         SysClkFreq cpu_freq;
  56:/Users/reza.kalfane/Workspaces/Daisy/DaisyExamples/libDaisy/src/sys/system.h ****         bool       use_dcache;
ARM GAS  /tmp/claude-502/cc2bPfvH.s 			page 3


  57:/Users/reza.kalfane/Workspaces/Daisy/DaisyExamples/libDaisy/src/sys/system.h ****         bool       use_icache;
  58:/Users/reza.kalfane/Workspaces/Daisy/DaisyExamples/libDaisy/src/sys/system.h ****         bool       skip_clocks;
  59:/Users/reza.kalfane/Workspaces/Daisy/DaisyExamples/libDaisy/src/sys/system.h ****     };
  60:/Users/reza.kalfane/Workspaces/Daisy/DaisyExamples/libDaisy/src/sys/system.h **** 
  61:/Users/reza.kalfane/Workspaces/Daisy/DaisyExamples/libDaisy/src/sys/system.h ****     /** Describes the different regions of memory available to the Daisy */
  62:/Users/reza.kalfane/Workspaces/Daisy/DaisyExamples/libDaisy/src/sys/system.h ****     enum MemoryRegion
  63:/Users/reza.kalfane/Workspaces/Daisy/DaisyExamples/libDaisy/src/sys/system.h ****     {
  64:/Users/reza.kalfane/Workspaces/Daisy/DaisyExamples/libDaisy/src/sys/system.h ****         INTERNAL_FLASH = 0,
  65:/Users/reza.kalfane/Workspaces/Daisy/DaisyExamples/libDaisy/src/sys/system.h ****         ITCMRAM,
  66:/Users/reza.kalfane/Workspaces/Daisy/DaisyExamples/libDaisy/src/sys/system.h ****         DTCMRAM,
  67:/Users/reza.kalfane/Workspaces/Daisy/DaisyExamples/libDaisy/src/sys/system.h ****         SRAM_D1,
  68:/Users/reza.kalfane/Workspaces/Daisy/DaisyExamples/libDaisy/src/sys/system.h ****         SRAM_D2,
  69:/Users/reza.kalfane/Workspaces/Daisy/DaisyExamples/libDaisy/src/sys/system.h ****         SRAM_D3,
  70:/Users/reza.kalfane/Workspaces/Daisy/DaisyExamples/libDaisy/src/sys/system.h ****         SDRAM,
  71:/Users/reza.kalfane/Workspaces/Daisy/DaisyExamples/libDaisy/src/sys/system.h ****         QSPI,
  72:/Users/reza.kalfane/Workspaces/Daisy/DaisyExamples/libDaisy/src/sys/system.h ****         INVALID_ADDRESS,
  73:/Users/reza.kalfane/Workspaces/Daisy/DaisyExamples/libDaisy/src/sys/system.h ****     };
  74:/Users/reza.kalfane/Workspaces/Daisy/DaisyExamples/libDaisy/src/sys/system.h **** 
  75:/Users/reza.kalfane/Workspaces/Daisy/DaisyExamples/libDaisy/src/sys/system.h ****     /** Bootloader struct for controlling bootloading parameters */
  76:/Users/reza.kalfane/Workspaces/Daisy/DaisyExamples/libDaisy/src/sys/system.h ****     struct BootInfo
  77:/Users/reza.kalfane/Workspaces/Daisy/DaisyExamples/libDaisy/src/sys/system.h ****     {
  78:/Users/reza.kalfane/Workspaces/Daisy/DaisyExamples/libDaisy/src/sys/system.h ****         enum class Type : uint32_t
  79:/Users/reza.kalfane/Workspaces/Daisy/DaisyExamples/libDaisy/src/sys/system.h ****         {
  80:/Users/reza.kalfane/Workspaces/Daisy/DaisyExamples/libDaisy/src/sys/system.h ****             INVALID      = 0x00000000,
  81:/Users/reza.kalfane/Workspaces/Daisy/DaisyExamples/libDaisy/src/sys/system.h ****             JUMP         = 0xDEADBEEF,
  82:/Users/reza.kalfane/Workspaces/Daisy/DaisyExamples/libDaisy/src/sys/system.h ****             SKIP_TIMEOUT = 0x5AFEB007,
  83:/Users/reza.kalfane/Workspaces/Daisy/DaisyExamples/libDaisy/src/sys/system.h ****             INF_TIMEOUT  = 0xB0074EFA,
  84:/Users/reza.kalfane/Workspaces/Daisy/DaisyExamples/libDaisy/src/sys/system.h ****         } status;
  85:/Users/reza.kalfane/Workspaces/Daisy/DaisyExamples/libDaisy/src/sys/system.h ****         uint32_t data;
  86:/Users/reza.kalfane/Workspaces/Daisy/DaisyExamples/libDaisy/src/sys/system.h ****         enum class Version : uint32_t
  87:/Users/reza.kalfane/Workspaces/Daisy/DaisyExamples/libDaisy/src/sys/system.h ****         {
  88:/Users/reza.kalfane/Workspaces/Daisy/DaisyExamples/libDaisy/src/sys/system.h ****             LT_v6_0 = 0, // Less than v6.0
  89:/Users/reza.kalfane/Workspaces/Daisy/DaisyExamples/libDaisy/src/sys/system.h ****             NONE,        // No bootloader present
  90:/Users/reza.kalfane/Workspaces/Daisy/DaisyExamples/libDaisy/src/sys/system.h ****             v6_0,        // v6.0
  91:/Users/reza.kalfane/Workspaces/Daisy/DaisyExamples/libDaisy/src/sys/system.h ****             v6_1,        // v6.1 or greater
  92:/Users/reza.kalfane/Workspaces/Daisy/DaisyExamples/libDaisy/src/sys/system.h ****             LAST
  93:/Users/reza.kalfane/Workspaces/Daisy/DaisyExamples/libDaisy/src/sys/system.h ****         } version;
  94:/Users/reza.kalfane/Workspaces/Daisy/DaisyExamples/libDaisy/src/sys/system.h ****     };
  95:/Users/reza.kalfane/Workspaces/Daisy/DaisyExamples/libDaisy/src/sys/system.h **** 
  96:/Users/reza.kalfane/Workspaces/Daisy/DaisyExamples/libDaisy/src/sys/system.h ****     System() {}
  97:/Users/reza.kalfane/Workspaces/Daisy/DaisyExamples/libDaisy/src/sys/system.h ****     ~System() {}
  38              		.loc 2 97 5 view .LVU1
  39              		.loc 2 97 5 is_stmt 0 view .LVU2
  40              	.LBE312:
  41              	.LBB313:
  42              	.LBI313:
  43              		.file 3 "/Users/reza.kalfane/Workspaces/Daisy/DaisyExamples/libDaisy/src/hid/usb.h"
   1:/Users/reza.kalfane/Workspaces/Daisy/DaisyExamples/libDaisy/src/hid/usb.h **** #pragma once
   2:/Users/reza.kalfane/Workspaces/Daisy/DaisyExamples/libDaisy/src/hid/usb.h **** #ifndef DSY_HID_USB_H
   3:/Users/reza.kalfane/Workspaces/Daisy/DaisyExamples/libDaisy/src/hid/usb.h **** #define DSY_HID_USB_H
   4:/Users/reza.kalfane/Workspaces/Daisy/DaisyExamples/libDaisy/src/hid/usb.h **** #include <stdint.h>
   5:/Users/reza.kalfane/Workspaces/Daisy/DaisyExamples/libDaisy/src/hid/usb.h **** #include <stdlib.h>
   6:/Users/reza.kalfane/Workspaces/Daisy/DaisyExamples/libDaisy/src/hid/usb.h **** 
   7:/Users/reza.kalfane/Workspaces/Daisy/DaisyExamples/libDaisy/src/hid/usb.h **** namespace daisy
   8:/Users/reza.kalfane/Workspaces/Daisy/DaisyExamples/libDaisy/src/hid/usb.h **** /** @addtogroup human_interface
   9:/Users/reza.kalfane/Workspaces/Daisy/DaisyExamples/libDaisy/src/hid/usb.h ****     @{
  10:/Users/reza.kalfane/Workspaces/Daisy/DaisyExamples/libDaisy/src/hid/usb.h **** */
ARM GAS  /tmp/claude-502/cc2bPfvH.s 			page 4


  11:/Users/reza.kalfane/Workspaces/Daisy/DaisyExamples/libDaisy/src/hid/usb.h **** 
  12:/Users/reza.kalfane/Workspaces/Daisy/DaisyExamples/libDaisy/src/hid/usb.h **** {
  13:/Users/reza.kalfane/Workspaces/Daisy/DaisyExamples/libDaisy/src/hid/usb.h **** /** 
  14:/Users/reza.kalfane/Workspaces/Daisy/DaisyExamples/libDaisy/src/hid/usb.h ****     @brief Interface for initializing and using the USB Peripherals on the daisy
  15:/Users/reza.kalfane/Workspaces/Daisy/DaisyExamples/libDaisy/src/hid/usb.h ****     @author Stephen Hensley
  16:/Users/reza.kalfane/Workspaces/Daisy/DaisyExamples/libDaisy/src/hid/usb.h ****     @date December 2019
  17:/Users/reza.kalfane/Workspaces/Daisy/DaisyExamples/libDaisy/src/hid/usb.h **** */
  18:/Users/reza.kalfane/Workspaces/Daisy/DaisyExamples/libDaisy/src/hid/usb.h **** class UsbHandle
  19:/Users/reza.kalfane/Workspaces/Daisy/DaisyExamples/libDaisy/src/hid/usb.h **** {
  20:/Users/reza.kalfane/Workspaces/Daisy/DaisyExamples/libDaisy/src/hid/usb.h ****   public:
  21:/Users/reza.kalfane/Workspaces/Daisy/DaisyExamples/libDaisy/src/hid/usb.h ****     /** Return values for USBHandle Functions */
  22:/Users/reza.kalfane/Workspaces/Daisy/DaisyExamples/libDaisy/src/hid/usb.h ****     enum class Result
  23:/Users/reza.kalfane/Workspaces/Daisy/DaisyExamples/libDaisy/src/hid/usb.h ****     {
  24:/Users/reza.kalfane/Workspaces/Daisy/DaisyExamples/libDaisy/src/hid/usb.h ****         OK,
  25:/Users/reza.kalfane/Workspaces/Daisy/DaisyExamples/libDaisy/src/hid/usb.h ****         ERR,
  26:/Users/reza.kalfane/Workspaces/Daisy/DaisyExamples/libDaisy/src/hid/usb.h ****     };
  27:/Users/reza.kalfane/Workspaces/Daisy/DaisyExamples/libDaisy/src/hid/usb.h **** 
  28:/Users/reza.kalfane/Workspaces/Daisy/DaisyExamples/libDaisy/src/hid/usb.h ****     /** Specified which of the two USB Peripherals to initialize. */
  29:/Users/reza.kalfane/Workspaces/Daisy/DaisyExamples/libDaisy/src/hid/usb.h ****     enum UsbPeriph
  30:/Users/reza.kalfane/Workspaces/Daisy/DaisyExamples/libDaisy/src/hid/usb.h ****     {
  31:/Users/reza.kalfane/Workspaces/Daisy/DaisyExamples/libDaisy/src/hid/usb.h ****         FS_INTERNAL, /**< Internal pin */
  32:/Users/reza.kalfane/Workspaces/Daisy/DaisyExamples/libDaisy/src/hid/usb.h ****         FS_EXTERNAL, /**< FS External D+ pin is Pin 38 (GPIO32). FS External D- pin is Pin 37 (GPIO
  33:/Users/reza.kalfane/Workspaces/Daisy/DaisyExamples/libDaisy/src/hid/usb.h ****         FS_BOTH,     /**< Both */
  34:/Users/reza.kalfane/Workspaces/Daisy/DaisyExamples/libDaisy/src/hid/usb.h ****     };
  35:/Users/reza.kalfane/Workspaces/Daisy/DaisyExamples/libDaisy/src/hid/usb.h **** 
  36:/Users/reza.kalfane/Workspaces/Daisy/DaisyExamples/libDaisy/src/hid/usb.h **** 
  37:/Users/reza.kalfane/Workspaces/Daisy/DaisyExamples/libDaisy/src/hid/usb.h ****     /** Function called upon reception of a buffer */
  38:/Users/reza.kalfane/Workspaces/Daisy/DaisyExamples/libDaisy/src/hid/usb.h ****     typedef void (*ReceiveCallback)(uint8_t* buff, uint32_t* len);
  39:/Users/reza.kalfane/Workspaces/Daisy/DaisyExamples/libDaisy/src/hid/usb.h **** 
  40:/Users/reza.kalfane/Workspaces/Daisy/DaisyExamples/libDaisy/src/hid/usb.h ****     UsbHandle() {}
  41:/Users/reza.kalfane/Workspaces/Daisy/DaisyExamples/libDaisy/src/hid/usb.h **** 
  42:/Users/reza.kalfane/Workspaces/Daisy/DaisyExamples/libDaisy/src/hid/usb.h ****     ~UsbHandle() {}
  44              		.loc 3 42 5 is_stmt 1 view .LVU3
  45              		.loc 3 42 5 is_stmt 0 view .LVU4
  46              	.LBE313:
  47              	.LBB314:
  48              	.LBI314:
  49              		.file 4 "/Users/reza.kalfane/Workspaces/Daisy/DaisyExamples/libDaisy/src/per/adc.h"
   1:/Users/reza.kalfane/Workspaces/Daisy/DaisyExamples/libDaisy/src/per/adc.h **** #pragma once
   2:/Users/reza.kalfane/Workspaces/Daisy/DaisyExamples/libDaisy/src/per/adc.h **** #ifndef DSY_ADC_H
   3:/Users/reza.kalfane/Workspaces/Daisy/DaisyExamples/libDaisy/src/per/adc.h **** #define DSY_ADC_H /**< Macro */
   4:/Users/reza.kalfane/Workspaces/Daisy/DaisyExamples/libDaisy/src/per/adc.h **** #include <stdint.h>
   5:/Users/reza.kalfane/Workspaces/Daisy/DaisyExamples/libDaisy/src/per/adc.h **** #include <stdlib.h>
   6:/Users/reza.kalfane/Workspaces/Daisy/DaisyExamples/libDaisy/src/per/adc.h **** #include "daisy_core.h"
   7:/Users/reza.kalfane/Workspaces/Daisy/DaisyExamples/libDaisy/src/per/adc.h **** #include "per/gpio.h"
   8:/Users/reza.kalfane/Workspaces/Daisy/DaisyExamples/libDaisy/src/per/adc.h **** 
   9:/Users/reza.kalfane/Workspaces/Daisy/DaisyExamples/libDaisy/src/per/adc.h **** #define DSY_ADC_MAX_CHANNELS 16 /**< Maximum number of ADC channels */
  10:/Users/reza.kalfane/Workspaces/Daisy/DaisyExamples/libDaisy/src/per/adc.h **** 
  11:/Users/reza.kalfane/Workspaces/Daisy/DaisyExamples/libDaisy/src/per/adc.h **** namespace daisy
  12:/Users/reza.kalfane/Workspaces/Daisy/DaisyExamples/libDaisy/src/per/adc.h **** {
  13:/Users/reza.kalfane/Workspaces/Daisy/DaisyExamples/libDaisy/src/per/adc.h **** /** @addtogroup per_analog
  14:/Users/reza.kalfane/Workspaces/Daisy/DaisyExamples/libDaisy/src/per/adc.h ****     @{
  15:/Users/reza.kalfane/Workspaces/Daisy/DaisyExamples/libDaisy/src/per/adc.h **** */
  16:/Users/reza.kalfane/Workspaces/Daisy/DaisyExamples/libDaisy/src/per/adc.h **** 
  17:/Users/reza.kalfane/Workspaces/Daisy/DaisyExamples/libDaisy/src/per/adc.h **** /* While there may not be many configuration options here,
  18:/Users/reza.kalfane/Workspaces/Daisy/DaisyExamples/libDaisy/src/per/adc.h **** using a struct like this allows us to add more configuration
  19:/Users/reza.kalfane/Workspaces/Daisy/DaisyExamples/libDaisy/src/per/adc.h **** later without breaking existing functionality.
ARM GAS  /tmp/claude-502/cc2bPfvH.s 			page 5


  20:/Users/reza.kalfane/Workspaces/Daisy/DaisyExamples/libDaisy/src/per/adc.h **** */
  21:/Users/reza.kalfane/Workspaces/Daisy/DaisyExamples/libDaisy/src/per/adc.h **** 
  22:/Users/reza.kalfane/Workspaces/Daisy/DaisyExamples/libDaisy/src/per/adc.h **** /** @brief   Configuration Structure for an ADC Channel 
  23:/Users/reza.kalfane/Workspaces/Daisy/DaisyExamples/libDaisy/src/per/adc.h ****  *  @details This can be used to configure a a single input, 
  24:/Users/reza.kalfane/Workspaces/Daisy/DaisyExamples/libDaisy/src/per/adc.h ****  *           or a multiplexed input, allowing up to 8 inputs on 
  25:/Users/reza.kalfane/Workspaces/Daisy/DaisyExamples/libDaisy/src/per/adc.h ****  *           one channel.
  26:/Users/reza.kalfane/Workspaces/Daisy/DaisyExamples/libDaisy/src/per/adc.h ****  *  @note    Sharing data lines to multiple muxes _is_ possible, but
  27:/Users/reza.kalfane/Workspaces/Daisy/DaisyExamples/libDaisy/src/per/adc.h ****  *           each channel sharing data lines must be set to the maximum
  28:/Users/reza.kalfane/Workspaces/Daisy/DaisyExamples/libDaisy/src/per/adc.h ****  *           number of channels, even if some multiplexers have fewer
  29:/Users/reza.kalfane/Workspaces/Daisy/DaisyExamples/libDaisy/src/per/adc.h ****  *           inputs connected.
  30:/Users/reza.kalfane/Workspaces/Daisy/DaisyExamples/libDaisy/src/per/adc.h **** */
  31:/Users/reza.kalfane/Workspaces/Daisy/DaisyExamples/libDaisy/src/per/adc.h **** struct AdcChannelConfig
  32:/Users/reza.kalfane/Workspaces/Daisy/DaisyExamples/libDaisy/src/per/adc.h **** {
  33:/Users/reza.kalfane/Workspaces/Daisy/DaisyExamples/libDaisy/src/per/adc.h ****     /** Which pin to use for multiplexing */
  34:/Users/reza.kalfane/Workspaces/Daisy/DaisyExamples/libDaisy/src/per/adc.h ****     enum MuxPin
  35:/Users/reza.kalfane/Workspaces/Daisy/DaisyExamples/libDaisy/src/per/adc.h ****     {
  36:/Users/reza.kalfane/Workspaces/Daisy/DaisyExamples/libDaisy/src/per/adc.h ****         MUX_SEL_0,    /**< & */
  37:/Users/reza.kalfane/Workspaces/Daisy/DaisyExamples/libDaisy/src/per/adc.h ****         MUX_SEL_1,    /**< & */
  38:/Users/reza.kalfane/Workspaces/Daisy/DaisyExamples/libDaisy/src/per/adc.h ****         MUX_SEL_2,    /**< & */
  39:/Users/reza.kalfane/Workspaces/Daisy/DaisyExamples/libDaisy/src/per/adc.h ****         MUX_SEL_LAST, /**< & */
  40:/Users/reza.kalfane/Workspaces/Daisy/DaisyExamples/libDaisy/src/per/adc.h ****     };
  41:/Users/reza.kalfane/Workspaces/Daisy/DaisyExamples/libDaisy/src/per/adc.h **** 
  42:/Users/reza.kalfane/Workspaces/Daisy/DaisyExamples/libDaisy/src/per/adc.h ****     /** \brief per channel conversion speed added to fixed time based on bitdepth, etc. */
  43:/Users/reza.kalfane/Workspaces/Daisy/DaisyExamples/libDaisy/src/per/adc.h ****     enum ConversionSpeed
  44:/Users/reza.kalfane/Workspaces/Daisy/DaisyExamples/libDaisy/src/per/adc.h ****     {
  45:/Users/reza.kalfane/Workspaces/Daisy/DaisyExamples/libDaisy/src/per/adc.h ****         SPEED_1CYCLES_5,
  46:/Users/reza.kalfane/Workspaces/Daisy/DaisyExamples/libDaisy/src/per/adc.h ****         SPEED_2CYCLES_5,
  47:/Users/reza.kalfane/Workspaces/Daisy/DaisyExamples/libDaisy/src/per/adc.h ****         SPEED_8CYCLES_5,
  48:/Users/reza.kalfane/Workspaces/Daisy/DaisyExamples/libDaisy/src/per/adc.h ****         SPEED_16CYCLES_5,
  49:/Users/reza.kalfane/Workspaces/Daisy/DaisyExamples/libDaisy/src/per/adc.h ****         SPEED_32CYCLES_5,
  50:/Users/reza.kalfane/Workspaces/Daisy/DaisyExamples/libDaisy/src/per/adc.h ****         SPEED_64CYCLES_5,
  51:/Users/reza.kalfane/Workspaces/Daisy/DaisyExamples/libDaisy/src/per/adc.h ****         SPEED_387CYCLES_5,
  52:/Users/reza.kalfane/Workspaces/Daisy/DaisyExamples/libDaisy/src/per/adc.h ****         SPEED_810CYCLES_5,
  53:/Users/reza.kalfane/Workspaces/Daisy/DaisyExamples/libDaisy/src/per/adc.h ****     };
  54:/Users/reza.kalfane/Workspaces/Daisy/DaisyExamples/libDaisy/src/per/adc.h **** 
  55:/Users/reza.kalfane/Workspaces/Daisy/DaisyExamples/libDaisy/src/per/adc.h ****     /** Initializes a single ADC pin as an ADC. 
  56:/Users/reza.kalfane/Workspaces/Daisy/DaisyExamples/libDaisy/src/per/adc.h ****     \param pin Pin to init.
  57:/Users/reza.kalfane/Workspaces/Daisy/DaisyExamples/libDaisy/src/per/adc.h ****     \param speed conversion speed for this pin defaults to 8.5 cycles
  58:/Users/reza.kalfane/Workspaces/Daisy/DaisyExamples/libDaisy/src/per/adc.h ****      */
  59:/Users/reza.kalfane/Workspaces/Daisy/DaisyExamples/libDaisy/src/per/adc.h ****     void InitSingle(dsy_gpio_pin pin, ConversionSpeed speed = SPEED_8CYCLES_5);
  60:/Users/reza.kalfane/Workspaces/Daisy/DaisyExamples/libDaisy/src/per/adc.h **** 
  61:/Users/reza.kalfane/Workspaces/Daisy/DaisyExamples/libDaisy/src/per/adc.h ****     /** 
  62:/Users/reza.kalfane/Workspaces/Daisy/DaisyExamples/libDaisy/src/per/adc.h ****     Initializes a single ADC pin as a Multiplexed ADC.
  63:/Users/reza.kalfane/Workspaces/Daisy/DaisyExamples/libDaisy/src/per/adc.h ****     Requires a CD405X Multiplexer connected to the pin.
  64:/Users/reza.kalfane/Workspaces/Daisy/DaisyExamples/libDaisy/src/per/adc.h ****     You only need to supply the mux pins that are required,
  65:/Users/reza.kalfane/Workspaces/Daisy/DaisyExamples/libDaisy/src/per/adc.h ****     e.g. a 4052 mux would only require mux_0 and mux_1.
  66:/Users/reza.kalfane/Workspaces/Daisy/DaisyExamples/libDaisy/src/per/adc.h ****     Internal Callbacks handle the pin addressing.
  67:/Users/reza.kalfane/Workspaces/Daisy/DaisyExamples/libDaisy/src/per/adc.h ****     \param adc_pin &
  68:/Users/reza.kalfane/Workspaces/Daisy/DaisyExamples/libDaisy/src/per/adc.h ****     \param mux_channels must be 1-8
  69:/Users/reza.kalfane/Workspaces/Daisy/DaisyExamples/libDaisy/src/per/adc.h ****     \param mux_0 First mux pin
  70:/Users/reza.kalfane/Workspaces/Daisy/DaisyExamples/libDaisy/src/per/adc.h ****     \param mux_1 Second mux pin
  71:/Users/reza.kalfane/Workspaces/Daisy/DaisyExamples/libDaisy/src/per/adc.h ****     \param mux_2 Third mux pin
  72:/Users/reza.kalfane/Workspaces/Daisy/DaisyExamples/libDaisy/src/per/adc.h ****     \param speed conversion speed for this pin defaults to 8.5 cycles
  73:/Users/reza.kalfane/Workspaces/Daisy/DaisyExamples/libDaisy/src/per/adc.h ****     */
  74:/Users/reza.kalfane/Workspaces/Daisy/DaisyExamples/libDaisy/src/per/adc.h ****     void InitMux(dsy_gpio_pin    adc_pin,
  75:/Users/reza.kalfane/Workspaces/Daisy/DaisyExamples/libDaisy/src/per/adc.h ****                  size_t          mux_channels,
  76:/Users/reza.kalfane/Workspaces/Daisy/DaisyExamples/libDaisy/src/per/adc.h ****                  dsy_gpio_pin    mux_0,
ARM GAS  /tmp/claude-502/cc2bPfvH.s 			page 6


  77:/Users/reza.kalfane/Workspaces/Daisy/DaisyExamples/libDaisy/src/per/adc.h ****                  dsy_gpio_pin    mux_1 = {DSY_GPIOX, 0},
  78:/Users/reza.kalfane/Workspaces/Daisy/DaisyExamples/libDaisy/src/per/adc.h ****                  dsy_gpio_pin    mux_2 = {DSY_GPIOX, 0},
  79:/Users/reza.kalfane/Workspaces/Daisy/DaisyExamples/libDaisy/src/per/adc.h ****                  ConversionSpeed speed = SPEED_8CYCLES_5);
  80:/Users/reza.kalfane/Workspaces/Daisy/DaisyExamples/libDaisy/src/per/adc.h **** 
  81:/Users/reza.kalfane/Workspaces/Daisy/DaisyExamples/libDaisy/src/per/adc.h ****     dsy_gpio        pin_;                   /**< & */
  82:/Users/reza.kalfane/Workspaces/Daisy/DaisyExamples/libDaisy/src/per/adc.h ****     dsy_gpio        mux_pin_[MUX_SEL_LAST]; /**< & */
  83:/Users/reza.kalfane/Workspaces/Daisy/DaisyExamples/libDaisy/src/per/adc.h ****     uint8_t         mux_channels_;          /**< & */
  84:/Users/reza.kalfane/Workspaces/Daisy/DaisyExamples/libDaisy/src/per/adc.h ****     ConversionSpeed speed_;
  85:/Users/reza.kalfane/Workspaces/Daisy/DaisyExamples/libDaisy/src/per/adc.h **** };
  86:/Users/reza.kalfane/Workspaces/Daisy/DaisyExamples/libDaisy/src/per/adc.h **** 
  87:/Users/reza.kalfane/Workspaces/Daisy/DaisyExamples/libDaisy/src/per/adc.h **** /**
  88:/Users/reza.kalfane/Workspaces/Daisy/DaisyExamples/libDaisy/src/per/adc.h ****    @brief Handler for analog to digital conversion
  89:/Users/reza.kalfane/Workspaces/Daisy/DaisyExamples/libDaisy/src/per/adc.h **** */
  90:/Users/reza.kalfane/Workspaces/Daisy/DaisyExamples/libDaisy/src/per/adc.h **** class AdcHandle
  91:/Users/reza.kalfane/Workspaces/Daisy/DaisyExamples/libDaisy/src/per/adc.h **** {
  92:/Users/reza.kalfane/Workspaces/Daisy/DaisyExamples/libDaisy/src/per/adc.h ****   public:
  93:/Users/reza.kalfane/Workspaces/Daisy/DaisyExamples/libDaisy/src/per/adc.h ****     /** Supported oversampling amounts */
  94:/Users/reza.kalfane/Workspaces/Daisy/DaisyExamples/libDaisy/src/per/adc.h ****     enum OverSampling
  95:/Users/reza.kalfane/Workspaces/Daisy/DaisyExamples/libDaisy/src/per/adc.h ****     {
  96:/Users/reza.kalfane/Workspaces/Daisy/DaisyExamples/libDaisy/src/per/adc.h ****         OVS_NONE, /**< & */
  97:/Users/reza.kalfane/Workspaces/Daisy/DaisyExamples/libDaisy/src/per/adc.h ****         OVS_4,    /**< & */
  98:/Users/reza.kalfane/Workspaces/Daisy/DaisyExamples/libDaisy/src/per/adc.h ****         OVS_8,    /**< & */
  99:/Users/reza.kalfane/Workspaces/Daisy/DaisyExamples/libDaisy/src/per/adc.h ****         OVS_16,   /**< & */
 100:/Users/reza.kalfane/Workspaces/Daisy/DaisyExamples/libDaisy/src/per/adc.h ****         OVS_32,   /**< & */
 101:/Users/reza.kalfane/Workspaces/Daisy/DaisyExamples/libDaisy/src/per/adc.h ****         OVS_64,   /**< & */
 102:/Users/reza.kalfane/Workspaces/Daisy/DaisyExamples/libDaisy/src/per/adc.h ****         OVS_128,  /**< & */
 103:/Users/reza.kalfane/Workspaces/Daisy/DaisyExamples/libDaisy/src/per/adc.h ****         OVS_256,  /**< & */
 104:/Users/reza.kalfane/Workspaces/Daisy/DaisyExamples/libDaisy/src/per/adc.h ****         OVS_512,  /**< & */
 105:/Users/reza.kalfane/Workspaces/Daisy/DaisyExamples/libDaisy/src/per/adc.h ****         OVS_1024, /**< & */
 106:/Users/reza.kalfane/Workspaces/Daisy/DaisyExamples/libDaisy/src/per/adc.h ****         OVS_LAST, /**< & */
 107:/Users/reza.kalfane/Workspaces/Daisy/DaisyExamples/libDaisy/src/per/adc.h ****     };
 108:/Users/reza.kalfane/Workspaces/Daisy/DaisyExamples/libDaisy/src/per/adc.h **** 
 109:/Users/reza.kalfane/Workspaces/Daisy/DaisyExamples/libDaisy/src/per/adc.h ****     AdcHandle() {}
 110:/Users/reza.kalfane/Workspaces/Daisy/DaisyExamples/libDaisy/src/per/adc.h ****     ~AdcHandle() {}
  50              		.loc 4 110 5 is_stmt 1 view .LVU5
  51              		.loc 4 110 5 is_stmt 0 view .LVU6
  52              	.LBE314:
  53              	.LBB315:
  54              	.LBI315:
  55              		.file 5 "/Users/reza.kalfane/Workspaces/Daisy/DaisyExamples/libDaisy/src/hid/audio.h"
   1:/Users/reza.kalfane/Workspaces/Daisy/DaisyExamples/libDaisy/src/hid/audio.h **** #ifndef DSY_AUDIO_H
   2:/Users/reza.kalfane/Workspaces/Daisy/DaisyExamples/libDaisy/src/hid/audio.h **** #define DSY_AUDIO_H /**< & */
   3:/Users/reza.kalfane/Workspaces/Daisy/DaisyExamples/libDaisy/src/hid/audio.h **** 
   4:/Users/reza.kalfane/Workspaces/Daisy/DaisyExamples/libDaisy/src/hid/audio.h **** #include "per/sai.h"
   5:/Users/reza.kalfane/Workspaces/Daisy/DaisyExamples/libDaisy/src/hid/audio.h **** 
   6:/Users/reza.kalfane/Workspaces/Daisy/DaisyExamples/libDaisy/src/hid/audio.h **** namespace daisy
   7:/Users/reza.kalfane/Workspaces/Daisy/DaisyExamples/libDaisy/src/hid/audio.h **** {
   8:/Users/reza.kalfane/Workspaces/Daisy/DaisyExamples/libDaisy/src/hid/audio.h **** /** @brief Audio Engine Handle
   9:/Users/reza.kalfane/Workspaces/Daisy/DaisyExamples/libDaisy/src/hid/audio.h ****  *  @ingroup audio 
  10:/Users/reza.kalfane/Workspaces/Daisy/DaisyExamples/libDaisy/src/hid/audio.h ****  *  @details This class allows for higher level access to an audio engine.
  11:/Users/reza.kalfane/Workspaces/Daisy/DaisyExamples/libDaisy/src/hid/audio.h ****  *           If you're using a SOM like the DaisySeed or DaisyPatchSM (or any 
  12:/Users/reza.kalfane/Workspaces/Daisy/DaisyExamples/libDaisy/src/hid/audio.h ****  *            board that includes one of those objects) then the intialization
  13:/Users/reza.kalfane/Workspaces/Daisy/DaisyExamples/libDaisy/src/hid/audio.h ****  *            is already taken  care of.
  14:/Users/reza.kalfane/Workspaces/Daisy/DaisyExamples/libDaisy/src/hid/audio.h ****  *           If you're setting up your own custom hardware, or need to make changes
  15:/Users/reza.kalfane/Workspaces/Daisy/DaisyExamples/libDaisy/src/hid/audio.h ****  *           you will have to take the following steps:
  16:/Users/reza.kalfane/Workspaces/Daisy/DaisyExamples/libDaisy/src/hid/audio.h ****  *             1. Create and Initialize an SaiHandle or two depending on your requirements
  17:/Users/reza.kalfane/Workspaces/Daisy/DaisyExamples/libDaisy/src/hid/audio.h ****  *             2. Initialize the Audio Handle with the desired settings and the Initialized SaiHand
ARM GAS  /tmp/claude-502/cc2bPfvH.s 			page 7


  18:/Users/reza.kalfane/Workspaces/Daisy/DaisyExamples/libDaisy/src/hid/audio.h ****  *             3. If the connected codec requires special configuration or initialization, do so
  19:/Users/reza.kalfane/Workspaces/Daisy/DaisyExamples/libDaisy/src/hid/audio.h ****  *             4. Write a callback method using either the AudioCallback or the InterleavingAudioCa
  20:/Users/reza.kalfane/Workspaces/Daisy/DaisyExamples/libDaisy/src/hid/audio.h ****  *             5. Start the Audio using one of the StartAudio function
  21:/Users/reza.kalfane/Workspaces/Daisy/DaisyExamples/libDaisy/src/hid/audio.h ****  */
  22:/Users/reza.kalfane/Workspaces/Daisy/DaisyExamples/libDaisy/src/hid/audio.h **** class AudioHandle
  23:/Users/reza.kalfane/Workspaces/Daisy/DaisyExamples/libDaisy/src/hid/audio.h **** {
  24:/Users/reza.kalfane/Workspaces/Daisy/DaisyExamples/libDaisy/src/hid/audio.h ****   public:
  25:/Users/reza.kalfane/Workspaces/Daisy/DaisyExamples/libDaisy/src/hid/audio.h ****     /** Manually configurable details about the Audio Engine */
  26:/Users/reza.kalfane/Workspaces/Daisy/DaisyExamples/libDaisy/src/hid/audio.h ****     /** TODO: Figure out how to get samplerate in here. */
  27:/Users/reza.kalfane/Workspaces/Daisy/DaisyExamples/libDaisy/src/hid/audio.h ****     struct Config
  28:/Users/reza.kalfane/Workspaces/Daisy/DaisyExamples/libDaisy/src/hid/audio.h ****     {
  29:/Users/reza.kalfane/Workspaces/Daisy/DaisyExamples/libDaisy/src/hid/audio.h ****         /** number of samples to process per callback */
  30:/Users/reza.kalfane/Workspaces/Daisy/DaisyExamples/libDaisy/src/hid/audio.h ****         size_t blocksize;
  31:/Users/reza.kalfane/Workspaces/Daisy/DaisyExamples/libDaisy/src/hid/audio.h **** 
  32:/Users/reza.kalfane/Workspaces/Daisy/DaisyExamples/libDaisy/src/hid/audio.h ****         /**< Sample rate of audio */
  33:/Users/reza.kalfane/Workspaces/Daisy/DaisyExamples/libDaisy/src/hid/audio.h ****         SaiHandle::Config::SampleRate samplerate;
  34:/Users/reza.kalfane/Workspaces/Daisy/DaisyExamples/libDaisy/src/hid/audio.h **** 
  35:/Users/reza.kalfane/Workspaces/Daisy/DaisyExamples/libDaisy/src/hid/audio.h ****         /** factor for adjustment before and after callback for hardware that may have extra headro
  36:/Users/reza.kalfane/Workspaces/Daisy/DaisyExamples/libDaisy/src/hid/audio.h ****         float postgain;
  37:/Users/reza.kalfane/Workspaces/Daisy/DaisyExamples/libDaisy/src/hid/audio.h **** 
  38:/Users/reza.kalfane/Workspaces/Daisy/DaisyExamples/libDaisy/src/hid/audio.h ****         /** factor for additional one-sided compensation to audio path for hardware that may
  39:/Users/reza.kalfane/Workspaces/Daisy/DaisyExamples/libDaisy/src/hid/audio.h ****          *  have unequal input/output ranges
  40:/Users/reza.kalfane/Workspaces/Daisy/DaisyExamples/libDaisy/src/hid/audio.h ****          */
  41:/Users/reza.kalfane/Workspaces/Daisy/DaisyExamples/libDaisy/src/hid/audio.h ****         float output_compensation;
  42:/Users/reza.kalfane/Workspaces/Daisy/DaisyExamples/libDaisy/src/hid/audio.h **** 
  43:/Users/reza.kalfane/Workspaces/Daisy/DaisyExamples/libDaisy/src/hid/audio.h ****         /** Sets default values for config struct */
  44:/Users/reza.kalfane/Workspaces/Daisy/DaisyExamples/libDaisy/src/hid/audio.h ****         Config()
  45:/Users/reza.kalfane/Workspaces/Daisy/DaisyExamples/libDaisy/src/hid/audio.h ****         : blocksize(48),
  46:/Users/reza.kalfane/Workspaces/Daisy/DaisyExamples/libDaisy/src/hid/audio.h ****           samplerate(SaiHandle::Config::SampleRate::SAI_48KHZ),
  47:/Users/reza.kalfane/Workspaces/Daisy/DaisyExamples/libDaisy/src/hid/audio.h ****           postgain(1.f),
  48:/Users/reza.kalfane/Workspaces/Daisy/DaisyExamples/libDaisy/src/hid/audio.h ****           output_compensation(1.f)
  49:/Users/reza.kalfane/Workspaces/Daisy/DaisyExamples/libDaisy/src/hid/audio.h ****         {
  50:/Users/reza.kalfane/Workspaces/Daisy/DaisyExamples/libDaisy/src/hid/audio.h ****         }
  51:/Users/reza.kalfane/Workspaces/Daisy/DaisyExamples/libDaisy/src/hid/audio.h ****     };
  52:/Users/reza.kalfane/Workspaces/Daisy/DaisyExamples/libDaisy/src/hid/audio.h **** 
  53:/Users/reza.kalfane/Workspaces/Daisy/DaisyExamples/libDaisy/src/hid/audio.h ****     enum class Result
  54:/Users/reza.kalfane/Workspaces/Daisy/DaisyExamples/libDaisy/src/hid/audio.h ****     {
  55:/Users/reza.kalfane/Workspaces/Daisy/DaisyExamples/libDaisy/src/hid/audio.h ****         OK,
  56:/Users/reza.kalfane/Workspaces/Daisy/DaisyExamples/libDaisy/src/hid/audio.h ****         ERR,
  57:/Users/reza.kalfane/Workspaces/Daisy/DaisyExamples/libDaisy/src/hid/audio.h ****     };
  58:/Users/reza.kalfane/Workspaces/Daisy/DaisyExamples/libDaisy/src/hid/audio.h **** 
  59:/Users/reza.kalfane/Workspaces/Daisy/DaisyExamples/libDaisy/src/hid/audio.h ****     /** Non-Interleaving input buffer
  60:/Users/reza.kalfane/Workspaces/Daisy/DaisyExamples/libDaisy/src/hid/audio.h ****      * Buffer arranged by float[chn][sample] 
  61:/Users/reza.kalfane/Workspaces/Daisy/DaisyExamples/libDaisy/src/hid/audio.h ****      * const so that the user can't modify the input
  62:/Users/reza.kalfane/Workspaces/Daisy/DaisyExamples/libDaisy/src/hid/audio.h ****      */
  63:/Users/reza.kalfane/Workspaces/Daisy/DaisyExamples/libDaisy/src/hid/audio.h ****     typedef const float* const* InputBuffer;
  64:/Users/reza.kalfane/Workspaces/Daisy/DaisyExamples/libDaisy/src/hid/audio.h **** 
  65:/Users/reza.kalfane/Workspaces/Daisy/DaisyExamples/libDaisy/src/hid/audio.h ****     /** Non-Interleaving output buffer
  66:/Users/reza.kalfane/Workspaces/Daisy/DaisyExamples/libDaisy/src/hid/audio.h ****      * Arranged by float[chn][sample] 
  67:/Users/reza.kalfane/Workspaces/Daisy/DaisyExamples/libDaisy/src/hid/audio.h ****      */
  68:/Users/reza.kalfane/Workspaces/Daisy/DaisyExamples/libDaisy/src/hid/audio.h ****     typedef float** OutputBuffer;
  69:/Users/reza.kalfane/Workspaces/Daisy/DaisyExamples/libDaisy/src/hid/audio.h **** 
  70:/Users/reza.kalfane/Workspaces/Daisy/DaisyExamples/libDaisy/src/hid/audio.h ****     /** Type for a Non-Interleaving audio callback 
  71:/Users/reza.kalfane/Workspaces/Daisy/DaisyExamples/libDaisy/src/hid/audio.h ****      * Non-Interleaving audio callbacks in daisy will be of this type
  72:/Users/reza.kalfane/Workspaces/Daisy/DaisyExamples/libDaisy/src/hid/audio.h ****      */
  73:/Users/reza.kalfane/Workspaces/Daisy/DaisyExamples/libDaisy/src/hid/audio.h ****     typedef void (*AudioCallback)(InputBuffer  in,
  74:/Users/reza.kalfane/Workspaces/Daisy/DaisyExamples/libDaisy/src/hid/audio.h ****                                   OutputBuffer out,
ARM GAS  /tmp/claude-502/cc2bPfvH.s 			page 8


  75:/Users/reza.kalfane/Workspaces/Daisy/DaisyExamples/libDaisy/src/hid/audio.h ****                                   size_t       size);
  76:/Users/reza.kalfane/Workspaces/Daisy/DaisyExamples/libDaisy/src/hid/audio.h **** 
  77:/Users/reza.kalfane/Workspaces/Daisy/DaisyExamples/libDaisy/src/hid/audio.h ****     /** Interleaving Input buffer
  78:/Users/reza.kalfane/Workspaces/Daisy/DaisyExamples/libDaisy/src/hid/audio.h ****      ** audio is prepared as { L0, R0, L1, R1, . . . LN, RN }]
  79:/Users/reza.kalfane/Workspaces/Daisy/DaisyExamples/libDaisy/src/hid/audio.h ****      ** this is const, as the user shouldn't modify it
  80:/Users/reza.kalfane/Workspaces/Daisy/DaisyExamples/libDaisy/src/hid/audio.h ****     */
  81:/Users/reza.kalfane/Workspaces/Daisy/DaisyExamples/libDaisy/src/hid/audio.h ****     typedef const float* InterleavingInputBuffer;
  82:/Users/reza.kalfane/Workspaces/Daisy/DaisyExamples/libDaisy/src/hid/audio.h **** 
  83:/Users/reza.kalfane/Workspaces/Daisy/DaisyExamples/libDaisy/src/hid/audio.h ****     /** Interleaving Output buffer 
  84:/Users/reza.kalfane/Workspaces/Daisy/DaisyExamples/libDaisy/src/hid/audio.h ****      ** audio is prepared as { L0, R0, L1, R1, . . . LN, RN }
  85:/Users/reza.kalfane/Workspaces/Daisy/DaisyExamples/libDaisy/src/hid/audio.h ****     */
  86:/Users/reza.kalfane/Workspaces/Daisy/DaisyExamples/libDaisy/src/hid/audio.h ****     typedef float* InterleavingOutputBuffer;
  87:/Users/reza.kalfane/Workspaces/Daisy/DaisyExamples/libDaisy/src/hid/audio.h **** 
  88:/Users/reza.kalfane/Workspaces/Daisy/DaisyExamples/libDaisy/src/hid/audio.h ****     /** Interleaving Audio Callback 
  89:/Users/reza.kalfane/Workspaces/Daisy/DaisyExamples/libDaisy/src/hid/audio.h ****      * Interleaving audio callbacks in daisy must be of this type
  90:/Users/reza.kalfane/Workspaces/Daisy/DaisyExamples/libDaisy/src/hid/audio.h ****      */
  91:/Users/reza.kalfane/Workspaces/Daisy/DaisyExamples/libDaisy/src/hid/audio.h ****     typedef void (*InterleavingAudioCallback)(InterleavingInputBuffer  in,
  92:/Users/reza.kalfane/Workspaces/Daisy/DaisyExamples/libDaisy/src/hid/audio.h ****                                               InterleavingOutputBuffer out,
  93:/Users/reza.kalfane/Workspaces/Daisy/DaisyExamples/libDaisy/src/hid/audio.h ****                                               size_t                   size);
  94:/Users/reza.kalfane/Workspaces/Daisy/DaisyExamples/libDaisy/src/hid/audio.h **** 
  95:/Users/reza.kalfane/Workspaces/Daisy/DaisyExamples/libDaisy/src/hid/audio.h ****     AudioHandle() : pimpl_(nullptr) {}
  96:/Users/reza.kalfane/Workspaces/Daisy/DaisyExamples/libDaisy/src/hid/audio.h ****     ~AudioHandle() {}
  56              		.loc 5 96 5 is_stmt 1 view .LVU7
  57              		.loc 5 96 5 is_stmt 0 view .LVU8
  58              	.LBE315:
  59              		.loc 1 22 19 view .LVU9
  60 0000 7047     		bx	lr
  61              		.cfi_endproc
  62              	.LFE2556:
  64              		.weak	_ZN5daisy9DaisySeedD1Ev
  65              		.thumb_set _ZN5daisy9DaisySeedD1Ev,_ZN5daisy9DaisySeedD2Ev
  66 0002 00BF     		.section	.text._Z13quantize_midifPKai,"ax",%progbits
  67              		.align	1
  68              		.p2align 2,,3
  69              		.global	_Z13quantize_midifPKai
  70              		.syntax unified
  71              		.thumb
  72              		.thumb_func
  74              	_Z13quantize_midifPKai:
  75              	.LVL1:
  76              	.LFB2577:
  77              		.file 6 "src/main.cpp"
   1:src/main.cpp  **** /**
   2:src/main.cpp  ****  * mpr121_synth.cpp ŌĆö Glass Touch Moog Synth
   3:src/main.cpp  ****  * Daisy Seed ŌĆö Bit-Bang I2C  SDA=D12  SCL=D11
   4:src/main.cpp  ****  *
   5:src/main.cpp  ****  * FINGER 1:
   6:src/main.cpp  ****  *   Position  ŌåÆ Pitch (quantized on touch-down, continuous slide after)
   7:src/main.cpp  ****  *   Pressure  ŌåÆ Filter cutoff (light=dark/closed, hard=bright/open)
   8:src/main.cpp  ****  *               + Vibrato depth (press harder for more wobble)
   9:src/main.cpp  ****  *
  10:src/main.cpp  ****  * FINGER 2:
  11:src/main.cpp  ****  *   Position  ŌåÆ Oscillator detune (spread between osc1 and osc2)
  12:src/main.cpp  ****  *   Pressure  ŌåÆ Wavefold distortion (gentle saturation to complex fold)
  13:src/main.cpp  ****  *               + Ring mod amount (extreme pressure adds metallic edge)
  14:src/main.cpp  ****  *
  15:src/main.cpp  ****  * EXPRESSION:
ARM GAS  /tmp/claude-502/cc2bPfvH.s 			page 9


  16:src/main.cpp  ****  *   - Note quantize on initial touch, then free pitch bend on slide
  17:src/main.cpp  ****  *   - Pressure-controlled vibrato (LFO depth from finger 1 pressure)
  18:src/main.cpp  ****  *   - Portamento / glide between quantized notes
  19:src/main.cpp  ****  *   - Sub oscillator one octave below (adds weight)
  20:src/main.cpp  ****  *   - Soft-clip waveshaper before output
  21:src/main.cpp  ****  *   - Amplitude envelope: fast attack, pressure-controlled release
  22:src/main.cpp  ****  */
  23:src/main.cpp  **** 
  24:src/main.cpp  **** #include "daisy_seed.h"
  25:src/main.cpp  **** #include "util/PersistentStorage.h"
  26:src/main.cpp  **** #include <math.h>
  27:src/main.cpp  **** #include <string.h>
  28:src/main.cpp  **** 
  29:src/main.cpp  **** using namespace daisy;
  30:src/main.cpp  **** using namespace daisy::seed;
  31:src/main.cpp  **** 
  32:src/main.cpp  **** #include "config.h"   // tuning constants
  33:src/main.cpp  **** #include "dsp.h"      // oscillators, filters, math (Waveform)
  34:src/main.cpp  **** #include "voice.h"    // Voice struct, presets, bank, cycling
  35:src/main.cpp  **** #include "mpr121.h"   // capacitive sensor driver (bit-bang I2C)
  36:src/main.cpp  **** #include "touch.h"    // finger detection / tracking
  37:src/main.cpp  **** #include "engine.h"   // audio engine: synth state, drum voices, AudioCallback
  38:src/main.cpp  **** 
  39:src/main.cpp  **** // Persisted settings (saved to QSPI flash, survives power-off).
  40:src/main.cpp  **** struct PersistSettings {
  41:src/main.cpp  ****     int32_t voice_idx;
  42:src/main.cpp  ****     bool operator!=(const PersistSettings& o) const { return o.voice_idx != voice_idx; }
  43:src/main.cpp  **** };
  44:src/main.cpp  **** 
  45:src/main.cpp  **** 
  46:src/main.cpp  **** // Selected voice index ŌĆö set by the FSR-hold gesture, shown in the header.
  47:src/main.cpp  **** // Change the initial value to pick the boot voice.
  48:src/main.cpp  **** volatile int g_voice_idx = 2;                  // 2 = OpenBass (extern in engine.h)
  49:src/main.cpp  **** 
  50:src/main.cpp  **** // Active voice index ŌĆö what the audio engine actually plays. Normally tracks
  51:src/main.cpp  **** // g_voice_idx; in MultiVoice mode the touch loop routes it per tap to a drum.
  52:src/main.cpp  **** volatile int g_active_voice = 2;               // matches the boot voice (extern in engine.h)
  53:src/main.cpp  **** 
  54:src/main.cpp  **** 
  55:src/main.cpp  **** 
  56:src/main.cpp  **** 
  57:src/main.cpp  **** // ŌöĆŌöĆ Globals ŌöĆŌöĆŌöĆŌöĆŌöĆŌöĆŌöĆŌöĆŌöĆŌöĆŌöĆŌöĆŌöĆŌöĆŌöĆŌöĆŌöĆŌöĆŌöĆŌöĆŌöĆŌöĆŌöĆŌöĆŌöĆŌöĆŌöĆ
  58:src/main.cpp  **** DaisySeed hw;
  59:src/main.cpp  **** GPIO      led3;  // software-PWM LED on A0 (ADC0 / D15 / pin 22)
  60:src/main.cpp  **** 
  61:src/main.cpp  **** 
  62:src/main.cpp  **** 
  63:src/main.cpp  **** 
  64:src/main.cpp  **** // ŌöĆŌöĆ Note quantizer ŌöĆŌöĆŌöĆŌöĆŌöĆŌöĆŌöĆŌöĆŌöĆŌöĆŌöĆŌöĆŌöĆŌöĆŌöĆŌöĆŌöĆŌöĆŌöĆŌöĆŌöĆŌöĆŌöĆŌöĆŌö
  65:src/main.cpp  **** // Returns the nearest MIDI note in the given scale for a raw float MIDI pitch.
  66:src/main.cpp  **** // The scale is the voice's (Voice::scale / scale_len); a null/empty scale leaves
  67:src/main.cpp  **** // the pitch continuous.
  68:src/main.cpp  **** float quantize_midi(float midi, const int8_t* scale, int scale_len)
  69:src/main.cpp  **** {
  78              		.loc 6 69 1 is_stmt 1 view -0
  79              		.cfi_startproc
  80              		@ args = 0, pretend = 0, frame = 0
ARM GAS  /tmp/claude-502/cc2bPfvH.s 			page 10


  81              		@ frame_needed = 0, uses_anonymous_args = 0
  70:src/main.cpp  ****     if(!scale || scale_len <= 0) return midi;
  82              		.loc 6 70 5 view .LVU11
  83 0000 0028     		cmp	r0, #0
  84 0002 40D0     		beq	.L11
  85 0004 0029     		cmp	r1, #0
  69:src/main.cpp  ****     if(!scale || scale_len <= 0) return midi;
  86              		.loc 6 69 1 is_stmt 0 view .LVU12
  87 0006 2DE9F043 		push	{r4, r5, r6, r7, r8, r9, lr}
  88              		.cfi_def_cfa_offset 28
  89              		.cfi_offset 4, -28
  90              		.cfi_offset 5, -24
  91              		.cfi_offset 6, -20
  92              		.cfi_offset 7, -16
  93              		.cfi_offset 8, -12
  94              		.cfi_offset 9, -8
  95              		.cfi_offset 14, -4
  96              		.loc 6 70 5 view .LVU13
  97 000a CCBF     		ite	gt
  98 000c 0026     		movgt	r6, #0
  99 000e 0126     		movle	r6, #1
 100 0010 BEBB     		cbnz	r6, .L3
 101              	.LVL2:
 102              	.LBB320:
 103              	.LBI320:
  68:src/main.cpp  **** {
 104              		.loc 6 68 7 is_stmt 1 view .LVU14
 105              	.LBB321:
  71:src/main.cpp  ****     int root = (int)midi;
 106              		.loc 6 71 5 view .LVU15
 107              		.loc 6 71 9 is_stmt 0 view .LVU16
 108 0012 FDEEC07A 		vcvt.s32.f32	s15, s0
  72:src/main.cpp  ****     int pc   = root % 12;
 109              		.loc 6 72 9 view .LVU17
 110 0016 1C4B     		ldr	r3, .L14
 111 0018 441E     		subs	r4, r0, #1
  73:src/main.cpp  ****     int oct  = root / 12;
  74:src/main.cpp  ****     // find nearest scale degree
  75:src/main.cpp  ****     int best_deg=0, best_dist=127;
 112              		.loc 6 75 21 view .LVU18
 113 001a 7F27     		movs	r7, #127
  71:src/main.cpp  ****     int pc   = root % 12;
 114              		.loc 6 71 9 view .LVU19
 115 001c 17EE909A 		vmov	r9, s15	@ int
 116              	.LVL3:
  72:src/main.cpp  ****     int pc   = root % 12;
 117              		.loc 6 72 5 is_stmt 1 view .LVU20
  72:src/main.cpp  ****     int pc   = root % 12;
 118              		.loc 6 72 9 is_stmt 0 view .LVU21
 119 0020 83FB0923 		smull	r2, r3, r3, r9
 120 0024 4FEAE97E 		asr	lr, r9, #31
 121 0028 CEEB630E 		rsb	lr, lr, r3, asr #1
 122 002c 0EEB4E03 		add	r3, lr, lr, lsl #1
 123 0030 F046     		mov	r8, lr
 124 0032 A9EB830E 		sub	lr, r9, r3, lsl #2
 125              	.LVL4:
  73:src/main.cpp  ****     int oct  = root / 12;
ARM GAS  /tmp/claude-502/cc2bPfvH.s 			page 11


 126              		.loc 6 73 5 is_stmt 1 view .LVU22
 127              		.loc 6 75 5 view .LVU23
  76:src/main.cpp  ****     for(int i=0;i<scale_len;i++){
 128              		.loc 6 76 5 view .LVU24
 129              	.LBB322:
 130              		.loc 6 76 18 view .LVU25
 131              	.L7:
 132              	.LBB323:
  77:src/main.cpp  ****         int d=scale[i]-pc; if(d<0)d=-d;
 133              		.loc 6 77 9 view .LVU26
 134              		.loc 6 77 35 view .LVU27
 135 0036 2346     		mov	r3, r4
 136              		.loc 6 77 22 is_stmt 0 view .LVU28
 137 0038 14F901CF 		ldrsb	ip, [r4, #1]!
 138              	.LVL5:
 139              		.loc 6 77 28 is_stmt 1 view .LVU29
 140 003c BCEB0E02 		subs	r2, ip, lr
 141              	.LVL6:
 142              		.loc 6 77 28 is_stmt 0 view .LVU30
 143              	.LBE323:
  76:src/main.cpp  ****     for(int i=0;i<scale_len;i++){
 144              		.loc 6 76 18 view .LVU31
 145 0040 03F10203 		add	r3, r3, #2
 146              	.LBB324:
 147              		.loc 6 77 36 view .LVU32
 148 0044 48BF     		it	mi
 149 0046 AEEB0C02 		submi	r2, lr, ip
 150              	.LVL7:
  78:src/main.cpp  ****         int d2=12-d; if(d2<d)d=d2;
 151              		.loc 6 78 9 is_stmt 1 view .LVU33
 152              	.LBE324:
  76:src/main.cpp  ****     for(int i=0;i<scale_len;i++){
 153              		.loc 6 76 18 is_stmt 0 view .LVU34
 154 004a 1B1A     		subs	r3, r3, r0
 155              	.LBB325:
 156              		.loc 6 78 13 view .LVU35
 157 004c C2F10C05 		rsb	r5, r2, #12
 158              	.LVL8:
 159              		.loc 6 78 22 is_stmt 1 view .LVU36
 160 0050 AA42     		cmp	r2, r5
 161 0052 A8BF     		it	ge
 162 0054 2A46     		movge	r2, r5
 163              	.LVL9:
  79:src/main.cpp  ****         if(d<best_dist){best_dist=d;best_deg=scale[i];}
 164              		.loc 6 79 9 view .LVU37
 165 0056 BA42     		cmp	r2, r7
 166 0058 01DA     		bge	.L6
 167 005a 1746     		mov	r7, r2
 168              	.LVL10:
 169              		.loc 6 79 45 is_stmt 0 view .LVU38
 170 005c 6646     		mov	r6, ip
 171              	.L6:
 172              	.LVL11:
 173              		.loc 6 79 45 view .LVU39
 174              	.LBE325:
  76:src/main.cpp  ****         int d=scale[i]-pc; if(d<0)d=-d;
 175              		.loc 6 76 5 is_stmt 1 view .LVU40
ARM GAS  /tmp/claude-502/cc2bPfvH.s 			page 12


  76:src/main.cpp  ****         int d=scale[i]-pc; if(d<0)d=-d;
 176              		.loc 6 76 18 view .LVU41
 177 005e 9942     		cmp	r1, r3
 178 0060 E9DC     		bgt	.L7
 179              	.LBE322:
  80:src/main.cpp  ****     }
  81:src/main.cpp  ****     float q=(float)(oct*12+best_deg);
 180              		.loc 6 81 5 view .LVU42
 181              	.LVL12:
  82:src/main.cpp  ****     // fractional semitone from the quantized note (for slide expression)
  83:src/main.cpp  ****     float frac=midi-(float)root;
 182              		.loc 6 83 5 view .LVU43
  84:src/main.cpp  ****     return q+frac;
 183              		.loc 6 84 5 view .LVU44
  83:src/main.cpp  ****     return q+frac;
 184              		.loc 6 83 21 is_stmt 0 view .LVU45
 185 0062 07EE909A 		vmov	s15, r9	@ int
  81:src/main.cpp  ****     // fractional semitone from the quantized note (for slide expression)
 186              		.loc 6 81 24 view .LVU46
 187 0066 08EB4808 		add	r8, r8, r8, lsl #1
 188              	.LVL13:
  83:src/main.cpp  ****     return q+frac;
 189              		.loc 6 83 21 view .LVU47
 190 006a F8EEE77A 		vcvt.f32.s32	s15, s15
  81:src/main.cpp  ****     // fractional semitone from the quantized note (for slide expression)
 191              		.loc 6 81 27 view .LVU48
 192 006e 06EB8806 		add	r6, r6, r8, lsl #2
 193              	.LVL14:
  83:src/main.cpp  ****     return q+frac;
 194              		.loc 6 83 11 view .LVU49
 195 0072 30EE670A 		vsub.f32	s0, s0, s15
 196              	.LVL15:
  81:src/main.cpp  ****     // fractional semitone from the quantized note (for slide expression)
 197              		.loc 6 81 11 view .LVU50
 198 0076 07EE906A 		vmov	s15, r6	@ int
 199 007a F8EEE77A 		vcvt.f32.s32	s15, s15
 200              		.loc 6 84 14 view .LVU51
 201 007e 37EE800A 		vadd.f32	s0, s15, s0
 202              	.LVL16:
 203              	.L3:
 204              		.loc 6 84 14 view .LVU52
 205              	.LBE321:
 206              	.LBE320:
  85:src/main.cpp  **** }
 207              		.loc 6 85 1 view .LVU53
 208 0082 BDE8F083 		pop	{r4, r5, r6, r7, r8, r9, pc}
 209              	.LVL17:
 210              	.L11:
 211              		.cfi_def_cfa_offset 0
 212              		.cfi_restore 4
 213              		.cfi_restore 5
 214              		.cfi_restore 6
 215              		.cfi_restore 7
 216              		.cfi_restore 8
 217              		.cfi_restore 9
 218              		.cfi_restore 14
 219              		.loc 6 85 1 view .LVU54
ARM GAS  /tmp/claude-502/cc2bPfvH.s 			page 13


 220 0086 7047     		bx	lr
 221              	.L15:
 222              		.align	2
 223              	.L14:
 224 0088 ABAAAA2A 		.word	715827883
 225              		.cfi_endproc
 226              	.LFE2577:
 228              		.section	.text._Z8make_barPclli,"ax",%progbits
 229              		.align	1
 230              		.p2align 2,,3
 231              		.global	_Z8make_barPclli
 232              		.syntax unified
 233              		.thumb
 234              		.thumb_func
 236              	_Z8make_barPclli:
 237              	.LVL18:
 238              	.LFB2578:
  86:src/main.cpp  **** 
  87:src/main.cpp  **** 
  88:src/main.cpp  **** // ŌöĆŌöĆ Bar helpers ŌöĆŌöĆŌöĆŌöĆŌöĆŌöĆŌöĆŌöĆŌöĆŌöĆŌöĆŌöĆŌöĆŌöĆŌöĆŌöĆŌöĆŌöĆŌöĆŌöĆŌöĆŌöĆŌöĆŌöĆŌöĆŌö
  89:src/main.cpp  **** void make_bar(char* out,int32_t val,int32_t max,int w)
  90:src/main.cpp  **** {
 239              		.loc 6 90 1 is_stmt 1 view -0
 240              		.cfi_startproc
 241              		@ args = 0, pretend = 0, frame = 0
 242              		@ frame_needed = 0, uses_anonymous_args = 0
  91:src/main.cpp  ****     int n=(max>0&&val>0)?(int)((val*w+max/2)/max):0;
 243              		.loc 6 91 5 view .LVU56
 244              		.loc 6 91 25 is_stmt 0 view .LVU57
 245 0000 002A     		cmp	r2, #0
  90:src/main.cpp  ****     int n=(max>0&&val>0)?(int)((val*w+max/2)/max):0;
 246              		.loc 6 90 1 view .LVU58
 247 0002 10B5     		push	{r4, lr}
 248              		.cfi_def_cfa_offset 8
 249              		.cfi_offset 4, -8
 250              		.cfi_offset 14, -4
 251              		.loc 6 91 25 view .LVU59
 252 0004 23DD     		ble	.L21
 253 0006 0029     		cmp	r1, #0
 254 0008 21DD     		ble	.L21
 255              		.loc 6 91 42 discriminator 1 view .LVU60
 256 000a 4FEA620E 		asr	lr, r2, #1
 257              		.loc 6 91 38 discriminator 1 view .LVU61
 258 000e 03FB01E1 		mla	r1, r3, r1, lr
 259              	.LVL19:
 260              		.loc 6 91 25 discriminator 1 view .LVU62
 261 0012 91FBF2FC 		sdiv	ip, r1, r2
 262              	.L17:
 263              	.LVL20:
  92:src/main.cpp  ****     if(n>w)n=w;
 264              		.loc 6 92 5 is_stmt 1 discriminator 4 view .LVU63
 265 0016 9C45     		cmp	ip, r3
  93:src/main.cpp  ****     out[0]='[';
 266              		.loc 6 93 11 is_stmt 0 discriminator 4 view .LVU64
 267 0018 4FF05B02 		mov	r2, #91
 268              	.LVL21:
 269              		.loc 6 93 11 discriminator 4 view .LVU65
ARM GAS  /tmp/claude-502/cc2bPfvH.s 			page 14


 270 001c A8BF     		it	ge
 271 001e 9C46     		movge	ip, r3
 272              	.LVL22:
 273              		.loc 6 93 5 is_stmt 1 discriminator 4 view .LVU66
 274              	.LBB327:
  94:src/main.cpp  ****     for(int i=0;i<w;i++)out[1+i]=(i<n)?'#':' ';
 275              		.loc 6 94 18 is_stmt 0 discriminator 4 view .LVU67
 276 0020 002B     		cmp	r3, #0
 277              	.LBE327:
  93:src/main.cpp  ****     out[0]='[';
 278              		.loc 6 93 11 discriminator 4 view .LVU68
 279 0022 0270     		strb	r2, [r0]
 280              		.loc 6 94 5 is_stmt 1 discriminator 4 view .LVU69
 281              	.LVL23:
 282              	.LBB328:
 283              		.loc 6 94 18 discriminator 4 view .LVU70
 284 0024 0DDD     		ble	.L18
 285 0026 421C     		adds	r2, r0, #1
 286 0028 6FEA000E 		mvn	lr, r0
 287 002c D418     		adds	r4, r2, r3
 288              	.LVL24:
 289              	.L20:
 290              		.loc 6 94 25 discriminator 2 view .LVU71
 291              		.loc 6 94 39 is_stmt 0 discriminator 2 view .LVU72
 292 002e 0EEB0201 		add	r1, lr, r2
 293 0032 8C45     		cmp	ip, r1
 294 0034 D4BF     		ite	le
 295 0036 2021     		movle	r1, #32
 296 0038 2321     		movgt	r1, #35
 297              		.loc 6 94 33 discriminator 2 view .LVU73
 298 003a 02F8011B 		strb	r1, [r2], #1
 299              		.loc 6 94 5 is_stmt 1 discriminator 2 view .LVU74
 300              		.loc 6 94 18 discriminator 2 view .LVU75
 301 003e A242     		cmp	r2, r4
 302 0040 F5D1     		bne	.L20
 303              	.L18:
 304              		.loc 6 94 18 is_stmt 0 discriminator 2 view .LVU76
 305              	.LBE328:
  95:src/main.cpp  ****     out[1+w]=']';out[2+w]='\0';
 306              		.loc 6 95 5 is_stmt 1 view .LVU77
 307              		.loc 6 95 13 is_stmt 0 view .LVU78
 308 0042 1844     		add	r0, r0, r3
 309              	.LVL25:
 310              		.loc 6 95 13 view .LVU79
 311 0044 5D22     		movs	r2, #93
 312              		.loc 6 95 26 view .LVU80
 313 0046 0023     		movs	r3, #0
 314              	.LVL26:
 315              		.loc 6 95 13 view .LVU81
 316 0048 4270     		strb	r2, [r0, #1]
 317              		.loc 6 95 18 is_stmt 1 view .LVU82
 318              		.loc 6 95 26 is_stmt 0 view .LVU83
 319 004a 8370     		strb	r3, [r0, #2]
  96:src/main.cpp  **** }
 320              		.loc 6 96 1 view .LVU84
 321 004c 10BD     		pop	{r4, pc}
 322              	.LVL27:
ARM GAS  /tmp/claude-502/cc2bPfvH.s 			page 15


 323              	.L21:
  91:src/main.cpp  ****     if(n>w)n=w;
 324              		.loc 6 91 25 view .LVU85
 325 004e 4FF0000C 		mov	ip, #0
 326 0052 E0E7     		b	.L17
 327              		.cfi_endproc
 328              	.LFE2578:
 330              		.global	__aeabi_ldivmod
 331              		.section	.text._Z12make_pos_barPci,"ax",%progbits
 332              		.align	1
 333              		.p2align 2,,3
 334              		.global	_Z12make_pos_barPci
 335              		.syntax unified
 336              		.thumb
 337              		.thumb_func
 339              	_Z12make_pos_barPci:
 340              	.LVL28:
 341              	.LFB2579:
  97:src/main.cpp  **** 
  98:src/main.cpp  **** void make_pos_bar(char* out,int w)
  99:src/main.cpp  **** {
 342              		.loc 6 99 1 is_stmt 1 view -0
 343              		.cfi_startproc
 344              		@ args = 0, pretend = 0, frame = 0
 345              		@ frame_needed = 0, uses_anonymous_args = 0
 100:src/main.cpp  ****     out[0]='|';
 346              		.loc 6 100 5 view .LVU87
  99:src/main.cpp  ****     out[0]='|';
 347              		.loc 6 99 1 is_stmt 0 view .LVU88
 348 0000 2DE9F041 		push	{r4, r5, r6, r7, r8, lr}
 349              		.cfi_def_cfa_offset 24
 350              		.cfi_offset 4, -24
 351              		.cfi_offset 5, -20
 352              		.cfi_offset 6, -16
 353              		.cfi_offset 7, -12
 354              		.cfi_offset 8, -8
 355              		.cfi_offset 14, -4
 356              		.loc 6 100 11 view .LVU89
 357 0004 7C23     		movs	r3, #124
 358              	.LBB332:
 101:src/main.cpp  ****     for(int i=0;i<w;i++)out[1+i]='-';
 359              		.loc 6 101 18 view .LVU90
 360 0006 0E1E     		subs	r6, r1, #0
 361              	.LBE332:
  99:src/main.cpp  ****     out[0]='|';
 362              		.loc 6 99 1 view .LVU91
 363 0008 8046     		mov	r8, r0
 100:src/main.cpp  ****     out[0]='|';
 364              		.loc 6 100 11 view .LVU92
 365 000a 0370     		strb	r3, [r0]
 366              		.loc 6 101 5 is_stmt 1 view .LVU93
 367              	.LVL29:
 368              	.LBB333:
 369              		.loc 6 101 18 view .LVU94
 370 000c 04DD     		ble	.L34
 371              		.loc 6 101 33 is_stmt 0 view .LVU95
 372 000e 3246     		mov	r2, r6
ARM GAS  /tmp/claude-502/cc2bPfvH.s 			page 16


 373 0010 2D21     		movs	r1, #45
 374              	.LVL30:
 375              		.loc 6 101 33 view .LVU96
 376 0012 0130     		adds	r0, r0, #1
 377              	.LVL31:
 378              		.loc 6 101 33 view .LVU97
 379 0014 FFF7FEFF 		bl	memset
 380              	.LVL32:
 381              	.L34:
 382              		.loc 6 101 33 view .LVU98
 383              	.LBE333:
 102:src/main.cpp  ****     out[1+w]='|';out[2+w]='\0';
 384              		.loc 6 102 5 is_stmt 1 view .LVU99
 385              		.loc 6 102 13 is_stmt 0 view .LVU100
 386 0018 08EB0603 		add	r3, r8, r6
 387 001c 7C21     		movs	r1, #124
 388              		.loc 6 102 26 view .LVU101
 389 001e 0022     		movs	r2, #0
 390 0020 124D     		ldr	r5, .L43
 391 0022 3124     		movs	r4, #49
 392              		.loc 6 102 13 view .LVU102
 393 0024 5970     		strb	r1, [r3, #1]
 394              		.loc 6 102 18 is_stmt 1 view .LVU103
 395              		.loc 6 102 26 is_stmt 0 view .LVU104
 396 0026 9A70     		strb	r2, [r3, #2]
 103:src/main.cpp  ****     for(int slot=0;slot<MAX_FINGERS;slot++){
 397              		.loc 6 103 5 is_stmt 1 view .LVU105
 398              	.LVL33:
 399              	.LBB334:
 400              		.loc 6 103 24 view .LVU106
 401              	.L33:
 402              	.LBB335:
 104:src/main.cpp  ****         if(!tracked[slot].alive)continue;
 403              		.loc 6 104 9 view .LVU107
 105:src/main.cpp  ****         int p=(int)(((int64_t)tracked[slot].pos*(w-1)+500)/1000);
 404              		.loc 6 105 9 view .LVU108
 104:src/main.cpp  ****         if(!tracked[slot].alive)continue;
 405              		.loc 6 104 9 is_stmt 0 view .LVU109
 406 0028 95F800E0 		ldrb	lr, [r5]	@ zero_extendqisi2
 407              		.loc 6 105 51 view .LVU110
 408 002c 06F1FF3C 		add	ip, r6, #-1
 409              		.loc 6 105 54 view .LVU111
 410 0030 4FF4FA70 		mov	r0, #500
 411 0034 0021     		movs	r1, #0
 412              		.loc 6 105 59 view .LVU112
 413 0036 4FF47A72 		mov	r2, #1000
 414 003a 0023     		movs	r3, #0
 104:src/main.cpp  ****         if(!tracked[slot].alive)continue;
 415              		.loc 6 104 9 view .LVU113
 416 003c BEF1000F 		cmp	lr, #0
 417 0040 0CD0     		beq	.L35
 418              		.loc 6 105 59 view .LVU114
 419 0042 6F68     		ldr	r7, [r5, #4]
 420 0044 C7FB0C01 		smlal	r0, r1, r7, ip
 421 0048 FFF7FEFF 		bl	__aeabi_ldivmod
 422              	.LVL34:
 106:src/main.cpp  ****         if(p<0)p=0;if(p>=w)p=w-1;
ARM GAS  /tmp/claude-502/cc2bPfvH.s 			page 17


 423              		.loc 6 106 9 is_stmt 1 view .LVU115
 424 004c 20EAE073 		bic	r3, r0, r0, asr #31
 425              	.LVL35:
 426              		.loc 6 106 20 view .LVU116
 427 0050 3246     		mov	r2, r6
 428 0052 B342     		cmp	r3, r6
 107:src/main.cpp  ****         out[1+p]=(char)('1'+slot);
 429              		.loc 6 107 14 is_stmt 0 view .LVU117
 430 0054 B8BF     		it	lt
 431 0056 5A1C     		addlt	r2, r3, #1
 432              	.LVL36:
 433              		.loc 6 107 9 is_stmt 1 view .LVU118
 434              		.loc 6 107 17 is_stmt 0 view .LVU119
 435 0058 08F80240 		strb	r4, [r8, r2]
 436              	.L35:
 437              		.loc 6 107 17 view .LVU120
 438              	.LBE335:
 103:src/main.cpp  ****         if(!tracked[slot].alive)continue;
 439              		.loc 6 103 5 is_stmt 1 discriminator 2 view .LVU121
 103:src/main.cpp  ****         if(!tracked[slot].alive)continue;
 440              		.loc 6 103 24 discriminator 2 view .LVU122
 441 005c 0134     		adds	r4, r4, #1
 442 005e 1435     		adds	r5, r5, #20
 443 0060 E4B2     		uxtb	r4, r4
 444 0062 352C     		cmp	r4, #53
 445 0064 E0D1     		bne	.L33
 446              	.LBE334:
 108:src/main.cpp  ****     }
 109:src/main.cpp  **** }
 447              		.loc 6 109 1 is_stmt 0 view .LVU123
 448 0066 BDE8F081 		pop	{r4, r5, r6, r7, r8, pc}
 449              	.LVL37:
 450              	.L44:
 451              		.loc 6 109 1 view .LVU124
 452 006a 00BF     		.align	2
 453              	.L43:
 454 006c 00000000 		.word	tracked
 455              		.cfi_endproc
 456              	.LFE2579:
 458              		.section	.rodata.main.str1.4,"aMS",%progbits,1
 459              		.align	2
 460              	.LC0:
 461 0000 476C6173 		.ascii	"Glass Moog Synth\000"
 461      73204D6F 
 461      6F672053 
 461      796E7468 
 461      00
 462 0011 000000   		.align	2
 463              	.LC1:
 464 0014 3D3D3D3D 		.ascii	"================\000"
 464      3D3D3D3D 
 464      3D3D3D3D 
 464      3D3D3D3D 
 464      00
 465 0025 000000   		.align	2
 466              	.LC2:
 467 0028 566F6963 		.ascii	"Voice %d/%d: %s  (%d-%dHz)\000"
ARM GAS  /tmp/claude-502/cc2bPfvH.s 			page 18


 467      65202564 
 467      2F25643A 
 467      20257320 
 467      20282564 
 468 0043 00       		.align	2
 469              	.LC3:
 470 0044 46312070 		.ascii	"F1 pos=pitch  F1 prs=cutoff+vibrato\000"
 470      6F733D70 
 470      69746368 
 470      20204631 
 470      20707273 
 471              		.align	2
 472              	.LC4:
 473 0068 46322070 		.ascii	"F2 pos=detune F2 prs=wavefold+ringmod\000"
 473      6F733D64 
 473      6574756E 
 473      65204632 
 473      20707273 
 474 008e 0000     		.align	2
 475              	.LC5:
 476 0090 46322070 		.ascii	"F2 prs=wavefold+ringmod (osc2=fixed)\000"
 476      72733D77 
 476      61766566 
 476      6F6C642B 
 476      72696E67 
 477 00b5 000000   		.align	2
 478              	.LC6:
 479 00b8 50726573 		.ascii	"Press FSR fully (no touch) 2s -> select; tap to cyc"
 479      73204653 
 479      52206675 
 479      6C6C7920 
 479      286E6F20 
 480 00eb 6C653B20 		.ascii	"le; release to keep\000"
 480      72656C65 
 480      61736520 
 480      746F206B 
 480      65657000 
 481 00ff 00       		.align	2
 482              	.LC7:
 483 0100 4D505231 		.ascii	"MPR121 OK \342\200\224 baseline captured\000"
 483      3231204F 
 483      4B20E280 
 483      94206261 
 483      73656C69 
 484              		.align	2
 485              	.LC8:
 486 0120 52656164 		.ascii	"Ready.\012\000"
 486      792E0A00 
 487              		.align	2
 488              	.LC9:
 489 0128 5B766F69 		.ascii	"[voice select] %s (%d/%d) - tap/slide glass; releas"
 489      63652073 
 489      656C6563 
 489      745D2025 
 489      73202825 
 490 015b 65204653 		.ascii	"e FSR to keep\000"
 490      5220746F 
ARM GAS  /tmp/claude-502/cc2bPfvH.s 			page 19


 490      206B6565 
 490      7000
 491 0169 000000   		.align	2
 492              	.LC10:
 493 016c 5B766F69 		.ascii	"[voice kept %d/%d] %s\000"
 493      6365206B 
 493      65707420 
 493      25642F25 
 493      645D2025 
 494 0182 0000     		.align	2
 495              	.LC11:
 496 0184 5B766F69 		.ascii	"[voice %d/%d] %s\000"
 496      63652025 
 496      642F2564 
 496      5D202573 
 496      00
 497 0195 000000   		.align	2
 498              	.LC12:
 499 0198 5B726562 		.ascii	"[rebaseline]\000"
 499      6173656C 
 499      696E655D 
 499      00
 500 01a5 000000   		.align	2
 501              	.LC13:
 502 01a8 5B667372 		.ascii	"[fsr recal] fsr_max=%d\000"
 502      20726563 
 502      616C5D20 
 502      6673725F 
 502      6D61783D 
 503 01bf 00       		.align	2
 504              	.LC14:
 505 01c0 564F4943 		.ascii	"VOICE %d/%d  Drums [Kick|Snare|Tom|Hat]  -> %s\000"
 505      45202564 
 505      2F256420 
 505      20447275 
 505      6D73205B 
 506 01ef 00       		.align	2
 507              	.LC15:
 508 01f0 564F4943 		.ascii	"VOICE %d/%d  %s  (%d-%dHz)\000"
 508      45202564 
 508      2F256420 
 508      20257320 
 508      20282564 
 509 020b 00       		.align	2
 510              	.LC16:
 511 020c 20434820 		.ascii	" CH | DELTA | BAR\000"
 511      7C204445 
 511      4C544120 
 511      7C204241 
 511      5200
 512 021e 0000     		.align	2
 513              	.LC17:
 514 0220 2D2D2D2D 		.ascii	"----+-------+--------------------\000"
 514      2B2D2D2D 
 514      2D2D2D2D 
 514      2B2D2D2D 
 514      2D2D2D2D 
ARM GAS  /tmp/claude-502/cc2bPfvH.s 			page 20


 515 0242 0000     		.align	2
 516              	.LC18:
 517 0244 20253264 		.ascii	" %2d | %5d | %s %c\000"
 517      207C2025 
 517      3564207C 
 517      20257320 
 517      256300
 518 0257 00       		.align	2
 519              	.LC19:
 520 0258 0A504F53 		.ascii	"\012POS  %s\000"
 520      20202573 
 520      00
 521 0261 000000   		.align	2
 522              	.LC20:
 523 0264 20202564 		.ascii	"  %d  pos:%4d  prs:%3d%%  %s\000"
 523      2020706F 
 523      733A2534 
 523      64202070 
 523      72733A25 
 524 0281 000000   		.align	2
 525              	.LC21:
 526 0284 20202564 		.ascii	"  %d  pos: ---  prs: --%%  [                ]\000"
 526      2020706F 
 526      733A202D 
 526      2D2D2020 
 526      7072733A 
 527 02b2 0000     		.align	2
 528              	.LC22:
 529 02b4 20465352 		.ascii	" FSR pressure  %3d%%  %s\000"
 529      20707265 
 529      73737572 
 529      65202025 
 529      33642525 
 530 02cd 000000   		.align	2
 531              	.LC23:
 532 02d0 20206672 		.ascii	"  freq:%4dHz  cut:%5dHz  det:%c%d.%ds  fx:%2d%%  vi"
 532      65713A25 
 532      3464487A 
 532      20206375 
 532      743A2535 
 533 0303 623A2532 		.ascii	"b:%2d%%\000"
 533      64252500 
 534 030b 00       		.align	2
 535              	.LC24:
 536 030c 2D2D2D2D 		.ascii	"--------------------------------------------\000"
 536      2D2D2D2D 
 536      2D2D2D2D 
 536      2D2D2D2D 
 536      2D2D2D2D 
 537              		.section	.text.startup.main,"ax",%progbits
 538              		.align	1
 539              		.p2align 2,,3
 540              		.global	main
 541              		.syntax unified
 542              		.thumb
 543              		.thumb_func
 545              	main:
ARM GAS  /tmp/claude-502/cc2bPfvH.s 			page 21


 546              	.LFB2580:
 110:src/main.cpp  **** 
 111:src/main.cpp  **** // ŌöĆŌöĆ Main ŌöĆŌöĆŌöĆŌöĆŌöĆŌöĆŌöĆŌöĆŌöĆŌöĆŌöĆŌöĆŌöĆŌöĆŌöĆŌöĆŌöĆŌöĆŌöĆŌöĆŌöĆŌöĆŌöĆŌöĆŌöĆŌöĆŌöĆŌöĆ
 112:src/main.cpp  **** int main()
 113:src/main.cpp  **** {
 547              		.loc 6 113 1 is_stmt 1 view -0
 548              		.cfi_startproc
 549              		@ args = 0, pretend = 0, frame = 512
 550              		@ frame_needed = 0, uses_anonymous_args = 0
 114:src/main.cpp  ****     hw.Init();
 551              		.loc 6 114 5 view .LVU126
 113:src/main.cpp  ****     hw.Init();
 552              		.loc 6 113 1 is_stmt 0 view .LVU127
 553 0000 2DE9F04F 		push	{r4, r5, r6, r7, r8, r9, r10, fp, lr}
 554              		.cfi_def_cfa_offset 36
 555              		.cfi_offset 4, -36
 556              		.cfi_offset 5, -32
 557              		.cfi_offset 6, -28
 558              		.cfi_offset 7, -24
 559              		.cfi_offset 8, -20
 560              		.cfi_offset 9, -16
 561              		.cfi_offset 10, -12
 562              		.cfi_offset 11, -8
 563              		.cfi_offset 14, -4
 564              		.loc 6 114 12 view .LVU128
 565 0004 0021     		movs	r1, #0
 566 0006 3C48     		ldr	r0, .L527
 113:src/main.cpp  ****     hw.Init();
 567              		.loc 6 113 1 view .LVU129
 568 0008 2DED0C8B 		vpush.64	{d8, d9, d10, d11, d12, d13}
 569              		.cfi_def_cfa_offset 84
 570              		.cfi_offset 80, -84
 571              		.cfi_offset 81, -80
 572              		.cfi_offset 82, -76
 573              		.cfi_offset 83, -72
 574              		.cfi_offset 84, -68
 575              		.cfi_offset 85, -64
 576              		.cfi_offset 86, -60
 577              		.cfi_offset 87, -56
 578              		.cfi_offset 88, -52
 579              		.cfi_offset 89, -48
 580              		.cfi_offset 90, -44
 581              		.cfi_offset 91, -40
 582 000c ADF5057D 		sub	sp, sp, #532
 583              		.cfi_def_cfa_offset 616
 584              		.loc 6 114 12 view .LVU130
 585 0010 FFF7FEFF 		bl	_ZN5daisy9DaisySeed4InitEb
 586              	.LVL38:
 115:src/main.cpp  ****     hw.SetAudioBlockSize(4);
 587              		.loc 6 115 5 is_stmt 1 view .LVU131
 588              		.loc 6 115 25 is_stmt 0 view .LVU132
 589 0014 0421     		movs	r1, #4
 590 0016 3848     		ldr	r0, .L527
 591 0018 FFF7FEFF 		bl	_ZN5daisy9DaisySeed17SetAudioBlockSizeEj
 592              	.LVL39:
 116:src/main.cpp  **** 
 117:src/main.cpp  ****     // ŌöĆŌöĆ Persisted voice (QSPI flash) ŌöĆŌöĆŌöĆŌöĆŌöĆŌöĆŌöĆŌöĆŌöĆŌöĆŌöĆŌöĆŌöĆŌöĆŌöĆŌöĆŌöĆŌöĆŌö
ARM GAS  /tmp/claude-502/cc2bPfvH.s 			page 22


 118:src/main.cpp  ****     // Restore the last selected voice across power cycles. First boot writes the
 119:src/main.cpp  ****     // current g_voice_idx as the factory default.
 120:src/main.cpp  ****     PersistentStorage<PersistSettings> storage(hw.qspi);
 593              		.loc 6 120 5 is_stmt 1 view .LVU133
 594              	.LBB628:
 595              	.LBI628:
 596              		.file 7 "/Users/reza.kalfane/Workspaces/Daisy/DaisyExamples/libDaisy/src/util/PersistentStorage.h"
   1:/Users/reza.kalfane/Workspaces/Daisy/DaisyExamples/libDaisy/src/util/PersistentStorage.h **** #pragma once
   2:/Users/reza.kalfane/Workspaces/Daisy/DaisyExamples/libDaisy/src/util/PersistentStorage.h **** 
   3:/Users/reza.kalfane/Workspaces/Daisy/DaisyExamples/libDaisy/src/util/PersistentStorage.h **** #include "daisy_core.h"
   4:/Users/reza.kalfane/Workspaces/Daisy/DaisyExamples/libDaisy/src/util/PersistentStorage.h **** #include "per/qspi.h"
   5:/Users/reza.kalfane/Workspaces/Daisy/DaisyExamples/libDaisy/src/util/PersistentStorage.h **** #include "sys/dma.h"
   6:/Users/reza.kalfane/Workspaces/Daisy/DaisyExamples/libDaisy/src/util/PersistentStorage.h **** 
   7:/Users/reza.kalfane/Workspaces/Daisy/DaisyExamples/libDaisy/src/util/PersistentStorage.h **** namespace daisy
   8:/Users/reza.kalfane/Workspaces/Daisy/DaisyExamples/libDaisy/src/util/PersistentStorage.h **** {
   9:/Users/reza.kalfane/Workspaces/Daisy/DaisyExamples/libDaisy/src/util/PersistentStorage.h **** /** @brief Non Volatile storage class for persistent settings on an external flash device.
  10:/Users/reza.kalfane/Workspaces/Daisy/DaisyExamples/libDaisy/src/util/PersistentStorage.h ****  *  @author shensley
  11:/Users/reza.kalfane/Workspaces/Daisy/DaisyExamples/libDaisy/src/util/PersistentStorage.h ****  * 
  12:/Users/reza.kalfane/Workspaces/Daisy/DaisyExamples/libDaisy/src/util/PersistentStorage.h ****  *  Storage occupied by the struct will be one word larger than 
  13:/Users/reza.kalfane/Workspaces/Daisy/DaisyExamples/libDaisy/src/util/PersistentStorage.h ****  *  the SettingStruct used. The extra word is used to store the
  14:/Users/reza.kalfane/Workspaces/Daisy/DaisyExamples/libDaisy/src/util/PersistentStorage.h ****  *  state of the data, and whether it's been overwritten or not.
  15:/Users/reza.kalfane/Workspaces/Daisy/DaisyExamples/libDaisy/src/util/PersistentStorage.h ****  * 
  16:/Users/reza.kalfane/Workspaces/Daisy/DaisyExamples/libDaisy/src/util/PersistentStorage.h ****  *  \todo - Make Save() non-blocking
  17:/Users/reza.kalfane/Workspaces/Daisy/DaisyExamples/libDaisy/src/util/PersistentStorage.h ****  *  \todo - Add wear leveling
  18:/Users/reza.kalfane/Workspaces/Daisy/DaisyExamples/libDaisy/src/util/PersistentStorage.h ****  * 
  19:/Users/reza.kalfane/Workspaces/Daisy/DaisyExamples/libDaisy/src/util/PersistentStorage.h ****  **/
  20:/Users/reza.kalfane/Workspaces/Daisy/DaisyExamples/libDaisy/src/util/PersistentStorage.h **** template <typename SettingStruct>
  21:/Users/reza.kalfane/Workspaces/Daisy/DaisyExamples/libDaisy/src/util/PersistentStorage.h **** class PersistentStorage
  22:/Users/reza.kalfane/Workspaces/Daisy/DaisyExamples/libDaisy/src/util/PersistentStorage.h **** {
  23:/Users/reza.kalfane/Workspaces/Daisy/DaisyExamples/libDaisy/src/util/PersistentStorage.h ****   public:
  24:/Users/reza.kalfane/Workspaces/Daisy/DaisyExamples/libDaisy/src/util/PersistentStorage.h ****     /** State of the storage. 
  25:/Users/reza.kalfane/Workspaces/Daisy/DaisyExamples/libDaisy/src/util/PersistentStorage.h ****      *  When created, prior to initialiation, the state will be Unknown
  26:/Users/reza.kalfane/Workspaces/Daisy/DaisyExamples/libDaisy/src/util/PersistentStorage.h ****      *  
  27:/Users/reza.kalfane/Workspaces/Daisy/DaisyExamples/libDaisy/src/util/PersistentStorage.h ****      *  During initialization, the state will be changed to either FACTORY,
  28:/Users/reza.kalfane/Workspaces/Daisy/DaisyExamples/libDaisy/src/util/PersistentStorage.h ****      *  or USER. 
  29:/Users/reza.kalfane/Workspaces/Daisy/DaisyExamples/libDaisy/src/util/PersistentStorage.h ****      * 
  30:/Users/reza.kalfane/Workspaces/Daisy/DaisyExamples/libDaisy/src/util/PersistentStorage.h ****      *  If this is the first time these settings are being written to the
  31:/Users/reza.kalfane/Workspaces/Daisy/DaisyExamples/libDaisy/src/util/PersistentStorage.h ****      *  target address, the defaults will be written to that location,
  32:/Users/reza.kalfane/Workspaces/Daisy/DaisyExamples/libDaisy/src/util/PersistentStorage.h ****      *  and the state will be set to FACTORY.
  33:/Users/reza.kalfane/Workspaces/Daisy/DaisyExamples/libDaisy/src/util/PersistentStorage.h ****      * 
  34:/Users/reza.kalfane/Workspaces/Daisy/DaisyExamples/libDaisy/src/util/PersistentStorage.h ****      *  Once the first user-trigger save has been made, the state will be 
  35:/Users/reza.kalfane/Workspaces/Daisy/DaisyExamples/libDaisy/src/util/PersistentStorage.h ****      *  updated to USER to indicate that the defaults have overwritten.
  36:/Users/reza.kalfane/Workspaces/Daisy/DaisyExamples/libDaisy/src/util/PersistentStorage.h ****      */
  37:/Users/reza.kalfane/Workspaces/Daisy/DaisyExamples/libDaisy/src/util/PersistentStorage.h ****     enum class State
  38:/Users/reza.kalfane/Workspaces/Daisy/DaisyExamples/libDaisy/src/util/PersistentStorage.h ****     {
  39:/Users/reza.kalfane/Workspaces/Daisy/DaisyExamples/libDaisy/src/util/PersistentStorage.h ****         UNKNOWN = 0,
  40:/Users/reza.kalfane/Workspaces/Daisy/DaisyExamples/libDaisy/src/util/PersistentStorage.h ****         FACTORY = 1,
  41:/Users/reza.kalfane/Workspaces/Daisy/DaisyExamples/libDaisy/src/util/PersistentStorage.h ****         USER    = 2,
  42:/Users/reza.kalfane/Workspaces/Daisy/DaisyExamples/libDaisy/src/util/PersistentStorage.h ****     };
  43:/Users/reza.kalfane/Workspaces/Daisy/DaisyExamples/libDaisy/src/util/PersistentStorage.h **** 
  44:/Users/reza.kalfane/Workspaces/Daisy/DaisyExamples/libDaisy/src/util/PersistentStorage.h ****     /** Constructor for storage class 
  45:/Users/reza.kalfane/Workspaces/Daisy/DaisyExamples/libDaisy/src/util/PersistentStorage.h ****      *  \param qspi reference to the hardware qspi peripheral.
  46:/Users/reza.kalfane/Workspaces/Daisy/DaisyExamples/libDaisy/src/util/PersistentStorage.h ****      */
  47:/Users/reza.kalfane/Workspaces/Daisy/DaisyExamples/libDaisy/src/util/PersistentStorage.h ****     PersistentStorage(QSPIHandle &qspi)
 597              		.loc 7 47 5 view .LVU134
 598              		.loc 7 47 5 is_stmt 0 view .LVU135
 599              	.LBE628:
ARM GAS  /tmp/claude-502/cc2bPfvH.s 			page 23


 121:src/main.cpp  ****     storage.Init(PersistSettings{ g_voice_idx });
 600              		.loc 6 121 5 is_stmt 1 view .LVU136
 601              		.loc 6 121 18 is_stmt 0 view .LVU137
 602 001c 374B     		ldr	r3, .L527+4
 603              	.LBB629:
 604              	.LBB630:
  48:/Users/reza.kalfane/Workspaces/Daisy/DaisyExamples/libDaisy/src/util/PersistentStorage.h ****     : qspi_(qspi),
  49:/Users/reza.kalfane/Workspaces/Daisy/DaisyExamples/libDaisy/src/util/PersistentStorage.h ****       address_offset_(0),
  50:/Users/reza.kalfane/Workspaces/Daisy/DaisyExamples/libDaisy/src/util/PersistentStorage.h ****       default_settings_(),
  51:/Users/reza.kalfane/Workspaces/Daisy/DaisyExamples/libDaisy/src/util/PersistentStorage.h ****       settings_(),
  52:/Users/reza.kalfane/Workspaces/Daisy/DaisyExamples/libDaisy/src/util/PersistentStorage.h ****       state_(State::UNKNOWN)
  53:/Users/reza.kalfane/Workspaces/Daisy/DaisyExamples/libDaisy/src/util/PersistentStorage.h ****     {
  54:/Users/reza.kalfane/Workspaces/Daisy/DaisyExamples/libDaisy/src/util/PersistentStorage.h ****     }
  55:/Users/reza.kalfane/Workspaces/Daisy/DaisyExamples/libDaisy/src/util/PersistentStorage.h **** 
  56:/Users/reza.kalfane/Workspaces/Daisy/DaisyExamples/libDaisy/src/util/PersistentStorage.h ****     /** Initialize Storage class
  57:/Users/reza.kalfane/Workspaces/Daisy/DaisyExamples/libDaisy/src/util/PersistentStorage.h ****      *
  58:/Users/reza.kalfane/Workspaces/Daisy/DaisyExamples/libDaisy/src/util/PersistentStorage.h ****      *  The values in this class will be stored as the default
  59:/Users/reza.kalfane/Workspaces/Daisy/DaisyExamples/libDaisy/src/util/PersistentStorage.h ****      *  for restoration to 'factory' settings.
  60:/Users/reza.kalfane/Workspaces/Daisy/DaisyExamples/libDaisy/src/util/PersistentStorage.h ****      *
  61:/Users/reza.kalfane/Workspaces/Daisy/DaisyExamples/libDaisy/src/util/PersistentStorage.h ****      *  \param defaults should be a setting structure containing the default values.
  62:/Users/reza.kalfane/Workspaces/Daisy/DaisyExamples/libDaisy/src/util/PersistentStorage.h ****      *      this will be updated to contain the stored data.
  63:/Users/reza.kalfane/Workspaces/Daisy/DaisyExamples/libDaisy/src/util/PersistentStorage.h ****      *  \param address_offset offset for location on the QSPI chip (offset to base address of devic
  64:/Users/reza.kalfane/Workspaces/Daisy/DaisyExamples/libDaisy/src/util/PersistentStorage.h ****      *      This defaults to the first address on the chip, and will be masked to the nearest multi
  65:/Users/reza.kalfane/Workspaces/Daisy/DaisyExamples/libDaisy/src/util/PersistentStorage.h ****      **/
  66:/Users/reza.kalfane/Workspaces/Daisy/DaisyExamples/libDaisy/src/util/PersistentStorage.h ****     void Init(const SettingStruct &defaults, uint32_t address_offset = 0)
  67:/Users/reza.kalfane/Workspaces/Daisy/DaisyExamples/libDaisy/src/util/PersistentStorage.h ****     {
  68:/Users/reza.kalfane/Workspaces/Daisy/DaisyExamples/libDaisy/src/util/PersistentStorage.h ****         default_settings_ = defaults;
  69:/Users/reza.kalfane/Workspaces/Daisy/DaisyExamples/libDaisy/src/util/PersistentStorage.h ****         settings_         = defaults;
  70:/Users/reza.kalfane/Workspaces/Daisy/DaisyExamples/libDaisy/src/util/PersistentStorage.h ****         address_offset_   = address_offset & (uint32_t)(~0xff);
  71:/Users/reza.kalfane/Workspaces/Daisy/DaisyExamples/libDaisy/src/util/PersistentStorage.h ****         auto storage_data
  72:/Users/reza.kalfane/Workspaces/Daisy/DaisyExamples/libDaisy/src/util/PersistentStorage.h ****             = reinterpret_cast<SaveStruct *>(qspi_.GetData(address_offset_));
 605              		.loc 7 72 59 view .LVU138
 606 001e 0021     		movs	r1, #0
 607 0020 3548     		ldr	r0, .L527
 608              	.LBE630:
 609              	.LBE629:
 610              		.loc 6 121 18 view .LVU139
 611 0022 1C68     		ldr	r4, [r3]
 612              	.LVL40:
 613              	.LBB640:
 614              	.LBI629:
  66:/Users/reza.kalfane/Workspaces/Daisy/DaisyExamples/libDaisy/src/util/PersistentStorage.h ****     {
 615              		.loc 7 66 10 is_stmt 1 view .LVU140
 616              	.LBB637:
 617              		.loc 7 72 59 is_stmt 0 view .LVU141
 618 0024 FFF7FEFF 		bl	_ZN5daisy10QSPIHandle7GetDataEm
 619              	.LVL41:
  73:/Users/reza.kalfane/Workspaces/Daisy/DaisyExamples/libDaisy/src/util/PersistentStorage.h **** 
  74:/Users/reza.kalfane/Workspaces/Daisy/DaisyExamples/libDaisy/src/util/PersistentStorage.h ****         // check to see if the state is already in use.
  75:/Users/reza.kalfane/Workspaces/Daisy/DaisyExamples/libDaisy/src/util/PersistentStorage.h ****         State cur_state = storage_data->storage_state;
  76:/Users/reza.kalfane/Workspaces/Daisy/DaisyExamples/libDaisy/src/util/PersistentStorage.h ****         if(cur_state != State::FACTORY && cur_state != State::USER)
 620              		.loc 7 76 40 view .LVU142
 621 0028 0368     		ldr	r3, [r0]
 622 002a 013B     		subs	r3, r3, #1
 623              		.loc 7 76 9 view .LVU143
 624 002c 012B     		cmp	r3, #1
 625 002e 01F22287 		bhi	.L489
ARM GAS  /tmp/claude-502/cc2bPfvH.s 			page 24


 626              	.LVL42:
  77:/Users/reza.kalfane/Workspaces/Daisy/DaisyExamples/libDaisy/src/util/PersistentStorage.h ****         {
  78:/Users/reza.kalfane/Workspaces/Daisy/DaisyExamples/libDaisy/src/util/PersistentStorage.h ****             // Initialize the Data store State::FACTORY, and the DefaultSettings
  79:/Users/reza.kalfane/Workspaces/Daisy/DaisyExamples/libDaisy/src/util/PersistentStorage.h ****             state_ = State::FACTORY;
  80:/Users/reza.kalfane/Workspaces/Daisy/DaisyExamples/libDaisy/src/util/PersistentStorage.h ****             StoreSettingsIfChanged();
  81:/Users/reza.kalfane/Workspaces/Daisy/DaisyExamples/libDaisy/src/util/PersistentStorage.h ****         }
  82:/Users/reza.kalfane/Workspaces/Daisy/DaisyExamples/libDaisy/src/util/PersistentStorage.h ****         else
  83:/Users/reza.kalfane/Workspaces/Daisy/DaisyExamples/libDaisy/src/util/PersistentStorage.h ****         {
  84:/Users/reza.kalfane/Workspaces/Daisy/DaisyExamples/libDaisy/src/util/PersistentStorage.h ****             state_    = cur_state;
  85:/Users/reza.kalfane/Workspaces/Daisy/DaisyExamples/libDaisy/src/util/PersistentStorage.h ****             settings_ = storage_data->user_data;
 627              		.loc 7 85 13 view .LVU144
 628 0032 4468     		ldr	r4, [r0, #4]
 629              	.LVL43:
 630              	.L486:
 631              		.loc 7 85 13 view .LVU145
 632 0034 70AB     		add	r3, sp, #448
 633 0036 0DEE903A 		vmov	s27, r3	@ int
 634              	.L49:
 635              	.LVL44:
 636              		.loc 7 85 13 view .LVU146
 637              	.LBE637:
 638              	.LBE640:
 122:src/main.cpp  ****     {
 639              		.loc 6 122 5 is_stmt 1 view .LVU147
 640              	.LBB641:
 123:src/main.cpp  ****         int32_t v = storage.GetSettings().voice_idx;
 641              		.loc 6 123 9 view .LVU148
 124:src/main.cpp  ****         if(v >= 0 && v < NUM_VOICES) g_voice_idx = v;
 642              		.loc 6 124 9 view .LVU149
 643 003a 0C2C     		cmp	r4, #12
 644 003c 01D8     		bhi	.L50
 645              		.loc 6 124 38 discriminator 1 view .LVU150
 646              		.loc 6 124 50 is_stmt 0 discriminator 1 view .LVU151
 647 003e 2F4B     		ldr	r3, .L527+4
 648 0040 1C60     		str	r4, [r3]
 649              	.L50:
 650              		.loc 6 124 50 discriminator 1 view .LVU152
 651              	.LBE641:
 125:src/main.cpp  ****     }
 126:src/main.cpp  ****     g_active_voice = (g_voice_idx == MULTI_IDX) ? MULTI_ZONES[0] : g_voice_idx;
 652              		.loc 6 126 5 is_stmt 1 view .LVU153
 653              		.loc 6 126 35 is_stmt 0 view .LVU154
 654 0042 2E4A     		ldr	r2, .L527+4
 655 0044 1368     		ldr	r3, [r2]
 656              		.loc 6 126 49 view .LVU155
 657 0046 0C2B     		cmp	r3, #12
 658 0048 01F04F87 		beq	.L285
 659              		.loc 6 126 49 discriminator 2 view .LVU156
 660 004c 1368     		ldr	r3, [r2]
 661              	.L51:
 662              		.loc 6 126 20 discriminator 4 view .LVU157
 663 004e 2C4A     		ldr	r2, .L527+8
 127:src/main.cpp  **** 
 128:src/main.cpp  ****     // Power-on grace period so the lid can be closed before baseline capture.
 129:src/main.cpp  ****     System::Delay(5000);
 664              		.loc 6 129 18 discriminator 4 view .LVU158
 665 0050 41F28830 		movw	r0, #5000
ARM GAS  /tmp/claude-502/cc2bPfvH.s 			page 25


 126:src/main.cpp  **** 
 666              		.loc 6 126 20 discriminator 4 view .LVU159
 667 0054 1360     		str	r3, [r2]
 668              		.loc 6 129 5 is_stmt 1 discriminator 4 view .LVU160
 669              		.loc 6 129 18 is_stmt 0 discriminator 4 view .LVU161
 670 0056 FFF7FEFF 		bl	_ZN5daisy6System5DelayEm
 671              	.LVL45:
 130:src/main.cpp  **** 
 131:src/main.cpp  ****     // ŌöĆŌöĆ I2C pins + MPR121 init BEFORE audio starts ŌöĆŌöĆŌöĆŌöĆŌöĆŌöĆŌöĆŌöĆŌöĆŌöĆŌöĆŌöĆŌöĆŌöĆ
 132:src/main.cpp  ****     // The audio ISR firing during bit-bang I2C corrupts I2C timing.
 133:src/main.cpp  ****     // Do all sensor work first, then start the audio engine.
 134:src/main.cpp  ****     mpr_idle_pins();
 672              		.loc 6 134 5 is_stmt 1 discriminator 4 view .LVU162
 673              		.loc 6 134 18 is_stmt 0 discriminator 4 view .LVU163
 674 005a FFF7FEFF 		bl	_Z13mpr_idle_pinsv
 675              	.LVL46:
 135:src/main.cpp  **** 
 136:src/main.cpp  ****     uint16_t baseline[N_CH];
 676              		.loc 6 136 5 is_stmt 1 discriminator 4 view .LVU164
 137:src/main.cpp  ****     if(mpr_init())
 677              		.loc 6 137 5 discriminator 4 view .LVU165
 678              		.loc 6 137 16 is_stmt 0 discriminator 4 view .LVU166
 679 005e FFF7FEFF 		bl	_Z8mpr_initv
 680              	.LVL47:
 138:src/main.cpp  ****     {
 139:src/main.cpp  ****         System::Delay(300);
 140:src/main.cpp  ****         capture_baseline(baseline);
 681              		.loc 6 140 25 discriminator 4 view .LVU167
 682 0062 3DAB     		add	r3, sp, #244
 137:src/main.cpp  ****     if(mpr_init())
 683              		.loc 6 137 5 discriminator 4 view .LVU168
 684 0064 0028     		cmp	r0, #0
 685 0066 41F03587 		bne	.L459
 686 006a 0993     		str	r3, [sp, #36]
 687              	.LVL48:
 688              	.L52:
 141:src/main.cpp  ****     }
 142:src/main.cpp  ****     // If MPR121 fails we still start audio so the problem is audible (silence)
 143:src/main.cpp  **** 
 144:src/main.cpp  ****     // ŌöĆŌöĆ DAC LEDs (pin 30 = DAC1, pin 31 = DAC2) + PWM LED (A0 = pin 22) ŌöĆŌöĆŌöĆŌöĆŌöĆŌöĆ
 145:src/main.cpp  ****     DacHandle::Config dac_cfg;
 689              		.loc 6 145 5 is_stmt 1 view .LVU169
 146:src/main.cpp  ****     dac_cfg.bitdepth   = DacHandle::BitDepth::BITS_12;
 690              		.loc 6 146 5 view .LVU170
 147:src/main.cpp  ****     dac_cfg.buff_state = DacHandle::BufferState::ENABLED;
 691              		.loc 6 147 24 is_stmt 0 view .LVU171
 692 006c 0025     		movs	r5, #0
 146:src/main.cpp  ****     dac_cfg.bitdepth   = DacHandle::BitDepth::BITS_12;
 693              		.loc 6 146 24 view .LVU172
 694 006e 0124     		movs	r4, #1
 148:src/main.cpp  ****     dac_cfg.mode       = DacHandle::Mode::POLLING;
 149:src/main.cpp  ****     dac_cfg.chn        = DacHandle::Channel::BOTH;
 695              		.loc 6 149 24 view .LVU173
 696 0070 0226     		movs	r6, #2
 150:src/main.cpp  ****     hw.dac.Init(dac_cfg);
 697              		.loc 6 150 16 view .LVU174
 698 0072 38A9     		add	r1, sp, #224
ARM GAS  /tmp/claude-502/cc2bPfvH.s 			page 26


 699 0074 2348     		ldr	r0, .L527+12
 146:src/main.cpp  ****     dac_cfg.buff_state = DacHandle::BufferState::ENABLED;
 700              		.loc 6 146 24 view .LVU175
 701 0076 3B94     		str	r4, [sp, #236]
 147:src/main.cpp  ****     dac_cfg.mode       = DacHandle::Mode::POLLING;
 702              		.loc 6 147 5 is_stmt 1 view .LVU176
 148:src/main.cpp  ****     dac_cfg.chn        = DacHandle::Channel::BOTH;
 703              		.loc 6 148 5 view .LVU177
 149:src/main.cpp  ****     hw.dac.Init(dac_cfg);
 704              		.loc 6 149 5 view .LVU178
 149:src/main.cpp  ****     hw.dac.Init(dac_cfg);
 705              		.loc 6 149 24 is_stmt 0 view .LVU179
 706 0078 3996     		str	r6, [sp, #228]
 707              		.loc 6 150 5 is_stmt 1 view .LVU180
 147:src/main.cpp  ****     dac_cfg.mode       = DacHandle::Mode::POLLING;
 708              		.loc 6 147 24 is_stmt 0 view .LVU181
 709 007a 3C95     		str	r5, [sp, #240]
 148:src/main.cpp  ****     dac_cfg.chn        = DacHandle::Channel::BOTH;
 710              		.loc 6 148 24 view .LVU182
 711 007c 3A95     		str	r5, [sp, #232]
 712              		.loc 6 150 16 view .LVU183
 713 007e FFF7FEFF 		bl	_ZN5daisy9DacHandle4InitERKNS0_6ConfigE
 714              	.LVL49:
 151:src/main.cpp  ****     hw.dac.WriteValue(DacHandle::Channel::BOTH, 0);
 715              		.loc 6 151 5 is_stmt 1 view .LVU184
 716              		.loc 6 151 22 is_stmt 0 view .LVU185
 717 0082 3146     		mov	r1, r6
 718 0084 2A46     		mov	r2, r5
 719 0086 1F48     		ldr	r0, .L527+12
 720 0088 FFF7FEFF 		bl	_ZN5daisy9DacHandle10WriteValueENS0_7ChannelEt
 721              	.LVL50:
 152:src/main.cpp  **** 
 153:src/main.cpp  ****     led3.Init(seed::A0, GPIO::Mode::OUTPUT, GPIO::Pull::NOPULL);
 722              		.loc 6 153 5 is_stmt 1 view .LVU186
 723              		.loc 6 153 14 is_stmt 0 view .LVU187
 724 008c 1E4B     		ldr	r3, .L527+16
 725 008e 2246     		mov	r2, r4
 726 0090 1E48     		ldr	r0, .L527+20
 727 0092 1968     		ldr	r1, [r3]
 728 0094 2B46     		mov	r3, r5
 729 0096 0095     		str	r5, [sp]
 730 0098 FFF7FEFF 		bl	_ZN5daisy4GPIO4InitENS_3PinENS0_4ModeENS0_4PullENS0_5SpeedE
 731              	.LVL51:
 154:src/main.cpp  ****     led3.Write(false);
 732              		.loc 6 154 5 is_stmt 1 view .LVU188
 733              		.loc 6 154 15 is_stmt 0 view .LVU189
 734 009c 2946     		mov	r1, r5
 735 009e 1B48     		ldr	r0, .L527+20
 736 00a0 FFF7FEFF 		bl	_ZN5daisy4GPIO5WriteEb
 737              	.LVL52:
 155:src/main.cpp  **** 
 156:src/main.cpp  ****     // ŌöĆŌöĆ FSR (A1 / ADC1) ŌöĆŌöĆŌöĆŌöĆŌöĆŌöĆŌöĆŌöĆŌöĆŌöĆŌöĆŌöĆŌöĆŌöĆŌöĆŌöĆŌöĆŌöĆŌöĆŌöĆŌöĆŌöĆŌöĆ
 157:src/main.cpp  ****     // Wired so unpressed reads ~max (3.3V). Press pulls ADC down. Fixed
 158:src/main.cpp  ****     // thresholds: raw Ōēż FSR_MIN ŌåÆ 0%, raw Ōēź FSR_MAX ŌåÆ 100%, linear between.
 159:src/main.cpp  ****     AdcChannelConfig fsr_cfg;
 738              		.loc 6 159 5 is_stmt 1 view .LVU190
 160:src/main.cpp  ****     fsr_cfg.InitSingle(seed::A1);
ARM GAS  /tmp/claude-502/cc2bPfvH.s 			page 27


 739              		.loc 6 160 5 view .LVU191
 740              		.loc 6 160 23 is_stmt 0 view .LVU192
 741 00a4 0323     		movs	r3, #3
 742 00a6 8DF87C50 		strb	r5, [sp, #124]
 743 00aa 3246     		mov	r2, r6
 744 00ac 8DF87D30 		strb	r3, [sp, #125]
 745 00b0 33A8     		add	r0, sp, #204
 746 00b2 1F99     		ldr	r1, [sp, #124]
 747 00b4 FFF7FEFF 		bl	_ZN5daisy16AdcChannelConfig10InitSingleE12dsy_gpio_pinNS0_15ConversionSpeedE
 748              	.LVL53:
 161:src/main.cpp  ****     hw.adc.Init(&fsr_cfg, 1);
 749              		.loc 6 161 5 is_stmt 1 view .LVU193
 750              		.loc 6 161 16 is_stmt 0 view .LVU194
 751 00b8 2246     		mov	r2, r4
 752 00ba 33A9     		add	r1, sp, #204
 753 00bc 0423     		movs	r3, #4
 754 00be 1448     		ldr	r0, .L527+24
 755              	.LBB642:
 756              	.LBB643:
 757              	.LBB644:
 162:src/main.cpp  ****     hw.adc.Start();
 163:src/main.cpp  **** 
 164:src/main.cpp  ****     constexpr uint16_t FSR_MIN       = 8000;
 165:src/main.cpp  ****     constexpr float    FSR_DEADZONE  = 0.10f;  // top 10% of travel = full volume (no change)
 166:src/main.cpp  ****     uint16_t           fsr_max       = 55000;
 167:src/main.cpp  ****     // Volume stays 100% until pressure passes the deadzone (raw drops below
 168:src/main.cpp  ****     // fsr_dead), then ramps linearly to 0% at FSR_MIN.
 169:src/main.cpp  ****     uint16_t           fsr_dead       = (uint16_t)(fsr_max - FSR_DEADZONE * (fsr_max - FSR_MIN));
 170:src/main.cpp  ****     float              fsr_active_inv = 1.0f / (float)(fsr_dead - FSR_MIN);
 171:src/main.cpp  **** 
 172:src/main.cpp  ****     auto commit_fsr_avg = [&](uint32_t acc, int n) {
 173:src/main.cpp  ****         if(n == 0) return;
 174:src/main.cpp  ****         uint16_t avg = (uint16_t)(acc / n);
 175:src/main.cpp  ****         // Sanity floor ŌĆö without enough headroom over FSR_MIN the volume curve
 176:src/main.cpp  ****         // becomes hyper-sensitive to noise.
 177:src/main.cpp  ****         if(avg < FSR_MIN + 500) avg = FSR_MIN + 500;
 178:src/main.cpp  ****         fsr_max        = avg;
 179:src/main.cpp  ****         fsr_dead       = (uint16_t)(fsr_max - FSR_DEADZONE * (fsr_max - FSR_MIN));
 180:src/main.cpp  ****         fsr_active_inv = 1.0f / (float)(fsr_dead - FSR_MIN);
 181:src/main.cpp  ****     };
 182:src/main.cpp  **** 
 183:src/main.cpp  ****     // Startup calibration: 2 s silent FSR average ŌåÆ fsr_max.
 184:src/main.cpp  ****     auto calibrate_fsr_silent = [&]() {
 185:src/main.cpp  ****         uint32_t start = System::GetNow();
 186:src/main.cpp  ****         uint32_t acc = 0; int n = 0;
 758              		.loc 6 186 18 view .LVU195
 759 00c0 2C46     		mov	r4, r5
 760              	.LBE644:
 761              	.LBE643:
 762              	.LBE642:
 161:src/main.cpp  ****     hw.adc.Init(&fsr_cfg, 1);
 763              		.loc 6 161 16 view .LVU196
 764 00c2 FFF7FEFF 		bl	_ZN5daisy9AdcHandle4InitEPNS_16AdcChannelConfigEjNS0_12OverSamplingE
 765              	.LVL54:
 162:src/main.cpp  ****     hw.adc.Start();
 766              		.loc 6 162 5 is_stmt 1 view .LVU197
 162:src/main.cpp  ****     hw.adc.Start();
ARM GAS  /tmp/claude-502/cc2bPfvH.s 			page 28


 767              		.loc 6 162 17 is_stmt 0 view .LVU198
 768 00c6 1248     		ldr	r0, .L527+24
 769 00c8 FFF7FEFF 		bl	_ZN5daisy9AdcHandle5StartEv
 770              	.LVL55:
 164:src/main.cpp  ****     constexpr float    FSR_DEADZONE  = 0.10f;  // top 10% of travel = full volume (no change)
 771              		.loc 6 164 5 is_stmt 1 view .LVU199
 165:src/main.cpp  ****     uint16_t           fsr_max       = 55000;
 772              		.loc 6 165 5 view .LVU200
 166:src/main.cpp  ****     // Volume stays 100% until pressure passes the deadzone (raw drops below
 773              		.loc 6 166 5 view .LVU201
 181:src/main.cpp  **** 
 774              		.loc 6 181 5 is_stmt 0 view .LVU202
 775 00cc 20AB     		add	r3, sp, #128
 776 00ce 2493     		str	r3, [sp, #144]
 777 00d0 0DF18203 		add	r3, sp, #130
 778 00d4 2593     		str	r3, [sp, #148]
 779 00d6 21AB     		add	r3, sp, #132
 780 00d8 2693     		str	r3, [sp, #152]
 166:src/main.cpp  ****     // Volume stays 100% until pressure passes the deadzone (raw drops below
 781              		.loc 6 166 24 view .LVU203
 782 00da 4DF2D863 		movw	r3, #55000
 783 00de ADF88030 		strh	r3, [sp, #128]	@ movhi
 169:src/main.cpp  ****     float              fsr_active_inv = 1.0f / (float)(fsr_dead - FSR_MIN);
 784              		.loc 6 169 5 is_stmt 1 view .LVU204
 169:src/main.cpp  ****     float              fsr_active_inv = 1.0f / (float)(fsr_dead - FSR_MIN);
 785              		.loc 6 169 24 is_stmt 0 view .LVU205
 786 00e2 4CF27C43 		movw	r3, #50300
 787 00e6 ADF88230 		strh	r3, [sp, #130]	@ movhi
 170:src/main.cpp  **** 
 788              		.loc 6 170 5 is_stmt 1 view .LVU206
 170:src/main.cpp  **** 
 789              		.loc 6 170 24 is_stmt 0 view .LVU207
 790 00ea 0A4B     		ldr	r3, .L527+28
 791 00ec 2193     		str	r3, [sp, #132]	@ float
 172:src/main.cpp  ****         if(n == 0) return;
 792              		.loc 6 172 5 is_stmt 1 view .LVU208
 184:src/main.cpp  ****         uint32_t start = System::GetNow();
 793              		.loc 6 184 5 view .LVU209
 794              	.LVL56:
 187:src/main.cpp  ****         while(System::GetNow() - start < 2000) {
 188:src/main.cpp  ****             acc += hw.adc.Get(0);
 189:src/main.cpp  ****             n++;
 190:src/main.cpp  ****             System::Delay(10);
 191:src/main.cpp  ****         }
 192:src/main.cpp  ****         commit_fsr_avg(acc, n);
 193:src/main.cpp  ****     };
 194:src/main.cpp  **** 
 195:src/main.cpp  ****     // Idle behaviour: sweep a virtual position 0ŌåÆ1000ŌåÆ0 through the same
 196:src/main.cpp  ****     // LED-tent math as the pitch mapping (LED2=pos 0, LED1=middle, LED3=pos 1),
 197:src/main.cpp  ****     // recalibrate fsr_max during the first 2 s, then keep sweeping until any
 198:src/main.cpp  ****     // electrode crosses TOUCH_THRESHOLD.
 199:src/main.cpp  ****     auto idle_chase_and_calibrate = [&]() {
 795              		.loc 6 199 5 view .LVU210
 200:src/main.cpp  ****         uint32_t start = System::GetNow();
 201:src/main.cpp  ****         uint32_t acc = 0; int n = 0;
 202:src/main.cpp  ****         bool     calibrated = false;
 203:src/main.cpp  ****         constexpr uint32_t SWEEP_PERIOD_MS = 12000;  // one 0ŌåÆ1ŌåÆ0 cycle
ARM GAS  /tmp/claude-502/cc2bPfvH.s 			page 29


 204:src/main.cpp  ****         constexpr float    TAU             = 6.2831853f;
 205:src/main.cpp  ****         uint16_t scan[N_CH];
 206:src/main.cpp  **** 
 207:src/main.cpp  ****         while(true) {
 208:src/main.cpp  ****             uint32_t elapsed = System::GetNow() - start;
 209:src/main.cpp  **** 
 210:src/main.cpp  ****             // Sinusoidal position 0ŌåÆ1ŌåÆ0 over SWEEP_PERIOD_MS ŌĆö eases at the
 211:src/main.cpp  ****             // endpoints so the reversal is gentle instead of a triangle kink.
 212:src/main.cpp  ****             float phase = (float)(elapsed % SWEEP_PERIOD_MS) / (float)SWEEP_PERIOD_MS;
 213:src/main.cpp  ****             float p01   = 0.5f * (1.0f - cosf(phase * TAU));
 214:src/main.cpp  **** 
 215:src/main.cpp  ****             // Same tent + gamma-0.25 math as the pitch LED mapping.
 216:src/main.cpp  ****             float l1_raw = 1.0f - 2.0f * p01;                 if(l1_raw < 0) l1_raw = 0;
 217:src/main.cpp  ****             float l3_raw = 2.0f * p01 - 1.0f;                 if(l3_raw < 0) l3_raw = 0;
 218:src/main.cpp  ****             float l2_raw = 1.0f - 2.0f * fabsf(p01 - 0.5f);   if(l2_raw < 0) l2_raw = 0;
 219:src/main.cpp  ****             float led1   = sqrtf(sqrtf(l2_raw));              // middle (DAC1)
 220:src/main.cpp  ****             float led2   = sqrtf(sqrtf(l1_raw));              // pos 0  (DAC2)
 221:src/main.cpp  ****             float led3   = sqrtf(sqrtf(l3_raw)) * LED3_INTENSITY; // pos 1 (PWM A0)
 222:src/main.cpp  ****             hw.dac.WriteValue(DacHandle::Channel::ONE, (uint16_t)(led1 * LED1_MAX));
 223:src/main.cpp  ****             hw.dac.WriteValue(DacHandle::Channel::TWO, (uint16_t)(led2 * LED2_MAX));
 224:src/main.cpp  ****             g_led3_duty = led3;
 225:src/main.cpp  **** 
 226:src/main.cpp  ****             // FSR: drive calibration, and also break out if it's pressed to the
 227:src/main.cpp  ****             // floor ŌĆö so the voice-select gesture (hold FSR) works straight from
 228:src/main.cpp  ****             // idle, without having to touch the glass first to exit the chase.
 229:src/main.cpp  ****             uint16_t fsr_now = hw.adc.Get(0);
 230:src/main.cpp  ****             if(fsr_now <= FSR_MIN) break;
 231:src/main.cpp  ****             if(!calibrated) {
 232:src/main.cpp  ****                 acc += fsr_now;
 233:src/main.cpp  ****                 n++;
 234:src/main.cpp  ****                 if(elapsed >= 2000) {
 235:src/main.cpp  ****                     commit_fsr_avg(acc, n);
 236:src/main.cpp  ****                     calibrated = true;
 237:src/main.cpp  ****                 }
 238:src/main.cpp  ****             }
 239:src/main.cpp  **** 
 240:src/main.cpp  ****             // Exit on any touch.
 241:src/main.cpp  ****             read_electrodes(scan);
 242:src/main.cpp  ****             int32_t max_d = 0;
 243:src/main.cpp  ****             for(int i = 0; i < N_CH; i++) {
 244:src/main.cpp  ****                 int32_t d = (int32_t)baseline[i] - (int32_t)scan[i];
 245:src/main.cpp  ****                 if(d > max_d) max_d = d;
 246:src/main.cpp  ****             }
 247:src/main.cpp  ****             if(max_d >= TOUCH_THRESHOLD) break;
 248:src/main.cpp  **** 
 249:src/main.cpp  ****             System::Delay(10);
 250:src/main.cpp  ****         }
 251:src/main.cpp  **** 
 252:src/main.cpp  ****         // Clean handoff back to the main loop's LED writer.
 253:src/main.cpp  ****         hw.dac.WriteValue(DacHandle::Channel::ONE, 0);
 254:src/main.cpp  ****         hw.dac.WriteValue(DacHandle::Channel::TWO, 0);
 255:src/main.cpp  ****         g_led3_duty = 0.0f;
 256:src/main.cpp  ****     };
 257:src/main.cpp  **** 
 258:src/main.cpp  ****     calibrate_fsr_silent();
 796              		.loc 6 258 5 view .LVU211
 797              	.LBB653:
ARM GAS  /tmp/claude-502/cc2bPfvH.s 			page 30


 798              	.LBI642:
 184:src/main.cpp  ****         uint32_t start = System::GetNow();
 799              		.loc 6 184 33 view .LVU212
 800              	.LBB652:
 801              	.LBB651:
 185:src/main.cpp  ****         uint32_t acc = 0; int n = 0;
 802              		.loc 6 185 9 view .LVU213
 185:src/main.cpp  ****         uint32_t acc = 0; int n = 0;
 803              		.loc 6 185 40 is_stmt 0 view .LVU214
 804 00ee FFF7FEFF 		bl	_ZN5daisy6System6GetNowEv
 805              	.LVL57:
 806 00f2 0646     		mov	r6, r0
 807              	.LVL58:
 186:src/main.cpp  ****         while(System::GetNow() - start < 2000) {
 808              		.loc 6 186 9 is_stmt 1 view .LVU215
 186:src/main.cpp  ****         while(System::GetNow() - start < 2000) {
 809              		.loc 6 186 27 view .LVU216
 186:src/main.cpp  ****         while(System::GetNow() - start < 2000) {
 810              		.loc 6 186 27 is_stmt 0 view .LVU217
 811 00f4 18E0     		b	.L54
 812              	.L528:
 813 00f6 00BF     		.align	2
 814              	.L527:
 815 00f8 00000000 		.word	.LANCHOR0
 816 00fc 00000000 		.word	.LANCHOR1
 817 0100 00000000 		.word	.LANCHOR2
 818 0104 20000000 		.word	.LANCHOR0+32
 819 0108 00000000 		.word	.LANCHOR3
 820 010c 00000000 		.word	.LANCHOR4
 821 0110 18000000 		.word	.LANCHOR0+24
 822 0114 EF4FC637 		.word	935743471
 823              	.LVL59:
 824              	.L490:
 188:src/main.cpp  ****             n++;
 825              		.loc 6 188 30 view .LVU218
 826 0118 FFF7FEFF 		bl	_ZNK5daisy9AdcHandle3GetEh
 827              	.LVL60:
 828 011c 0346     		mov	r3, r0
 190:src/main.cpp  ****         }
 829              		.loc 6 190 26 view .LVU219
 830 011e 0A20     		movs	r0, #10
 189:src/main.cpp  ****             System::Delay(10);
 831              		.loc 6 189 14 view .LVU220
 832 0120 0135     		adds	r5, r5, #1
 833              	.LVL61:
 188:src/main.cpp  ****             n++;
 834              		.loc 6 188 17 view .LVU221
 835 0122 1C44     		add	r4, r4, r3
 836              	.LVL62:
 189:src/main.cpp  ****             System::Delay(10);
 837              		.loc 6 189 13 is_stmt 1 view .LVU222
 190:src/main.cpp  ****         }
 838              		.loc 6 190 13 view .LVU223
 190:src/main.cpp  ****         }
 839              		.loc 6 190 26 is_stmt 0 view .LVU224
 840 0124 FFF7FEFF 		bl	_ZN5daisy6System5DelayEm
 841              	.LVL63:
ARM GAS  /tmp/claude-502/cc2bPfvH.s 			page 31


 842              	.L54:
 187:src/main.cpp  ****             acc += hw.adc.Get(0);
 843              		.loc 6 187 9 is_stmt 1 view .LVU225
 187:src/main.cpp  ****             acc += hw.adc.Get(0);
 844              		.loc 6 187 40 view .LVU226
 187:src/main.cpp  ****             acc += hw.adc.Get(0);
 845              		.loc 6 187 29 is_stmt 0 view .LVU227
 846 0128 FFF7FEFF 		bl	_ZN5daisy6System6GetNowEv
 847              	.LVL64:
 188:src/main.cpp  ****             n++;
 848              		.loc 6 188 13 is_stmt 1 view .LVU228
 187:src/main.cpp  ****             acc += hw.adc.Get(0);
 849              		.loc 6 187 29 is_stmt 0 view .LVU229
 850 012c 0346     		mov	r3, r0
 188:src/main.cpp  ****             n++;
 851              		.loc 6 188 30 view .LVU230
 852 012e 0021     		movs	r1, #0
 853 0130 9E48     		ldr	r0, .L529
 187:src/main.cpp  ****             acc += hw.adc.Get(0);
 854              		.loc 6 187 32 view .LVU231
 855 0132 9B1B     		subs	r3, r3, r6
 187:src/main.cpp  ****             acc += hw.adc.Get(0);
 856              		.loc 6 187 40 view .LVU232
 857 0134 B3F5FA6F 		cmp	r3, #2000
 858 0138 EED3     		bcc	.L490
 192:src/main.cpp  ****     };
 859              		.loc 6 192 9 is_stmt 1 view .LVU233
 860              	.LVL65:
 861              	.LBB645:
 862              	.LBI645:
 172:src/main.cpp  ****         if(n == 0) return;
 863              		.loc 6 172 27 view .LVU234
 864              	.LBB646:
 865              	.LBB647:
 173:src/main.cpp  ****         uint16_t avg = (uint16_t)(acc / n);
 866              		.loc 6 173 9 view .LVU235
 867 013a 55B3     		cbz	r5, .L55
 868              	.LVL66:
 173:src/main.cpp  ****         uint16_t avg = (uint16_t)(acc / n);
 869              		.loc 6 173 9 is_stmt 0 view .LVU236
 870              	.LBE647:
 871              	.LBB648:
 872              	.LBI648:
 172:src/main.cpp  ****         if(n == 0) return;
 873              		.loc 6 172 27 is_stmt 1 view .LVU237
 874              	.LBB649:
 875              	.LBB650:
 174:src/main.cpp  ****         // Sanity floor ŌĆö without enough headroom over FSR_MIN the volume curve
 876              		.loc 6 174 9 view .LVU238
 877 013c 42F23412 		movw	r2, #8500
 179:src/main.cpp  ****         fsr_active_inv = 1.0f / (float)(fsr_dead - FSR_MIN);
 878              		.loc 6 179 45 is_stmt 0 view .LVU239
 879 0140 9FED9B6A 		vldr.32	s12, .L529+4
 180:src/main.cpp  ****     };
 880              		.loc 6 180 31 view .LVU240
 881 0144 F7EE006A 		vmov.f32	s13, #1.0e+0
 174:src/main.cpp  ****         // Sanity floor ŌĆö without enough headroom over FSR_MIN the volume curve
ARM GAS  /tmp/claude-502/cc2bPfvH.s 			page 32


 882              		.loc 6 174 39 view .LVU241
 883 0148 B4FBF5F3 		udiv	r3, r4, r5
 174:src/main.cpp  ****         // Sanity floor ŌĆö without enough headroom over FSR_MIN the volume curve
 884              		.loc 6 174 18 view .LVU242
 885 014c 9BB2     		uxth	r3, r3
 886              	.LVL67:
 177:src/main.cpp  ****         fsr_max        = avg;
 887              		.loc 6 177 9 is_stmt 1 view .LVU243
 888 014e 9342     		cmp	r3, r2
 889 0150 38BF     		it	cc
 890 0152 1346     		movcc	r3, r2
 891              	.LVL68:
 178:src/main.cpp  ****         fsr_dead       = (uint16_t)(fsr_max - FSR_DEADZONE * (fsr_max - FSR_MIN));
 892              		.loc 6 178 9 view .LVU244
 179:src/main.cpp  ****         fsr_active_inv = 1.0f / (float)(fsr_dead - FSR_MIN);
 893              		.loc 6 179 45 is_stmt 0 view .LVU245
 894 0154 07EE903A 		vmov	s15, r3	@ int
 178:src/main.cpp  ****         fsr_dead       = (uint16_t)(fsr_max - FSR_DEADZONE * (fsr_max - FSR_MIN));
 895              		.loc 6 178 24 view .LVU246
 896 0158 ADF88030 		strh	r3, [sp, #128]	@ movhi
 179:src/main.cpp  ****         fsr_active_inv = 1.0f / (float)(fsr_dead - FSR_MIN);
 897              		.loc 6 179 9 is_stmt 1 view .LVU247
 179:src/main.cpp  ****         fsr_active_inv = 1.0f / (float)(fsr_dead - FSR_MIN);
 898              		.loc 6 179 71 is_stmt 0 view .LVU248
 899 015c A3F5FA53 		sub	r3, r3, #8000
 900              	.LVL69:
 179:src/main.cpp  ****         fsr_active_inv = 1.0f / (float)(fsr_dead - FSR_MIN);
 901              		.loc 6 179 45 view .LVU249
 902 0160 B8EEE77A 		vcvt.f32.s32	s14, s15
 179:src/main.cpp  ****         fsr_active_inv = 1.0f / (float)(fsr_dead - FSR_MIN);
 903              		.loc 6 179 60 view .LVU250
 904 0164 07EE903A 		vmov	s15, r3	@ int
 905 0168 F8EEE77A 		vcvt.f32.s32	s15, s15
 179:src/main.cpp  ****         fsr_active_inv = 1.0f / (float)(fsr_dead - FSR_MIN);
 906              		.loc 6 179 45 view .LVU251
 907 016c A7EEC67A 		vfms.f32	s14, s15, s12
 179:src/main.cpp  ****         fsr_active_inv = 1.0f / (float)(fsr_dead - FSR_MIN);
 908              		.loc 6 179 26 view .LVU252
 909 0170 FCEEC77A 		vcvt.u32.f32	s15, s14
 910 0174 17EE903A 		vmov	r3, s15	@ int
 911 0178 9BB2     		uxth	r3, r3
 179:src/main.cpp  ****         fsr_active_inv = 1.0f / (float)(fsr_dead - FSR_MIN);
 912              		.loc 6 179 24 view .LVU253
 913 017a ADF88230 		strh	r3, [sp, #130]	@ movhi
 180:src/main.cpp  ****     };
 914              		.loc 6 180 9 is_stmt 1 view .LVU254
 180:src/main.cpp  ****     };
 915              		.loc 6 180 50 is_stmt 0 view .LVU255
 916 017e A3F5FA53 		sub	r3, r3, #8000
 180:src/main.cpp  ****     };
 917              		.loc 6 180 33 view .LVU256
 918 0182 07EE903A 		vmov	s15, r3	@ int
 919 0186 F8EEE77A 		vcvt.f32.s32	s15, s15
 180:src/main.cpp  ****     };
 920              		.loc 6 180 31 view .LVU257
 921 018a 86EEA77A 		vdiv.f32	s14, s13, s15
 180:src/main.cpp  ****     };
ARM GAS  /tmp/claude-502/cc2bPfvH.s 			page 33


 922              		.loc 6 180 24 view .LVU258
 923 018e 8DED217A 		vstr.32	s14, [sp, #132]
 924              	.LVL70:
 925              	.L55:
 180:src/main.cpp  ****     };
 926              		.loc 6 180 24 view .LVU259
 927              	.LBE650:
 928              	.LBE649:
 929              	.LBE648:
 930              	.LBE646:
 931              	.LBE645:
 932              	.LBE651:
 933              	.LBE652:
 934              	.LBE653:
 259:src/main.cpp  **** 
 260:src/main.cpp  ****     // Boot-voice snapshot for the startup banner / initial targets. The main
 261:src/main.cpp  ****     // loop rebinds its own `VOICE` each frame so it always reflects the current
 262:src/main.cpp  ****     // voice index (which the FSR gesture can change live).
 263:src/main.cpp  ****     const Voice& VOICE = VOICES[g_voice_idx];
 935              		.loc 6 263 5 is_stmt 1 view .LVU260
 936              		.loc 6 263 33 is_stmt 0 view .LVU261
 937 0192 884F     		ldr	r7, .L529+8
 264:src/main.cpp  **** 
 265:src/main.cpp  ****     // ŌöĆŌöĆ Start audio ŌöĆŌöĆŌöĆŌöĆŌöĆŌöĆŌöĆŌöĆŌöĆŌöĆŌöĆŌöĆŌöĆŌöĆŌöĆŌöĆŌöĆŌöĆŌöĆŌöĆŌöĆŌöĆŌöĆŌöĆŌ
 266:src/main.cpp  ****     // Set initial targets before callback fires (voice-relative starting pitch)
 267:src/main.cpp  ****     g_target_freq   = VOICE.freq_low * 2.0f;
 268:src/main.cpp  ****     g_target_cutoff = 100.0f;
 269:src/main.cpp  ****     g_amp_target    = 0.0f;
 938              		.loc 6 269 21 view .LVU262
 939 0194 0025     		movs	r5, #0
 267:src/main.cpp  ****     g_target_cutoff = 100.0f;
 940              		.loc 6 267 29 view .LVU263
 941 0196 884B     		ldr	r3, .L529+12
 263:src/main.cpp  **** 
 942              		.loc 6 263 33 view .LVU264
 943 0198 3C68     		ldr	r4, [r7]
 944              	.LVL71:
 267:src/main.cpp  ****     g_target_cutoff = 100.0f;
 945              		.loc 6 267 5 is_stmt 1 view .LVU265
 267:src/main.cpp  ****     g_target_cutoff = 100.0f;
 946              		.loc 6 267 29 is_stmt 0 view .LVU266
 947 019a 1A46     		mov	r2, r3
 948 019c 9423     		movs	r3, #148
 267:src/main.cpp  ****     g_target_cutoff = 100.0f;
 949              		.loc 6 267 21 view .LVU267
 950 019e 8749     		ldr	r1, .L529+16
 267:src/main.cpp  ****     g_target_cutoff = 100.0f;
 951              		.loc 6 267 29 view .LVU268
 952 01a0 03FB0423 		mla	r3, r3, r4, r2
 953              		.loc 6 269 21 view .LVU269
 954 01a4 864E     		ldr	r6, .L529+20
 270:src/main.cpp  ****     hw.StartAudio(AudioCallback);
 955              		.loc 6 270 18 view .LVU270
 956 01a6 8748     		ldr	r0, .L529+24
 267:src/main.cpp  ****     g_target_cutoff = 100.0f;
 957              		.loc 6 267 29 view .LVU271
 958 01a8 93ED018A 		vldr.32	s16, [r3, #4]
ARM GAS  /tmp/claude-502/cc2bPfvH.s 			page 34


 268:src/main.cpp  ****     g_amp_target    = 0.0f;
 959              		.loc 6 268 21 view .LVU272
 960 01ac 864B     		ldr	r3, .L529+28
 267:src/main.cpp  ****     g_target_cutoff = 100.0f;
 961              		.loc 6 267 38 view .LVU273
 962 01ae 78EE087A 		vadd.f32	s15, s16, s16
 267:src/main.cpp  ****     g_target_cutoff = 100.0f;
 963              		.loc 6 267 29 view .LVU274
 964 01b2 0592     		str	r2, [sp, #20]
 267:src/main.cpp  ****     g_target_cutoff = 100.0f;
 965              		.loc 6 267 21 view .LVU275
 966 01b4 C1ED007A 		vstr.32	s15, [r1]
 268:src/main.cpp  ****     g_amp_target    = 0.0f;
 967              		.loc 6 268 5 is_stmt 1 view .LVU276
 268:src/main.cpp  ****     g_amp_target    = 0.0f;
 968              		.loc 6 268 21 is_stmt 0 view .LVU277
 969 01b8 8449     		ldr	r1, .L529+32
 970 01ba 0B60     		str	r3, [r1]	@ float
 269:src/main.cpp  ****     hw.StartAudio(AudioCallback);
 971              		.loc 6 269 5 is_stmt 1 view .LVU278
 972              		.loc 6 270 18 is_stmt 0 view .LVU279
 973 01bc 8449     		ldr	r1, .L529+36
 269:src/main.cpp  ****     hw.StartAudio(AudioCallback);
 974              		.loc 6 269 21 view .LVU280
 975 01be 3560     		str	r5, [r6]	@ float
 976              		.loc 6 270 5 is_stmt 1 view .LVU281
 977              		.loc 6 270 18 is_stmt 0 view .LVU282
 978 01c0 FFF7FEFF 		bl	_ZN5daisy9DaisySeed10StartAudioEPFvPKPKfPPfjE
 979              	.LVL72:
 271:src/main.cpp  **** 
 272:src/main.cpp  ****     // Boot beep ŌĆö 200ms tone so you can confirm headphone audio is working
 273:src/main.cpp  ****     g_amp_target = 0.4f;
 980              		.loc 6 273 5 is_stmt 1 view .LVU283
 981              		.loc 6 273 18 is_stmt 0 view .LVU284
 982 01c4 834B     		ldr	r3, .L529+40
 274:src/main.cpp  ****     System::Delay(200);
 983              		.loc 6 274 18 view .LVU285
 984 01c6 C820     		movs	r0, #200
 273:src/main.cpp  ****     System::Delay(200);
 985              		.loc 6 273 18 view .LVU286
 986 01c8 3360     		str	r3, [r6]	@ float
 987              		.loc 6 274 5 is_stmt 1 view .LVU287
 988              		.loc 6 274 18 is_stmt 0 view .LVU288
 989 01ca FFF7FEFF 		bl	_ZN5daisy6System5DelayEm
 990              	.LVL73:
 275:src/main.cpp  ****     g_amp_target = 0.0f;
 991              		.loc 6 275 5 is_stmt 1 view .LVU289
 276:src/main.cpp  ****     System::Delay(50);
 992              		.loc 6 276 18 is_stmt 0 view .LVU290
 993 01ce 3220     		movs	r0, #50
 275:src/main.cpp  ****     g_amp_target = 0.0f;
 994              		.loc 6 275 18 view .LVU291
 995 01d0 3560     		str	r5, [r6]	@ float
 996              		.loc 6 276 5 is_stmt 1 view .LVU292
 997              		.loc 6 276 18 is_stmt 0 view .LVU293
 998 01d2 FFF7FEFF 		bl	_ZN5daisy6System5DelayEm
 999              	.LVL74:
ARM GAS  /tmp/claude-502/cc2bPfvH.s 			page 35


 277:src/main.cpp  **** 
 278:src/main.cpp  ****     // ŌöĆŌöĆ USB serial (blocks until host connects) ŌöĆŌöĆŌöĆŌöĆŌöĆŌöĆŌöĆŌöĆŌöĆŌöĆŌöĆŌöĆŌöĆŌöĆŌöĆ
 279:src/main.cpp  ****     hw.StartLog(false); // false = don't wait for serial monitor
 1000              		.loc 6 279 5 is_stmt 1 view .LVU294
 1001              	.LBB654:
 1002              	.LBI654:
  23:/Users/reza.kalfane/Workspaces/Daisy/DaisyExamples/libDaisy/src/daisy_seed.h **** 
  24:/Users/reza.kalfane/Workspaces/Daisy/DaisyExamples/libDaisy/src/daisy_seed.h ****     /** This function used to provide a pre-initialization configuraiton 
  25:/Users/reza.kalfane/Workspaces/Daisy/DaisyExamples/libDaisy/src/daisy_seed.h ****      *  it has since been deprecated, and does nothing.
  26:/Users/reza.kalfane/Workspaces/Daisy/DaisyExamples/libDaisy/src/daisy_seed.h ****      */
  27:/Users/reza.kalfane/Workspaces/Daisy/DaisyExamples/libDaisy/src/daisy_seed.h ****     void Configure();
  28:/Users/reza.kalfane/Workspaces/Daisy/DaisyExamples/libDaisy/src/daisy_seed.h **** 
  29:/Users/reza.kalfane/Workspaces/Daisy/DaisyExamples/libDaisy/src/daisy_seed.h ****     /** 
  30:/Users/reza.kalfane/Workspaces/Daisy/DaisyExamples/libDaisy/src/daisy_seed.h ****     Initializes the Daisy Seed and the following peripherals:
  31:/Users/reza.kalfane/Workspaces/Daisy/DaisyExamples/libDaisy/src/daisy_seed.h ****     SDRAM, QSPI, 24-bit 48kHz Audio via AK4556, Internal USB,
  32:/Users/reza.kalfane/Workspaces/Daisy/DaisyExamples/libDaisy/src/daisy_seed.h ****     as well as the built-in LED and Testpoint.
  33:/Users/reza.kalfane/Workspaces/Daisy/DaisyExamples/libDaisy/src/daisy_seed.h **** 
  34:/Users/reza.kalfane/Workspaces/Daisy/DaisyExamples/libDaisy/src/daisy_seed.h ****     ADCs, DACs, and other special peripherals (such as I2C, SPI, etc.)
  35:/Users/reza.kalfane/Workspaces/Daisy/DaisyExamples/libDaisy/src/daisy_seed.h ****     can be initialized using their specific initializers within libdaisy
  36:/Users/reza.kalfane/Workspaces/Daisy/DaisyExamples/libDaisy/src/daisy_seed.h ****     for a specific application.
  37:/Users/reza.kalfane/Workspaces/Daisy/DaisyExamples/libDaisy/src/daisy_seed.h ****     */
  38:/Users/reza.kalfane/Workspaces/Daisy/DaisyExamples/libDaisy/src/daisy_seed.h ****     void Init(bool boost = false);
  39:/Users/reza.kalfane/Workspaces/Daisy/DaisyExamples/libDaisy/src/daisy_seed.h **** 
  40:/Users/reza.kalfane/Workspaces/Daisy/DaisyExamples/libDaisy/src/daisy_seed.h ****     /** 
  41:/Users/reza.kalfane/Workspaces/Daisy/DaisyExamples/libDaisy/src/daisy_seed.h ****     Deinitializes all peripherals automatically handled by `Init`.
  42:/Users/reza.kalfane/Workspaces/Daisy/DaisyExamples/libDaisy/src/daisy_seed.h ****     */
  43:/Users/reza.kalfane/Workspaces/Daisy/DaisyExamples/libDaisy/src/daisy_seed.h ****     void DeInit();
  44:/Users/reza.kalfane/Workspaces/Daisy/DaisyExamples/libDaisy/src/daisy_seed.h **** 
  45:/Users/reza.kalfane/Workspaces/Daisy/DaisyExamples/libDaisy/src/daisy_seed.h ****     /** 
  46:/Users/reza.kalfane/Workspaces/Daisy/DaisyExamples/libDaisy/src/daisy_seed.h ****     Wait some ms before going on.
  47:/Users/reza.kalfane/Workspaces/Daisy/DaisyExamples/libDaisy/src/daisy_seed.h ****     \param del Delay time in ms.
  48:/Users/reza.kalfane/Workspaces/Daisy/DaisyExamples/libDaisy/src/daisy_seed.h ****     */
  49:/Users/reza.kalfane/Workspaces/Daisy/DaisyExamples/libDaisy/src/daisy_seed.h ****     void DelayMs(size_t del);
  50:/Users/reza.kalfane/Workspaces/Daisy/DaisyExamples/libDaisy/src/daisy_seed.h **** 
  51:/Users/reza.kalfane/Workspaces/Daisy/DaisyExamples/libDaisy/src/daisy_seed.h ****     /** 
  52:/Users/reza.kalfane/Workspaces/Daisy/DaisyExamples/libDaisy/src/daisy_seed.h ****     Returns the gpio_pin corresponding to the index 0-31.
  53:/Users/reza.kalfane/Workspaces/Daisy/DaisyExamples/libDaisy/src/daisy_seed.h ****     For the given GPIO on the Daisy Seed (labeled 1-32 in docs).
  54:/Users/reza.kalfane/Workspaces/Daisy/DaisyExamples/libDaisy/src/daisy_seed.h ****     */
  55:/Users/reza.kalfane/Workspaces/Daisy/DaisyExamples/libDaisy/src/daisy_seed.h ****     static dsy_gpio_pin GetPin(uint8_t pin_idx);
  56:/Users/reza.kalfane/Workspaces/Daisy/DaisyExamples/libDaisy/src/daisy_seed.h **** 
  57:/Users/reza.kalfane/Workspaces/Daisy/DaisyExamples/libDaisy/src/daisy_seed.h ****     /** Begins the audio for the seeds builtin audio.
  58:/Users/reza.kalfane/Workspaces/Daisy/DaisyExamples/libDaisy/src/daisy_seed.h ****     the specified callback will get called whenever
  59:/Users/reza.kalfane/Workspaces/Daisy/DaisyExamples/libDaisy/src/daisy_seed.h ****     new data is ready to be prepared.
  60:/Users/reza.kalfane/Workspaces/Daisy/DaisyExamples/libDaisy/src/daisy_seed.h ****     */
  61:/Users/reza.kalfane/Workspaces/Daisy/DaisyExamples/libDaisy/src/daisy_seed.h ****     void StartAudio(AudioHandle::InterleavingAudioCallback cb);
  62:/Users/reza.kalfane/Workspaces/Daisy/DaisyExamples/libDaisy/src/daisy_seed.h **** 
  63:/Users/reza.kalfane/Workspaces/Daisy/DaisyExamples/libDaisy/src/daisy_seed.h ****     /** Begins the audio for the seeds builtin audio.
  64:/Users/reza.kalfane/Workspaces/Daisy/DaisyExamples/libDaisy/src/daisy_seed.h ****     the specified callback will get called whenever
  65:/Users/reza.kalfane/Workspaces/Daisy/DaisyExamples/libDaisy/src/daisy_seed.h ****     new data is ready to be prepared.
  66:/Users/reza.kalfane/Workspaces/Daisy/DaisyExamples/libDaisy/src/daisy_seed.h ****     This will use the newer non-interleaved callback.
  67:/Users/reza.kalfane/Workspaces/Daisy/DaisyExamples/libDaisy/src/daisy_seed.h ****     */
  68:/Users/reza.kalfane/Workspaces/Daisy/DaisyExamples/libDaisy/src/daisy_seed.h ****     void StartAudio(AudioHandle::AudioCallback cb);
  69:/Users/reza.kalfane/Workspaces/Daisy/DaisyExamples/libDaisy/src/daisy_seed.h **** 
  70:/Users/reza.kalfane/Workspaces/Daisy/DaisyExamples/libDaisy/src/daisy_seed.h ****     /** Changes to a new interleaved callback
  71:/Users/reza.kalfane/Workspaces/Daisy/DaisyExamples/libDaisy/src/daisy_seed.h ****      */
  72:/Users/reza.kalfane/Workspaces/Daisy/DaisyExamples/libDaisy/src/daisy_seed.h ****     void ChangeAudioCallback(AudioHandle::InterleavingAudioCallback cb);
  73:/Users/reza.kalfane/Workspaces/Daisy/DaisyExamples/libDaisy/src/daisy_seed.h **** 
ARM GAS  /tmp/claude-502/cc2bPfvH.s 			page 36


  74:/Users/reza.kalfane/Workspaces/Daisy/DaisyExamples/libDaisy/src/daisy_seed.h ****     /** Changes to a new multichannel callback
  75:/Users/reza.kalfane/Workspaces/Daisy/DaisyExamples/libDaisy/src/daisy_seed.h ****      */
  76:/Users/reza.kalfane/Workspaces/Daisy/DaisyExamples/libDaisy/src/daisy_seed.h ****     void ChangeAudioCallback(AudioHandle::AudioCallback cb);
  77:/Users/reza.kalfane/Workspaces/Daisy/DaisyExamples/libDaisy/src/daisy_seed.h **** 
  78:/Users/reza.kalfane/Workspaces/Daisy/DaisyExamples/libDaisy/src/daisy_seed.h ****     /** Stops the audio if it is running. */
  79:/Users/reza.kalfane/Workspaces/Daisy/DaisyExamples/libDaisy/src/daisy_seed.h ****     void StopAudio();
  80:/Users/reza.kalfane/Workspaces/Daisy/DaisyExamples/libDaisy/src/daisy_seed.h **** 
  81:/Users/reza.kalfane/Workspaces/Daisy/DaisyExamples/libDaisy/src/daisy_seed.h ****     /** Updates the Audio Sample Rate, and reinitializes.
  82:/Users/reza.kalfane/Workspaces/Daisy/DaisyExamples/libDaisy/src/daisy_seed.h ****      ** Audio must be stopped for this to work.
  83:/Users/reza.kalfane/Workspaces/Daisy/DaisyExamples/libDaisy/src/daisy_seed.h ****      */
  84:/Users/reza.kalfane/Workspaces/Daisy/DaisyExamples/libDaisy/src/daisy_seed.h ****     void SetAudioSampleRate(SaiHandle::Config::SampleRate samplerate);
  85:/Users/reza.kalfane/Workspaces/Daisy/DaisyExamples/libDaisy/src/daisy_seed.h **** 
  86:/Users/reza.kalfane/Workspaces/Daisy/DaisyExamples/libDaisy/src/daisy_seed.h ****     /** Returns the audio sample rate in Hz as a floating point number.
  87:/Users/reza.kalfane/Workspaces/Daisy/DaisyExamples/libDaisy/src/daisy_seed.h ****      */
  88:/Users/reza.kalfane/Workspaces/Daisy/DaisyExamples/libDaisy/src/daisy_seed.h ****     float AudioSampleRate();
  89:/Users/reza.kalfane/Workspaces/Daisy/DaisyExamples/libDaisy/src/daisy_seed.h **** 
  90:/Users/reza.kalfane/Workspaces/Daisy/DaisyExamples/libDaisy/src/daisy_seed.h ****     /** Sets the number of samples processed per channel by the audio callback.
  91:/Users/reza.kalfane/Workspaces/Daisy/DaisyExamples/libDaisy/src/daisy_seed.h ****      */
  92:/Users/reza.kalfane/Workspaces/Daisy/DaisyExamples/libDaisy/src/daisy_seed.h ****     void SetAudioBlockSize(size_t blocksize);
  93:/Users/reza.kalfane/Workspaces/Daisy/DaisyExamples/libDaisy/src/daisy_seed.h **** 
  94:/Users/reza.kalfane/Workspaces/Daisy/DaisyExamples/libDaisy/src/daisy_seed.h ****     /** Returns the number of samples per channel in a block of audio. */
  95:/Users/reza.kalfane/Workspaces/Daisy/DaisyExamples/libDaisy/src/daisy_seed.h ****     size_t AudioBlockSize();
  96:/Users/reza.kalfane/Workspaces/Daisy/DaisyExamples/libDaisy/src/daisy_seed.h **** 
  97:/Users/reza.kalfane/Workspaces/Daisy/DaisyExamples/libDaisy/src/daisy_seed.h ****     /** Returns the rate in Hz that the Audio callback is called */
  98:/Users/reza.kalfane/Workspaces/Daisy/DaisyExamples/libDaisy/src/daisy_seed.h ****     float AudioCallbackRate() const;
  99:/Users/reza.kalfane/Workspaces/Daisy/DaisyExamples/libDaisy/src/daisy_seed.h **** 
 100:/Users/reza.kalfane/Workspaces/Daisy/DaisyExamples/libDaisy/src/daisy_seed.h ****     /** Returns the SAI Handle for the Daisy Seed 
 101:/Users/reza.kalfane/Workspaces/Daisy/DaisyExamples/libDaisy/src/daisy_seed.h ****      *  This can be useful when adding a secondary codec,
 102:/Users/reza.kalfane/Workspaces/Daisy/DaisyExamples/libDaisy/src/daisy_seed.h ****      *  the result of this function can be passed to the audio reinit 
 103:/Users/reza.kalfane/Workspaces/Daisy/DaisyExamples/libDaisy/src/daisy_seed.h ****      *  with an SAI2 configuration
 104:/Users/reza.kalfane/Workspaces/Daisy/DaisyExamples/libDaisy/src/daisy_seed.h ****      */
 105:/Users/reza.kalfane/Workspaces/Daisy/DaisyExamples/libDaisy/src/daisy_seed.h ****     const SaiHandle& AudioSaiHandle() const;
 106:/Users/reza.kalfane/Workspaces/Daisy/DaisyExamples/libDaisy/src/daisy_seed.h **** 
 107:/Users/reza.kalfane/Workspaces/Daisy/DaisyExamples/libDaisy/src/daisy_seed.h ****     /** Sets the state of the built in LED
 108:/Users/reza.kalfane/Workspaces/Daisy/DaisyExamples/libDaisy/src/daisy_seed.h ****      */
 109:/Users/reza.kalfane/Workspaces/Daisy/DaisyExamples/libDaisy/src/daisy_seed.h ****     void SetLed(bool state);
 110:/Users/reza.kalfane/Workspaces/Daisy/DaisyExamples/libDaisy/src/daisy_seed.h **** 
 111:/Users/reza.kalfane/Workspaces/Daisy/DaisyExamples/libDaisy/src/daisy_seed.h ****     /** Sets the state of the test point near pin 10
 112:/Users/reza.kalfane/Workspaces/Daisy/DaisyExamples/libDaisy/src/daisy_seed.h ****      */
 113:/Users/reza.kalfane/Workspaces/Daisy/DaisyExamples/libDaisy/src/daisy_seed.h ****     void SetTestPoint(bool state);
 114:/Users/reza.kalfane/Workspaces/Daisy/DaisyExamples/libDaisy/src/daisy_seed.h **** 
 115:/Users/reza.kalfane/Workspaces/Daisy/DaisyExamples/libDaisy/src/daisy_seed.h ****     /** Print formatted debug log message
 116:/Users/reza.kalfane/Workspaces/Daisy/DaisyExamples/libDaisy/src/daisy_seed.h ****      */
 117:/Users/reza.kalfane/Workspaces/Daisy/DaisyExamples/libDaisy/src/daisy_seed.h ****     template <typename... VA>
 118:/Users/reza.kalfane/Workspaces/Daisy/DaisyExamples/libDaisy/src/daisy_seed.h ****     static void Print(const char* format, VA... va)
 119:/Users/reza.kalfane/Workspaces/Daisy/DaisyExamples/libDaisy/src/daisy_seed.h ****     {
 120:/Users/reza.kalfane/Workspaces/Daisy/DaisyExamples/libDaisy/src/daisy_seed.h ****         Log::Print(format, va...);
 121:/Users/reza.kalfane/Workspaces/Daisy/DaisyExamples/libDaisy/src/daisy_seed.h ****     }
 122:/Users/reza.kalfane/Workspaces/Daisy/DaisyExamples/libDaisy/src/daisy_seed.h **** 
 123:/Users/reza.kalfane/Workspaces/Daisy/DaisyExamples/libDaisy/src/daisy_seed.h ****     /** Print formatted debug log message with automatic line termination
 124:/Users/reza.kalfane/Workspaces/Daisy/DaisyExamples/libDaisy/src/daisy_seed.h ****     */
 125:/Users/reza.kalfane/Workspaces/Daisy/DaisyExamples/libDaisy/src/daisy_seed.h ****     template <typename... VA>
 126:/Users/reza.kalfane/Workspaces/Daisy/DaisyExamples/libDaisy/src/daisy_seed.h ****     static void PrintLine(const char* format, VA... va)
 127:/Users/reza.kalfane/Workspaces/Daisy/DaisyExamples/libDaisy/src/daisy_seed.h ****     {
 128:/Users/reza.kalfane/Workspaces/Daisy/DaisyExamples/libDaisy/src/daisy_seed.h ****         Log::PrintLine(format, va...);
 129:/Users/reza.kalfane/Workspaces/Daisy/DaisyExamples/libDaisy/src/daisy_seed.h ****     }
 130:/Users/reza.kalfane/Workspaces/Daisy/DaisyExamples/libDaisy/src/daisy_seed.h **** 
ARM GAS  /tmp/claude-502/cc2bPfvH.s 			page 37


 131:/Users/reza.kalfane/Workspaces/Daisy/DaisyExamples/libDaisy/src/daisy_seed.h ****     /** Start the logging session. Optionally wait for terminal connection before proceeding.
 132:/Users/reza.kalfane/Workspaces/Daisy/DaisyExamples/libDaisy/src/daisy_seed.h ****     */
 133:/Users/reza.kalfane/Workspaces/Daisy/DaisyExamples/libDaisy/src/daisy_seed.h ****     static void StartLog(bool wait_for_pc = false)
 1003              		.loc 1 133 17 view .LVU295
 1004              	.LBB655:
 134:/Users/reza.kalfane/Workspaces/Daisy/DaisyExamples/libDaisy/src/daisy_seed.h ****     {
 135:/Users/reza.kalfane/Workspaces/Daisy/DaisyExamples/libDaisy/src/daisy_seed.h ****         Log::StartLog(wait_for_pc);
 1005              		.loc 1 135 9 view .LVU296
 1006              		.loc 1 135 22 is_stmt 0 view .LVU297
 1007 01d6 0020     		movs	r0, #0
 1008 01d8 FFF7FEFF 		bl	_ZN5daisy6LoggerILNS_17LoggerDestinationE1EE8StartLogEb
 1009              	.LVL75:
 1010              		.loc 1 135 22 view .LVU298
 1011              	.LBE655:
 1012              	.LBE654:
 280:src/main.cpp  **** 
 281:src/main.cpp  ****     hw.PrintLine("Glass Moog Synth");
 1013              		.loc 6 281 5 is_stmt 1 view .LVU299
 1014              	.LBB656:
 1015              	.LBI656:
 126:/Users/reza.kalfane/Workspaces/Daisy/DaisyExamples/libDaisy/src/daisy_seed.h ****     {
 1016              		.loc 1 126 17 view .LVU300
 1017              	.LBB657:
 128:/Users/reza.kalfane/Workspaces/Daisy/DaisyExamples/libDaisy/src/daisy_seed.h ****     }
 1018              		.loc 1 128 23 is_stmt 0 view .LVU301
 1019 01dc 7E48     		ldr	r0, .L529+44
 1020 01de FFF7FEFF 		bl	_ZN5daisy6LoggerILNS_17LoggerDestinationE1EE9PrintLineEPKcz
 1021              	.LVL76:
 128:/Users/reza.kalfane/Workspaces/Daisy/DaisyExamples/libDaisy/src/daisy_seed.h ****     }
 1022              		.loc 1 128 23 view .LVU302
 1023              	.LBE657:
 1024              	.LBE656:
 282:src/main.cpp  ****     hw.PrintLine("================");
 1025              		.loc 6 282 5 is_stmt 1 view .LVU303
 1026              	.LBB658:
 1027              	.LBI658:
 126:/Users/reza.kalfane/Workspaces/Daisy/DaisyExamples/libDaisy/src/daisy_seed.h ****     {
 1028              		.loc 1 126 17 view .LVU304
 1029              	.LBB659:
 128:/Users/reza.kalfane/Workspaces/Daisy/DaisyExamples/libDaisy/src/daisy_seed.h ****     }
 1030              		.loc 1 128 23 is_stmt 0 view .LVU305
 1031 01e2 7E48     		ldr	r0, .L529+48
 1032 01e4 FFF7FEFF 		bl	_ZN5daisy6LoggerILNS_17LoggerDestinationE1EE9PrintLineEPKcz
 1033              	.LVL77:
 128:/Users/reza.kalfane/Workspaces/Daisy/DaisyExamples/libDaisy/src/daisy_seed.h ****     }
 1034              		.loc 1 128 23 view .LVU306
 1035              	.LBE659:
 1036              	.LBE658:
 283:src/main.cpp  ****     hw.PrintLine("Voice %d/%d: %s  (%d-%dHz)",
 1037              		.loc 6 283 5 is_stmt 1 view .LVU307
 1038              		.loc 6 283 17 is_stmt 0 view .LVU308
 1039 01e8 3B68     		ldr	r3, [r7]
 1040              	.LVL78:
 1041              	.LBB660:
 1042              	.LBI660:
 1043              		.file 8 "src/voice.h"
   1:src/voice.h   **** #pragma once
ARM GAS  /tmp/claude-502/cc2bPfvH.s 			page 38


   2:src/voice.h   **** // The voice model: the Voice struct, all presets, the VOICES[] bank, the
   3:src/voice.h   **** // Drums MultiVoice config, and the FSR-cycle helpers.
   4:src/voice.h   **** #include "dsp.h" // Waveform
   5:src/voice.h   **** #include <cstdint>
   6:src/voice.h   **** 
   7:src/voice.h   **** struct Voice {
   8:src/voice.h   ****   const char *name;
   9:src/voice.h   **** 
  10:src/voice.h   ****   // Pitch range. Finger-1 position 0ŌĆō1000 maps exponentially across this.
  11:src/voice.h   ****   float freq_low;
  12:src/voice.h   ****   float freq_high;
  13:src/voice.h   ****   float log_freq_ratio; // = ln(freq_high / freq_low), precomputed (logf isn't
  14:src/voice.h   ****                         // constexpr)
  15:src/voice.h   **** 
  16:src/voice.h   ****   // Oscillator stack. Each oscillator's pitch = fundamental * ratio, and each
  17:src/voice.h   ****   // has its own waveform. Set a level to 0 to silence an oscillator.
  18:src/voice.h   ****   float osc1_ratio, osc1_level;
  19:src/voice.h   ****   Waveform osc1_wave; // primary
  20:src/voice.h   ****   float osc2_ratio, osc2_level;
  21:src/voice.h   ****   Waveform osc2_wave; // second osc (see osc2_detune)
  22:src/voice.h   ****   float sub_ratio, sub_level;
  23:src/voice.h   ****   Waveform sub_wave; // weight below
  24:src/voice.h   ****   float oct_ratio, oct_level;
  25:src/voice.h   ****   Waveform oct_wave; // shimmer / chord top
  26:src/voice.h   ****   bool osc2_detune;  // true  ŌåÆ finger-2 detune controls osc2 pitch (lead)
  27:src/voice.h   ****                      // false ŌåÆ osc2 stays at osc2_ratio (e.g. a fixed 5th)
  28:src/voice.h   **** 
  29:src/voice.h   ****   // Filter character. Base cutoff = freq * cutoff_mult; pressure opens it
  30:src/voice.h   ****   // by up to cutoff_oct_max octaves on top.
  31:src/voice.h   ****   float cutoff_mult;
  32:src/voice.h   ****   float cutoff_oct_max;
  33:src/voice.h   ****   float resonance;
  34:src/voice.h   **** 
  35:src/voice.h   ****   // Drive ŌĆö pressure-controlled waveshaper gain added on top of 1.0.
  36:src/voice.h   ****   float drive_max;
  37:src/voice.h   **** 
  38:src/voice.h   ****   // ŌöĆŌöĆ Extras (appended so existing field order stays stable) ŌöĆŌöĆŌöĆŌöĆŌöĆŌöĆŌöĆŌöĆŌöĆŌöĆŌö
  39:src/voice.h   ****   float noise_level;   // white noise mixed into the oscillator stack (0 = none)
  40:src/voice.h   ****   float keytrack;      // 0..1 ŌĆö how much the cutoff follows pitch (1 = full)
  41:src/voice.h   ****   float ringmod_ratio; // ring-mod carrier pitch ratio (1.0 = unison; non-int =
  42:src/voice.h   ****                        // bell/metallic)
  43:src/voice.h   ****   float ringmod_max;   // max ring-mod wet from finger-2 pressure
  44:src/voice.h   ****   float fold_max;      // max wavefold amount from finger-2 pressure
  45:src/voice.h   ****   float attack_ms;     // amp envelope attack time
  46:src/voice.h   ****   float release_ms;    // amp envelope + filter-close release time
  47:src/voice.h   ****   float glide_ms;      // portamento (pitch glide) time
  48:src/voice.h   **** 
  49:src/voice.h   ****   // Pitch envelope ŌĆö a fast downward pitch sweep at note onset (kick "boom",
  50:src/voice.h   ****   // zap, tom thump). Left at 0 (the default for voices that omit them) = off.
  51:src/voice.h   ****   float pitch_env_oct; // octaves the pitch starts ABOVE the note at onset (0 =
  52:src/voice.h   ****                        // none)
  53:src/voice.h   ****   float pitch_env_ms;  // time the pitch sweep takes to settle to the note
  54:src/voice.h   **** 
  55:src/voice.h   ****   // Noise tone: 0 = full white noise ("shhh"), 1 = high-passed/bright ("tsss",
  56:src/voice.h   ****   // for hi-hats/cymbals). Default 0 leaves the noise white. See NOISE_HP_COEF.
  57:src/voice.h   ****   float noise_hp;
  58:src/voice.h   **** 
ARM GAS  /tmp/claude-502/cc2bPfvH.s 			page 39


  59:src/voice.h   ****   // FSR-gesture cycling: true = skip this voice in the cycle (still reachable
  60:src/voice.h   ****   // as the boot voice or via the Drums MultiVoice). Default false = in cycle.
  61:src/voice.h   ****   // The raw drums set this so the gesture cycles instruments + Drums only.
  62:src/voice.h   ****   bool no_cycle;
  63:src/voice.h   **** 
  64:src/voice.h   ****   // Velocity sensitivity 0..1: how much the onset hit strength (peak pressure
  65:src/voice.h   ****   // in the first few ms) scales loudness. 0 = fixed loudness (default ŌĆö the
  66:src/voice.h   ****   // sustained instruments); ~0.85 on drums for accents/ghost notes. Loudness
  67:src/voice.h   ****   // floor = (1 - vel_sens), so soft taps stay audible.
  68:src/voice.h   ****   float vel_sens;
  69:src/voice.h   **** 
  70:src/voice.h   ****   // Re-attack speed on hold: minimum ms between bounce-retriggers (the cap on
  71:src/voice.h   ****   // how fast a held finger can repeat by pulsing pressure). SMALLER = faster
  72:src/voice.h   ****   // repeats allowed; LARGER = slower. 0 = off (only a full lift + re-tap
  73:src/voice.h   ****   // retriggers). A full lift always retriggers regardless. Default 0 keeps the
  74:src/voice.h   ****   // melodic voices free of accidental re-articulation; drums set a value.
  75:src/voice.h   ****   float retrig_ms;
  76:src/voice.h   **** 
  77:src/voice.h   ****   // Pitch quantize: true = snap finger-1 to the nearest note of `scale` on
  78:src/voice.h   ****   // touch-down, then bend freely while sliding (see quantize_midi in main.cpp).
  79:src/voice.h   ****   // false = fully continuous pitch. Default false; only the Organ sets it.
  80:src/voice.h   ****   bool quantize;
  81:src/voice.h   **** 
  82:src/voice.h   ****   // Quantize scale: the scale degrees (semitone offsets within an octave) that
  83:src/voice.h   ****   // finger-1 snaps to when quantize is true. Point at one of the SCALE_* tables
  84:src/voice.h   ****   // below (or your own). null/0 = no snap (continuous). Ignored when quantize
  85:src/voice.h   ****   // is false, so non-quantizing voices leave these at their defaults.
  86:src/voice.h   ****   const int8_t *scale;
  87:src/voice.h   ****   int scale_len;
  88:src/voice.h   **** };
  89:src/voice.h   **** 
  90:src/voice.h   **** // ŌöĆŌöĆ Quantize scales ŌöĆŌöĆŌöĆŌöĆŌöĆŌöĆŌöĆŌöĆŌöĆŌöĆŌöĆŌöĆŌöĆŌöĆŌöĆŌöĆŌöĆŌöĆŌöĆŌöĆŌöĆŌöĆŌöĆŌöĆŌ
  91:src/voice.h   **** // Semitone offsets within an octave. A voice with quantize = true snaps finger-1
  92:src/voice.h   **** // to the nearest degree of its `scale` (see Voice::scale / quantize_midi).
  93:src/voice.h   **** static constexpr int8_t SCALE_CHROMATIC[] = {0, 1, 2, 3, 4,  5,
  94:src/voice.h   ****                                              6, 7, 8, 9, 10, 11};
  95:src/voice.h   **** static constexpr int8_t SCALE_MAJOR[] = {0, 2, 4, 5, 7, 9, 11};
  96:src/voice.h   **** static constexpr int8_t SCALE_MINOR[] = {0, 2, 3, 5, 7, 8, 10};
  97:src/voice.h   **** 
  98:src/voice.h   **** // Perfect-fifth frequency ratio = 2^(7/12).
  99:src/voice.h   **** static constexpr float RATIO_FIFTH = 1.49831f;
 100:src/voice.h   **** 
 101:src/voice.h   **** // The presets below are hand-formatted one-field-per-line with section headers;
 102:src/voice.h   **** // clang-format is disabled across the bank so it can't collapse the layout.
 103:src/voice.h   **** // clang-format off
 104:src/voice.h   **** 
 105:src/voice.h   **** // ŌöĆŌöĆ Voice 0: the original glass-Moog lead ŌöĆŌöĆŌöĆŌöĆŌöĆŌöĆŌöĆŌöĆŌöĆŌöĆŌöĆŌöĆŌöĆŌöĆŌöĆŌöĆŌöĆ
 106:src/voice.h   **** //   F1 posŌåÆpitch, F1 prsŌåÆcutoff+vibrato; F2 posŌåÆdetune, F2 prsŌåÆwavefold+ringmod.
 107:src/voice.h   **** static constexpr Voice VOICE_LEAD = {
 108:src/voice.h   ****     "Lead",
 109:src/voice.h   ****     // FREQUENCY RANGE
 110:src/voice.h   ****     50.0f,
 111:src/voice.h   ****     300.0f,
 112:src/voice.h   ****     1.79176f,            // precomputed ln(freq_high/freq_low)
 113:src/voice.h   ****     // OSCILLATOR STACK
 114:src/voice.h   ****     1.0f,
 115:src/voice.h   ****     0.50f,
ARM GAS  /tmp/claude-502/cc2bPfvH.s 			page 40


 116:src/voice.h   ****     WAVE_TRI,            // primary oscillator: root
 117:src/voice.h   ****     // SECONDARY OSCILLATOR
 118:src/voice.h   ****     1.0f,
 119:src/voice.h   ****     0.22f,
 120:src/voice.h   ****     WAVE_TRI,            // secondary oscillator: detune-controlled, ratio is just the base
 121:src/voice.h   ****     // SUB OSCILLATOR
 122:src/voice.h   ****     0.5f,
 123:src/voice.h   ****     0.18f,
 124:src/voice.h   ****     WAVE_TRI,            // sub   ŌĆö one octave below
 125:src/voice.h   ****     // OCTAVE OSCILLATOR
 126:src/voice.h   ****     2.0f,
 127:src/voice.h   ****     0.15f,
 128:src/voice.h   ****     WAVE_TRI,            // oct   ŌĆö one octave above
 129:src/voice.h   ****     // FILTER
 130:src/voice.h   ****     true,                // osc2 follows finger-2 detune
 131:src/voice.h   ****     0.3f,
 132:src/voice.h   ****     12.0f,
 133:src/voice.h   ****     0.75f,
 134:src/voice.h   ****     // DRIVE
 135:src/voice.h   ****     2.5f,
 136:src/voice.h   ****     // NOISE
 137:src/voice.h   ****     0.0f,                // noise level
 138:src/voice.h   ****     1.0f,                // keytrack
 139:src/voice.h   ****     1.0f,                // ringmod ratio (1.0 = unison; non-int = bell/metallic)
 140:src/voice.h   ****     0.15f,               // ringmod max
 141:src/voice.h   ****     0.18f,               // fold max
 142:src/voice.h   ****     4.0f,                // attack
 143:src/voice.h   ****     400.0f,              // release
 144:src/voice.h   ****     40.0f                // glide
 145:src/voice.h   ****     // PITCH ENVELOPE
 146:src/voice.h   ****     // PITCH QUANTIZE
 147:src/voice.h   **** };
 148:src/voice.h   **** 
 149:src/voice.h   **** // ŌöĆŌöĆ Voice 1: round & dark power-chord bass (root + 5th + octave + sub) ŌöĆŌöĆŌöĆŌöĆŌöĆŌöĆŌöĆŌ
 150:src/voice.h   **** //   Same touch mappings, but osc2 is a fixed perfect fifth instead of a detune,
 151:src/voice.h   **** //   so every note sounds as a power chord. Lower range, gentler filter, less
 152:src/voice.h   **** //   drive ŌåÆ deep and round rather than bright and screaming.
 153:src/voice.h   **** static constexpr Voice VOICE_BASS = {
 154:src/voice.h   ****     "Bass",
 155:src/voice.h   ****     // FREQUENCY RANGE
 156:src/voice.h   ****     40.0f,
 157:src/voice.h   ****     160.0f,
 158:src/voice.h   ****     1.38629f,            // 40ŌĆō160 Hz, ln(4) ŌĆö sits under the lead
 159:src/voice.h   ****     // OSCILLATOR STACK
 160:src/voice.h   ****     1.0f,
 161:src/voice.h   ****     0.45f,
 162:src/voice.h   ****     WAVE_TRI,            // osc1  ŌĆö root
 163:src/voice.h   ****     // SECONDARY OSCILLATOR
 164:src/voice.h   ****     RATIO_FIFTH,
 165:src/voice.h   ****     0.30f,
 166:src/voice.h   ****     WAVE_TRI,            // osc2  ŌĆö fixed perfect fifth (the power chord)
 167:src/voice.h   ****     // SUB OSCILLATOR
 168:src/voice.h   ****     0.5f,
 169:src/voice.h   ****     0.34f,
 170:src/voice.h   ****     WAVE_TRI,            // sub   ŌĆö extra weight for a round bottom
 171:src/voice.h   ****     // OCTAVE OSCILLATOR
 172:src/voice.h   ****     2.0f,
ARM GAS  /tmp/claude-502/cc2bPfvH.s 			page 41


 173:src/voice.h   ****     0.20f,
 174:src/voice.h   ****     WAVE_TRI,            // oct   ŌĆö top of the power chord
 175:src/voice.h   ****     // FILTER
 176:src/voice.h   ****     false,               // osc2 is a fixed fifth, not finger-2 detune
 177:src/voice.h   ****     0.25f,
 178:src/voice.h   ****     7.0f,
 179:src/voice.h   ****     0.50f,               // darker: lower base cutoff, gentler sweep, less res
 180:src/voice.h   ****     // DRIVE
 181:src/voice.h   ****     1.0f,                // less drive ŌĆö keep it clean and round
 182:src/voice.h   ****     // NOISE
 183:src/voice.h   ****     0.0f,                // noise level
 184:src/voice.h   ****     1.0f,                // keytrack
 185:src/voice.h   ****     1.0f,                // ringmod ratio
 186:src/voice.h   ****     0.12f,               // ringmod max
 187:src/voice.h   ****     0.12f,               // fold max
 188:src/voice.h   ****     6.0f,                // attack
 189:src/voice.h   ****     300.0f,              // release
 190:src/voice.h   ****     25.0f                // glide
 191:src/voice.h   ****     // PITCH ENVELOPE
 192:src/voice.h   ****     // PITCH QUANTIZE
 193:src/voice.h   **** };
 194:src/voice.h   **** 
 195:src/voice.h   **** // ŌöĆŌöĆ Voice 2: open power-chord bass ŌöĆŌöĆŌöĆŌöĆŌöĆŌöĆŌöĆŌöĆŌöĆŌöĆŌöĆŌöĆŌöĆŌöĆŌöĆŌöĆŌöĆŌöĆŌöĆŌ
 196:src/voice.h   **** //   Same chord stack as VOICE_BASS, but the filter starts brighter and sweeps
 197:src/voice.h   **** //   much further with pressure ŌĆö light touch is still warm, hard press opens it
 198:src/voice.h   **** //   wide. A touch more resonance and drive for presence as it opens.
 199:src/voice.h   **** static constexpr Voice VOICE_BASS_OPEN = {
 200:src/voice.h   ****     "OpenBass",
 201:src/voice.h   ****     // FREQUENCY RANGE
 202:src/voice.h   ****     40.0f,
 203:src/voice.h   ****     180.0f,
 204:src/voice.h   ****     1.50408f,            // 40ŌĆō180 Hz, ln(4.5) ŌĆö a little more reach up top
 205:src/voice.h   ****     // OSCILLATOR STACK
 206:src/voice.h   ****     1.0f,
 207:src/voice.h   ****     0.45f,
 208:src/voice.h   ****     WAVE_TRI,            // osc1  ŌĆö root
 209:src/voice.h   ****     // SECONDARY OSCILLATOR
 210:src/voice.h   ****     RATIO_FIFTH,
 211:src/voice.h   ****     0.30f,
 212:src/voice.h   ****     WAVE_TRI,            // osc2  ŌĆö fixed perfect fifth (the power chord)
 213:src/voice.h   ****     // SUB OSCILLATOR
 214:src/voice.h   ****     0.5f,
 215:src/voice.h   ****     0.30f,
 216:src/voice.h   ****     WAVE_TRI,            // sub   ŌĆö slightly less so the openness reads
 217:src/voice.h   ****     // OCTAVE OSCILLATOR
 218:src/voice.h   ****     2.0f,
 219:src/voice.h   ****     0.22f,
 220:src/voice.h   ****     WAVE_TRI,            // oct   ŌĆö top of the power chord
 221:src/voice.h   ****     // FILTER
 222:src/voice.h   ****     false,               // osc2 is a fixed fifth, not finger-2 detune
 223:src/voice.h   ****     0.5f,
 224:src/voice.h   ****     10.0f,
 225:src/voice.h   ****     0.65f,               // brighter base + wider pressure sweep + more resonance
 226:src/voice.h   ****     // DRIVE
 227:src/voice.h   ****     1.8f,                // more drive ŌĆö grit comes in as you press
 228:src/voice.h   ****     // NOISE
 229:src/voice.h   ****     0.0f,                // noise level
ARM GAS  /tmp/claude-502/cc2bPfvH.s 			page 42


 230:src/voice.h   ****     1.0f,                // keytrack
 231:src/voice.h   ****     1.0f,                // ringmod ratio
 232:src/voice.h   ****     0.15f,               // ringmod max
 233:src/voice.h   ****     0.15f,               // fold max
 234:src/voice.h   ****     5.0f,                // attack
 235:src/voice.h   ****     350.0f,              // release
 236:src/voice.h   ****     25.0f                // glide
 237:src/voice.h   ****     // PITCH ENVELOPE
 238:src/voice.h   ****     // PITCH QUANTIZE
 239:src/voice.h   **** };
 240:src/voice.h   **** 
 241:src/voice.h   **** // ŌöĆŌöĆ Voice 3: rich power-chord bass with mixed waveforms + huge filter sweep ŌöĆŌöĆŌöĆŌöĆ
 242:src/voice.h   **** //   Mixed shapes for body: saw root (harmonic-rich), square fifth (hollow), a
 243:src/voice.h   **** //   clean sine sub (tight low end), saw octave on top. Starts dark, then
 244:src/voice.h   **** //   pressure opens the cutoff dramatically (13 octaves) with high resonance ŌĆö
 245:src/voice.h   **** //   a vocal, acid-style "wow" as you press harder.
 246:src/voice.h   **** static constexpr Voice VOICE_BASS_RICH = {
 247:src/voice.h   ****     "RichBass",
 248:src/voice.h   ****     // FREQUENCY RANGE
 249:src/voice.h   ****     40.0f,
 250:src/voice.h   ****     160.0f,
 251:src/voice.h   ****     1.38629f,            // 40ŌĆō160 Hz, ln(4)
 252:src/voice.h   ****     // OSCILLATOR STACK
 253:src/voice.h   ****     1.0f,
 254:src/voice.h   ****     0.40f,
 255:src/voice.h   ****     WAVE_SAW,            // osc1  ŌĆö saw root (rich harmonics)
 256:src/voice.h   ****     // SECONDARY OSCILLATOR
 257:src/voice.h   ****     RATIO_FIFTH,
 258:src/voice.h   ****     0.26f,
 259:src/voice.h   ****     WAVE_SQUARE,         // osc2  ŌĆö square fifth (hollow contrast)
 260:src/voice.h   ****     // SUB OSCILLATOR
 261:src/voice.h   ****     0.5f,
 262:src/voice.h   ****     0.32f,
 263:src/voice.h   ****     WAVE_SINE,           // sub   ŌĆö clean sine for a tight low end
 264:src/voice.h   ****     // OCTAVE OSCILLATOR
 265:src/voice.h   ****     2.0f,
 266:src/voice.h   ****     0.18f,
 267:src/voice.h   ****     WAVE_SAW,            // oct   ŌĆö saw top of the power chord
 268:src/voice.h   ****     // FILTER
 269:src/voice.h   ****     false,               // osc2 is a fixed fifth, not finger-2 detune
 270:src/voice.h   ****     0.2f,
 271:src/voice.h   ****     13.0f,
 272:src/voice.h   ****     0.82f,               // dark base + enormous pressure sweep + high resonance
 273:src/voice.h   ****     // DRIVE
 274:src/voice.h   ****     2.2f,                // generous drive ŌĆö grit blooms with pressure
 275:src/voice.h   ****     // NOISE
 276:src/voice.h   ****     0.0f,                // noise level
 277:src/voice.h   ****     1.0f,                // keytrack
 278:src/voice.h   ****     1.0f,                // ringmod ratio
 279:src/voice.h   ****     0.20f,               // ringmod max
 280:src/voice.h   ****     0.20f,               // fold max
 281:src/voice.h   ****     3.0f,                // attack
 282:src/voice.h   ****     250.0f,              // release
 283:src/voice.h   ****     18.0f                // glide ŌĆö snappy + fast acid glide
 284:src/voice.h   ****     // PITCH ENVELOPE
 285:src/voice.h   ****     // PITCH QUANTIZE
 286:src/voice.h   **** };
ARM GAS  /tmp/claude-502/cc2bPfvH.s 			page 43


 287:src/voice.h   **** 
 288:src/voice.h   **** // ŌöĆŌöĆ Voice 4: clean sine organ / flute (a melodic, non-bass departure) ŌöĆŌöĆŌöĆŌöĆŌöĆŌöĆŌöĆŌö
 289:src/voice.h   **** //   Pure sine oscillators stacked like organ drawbars: octave-down body, root,
 290:src/voice.h   **** //   octave-up air, plus a second osc tuned a hair sharp (1.005├Ś) for a slow,
 291:src/voice.h   **** //   warm chorus shimmer instead of a chord. Higher register than the basses, a
 292:src/voice.h   **** //   mostly-open clean filter, and just a touch of drive so pressure adds gentle
 293:src/voice.h   **** //   harmonic warmth. Sines never alias, so it stays smooth all the way up.
 294:src/voice.h   **** static constexpr Voice VOICE_ORGAN = {
 295:src/voice.h   ****     "Organ",
 296:src/voice.h   ****     // FREQUENCY RANGE
 297:src/voice.h   ****     65.0f,
 298:src/voice.h   ****     520.0f,
 299:src/voice.h   ****     2.07944f,            // 65ŌĆō520 Hz, ln(8) ŌĆö a melodic keyboard register
 300:src/voice.h   ****     // OSCILLATOR STACK
 301:src/voice.h   ****     1.0f,
 302:src/voice.h   ****     0.45f,
 303:src/voice.h   ****     WAVE_SINE,           // osc1  ŌĆö root (8')
 304:src/voice.h   ****     // SECONDARY OSCILLATOR
 305:src/voice.h   ****     1.005f,
 306:src/voice.h   ****     0.40f,
 307:src/voice.h   ****     WAVE_SINE,           // osc2  ŌĆö slightly sharp unison ŌåÆ slow chorus shimmer
 308:src/voice.h   ****     // SUB OSCILLATOR
 309:src/voice.h   ****     0.5f,
 310:src/voice.h   ****     0.30f,
 311:src/voice.h   ****     WAVE_SINE,           // sub   ŌĆö octave-down body (16')
 312:src/voice.h   ****     // OCTAVE OSCILLATOR
 313:src/voice.h   ****     2.0f,
 314:src/voice.h   ****     0.28f,
 315:src/voice.h   ****     WAVE_SINE,           // oct   ŌĆö octave-up air (4')
 316:src/voice.h   ****     // FILTER
 317:src/voice.h   ****     false,               // osc2 is a fixed chorus detune, not finger-2 detune
 318:src/voice.h   ****     2.0f,
 319:src/voice.h   ****     5.0f,
 320:src/voice.h   ****     0.20f,               // mostly-open clean filter, gentle pressure lift, low res
 321:src/voice.h   ****     // DRIVE
 322:src/voice.h   ****     0.8f,                // light drive ŌĆö pressure adds subtle warmth, stays pure
 323:src/voice.h   ****     // NOISE
 324:src/voice.h   ****     0.03f,               // noise level ŌĆö breath chiff
 325:src/voice.h   ****     1.0f,                // keytrack
 326:src/voice.h   ****     1.0f,                // ringmod ratio
 327:src/voice.h   ****     0.05f,               // ringmod max
 328:src/voice.h   ****     0.0f,                // fold max
 329:src/voice.h   ****     8.0f,                // attack
 330:src/voice.h   ****     120.0f,              // release
 331:src/voice.h   ****     8.0f,                // glide ŌĆö fast on/off, no glide
 332:src/voice.h   ****     // PITCH ENVELOPE
 333:src/voice.h   ****     0.0f,                // pitch env octaves (off)
 334:src/voice.h   ****     0.0f,                // pitch env time
 335:src/voice.h   ****     // NOISE TONE
 336:src/voice.h   ****     0.0f,                // noise_hp (white)
 337:src/voice.h   ****     // CYCLING
 338:src/voice.h   ****     false,               // no_cycle (stays in the FSR cycle)
 339:src/voice.h   ****     // VELOCITY
 340:src/voice.h   ****     0.0f,                // vel_sens (fixed loudness)
 341:src/voice.h   ****     // RETRIGGER
 342:src/voice.h   ****     0.0f,                // retrig_ms (off)
 343:src/voice.h   ****     // PITCH QUANTIZE
ARM GAS  /tmp/claude-502/cc2bPfvH.s 			page 44


 344:src/voice.h   ****     true,                // quantize ŌĆö snap on touch-down (organ/keyboard feel)
 345:src/voice.h   ****     SCALE_MINOR,         // scale
 346:src/voice.h   ****     (int)(sizeof(SCALE_MINOR) / sizeof(SCALE_MINOR[0])) // scale_len ŌĆö minor
 347:src/voice.h   **** };
 348:src/voice.h   **** 
 349:src/voice.h   **** // ŌöĆŌöĆ Voice 5: screaming aggressive lead ŌöĆŌöĆŌöĆŌöĆŌöĆŌöĆŌöĆŌöĆŌöĆŌöĆŌöĆŌöĆŌöĆŌöĆŌöĆŌöĆŌöĆŌöĆ
 350:src/voice.h   **** //   Detuned sawtooth stack (root + a hair-sharp twin + octave) for a thick,
 351:src/voice.h   **** //   buzzing supersaw bite, pushed up into a cutting register. Heavy drive and a
 352:src/voice.h   **** //   very high filter resonance make the cutoff whistle and scream as pressure
 353:src/voice.h   **** //   sweeps it wide open. Finger-2 pressure piles on ring-mod + wavefold for
 354:src/voice.h   **** //   extra snarl. Loud and nasty ŌĆö the output soft-clip keeps it from blowing up.
 355:src/voice.h   **** static constexpr Voice VOICE_SCREAM = {
 356:src/voice.h   ****     "Scream",
 357:src/voice.h   ****     // FREQUENCY RANGE
 358:src/voice.h   ****     90.0f,
 359:src/voice.h   ****     720.0f,
 360:src/voice.h   ****     2.07944f,            // 90ŌĆō720 Hz, ln(8) ŌĆö high, cutting register
 361:src/voice.h   ****     // OSCILLATOR STACK
 362:src/voice.h   ****     1.0f,
 363:src/voice.h   ****     0.42f,
 364:src/voice.h   ****     WAVE_SAW,            // osc1  ŌĆö saw root
 365:src/voice.h   ****     // SECONDARY OSCILLATOR
 366:src/voice.h   ****     1.008f,
 367:src/voice.h   ****     0.38f,
 368:src/voice.h   ****     WAVE_SAW,            // osc2  ŌĆö slightly sharp twin ŌåÆ thick beating buzz
 369:src/voice.h   ****     // SUB OSCILLATOR
 370:src/voice.h   ****     0.5f,
 371:src/voice.h   ****     0.20f,
 372:src/voice.h   ****     WAVE_SAW,            // sub   ŌĆö a little weight underneath
 373:src/voice.h   ****     // OCTAVE OSCILLATOR
 374:src/voice.h   ****     2.0f,
 375:src/voice.h   ****     0.30f,
 376:src/voice.h   ****     WAVE_SAW,            // oct   ŌĆö octave up for bright, cutting scream
 377:src/voice.h   ****     // FILTER
 378:src/voice.h   ****     false,               // osc2 is a fixed detune, not finger-2 controlled
 379:src/voice.h   ****     3.0f,
 380:src/voice.h   ****     11.0f,
 381:src/voice.h   ****     0.90f,               // bright base + wide sweep + near-self-osc resonance
 382:src/voice.h   ****     // DRIVE
 383:src/voice.h   ****     4.0f,                // heavy drive ŌĆö saturated and aggressive
 384:src/voice.h   ****     // NOISE
 385:src/voice.h   ****     0.05f,               // noise level ŌĆö hiss
 386:src/voice.h   ****     1.0f,                // keytrack
 387:src/voice.h   ****     2.5f,                // ringmod ratio ŌĆö inharmonic metallic
 388:src/voice.h   ****     0.40f,               // ringmod max
 389:src/voice.h   ****     0.30f,               // fold max
 390:src/voice.h   ****     2.0f,                // attack
 391:src/voice.h   ****     200.0f,              // release
 392:src/voice.h   ****     35.0f                // glide
 393:src/voice.h   ****     // PITCH ENVELOPE
 394:src/voice.h   ****     // PITCH QUANTIZE
 395:src/voice.h   **** };
 396:src/voice.h   **** 
 397:src/voice.h   **** // ŌöĆŌöĆ Voice 6: very closed, dark sub bass ŌöĆŌöĆŌöĆŌöĆŌöĆŌöĆŌöĆŌöĆŌöĆŌöĆŌöĆŌöĆŌöĆŌöĆŌöĆŌöĆŌöĆŌö
 398:src/voice.h   **** //   The opposite of the scream: a deep, muffled power-chord bass. A clean sine
 399:src/voice.h   **** //   sub carries the weight under a mellow triangle root; the fifth and octave
 400:src/voice.h   **** //   are dialed right back. The filter sits down around the fundamental and only
ARM GAS  /tmp/claude-502/cc2bPfvH.s 			page 45


 401:src/voice.h   **** //   creeps open a couple of octaves at full pressure, so it stays dark and
 402:src/voice.h   **** //   muted ŌĆö felt more than heard. Low resonance, almost no drive.
 403:src/voice.h   **** static constexpr Voice VOICE_BASS_CLOSED = {
 404:src/voice.h   ****     "ClosedBass",
 405:src/voice.h   ****     // FREQUENCY RANGE
 406:src/voice.h   ****     35.0f,
 407:src/voice.h   ****     140.0f,
 408:src/voice.h   ****     1.38629f,            // 35ŌĆō140 Hz, ln(4) ŌĆö deep
 409:src/voice.h   ****     // OSCILLATOR STACK
 410:src/voice.h   ****     1.0f,
 411:src/voice.h   ****     0.42f,
 412:src/voice.h   ****     WAVE_TRI,            // osc1  ŌĆö mellow triangle root
 413:src/voice.h   ****     // SECONDARY OSCILLATOR
 414:src/voice.h   ****     RATIO_FIFTH,
 415:src/voice.h   ****     0.18f,
 416:src/voice.h   ****     WAVE_TRI,            // osc2  ŌĆö fifth, dialed back
 417:src/voice.h   ****     // SUB OSCILLATOR
 418:src/voice.h   ****     0.5f,
 419:src/voice.h   ****     0.44f,
 420:src/voice.h   ****     WAVE_SINE,           // sub   ŌĆö clean sine carries the weight
 421:src/voice.h   ****     // OCTAVE OSCILLATOR
 422:src/voice.h   ****     2.0f,
 423:src/voice.h   ****     0.10f,
 424:src/voice.h   ****     WAVE_TRI,            // oct   ŌĆö barely there, keep it dark
 425:src/voice.h   ****     // FILTER
 426:src/voice.h   ****     false,               // osc2 is a fixed fifth, not finger-2 detune
 427:src/voice.h   ****     1.0f,
 428:src/voice.h   ****     2.0f,
 429:src/voice.h   ****     0.30f,               // cutoff sits near the fundamental, tiny sweep, low res
 430:src/voice.h   ****     // DRIVE
 431:src/voice.h   ****     0.5f,                // minimal drive ŌĆö stays clean and round
 432:src/voice.h   ****     // NOISE
 433:src/voice.h   ****     0.0f,                // noise level
 434:src/voice.h   ****     0.6f,                // keytrack ŌĆö less, holds cutoff low as pitch rises
 435:src/voice.h   ****     1.0f,                // ringmod ratio
 436:src/voice.h   ****     0.0f,                // ringmod max
 437:src/voice.h   ****     0.0f,                // fold max
 438:src/voice.h   ****     10.0f,               // attack
 439:src/voice.h   ****     500.0f,              // release ŌĆö long tail
 440:src/voice.h   ****     30.0f                // glide
 441:src/voice.h   ****     // PITCH ENVELOPE
 442:src/voice.h   ****     // PITCH QUANTIZE
 443:src/voice.h   **** };
 444:src/voice.h   **** 
 445:src/voice.h   **** // ŌöĆŌöĆ Voice 7: warm ensemble pad ŌöĆŌöĆŌöĆŌöĆŌöĆŌöĆŌöĆŌöĆŌöĆŌöĆŌöĆŌöĆŌöĆŌöĆŌöĆŌöĆŌöĆŌöĆŌöĆŌöĆŌö
 446:src/voice.h   **** //   A lush, evolving pad. Two saws a hair apart (1.006├Ś) give an ensemble/chorus
 447:src/voice.h   **** //   width, a soft triangle sub adds body, an airy sine octave sits on top. A
 448:src/voice.h   **** //   moderate, low-resonance filter keeps it warm rather than bright. The pad
 449:src/voice.h   **** //   character comes from the envelope: a slow ~2.2 s swell in and a long ~2 s
 450:src/voice.h   **** //   tail, so notes bloom and linger. A whisper of noise adds air.
 451:src/voice.h   **** static constexpr Voice VOICE_PAD = {
 452:src/voice.h   ****     "Pad",
 453:src/voice.h   ****     // FREQUENCY RANGE
 454:src/voice.h   ****     70.0f,
 455:src/voice.h   ****     560.0f,
 456:src/voice.h   ****     2.07944f,            // 70ŌĆō560 Hz, ln(8) ŌĆö mid melodic register
 457:src/voice.h   ****     // OSCILLATOR STACK
ARM GAS  /tmp/claude-502/cc2bPfvH.s 			page 46


 458:src/voice.h   ****     1.0f,
 459:src/voice.h   ****     0.32f,
 460:src/voice.h   ****     WAVE_SAW,            // osc1  ŌĆö saw root
 461:src/voice.h   ****     // SECONDARY OSCILLATOR
 462:src/voice.h   ****     1.006f,
 463:src/voice.h   ****     0.30f,
 464:src/voice.h   ****     WAVE_SAW,            // osc2  ŌĆö detuned saw ŌåÆ lush ensemble width
 465:src/voice.h   ****     // SUB OSCILLATOR
 466:src/voice.h   ****     0.5f,
 467:src/voice.h   ****     0.22f,
 468:src/voice.h   ****     WAVE_TRI,            // sub   ŌĆö soft triangle body
 469:src/voice.h   ****     // OCTAVE OSCILLATOR
 470:src/voice.h   ****     2.0f,
 471:src/voice.h   ****     0.18f,
 472:src/voice.h   ****     WAVE_SINE,           // oct   ŌĆö airy sine top
 473:src/voice.h   ****     // FILTER
 474:src/voice.h   ****     false,               // osc2 is a fixed chorus detune, not finger-2
 475:src/voice.h   ****     1.2f,
 476:src/voice.h   ****     3.0f,
 477:src/voice.h   ****     0.20f,               // warm & closed: low base cutoff, gentle sweep, low res
 478:src/voice.h   ****     // DRIVE
 479:src/voice.h   ****     0.6f,                // gentle drive ŌĆö stays smooth
 480:src/voice.h   ****     // NOISE
 481:src/voice.h   ****     0.015f,              // noise level ŌĆö air
 482:src/voice.h   ****     1.0f,                // keytrack
 483:src/voice.h   ****     1.0f,                // ringmod ratio
 484:src/voice.h   ****     0.0f,                // ringmod max
 485:src/voice.h   ****     0.08f,               // fold max
 486:src/voice.h   ****     2200.0f,             // attack ŌĆö slow swell
 487:src/voice.h   ****     2000.0f,             // release ŌĆö long tail
 488:src/voice.h   ****     80.0f                // glide
 489:src/voice.h   ****     // PITCH ENVELOPE
 490:src/voice.h   ****     // PITCH QUANTIZE
 491:src/voice.h   **** };
 492:src/voice.h   **** 
 493:src/voice.h   **** // ŌöĆŌöĆ Voice 8: tom / percussion (noise-driven) ŌöĆŌöĆŌöĆŌöĆŌöĆŌöĆŌöĆŌöĆŌöĆŌöĆŌöĆŌöĆŌöĆŌöĆŌöĆŌöĆ
 494:src/voice.h   **** //   A drum, not a sustained note ŌĆö PLAY IT BY TAPPING the glass. Noise over two
 495:src/voice.h   **** //   low sine modes (body + an inharmonic 1.6├Ś ring) and a little sub thump. An
 496:src/voice.h   **** //   instant attack and a short ~150 ms release make each tap a percussive hit.
 497:src/voice.h   **** //   A closed, dark filter keeps it round and muffled (tom, not bright snare);
 498:src/voice.h   **** //   harder presses open it a touch. Finger-1 position tunes the drum.
 499:src/voice.h   **** static constexpr Voice VOICE_TOM = {
 500:src/voice.h   ****     "Tom",
 501:src/voice.h   ****     // FREQUENCY RANGE
 502:src/voice.h   ****     40.0f,
 503:src/voice.h   ****     400.0f,
 504:src/voice.h   ****     2.30259f,            // 40ŌĆō400 Hz, ln(10) ŌĆö finger-1 tunes from kick/tom up
 505:src/voice.h   ****     // OSCILLATOR STACK
 506:src/voice.h   ****     1.0f,
 507:src/voice.h   ****     0.22f,
 508:src/voice.h   ****     WAVE_SINE,           // osc1  ŌĆö body (lower mode)
 509:src/voice.h   ****     // SECONDARY OSCILLATOR
 510:src/voice.h   ****     1.6f,
 511:src/voice.h   ****     0.15f,
 512:src/voice.h   ****     WAVE_SINE,           // osc2  ŌĆö upper mode (inharmonic ring)
 513:src/voice.h   ****     // SUB OSCILLATOR
 514:src/voice.h   ****     0.5f,
ARM GAS  /tmp/claude-502/cc2bPfvH.s 			page 47


 515:src/voice.h   ****     0.10f,
 516:src/voice.h   ****     WAVE_SINE,           // sub   ŌĆö a little thump
 517:src/voice.h   ****     // OCTAVE OSCILLATOR
 518:src/voice.h   ****     2.0f,
 519:src/voice.h   ****     0.0f,
 520:src/voice.h   ****     WAVE_SINE,           // oct   ŌĆö off
 521:src/voice.h   ****     // FILTER
 522:src/voice.h   ****     false,               // osc2 is a fixed ratio, not finger-2 detune
 523:src/voice.h   ****     3.0f,
 524:src/voice.h   ****     3.0f,
 525:src/voice.h   ****     0.30f,               // tom ŌĆö low 1-pole cutoff for a dark, round body
 526:src/voice.h   ****     // DRIVE
 527:src/voice.h   ****     1.5f,                // drive ŌĆö snap and saturation on hard hits
 528:src/voice.h   ****     // NOISE
 529:src/voice.h   ****     0.70f,               // noise level ŌĆö noise-dominant
 530:src/voice.h   ****     0.3f,                // keytrack
 531:src/voice.h   ****     1.0f,                // ringmod ratio
 532:src/voice.h   ****     0.0f,                // ringmod max
 533:src/voice.h   ****     0.10f,               // fold max
 534:src/voice.h   ****     1.0f,                // attack ŌĆö instant hit
 535:src/voice.h   ****     150.0f,              // release ŌĆö short tail
 536:src/voice.h   ****     5.0f,                // glide
 537:src/voice.h   ****     // PITCH ENVELOPE
 538:src/voice.h   ****     1.0f,                // pitch env octaves ŌĆö tom "boww": start 1 oct up
 539:src/voice.h   ****     80.0f,               // pitch env time ŌĆö drop in 80 ms
 540:src/voice.h   ****     // NOISE TONE
 541:src/voice.h   ****     0.0f,                // noise_hp (white)
 542:src/voice.h   ****     // CYCLING
 543:src/voice.h   ****     true,                // no_cycle ŌĆö reached via the Drums MultiVoice
 544:src/voice.h   ****     // VELOCITY
 545:src/voice.h   ****     0.85f,               // vel_sens ŌĆö dynamic taps
 546:src/voice.h   ****     // RETRIGGER
 547:src/voice.h   ****     400.0f               // retrig_ms ŌĆö dedupe strike + cap repeat rate
 548:src/voice.h   ****     // PITCH QUANTIZE
 549:src/voice.h   **** };
 550:src/voice.h   **** 
 551:src/voice.h   **** // ŌöĆŌöĆ Voice 9: kick drum (noise-driven) ŌöĆŌöĆŌöĆŌöĆŌöĆŌöĆŌöĆŌöĆŌöĆŌöĆŌöĆŌöĆŌöĆŌöĆŌöĆŌöĆŌöĆŌöĆŌ
 552:src/voice.h   **** //   A deep, punchy thud ŌĆö PLAY IT BY TAPPING. A low sine body with a sub-octave
 553:src/voice.h   **** //   for weight and a quiet octave "click" for beater attack; a whisper of noise
 554:src/voice.h   **** //   adds beater texture. Very closed dark filter + a little drive keep it round
 555:src/voice.h   **** //   and punchy. Instant attack, short tail. Finger-1 position tunes the kick.
 556:src/voice.h   **** //   A pitch envelope (start 2 oct up, drop in 45 ms) gives the classic "boom".
 557:src/voice.h   **** static constexpr Voice VOICE_KICK = {
 558:src/voice.h   ****     "Kick",
 559:src/voice.h   ****     // FREQUENCY RANGE
 560:src/voice.h   ****     30.0f,
 561:src/voice.h   ****     80.0f,
 562:src/voice.h   ****     0.98083f,            // 30ŌĆō80 Hz, ln(2.67) ŌĆö deep, position tunes the kick
 563:src/voice.h   ****     // OSCILLATOR STACK
 564:src/voice.h   ****     1.0f,
 565:src/voice.h   ****     0.55f,
 566:src/voice.h   ****     WAVE_SINE,           // osc1  ŌĆö deep sine body
 567:src/voice.h   ****     // SECONDARY OSCILLATOR
 568:src/voice.h   ****     2.0f,
 569:src/voice.h   ****     0.10f,
 570:src/voice.h   ****     WAVE_SINE,           // osc2  ŌĆö octave "click" for attack punch
 571:src/voice.h   ****     // SUB OSCILLATOR
ARM GAS  /tmp/claude-502/cc2bPfvH.s 			page 48


 572:src/voice.h   ****     0.5f,
 573:src/voice.h   ****     0.15f,
 574:src/voice.h   ****     WAVE_SINE,           // sub   ŌĆö sub-octave rumble
 575:src/voice.h   ****     // OCTAVE OSCILLATOR
 576:src/voice.h   ****     2.0f,
 577:src/voice.h   ****     0.0f,
 578:src/voice.h   ****     WAVE_SINE,           // oct   ŌĆö off
 579:src/voice.h   ****     // FILTER
 580:src/voice.h   ****     false,               // osc2 is a fixed ratio, not finger-2 detune
 581:src/voice.h   ****     3.0f,
 582:src/voice.h   ****     2.0f,
 583:src/voice.h   ****     0.20f,               // very closed/dark ŌĆö round; tiny pressure sweep
 584:src/voice.h   ****     // DRIVE
 585:src/voice.h   ****     1.8f,                // drive ŌĆö punch and saturation
 586:src/voice.h   ****     // NOISE
 587:src/voice.h   ****     0.08f,               // noise level ŌĆö soft beater click
 588:src/voice.h   ****     0.5f,                // keytrack
 589:src/voice.h   ****     1.0f,                // ringmod ratio
 590:src/voice.h   ****     0.0f,                // ringmod max
 591:src/voice.h   ****     0.0f,                // fold max
 592:src/voice.h   ****     1.0f,                // attack ŌĆö instant
 593:src/voice.h   ****     160.0f,              // release ŌĆö short
 594:src/voice.h   ****     5.0f,                // glide
 595:src/voice.h   ****     // PITCH ENVELOPE
 596:src/voice.h   ****     2.0f,                // pitch env octaves ŌĆö kick "boom": start 2 oct up
 597:src/voice.h   ****     45.0f,               // pitch env time ŌĆö drop in 45 ms
 598:src/voice.h   ****     // NOISE TONE
 599:src/voice.h   ****     0.0f,                // noise_hp (white)
 600:src/voice.h   ****     // CYCLING
 601:src/voice.h   ****     true,                // no_cycle ŌĆö reached via the Drums MultiVoice
 602:src/voice.h   ****     // VELOCITY
 603:src/voice.h   ****     0.85f,               // vel_sens ŌĆö dynamic taps
 604:src/voice.h   ****     // RETRIGGER
 605:src/voice.h   ****     400.0f               // retrig_ms ŌĆö dedupe strike + cap repeat rate
 606:src/voice.h   ****     // PITCH QUANTIZE
 607:src/voice.h   **** };
 608:src/voice.h   **** 
 609:src/voice.h   **** // ŌöĆŌöĆ Voice 10: snare (noise-driven) ŌöĆŌöĆŌöĆŌöĆŌöĆŌöĆŌöĆŌöĆŌöĆŌöĆŌöĆŌöĆŌöĆŌöĆŌöĆŌöĆŌöĆŌöĆŌöĆŌ
 610:src/voice.h   **** //   The bright, noisy cousin of the Tom ŌĆö PLAY IT BY TAPPING. Broadband noise
 611:src/voice.h   **** //   (the "wires" rattle) dominates over two tonal modes (body + a 1.8├Ś ring); a
 612:src/voice.h   **** //   wide-open filter keeps it crisp and cracking. Instant attack, short tail,
 613:src/voice.h   **** //   and a quick subtle pitch snap (0.7 oct in 30 ms) for the hit. Harder presses
 614:src/voice.h   **** //   open it further. Finger-1 position tunes the drum.
 615:src/voice.h   **** static constexpr Voice VOICE_SNARE = {
 616:src/voice.h   ****     "Snare",
 617:src/voice.h   ****     // FREQUENCY RANGE
 618:src/voice.h   ****     150.0f,
 619:src/voice.h   ****     500.0f,
 620:src/voice.h   ****     1.20397f,            // 150ŌĆō500 Hz, ln(3.33) ŌĆö snare tuning range
 621:src/voice.h   ****     // OSCILLATOR STACK
 622:src/voice.h   ****     1.0f,
 623:src/voice.h   ****     0.15f,
 624:src/voice.h   ****     WAVE_SINE,           // osc1  ŌĆö body (lower mode)
 625:src/voice.h   ****     // SECONDARY OSCILLATOR
 626:src/voice.h   ****     1.8f,
 627:src/voice.h   ****     0.12f,
 628:src/voice.h   ****     WAVE_TRI,            // osc2  ŌĆö upper mode/ring (triangle = more harmonics)
ARM GAS  /tmp/claude-502/cc2bPfvH.s 			page 49


 629:src/voice.h   ****     // SUB OSCILLATOR
 630:src/voice.h   ****     0.5f,
 631:src/voice.h   ****     0.05f,
 632:src/voice.h   ****     WAVE_SINE,           // sub   ŌĆö slight body weight
 633:src/voice.h   ****     // OCTAVE OSCILLATOR
 634:src/voice.h   ****     2.0f,
 635:src/voice.h   ****     0.0f,
 636:src/voice.h   ****     WAVE_SINE,           // oct   ŌĆö off
 637:src/voice.h   ****     // FILTER
 638:src/voice.h   ****     false,               // osc2 is a fixed ratio, not finger-2 detune
 639:src/voice.h   ****     18.0f,
 640:src/voice.h   ****     4.0f,
 641:src/voice.h   ****     0.30f,               // wide open & bright ŌĆö the noise rattle cracks through
 642:src/voice.h   ****     // DRIVE
 643:src/voice.h   ****     1.5f,                // drive ŌĆö snap
 644:src/voice.h   ****     // NOISE
 645:src/voice.h   ****     0.72f,               // noise level ŌĆö noise-dominant rattle
 646:src/voice.h   ****     0.3f,                // keytrack
 647:src/voice.h   ****     1.0f,                // ringmod ratio
 648:src/voice.h   ****     0.0f,                // ringmod max
 649:src/voice.h   ****     0.10f,               // fold max
 650:src/voice.h   ****     1.0f,                // attack ŌĆö instant
 651:src/voice.h   ****     140.0f,              // release ŌĆö short
 652:src/voice.h   ****     5.0f,                // glide
 653:src/voice.h   ****     // PITCH ENVELOPE
 654:src/voice.h   ****     0.7f,                // pitch env octaves ŌĆö quick subtle snap
 655:src/voice.h   ****     30.0f,               // pitch env time ŌĆö 30 ms
 656:src/voice.h   ****     // NOISE TONE
 657:src/voice.h   ****     0.0f,                // noise_hp (white)
 658:src/voice.h   ****     // CYCLING
 659:src/voice.h   ****     true,                // no_cycle ŌĆö reached via the Drums MultiVoice
 660:src/voice.h   ****     // VELOCITY
 661:src/voice.h   ****     0.85f,               // vel_sens ŌĆö dynamic taps
 662:src/voice.h   ****     // RETRIGGER
 663:src/voice.h   ****     400.0f               // retrig_ms ŌĆö dedupe strike + cap repeat rate
 664:src/voice.h   ****     // PITCH QUANTIZE
 665:src/voice.h   **** };
 666:src/voice.h   **** 
 667:src/voice.h   **** // ŌöĆŌöĆ Voice 11: hi-hat (noise-driven) ŌöĆŌöĆŌöĆŌöĆŌöĆŌöĆŌöĆŌöĆŌöĆŌöĆŌöĆŌöĆŌöĆŌöĆŌöĆŌöĆŌöĆŌöĆŌöĆ
 668:src/voice.h   **** //   A crisp "tss" ŌĆö PLAY IT BY TAPPING. Almost pure high-frequency noise through
 669:src/voice.h   **** //   a wide-open filter, with three inharmonic square partials for metallic edge
 670:src/voice.h   **** //   and no low end. Instant attack and a very short ~55 ms tail = a tight closed
 671:src/voice.h   **** //   hat. Finger-1 position tunes the metallic pitch. (Raise release_ms for an
 672:src/voice.h   **** //   open-hat feel.)
 673:src/voice.h   **** static constexpr Voice VOICE_HIHAT = {
 674:src/voice.h   ****     "HiHat",
 675:src/voice.h   ****     // FREQUENCY RANGE
 676:src/voice.h   ****     4000.0f,
 677:src/voice.h   ****     11000.0f,
 678:src/voice.h   ****     1.01160f,            // 4000ŌĆō11000 Hz, ln(2.75) ŌĆö metallic edge pitch
 679:src/voice.h   ****     // OSCILLATOR STACK
 680:src/voice.h   ****     1.0f,
 681:src/voice.h   ****     0.10f,
 682:src/voice.h   ****     WAVE_SQUARE,         // osc1  ŌĆö quiet metallic edge (the tss noise leads)
 683:src/voice.h   ****     // SECONDARY OSCILLATOR
 684:src/voice.h   ****     1.68f,
 685:src/voice.h   ****     0.08f,
ARM GAS  /tmp/claude-502/cc2bPfvH.s 			page 50


 686:src/voice.h   ****     WAVE_SQUARE,         // osc2  ŌĆö inharmonic metallic partial
 687:src/voice.h   ****     // SUB OSCILLATOR
 688:src/voice.h   ****     0.5f,
 689:src/voice.h   ****     0.0f,
 690:src/voice.h   ****     WAVE_SINE,           // sub   ŌĆö off (no low end on a hat)
 691:src/voice.h   ****     // OCTAVE OSCILLATOR
 692:src/voice.h   ****     2.0f,
 693:src/voice.h   ****     0.06f,
 694:src/voice.h   ****     WAVE_SQUARE,         // oct   ŌĆö high partial (2.0├Ś keeps it under Nyquist)
 695:src/voice.h   ****     // FILTER
 696:src/voice.h   ****     false,               // osc2 is a fixed ratio, not finger-2 detune
 697:src/voice.h   ****     25.0f,
 698:src/voice.h   ****     2.0f,
 699:src/voice.h   ****     0.20f,               // wide open
 700:src/voice.h   ****     // DRIVE
 701:src/voice.h   ****     1.2f,                // light drive
 702:src/voice.h   ****     // NOISE
 703:src/voice.h   ****     0.80f,               // noise level ŌĆö noise-led
 704:src/voice.h   ****     0.2f,                // keytrack
 705:src/voice.h   ****     1.0f,                // ringmod ratio
 706:src/voice.h   ****     0.0f,                // ringmod max
 707:src/voice.h   ****     0.05f,               // fold max
 708:src/voice.h   ****     1.0f,                // attack ŌĆö instant
 709:src/voice.h   ****     160.0f,              // release ŌĆö sizzly tail
 710:src/voice.h   ****     3.0f,                // glide
 711:src/voice.h   ****     // PITCH ENVELOPE
 712:src/voice.h   ****     0.0f,                // pitch env octaves (off)
 713:src/voice.h   ****     0.0f,                // pitch env time
 714:src/voice.h   ****     // NOISE TONE
 715:src/voice.h   ****     1.0f,                // noise_hp ŌĆö high-passed bright "tsss"
 716:src/voice.h   ****     // CYCLING
 717:src/voice.h   ****     true,                // no_cycle ŌĆö reached via the Drums MultiVoice
 718:src/voice.h   ****     // VELOCITY
 719:src/voice.h   ****     0.85f,               // vel_sens ŌĆö dynamic taps
 720:src/voice.h   ****     // RETRIGGER
 721:src/voice.h   ****     400.0f               // retrig_ms ŌĆö dedupe strike + cap repeat rate
 722:src/voice.h   ****     // PITCH QUANTIZE
 723:src/voice.h   **** };
 724:src/voice.h   **** 
 725:src/voice.h   **** // ŌöĆŌöĆ Voice 12: MultiVoice "Drums" ŌöĆŌöĆŌöĆŌöĆŌöĆŌöĆŌöĆŌöĆŌöĆŌöĆŌöĆŌöĆŌöĆŌöĆŌöĆŌöĆŌöĆŌöĆŌöĆŌöĆ
 726:src/voice.h   **** //   A meta-voice: when selected, the slider splits into 4 equal zones, each
 727:src/voice.h   **** //   triggering one drum on tap, with the fine position snapping the pitch to an
 728:src/voice.h   **** //   interval (see MULTI_* below). This struct is just a placeholder so it lives
 729:src/voice.h   **** //   in the bank / FSR cycle and shows "Drums" in the header ŌĆö the actual audio
 730:src/voice.h   **** //   per tap comes from the zone's real drum voice (g_active_voice). Kick-like so
 731:src/voice.h   **** //   it's harmless if briefly active before the first tap.
 732:src/voice.h   **** static constexpr Voice VOICE_DRUMS = {
 733:src/voice.h   ****     "Drums",
 734:src/voice.h   ****     // FREQUENCY RANGE
 735:src/voice.h   ****     30.0f,
 736:src/voice.h   ****     80.0f,
 737:src/voice.h   ****     0.98083f,
 738:src/voice.h   ****     // OSCILLATOR STACK
 739:src/voice.h   ****     1.0f,
 740:src/voice.h   ****     0.55f,
 741:src/voice.h   ****     WAVE_SINE,
 742:src/voice.h   ****     // SECONDARY OSCILLATOR
ARM GAS  /tmp/claude-502/cc2bPfvH.s 			page 51


 743:src/voice.h   ****     1.0f,
 744:src/voice.h   ****     0.0f,
 745:src/voice.h   ****     WAVE_SINE,
 746:src/voice.h   ****     // SUB OSCILLATOR
 747:src/voice.h   ****     0.5f,
 748:src/voice.h   ****     0.0f,
 749:src/voice.h   ****     WAVE_SINE,
 750:src/voice.h   ****     // OCTAVE OSCILLATOR
 751:src/voice.h   ****     2.0f,
 752:src/voice.h   ****     0.0f,
 753:src/voice.h   ****     WAVE_SINE,
 754:src/voice.h   ****     // FILTER
 755:src/voice.h   ****     false,
 756:src/voice.h   ****     3.0f,
 757:src/voice.h   ****     2.0f,
 758:src/voice.h   ****     0.20f,
 759:src/voice.h   ****     // DRIVE
 760:src/voice.h   ****     1.0f,
 761:src/voice.h   ****     // NOISE
 762:src/voice.h   ****     0.0f,                // noise level
 763:src/voice.h   ****     0.5f,                // keytrack
 764:src/voice.h   ****     1.0f,                // ringmod ratio
 765:src/voice.h   ****     0.0f,                // ringmod max
 766:src/voice.h   ****     0.0f,                // fold max
 767:src/voice.h   ****     1.0f,                // attack
 768:src/voice.h   ****     160.0f,              // release
 769:src/voice.h   ****     5.0f,                // glide
 770:src/voice.h   ****     // PITCH ENVELOPE
 771:src/voice.h   ****     0.0f,                // pitch env octaves (placeholder ŌĆö zone drums play)
 772:src/voice.h   ****     0.0f,                // pitch env time
 773:src/voice.h   ****     // NOISE TONE
 774:src/voice.h   ****     0.0f                 // noise_hp
 775:src/voice.h   ****     // CYCLING
 776:src/voice.h   ****     // VELOCITY
 777:src/voice.h   ****     // RETRIGGER
 778:src/voice.h   ****     // PITCH QUANTIZE
 779:src/voice.h   **** };
 780:src/voice.h   **** 
 781:src/voice.h   **** // clang-format on
 782:src/voice.h   **** 
 783:src/voice.h   **** // ŌöĆŌöĆ Voice bank ŌöĆŌöĆŌöĆŌöĆŌöĆŌöĆŌöĆŌöĆŌöĆŌöĆŌöĆŌöĆŌöĆŌöĆŌöĆŌöĆŌöĆŌöĆŌöĆŌöĆŌöĆŌöĆŌöĆŌöĆŌöĆŌöĆ
 784:src/voice.h   **** // All voices, in cycle order. Holding the FSR pressed steps through these live
 785:src/voice.h   **** // (see the voice-switch gesture in the main loop). Edit the order here to taste.
 786:src/voice.h   **** static constexpr Voice VOICES[] = {
 787:src/voice.h   ****     VOICE_LEAD,  VOICE_BASS,   VOICE_BASS_OPEN,   VOICE_BASS_RICH,
 788:src/voice.h   ****     VOICE_ORGAN, VOICE_SCREAM, VOICE_BASS_CLOSED, VOICE_PAD,
 789:src/voice.h   ****     VOICE_TOM,   VOICE_KICK,   VOICE_SNARE,       VOICE_HIHAT,
 790:src/voice.h   ****     VOICE_DRUMS, // MultiVoice ŌĆö must stay last (MULTI_IDX = NUM_VOICES-1)
 791:src/voice.h   **** };
 792:src/voice.h   **** static constexpr int NUM_VOICES = (int)(sizeof(VOICES) / sizeof(VOICES[0]));
 793:src/voice.h   **** 
 794:src/voice.h   **** // ŌöĆŌöĆ MultiVoice "Drums" config ŌöĆŌöĆŌöĆŌöĆŌöĆŌöĆŌöĆŌöĆŌöĆŌöĆŌöĆŌöĆŌöĆŌöĆŌöĆŌöĆŌöĆŌöĆŌöĆŌöĆŌöĆ
 795:src/voice.h   **** // MULTI_IDX is the bank slot of VOICE_DRUMS (kept last). When that voice is
 796:src/voice.h   **** // selected, the slider splits into 4 equal zones mapped to these drum voices
 797:src/voice.h   **** // (leftŌåÆright), and the fine position within a zone snaps the pitch to one of
 798:src/voice.h   **** // MULTI_INTERVALS above the drum's base pitch (freq_low).
 799:src/voice.h   **** static constexpr int MULTI_IDX = NUM_VOICES - 1;
ARM GAS  /tmp/claude-502/cc2bPfvH.s 			page 52


 800:src/voice.h   **** static constexpr int MULTI_ZONES[4] = {
 801:src/voice.h   ****     9, 10, 8, 11}; // Kick, Snare, Tom, HiHat (bank indices)
 802:src/voice.h   **** static constexpr float MULTI_INTERVALS[] = {1.0f, 1.33484f, 1.49831f,
 803:src/voice.h   ****                                             2.0f}; // root, 4th, 5th, octave
 804:src/voice.h   **** static constexpr int MULTI_NINTERVALS =
 805:src/voice.h   ****     (int)(sizeof(MULTI_INTERVALS) / sizeof(MULTI_INTERVALS[0]));
 806:src/voice.h   **** 
 807:src/voice.h   **** // Drums: when true, every tap is treated as full (100%) pressure ŌĆö consistent
 808:src/voice.h   **** // hits regardless of how hard the glass reads. Set false for velocity dynamics
 809:src/voice.h   **** // (uses the drum's vel_sens). Drums only.
 810:src/voice.h   **** static constexpr bool FIX_DRUM = true;
 811:src/voice.h   **** 
 812:src/voice.h   **** // ŌöĆŌöĆ Voice cycling ŌöĆŌöĆŌöĆŌöĆŌöĆŌöĆŌöĆŌöĆŌöĆŌöĆŌöĆŌöĆŌöĆŌöĆŌöĆŌöĆŌöĆŌöĆŌöĆŌöĆŌöĆŌöĆŌöĆŌöĆŌöĆ
 813:src/voice.h   **** // Voices with no_cycle = true are skipped by the FSR-hold gesture. These helpers
 814:src/voice.h   **** // give the count of cyclable voices and the 1-based position of an index among
 815:src/voice.h   **** // them (used for the LED flash count and the serial display).
 816:src/voice.h   **** static int cycle_total() {
 817:src/voice.h   ****   int n = 0;
 818:src/voice.h   ****   for (int i = 0; i < NUM_VOICES; i++)
 819:src/voice.h   ****     if (!VOICES[i].no_cycle)
 820:src/voice.h   ****       n++;
 821:src/voice.h   ****   return n;
 822:src/voice.h   **** }
 823:src/voice.h   **** static int cycle_pos(int idx) {
 1044              		.loc 8 823 12 is_stmt 1 view .LVU309
 1045              	.LBB661:
 1046              	.LBB662:
 824:src/voice.h   ****   int p = 0;
 825:src/voice.h   ****   for (int i = 0; i <= idx && i < NUM_VOICES; i++)
 1047              		.loc 8 825 28 view .LVU310
 1048 01ea 0C2B     		cmp	r3, #12
 1049 01ec 1D46     		mov	r5, r3
 1050 01ee A8BF     		it	ge
 1051 01f0 0C25     		movge	r5, #12
 1052 01f2 002B     		cmp	r3, #0
 1053 01f4 C1F28186 		blt	.L286
 1054              		.loc 8 825 12 is_stmt 0 view .LVU311
 1055 01f8 0023     		movs	r3, #0
 1056              	.LVL79:
 1057              		.loc 8 825 12 view .LVU312
 1058 01fa 059A     		ldr	r2, [sp, #20]
 1059              	.LBE662:
 824:src/voice.h   ****   int p = 0;
 1060              		.loc 8 824 7 view .LVU313
 1061 01fc 1946     		mov	r1, r3
 1062              	.LVL80:
 1063              	.L58:
 1064              	.LBB663:
 826:src/voice.h   ****     if (!VOICES[i].no_cycle)
 1065              		.loc 8 826 5 is_stmt 1 view .LVU314
 827:src/voice.h   ****       p++;
 1066              		.loc 8 827 7 view .LVU315
 826:src/voice.h   ****     if (!VOICES[i].no_cycle)
 1067              		.loc 8 826 5 is_stmt 0 view .LVU316
 1068 01fe 92F87C00 		ldrb	r0, [r2, #124]	@ zero_extendqisi2
 825:src/voice.h   ****     if (!VOICES[i].no_cycle)
 1069              		.loc 8 825 3 view .LVU317
ARM GAS  /tmp/claude-502/cc2bPfvH.s 			page 53


 1070 0202 0133     		adds	r3, r3, #1
 1071              	.LVL81:
 825:src/voice.h   ****     if (!VOICES[i].no_cycle)
 1072              		.loc 8 825 28 view .LVU318
 1073 0204 9432     		adds	r2, r2, #148
 826:src/voice.h   ****     if (!VOICES[i].no_cycle)
 1074              		.loc 8 826 5 view .LVU319
 1075 0206 00B9     		cbnz	r0, .L57
 1076              		.loc 8 827 8 view .LVU320
 1077 0208 0131     		adds	r1, r1, #1
 1078              	.LVL82:
 1079              	.L57:
 825:src/voice.h   ****     if (!VOICES[i].no_cycle)
 1080              		.loc 8 825 3 is_stmt 1 view .LVU321
 825:src/voice.h   ****     if (!VOICES[i].no_cycle)
 1081              		.loc 8 825 28 view .LVU322
 1082 020a AB42     		cmp	r3, r5
 1083 020c F7DD     		ble	.L58
 1084              	.LVL83:
 1085              	.L56:
 825:src/voice.h   ****     if (!VOICES[i].no_cycle)
 1086              		.loc 8 825 28 is_stmt 0 view .LVU323
 1087              	.LBE663:
 824:src/voice.h   ****   for (int i = 0; i <= idx && i < NUM_VOICES; i++)
 1088              		.loc 8 824 7 view .LVU324
 1089 020e 6A4B     		ldr	r3, .L529+12
 1090              	.LBE661:
 1091              	.LBE660:
 1092              	.LBB666:
 1093              	.LBB667:
 817:src/voice.h   ****   for (int i = 0; i < NUM_VOICES; i++)
 1094              		.loc 8 817 7 view .LVU325
 1095 0210 0022     		movs	r2, #0
 1096              	.LBE667:
 1097              	.LBE666:
 1098              	.LBB670:
 1099              	.LBB664:
 824:src/voice.h   ****   for (int i = 0; i <= idx && i < NUM_VOICES; i++)
 1100              		.loc 8 824 7 view .LVU326
 1101 0212 0593     		str	r3, [sp, #20]
 1102              	.L60:
 1103              	.LVL84:
 824:src/voice.h   ****   for (int i = 0; i <= idx && i < NUM_VOICES; i++)
 1104              		.loc 8 824 7 view .LVU327
 1105              	.LBE664:
 1106              	.LBE670:
 1107              	.LBB671:
 1108              	.LBB669:
 1109              	.LBB668:
 819:src/voice.h   ****       n++;
 1110              		.loc 8 819 5 is_stmt 1 view .LVU328
 820:src/voice.h   ****   return n;
 1111              		.loc 8 820 7 view .LVU329
 819:src/voice.h   ****       n++;
 1112              		.loc 8 819 5 is_stmt 0 view .LVU330
 1113 0214 93F87C00 		ldrb	r0, [r3, #124]	@ zero_extendqisi2
 818:src/voice.h   ****     if (!VOICES[i].no_cycle)
ARM GAS  /tmp/claude-502/cc2bPfvH.s 			page 54


 1114              		.loc 8 818 21 view .LVU331
 1115 0218 9433     		adds	r3, r3, #148
 819:src/voice.h   ****       n++;
 1116              		.loc 8 819 5 view .LVU332
 1117 021a 00B9     		cbnz	r0, .L59
 820:src/voice.h   ****   return n;
 1118              		.loc 8 820 8 view .LVU333
 1119 021c 0132     		adds	r2, r2, #1
 1120              	.LVL85:
 1121              	.L59:
 818:src/voice.h   ****     if (!VOICES[i].no_cycle)
 1122              		.loc 8 818 3 is_stmt 1 view .LVU334
 818:src/voice.h   ****     if (!VOICES[i].no_cycle)
 1123              		.loc 8 818 21 view .LVU335
 1124 021e 7048     		ldr	r0, .L529+52
 1125 0220 9842     		cmp	r0, r3
 1126 0222 F7D1     		bne	.L60
 818:src/voice.h   ****     if (!VOICES[i].no_cycle)
 1127              		.loc 8 818 21 is_stmt 0 view .LVU336
 1128              	.LBE668:
 821:src/voice.h   **** }
 1129              		.loc 8 821 3 is_stmt 1 view .LVU337
 1130              	.LVL86:
 821:src/voice.h   **** }
 1131              		.loc 8 821 3 is_stmt 0 view .LVU338
 1132              	.LBE669:
 1133              	.LBE671:
 1134              	.LBB672:
 1135              	.LBI672:
 126:/Users/reza.kalfane/Workspaces/Daisy/DaisyExamples/libDaisy/src/daisy_seed.h ****     {
 1136              		.loc 1 126 17 is_stmt 1 view .LVU339
 1137              	.LBE672:
 284:src/main.cpp  ****                  cycle_pos(g_voice_idx), cycle_total(),
 285:src/main.cpp  ****                  VOICE.name, (int)VOICE.freq_low, (int)VOICE.freq_high);
 1138              		.loc 6 285 24 is_stmt 0 view .LVU340
 1139 0224 9423     		movs	r3, #148
 1140 0226 0598     		ldr	r0, [sp, #20]
 283:src/main.cpp  ****                  cycle_pos(g_voice_idx), cycle_total(),
 1141              		.loc 6 283 17 view .LVU341
 1142 0228 BDEEC88A 		vcvt.s32.f32	s16, s16
 1143              	.LVL87:
 1144              		.loc 6 285 24 view .LVU342
 1145 022c 04FB03F3 		mul	r3, r4, r3
 1146              	.LVL88:
 1147              		.loc 6 285 24 view .LVU343
 1148 0230 C418     		adds	r4, r0, r3
 1149              	.LVL89:
 1150              	.LBB676:
 1151              	.LBB673:
 128:/Users/reza.kalfane/Workspaces/Daisy/DaisyExamples/libDaisy/src/daisy_seed.h ****     }
 1152              		.loc 1 128 23 view .LVU344
 1153 0232 8DED008A 		vstr.32	s16, [sp]	@ int
 1154 0236 C358     		ldr	r3, [r0, r3]
 1155              	.LBE673:
 1156              	.LBE676:
 283:src/main.cpp  ****                  cycle_pos(g_voice_idx), cycle_total(),
 1157              		.loc 6 283 17 view .LVU345
ARM GAS  /tmp/claude-502/cc2bPfvH.s 			page 55


 1158 0238 D4ED027A 		vldr.32	s15, [r4, #8]
 1159              	.LBB677:
 1160              	.LBB674:
 128:/Users/reza.kalfane/Workspaces/Daisy/DaisyExamples/libDaisy/src/daisy_seed.h ****     }
 1161              		.loc 1 128 23 view .LVU346
 1162 023c 6948     		ldr	r0, .L529+56
 1163              	.LBE674:
 1164              	.LBE677:
 283:src/main.cpp  ****                  cycle_pos(g_voice_idx), cycle_total(),
 1165              		.loc 6 283 17 view .LVU347
 1166 023e FDEEE77A 		vcvt.s32.f32	s15, s15
 1167              	.LBB678:
 1168              	.LBB675:
 128:/Users/reza.kalfane/Workspaces/Daisy/DaisyExamples/libDaisy/src/daisy_seed.h ****     }
 1169              		.loc 1 128 23 view .LVU348
 1170 0242 CDED017A 		vstr.32	s15, [sp, #4]	@ int
 1171 0246 FFF7FEFF 		bl	_ZN5daisy6LoggerILNS_17LoggerDestinationE1EE9PrintLineEPKcz
 1172              	.LVL90:
 128:/Users/reza.kalfane/Workspaces/Daisy/DaisyExamples/libDaisy/src/daisy_seed.h ****     }
 1173              		.loc 1 128 23 view .LVU349
 1174              	.LBE675:
 1175              	.LBE678:
 286:src/main.cpp  ****     hw.PrintLine("F1 pos=pitch  F1 prs=cutoff+vibrato");
 1176              		.loc 6 286 5 is_stmt 1 view .LVU350
 1177              	.LBB679:
 1178              	.LBI679:
 126:/Users/reza.kalfane/Workspaces/Daisy/DaisyExamples/libDaisy/src/daisy_seed.h ****     {
 1179              		.loc 1 126 17 view .LVU351
 1180              	.LBB680:
 128:/Users/reza.kalfane/Workspaces/Daisy/DaisyExamples/libDaisy/src/daisy_seed.h ****     }
 1181              		.loc 1 128 23 is_stmt 0 view .LVU352
 1182 024a 6748     		ldr	r0, .L529+60
 1183 024c FFF7FEFF 		bl	_ZN5daisy6LoggerILNS_17LoggerDestinationE1EE9PrintLineEPKcz
 1184              	.LVL91:
 128:/Users/reza.kalfane/Workspaces/Daisy/DaisyExamples/libDaisy/src/daisy_seed.h ****     }
 1185              		.loc 1 128 23 view .LVU353
 1186              	.LBE680:
 1187              	.LBE679:
 287:src/main.cpp  ****     if(VOICE.osc2_detune)
 1188              		.loc 6 287 5 is_stmt 1 view .LVU354
 1189 0250 94F83D30 		ldrb	r3, [r4, #61]	@ zero_extendqisi2
 1190 0254 002B     		cmp	r3, #0
 1191 0256 01F02C86 		beq	.L61
 288:src/main.cpp  ****         hw.PrintLine("F2 pos=detune F2 prs=wavefold+ringmod");
 1192              		.loc 6 288 9 view .LVU355
 1193              	.LVL92:
 1194              	.LBB681:
 1195              	.LBI681:
 126:/Users/reza.kalfane/Workspaces/Daisy/DaisyExamples/libDaisy/src/daisy_seed.h ****     {
 1196              		.loc 1 126 17 view .LVU356
 1197              	.LBB682:
 128:/Users/reza.kalfane/Workspaces/Daisy/DaisyExamples/libDaisy/src/daisy_seed.h ****     }
 1198              		.loc 1 128 23 is_stmt 0 view .LVU357
 1199 025a 6448     		ldr	r0, .L529+64
 1200 025c FFF7FEFF 		bl	_ZN5daisy6LoggerILNS_17LoggerDestinationE1EE9PrintLineEPKcz
 1201              	.LVL93:
 1202              	.L62:
ARM GAS  /tmp/claude-502/cc2bPfvH.s 			page 56


 128:/Users/reza.kalfane/Workspaces/Daisy/DaisyExamples/libDaisy/src/daisy_seed.h ****     }
 1203              		.loc 1 128 23 view .LVU358
 1204              	.LBE682:
 1205              	.LBE681:
 289:src/main.cpp  ****     else
 290:src/main.cpp  ****         hw.PrintLine("F2 prs=wavefold+ringmod (osc2=fixed)");
 291:src/main.cpp  ****     hw.PrintLine("Press FSR fully (no touch) 2s -> select; tap to cycle; release to keep");
 1206              		.loc 6 291 5 is_stmt 1 view .LVU359
 1207              	.LBB683:
 1208              	.LBI683:
 126:/Users/reza.kalfane/Workspaces/Daisy/DaisyExamples/libDaisy/src/daisy_seed.h ****     {
 1209              		.loc 1 126 17 view .LVU360
 1210              	.LBB684:
 128:/Users/reza.kalfane/Workspaces/Daisy/DaisyExamples/libDaisy/src/daisy_seed.h ****     }
 1211              		.loc 1 128 23 is_stmt 0 view .LVU361
 1212 0260 6348     		ldr	r0, .L529+68
 1213 0262 FFF7FEFF 		bl	_ZN5daisy6LoggerILNS_17LoggerDestinationE1EE9PrintLineEPKcz
 1214              	.LVL94:
 128:/Users/reza.kalfane/Workspaces/Daisy/DaisyExamples/libDaisy/src/daisy_seed.h ****     }
 1215              		.loc 1 128 23 view .LVU362
 1216              	.LBE684:
 1217              	.LBE683:
 292:src/main.cpp  ****     hw.PrintLine("MPR121 OK ŌĆö baseline captured");
 1218              		.loc 6 292 5 is_stmt 1 view .LVU363
 1219              	.LBB685:
 1220              	.LBI685:
 126:/Users/reza.kalfane/Workspaces/Daisy/DaisyExamples/libDaisy/src/daisy_seed.h ****     {
 1221              		.loc 1 126 17 view .LVU364
 1222              	.LBB686:
 128:/Users/reza.kalfane/Workspaces/Daisy/DaisyExamples/libDaisy/src/daisy_seed.h ****     }
 1223              		.loc 1 128 23 is_stmt 0 view .LVU365
 1224 0266 6348     		ldr	r0, .L529+72
 1225 0268 FFF7FEFF 		bl	_ZN5daisy6LoggerILNS_17LoggerDestinationE1EE9PrintLineEPKcz
 1226              	.LVL95:
 128:/Users/reza.kalfane/Workspaces/Daisy/DaisyExamples/libDaisy/src/daisy_seed.h ****     }
 1227              		.loc 1 128 23 view .LVU366
 1228              	.LBE686:
 1229              	.LBE685:
 293:src/main.cpp  ****     hw.PrintLine("Ready.\n");
 1230              		.loc 6 293 5 is_stmt 1 view .LVU367
 1231              	.LBB687:
 1232              	.LBI687:
 126:/Users/reza.kalfane/Workspaces/Daisy/DaisyExamples/libDaisy/src/daisy_seed.h ****     {
 1233              		.loc 1 126 17 view .LVU368
 1234              	.LBB688:
 128:/Users/reza.kalfane/Workspaces/Daisy/DaisyExamples/libDaisy/src/daisy_seed.h ****     }
 1235              		.loc 1 128 23 is_stmt 0 view .LVU369
 1236 026c 6248     		ldr	r0, .L529+76
 1237 026e FFF7FEFF 		bl	_ZN5daisy6LoggerILNS_17LoggerDestinationE1EE9PrintLineEPKcz
 1238              	.LVL96:
 128:/Users/reza.kalfane/Workspaces/Daisy/DaisyExamples/libDaisy/src/daisy_seed.h ****     }
 1239              		.loc 1 128 23 view .LVU370
 1240              	.LBE688:
 1241              	.LBE687:
 294:src/main.cpp  **** 
 295:src/main.cpp  ****     uint16_t data[N_CH];
 1242              		.loc 6 295 5 is_stmt 1 view .LVU371
ARM GAS  /tmp/claude-502/cc2bPfvH.s 			page 57


 296:src/main.cpp  ****     int32_t  delta[N_CH];
 1243              		.loc 6 296 5 view .LVU372
 297:src/main.cpp  ****     char     bar[32], pos_bar[52];
 1244              		.loc 6 297 5 view .LVU373
 298:src/main.cpp  ****     Finger   raw[MAX_FINGERS];
 1245              		.loc 6 298 5 view .LVU374
 299:src/main.cpp  **** 
 300:src/main.cpp  ****     uint32_t idle_since      = System::GetNow();
 1246              		.loc 6 300 5 view .LVU375
 1247              		.loc 6 300 46 is_stmt 0 view .LVU376
 1248 0272 FFF7FEFF 		bl	_ZN5daisy6System6GetNowEv
 1249              	.LVL97:
 1250 0276 1790     		str	r0, [sp, #92]
 1251              	.LVL98:
 301:src/main.cpp  ****     uint32_t last_touch_ms   = System::GetNow();
 1252              		.loc 6 301 5 is_stmt 1 view .LVU377
 1253              		.loc 6 301 46 is_stmt 0 view .LVU378
 1254 0278 FFF7FEFF 		bl	_ZN5daisy6System6GetNowEv
 1255              	.LVL99:
 1256              		.loc 6 301 46 view .LVU379
 1257 027c 0E90     		str	r0, [sp, #56]
 1258              	.LVL100:
 302:src/main.cpp  ****     bool     f1_was_on       = false;
 1259              		.loc 6 302 5 is_stmt 1 view .LVU380
 303:src/main.cpp  ****     uint32_t f1_last_seen_ms = 0;
 1260              		.loc 6 303 5 view .LVU381
 304:src/main.cpp  ****     static constexpr uint32_t F1_REQUANTIZE_MS = 200; // re-quantize only after this long off
 1261              		.loc 6 304 5 view .LVU382
 305:src/main.cpp  ****     float    f1_midi_base    = 60.0f; // last quantized note
 1262              		.loc 6 305 5 view .LVU383
 306:src/main.cpp  ****     bool     f1_sliding      = false; // true after first touch settles
 1263              		.loc 6 306 5 view .LVU384
 307:src/main.cpp  **** 
 308:src/main.cpp  ****     // Control loop runs as fast as the sensor allows (~150-200 Hz) for tight
 309:src/main.cpp  ****     // timing; the serial display is throttled to a readable rate independently.
 310:src/main.cpp  ****     static constexpr uint32_t PRINT_INTERVAL_MS = 120;  // ~8 display refreshes/sec
 1264              		.loc 6 310 5 view .LVU385
 311:src/main.cpp  ****     static constexpr uint32_t CONTROL_DELAY_MS  = 3;    // small cap so we don't hammer I2C
 1265              		.loc 6 311 5 view .LVU386
 312:src/main.cpp  ****     uint32_t last_print_ms = System::GetNow();
 1266              		.loc 6 312 5 view .LVU387
 1267              		.loc 6 312 44 is_stmt 0 view .LVU388
 1268 027e FFF7FEFF 		bl	_ZN5daisy6System6GetNowEv
 1269              	.LVL101:
 313:src/main.cpp  **** 
 314:src/main.cpp  ****     // Velocity: capture peak pressure over a short window at each tap onset, then
 315:src/main.cpp  ****     // hold it for the note. Scales loudness by the voice's vel_sens.
 316:src/main.cpp  ****     static constexpr uint32_t VEL_WINDOW_MS = 0;   // latch velocity on the onset frame ŌĆö snappie
 317:src/main.cpp  ****     float    vel         = 1.0f;   // latched hit velocity 0..1
 318:src/main.cpp  ****     float    vel_peak    = 0.0f;   // running peak pressure during the window
 319:src/main.cpp  ****     uint32_t vel_start   = 0;      // window start
 320:src/main.cpp  ****     bool     vel_active  = false;  // capturing
 321:src/main.cpp  **** 
 322:src/main.cpp  ****     // Smoothed LED brightness state (0..1), slewed toward per-frame targets.
 323:src/main.cpp  ****     // LED1 = DAC1 (pos 0 end), LED2 = DAC2 (middle), LED3 = PWM A0 (pos 1000 end).
 324:src/main.cpp  ****     float s_led1 = 0.0f, s_led2 = 0.0f, s_led3 = 0.0f;
 325:src/main.cpp  **** 
ARM GAS  /tmp/claude-502/cc2bPfvH.s 			page 58


 326:src/main.cpp  ****     // ŌöĆŌöĆ FSR voice-select gesture state (tap-to-cycle) ŌöĆŌöĆŌöĆŌöĆŌöĆŌöĆŌöĆŌöĆŌöĆŌöĆŌöĆŌöĆŌöĆ
 327:src/main.cpp  ****     int      sel_mode      = 0;      // 0 = normal play, 1 = voice-select mode
 328:src/main.cpp  ****     bool     full_state    = false;  // schmitt-latched "FSR pressed to the floor"
 329:src/main.cpp  ****     uint32_t full_since    = 0;      // when full_state went true (enter timer; 0 = not full)
 330:src/main.cpp  ****     bool     prev_held     = false;  // bridged glass-touch state last loop (tap edge detect)
 331:src/main.cpp  ****     uint32_t touch_last_ms = 0;      // last loop the glass read as touched (lift bridge)
 332:src/main.cpp  ****     uint32_t last_tap_ms   = 0;      // last glass-tap advance (debounce)
 333:src/main.cpp  ****     uint32_t drum2_at      = 0;      // scheduled 2nd drum hit (snare) for the kit preview
 334:src/main.cpp  ****     // Non-blocking LED blinker: blink_start(n) queues n flashes, blink_tick()
 335:src/main.cpp  ****     // advances them between loops so glass taps still register (the old blocking
 336:src/main.cpp  ****     // flash stalled the loop up to ~2 s). Voice-select blinks the position on
 337:src/main.cpp  ****     // enter and on save (which voice), and a single blink per tap-advance (the
 338:src/main.cpp  ****     // audio preview IDs it). Startup uses the blocking flasher for the boot voice.
 339:src/main.cpp  ****     int      blink_left    = 0;
 340:src/main.cpp  ****     bool     blink_on      = false;
 341:src/main.cpp  ****     uint32_t blink_t       = 0;
 342:src/main.cpp  ****     auto leds_write = [&](bool on){
 343:src/main.cpp  ****         hw.dac.WriteValue(DacHandle::Channel::ONE, on ? (uint16_t)LED1_MAX : 0);
 344:src/main.cpp  ****         hw.dac.WriteValue(DacHandle::Channel::TWO, on ? (uint16_t)LED2_MAX : 0);
 345:src/main.cpp  ****         g_led3_duty = on ? LED3_INTENSITY : 0.0f;
 346:src/main.cpp  ****     };
 347:src/main.cpp  ****     auto blink_start = [&](int n, uint32_t now){
 348:src/main.cpp  ****         blink_left = n;
 349:src/main.cpp  ****         if(n > 0){ leds_write(true); blink_on = true; blink_t = now + 110; }
 350:src/main.cpp  ****         else     { leds_write(false); blink_on = false; }
 351:src/main.cpp  ****     };
 352:src/main.cpp  ****     auto blink_tick = [&](uint32_t now){
 353:src/main.cpp  ****         if(blink_left == 0 && !blink_on) return;
 354:src/main.cpp  ****         if((int32_t)(now - blink_t) < 0)  return;
 355:src/main.cpp  ****         if(blink_on){ leds_write(false); blink_on = false; blink_left--; blink_t = now + 140; }
 356:src/main.cpp  ****         else if(blink_left > 0){ leds_write(true); blink_on = true; blink_t = now + 110; }
 357:src/main.cpp  ****     };
 358:src/main.cpp  **** 
 359:src/main.cpp  ****     // Blocking flash used only at startup to announce the boot/restored voice.
 360:src/main.cpp  ****     auto flash_voice_leds = [&](int count){
 361:src/main.cpp  ****         for(int f = 0; f < count; f++){
 362:src/main.cpp  ****             leds_write(true);  System::Delay(110);
 363:src/main.cpp  ****             leds_write(false); System::Delay(140);
 364:src/main.cpp  ****         }
 365:src/main.cpp  ****     };
 366:src/main.cpp  **** 
 367:src/main.cpp  ****     // Startup: flash the LEDs to announce the boot/restored voice (its cycle
 368:src/main.cpp  ****     // position) ŌĆö same gesture as a live voice switch.
 369:src/main.cpp  ****     flash_voice_leds(cycle_pos(g_voice_idx));
 1270              		.loc 6 369 21 view .LVU389
 1271 0282 4C4B     		ldr	r3, .L529+8
 312:src/main.cpp  ****     uint32_t last_print_ms = System::GetNow();
 1272              		.loc 6 312 44 view .LVU390
 1273 0284 1390     		str	r0, [sp, #76]
 1274              	.LVL102:
 316:src/main.cpp  ****     float    vel         = 1.0f;   // latched hit velocity 0..1
 1275              		.loc 6 316 5 is_stmt 1 view .LVU391
 317:src/main.cpp  ****     float    vel_peak    = 0.0f;   // running peak pressure during the window
 1276              		.loc 6 317 5 view .LVU392
 318:src/main.cpp  ****     uint32_t vel_start   = 0;      // window start
 1277              		.loc 6 318 5 view .LVU393
 319:src/main.cpp  ****     bool     vel_active  = false;  // capturing
ARM GAS  /tmp/claude-502/cc2bPfvH.s 			page 59


 1278              		.loc 6 319 5 view .LVU394
 320:src/main.cpp  **** 
 1279              		.loc 6 320 5 view .LVU395
 324:src/main.cpp  **** 
 1280              		.loc 6 324 5 view .LVU396
 327:src/main.cpp  ****     bool     full_state    = false;  // schmitt-latched "FSR pressed to the floor"
 1281              		.loc 6 327 5 view .LVU397
 328:src/main.cpp  ****     uint32_t full_since    = 0;      // when full_state went true (enter timer; 0 = not full)
 1282              		.loc 6 328 5 view .LVU398
 329:src/main.cpp  ****     bool     prev_held     = false;  // bridged glass-touch state last loop (tap edge detect)
 1283              		.loc 6 329 5 view .LVU399
 330:src/main.cpp  ****     uint32_t touch_last_ms = 0;      // last loop the glass read as touched (lift bridge)
 1284              		.loc 6 330 5 view .LVU400
 331:src/main.cpp  ****     uint32_t last_tap_ms   = 0;      // last glass-tap advance (debounce)
 1285              		.loc 6 331 5 view .LVU401
 332:src/main.cpp  ****     uint32_t drum2_at      = 0;      // scheduled 2nd drum hit (snare) for the kit preview
 1286              		.loc 6 332 5 view .LVU402
 333:src/main.cpp  ****     // Non-blocking LED blinker: blink_start(n) queues n flashes, blink_tick()
 1287              		.loc 6 333 5 view .LVU403
 339:src/main.cpp  ****     bool     blink_on      = false;
 1288              		.loc 6 339 5 view .LVU404
 340:src/main.cpp  ****     uint32_t blink_t       = 0;
 1289              		.loc 6 340 5 view .LVU405
 341:src/main.cpp  ****     auto leds_write = [&](bool on){
 1290              		.loc 6 341 5 view .LVU406
 342:src/main.cpp  ****         hw.dac.WriteValue(DacHandle::Channel::ONE, on ? (uint16_t)LED1_MAX : 0);
 1291              		.loc 6 342 5 view .LVU407
 347:src/main.cpp  ****         blink_left = n;
 1292              		.loc 6 347 5 view .LVU408
 352:src/main.cpp  ****         if(blink_left == 0 && !blink_on) return;
 1293              		.loc 6 352 5 view .LVU409
 360:src/main.cpp  ****         for(int f = 0; f < count; f++){
 1294              		.loc 6 360 5 view .LVU410
 1295              		.loc 6 369 5 view .LVU411
 1296              		.loc 6 369 21 is_stmt 0 view .LVU412
 1297 0286 1B68     		ldr	r3, [r3]
 1298              	.LVL103:
 1299              	.LBB689:
 1300              	.LBI689:
 823:src/voice.h   ****   int p = 0;
 1301              		.loc 8 823 12 is_stmt 1 view .LVU413
 1302              	.LBB690:
 1303              	.LBB691:
 825:src/voice.h   ****     if (!VOICES[i].no_cycle)
 1304              		.loc 8 825 28 view .LVU414
 1305 0288 0C2B     		cmp	r3, #12
 1306 028a 1846     		mov	r0, r3
 1307              	.LVL104:
 825:src/voice.h   ****     if (!VOICES[i].no_cycle)
 1308              		.loc 8 825 28 is_stmt 0 view .LVU415
 1309 028c A8BF     		it	ge
 1310 028e 0C20     		movge	r0, #12
 1311 0290 002B     		cmp	r3, #0
 1312 0292 C1F23586 		blt	.L487
 825:src/voice.h   ****     if (!VOICES[i].no_cycle)
 1313              		.loc 8 825 12 view .LVU416
 1314 0296 0023     		movs	r3, #0
ARM GAS  /tmp/claude-502/cc2bPfvH.s 			page 60


 1315              	.LVL105:
 825:src/voice.h   ****     if (!VOICES[i].no_cycle)
 1316              		.loc 8 825 28 view .LVU417
 1317 0298 474A     		ldr	r2, .L529+12
 1318              	.LBE691:
 824:src/voice.h   ****   for (int i = 0; i <= idx && i < NUM_VOICES; i++)
 1319              		.loc 8 824 7 view .LVU418
 1320 029a 1D46     		mov	r5, r3
 1321              	.LVL106:
 1322              	.L63:
 1323              	.LBB692:
 826:src/voice.h   ****       p++;
 1324              		.loc 8 826 5 is_stmt 1 view .LVU419
 1325              		.loc 8 827 7 view .LVU420
 826:src/voice.h   ****       p++;
 1326              		.loc 8 826 5 is_stmt 0 view .LVU421
 1327 029c 92F87C10 		ldrb	r1, [r2, #124]	@ zero_extendqisi2
 825:src/voice.h   ****     if (!VOICES[i].no_cycle)
 1328              		.loc 8 825 3 view .LVU422
 1329 02a0 0133     		adds	r3, r3, #1
 1330              	.LVL107:
 825:src/voice.h   ****     if (!VOICES[i].no_cycle)
 1331              		.loc 8 825 28 view .LVU423
 1332 02a2 9432     		adds	r2, r2, #148
 826:src/voice.h   ****       p++;
 1333              		.loc 8 826 5 view .LVU424
 1334 02a4 01B9     		cbnz	r1, .L67
 1335              		.loc 8 827 8 view .LVU425
 1336 02a6 0135     		adds	r5, r5, #1
 1337              	.LVL108:
 1338              	.L67:
 825:src/voice.h   ****     if (!VOICES[i].no_cycle)
 1339              		.loc 8 825 3 is_stmt 1 view .LVU426
 825:src/voice.h   ****     if (!VOICES[i].no_cycle)
 1340              		.loc 8 825 28 view .LVU427
 1341 02a8 9842     		cmp	r0, r3
 1342 02aa F7DA     		bge	.L63
 1343              	.LVL109:
 825:src/voice.h   ****     if (!VOICES[i].no_cycle)
 1344              		.loc 8 825 28 is_stmt 0 view .LVU428
 1345              	.LBE692:
 1346              	.LBE690:
 1347              	.LBE689:
 1348              	.LBB693:
 1349              	.LBB694:
 1350              	.LBB695:
 361:src/main.cpp  ****             leds_write(true);  System::Delay(110);
 1351              		.loc 6 361 26 is_stmt 1 view .LVU429
 1352 02ac 002D     		cmp	r5, #0
 1353 02ae 01F02786 		beq	.L487
 1354 02b2 524E     		ldr	r6, .L529+80
 361:src/main.cpp  ****             leds_write(true);  System::Delay(110);
 1355              		.loc 6 361 17 is_stmt 0 view .LVU430
 1356 02b4 0024     		movs	r4, #0
 1357 02b6 1996     		str	r6, [sp, #100]
 1358              	.LVL110:
 1359              	.L66:
ARM GAS  /tmp/claude-502/cc2bPfvH.s 			page 61


 362:src/main.cpp  ****             leds_write(false); System::Delay(140);
 1360              		.loc 6 362 13 is_stmt 1 view .LVU431
 1361              	.LBB696:
 1362              	.LBI696:
 342:src/main.cpp  ****         hw.dac.WriteValue(DacHandle::Channel::ONE, on ? (uint16_t)LED1_MAX : 0);
 1363              		.loc 6 342 23 view .LVU432
 1364              	.LBB697:
 343:src/main.cpp  ****         hw.dac.WriteValue(DacHandle::Channel::TWO, on ? (uint16_t)LED2_MAX : 0);
 1365              		.loc 6 343 9 view .LVU433
 343:src/main.cpp  ****         hw.dac.WriteValue(DacHandle::Channel::TWO, on ? (uint16_t)LED2_MAX : 0);
 1366              		.loc 6 343 26 is_stmt 0 view .LVU434
 1367 02b8 40F6FF72 		movw	r2, #4095
 1368 02bc 0021     		movs	r1, #0
 1369 02be 5048     		ldr	r0, .L529+84
 1370              	.LBE697:
 1371              	.LBE696:
 361:src/main.cpp  ****             leds_write(true);  System::Delay(110);
 1372              		.loc 6 361 9 view .LVU435
 1373 02c0 0134     		adds	r4, r4, #1
 1374              	.LVL111:
 1375              	.LBB700:
 1376              	.LBB698:
 343:src/main.cpp  ****         hw.dac.WriteValue(DacHandle::Channel::TWO, on ? (uint16_t)LED2_MAX : 0);
 1377              		.loc 6 343 26 view .LVU436
 1378 02c2 FFF7FEFF 		bl	_ZN5daisy9DacHandle10WriteValueENS0_7ChannelEt
 1379              	.LVL112:
 344:src/main.cpp  ****         g_led3_duty = on ? LED3_INTENSITY : 0.0f;
 1380              		.loc 6 344 9 is_stmt 1 view .LVU437
 344:src/main.cpp  ****         g_led3_duty = on ? LED3_INTENSITY : 0.0f;
 1381              		.loc 6 344 26 is_stmt 0 view .LVU438
 1382 02c6 40F6FF72 		movw	r2, #4095
 1383 02ca 0121     		movs	r1, #1
 1384 02cc 4C48     		ldr	r0, .L529+84
 1385 02ce FFF7FEFF 		bl	_ZN5daisy9DacHandle10WriteValueENS0_7ChannelEt
 1386              	.LVL113:
 345:src/main.cpp  ****     };
 1387              		.loc 6 345 9 is_stmt 1 view .LVU439
 345:src/main.cpp  ****     };
 1388              		.loc 6 345 21 is_stmt 0 view .LVU440
 1389 02d2 4C4B     		ldr	r3, .L529+88
 1390              	.LBE698:
 1391              	.LBE700:
 362:src/main.cpp  ****             leds_write(false); System::Delay(140);
 1392              		.loc 6 362 45 view .LVU441
 1393 02d4 6E20     		movs	r0, #110
 1394              	.LBB701:
 1395              	.LBB699:
 345:src/main.cpp  ****     };
 1396              		.loc 6 345 21 view .LVU442
 1397 02d6 3360     		str	r3, [r6]	@ float
 1398              	.LVL114:
 345:src/main.cpp  ****     };
 1399              		.loc 6 345 21 view .LVU443
 1400              	.LBE699:
 1401              	.LBE701:
 362:src/main.cpp  ****             leds_write(false); System::Delay(140);
 1402              		.loc 6 362 32 is_stmt 1 view .LVU444
ARM GAS  /tmp/claude-502/cc2bPfvH.s 			page 62


 362:src/main.cpp  ****             leds_write(false); System::Delay(140);
 1403              		.loc 6 362 45 is_stmt 0 view .LVU445
 1404 02d8 FFF7FEFF 		bl	_ZN5daisy6System5DelayEm
 1405              	.LVL115:
 363:src/main.cpp  ****         }
 1406              		.loc 6 363 13 is_stmt 1 view .LVU446
 1407              	.LBB702:
 1408              	.LBI702:
 342:src/main.cpp  ****         hw.dac.WriteValue(DacHandle::Channel::ONE, on ? (uint16_t)LED1_MAX : 0);
 1409              		.loc 6 342 23 view .LVU447
 1410              	.LBB703:
 343:src/main.cpp  ****         hw.dac.WriteValue(DacHandle::Channel::TWO, on ? (uint16_t)LED2_MAX : 0);
 1411              		.loc 6 343 9 view .LVU448
 343:src/main.cpp  ****         hw.dac.WriteValue(DacHandle::Channel::TWO, on ? (uint16_t)LED2_MAX : 0);
 1412              		.loc 6 343 26 is_stmt 0 view .LVU449
 1413 02dc 0022     		movs	r2, #0
 1414 02de 4848     		ldr	r0, .L529+84
 1415 02e0 1146     		mov	r1, r2
 1416 02e2 FFF7FEFF 		bl	_ZN5daisy9DacHandle10WriteValueENS0_7ChannelEt
 1417              	.LVL116:
 344:src/main.cpp  ****         g_led3_duty = on ? LED3_INTENSITY : 0.0f;
 1418              		.loc 6 344 9 is_stmt 1 view .LVU450
 344:src/main.cpp  ****         g_led3_duty = on ? LED3_INTENSITY : 0.0f;
 1419              		.loc 6 344 26 is_stmt 0 view .LVU451
 1420 02e6 0022     		movs	r2, #0
 1421 02e8 0121     		movs	r1, #1
 1422 02ea 4548     		ldr	r0, .L529+84
 1423 02ec FFF7FEFF 		bl	_ZN5daisy9DacHandle10WriteValueENS0_7ChannelEt
 1424              	.LVL117:
 345:src/main.cpp  ****     };
 1425              		.loc 6 345 9 is_stmt 1 view .LVU452
 345:src/main.cpp  ****     };
 1426              		.loc 6 345 21 is_stmt 0 view .LVU453
 1427 02f0 0023     		movs	r3, #0
 1428              	.LBE703:
 1429              	.LBE702:
 363:src/main.cpp  ****         }
 1430              		.loc 6 363 45 view .LVU454
 1431 02f2 8C20     		movs	r0, #140
 1432              	.LBB705:
 1433              	.LBB704:
 345:src/main.cpp  ****     };
 1434              		.loc 6 345 21 view .LVU455
 1435 02f4 3360     		str	r3, [r6]	@ float
 1436              	.LVL118:
 345:src/main.cpp  ****     };
 1437              		.loc 6 345 21 view .LVU456
 1438              	.LBE704:
 1439              	.LBE705:
 363:src/main.cpp  ****         }
 1440              		.loc 6 363 32 is_stmt 1 view .LVU457
 363:src/main.cpp  ****         }
 1441              		.loc 6 363 45 is_stmt 0 view .LVU458
 1442 02f6 FFF7FEFF 		bl	_ZN5daisy6System5DelayEm
 1443              	.LVL119:
 361:src/main.cpp  ****             leds_write(true);  System::Delay(110);
 1444              		.loc 6 361 9 is_stmt 1 view .LVU459
ARM GAS  /tmp/claude-502/cc2bPfvH.s 			page 63


 361:src/main.cpp  ****             leds_write(true);  System::Delay(110);
 1445              		.loc 6 361 26 view .LVU460
 1446 02fa A542     		cmp	r5, r4
 1447 02fc DCD1     		bne	.L66
 1448              	.LVL120:
 1449              	.L65:
 361:src/main.cpp  ****             leds_write(true);  System::Delay(110);
 1450              		.loc 6 361 26 is_stmt 0 view .LVU461
 1451              	.LBE695:
 1452              	.LBE694:
 1453              	.LBE693:
 370:src/main.cpp  **** 
 371:src/main.cpp  ****     // ŌöĆŌöĆ Polyphonic Drums state ŌöĆŌöĆŌöĆŌöĆŌöĆŌöĆŌöĆŌöĆŌöĆŌöĆŌöĆŌöĆŌöĆŌöĆŌöĆŌöĆŌöĆŌöĆŌöĆŌöĆŌö
 372:src/main.cpp  ****     bool     hit_was_alive[MAX_FINGERS] = {};   // debounced-alive, previous frame
 1454              		.loc 6 372 5 is_stmt 1 view .LVU462
 324:src/main.cpp  **** 
 1455              		.loc 6 324 41 is_stmt 0 view .LVU463
 1456 02fe 9FED429A 		vldr.32	s18, .L529+92
 317:src/main.cpp  ****     float    vel_peak    = 0.0f;   // running peak pressure during the window
 1457              		.loc 6 317 14 view .LVU464
 1458 0302 F7EE008A 		vmov.f32	s17, #1.0e+0
 1459              	.LBB706:
 373:src/main.cpp  ****     uint32_t hit_last_alive[MAX_FINGERS]= {};   // last RAW-alive time (for lift debounce)
 374:src/main.cpp  ****     float    prs_sm[MAX_FINGERS]        = {};   // lightly-smoothed pressure
 375:src/main.cpp  ****     uint32_t last_retrig[MAX_FINGERS]   = {};   // last held re-attack time (refractory)
 376:src/main.cpp  ****     // Genuine taps (a real lift + re-tap) retrigger with NO limit. A tracker
 377:src/main.cpp  ****     // dropout shorter than TAP_GAP_MS is treated as a flicker ŌĆö the note keeps
 378:src/main.cpp  ****     // holding, no spurious retrigger. While HELD, a sharp pressure rise
 379:src/main.cpp  ****     // re-attacks but is rate-limited by the voice's retrig_ms.
 380:src/main.cpp  ****     static constexpr uint32_t TAP_GAP_MS  = 40;    // min off-time to count as a real lift
 381:src/main.cpp  ****     static constexpr float    PRS_SMOOTH  = 0.5f;  // light smoothing (preserve the attack edge)
 382:src/main.cpp  ****     static constexpr float    RISE_THRESH = 18.0f; // % pressure rise/frame = a held re-attack
 383:src/main.cpp  **** 
 384:src/main.cpp  ****     // Trigger drum slot `s` from a tap at (pos, pressure): zone ŌåÆ drum, fine
 385:src/main.cpp  ****     // position ŌåÆ interval pitch, pressure ŌåÆ velocity (loudness/brightness/drive).
 386:src/main.cpp  ****     auto trigger_drum = [&](int s, int32_t pos, int32_t pressure){
 387:src/main.cpp  ****         float p    = clampf((float)pos / 1000.0f, 0.0f, 1.0f);
 388:src/main.cpp  ****         int   zone = (int)(p * 4.0f); if(zone > 3) zone = 3;
 389:src/main.cpp  ****         int   vidx = MULTI_ZONES[zone];
 390:src/main.cpp  ****         const Voice& V = VOICES[vidx];
 391:src/main.cpp  ****         float subp = p * 4.0f - (float)zone;
 392:src/main.cpp  ****         int   step = (int)(subp * (float)MULTI_NINTERVALS);
 393:src/main.cpp  ****         if(step >= MULTI_NINTERVALS) step = MULTI_NINTERVALS - 1;
 394:src/main.cpp  ****         float freq = V.freq_low * MULTI_INTERVALS[step];
 395:src/main.cpp  ****         float v    = FIX_DRUM ? 1.0f : clampf((float)pressure / 100.0f, 0.0f, 1.0f);
 396:src/main.cpp  ****         float amp  = 0.72f * ((1.0f - V.vel_sens) + V.vel_sens * v);
 397:src/main.cpp  ****         // Cutoff from velocity, same curve as the mono path.
 398:src/main.cpp  ****         float cutoff_oct = V.cutoff_oct_max * smootherstep_f(v);
 399:src/main.cpp  ****         float oa = cutoff_oct * 0.6931f;
 400:src/main.cpp  ****         float om = 1.0f + oa*(1.0f + oa*(0.5f + oa*(0.1667f + oa*0.0417f)));
 401:src/main.cpp  ****         float tf = (V.keytrack >= 0.999f) ? freq
 402:src/main.cpp  ****                    : V.freq_low * powf(freq / V.freq_low, V.keytrack);
 403:src/main.cpp  ****         float cutoff = clampf(tf * V.cutoff_mult * om, 20.0f, 18000.0f);
 404:src/main.cpp  ****         float drive  = 1.0f + smoothstep_f(v) * V.drive_max;
 405:src/main.cpp  ****         drum_trigger(g_hits[s], vidx, freq, amp, cutoff, drive, hw.AudioSampleRate());
 406:src/main.cpp  ****         g_active_voice = vidx;   // header shows the last-hit drum
 407:src/main.cpp  ****     };
ARM GAS  /tmp/claude-502/cc2bPfvH.s 			page 64


 408:src/main.cpp  **** 
 409:src/main.cpp  ****     // Fire one drum (bank index `bankidx`) on hit-pool slot `slot` at full
 410:src/main.cpp  ****     // velocity, at its natural low pitch. Used by the kit preview below.
 411:src/main.cpp  ****     auto preview_drum = [&](int slot, int bankidx){
 412:src/main.cpp  ****         const Voice& V = VOICES[bankidx];
 413:src/main.cpp  ****         float freq   = V.freq_low;
 414:src/main.cpp  ****         // Bright enough that the noisy drums (snare/hat) crack through; the
 415:src/main.cpp  ****         // tonal drums stay dark via their own low cutoff_mult.
 416:src/main.cpp  ****         float cutoff = clampf(freq * V.cutoff_mult * 3.0f, 60.0f, 16000.0f);
 417:src/main.cpp  ****         float drive  = 1.0f + 0.6f * V.drive_max;
 418:src/main.cpp  ****         drum_trigger(g_hits[slot], bankidx, freq, 0.85f, cutoff, drive, hw.AudioSampleRate());
 419:src/main.cpp  ****         // ONE-SHOT: jump to full amp and immediately ungate so the hit decays on
 420:src/main.cpp  ****         // its own. A preview has no finger-lift to clear the gate, so leaving it
 421:src/main.cpp  ****         // gated would sustain the drum's noise forever (the "100% noise when Drums
 422:src/main.cpp  ****         // selected" bug). attack_ms (~1 ms) makes skipping the ramp inaudible.
 423:src/main.cpp  ****         g_hits[slot].amp  = g_hits[slot].amp_tgt;
 424:src/main.cpp  ****         g_hits[slot].gate = false;
 425:src/main.cpp  ****     };
 426:src/main.cpp  **** 
 427:src/main.cpp  ****     while(true)
 428:src/main.cpp  ****     {
 429:src/main.cpp  ****         // ŌöĆŌöĆ FSR ŌåÆ master volume ŌöĆŌöĆŌöĆŌöĆŌöĆŌöĆŌöĆŌöĆŌöĆŌöĆŌöĆŌöĆŌöĆŌöĆŌöĆŌöĆŌöĆŌöĆŌöĆŌö
 430:src/main.cpp  ****         // Full volume through the deadzone (light pressure), then ramps to 0 as
 431:src/main.cpp  ****         // pressure increases down to FSR_MIN.
 432:src/main.cpp  ****         uint16_t fsr_raw = hw.adc.Get(0);
 433:src/main.cpp  ****         float    vol;
 434:src/main.cpp  ****         if(fsr_raw >= fsr_dead)     vol = 1.0f;
 1460              		.loc 6 434 20 view .LVU465
 1461 0306 BDF882A0 		ldrh	r10, [sp, #130]
 1462              	.LBE706:
 372:src/main.cpp  ****     uint32_t hit_last_alive[MAX_FINGERS]= {};   // last RAW-alive time (for lift debounce)
 1463              		.loc 6 372 14 view .LVU466
 1464 030a 0023     		movs	r3, #0
 1465 030c 3F4E     		ldr	r6, .L529+96
 324:src/main.cpp  **** 
 1466              		.loc 6 324 26 view .LVU467
 1467 030e B0EE49AA 		vmov.f32	s20, s18
 324:src/main.cpp  **** 
 1468              		.loc 6 324 11 view .LVU468
 1469 0312 F0EE499A 		vmov.f32	s19, s18
 1470 0316 D046     		mov	r8, r10
 1471 0318 0DF58679 		add	r9, sp, #268
 1472 031c 0DF2511B 		addw	fp, sp, #337
 1473 0320 B246     		mov	r10, r6
 341:src/main.cpp  ****     auto leds_write = [&](bool on){
 1474              		.loc 6 341 14 view .LVU469
 1475 0322 1493     		str	r3, [sp, #80]
 372:src/main.cpp  ****     uint32_t hit_last_alive[MAX_FINGERS]= {};   // last RAW-alive time (for lift debounce)
 1476              		.loc 6 372 14 view .LVU470
 1477 0324 2293     		str	r3, [sp, #136]
 373:src/main.cpp  ****     float    prs_sm[MAX_FINGERS]        = {};   // lightly-smoothed pressure
 1478              		.loc 6 373 5 is_stmt 1 view .LVU471
 374:src/main.cpp  ****     uint32_t last_retrig[MAX_FINGERS]   = {};   // last held re-attack time (refractory)
 1479              		.loc 6 374 5 view .LVU472
 375:src/main.cpp  ****     // Genuine taps (a real lift + re-tap) retrigger with NO limit. A tracker
 1480              		.loc 6 375 5 view .LVU473
 340:src/main.cpp  ****     uint32_t blink_t       = 0;
ARM GAS  /tmp/claude-502/cc2bPfvH.s 			page 65


 1481              		.loc 6 340 14 is_stmt 0 view .LVU474
 1482 0326 1093     		str	r3, [sp, #64]
 339:src/main.cpp  ****     bool     blink_on      = false;
 1483              		.loc 6 339 14 view .LVU475
 1484 0328 0D93     		str	r3, [sp, #52]
 331:src/main.cpp  ****     uint32_t last_tap_ms   = 0;      // last glass-tap advance (debounce)
 1485              		.loc 6 331 14 view .LVU476
 1486 032a 1893     		str	r3, [sp, #96]
 330:src/main.cpp  ****     uint32_t touch_last_ms = 0;      // last loop the glass read as touched (lift bridge)
 1487              		.loc 6 330 14 view .LVU477
 1488 032c 0C93     		str	r3, [sp, #48]
 329:src/main.cpp  ****     bool     prev_held     = false;  // bridged glass-touch state last loop (tap edge detect)
 1489              		.loc 6 329 14 view .LVU478
 1490 032e 1A93     		str	r3, [sp, #104]
 328:src/main.cpp  ****     uint32_t full_since    = 0;      // when full_state went true (enter timer; 0 = not full)
 1491              		.loc 6 328 14 view .LVU479
 1492 0330 0A93     		str	r3, [sp, #40]
 327:src/main.cpp  ****     bool     full_state    = false;  // schmitt-latched "FSR pressed to the floor"
 1493              		.loc 6 327 14 view .LVU480
 1494 0332 0F93     		str	r3, [sp, #60]
 303:src/main.cpp  ****     static constexpr uint32_t F1_REQUANTIZE_MS = 200; // re-quantize only after this long off
 1495              		.loc 6 303 14 view .LVU481
 1496 0334 1B93     		str	r3, [sp, #108]
 302:src/main.cpp  ****     uint32_t f1_last_seen_ms = 0;
 1497              		.loc 6 302 14 view .LVU482
 1498 0336 0893     		str	r3, [sp, #32]
 373:src/main.cpp  ****     float    prs_sm[MAX_FINGERS]        = {};   // lightly-smoothed pressure
 1499              		.loc 6 373 14 view .LVU483
 1500 0338 CDE92733 		strd	r3, r3, [sp, #156]
 1501 033c CDE92933 		strd	r3, r3, [sp, #164]
 374:src/main.cpp  ****     uint32_t last_retrig[MAX_FINGERS]   = {};   // last held re-attack time (refractory)
 1502              		.loc 6 374 14 view .LVU484
 1503 0340 CDE92B33 		strd	r3, r3, [sp, #172]
 1504 0344 CDE92D33 		strd	r3, r3, [sp, #180]
 375:src/main.cpp  ****     // Genuine taps (a real lift + re-tap) retrigger with NO limit. A tracker
 1505              		.loc 6 375 14 view .LVU485
 1506 0348 CDE92F33 		strd	r3, r3, [sp, #188]
 1507 034c CDE93133 		strd	r3, r3, [sp, #196]
 332:src/main.cpp  ****     uint32_t drum2_at      = 0;      // scheduled 2nd drum hit (snare) for the kit preview
 1508              		.loc 6 332 14 view .LVU486
 1509 0350 CDE91C33 		strd	r3, r3, [sp, #112]
 1510              	.LVL121:
 1511              	.L64:
 380:src/main.cpp  ****     static constexpr float    PRS_SMOOTH  = 0.5f;  // light smoothing (preserve the attack edge)
 1512              		.loc 6 380 5 is_stmt 1 view .LVU487
 381:src/main.cpp  ****     static constexpr float    RISE_THRESH = 18.0f; // % pressure rise/frame = a held re-attack
 1513              		.loc 6 381 5 view .LVU488
 382:src/main.cpp  **** 
 1514              		.loc 6 382 5 view .LVU489
 386:src/main.cpp  ****         float p    = clampf((float)pos / 1000.0f, 0.0f, 1.0f);
 1515              		.loc 6 386 5 view .LVU490
 411:src/main.cpp  ****         const Voice& V = VOICES[bankidx];
 1516              		.loc 6 411 5 view .LVU491
 427:src/main.cpp  ****     {
 1517              		.loc 6 427 5 view .LVU492
 1518              	.LBB1398:
 432:src/main.cpp  ****         float    vol;
ARM GAS  /tmp/claude-502/cc2bPfvH.s 			page 66


 1519              		.loc 6 432 9 view .LVU493
 432:src/main.cpp  ****         float    vol;
 1520              		.loc 6 432 38 is_stmt 0 view .LVU494
 1521 0354 0021     		movs	r1, #0
 1522 0356 1548     		ldr	r0, .L529
 1523 0358 FFF7FEFF 		bl	_ZNK5daisy9AdcHandle3GetEh
 1524              	.LVL122:
 433:src/main.cpp  ****         if(fsr_raw >= fsr_dead)     vol = 1.0f;
 1525              		.loc 6 433 9 is_stmt 1 view .LVU495
 1526              		.loc 6 434 9 view .LVU496
 1527 035c 4045     		cmp	r0, r8
 1528 035e 80F00F85 		bcs	.L69
 1529              	.L510:
 435:src/main.cpp  ****         else if(fsr_raw <= FSR_MIN) vol = 0.0f;
 1530              		.loc 6 435 14 view .LVU497
 1531 0362 B0F5FA5F 		cmp	r0, #8000
 1532 0366 40F24087 		bls	.L70
 436:src/main.cpp  ****         else                        vol = (float)(fsr_raw - FSR_MIN) * fsr_active_inv;
 1533              		.loc 6 436 37 view .LVU498
 1534              		.loc 6 436 59 is_stmt 0 view .LVU499
 1535 036a A0F5FA50 		sub	r0, r0, #8000
 1536              	.LVL123:
 1537              		.loc 6 436 41 view .LVU500
 1538 036e 9DED217A 		vldr.32	s14, [sp, #132]
 437:src/main.cpp  ****         g_master_vol = vol;
 1539              		.loc 6 437 22 view .LVU501
 1540 0372 274B     		ldr	r3, .L529+100
 436:src/main.cpp  ****         else                        vol = (float)(fsr_raw - FSR_MIN) * fsr_active_inv;
 1541              		.loc 6 436 43 view .LVU502
 1542 0374 07EE900A 		vmov	s15, r0	@ int
 1543 0378 B8EEE78A 		vcvt.f32.s32	s16, s15
 438:src/main.cpp  **** 
 439:src/main.cpp  ****         // Schmitt-latch "FSR pressed to the floor" (hysteresis so a steady hard
 440:src/main.cpp  ****         // press doesn't chatter the tap edge). Note the FSR reads INVERSELY: a
 441:src/main.cpp  ****         // hard press drives fsr_raw down to/below FSR_MIN (vol -> 0), while easing
 442:src/main.cpp  ****         // off raises it (vol -> 1). The voice-select gesture is handled below,
 443:src/main.cpp  ****         // after touch detection, so it can require no glass touch.
 444:src/main.cpp  ****         if(fsr_raw <= FSR_MIN) full_state = true;    // pressed to the floor = "full"
 445:src/main.cpp  ****         else if(vol >= 0.4f)   full_state = false;   // clearly eased off
 1544              		.loc 6 445 14 view .LVU503
 1545 037c DFED257A 		vldr.32	s15, .L529+104
 436:src/main.cpp  ****         g_master_vol = vol;
 1546              		.loc 6 436 41 view .LVU504
 1547 0380 28EE078A 		vmul.f32	s16, s16, s14
 1548              	.LVL124:
 437:src/main.cpp  ****         g_master_vol = vol;
 1549              		.loc 6 437 9 is_stmt 1 view .LVU505
 1550              		.loc 6 445 43 is_stmt 0 view .LVU506
 1551 0384 B4EE678A 		vcmp.f32	s16, s15
 437:src/main.cpp  ****         g_master_vol = vol;
 1552              		.loc 6 437 22 view .LVU507
 1553 0388 83ED008A 		vstr.32	s16, [r3]
 444:src/main.cpp  ****         else if(vol >= 0.4f)   full_state = false;   // clearly eased off
 1554              		.loc 6 444 9 is_stmt 1 view .LVU508
 1555              		.loc 6 445 14 view .LVU509
 1556              		.loc 6 445 43 is_stmt 0 view .LVU510
 1557 038c 0A9B     		ldr	r3, [sp, #40]
ARM GAS  /tmp/claude-502/cc2bPfvH.s 			page 67


 1558 038e F1EE10FA 		vmrs	APSR_nzcv, FPSCR
 1559 0392 A8BF     		it	ge
 1560 0394 0023     		movge	r3, #0
 1561 0396 0A93     		str	r3, [sp, #40]
 1562              	.LVL125:
 1563              	.L71:
 446:src/main.cpp  ****         // else: hold previous state in the dead band
 447:src/main.cpp  **** 
 448:src/main.cpp  ****         read_electrodes(data);
 1564              		.loc 6 448 9 is_stmt 1 view .LVU511
 1565              		.loc 6 448 24 is_stmt 0 view .LVU512
 1566 0398 4846     		mov	r0, r9
 449:src/main.cpp  **** 
 450:src/main.cpp  ****         int32_t max_delta=1;
 1567              		.loc 6 450 17 view .LVU513
 1568 039a 0124     		movs	r4, #1
 448:src/main.cpp  **** 
 1569              		.loc 6 448 24 view .LVU514
 1570 039c FFF7FEFF 		bl	_Z15read_electrodesPt
 1571              	.LVL126:
 1572              		.loc 6 450 9 is_stmt 1 view .LVU515
 451:src/main.cpp  ****         for(int i=0;i<N_CH;i++){
 1573              		.loc 6 451 9 view .LVU516
 1574              	.LBB707:
 1575              		.loc 6 451 22 view .LVU517
 1576 03a0 57AB     		add	r3, sp, #348
 1577 03a2 4846     		mov	r0, r9
 1578              	.LBE707:
 448:src/main.cpp  **** 
 1579              		.loc 6 448 24 is_stmt 0 view .LVU518
 1580 03a4 099A     		ldr	r2, [sp, #36]
 1581 03a6 1946     		mov	r1, r3
 1582 03a8 1293     		str	r3, [sp, #72]
 1583 03aa 3DE0     		b	.L75
 1584              	.L530:
 1585              		.align	2
 1586              	.L529:
 1587 03ac 18000000 		.word	.LANCHOR0+24
 1588 03b0 CDCCCC3D 		.word	1036831949
 1589 03b4 00000000 		.word	.LANCHOR1
 1590 03b8 00000000 		.word	.LANCHOR5
 1591 03bc 00000000 		.word	g_target_freq
 1592 03c0 00000000 		.word	g_amp_target
 1593 03c4 00000000 		.word	.LANCHOR0
 1594 03c8 0000C842 		.word	1120403456
 1595 03cc 00000000 		.word	g_target_cutoff
 1596 03d0 00000000 		.word	_Z13AudioCallbackPKPKfPPfj
 1597 03d4 CDCCCC3E 		.word	1053609165
 1598 03d8 00000000 		.word	.LC0
 1599 03dc 14000000 		.word	.LC1
 1600 03e0 84070000 		.word	.LANCHOR5+1924
 1601 03e4 28000000 		.word	.LC2
 1602 03e8 44000000 		.word	.LC3
 1603 03ec 68000000 		.word	.LC4
 1604 03f0 B8000000 		.word	.LC6
 1605 03f4 00010000 		.word	.LC7
 1606 03f8 20010000 		.word	.LC8
ARM GAS  /tmp/claude-502/cc2bPfvH.s 			page 68


 1607 03fc 00000000 		.word	g_led3_duty
 1608 0400 20000000 		.word	.LANCHOR0+32
 1609 0404 CDCC4C3D 		.word	1028443341
 1610 0408 00000000 		.word	0
 1611 040c 00000000 		.word	tracked
 1612 0410 00000000 		.word	g_master_vol
 1613 0414 CDCCCC3E 		.word	1053609165
 1614              	.LVL127:
 1615              	.L492:
 448:src/main.cpp  **** 
 1616              		.loc 6 448 24 view .LVU519
 1617 0418 9C42     		cmp	r4, r3
 1618              	.LBB708:
 452:src/main.cpp  ****             delta[i]=(int32_t)baseline[i]-(int32_t)data[i];
 1619              		.loc 6 452 21 view .LVU520
 1620 041a 0B60     		str	r3, [r1]
 453:src/main.cpp  ****             if(delta[i]<0)delta[i]=0;
 454:src/main.cpp  ****             if(delta[i]>max_delta)max_delta=delta[i];
 1621              		.loc 6 454 13 is_stmt 1 view .LVU521
 451:src/main.cpp  ****             delta[i]=(int32_t)baseline[i]-(int32_t)data[i];
 1622              		.loc 6 451 22 is_stmt 0 view .LVU522
 1623 041c 01F10401 		add	r1, r1, #4
 1624 0420 B8BF     		it	lt
 1625 0422 1C46     		movlt	r4, r3
 1626              	.LVL128:
 451:src/main.cpp  ****             delta[i]=(int32_t)baseline[i]-(int32_t)data[i];
 1627              		.loc 6 451 9 is_stmt 1 view .LVU523
 451:src/main.cpp  ****             delta[i]=(int32_t)baseline[i]-(int32_t)data[i];
 1628              		.loc 6 451 22 view .LVU524
 1629 0424 9145     		cmp	r9, r2
 1630 0426 0ED0     		beq	.L491
 1631              	.LVL129:
 1632              	.L75:
 452:src/main.cpp  ****             delta[i]=(int32_t)baseline[i]-(int32_t)data[i];
 1633              		.loc 6 452 13 view .LVU525
 453:src/main.cpp  ****             if(delta[i]<0)delta[i]=0;
 1634              		.loc 6 453 13 view .LVU526
 453:src/main.cpp  ****             if(delta[i]<0)delta[i]=0;
 1635              		.loc 6 453 27 view .LVU527
 452:src/main.cpp  ****             delta[i]=(int32_t)baseline[i]-(int32_t)data[i];
 1636              		.loc 6 452 41 is_stmt 0 view .LVU528
 1637 0428 32F8023B 		ldrh	r3, [r2], #2
 453:src/main.cpp  ****             if(delta[i]<0)delta[i]=0;
 1638              		.loc 6 453 35 view .LVU529
 1639 042c 0026     		movs	r6, #0
 452:src/main.cpp  ****             delta[i]=(int32_t)baseline[i]-(int32_t)data[i];
 1640              		.loc 6 452 58 view .LVU530
 1641 042e 30F8025B 		ldrh	r5, [r0], #2
 453:src/main.cpp  ****             if(delta[i]<0)delta[i]=0;
 1642              		.loc 6 453 13 view .LVU531
 1643 0432 5B1B     		subs	r3, r3, r5
 1644 0434 F0D5     		bpl	.L492
 1645 0436 3346     		mov	r3, r6
 453:src/main.cpp  ****             if(delta[i]<0)delta[i]=0;
 1646              		.loc 6 453 35 discriminator 1 view .LVU532
 1647 0438 0E60     		str	r6, [r1]
 1648              		.loc 6 454 13 is_stmt 1 discriminator 1 view .LVU533
ARM GAS  /tmp/claude-502/cc2bPfvH.s 			page 69


 451:src/main.cpp  ****             delta[i]=(int32_t)baseline[i]-(int32_t)data[i];
 1649              		.loc 6 451 22 is_stmt 0 discriminator 1 view .LVU534
 1650 043a 0431     		adds	r1, r1, #4
 1651 043c 9C42     		cmp	r4, r3
 1652 043e B8BF     		it	lt
 1653 0440 1C46     		movlt	r4, r3
 1654              	.LVL130:
 451:src/main.cpp  ****             delta[i]=(int32_t)baseline[i]-(int32_t)data[i];
 1655              		.loc 6 451 9 is_stmt 1 discriminator 1 view .LVU535
 451:src/main.cpp  ****             delta[i]=(int32_t)baseline[i]-(int32_t)data[i];
 1656              		.loc 6 451 22 discriminator 1 view .LVU536
 1657 0442 9145     		cmp	r9, r2
 1658 0444 F0D1     		bne	.L75
 1659              	.L491:
 451:src/main.cpp  ****             delta[i]=(int32_t)baseline[i]-(int32_t)data[i];
 1660              		.loc 6 451 22 is_stmt 0 discriminator 1 view .LVU537
 1661              	.LBE708:
 455:src/main.cpp  ****         }
 456:src/main.cpp  **** 
 457:src/main.cpp  ****         int n_raw=detect_raw(delta,raw,MAX_FINGERS);
 1662              		.loc 6 457 9 is_stmt 1 view .LVU538
 1663              		.loc 6 457 29 is_stmt 0 view .LVU539
 1664 0446 0422     		movs	r2, #4
 1665 0448 1DEE901A 		vmov	r1, s27	@ int
 1666 044c 57A8     		add	r0, sp, #348
 1667 044e FFF7FEFF 		bl	_Z10detect_rawPlP6Fingeri
 1668              	.LVL131:
 1669 0452 0646     		mov	r6, r0
 1670              	.LVL132:
 458:src/main.cpp  ****         bool touching=(n_raw>0);
 1671              		.loc 6 458 9 is_stmt 1 view .LVU540
 459:src/main.cpp  **** 
 460:src/main.cpp  ****         // ŌöĆŌöĆ FSR voice-select gesture (hold FSR + tap/play the glass) ŌöĆŌöĆŌöĆŌöĆŌöĆŌöĆŌöĆŌöĆ
 461:src/main.cpp  ****         // ENTER: press the FSR fully (to the mute floor) with NO glass touch for
 462:src/main.cpp  ****         //   ENTER_MS. LEDs blink the current voice's position.
 463:src/main.cpp  ****         // PLAY/ADVANCE: with the FSR held, each GLASS TAP advances to the next
 464:src/main.cpp  ****         //   voice (wrapping, single blink); the voice then plays through the REAL
 465:src/main.cpp  ****         //   note path driven by your actual glass pressure/position, so every
 466:src/main.cpp  ****         //   filter/effect matches ŌĆö press for the Moog cutoff sweep, slide for
 467:src/main.cpp  ****         //   pitch, lift to release. The Drums kit plays a canned kick + snare
 468:src/main.cpp  ****         //   "one-two" instead.
 469:src/main.cpp  ****         // KEEP: release the FSR ŌåÆ persist + exit; the saved position blinks
 470:src/main.cpp  ****         //   NON-blocking, so you can start playing immediately.
 471:src/main.cpp  ****         {
 1672              		.loc 6 471 9 view .LVU541
 1673              	.LBB709:
 472:src/main.cpp  ****             uint32_t now = System::GetNow();
 1674              		.loc 6 472 13 view .LVU542
 1675              		.loc 6 472 42 is_stmt 0 view .LVU543
 1676 0454 FFF7FEFF 		bl	_ZN5daisy6System6GetNowEv
 1677              	.LVL133:
 1678              		.loc 6 472 42 view .LVU544
 1679 0458 0546     		mov	r5, r0
 1680              	.LVL134:
 473:src/main.cpp  ****             // Bridge brief touch dropouts so a flicker mid-slide isn't read as a
 474:src/main.cpp  ****             // lift + new tap (advancing unintentionally).
 475:src/main.cpp  ****             if(touching) touch_last_ms = now;
ARM GAS  /tmp/claude-502/cc2bPfvH.s 			page 70


 1681              		.loc 6 475 13 is_stmt 1 view .LVU545
 1682 045a 002E     		cmp	r6, #0
 1683 045c 40F34C85 		ble	.L493
 1684              		.loc 6 475 26 view .LVU546
 1685              	.LVL135:
 476:src/main.cpp  ****             bool held = touching || (int32_t)(now - touch_last_ms) < 60;
 1686              		.loc 6 476 13 view .LVU547
 477:src/main.cpp  **** 
 478:src/main.cpp  ****             if(sel_mode == 0){
 1687              		.loc 6 478 13 view .LVU548
 1688              	.LBB710:
 1689 0460 0F9B     		ldr	r3, [sp, #60]
 1690              	.LBE710:
 475:src/main.cpp  ****             bool held = touching || (int32_t)(now - touch_last_ms) < 60;
 1691              		.loc 6 475 40 is_stmt 0 view .LVU549
 1692 0462 1890     		str	r0, [sp, #96]
 1693              	.LBB899:
 1694              		.loc 6 478 13 view .LVU550
 1695 0464 002B     		cmp	r3, #0
 1696 0466 00F0BA86 		beq	.L349
 1697              	.LBE899:
 476:src/main.cpp  ****             bool held = touching || (int32_t)(now - touch_last_ms) < 60;
 1698              		.loc 6 476 34 view .LVU551
 1699 046a 0127     		movs	r7, #1
 1700              	.LVL136:
 1701              	.L277:
 1702              	.LBB900:
 1703              	.LBB711:
 479:src/main.cpp  ****                 if(full_state && !touching){
 480:src/main.cpp  ****                     if(full_since == 0) full_since = now;
 481:src/main.cpp  ****                     idle_since = now; last_touch_ms = now;   // freeze idle/rebaseline
 482:src/main.cpp  ****                     if(now - full_since >= VOICE_SELECT_ENTER_MS){
 483:src/main.cpp  ****                         sel_mode     = 1;
 484:src/main.cpp  ****                         g_amp_target = 0.0f;                 // silence any held note
 485:src/main.cpp  ****                         hw.PrintLine("[voice select] %s (%d/%d) - tap/slide glass; release FSR to k
 486:src/main.cpp  ****                                      VOICES[g_voice_idx].name, cycle_pos(g_voice_idx), cycle_total(
 487:src/main.cpp  ****                         blink_start(cycle_pos(g_voice_idx), now);  // blink the current voice numbe
 488:src/main.cpp  ****                     }
 489:src/main.cpp  ****                 } else {
 490:src/main.cpp  ****                     full_since = 0;                          // touched or not full ŌåÆ disarm
 491:src/main.cpp  ****                 }
 492:src/main.cpp  ****             } else {
 493:src/main.cpp  ****                 idle_since = now; last_touch_ms = now;       // freeze idle while selecting
 1704              		.loc 6 493 17 is_stmt 1 view .LVU552
 1705              		.loc 6 493 35 view .LVU553
 494:src/main.cpp  ****                 g_master_vol = 0.85f;                        // monitor level (the FSR mutes)
 1706              		.loc 6 494 17 view .LVU554
 1707              		.loc 6 494 30 is_stmt 0 view .LVU555
 1708 046c CC4B     		ldr	r3, .L531
 1709 046e CD4A     		ldr	r2, .L531+4
 1710 0470 1360     		str	r3, [r2]	@ float
 495:src/main.cpp  ****                 if(!full_state){
 1711              		.loc 6 495 17 is_stmt 1 view .LVU556
 1712              	.LBB712:
 1713 0472 0A9B     		ldr	r3, [sp, #40]
 1714 0474 002B     		cmp	r3, #0
 1715 0476 01F06182 		beq	.L494
ARM GAS  /tmp/claude-502/cc2bPfvH.s 			page 71


 1716              	.LBB713:
 496:src/main.cpp  ****                     // FSR released ŌåÆ keep the shown voice (persist) and exit. The
 497:src/main.cpp  ****                     // saved-position blink is NON-blocking (driven from the LED
 498:src/main.cpp  ****                     // section) so playing isn't stalled.
 499:src/main.cpp  ****                     storage.GetSettings().voice_idx = g_voice_idx;
 500:src/main.cpp  ****                     storage.Save();                          // writes QSPI only if changed
 501:src/main.cpp  ****                     hw.PrintLine("[voice kept %d/%d] %s",
 502:src/main.cpp  ****                                  cycle_pos(g_voice_idx), cycle_total(), VOICES[g_voice_idx].name);
 503:src/main.cpp  ****                     drum2_at = 0;
 504:src/main.cpp  ****                     sel_mode = 0; full_since = 0;
 505:src/main.cpp  ****                     blink_start(cycle_pos(g_voice_idx), now); // confirm saved voice (non-blocking)
 506:src/main.cpp  ****                 } else {
 507:src/main.cpp  ****                     bool tap = held && !prev_held &&
 1717              		.loc 6 507 21 view .LVU557
 1718              		.loc 6 507 40 is_stmt 0 view .LVU558
 1719 047a 0C9B     		ldr	r3, [sp, #48]
 1720 047c 83F00103 		eor	r3, r3, #1
 1721              		.loc 6 507 51 view .LVU559
 1722 0480 3B40     		ands	r3, r7, r3
 1723 0482 0C93     		str	r3, [sp, #48]
 1724              	.LVL137:
 1725              		.loc 6 507 51 view .LVU560
 1726 0484 00F00887 		beq	.L99
 508:src/main.cpp  ****                                (int32_t)(now - last_tap_ms) >= (int32_t)VOICE_SELECT_TAP_GAP_MS;
 1727              		.loc 6 508 46 discriminator 1 view .LVU561
 1728 0488 1C9B     		ldr	r3, [sp, #112]
 1729 048a EB1A     		subs	r3, r5, r3
 507:src/main.cpp  ****                                (int32_t)(now - last_tap_ms) >= (int32_t)VOICE_SELECT_TAP_GAP_MS;
 1730              		.loc 6 507 51 discriminator 1 view .LVU562
 1731 048c 952B     		cmp	r3, #149
 509:src/main.cpp  ****                     if(tap){
 510:src/main.cpp  ****                         // glass tap (debounced rising edge) ŌåÆ advance one voice (wraps)
 511:src/main.cpp  ****                         last_tap_ms = now;
 512:src/main.cpp  ****                         g_voice_idx = cycle_next(g_voice_idx);
 1732              		.loc 6 512 49 discriminator 1 view .LVU563
 1733 048e C64B     		ldr	r3, .L531+8
 507:src/main.cpp  ****                                (int32_t)(now - last_tap_ms) >= (int32_t)VOICE_SELECT_TAP_GAP_MS;
 1734              		.loc 6 507 51 discriminator 1 view .LVU564
 1735 0490 01F30683 		bgt	.L495
 513:src/main.cpp  ****                         hw.PrintLine("[voice %d/%d] %s",
 514:src/main.cpp  ****                                      cycle_pos(g_voice_idx), cycle_total(), VOICES[g_voice_idx].nam
 515:src/main.cpp  ****                         blink_start(1, now);                 // single blink per advance
 516:src/main.cpp  ****                     }
 517:src/main.cpp  ****                     if(!VOICE_PREVIEW_ENABLED){
 1736              		.loc 6 517 21 is_stmt 1 view .LVU565
 518:src/main.cpp  ****                         g_finger_on = false; g_amp_target = 0.0f;   // silent cycling
 519:src/main.cpp  ****                         prev_held = held;
 520:src/main.cpp  ****                         blink_tick(now); System::Delay(CONTROL_DELAY_MS); continue;
 521:src/main.cpp  ****                     }
 522:src/main.cpp  ****                     if(g_voice_idx == MULTI_IDX){
 1737              		.loc 6 522 21 view .LVU566
 1738              		.loc 6 522 36 is_stmt 0 view .LVU567
 1739 0494 1B68     		ldr	r3, [r3]
 1740              		.loc 6 522 21 view .LVU568
 1741 0496 0C2B     		cmp	r3, #12
 1742 0498 01F06F83 		beq	.L109
 1743              	.LVL138:
ARM GAS  /tmp/claude-502/cc2bPfvH.s 			page 72


 1744              	.L98:
 1745              		.loc 6 522 21 view .LVU569
 1746              	.LBE713:
 1747              	.LBE712:
 1748              	.LBE711:
 1749              	.LBE900:
 523:src/main.cpp  ****                         // Drums kit: a tap fires a kick + snare "one-two" (one-shots).
 524:src/main.cpp  ****                         if(tap){
 525:src/main.cpp  ****                             g_finger_on = false; g_amp_target = 0.0f;   // hush mono
 526:src/main.cpp  ****                             preview_drum(0, MULTI_ZONES[0]);
 527:src/main.cpp  ****                             drum2_at = now + 150;
 528:src/main.cpp  ****                         }
 529:src/main.cpp  ****                         if(drum2_at && (int32_t)(now - drum2_at) >= 0){
 530:src/main.cpp  ****                             preview_drum(1, MULTI_ZONES[1]);            // delayed snare
 531:src/main.cpp  ****                             drum2_at = 0;
 532:src/main.cpp  ****                         }
 533:src/main.cpp  ****                         prev_held = held;
 534:src/main.cpp  ****                         blink_tick(now); System::Delay(CONTROL_DELAY_MS); continue;
 535:src/main.cpp  ****                     }
 536:src/main.cpp  ****                     // Mono voice: fall through to the REAL note path below (pressure
 537:src/main.cpp  ****                     // pinned to 100%) ŌĆö the preview is the actual voice, all effects.
 538:src/main.cpp  ****                 }
 539:src/main.cpp  ****             }
 540:src/main.cpp  ****             prev_held = held;   // for next loop's tap edge detection
 1750              		.loc 6 540 13 is_stmt 1 view .LVU570
 1751              		.loc 6 540 13 is_stmt 0 view .LVU571
 1752              	.LBE709:
 541:src/main.cpp  ****         }
 542:src/main.cpp  **** 
 543:src/main.cpp  ****         // ŌöĆŌöĆ Auto-rebaseline ŌöĆŌöĆŌöĆŌöĆŌöĆŌöĆŌöĆŌöĆŌöĆŌöĆŌöĆŌöĆŌöĆŌöĆŌöĆŌöĆŌöĆŌöĆŌöĆŌöĆŌöĆŌö
 544:src/main.cpp  ****         if(touching){
 1753              		.loc 6 544 9 is_stmt 1 view .LVU572
 1754 049c 002E     		cmp	r6, #0
 1755 049e 40F30487 		ble	.L496
 1756              	.LVL139:
 1757              	.L276:
 545:src/main.cpp  ****             idle_since=System::GetNow();
 1758              		.loc 6 545 13 view .LVU573
 1759              		.loc 6 545 38 is_stmt 0 view .LVU574
 1760 04a2 FFF7FEFF 		bl	_ZN5daisy6System6GetNowEv
 1761              	.LVL140:
 1762 04a6 1790     		str	r0, [sp, #92]
 1763              	.LVL141:
 546:src/main.cpp  ****         } else {
 547:src/main.cpp  ****             if(System::GetNow()-idle_since>=REBASELINE_IDLE_MS){
 548:src/main.cpp  ****                 tracked[0].alive=tracked[1].alive=false;
 549:src/main.cpp  ****                 capture_baseline(baseline);
 550:src/main.cpp  ****                 hw.PrintLine("[rebaseline]");
 551:src/main.cpp  ****                 idle_since=System::GetNow();
 552:src/main.cpp  ****             }
 553:src/main.cpp  ****         }
 554:src/main.cpp  **** 
 555:src/main.cpp  ****         // ŌöĆŌöĆ 5 s idle ŌåÆ chase + FSR recalibration, loops until touch ŌöĆŌöĆŌöĆŌöĆŌöĆŌöĆŌöĆŌö
 556:src/main.cpp  ****         if(touching){
 1764              		.loc 6 556 9 is_stmt 1 view .LVU575
 557:src/main.cpp  ****             last_touch_ms = System::GetNow();
 1765              		.loc 6 557 13 view .LVU576
ARM GAS  /tmp/claude-502/cc2bPfvH.s 			page 73


 1766              		.loc 6 557 43 is_stmt 0 view .LVU577
 1767 04a8 FFF7FEFF 		bl	_ZN5daisy6System6GetNowEv
 1768              	.LVL142:
 1769              		.loc 6 557 43 view .LVU578
 1770 04ac 0E90     		str	r0, [sp, #56]
 1771              	.LVL143:
 1772              	.L116:
 558:src/main.cpp  ****         } else if(System::GetNow() - last_touch_ms >= 5000){
 559:src/main.cpp  ****             idle_chase_and_calibrate();
 560:src/main.cpp  ****             last_touch_ms = System::GetNow();
 561:src/main.cpp  ****             idle_since    = System::GetNow();
 562:src/main.cpp  ****             hw.PrintLine("[fsr recal] fsr_max=%d", (int)fsr_max);
 563:src/main.cpp  ****         }
 564:src/main.cpp  **** 
 565:src/main.cpp  ****         update_tracked(raw,n_raw);
 1773              		.loc 6 565 9 is_stmt 1 view .LVU579
 1774              		.loc 6 565 23 is_stmt 0 view .LVU580
 1775 04ae 3146     		mov	r1, r6
 1776 04b0 1DEE900A 		vmov	r0, s27	@ int
 1777 04b4 FFF7FEFF 		bl	_Z14update_trackedP6Fingeri
 1778              	.LVL144:
 566:src/main.cpp  **** 
 567:src/main.cpp  ****         // ŌöĆŌöĆ Finger 1 ŌåÆ Pitch + Filter cutoff + Vibrato ŌöĆŌöĆŌöĆŌöĆŌöĆŌöĆŌöĆŌöĆŌöĆŌöĆŌöĆŌöĆ
 568:src/main.cpp  ****         bool f1_on = tracked[0].alive;
 1779              		.loc 6 568 9 is_stmt 1 view .LVU581
 1780              		.loc 6 568 14 is_stmt 0 view .LVU582
 1781 04b8 9AF80030 		ldrb	r3, [r10]	@ zero_extendqisi2
 1782 04bc 0793     		str	r3, [sp, #28]
 1783              	.LVL145:
 569:src/main.cpp  ****         if(f1_on) f1_last_seen_ms = System::GetNow();
 1784              		.loc 6 569 9 is_stmt 1 view .LVU583
 1785 04be 002B     		cmp	r3, #0
 1786 04c0 40F0D985 		bne	.L497
 1787              	.LVL146:
 1788              	.L145:
 570:src/main.cpp  ****         bool f1_fresh = !f1_was_on && (System::GetNow() - f1_last_seen_ms >= F1_REQUANTIZE_MS);
 1789              		.loc 6 570 9 view .LVU584
 1790              		.loc 6 570 36 is_stmt 0 view .LVU585
 1791 04c4 089B     		ldr	r3, [sp, #32]
 1792 04c6 002B     		cmp	r3, #0
 1793 04c8 00F0CA85 		beq	.L498
 1794 04cc 0023     		movs	r3, #0
 1795 04ce 1193     		str	r3, [sp, #68]
 1796              	.L146:
 1797              	.LVL147:
 571:src/main.cpp  **** 
 572:src/main.cpp  ****         // ŌöĆŌöĆ MultiVoice routing ŌöĆŌöĆŌöĆŌöĆŌöĆŌöĆŌöĆŌöĆŌöĆŌöĆŌöĆŌöĆŌöĆŌöĆŌöĆŌöĆŌöĆŌöĆŌöĆŌöĆŌö
 573:src/main.cpp  ****         // Drums mode is polyphonic: each of up to 4 fingers drives its own drum
 574:src/main.cpp  ****         // slot ŌĆö a fresh touch triggers the zone's drum (pitch from the fine
 575:src/main.cpp  ****         // position), lifting it releases that slot. The mono engine is held
 576:src/main.cpp  ****         // silent. Other voices stay monophonic and use the finger-1 path below.
 577:src/main.cpp  ****         bool multi = (g_voice_idx == MULTI_IDX);
 1798              		.loc 6 577 9 is_stmt 1 discriminator 6 view .LVU586
 1799              		.loc 6 577 35 is_stmt 0 discriminator 6 view .LVU587
 1800 04d0 B54A     		ldr	r2, .L531+8
 1801 04d2 1368     		ldr	r3, [r2]
 578:src/main.cpp  ****         if(!multi) g_active_voice = g_voice_idx;
ARM GAS  /tmp/claude-502/cc2bPfvH.s 			page 74


 1802              		.loc 6 578 9 discriminator 6 view .LVU588
 1803 04d4 0C2B     		cmp	r3, #12
 577:src/main.cpp  ****         if(!multi) g_active_voice = g_voice_idx;
 1804              		.loc 6 577 35 discriminator 6 view .LVU589
 1805 04d6 0693     		str	r3, [sp, #24]
 1806              	.LVL148:
 1807              		.loc 6 578 9 is_stmt 1 discriminator 6 view .LVU590
 1808 04d8 02D0     		beq	.L147
 1809              		.loc 6 578 20 discriminator 1 view .LVU591
 1810              		.loc 6 578 35 is_stmt 0 discriminator 1 view .LVU592
 1811 04da 1368     		ldr	r3, [r2]
 1812              	.LVL149:
 1813              		.loc 6 578 35 discriminator 1 view .LVU593
 1814 04dc B34A     		ldr	r2, .L531+12
 1815 04de 1360     		str	r3, [r2]
 1816              	.L147:
 579:src/main.cpp  **** 
 580:src/main.cpp  ****         // ŌöĆŌöĆ Re-attack detector (all fingers, with lift debounce) ŌöĆŌöĆŌöĆŌöĆŌöĆŌöĆŌöĆŌöĆŌöĆŌ
 581:src/main.cpp  ****         // deb_alive[] = alive after debouncing brief dropouts. A debounced
 582:src/main.cpp  ****         // rising edge is a genuine tap (fires with NO limit); a sharp pressure
 583:src/main.cpp  ****         // rise while held re-attacks (rate-limited by retrig_ms).
 584:src/main.cpp  ****         bool     reatk[MAX_FINGERS] = {};
 1817              		.loc 6 584 9 is_stmt 1 view .LVU594
 1818              		.loc 6 584 18 is_stmt 0 view .LVU595
 1819 04e0 0023     		movs	r3, #0
 1820 04e2 2FAF     		add	r7, sp, #188
 1821 04e4 2BAE     		add	r6, sp, #172
 1822 04e6 22AD     		add	r5, sp, #136
 1823 04e8 2393     		str	r3, [sp, #140]
 585:src/main.cpp  ****         bool     deb_alive[MAX_FINGERS] = {};
 1824              		.loc 6 585 9 is_stmt 1 view .LVU596
 1825              		.loc 6 585 18 is_stmt 0 view .LVU597
 1826 04ea 4993     		str	r3, [sp, #292]
 586:src/main.cpp  ****         uint32_t now_ms = System::GetNow();
 1827              		.loc 6 586 9 is_stmt 1 view .LVU598
 1828 04ec B04B     		ldr	r3, .L531+16
 1829 04ee 1693     		str	r3, [sp, #88]
 1830              		.loc 6 586 41 is_stmt 0 view .LVU599
 1831 04f0 FFF7FEFF 		bl	_ZN5daisy6System6GetNowEv
 1832              	.LVL150:
 1833 04f4 23AA     		add	r2, sp, #140
 1834 04f6 AE4B     		ldr	r3, .L531+16
 1835 04f8 8646     		mov	lr, r0
 1836              	.LVL151:
 587:src/main.cpp  ****         for(int i = 0; i < MAX_FINGERS; i++){
 1837              		.loc 6 587 9 is_stmt 1 view .LVU600
 1838              	.LBB914:
 1839              		.loc 6 587 26 view .LVU601
 1840 04fa 49A9     		add	r1, sp, #292
 1841 04fc 1592     		str	r2, [sp, #84]
 1842              	.LBE914:
 586:src/main.cpp  ****         uint32_t now_ms = System::GetNow();
 1843              		.loc 6 586 41 is_stmt 0 view .LVU602
 1844 04fe 0DF18C0C 		add	ip, sp, #140
 1845 0502 27AA     		add	r2, sp, #156
 1846 0504 9A46     		mov	r10, r3
 1847 0506 0B94     		str	r4, [sp, #44]
ARM GAS  /tmp/claude-502/cc2bPfvH.s 			page 75


 1848 0508 0497     		str	r7, [sp, #16]
 1849              	.LVL152:
 1850              	.L159:
 1851              	.LBB940:
 1852              	.LBB915:
 588:src/main.cpp  ****             bool raw = tracked[i].alive;
 1853              		.loc 6 588 13 is_stmt 1 view .LVU603
 1854              		.loc 6 588 18 is_stmt 0 view .LVU604
 1855 050a 1878     		ldrb	r0, [r3]	@ zero_extendqisi2
 1856              	.LVL153:
 589:src/main.cpp  ****             if(raw) hit_last_alive[i] = now_ms;
 1857              		.loc 6 589 13 is_stmt 1 view .LVU605
 1858 050c 0028     		cmp	r0, #0
 1859 050e 00F04684 		beq	.L148
 1860              		.loc 6 589 21 discriminator 1 view .LVU606
 590:src/main.cpp  ****             // Bridge sub-TAP_GAP_MS dropouts so a flicker isn't seen as a lift.
 591:src/main.cpp  ****             bool deb = raw || (int32_t)(now_ms - hit_last_alive[i]) < (int32_t)TAP_GAP_MS;
 592:src/main.cpp  ****             deb_alive[i] = deb;
 1861              		.loc 6 592 26 is_stmt 0 discriminator 1 view .LVU607
 1862 0512 0124     		movs	r4, #1
 589:src/main.cpp  ****             if(raw) hit_last_alive[i] = now_ms;
 1863              		.loc 6 589 39 discriminator 1 view .LVU608
 1864 0514 C2F800E0 		str	lr, [r2]
 591:src/main.cpp  ****             deb_alive[i] = deb;
 1865              		.loc 6 591 13 is_stmt 1 discriminator 1 view .LVU609
 1866              	.LVL154:
 1867              		.loc 6 592 13 discriminator 1 view .LVU610
 1868              		.loc 6 592 26 is_stmt 0 discriminator 1 view .LVU611
 1869 0518 0C70     		strb	r4, [r1]
 593:src/main.cpp  ****             if(!deb) continue;                              // truly lifted
 1870              		.loc 6 593 13 is_stmt 1 discriminator 1 view .LVU612
 594:src/main.cpp  **** 
 595:src/main.cpp  ****             int vidx;
 1871              		.loc 6 595 13 discriminator 1 view .LVU613
 596:src/main.cpp  ****             if(multi){
 1872              		.loc 6 596 13 discriminator 1 view .LVU614
 1873              	.LBB916:
 1874 051a 069C     		ldr	r4, [sp, #24]
 1875 051c 0C2C     		cmp	r4, #12
 1876 051e 00F04984 		beq	.L499
 1877              	.L151:
 597:src/main.cpp  ****                 int z = (int)(clampf((float)tracked[i].pos/1000.0f,0.0f,1.0f) * 4.0f);
 598:src/main.cpp  ****                 if(z > 3) z = 3; vidx = MULTI_ZONES[z];
 599:src/main.cpp  ****             } else vidx = g_active_voice;
 1878              		.loc 6 599 20 view .LVU615
 1879              		.loc 6 599 25 is_stmt 0 view .LVU616
 1880 0522 A24C     		ldr	r4, .L531+12
 1881              	.LBE916:
 600:src/main.cpp  ****             float rms = VOICES[vidx].retrig_ms;
 1882              		.loc 6 600 19 view .LVU617
 1883 0524 4FF09408 		mov	r8, #148
 1884 0528 059F     		ldr	r7, [sp, #20]
 1885              	.LBB926:
 599:src/main.cpp  ****             float rms = VOICES[vidx].retrig_ms;
 1886              		.loc 6 599 25 view .LVU618
 1887 052a 2468     		ldr	r4, [r4]
 1888              	.LVL155:
ARM GAS  /tmp/claude-502/cc2bPfvH.s 			page 76


 599:src/main.cpp  ****             float rms = VOICES[vidx].retrig_ms;
 1889              		.loc 6 599 25 view .LVU619
 1890              	.LBE926:
 1891              		.loc 6 600 19 view .LVU620
 1892 052c 08FB0474 		mla	r4, r8, r4, r7
 1893              	.LVL156:
 1894              		.loc 6 600 19 view .LVU621
 1895 0530 94ED217A 		vldr.32	s14, [r4, #132]
 1896              	.L153:
 1897              		.loc 6 600 13 is_stmt 1 view .LVU622
 1898              	.LVL157:
 601:src/main.cpp  ****             float prs = (float)tracked[i].pressure;
 1899              		.loc 6 601 13 view .LVU623
 1900              		.loc 6 601 19 is_stmt 0 view .LVU624
 1901 0534 D3ED027A 		vldr.32	s15, [r3, #8]	@ int
 1902              	.LBB927:
 602:src/main.cpp  **** 
 603:src/main.cpp  ****             if(!hit_was_alive[i]){
 1903              		.loc 6 603 13 view .LVU625
 1904 0538 2C78     		ldrb	r4, [r5]	@ zero_extendqisi2
 1905              	.LBE927:
 601:src/main.cpp  ****             float prs = (float)tracked[i].pressure;
 1906              		.loc 6 601 19 view .LVU626
 1907 053a F8EEE77A 		vcvt.f32.s32	s15, s15
 1908              	.LVL158:
 1909              		.loc 6 603 13 is_stmt 1 view .LVU627
 1910              	.LBB930:
 1911 053e 002C     		cmp	r4, #0
 1912 0540 40F06784 		bne	.L154
 1913              	.L512:
 604:src/main.cpp  ****                 // Genuine new tap (after a real lift) ŌĆö fire immediately, no cap.
 605:src/main.cpp  ****                 prs_sm[i] = prs; reatk[i] = true; last_retrig[i] = now_ms;
 1914              		.loc 6 605 17 view .LVU628
 1915              		.loc 6 605 66 is_stmt 0 view .LVU629
 1916 0544 0498     		ldr	r0, [sp, #16]
 1917              	.LVL159:
 1918              		.loc 6 605 27 view .LVU630
 1919 0546 C6ED007A 		vstr.32	s15, [r6]
 1920              		.loc 6 605 34 is_stmt 1 view .LVU631
 1921              		.loc 6 605 66 is_stmt 0 view .LVU632
 1922 054a C0F800E0 		str	lr, [r0]
 1923              		.loc 6 605 43 view .LVU633
 1924 054e 0120     		movs	r0, #1
 1925 0550 8CF80000 		strb	r0, [ip]
 1926              		.loc 6 605 51 is_stmt 1 view .LVU634
 1927              	.LVL160:
 1928              	.L150:
 1929              		.loc 6 605 51 is_stmt 0 view .LVU635
 1930              	.LBE930:
 1931              	.LBE915:
 587:src/main.cpp  ****             bool raw = tracked[i].alive;
 1932              		.loc 6 587 9 is_stmt 1 discriminator 2 view .LVU636
 587:src/main.cpp  ****             bool raw = tracked[i].alive;
 1933              		.loc 6 587 26 discriminator 2 view .LVU637
 1934 0554 0498     		ldr	r0, [sp, #16]
 1935 0556 1433     		adds	r3, r3, #20
 1936 0558 0131     		adds	r1, r1, #1
ARM GAS  /tmp/claude-502/cc2bPfvH.s 			page 77


 1937              	.LVL161:
 587:src/main.cpp  ****             bool raw = tracked[i].alive;
 1938              		.loc 6 587 26 is_stmt 0 discriminator 2 view .LVU638
 1939 055a 0436     		adds	r6, r6, #4
 1940 055c 0430     		adds	r0, r0, #4
 1941 055e 0CF1010C 		add	ip, ip, #1
 1942 0562 0135     		adds	r5, r5, #1
 1943 0564 0432     		adds	r2, r2, #4
 1944 0566 0490     		str	r0, [sp, #16]
 1945 0568 9248     		ldr	r0, .L531+20
 1946 056a 9842     		cmp	r0, r3
 1947 056c CDD1     		bne	.L159
 1948              	.LBE940:
 1949              	.LBB941:
 606:src/main.cpp  ****             } else if(raw){
 607:src/main.cpp  ****                 // Held: re-attack on a sharp pressure rise, capped by retrig_ms.
 608:src/main.cpp  ****                 float prev = prs_sm[i];
 609:src/main.cpp  ****                 prs_sm[i] = prev*PRS_SMOOTH + prs*(1.0f - PRS_SMOOTH);
 610:src/main.cpp  ****                 if(rms > 0.0f && (prs_sm[i] - prev) > RISE_THRESH
 611:src/main.cpp  ****                    && (int32_t)(now_ms - last_retrig[i]) >= (int32_t)rms){
 612:src/main.cpp  ****                     reatk[i] = true; last_retrig[i] = now_ms;
 613:src/main.cpp  ****                 }
 614:src/main.cpp  ****             }
 615:src/main.cpp  ****         }
 616:src/main.cpp  **** 
 617:src/main.cpp  ****         if(multi){
 1950              		.loc 6 617 9 view .LVU639
 1951 056e 069B     		ldr	r3, [sp, #24]
 1952 0570 0B9C     		ldr	r4, [sp, #44]
 1953              	.LBE941:
 1954              		.loc 6 617 9 is_stmt 1 view .LVU640
 1955              	.LBB987:
 1956 0572 0C2B     		cmp	r3, #12
 1957 0574 00F0E686 		beq	.L500
 618:src/main.cpp  ****             // Poly drums: each finger drives its own slot.
 619:src/main.cpp  ****             for(int i = 0; i < POLY; i++){
 620:src/main.cpp  ****                 if(reatk[i])                                  trigger_drum(i, tracked[i].pos, track
 621:src/main.cpp  ****                 else if(!deb_alive[i] && hit_was_alive[i])    g_hits[i].gate = false;  // lifted Ōå
 622:src/main.cpp  ****             }
 623:src/main.cpp  ****             g_amp_target = 0.0f;   // mono engine silent; the poly drums play in the callback
 624:src/main.cpp  ****         } else {
 625:src/main.cpp  ****             // Mono: a re-attack mid-note re-articulates it (initial touch is
 626:src/main.cpp  ****             // handled by the amp gate below).
 627:src/main.cpp  ****             if(reatk[0] && hit_was_alive[0]) g_retrig = true;
 1958              		.loc 6 627 13 view .LVU641
 1959 0578 9DF88C30 		ldrb	r3, [sp, #140]	@ zero_extendqisi2
 1960 057c 2BB1     		cbz	r3, .L168
 1961              		.loc 6 627 25 is_stmt 0 discriminator 1 view .LVU642
 1962 057e 9DF88830 		ldrb	r3, [sp, #136]	@ zero_extendqisi2
 1963 0582 13B1     		cbz	r3, .L168
 1964              		.loc 6 627 46 is_stmt 1 discriminator 2 view .LVU643
 1965              		.loc 6 627 55 is_stmt 0 discriminator 2 view .LVU644
 1966 0584 0123     		movs	r3, #1
 1967 0586 8C4A     		ldr	r2, .L531+24
 1968 0588 1370     		strb	r3, [r2]
 1969              	.L168:
 1970              	.LVL162:
ARM GAS  /tmp/claude-502/cc2bPfvH.s 			page 78


 1971              		.loc 6 627 55 discriminator 2 view .LVU645
 1972              	.LBE987:
 1973              	.LBB988:
 628:src/main.cpp  ****         }
 629:src/main.cpp  **** 
 630:src/main.cpp  ****         for(int i = 0; i < MAX_FINGERS; i++) hit_was_alive[i] = deb_alive[i];
 1974              		.loc 6 630 26 is_stmt 1 view .LVU646
 1975              		.loc 6 630 46 view .LVU647
 1976              		.loc 6 630 63 is_stmt 0 view .LVU648
 1977 058a 9DF82431 		ldrb	r3, [sp, #292]	@ zero_extendqisi2
 1978 058e 8DF88830 		strb	r3, [sp, #136]
 1979              		.loc 6 630 9 is_stmt 1 view .LVU649
 1980              	.LVL163:
 1981              		.loc 6 630 26 view .LVU650
 1982              		.loc 6 630 46 view .LVU651
 1983              		.loc 6 630 63 is_stmt 0 view .LVU652
 1984 0592 9DF82531 		ldrb	r3, [sp, #293]	@ zero_extendqisi2
 1985 0596 8DF88930 		strb	r3, [sp, #137]
 1986              		.loc 6 630 9 is_stmt 1 view .LVU653
 1987              	.LVL164:
 1988              		.loc 6 630 26 view .LVU654
 1989              		.loc 6 630 46 view .LVU655
 1990              		.loc 6 630 63 is_stmt 0 view .LVU656
 1991 059a 9DF82631 		ldrb	r3, [sp, #294]	@ zero_extendqisi2
 1992 059e 8DF88A30 		strb	r3, [sp, #138]
 1993              		.loc 6 630 9 is_stmt 1 view .LVU657
 1994              	.LVL165:
 1995              		.loc 6 630 26 view .LVU658
 1996              		.loc 6 630 46 view .LVU659
 1997              		.loc 6 630 63 is_stmt 0 view .LVU660
 1998 05a2 9DF82731 		ldrb	r3, [sp, #295]	@ zero_extendqisi2
 1999 05a6 8DF88B30 		strb	r3, [sp, #139]
 2000              		.loc 6 630 9 is_stmt 1 view .LVU661
 2001              	.LVL166:
 2002              		.loc 6 630 26 view .LVU662
 2003              	.LBE988:
 631:src/main.cpp  **** 
 632:src/main.cpp  ****         // Bind the active voice (last-hit drum in MultiVoice mode) for finger-2 / header.
 633:src/main.cpp  ****         const Voice& VOICE = VOICES[g_active_voice];
 2004              		.loc 6 633 9 view .LVU663
 2005              		.loc 6 633 37 is_stmt 0 view .LVU664
 2006 05aa 804B     		ldr	r3, .L531+12
 2007 05ac 1D68     		ldr	r5, [r3]
 2008              	.LVL167:
 634:src/main.cpp  **** 
 635:src/main.cpp  ****         if(f1_on && !multi)
 2009              		.loc 6 635 9 is_stmt 1 view .LVU665
 2010              	.LBB989:
 2011 05ae 079B     		ldr	r3, [sp, #28]
 2012 05b0 002B     		cmp	r3, #0
 2013 05b2 00F04E85 		beq	.L501
 2014              	.LBB990:
 636:src/main.cpp  ****         {
 637:src/main.cpp  ****             float pos01 = clampf((float)tracked[0].pos / 1000.0f, 0.0f, 1.0f);
 2015              		.loc 6 637 13 view .LVU666
 2016              		.loc 6 637 34 is_stmt 0 view .LVU667
 2017 05b6 DAED017A 		vldr.32	s15, [r10, #4]	@ int
ARM GAS  /tmp/claude-502/cc2bPfvH.s 			page 79


 2018              		.loc 6 637 33 view .LVU668
 2019 05ba DFED806A 		vldr.32	s13, .L531+28
 2020              		.loc 6 637 34 view .LVU669
 2021 05be F8EEE77A 		vcvt.f32.s32	s15, s15
 2022              		.loc 6 637 33 view .LVU670
 2023 05c2 87EEA67A 		vdiv.f32	s14, s15, s13
 2024              	.LVL168:
 2025              	.LBB991:
 2026              	.LBI991:
 2027              		.file 9 "src/dsp.h"
   1:src/dsp.h     **** #pragma once
   2:src/dsp.h     **** // Pure DSP/math primitives ŌĆö no hardware, no global state (except moog()
   3:src/dsp.h     **** // which lives in the engine). Header-only & inline for the audio hot path.
   4:src/dsp.h     **** #include <math.h>
   5:src/dsp.h     **** 
   6:src/dsp.h     **** // Oscillator shape ŌĆö set per oscillator, so one voice can mix (e.g. saw root +
   7:src/dsp.h     **** // square fifth + sine sub). SQUARE and SAW are naive (not band-limited) ŌĆö they
   8:src/dsp.h     **** // alias at high pitch, but on a low bass voice that just reads as rich harmonics
   9:src/dsp.h     **** // for the filter to chew.
  10:src/dsp.h     **** enum Waveform { WAVE_TRI, WAVE_SINE, WAVE_SQUARE, WAVE_SAW };
  11:src/dsp.h     **** 
  12:src/dsp.h     **** static inline float clampf(float v,float lo,float hi){
 2028              		.loc 9 12 21 is_stmt 1 view .LVU671
 2029              	.LBB992:
  13:src/dsp.h     ****     return v<lo?lo:v>hi?hi:v;
 2030              		.loc 9 13 5 view .LVU672
 2031              		.loc 9 13 16 is_stmt 0 view .LVU673
 2032 05c6 B5EEC07A 		vcmpe.f32	s14, #0
 2033 05ca F1EE10FA 		vmrs	APSR_nzcv, FPSCR
 2034 05ce 00F11B86 		bmi	.L305
 2035              		.loc 9 13 24 view .LVU674
 2036 05d2 F7EE007A 		vmov.f32	s15, #1.0e+0
 2037 05d6 B4EE677A 		vcmp.f32	s14, s15
 2038 05da F1EE10FA 		vmrs	APSR_nzcv, FPSCR
 2039 05de 37FE877A 		vselgt.f32	s14, s15, s14
 2040              	.LVL169:
 2041              	.L169:
 2042              		.loc 9 13 24 view .LVU675
 2043              	.LBE992:
 2044              	.LBE991:
 638:src/main.cpp  ****             float prs01 = clampf((float)tracked[0].pressure / 100.0f, 0.0f, 1.0f); // hard clamp
 2045              		.loc 6 638 13 is_stmt 1 view .LVU676
 2046              		.loc 6 638 34 is_stmt 0 view .LVU677
 2047 05e2 DAED027A 		vldr.32	s15, [r10, #8]	@ int
 2048              		.loc 6 638 33 view .LVU678
 2049 05e6 DFED766A 		vldr.32	s13, .L531+32
 2050              		.loc 6 638 34 view .LVU679
 2051 05ea F8EEE77A 		vcvt.f32.s32	s15, s15
 2052              		.loc 6 638 33 view .LVU680
 2053 05ee 87EEA6BA 		vdiv.f32	s22, s15, s13
 2054              	.LVL170:
 2055              	.LBB994:
 2056              	.LBI994:
  12:src/dsp.h     ****     return v<lo?lo:v>hi?hi:v;
 2057              		.loc 9 12 21 is_stmt 1 view .LVU681
 2058              	.LBB995:
 2059              		.loc 9 13 5 view .LVU682
ARM GAS  /tmp/claude-502/cc2bPfvH.s 			page 80


 2060              		.loc 9 13 16 is_stmt 0 view .LVU683
 2061 05f2 B5EEC0BA 		vcmpe.f32	s22, #0
 2062 05f6 F1EE10FA 		vmrs	APSR_nzcv, FPSCR
 2063 05fa 00F10186 		bmi	.L307
 2064              		.loc 9 13 24 view .LVU684
 2065 05fe F7EE007A 		vmov.f32	s15, #1.0e+0
 2066 0602 B4EE67BA 		vcmp.f32	s22, s15
 2067 0606 F1EE10FA 		vmrs	APSR_nzcv, FPSCR
 2068 060a 37FE8BBA 		vselgt.f32	s22, s15, s22
 2069              	.LVL171:
 2070              	.L170:
 2071              		.loc 9 13 24 view .LVU685
 2072              	.LBE995:
 2073              	.LBE994:
 639:src/main.cpp  **** 
 640:src/main.cpp  ****             // ŌöĆŌöĆ Direct exponential frequency mapping across the voice range ŌöĆŌöĆ
 641:src/main.cpp  ****             // freq = freq_low * (freq_high/freq_low)^pos01
 642:src/main.cpp  ****             //      = freq_low * e^(pos01 * log_freq_ratio)
 643:src/main.cpp  ****             float earg = pos01 * VOICE.log_freq_ratio;
 2074              		.loc 6 643 13 is_stmt 1 view .LVU686
 2075              		.loc 6 643 40 is_stmt 0 view .LVU687
 2076 060e 9423     		movs	r3, #148
 2077 0610 059A     		ldr	r2, [sp, #20]
 644:src/main.cpp  ****             float ex   = 1.0f + earg*(1.0f + earg*(0.5f + earg*0.1667f));
 2078              		.loc 6 644 57 view .LVU688
 2079 0612 F6EE006A 		vmov.f32	s13, #5.0e-1
 2080 0616 9FED6B6A 		vldr.32	s12, .L531+36
 643:src/main.cpp  ****             float ex   = 1.0f + earg*(1.0f + earg*(0.5f + earg*0.1667f));
 2081              		.loc 6 643 40 view .LVU689
 2082 061a 03FB0523 		mla	r3, r3, r5, r2
 2083              		.loc 6 644 44 view .LVU690
 2084 061e F7EE007A 		vmov.f32	s15, #1.0e+0
 643:src/main.cpp  ****             float ex   = 1.0f + earg*(1.0f + earg*(0.5f + earg*0.1667f));
 2085              		.loc 6 643 19 view .LVU691
 2086 0622 D3ED035A 		vldr.32	s11, [r3, #12]
 645:src/main.cpp  ****             float freq_continuous = clampf(VOICE.freq_low * ex, VOICE.freq_low, VOICE.freq_high);
 2087              		.loc 6 645 50 view .LVU692
 2088 0626 D3ED01AA 		vldr.32	s21, [r3, #4]
 643:src/main.cpp  ****             float ex   = 1.0f + earg*(1.0f + earg*(0.5f + earg*0.1667f));
 2089              		.loc 6 643 19 view .LVU693
 2090 062a 27EE257A 		vmul.f32	s14, s14, s11
 2091              	.LVL172:
 644:src/main.cpp  ****             float ex   = 1.0f + earg*(1.0f + earg*(0.5f + earg*0.1667f));
 2092              		.loc 6 644 13 is_stmt 1 view .LVU694
 2093              		.loc 6 645 87 is_stmt 0 view .LVU695
 2094 062e D3ED02BA 		vldr.32	s23, [r3, #8]
 644:src/main.cpp  ****             float ex   = 1.0f + earg*(1.0f + earg*(0.5f + earg*0.1667f));
 2095              		.loc 6 644 57 view .LVU696
 2096 0632 E7EE066A 		vfma.f32	s13, s14, s12
 644:src/main.cpp  ****             float ex   = 1.0f + earg*(1.0f + earg*(0.5f + earg*0.1667f));
 2097              		.loc 6 644 44 view .LVU697
 2098 0636 B0EE676A 		vmov.f32	s12, s15
 2099 063a A6EE876A 		vfma.f32	s12, s13, s14
 644:src/main.cpp  ****             float ex   = 1.0f + earg*(1.0f + earg*(0.5f + earg*0.1667f));
 2100              		.loc 6 644 19 view .LVU698
 2101 063e E6EE077A 		vfma.f32	s15, s12, s14
 2102              	.LVL173:
ARM GAS  /tmp/claude-502/cc2bPfvH.s 			page 81


 2103              		.loc 6 645 13 is_stmt 1 view .LVU699
 2104              		.loc 6 645 43 is_stmt 0 view .LVU700
 2105 0642 6AEEA77A 		vmul.f32	s15, s21, s15
 2106              	.LVL174:
 2107              	.LBB997:
 2108              	.LBI997:
  12:src/dsp.h     ****     return v<lo?lo:v>hi?hi:v;
 2109              		.loc 9 12 21 is_stmt 1 view .LVU701
 2110              	.LBB998:
 2111              		.loc 9 13 5 view .LVU702
 2112              		.loc 9 13 16 is_stmt 0 view .LVU703
 2113 0646 F4EEE7AA 		vcmpe.f32	s21, s15
 2114 064a F1EE10FA 		vmrs	APSR_nzcv, FPSCR
 2115 064e 00F3F285 		bgt	.L309
 2116              		.loc 9 13 24 view .LVU704
 2117 0652 F4EE6B7A 		vcmp.f32	s15, s23
 2118 0656 F1EE10FA 		vmrs	APSR_nzcv, FPSCR
 2119 065a 7BFEA77A 		vselgt.f32	s15, s23, s15
 2120              	.LVL175:
 2121              	.L171:
 2122              		.loc 9 13 24 view .LVU705
 2123              	.LBE998:
 2124              	.LBE997:
 646:src/main.cpp  **** 
 647:src/main.cpp  ****             // Convert to MIDI for quantizer: midi = 69 + 12*log2(freq/440)
 648:src/main.cpp  ****             // log2(x) = ln(x)/ln(2); ln approx via y=(x-1)/(x+1) series
 649:src/main.cpp  ****             float freq_ratio = freq_continuous / 440.0f;
 2125              		.loc 6 649 13 is_stmt 1 view .LVU706
 650:src/main.cpp  ****             float y = (freq_ratio - 1.0f) / (freq_ratio + 1.0f);
 2126              		.loc 6 650 13 view .LVU707
 651:src/main.cpp  ****             float y2 = y*y;
 2127              		.loc 6 651 13 view .LVU708
 652:src/main.cpp  ****             float ln_ratio = 2.0f*y*(1.0f + y2*(0.3333f + y2*0.2f));
 2128              		.loc 6 652 13 view .LVU709
 653:src/main.cpp  ****             float midi_raw = 69.0f + 17.3123f * ln_ratio; // 17.3123 = 12/ln(2)
 2129              		.loc 6 653 13 view .LVU710
 654:src/main.cpp  **** 
 655:src/main.cpp  ****             float freq; // final frequency to use
 2130              		.loc 6 655 13 view .LVU711
 656:src/main.cpp  **** 
 657:src/main.cpp  ****             if(QUANTIZE_ENABLED && VOICE.quantize && f1_fresh)
 2131              		.loc 6 657 13 view .LVU712
 2132              	.LBB1000:
 2133              		.loc 6 657 42 is_stmt 0 view .LVU713
 2134 065e 059A     		ldr	r2, [sp, #20]
 2135 0660 9423     		movs	r3, #148
 2136 0662 03FB0523 		mla	r3, r3, r5, r2
 2137              		.loc 6 657 51 view .LVU714
 2138 0666 93F88820 		ldrb	r2, [r3, #136]	@ zero_extendqisi2
 2139 066a 1AB1     		cbz	r2, .L172
 2140 066c 119A     		ldr	r2, [sp, #68]
 2141 066e 002A     		cmp	r2, #0
 2142 0670 41F0C280 		bne	.L502
 2143              	.LVL176:
 2144              	.L172:
 2145              		.loc 6 657 51 view .LVU715
 2146              	.LBE1000:
ARM GAS  /tmp/claude-502/cc2bPfvH.s 			page 82


 658:src/main.cpp  ****             {
 659:src/main.cpp  ****                 // Touch-down: snap to nearest chromatic note
 660:src/main.cpp  ****                 f1_midi_base = quantize_midi(midi_raw, VOICE.scale, VOICE.scale_len);
 661:src/main.cpp  ****                 // Convert quantized MIDI back to Hz
 662:src/main.cpp  ****                 float qe = (f1_midi_base - 69.0f) * 0.05776f;
 663:src/main.cpp  ****                 freq = clampf(440.0f*(1.0f+qe*(1.0f+qe*(0.5f+qe*0.1667f))), VOICE.freq_low, VOICE.f
 664:src/main.cpp  ****                 f1_sliding = false;
 665:src/main.cpp  ****             }
 666:src/main.cpp  ****             else
 667:src/main.cpp  ****             {
 668:src/main.cpp  ****                 // Sliding or quantize disabled: follow continuous frequency directly
 669:src/main.cpp  ****                 f1_midi_base = f1_midi_base*0.88f + midi_raw*0.12f;
 670:src/main.cpp  ****                 freq = freq_continuous;
 671:src/main.cpp  ****                 f1_sliding = true;
 672:src/main.cpp  ****             }
 673:src/main.cpp  ****             freq = clampf(freq, VOICE.freq_low, VOICE.freq_high);
 2147              		.loc 6 673 13 is_stmt 1 view .LVU716
 2148              	.LBB1010:
 2149              	.LBI1010:
  12:src/dsp.h     ****     return v<lo?lo:v>hi?hi:v;
 2150              		.loc 9 12 21 view .LVU717
 2151              	.LBB1011:
 2152              		.loc 9 13 5 view .LVU718
 2153              		.loc 9 13 16 is_stmt 0 view .LVU719
 2154 0674 F4EEE7AA 		vcmpe.f32	s21, s15
 2155 0678 F1EE10FA 		vmrs	APSR_nzcv, FPSCR
 2156 067c 40F3CA85 		ble	.L173
 2157              	.LBE1011:
 2158              	.LBE1010:
 2159              	.LBB1015:
 2160              	.LBB1016:
 674:src/main.cpp  **** 
 675:src/main.cpp  ****             // Cutoff: base tracks 2├Ś pitch, pressure opens it up
 676:src/main.cpp  ****             // Light press = 1├Ś pitch (dark, Moog-like tracking)
 677:src/main.cpp  ****             // Hard press = up to 12000 Hz (wide open)
 678:src/main.cpp  ****             // ŌöĆŌöĆ Moog-style exponential cutoff ŌöĆŌöĆŌöĆŌöĆŌöĆŌöĆŌöĆŌöĆŌöĆŌöĆŌöĆŌöĆŌöĆŌöĆŌöĆŌö
 679:src/main.cpp  ****             // At zero pressure: cutoff = 0.5x pitch (below fundamental, very dark)
 680:src/main.cpp  ****             // At full pressure: cutoff = 0.5x * 2^(6*prs) ŌĆö exponential opening
 681:src/main.cpp  ****             // 6 octaves of sweep = factor of 64x, so fully open = 32x pitch
 682:src/main.cpp  ****             // This gives the classic Moog "closed ŌåÆ wah ŌåÆ bright" feel.
 683:src/main.cpp  ****             // Power-3 on pressure so the bottom half stays dark and controlled.
 684:src/main.cpp  ****             // ŌöĆŌöĆ Smootherstep pressure curves (6xŌüĄ - 15xŌü┤ + 10x┬│) ŌöĆŌöĆŌöĆŌöĆŌöĆŌöĆŌöĆŌö
 685:src/main.cpp  ****             // Starts slow, steep in the middle, eases gently at the top.
 686:src/main.cpp  ****             // Much more playable than power curves ŌĆö feels like a real knob.
 687:src/main.cpp  ****             auto smoothstep = [](float x) -> float {
 688:src/main.cpp  ****                 x = x<0?0:x>1?1:x;
 689:src/main.cpp  ****                 return x*x*(3.0f - 2.0f*x);
 690:src/main.cpp  ****             };
 691:src/main.cpp  ****             auto smootherstep = [](float x) -> float {
 692:src/main.cpp  ****                 x = x<0?0:x>1?1:x;
 2161              		.loc 6 692 24 view .LVU720
 2162 0680 B5EEC0BA 		vcmpe.f32	s22, #0
 2163              	.LBE1016:
 2164              	.LBE1015:
 2165              	.LBB1020:
 2166              	.LBB1012:
 2167              		.loc 9 13 16 view .LVU721
ARM GAS  /tmp/claude-502/cc2bPfvH.s 			page 83


 2168 0684 F0EE6ABA 		vmov.f32	s23, s21
 2169              	.LVL177:
 2170              		.loc 9 13 16 view .LVU722
 2171              	.LBE1012:
 2172              	.LBE1020:
 687:src/main.cpp  ****                 x = x<0?0:x>1?1:x;
 2173              		.loc 6 687 13 is_stmt 1 view .LVU723
 691:src/main.cpp  ****                 x = x<0?0:x>1?1:x;
 2174              		.loc 6 691 13 view .LVU724
 693:src/main.cpp  ****                 return x*x*x*(x*(x*6.0f - 15.0f) + 10.0f);
 694:src/main.cpp  ****             };
 695:src/main.cpp  **** 
 696:src/main.cpp  ****             // Cutoff: smootherstep ŌĆö very dark at low, dramatic in mid, eases at top.
 697:src/main.cpp  ****             // Base cutoff and sweep depth are voice-defined.
 698:src/main.cpp  ****             float prs_cut  = smootherstep(prs01);
 2175              		.loc 6 698 13 view .LVU725
 2176              	.LBB1021:
 2177              	.LBI1015:
 691:src/main.cpp  ****                 x = x<0?0:x>1?1:x;
 2178              		.loc 6 691 33 view .LVU726
 2179              	.LBB1017:
 692:src/main.cpp  ****                 return x*x*x*(x*(x*6.0f - 15.0f) + 10.0f);
 2180              		.loc 6 692 17 view .LVU727
 692:src/main.cpp  ****                 return x*x*x*(x*(x*6.0f - 15.0f) + 10.0f);
 2181              		.loc 6 692 24 is_stmt 0 view .LVU728
 2182 0688 F1EE10FA 		vmrs	APSR_nzcv, FPSCR
 2183 068c 00F1CF85 		bmi	.L314
 2184              	.LVL178:
 2185              	.L516:
 692:src/main.cpp  ****                 return x*x*x*(x*(x*6.0f - 15.0f) + 10.0f);
 2186              		.loc 6 692 30 view .LVU729
 2187 0690 F7EE007A 		vmov.f32	s15, #1.0e+0
 2188 0694 B4EEE7BA 		vcmpe.f32	s22, s15
 2189 0698 F1EE10FA 		vmrs	APSR_nzcv, FPSCR
 2190 069c 0FDC     		bgt	.L175
 693:src/main.cpp  ****                 return x*x*x*(x*(x*6.0f - 15.0f) + 10.0f);
 2191              		.loc 6 693 41 view .LVU730
 2192 069e B1EE086A 		vmov.f32	s12, #6.0e+0
 2193 06a2 FAEE0E6A 		vmov.f32	s13, #-1.5e+1
 693:src/main.cpp  ****                 return x*x*x*(x*(x*6.0f - 15.0f) + 10.0f);
 2194              		.loc 6 693 50 view .LVU731
 2195 06a6 F2EE047A 		vmov.f32	s15, #1.0e+1
 693:src/main.cpp  ****                 return x*x*x*(x*(x*6.0f - 15.0f) + 10.0f);
 2196              		.loc 6 693 25 view .LVU732
 2197 06aa 2BEE0B7A 		vmul.f32	s14, s22, s22
 693:src/main.cpp  ****                 return x*x*x*(x*(x*6.0f - 15.0f) + 10.0f);
 2198              		.loc 6 693 41 view .LVU733
 2199 06ae EBEE066A 		vfma.f32	s13, s22, s12
 693:src/main.cpp  ****                 return x*x*x*(x*(x*6.0f - 15.0f) + 10.0f);
 2200              		.loc 6 693 27 view .LVU734
 2201 06b2 27EE0B7A 		vmul.f32	s14, s14, s22
 693:src/main.cpp  ****                 return x*x*x*(x*(x*6.0f - 15.0f) + 10.0f);
 2202              		.loc 6 693 50 view .LVU735
 2203 06b6 EBEE267A 		vfma.f32	s15, s22, s13
 693:src/main.cpp  ****                 return x*x*x*(x*(x*6.0f - 15.0f) + 10.0f);
 2204              		.loc 6 693 57 view .LVU736
 2205 06ba 67EE277A 		vmul.f32	s15, s14, s15
ARM GAS  /tmp/claude-502/cc2bPfvH.s 			page 84


 2206              	.L175:
 2207              	.LVL179:
 693:src/main.cpp  ****                 return x*x*x*(x*(x*6.0f - 15.0f) + 10.0f);
 2208              		.loc 6 693 17 is_stmt 1 view .LVU737
 693:src/main.cpp  ****                 return x*x*x*(x*(x*6.0f - 15.0f) + 10.0f);
 2209              		.loc 6 693 17 is_stmt 0 view .LVU738
 2210              	.LBE1017:
 2211              	.LBE1021:
 699:src/main.cpp  ****             float cutoff_oct = VOICE.cutoff_oct_max * prs_cut;
 2212              		.loc 6 699 13 is_stmt 1 view .LVU739
 700:src/main.cpp  ****             float oct_arg  = cutoff_oct * 0.6931f;
 2213              		.loc 6 700 13 view .LVU740
 699:src/main.cpp  ****             float cutoff_oct = VOICE.cutoff_oct_max * prs_cut;
 2214              		.loc 6 699 38 is_stmt 0 view .LVU741
 2215 06be 9423     		movs	r3, #148
 2216 06c0 059A     		ldr	r2, [sp, #20]
 2217              		.loc 6 700 19 view .LVU742
 2218 06c2 DFED414A 		vldr.32	s9, .L531+40
 701:src/main.cpp  ****             float oct_mult = 1.0f + oct_arg*(1.0f + oct_arg*(0.5f + oct_arg*(0.1667f + oct_arg*0.04
 2219              		.loc 6 701 67 view .LVU743
 2220 06c6 F6EE006A 		vmov.f32	s13, #5.0e-1
 699:src/main.cpp  ****             float cutoff_oct = VOICE.cutoff_oct_max * prs_cut;
 2221              		.loc 6 699 38 view .LVU744
 2222 06ca 03FB0523 		mla	r3, r3, r5, r2
 2223              		.loc 6 701 86 view .LVU745
 2224 06ce 9FED3F5A 		vldr.32	s10, .L531+44
 2225 06d2 9FED3C6A 		vldr.32	s12, .L531+36
 2226              		.loc 6 701 51 view .LVU746
 2227 06d6 B7EE007A 		vmov.f32	s14, #1.0e+0
 699:src/main.cpp  ****             float cutoff_oct = VOICE.cutoff_oct_max * prs_cut;
 2228              		.loc 6 699 19 view .LVU747
 2229 06da 93ED114A 		vldr.32	s8, [r3, #68]
 702:src/main.cpp  ****             // Keytracking: how much the cutoff base follows pitch. keytrack=1 is
 703:src/main.cpp  ****             // full tracking (cutoff ŌłØ freq); <1 holds the cutoff lower as pitch
 704:src/main.cpp  ****             // rises, for a more consistent tone across the range. (constexpr ŌåÆ
 705:src/main.cpp  ****             // the common keytrack=1 case folds to no powf.)
 706:src/main.cpp  ****             float track_freq = (VOICE.keytrack >= 0.999f)
 707:src/main.cpp  ****                 ? freq
 2230              		.loc 6 707 17 view .LVU748
 2231 06de DFED3C5A 		vldr.32	s11, .L531+48
 699:src/main.cpp  ****             float oct_arg  = cutoff_oct * 0.6931f;
 2232              		.loc 6 699 19 view .LVU749
 2233 06e2 67EE847A 		vmul.f32	s15, s15, s8
 2234              	.LVL180:
 706:src/main.cpp  ****                 ? freq
 2235              		.loc 6 706 39 view .LVU750
 2236 06e6 D3ED150A 		vldr.32	s1, [r3, #84]
 2237              		.loc 6 707 17 view .LVU751
 2238 06ea F4EEE50A 		vcmpe.f32	s1, s11
 700:src/main.cpp  ****             float oct_mult = 1.0f + oct_arg*(1.0f + oct_arg*(0.5f + oct_arg*(0.1667f + oct_arg*0.04
 2239              		.loc 6 700 19 view .LVU752
 2240 06ee 67EEA47A 		vmul.f32	s15, s15, s9
 2241              	.LVL181:
 701:src/main.cpp  ****             // Keytracking: how much the cutoff base follows pitch. keytrack=1 is
 2242              		.loc 6 701 13 is_stmt 1 view .LVU753
 2243              		.loc 6 707 17 is_stmt 0 view .LVU754
 2244 06f2 F1EE10FA 		vmrs	APSR_nzcv, FPSCR
ARM GAS  /tmp/claude-502/cc2bPfvH.s 			page 85


 701:src/main.cpp  ****             // Keytracking: how much the cutoff base follows pitch. keytrack=1 is
 2245              		.loc 6 701 86 view .LVU755
 2246 06f6 A7EE856A 		vfma.f32	s12, s15, s10
 701:src/main.cpp  ****             // Keytracking: how much the cutoff base follows pitch. keytrack=1 is
 2247              		.loc 6 701 67 view .LVU756
 2248 06fa E6EE276A 		vfma.f32	s13, s12, s15
 701:src/main.cpp  ****             // Keytracking: how much the cutoff base follows pitch. keytrack=1 is
 2249              		.loc 6 701 51 view .LVU757
 2250 06fe B0EE476A 		vmov.f32	s12, s14
 2251 0702 A6EEA76A 		vfma.f32	s12, s13, s15
 701:src/main.cpp  ****             // Keytracking: how much the cutoff base follows pitch. keytrack=1 is
 2252              		.loc 6 701 19 view .LVU758
 2253 0706 A6EE277A 		vfma.f32	s14, s12, s15
 2254 070a B0EE47CA 		vmov.f32	s24, s14
 2255              	.LVL182:
 706:src/main.cpp  ****                 ? freq
 2256              		.loc 6 706 13 is_stmt 1 view .LVU759
 2257              		.loc 6 707 17 is_stmt 0 view .LVU760
 2258 070e C0F21186 		blt	.L503
 2259 0712 F0EE6BAA 		vmov.f32	s21, s23
 2260              	.LVL183:
 2261              	.L176:
 708:src/main.cpp  ****                 : VOICE.freq_low * powf(freq / VOICE.freq_low, VOICE.keytrack);
 709:src/main.cpp  ****             float cutoff   = clampf(track_freq * VOICE.cutoff_mult * oct_mult, 20.0f, 18000.0f);
 2262              		.loc 6 709 13 is_stmt 1 view .LVU761
 2263              		.loc 6 709 56 is_stmt 0 view .LVU762
 2264 0716 9423     		movs	r3, #148
 2265 0718 059A     		ldr	r2, [sp, #20]
 2266              	.LBB1022:
 2267              	.LBB1023:
 2268              		.loc 9 13 16 view .LVU763
 2269 071a F3EE047A 		vmov.f32	s15, #2.0e+1
 2270              	.LBE1023:
 2271              	.LBE1022:
 2272              		.loc 6 709 56 view .LVU764
 2273 071e 03FB0523 		mla	r3, r3, r5, r2
 2274              		.loc 6 709 48 view .LVU765
 2275 0722 93ED107A 		vldr.32	s14, [r3, #64]
 2276 0726 6AEE87AA 		vmul.f32	s21, s21, s14
 2277              	.LVL184:
 2278              		.loc 6 709 36 view .LVU766
 2279 072a 6AEE8CAA 		vmul.f32	s21, s21, s24
 2280              	.LVL185:
 2281              	.LBB1026:
 2282              	.LBI1022:
  12:src/dsp.h     ****     return v<lo?lo:v>hi?hi:v;
 2283              		.loc 9 12 21 is_stmt 1 view .LVU767
 2284              	.LBB1024:
 2285              		.loc 9 13 5 view .LVU768
 2286              		.loc 9 13 16 is_stmt 0 view .LVU769
 2287 072e F4EEE7AA 		vcmpe.f32	s21, s15
 2288 0732 F1EE10FA 		vmrs	APSR_nzcv, FPSCR
 2289 0736 00F1AB85 		bmi	.L317
 2290              		.loc 9 13 24 view .LVU770
 2291 073a DFED267A 		vldr.32	s15, .L531+52
 2292 073e F4EE67AA 		vcmp.f32	s21, s15
 2293 0742 F1EE10FA 		vmrs	APSR_nzcv, FPSCR
ARM GAS  /tmp/claude-502/cc2bPfvH.s 			page 86


 2294 0746 77FEAAAA 		vselgt.f32	s21, s15, s21
 2295              	.LVL186:
 2296              	.L177:
 2297              		.loc 9 13 24 view .LVU771
 2298              	.LBE1024:
 2299              	.LBE1026:
 710:src/main.cpp  **** 
 711:src/main.cpp  ****             // Vibrato: smoothstep, only activates above 60% pressure
 712:src/main.cpp  ****             float vib_in = clampf((prs01 - 0.6f) / 0.4f, 0.0f, 1.0f);
 2300              		.loc 6 712 13 is_stmt 1 view .LVU772
 2301              		.loc 6 712 42 is_stmt 0 view .LVU773
 2302 074a DFED237A 		vldr.32	s15, .L531+56
 2303              		.loc 6 712 34 view .LVU774
 2304 074e DFED236A 		vldr.32	s13, .L531+60
 2305              		.loc 6 712 42 view .LVU775
 2306 0752 7BEE677A 		vsub.f32	s15, s22, s15
 2307              		.loc 6 712 34 view .LVU776
 2308 0756 87EEA67A 		vdiv.f32	s14, s15, s13
 2309              	.LVL187:
 2310              	.LBB1027:
 2311              	.LBI1027:
  12:src/dsp.h     ****     return v<lo?lo:v>hi?hi:v;
 2312              		.loc 9 12 21 is_stmt 1 view .LVU777
 2313              	.LBB1028:
 2314              		.loc 9 13 5 view .LVU778
 2315              		.loc 9 13 16 is_stmt 0 view .LVU779
 2316 075a B5EEC07A 		vcmpe.f32	s14, #0
 2317 075e F1EE10FA 		vmrs	APSR_nzcv, FPSCR
 2318 0762 00F16C85 		bmi	.L319
 2319              		.loc 9 13 24 view .LVU780
 2320 0766 F7EE007A 		vmov.f32	s15, #1.0e+0
 2321 076a B4EEE77A 		vcmpe.f32	s14, s15
 2322 076e F1EE10FA 		vmrs	APSR_nzcv, FPSCR
 2323 0772 01F33D80 		bgt	.L320
 2324              	.LVL188:
 2325              		.loc 9 13 24 view .LVU781
 2326              	.LBE1028:
 2327              	.LBE1027:
 713:src/main.cpp  ****             float vib    = smoothstep(vib_in) * 0.8f;
 2328              		.loc 6 713 13 is_stmt 1 view .LVU782
 2329              	.LBB1031:
 2330              	.LBI1031:
 687:src/main.cpp  ****                 x = x<0?0:x>1?1:x;
 2331              		.loc 6 687 31 view .LVU783
 2332              	.LBB1032:
 688:src/main.cpp  ****                 return x*x*(3.0f - 2.0f*x);
 2333              		.loc 6 688 17 view .LVU784
 689:src/main.cpp  ****             };
 2334              		.loc 6 689 34 is_stmt 0 view .LVU785
 2335 0776 B0EE006A 		vmov.f32	s12, #2.0e+0
 2336              	.LBE1032:
 2337              	.LBE1031:
 2338              		.loc 6 713 49 view .LVU786
 2339 077a DFED196A 		vldr.32	s13, .L531+64
 2340              	.LBB1036:
 2341              	.LBB1033:
 689:src/main.cpp  ****             };
ARM GAS  /tmp/claude-502/cc2bPfvH.s 			page 87


 2342              		.loc 6 689 34 view .LVU787
 2343 077e F0EE087A 		vmov.f32	s15, #3.0e+0
 689:src/main.cpp  ****             };
 2344              		.loc 6 689 25 view .LVU788
 2345 0782 67EE07CA 		vmul.f32	s25, s14, s14
 689:src/main.cpp  ****             };
 2346              		.loc 6 689 34 view .LVU789
 2347 0786 E7EE467A 		vfms.f32	s15, s14, s12
 689:src/main.cpp  ****             };
 2348              		.loc 6 689 42 view .LVU790
 2349 078a 6CEEA7CA 		vmul.f32	s25, s25, s15
 2350              	.LBE1033:
 2351              	.LBE1036:
 2352              		.loc 6 713 49 view .LVU791
 2353 078e 6CEEA6CA 		vmul.f32	s25, s25, s13
 2354              	.LVL189:
 2355              	.L178:
 2356              	.LBB1037:
 2357              	.LBB1034:
 689:src/main.cpp  ****             };
 2358              		.loc 6 689 17 is_stmt 1 view .LVU792
 689:src/main.cpp  ****             };
 2359              		.loc 6 689 17 is_stmt 0 view .LVU793
 2360              	.LBE1034:
 2361              	.LBE1037:
 714:src/main.cpp  **** 
 715:src/main.cpp  ****             // Drive: smoothstep ŌĆö clean at low, progressively warmer (voice-defined max)
 716:src/main.cpp  ****             float drive = 1.0f + smoothstep(prs01) * VOICE.drive_max;
 2362              		.loc 6 716 13 is_stmt 1 view .LVU794
 2363              	.LBB1038:
 2364              	.LBI1038:
 687:src/main.cpp  ****                 x = x<0?0:x>1?1:x;
 2365              		.loc 6 687 31 view .LVU795
 2366              	.LBB1039:
 688:src/main.cpp  ****                 return x*x*(3.0f - 2.0f*x);
 2367              		.loc 6 688 17 view .LVU796
 688:src/main.cpp  ****                 return x*x*(3.0f - 2.0f*x);
 2368              		.loc 6 688 24 is_stmt 0 view .LVU797
 2369 0792 B5EEC0BA 		vcmpe.f32	s22, #0
 2370 0796 F1EE10FA 		vmrs	APSR_nzcv, FPSCR
 2371 079a 00F15885 		bmi	.L321
 2372 079e 21E0     		b	.L532
 2373              	.L533:
 2374              		.align	2
 2375              	.L531:
 2376 07a0 9A99593F 		.word	1062836634
 2377 07a4 00000000 		.word	g_master_vol
 2378 07a8 00000000 		.word	.LANCHOR1
 2379 07ac 00000000 		.word	.LANCHOR2
 2380 07b0 00000000 		.word	tracked
 2381 07b4 50000000 		.word	tracked+80
 2382 07b8 00000000 		.word	g_retrig
 2383 07bc 00007A44 		.word	1148846080
 2384 07c0 0000C842 		.word	1120403456
 2385 07c4 68B32A3E 		.word	1042985832
 2386 07c8 006F313F 		.word	1060204288
 2387 07cc 9FCD2A3D 		.word	1026215327
ARM GAS  /tmp/claude-502/cc2bPfvH.s 			page 88


 2388 07d0 77BE7F3F 		.word	1065336439
 2389 07d4 00A08C46 		.word	1183621120
 2390 07d8 9A99193F 		.word	1058642330
 2391 07dc CDCCCC3E 		.word	1053609165
 2392 07e0 CDCC4C3F 		.word	1061997773
 2393              	.L532:
 2394              	.L517:
 688:src/main.cpp  ****                 return x*x*(3.0f - 2.0f*x);
 2395              		.loc 6 688 30 view .LVU798
 2396 07e4 F7EE007A 		vmov.f32	s15, #1.0e+0
 2397 07e8 B4EEE7BA 		vcmpe.f32	s22, s15
 2398 07ec F1EE10FA 		vmrs	APSR_nzcv, FPSCR
 2399 07f0 09DC     		bgt	.L179
 689:src/main.cpp  ****             };
 2400              		.loc 6 689 34 view .LVU799
 2401 07f2 F0EE006A 		vmov.f32	s13, #2.0e+0
 2402 07f6 B0EE087A 		vmov.f32	s14, #3.0e+0
 689:src/main.cpp  ****             };
 2403              		.loc 6 689 25 view .LVU800
 2404 07fa 6BEE0B7A 		vmul.f32	s15, s22, s22
 689:src/main.cpp  ****             };
 2405              		.loc 6 689 34 view .LVU801
 2406 07fe ABEE667A 		vfms.f32	s14, s22, s13
 689:src/main.cpp  ****             };
 2407              		.loc 6 689 42 view .LVU802
 2408 0802 67EE877A 		vmul.f32	s15, s15, s14
 2409              	.L179:
 2410              	.LVL190:
 689:src/main.cpp  ****             };
 2411              		.loc 6 689 17 is_stmt 1 view .LVU803
 2412              	.LBE1039:
 2413              	.LBE1038:
 2414              		.loc 6 716 60 is_stmt 0 view .LVU804
 2415 0806 9423     		movs	r3, #148
 2416 0808 059A     		ldr	r2, [sp, #20]
 2417 080a B7EE00CA 		vmov.f32	s24, #1.0e+0
 2418              	.LVL191:
 2419              		.loc 6 716 60 view .LVU805
 2420 080e 03FB0523 		mla	r3, r3, r5, r2
 2421 0812 93ED137A 		vldr.32	s14, [r3, #76]
 717:src/main.cpp  **** 
 718:src/main.cpp  ****             // ŌöĆŌöĆ Velocity ŌåÆ loudness ŌöĆŌöĆŌöĆŌöĆŌöĆŌöĆŌöĆŌöĆŌöĆŌöĆŌöĆŌöĆŌöĆŌöĆŌöĆŌöĆŌöĆŌöĆŌ
 719:src/main.cpp  ****             // Capture peak pressure for a short window at onset, then hold it.
 720:src/main.cpp  ****             if(!f1_was_on){ vel_active = true; vel_peak = prs01; vel_start = System::GetNow(); }
 2422              		.loc 6 720 13 view .LVU806
 2423 0816 089B     		ldr	r3, [sp, #32]
 716:src/main.cpp  **** 
 2424              		.loc 6 716 60 view .LVU807
 2425 0818 A7EE27CA 		vfma.f32	s24, s14, s15
 2426              	.LVL192:
 2427              		.loc 6 720 13 is_stmt 1 view .LVU808
 2428 081c 2BB9     		cbnz	r3, .L180
 2429              		.loc 6 720 29 discriminator 1 view .LVU809
 2430              	.LVL193:
 2431              		.loc 6 720 48 discriminator 1 view .LVU810
 2432              		.loc 6 720 66 discriminator 1 view .LVU811
 721:src/main.cpp  ****             if(vel_active){
ARM GAS  /tmp/claude-502/cc2bPfvH.s 			page 89


 722:src/main.cpp  ****                 if(prs01 > vel_peak) vel_peak = prs01;
 723:src/main.cpp  ****                 if(System::GetNow() - vel_start >= VEL_WINDOW_MS) vel_active = false;
 724:src/main.cpp  ****                 vel = vel_peak;
 2433              		.loc 6 724 21 is_stmt 0 discriminator 1 view .LVU812
 2434 081e F0EE4B8A 		vmov.f32	s17, s22
 2435              	.LVL194:
 720:src/main.cpp  ****             if(vel_active){
 2436              		.loc 6 720 92 discriminator 1 view .LVU813
 2437 0822 FFF7FEFF 		bl	_ZN5daisy6System6GetNowEv
 2438              	.LVL195:
 721:src/main.cpp  ****             if(vel_active){
 2439              		.loc 6 721 13 is_stmt 1 discriminator 1 view .LVU814
 722:src/main.cpp  ****                 if(System::GetNow() - vel_start >= VEL_WINDOW_MS) vel_active = false;
 2440              		.loc 6 722 17 discriminator 1 view .LVU815
 723:src/main.cpp  ****                 vel = vel_peak;
 2441              		.loc 6 723 17 discriminator 1 view .LVU816
 723:src/main.cpp  ****                 vel = vel_peak;
 2442              		.loc 6 723 34 is_stmt 0 discriminator 1 view .LVU817
 2443 0826 FFF7FEFF 		bl	_ZN5daisy6System6GetNowEv
 2444              	.LVL196:
 723:src/main.cpp  ****                 vel = vel_peak;
 2445              		.loc 6 723 67 is_stmt 1 discriminator 1 view .LVU818
 2446              		.loc 6 724 17 discriminator 1 view .LVU819
 2447              	.L180:
 725:src/main.cpp  ****             }
 726:src/main.cpp  ****             float vel_scale = (1.0f - VOICE.vel_sens) + VOICE.vel_sens * vel;
 2448              		.loc 6 726 13 view .LVU820
 727:src/main.cpp  **** 
 728:src/main.cpp  ****             g_target_freq    = freq;
 2449              		.loc 6 728 30 is_stmt 0 view .LVU821
 2450 082a CA4B     		ldr	r3, .L534
 726:src/main.cpp  **** 
 2451              		.loc 6 726 37 view .LVU822
 2452 082c F7EE007A 		vmov.f32	s15, #1.0e+0
 726:src/main.cpp  **** 
 2453              		.loc 6 726 45 view .LVU823
 2454 0830 059A     		ldr	r2, [sp, #20]
 2455              		.loc 6 728 30 view .LVU824
 2456 0832 C3ED00BA 		vstr.32	s23, [r3]
 729:src/main.cpp  ****             g_target_cutoff  = cutoff;
 2457              		.loc 6 729 30 view .LVU825
 2458 0836 C84B     		ldr	r3, .L534+4
 730:src/main.cpp  ****             g_vibrato_depth  = vib;
 731:src/main.cpp  ****             g_target_drive   = drive;
 732:src/main.cpp  ****             g_finger_on      = true;
 733:src/main.cpp  ****             g_amp_target     = 0.72f * vel_scale;
 2459              		.loc 6 733 38 view .LVU826
 2460 0838 DFEDC86A 		vldr.32	s13, .L534+8
 729:src/main.cpp  ****             g_target_cutoff  = cutoff;
 2461              		.loc 6 729 30 view .LVU827
 2462 083c C3ED00AA 		vstr.32	s21, [r3]
 730:src/main.cpp  ****             g_vibrato_depth  = vib;
 2463              		.loc 6 730 30 view .LVU828
 2464 0840 C74B     		ldr	r3, .L534+12
 2465 0842 C3ED00CA 		vstr.32	s25, [r3]
 731:src/main.cpp  ****             g_finger_on      = true;
 2466              		.loc 6 731 30 view .LVU829
ARM GAS  /tmp/claude-502/cc2bPfvH.s 			page 90


 2467 0846 C74B     		ldr	r3, .L534+16
 2468 0848 83ED00CA 		vstr.32	s24, [r3]
 726:src/main.cpp  **** 
 2469              		.loc 6 726 45 view .LVU830
 2470 084c 9423     		movs	r3, #148
 2471 084e 03FB0523 		mla	r3, r3, r5, r2
 732:src/main.cpp  ****             g_amp_target     = 0.72f * vel_scale;
 2472              		.loc 6 732 30 view .LVU831
 2473 0852 C54A     		ldr	r2, .L534+20
 726:src/main.cpp  **** 
 2474              		.loc 6 726 45 view .LVU832
 2475 0854 93ED207A 		vldr.32	s14, [r3, #128]
 732:src/main.cpp  ****             g_amp_target     = 0.72f * vel_scale;
 2476              		.loc 6 732 30 view .LVU833
 2477 0858 0123     		movs	r3, #1
 726:src/main.cpp  **** 
 2478              		.loc 6 726 37 view .LVU834
 2479 085a 77EEC77A 		vsub.f32	s15, s15, s14
 732:src/main.cpp  ****             g_amp_target     = 0.72f * vel_scale;
 2480              		.loc 6 732 30 view .LVU835
 2481 085e 1370     		strb	r3, [r2]
 2482              		.loc 6 733 30 view .LVU836
 2483 0860 C24B     		ldr	r3, .L534+24
 726:src/main.cpp  **** 
 2484              		.loc 6 726 19 view .LVU837
 2485 0862 E7EE287A 		vfma.f32	s15, s14, s17
 2486              	.LVL197:
 728:src/main.cpp  ****             g_target_cutoff  = cutoff;
 2487              		.loc 6 728 13 is_stmt 1 view .LVU838
 729:src/main.cpp  ****             g_vibrato_depth  = vib;
 2488              		.loc 6 729 13 view .LVU839
 730:src/main.cpp  ****             g_target_drive   = drive;
 2489              		.loc 6 730 13 view .LVU840
 731:src/main.cpp  ****             g_finger_on      = true;
 2490              		.loc 6 731 13 view .LVU841
 732:src/main.cpp  ****             g_amp_target     = 0.72f * vel_scale;
 2491              		.loc 6 732 13 view .LVU842
 2492              		.loc 6 733 13 view .LVU843
 2493              		.loc 6 733 38 is_stmt 0 view .LVU844
 2494 0866 67EEA67A 		vmul.f32	s15, s15, s13
 2495              	.LVL198:
 2496              		.loc 6 733 30 view .LVU845
 2497 086a C3ED007A 		vstr.32	s15, [r3]
 2498              	.LVL199:
 2499              	.L167:
 2500              		.loc 6 733 30 view .LVU846
 2501              	.LBE990:
 2502              	.LBE989:
 734:src/main.cpp  **** 
 735:src/main.cpp  ****         }
 736:src/main.cpp  ****         else if(!multi)
 737:src/main.cpp  ****         {
 738:src/main.cpp  ****             // Finger lifted: gate off, reset slide state
 739:src/main.cpp  ****             f1_sliding = false;
 740:src/main.cpp  ****             g_finger_on  = false;
 741:src/main.cpp  ****             g_amp_target = 0.0f;
 742:src/main.cpp  ****             // Do NOT reset cutoff here ŌĆö let it close with the amplitude
ARM GAS  /tmp/claude-502/cc2bPfvH.s 			page 91


 743:src/main.cpp  ****             // in the audio callback to avoid discontinuity clicks
 744:src/main.cpp  ****         }
 745:src/main.cpp  **** 
 746:src/main.cpp  ****         // ŌöĆŌöĆ LED targets + slew ŌöĆŌöĆŌöĆŌöĆŌöĆŌöĆŌöĆŌöĆŌöĆŌöĆŌöĆŌöĆŌöĆŌöĆŌöĆŌöĆŌöĆŌöĆŌöĆŌöĆŌö
 747:src/main.cpp  ****         // Three-LED position indicator. Linear "tents" hand off cleanly:
 748:src/main.cpp  ****         //   LED1 (DAC1, middle)       ŌåÆ 1 - 2*|p - 0.5|
 749:src/main.cpp  ****         //   LED2 (DAC2, pos 0 end)    ŌåÆ max(0, 1 - 2*p)
 750:src/main.cpp  ****         //   LED3 (PWM A0, pos 1 end)  ŌåÆ max(0, 2*p - 1)
 751:src/main.cpp  ****         // Fourth-root curve (gamma=0.25) keeps each LED above its forward-voltage
 752:src/main.cpp  ****         // floor at the handoff points (50% raw ŌåÆ ~84% drive). Pressure adds a
 753:src/main.cpp  ****         // subtle ~75%ŌåÆ100% intensity scale.
 754:src/main.cpp  ****         // The voice-select blink overlays the position display only while a blink
 755:src/main.cpp  ****         // is actually animating (entry count, per-advance tick, saved-voice
 756:src/main.cpp  ****         // confirm). Otherwise the normal position display runs ŌĆö so the LEDs follow
 757:src/main.cpp  ****         // the finger during the live preview too, and resume after the save blink.
 758:src/main.cpp  ****         if(blink_left > 0 || blink_on){
 2503              		.loc 6 758 9 is_stmt 1 view .LVU847
 2504              	.LBB1063:
 2505 086e 0D9B     		ldr	r3, [sp, #52]
 2506 0870 002B     		cmp	r3, #0
 2507 0872 00F3CE83 		bgt	.L181
 2508              		.loc 6 758 27 is_stmt 0 discriminator 1 view .LVU848
 2509 0876 109B     		ldr	r3, [sp, #64]
 2510 0878 002B     		cmp	r3, #0
 2511 087a 00F00184 		beq	.L504
 759:src/main.cpp  ****             blink_tick(System::GetNow());
 2512              		.loc 6 759 13 is_stmt 1 view .LVU849
 2513              		.loc 6 759 23 is_stmt 0 view .LVU850
 2514 087e FFF7FEFF 		bl	_ZN5daisy6System6GetNowEv
 2515              	.LVL200:
 2516              	.LBB1064:
 2517              	.LBI1064:
 352:src/main.cpp  ****         if(blink_left == 0 && !blink_on) return;
 2518              		.loc 6 352 23 is_stmt 1 view .LVU851
 2519              	.LBB1065:
 353:src/main.cpp  ****         if((int32_t)(now - blink_t) < 0)  return;
 2520              		.loc 6 353 9 view .LVU852
 354:src/main.cpp  ****         if(blink_on){ leds_write(false); blink_on = false; blink_left--; blink_t = now + 140; }
 2521              		.loc 6 354 9 view .LVU853
 354:src/main.cpp  ****         if(blink_on){ leds_write(false); blink_on = false; blink_left--; blink_t = now + 140; }
 2522              		.loc 6 354 26 is_stmt 0 view .LVU854
 2523 0882 149B     		ldr	r3, [sp, #80]
 2524 0884 C31A     		subs	r3, r0, r3
 354:src/main.cpp  ****         if(blink_on){ leds_write(false); blink_on = false; blink_left--; blink_t = now + 140; }
 2525              		.loc 6 354 9 view .LVU855
 2526 0886 002B     		cmp	r3, #0
 2527 0888 13DB     		blt	.L184
 2528              	.L282:
 355:src/main.cpp  ****         else if(blink_left > 0){ leds_write(true); blink_on = true; blink_t = now + 110; }
 2529              		.loc 6 355 23 is_stmt 1 view .LVU856
 2530              	.LVL201:
 2531              	.LBB1066:
 2532              	.LBI1066:
 342:src/main.cpp  ****         hw.dac.WriteValue(DacHandle::Channel::ONE, on ? (uint16_t)LED1_MAX : 0);
 2533              		.loc 6 342 23 view .LVU857
 2534              	.LBB1067:
 343:src/main.cpp  ****         hw.dac.WriteValue(DacHandle::Channel::TWO, on ? (uint16_t)LED2_MAX : 0);
ARM GAS  /tmp/claude-502/cc2bPfvH.s 			page 92


 2535              		.loc 6 343 9 view .LVU858
 2536              	.LBE1067:
 2537              	.LBE1066:
 355:src/main.cpp  ****         else if(blink_left > 0){ leds_write(true); blink_on = true; blink_t = now + 110; }
 2538              		.loc 6 355 70 is_stmt 0 view .LVU859
 2539 088a 0D9B     		ldr	r3, [sp, #52]
 2540              	.LBB1072:
 2541              	.LBB1068:
 343:src/main.cpp  ****         hw.dac.WriteValue(DacHandle::Channel::TWO, on ? (uint16_t)LED2_MAX : 0);
 2542              		.loc 6 343 26 view .LVU860
 2543 088c 0022     		movs	r2, #0
 2544              	.LBE1068:
 2545              	.LBE1072:
 355:src/main.cpp  ****         else if(blink_left > 0){ leds_write(true); blink_on = true; blink_t = now + 110; }
 2546              		.loc 6 355 70 view .LVU861
 2547 088e 013B     		subs	r3, r3, #1
 2548              	.LBB1073:
 2549              	.LBB1069:
 343:src/main.cpp  ****         hw.dac.WriteValue(DacHandle::Channel::TWO, on ? (uint16_t)LED2_MAX : 0);
 2550              		.loc 6 343 26 view .LVU862
 2551 0890 1146     		mov	r1, r2
 2552              	.LBE1069:
 2553              	.LBE1073:
 355:src/main.cpp  ****         else if(blink_left > 0){ leds_write(true); blink_on = true; blink_t = now + 110; }
 2554              		.loc 6 355 51 view .LVU863
 2555 0892 1092     		str	r2, [sp, #64]
 2556              	.LVL202:
 355:src/main.cpp  ****         else if(blink_left > 0){ leds_write(true); blink_on = true; blink_t = now + 110; }
 2557              		.loc 6 355 70 view .LVU864
 2558 0894 0D93     		str	r3, [sp, #52]
 2559              	.LVL203:
 355:src/main.cpp  ****         else if(blink_left > 0){ leds_write(true); blink_on = true; blink_t = now + 110; }
 2560              		.loc 6 355 88 view .LVU865
 2561 0896 00F18C03 		add	r3, r0, #140
 2562              	.LBB1074:
 2563              	.LBB1070:
 343:src/main.cpp  ****         hw.dac.WriteValue(DacHandle::Channel::TWO, on ? (uint16_t)LED2_MAX : 0);
 2564              		.loc 6 343 26 view .LVU866
 2565 089a B548     		ldr	r0, .L534+28
 2566              	.LVL204:
 343:src/main.cpp  ****         hw.dac.WriteValue(DacHandle::Channel::TWO, on ? (uint16_t)LED2_MAX : 0);
 2567              		.loc 6 343 26 view .LVU867
 2568              	.LBE1070:
 2569              	.LBE1074:
 355:src/main.cpp  ****         else if(blink_left > 0){ leds_write(true); blink_on = true; blink_t = now + 110; }
 2570              		.loc 6 355 88 view .LVU868
 2571 089c 1493     		str	r3, [sp, #80]
 2572              	.LVL205:
 2573              	.LBB1075:
 2574              	.LBB1071:
 343:src/main.cpp  ****         hw.dac.WriteValue(DacHandle::Channel::TWO, on ? (uint16_t)LED2_MAX : 0);
 2575              		.loc 6 343 26 view .LVU869
 2576 089e FFF7FEFF 		bl	_ZN5daisy9DacHandle10WriteValueENS0_7ChannelEt
 2577              	.LVL206:
 344:src/main.cpp  ****         g_led3_duty = on ? LED3_INTENSITY : 0.0f;
 2578              		.loc 6 344 9 is_stmt 1 view .LVU870
 344:src/main.cpp  ****         g_led3_duty = on ? LED3_INTENSITY : 0.0f;
ARM GAS  /tmp/claude-502/cc2bPfvH.s 			page 93


 2579              		.loc 6 344 26 is_stmt 0 view .LVU871
 2580 08a2 0022     		movs	r2, #0
 2581 08a4 0121     		movs	r1, #1
 2582 08a6 B248     		ldr	r0, .L534+28
 2583 08a8 FFF7FEFF 		bl	_ZN5daisy9DacHandle10WriteValueENS0_7ChannelEt
 2584              	.LVL207:
 345:src/main.cpp  ****     };
 2585              		.loc 6 345 9 is_stmt 1 view .LVU872
 345:src/main.cpp  ****     };
 2586              		.loc 6 345 21 is_stmt 0 view .LVU873
 2587 08ac 0023     		movs	r3, #0
 2588 08ae 199A     		ldr	r2, [sp, #100]
 2589 08b0 1360     		str	r3, [r2]	@ float
 2590              	.LVL208:
 345:src/main.cpp  ****     };
 2591              		.loc 6 345 21 view .LVU874
 2592              	.LBE1071:
 2593              	.LBE1075:
 355:src/main.cpp  ****         else if(blink_left > 0){ leds_write(true); blink_on = true; blink_t = now + 110; }
 2594              		.loc 6 355 42 is_stmt 1 view .LVU875
 355:src/main.cpp  ****         else if(blink_left > 0){ leds_write(true); blink_on = true; blink_t = now + 110; }
 2595              		.loc 6 355 60 view .LVU876
 355:src/main.cpp  ****         else if(blink_left > 0){ leds_write(true); blink_on = true; blink_t = now + 110; }
 2596              		.loc 6 355 74 view .LVU877
 2597              	.L184:
 355:src/main.cpp  ****         else if(blink_left > 0){ leds_write(true); blink_on = true; blink_t = now + 110; }
 2598              		.loc 6 355 74 is_stmt 0 view .LVU878
 2599              	.LBE1065:
 2600              	.LBE1064:
 2601              	.LBE1063:
 760:src/main.cpp  ****         } else {
 761:src/main.cpp  ****             float led1_target = 0.0f, led2_target = 0.0f, led3_target = 0.0f;
 762:src/main.cpp  ****             if(f1_on) {
 763:src/main.cpp  ****                 float p01      = clampf((float)tracked[0].pos / 1000.0f, 0.0f, 1.0f);
 764:src/main.cpp  ****                 float pr01     = clampf((float)tracked[0].pressure / 100.0f, 0.0f, 1.0f);
 765:src/main.cpp  ****                 float prs_mult = 0.75f + 0.25f * pr01;
 766:src/main.cpp  ****                 float l1_raw   = 1.0f - 2.0f * p01;                 if(l1_raw < 0) l1_raw = 0;
 767:src/main.cpp  ****                 float l3_raw   = 2.0f * p01 - 1.0f;                 if(l3_raw < 0) l3_raw = 0;
 768:src/main.cpp  ****                 float l2_raw   = 1.0f - 2.0f * fabsf(p01 - 0.5f);   if(l2_raw < 0) l2_raw = 0;
 769:src/main.cpp  ****                 led1_target    = sqrtf(sqrtf(l2_raw)) * prs_mult;  // middle tent
 770:src/main.cpp  ****                 led2_target    = sqrtf(sqrtf(l1_raw)) * prs_mult;  // pos 0 ramp
 771:src/main.cpp  ****                 led3_target    = sqrtf(sqrtf(l3_raw)) * prs_mult * LED3_INTENSITY;
 772:src/main.cpp  ****             }
 773:src/main.cpp  ****             // Snap on touch onset so the LEDs respond instantly to the initial touch;
 774:src/main.cpp  ****             // smooth during sustained touch and on lift-off.
 775:src/main.cpp  ****             if(f1_on && !f1_was_on) {
 776:src/main.cpp  ****                 s_led1 = led1_target;
 777:src/main.cpp  ****                 s_led2 = led2_target;
 778:src/main.cpp  ****                 s_led3 = led3_target;
 779:src/main.cpp  ****             } else {
 780:src/main.cpp  ****                 float smooth3 = f1_on ? LED_SMOOTH : LED3_RELEASE_SMOOTH;
 781:src/main.cpp  ****                 s_led1 = s_led1 * LED_SMOOTH + led1_target * (1.0f - LED_SMOOTH);
 782:src/main.cpp  ****                 s_led2 = s_led2 * LED_SMOOTH + led2_target * (1.0f - LED_SMOOTH);
 783:src/main.cpp  ****                 s_led3 = s_led3 * smooth3   + led3_target * (1.0f - smooth3);
 784:src/main.cpp  ****             }
 785:src/main.cpp  ****             hw.dac.WriteValue(DacHandle::Channel::ONE, (uint16_t)(s_led1 * LED1_MAX));
 786:src/main.cpp  ****             hw.dac.WriteValue(DacHandle::Channel::TWO, (uint16_t)(s_led2 * LED2_MAX));
ARM GAS  /tmp/claude-502/cc2bPfvH.s 			page 94


 787:src/main.cpp  ****             g_led3_duty = s_led3;  // audio callback sigma-delta's this onto A0
 788:src/main.cpp  ****         }
 789:src/main.cpp  **** 
 790:src/main.cpp  ****         f1_was_on = f1_on;
 2602              		.loc 6 790 9 is_stmt 1 view .LVU879
 791:src/main.cpp  **** 
 792:src/main.cpp  ****         // ŌöĆŌöĆ Finger 2 ŌåÆ Detune + Bitcrush + Ring mod (mono voices only) ŌöĆŌöĆŌöĆŌöĆŌöĆŌöĆŌö
 793:src/main.cpp  ****         if(tracked[1].alive && !multi)
 2603              		.loc 6 793 9 view .LVU880
 2604              	.LBB1139:
 2605              		.loc 6 793 29 is_stmt 0 view .LVU881
 2606 08b2 9AF81430 		ldrb	r3, [r10, #20]	@ zero_extendqisi2
 2607 08b6 002B     		cmp	r3, #0
 2608 08b8 00F0E182 		beq	.L218
 2609              		.loc 6 793 29 view .LVU882
 2610 08bc 069B     		ldr	r3, [sp, #24]
 2611 08be 0C2B     		cmp	r3, #12
 2612 08c0 00F0DD82 		beq	.L218
 2613              	.LBB1140:
 794:src/main.cpp  ****         {
 795:src/main.cpp  ****             float pos01 = clampf((float)tracked[1].pos / 1000.0f, 0.0f, 1.0f);
 2614              		.loc 6 795 13 is_stmt 1 view .LVU883
 2615              		.loc 6 795 34 is_stmt 0 view .LVU884
 2616 08c4 DAED067A 		vldr.32	s15, [r10, #24]	@ int
 2617              		.loc 6 795 33 view .LVU885
 2618 08c8 DFEDAA6A 		vldr.32	s13, .L534+32
 2619              		.loc 6 795 34 view .LVU886
 2620 08cc F8EEE77A 		vcvt.f32.s32	s15, s15
 2621              		.loc 6 795 33 view .LVU887
 2622 08d0 87EEA67A 		vdiv.f32	s14, s15, s13
 2623              	.LVL209:
 2624              	.LBB1141:
 2625              	.LBI1141:
  12:src/dsp.h     ****     return v<lo?lo:v>hi?hi:v;
 2626              		.loc 9 12 21 is_stmt 1 view .LVU888
 2627              	.LBB1142:
 2628              		.loc 9 13 5 view .LVU889
 2629              		.loc 9 13 16 is_stmt 0 view .LVU890
 2630 08d4 B5EEC07A 		vcmpe.f32	s14, #0
 2631 08d8 F1EE10FA 		vmrs	APSR_nzcv, FPSCR
 2632 08dc 00F11E85 		bmi	.L326
 2633              		.loc 9 13 24 view .LVU891
 2634 08e0 F7EE007A 		vmov.f32	s15, #1.0e+0
 2635 08e4 B4EEE77A 		vcmpe.f32	s14, s15
 2636 08e8 F1EE10FA 		vmrs	APSR_nzcv, FPSCR
 2637 08ec 01F3A480 		bgt	.L327
 2638              	.LBE1142:
 2639              	.LBE1141:
 796:src/main.cpp  ****             float prs01 = clampf((float)tracked[1].pressure / 100.0f, 0.0f, 1.0f); // hard clamp
 797:src/main.cpp  **** 
 798:src/main.cpp  ****             // Detune: finger 2 position maps to ┬▒7 semitones (┬▒1 fifth)
 799:src/main.cpp  ****             // Centre (pos=0.5) = no detune, left = flat, right = sharp
 800:src/main.cpp  ****             float detune_pos  = (pos01 - 0.5f) * 3.0f;  // ┬▒1.5 semitones raw
 2640              		.loc 6 800 40 view .LVU892
 2641 08f0 F6EE007A 		vmov.f32	s15, #5.0e-1
 2642              		.loc 6 800 19 view .LVU893
 2643 08f4 F0EE085A 		vmov.f32	s11, #3.0e+0
ARM GAS  /tmp/claude-502/cc2bPfvH.s 			page 95


 2644              		.loc 6 800 40 view .LVU894
 2645 08f8 37EE677A 		vsub.f32	s14, s14, s15
 2646              	.LVL210:
 2647              		.loc 6 800 19 view .LVU895
 2648 08fc 67EE255A 		vmul.f32	s11, s14, s11
 2649              	.L219:
 2650              	.LVL211:
 796:src/main.cpp  ****             float prs01 = clampf((float)tracked[1].pressure / 100.0f, 0.0f, 1.0f); // hard clamp
 2651              		.loc 6 796 13 is_stmt 1 view .LVU896
 796:src/main.cpp  ****             float prs01 = clampf((float)tracked[1].pressure / 100.0f, 0.0f, 1.0f); // hard clamp
 2652              		.loc 6 796 34 is_stmt 0 view .LVU897
 2653 0900 DAED077A 		vldr.32	s15, [r10, #28]	@ int
 796:src/main.cpp  ****             float prs01 = clampf((float)tracked[1].pressure / 100.0f, 0.0f, 1.0f); // hard clamp
 2654              		.loc 6 796 33 view .LVU898
 2655 0904 DFED9C6A 		vldr.32	s13, .L534+36
 796:src/main.cpp  ****             float prs01 = clampf((float)tracked[1].pressure / 100.0f, 0.0f, 1.0f); // hard clamp
 2656              		.loc 6 796 34 view .LVU899
 2657 0908 B8EEE77A 		vcvt.f32.s32	s14, s15
 796:src/main.cpp  ****             float prs01 = clampf((float)tracked[1].pressure / 100.0f, 0.0f, 1.0f); // hard clamp
 2658              		.loc 6 796 33 view .LVU900
 2659 090c C7EE267A 		vdiv.f32	s15, s14, s13
 2660              	.LVL212:
 2661              	.LBB1146:
 2662              	.LBI1146:
  12:src/dsp.h     ****     return v<lo?lo:v>hi?hi:v;
 2663              		.loc 9 12 21 is_stmt 1 view .LVU901
 2664              	.LBB1147:
 2665              		.loc 9 13 5 view .LVU902
 2666              		.loc 9 13 16 is_stmt 0 view .LVU903
 2667 0910 F5EEC07A 		vcmpe.f32	s15, #0
 2668 0914 F1EE10FA 		vmrs	APSR_nzcv, FPSCR
 2669 0918 00F10485 		bmi	.L328
 2670              		.loc 9 13 24 view .LVU904
 2671 091c B7EE006A 		vmov.f32	s12, #1.0e+0
 2672 0920 F4EEC67A 		vcmpe.f32	s15, s12
 2673 0924 F1EE10FA 		vmrs	APSR_nzcv, FPSCR
 2674 0928 40F3D684 		ble	.L505
 2675              	.LVL213:
 2676              		.loc 9 13 24 view .LVU905
 2677 092c F0EE467A 		vmov.f32	s15, s12
 2678              	.LVL214:
 2679              	.L220:
 2680              		.loc 9 13 24 view .LVU906
 2681              	.LBE1147:
 2682              	.LBE1146:
 2683              		.loc 6 800 13 is_stmt 1 view .LVU907
 801:src/main.cpp  **** 
 802:src/main.cpp  ****             // Wavefold: smootherstep ŌĆö barely there until deliberate pressure
 803:src/main.cpp  ****             auto smootherstep2 = [](float x) -> float {
 2684              		.loc 6 803 13 view .LVU908
 804:src/main.cpp  ****                 x = x<0?0:x>1?1:x;
 805:src/main.cpp  ****                 return x*x*x*(x*(x*6.0f - 15.0f) + 10.0f);
 806:src/main.cpp  ****             };
 807:src/main.cpp  ****             // Apply smootherstep twice and cap at 0.20 ŌĆö effect only arrives
 808:src/main.cpp  ****             // with real deliberate pressure, stays subtle even at max
 809:src/main.cpp  ****             float ss2 = smootherstep2(prs01);
 2685              		.loc 6 809 13 view .LVU909
ARM GAS  /tmp/claude-502/cc2bPfvH.s 			page 96


 2686              	.LBB1149:
 2687              	.LBI1149:
 691:src/main.cpp  ****                 x = x<0?0:x>1?1:x;
 2688              		.loc 6 691 33 view .LVU910
 2689              	.LBB1150:
 692:src/main.cpp  ****                 return x*x*x*(x*(x*6.0f - 15.0f) + 10.0f);
 2690              		.loc 6 692 17 view .LVU911
 693:src/main.cpp  ****             };
 2691              		.loc 6 693 17 view .LVU912
 693:src/main.cpp  ****             };
 2692              		.loc 6 693 17 is_stmt 0 view .LVU913
 2693              	.LBE1150:
 2694              	.LBE1149:
 810:src/main.cpp  ****             float ss3 = smootherstep2(ss2);   // triple smootherstep ŌĆö very lazy
 2695              		.loc 6 810 13 is_stmt 1 view .LVU914
 2696              	.LBB1157:
 2697              	.LBI1157:
 691:src/main.cpp  ****                 x = x<0?0:x>1?1:x;
 2698              		.loc 6 691 33 view .LVU915
 2699              	.LBB1158:
 692:src/main.cpp  ****                 return x*x*x*(x*(x*6.0f - 15.0f) + 10.0f);
 2700              		.loc 6 692 17 view .LVU916
 692:src/main.cpp  ****                 return x*x*x*(x*(x*6.0f - 15.0f) + 10.0f);
 2701              		.loc 6 692 17 is_stmt 0 view .LVU917
 2702              	.LBE1158:
 2703              	.LBE1157:
 2704              	.LBB1162:
 2705              	.LBB1143:
 2706 0930 B0EE677A 		vmov.f32	s14, s15
 2707              	.L284:
 2708              	.LVL215:
 692:src/main.cpp  ****                 return x*x*x*(x*(x*6.0f - 15.0f) + 10.0f);
 2709              		.loc 6 692 17 view .LVU918
 2710              	.LBE1143:
 2711              	.LBE1162:
 2712              	.LBB1163:
 2713              	.LBB1159:
 693:src/main.cpp  ****             };
 2714              		.loc 6 693 17 is_stmt 1 view .LVU919
 693:src/main.cpp  ****             };
 2715              		.loc 6 693 41 is_stmt 0 view .LVU920
 2716 0934 BAEE0E5A 		vmov.f32	s10, #-1.5e+1
 2717 0938 B1EE084A 		vmov.f32	s8, #6.0e+0
 693:src/main.cpp  ****             };
 2718              		.loc 6 693 50 view .LVU921
 2719 093c B2EE046A 		vmov.f32	s12, #1.0e+1
 693:src/main.cpp  ****             };
 2720              		.loc 6 693 41 view .LVU922
 2721 0940 F0EE453A 		vmov.f32	s7, s10
 693:src/main.cpp  ****             };
 2722              		.loc 6 693 25 view .LVU923
 2723 0944 67EE076A 		vmul.f32	s13, s14, s14
 693:src/main.cpp  ****             };
 2724              		.loc 6 693 50 view .LVU924
 2725 0948 F0EE464A 		vmov.f32	s9, s12
 693:src/main.cpp  ****             };
 2726              		.loc 6 693 41 view .LVU925
ARM GAS  /tmp/claude-502/cc2bPfvH.s 			page 97


 2727 094c E7EE043A 		vfma.f32	s7, s14, s8
 693:src/main.cpp  ****             };
 2728              		.loc 6 693 27 view .LVU926
 2729 0950 66EE876A 		vmul.f32	s13, s13, s14
 693:src/main.cpp  ****             };
 2730              		.loc 6 693 50 view .LVU927
 2731 0954 E7EE234A 		vfma.f32	s9, s14, s7
 693:src/main.cpp  ****             };
 2732              		.loc 6 693 57 view .LVU928
 2733 0958 66EEA46A 		vmul.f32	s13, s13, s9
 2734              	.LVL216:
 693:src/main.cpp  ****             };
 2735              		.loc 6 693 57 view .LVU929
 2736              	.LBE1159:
 2737              	.LBE1163:
 811:src/main.cpp  ****             float bc  = smootherstep2(ss3) * VOICE.fold_max; // ceiling is voice-defined
 2738              		.loc 6 811 13 is_stmt 1 view .LVU930
 2739              	.LBB1164:
 2740              	.LBI1164:
 691:src/main.cpp  ****                 x = x<0?0:x>1?1:x;
 2741              		.loc 6 691 33 view .LVU931
 2742              	.LBB1165:
 692:src/main.cpp  ****                 return x*x*x*(x*(x*6.0f - 15.0f) + 10.0f);
 2743              		.loc 6 692 17 view .LVU932
 692:src/main.cpp  ****                 return x*x*x*(x*(x*6.0f - 15.0f) + 10.0f);
 2744              		.loc 6 692 24 is_stmt 0 view .LVU933
 2745 095c F5EEC06A 		vcmpe.f32	s13, #0
 2746 0960 F1EE10FA 		vmrs	APSR_nzcv, FPSCR
 2747 0964 40F19F87 		bpl	.L477
 2748              	.LBE1165:
 2749              	.LBE1164:
 812:src/main.cpp  **** 
 813:src/main.cpp  ****             // Detune: smoothstep on position offset from centre
 814:src/main.cpp  ****             auto smoothstep2 = [](float x) -> float {
 815:src/main.cpp  ****                 x = x<0?0:x>1?1:x;
 816:src/main.cpp  ****                 return x*x*(3.0f - 2.0f*x);
 817:src/main.cpp  ****             };
 818:src/main.cpp  ****             // Detune amount scales with pressure via smoothstep ŌĆö no detune at low pressure
 819:src/main.cpp  ****             float det_prs = smoothstep2(prs01);
 820:src/main.cpp  **** 
 821:src/main.cpp  ****             // Ring mod: smoothstep, only above 85% pressure (ceiling voice-defined)
 822:src/main.cpp  ****             float rm_in = clampf((prs01 - 0.85f) / 0.15f, 0.0f, 1.0f);
 2750              		.loc 6 822 41 view .LVU934
 2751 0968 DFED846A 		vldr.32	s13, .L534+40
 2752              	.LVL217:
 2753              		.loc 6 822 33 view .LVU935
 2754 096c 9FED846A 		vldr.32	s12, .L534+44
 2755              		.loc 6 822 41 view .LVU936
 2756 0970 77EEE66A 		vsub.f32	s13, s15, s13
 2757              		.loc 6 822 33 view .LVU937
 2758 0974 9FED837A 		vldr.32	s14, .L534+48
 2759              	.LVL218:
 2760              		.loc 6 822 33 view .LVU938
 2761 0978 86EE865A 		vdiv.f32	s10, s13, s12
 2762              	.L224:
 2763              	.LBB1172:
 2764              	.LBB1166:
ARM GAS  /tmp/claude-502/cc2bPfvH.s 			page 98


 693:src/main.cpp  ****             };
 2765              		.loc 6 693 17 is_stmt 1 view .LVU939
 2766              	.LBE1166:
 2767              	.LBE1172:
 2768              	.LBB1173:
 2769              	.LBB1174:
 815:src/main.cpp  ****                 return x*x*(3.0f - 2.0f*x);
 2770              		.loc 6 815 24 is_stmt 0 view .LVU940
 2771 097c 9FED816A 		vldr.32	s12, .L534+48
 2772              	.LBE1174:
 2773              	.LBE1173:
 811:src/main.cpp  **** 
 2774              		.loc 6 811 52 view .LVU941
 2775 0980 9423     		movs	r3, #148
 2776 0982 059A     		ldr	r2, [sp, #20]
 2777 0984 03FB0523 		mla	r3, r3, r5, r2
 2778              	.LBB1180:
 2779              	.LBB1175:
 815:src/main.cpp  ****                 return x*x*(3.0f - 2.0f*x);
 2780              		.loc 6 815 24 view .LVU942
 2781 0988 F4EEC67A 		vcmpe.f32	s15, s12
 2782              	.LBE1175:
 2783              	.LBE1180:
 811:src/main.cpp  **** 
 2784              		.loc 6 811 52 view .LVU943
 2785 098c D3ED186A 		vldr.32	s13, [r3, #96]
 2786              	.LBB1181:
 2787              	.LBB1176:
 815:src/main.cpp  ****                 return x*x*(3.0f - 2.0f*x);
 2788              		.loc 6 815 24 view .LVU944
 2789 0990 F1EE10FA 		vmrs	APSR_nzcv, FPSCR
 2790              	.LBE1176:
 2791              	.LBE1181:
 811:src/main.cpp  **** 
 2792              		.loc 6 811 52 view .LVU945
 2793 0994 27EE267A 		vmul.f32	s14, s14, s13
 2794              	.LVL219:
 814:src/main.cpp  ****                 x = x<0?0:x>1?1:x;
 2795              		.loc 6 814 13 is_stmt 1 view .LVU946
 819:src/main.cpp  **** 
 2796              		.loc 6 819 13 view .LVU947
 2797              	.LBB1182:
 2798              	.LBI1173:
 814:src/main.cpp  ****                 x = x<0?0:x>1?1:x;
 2799              		.loc 6 814 32 view .LVU948
 2800              	.LBB1177:
 815:src/main.cpp  ****                 return x*x*(3.0f - 2.0f*x);
 2801              		.loc 6 815 17 view .LVU949
 815:src/main.cpp  ****                 return x*x*(3.0f - 2.0f*x);
 2802              		.loc 6 815 24 is_stmt 0 view .LVU950
 2803 0998 00F1DD85 		bmi	.L506
 815:src/main.cpp  ****                 return x*x*(3.0f - 2.0f*x);
 2804              		.loc 6 815 30 view .LVU951
 2805 099c F7EE006A 		vmov.f32	s13, #1.0e+0
 2806 09a0 F4EEE67A 		vcmpe.f32	s15, s13
 2807 09a4 F1EE10FA 		vmrs	APSR_nzcv, FPSCR
 2808 09a8 0BDC     		bgt	.L229
ARM GAS  /tmp/claude-502/cc2bPfvH.s 			page 99


 816:src/main.cpp  ****             };
 2809              		.loc 6 816 34 view .LVU952
 2810 09aa F0EE004A 		vmov.f32	s9, #2.0e+0
 2811 09ae B0EE086A 		vmov.f32	s12, #3.0e+0
 2812              	.LBE1177:
 2813              	.LBE1182:
 2814              	.LBB1183:
 2815              	.LBB1151:
 693:src/main.cpp  ****             };
 2816              		.loc 6 693 25 view .LVU953
 2817 09b2 67EEA76A 		vmul.f32	s13, s15, s15
 2818              	.LBE1151:
 2819              	.LBE1183:
 2820              	.LBB1184:
 2821              	.LBB1178:
 816:src/main.cpp  ****             };
 2822              		.loc 6 816 34 view .LVU954
 2823 09b6 A7EEE46A 		vfms.f32	s12, s15, s9
 816:src/main.cpp  ****             };
 2824              		.loc 6 816 42 view .LVU955
 2825 09ba 66EE867A 		vmul.f32	s15, s13, s12
 2826              	.LBE1178:
 2827              	.LBE1184:
 823:src/main.cpp  ****             float rm    = smoothstep2(rm_in) * VOICE.ringmod_max;
 824:src/main.cpp  **** 
 825:src/main.cpp  ****             g_target_detune = detune_pos * det_prs; // pressure gates detune amount
 2828              		.loc 6 825 42 view .LVU956
 2829 09be 65EEA75A 		vmul.f32	s11, s11, s15
 2830              	.L229:
 2831              	.LBB1185:
 2832              	.LBB1179:
 816:src/main.cpp  ****             };
 2833              		.loc 6 816 17 is_stmt 1 view .LVU957
 2834              	.LVL220:
 816:src/main.cpp  ****             };
 2835              		.loc 6 816 17 is_stmt 0 view .LVU958
 2836              	.LBE1179:
 2837              	.LBE1185:
 822:src/main.cpp  ****             float rm    = smoothstep2(rm_in) * VOICE.ringmod_max;
 2838              		.loc 6 822 13 is_stmt 1 view .LVU959
 2839              	.LBB1186:
 2840              	.LBI1186:
  12:src/dsp.h     ****     return v<lo?lo:v>hi?hi:v;
 2841              		.loc 9 12 21 view .LVU960
 2842              	.LBB1187:
 2843              		.loc 9 13 5 view .LVU961
 2844              		.loc 9 13 16 is_stmt 0 view .LVU962
 2845 09c2 B5EEC05A 		vcmpe.f32	s10, #0
 2846 09c6 F1EE10FA 		vmrs	APSR_nzcv, FPSCR
 2847 09ca 00F1AF84 		bmi	.L332
 2848              		.loc 9 13 24 view .LVU963
 2849 09ce F7EE007A 		vmov.f32	s15, #1.0e+0
 2850 09d2 B4EEE75A 		vcmpe.f32	s10, s15
 2851 09d6 F1EE10FA 		vmrs	APSR_nzcv, FPSCR
 2852 09da 09DC     		bgt	.L230
 2853              	.LVL221:
 2854              		.loc 9 13 24 view .LVU964
ARM GAS  /tmp/claude-502/cc2bPfvH.s 			page 100


 2855              	.LBE1187:
 2856              	.LBE1186:
 823:src/main.cpp  **** 
 2857              		.loc 6 823 13 is_stmt 1 view .LVU965
 2858              	.LBB1189:
 2859              	.LBI1189:
 814:src/main.cpp  ****                 x = x<0?0:x>1?1:x;
 2860              		.loc 6 814 32 view .LVU966
 2861              	.LBB1190:
 815:src/main.cpp  ****                 return x*x*(3.0f - 2.0f*x);
 2862              		.loc 6 815 17 view .LVU967
 816:src/main.cpp  ****             };
 2863              		.loc 6 816 34 is_stmt 0 view .LVU968
 2864 09dc B0EE006A 		vmov.f32	s12, #2.0e+0
 2865 09e0 F0EE086A 		vmov.f32	s13, #3.0e+0
 816:src/main.cpp  ****             };
 2866              		.loc 6 816 25 view .LVU969
 2867 09e4 65EE057A 		vmul.f32	s15, s10, s10
 816:src/main.cpp  ****             };
 2868              		.loc 6 816 34 view .LVU970
 2869 09e8 E5EE466A 		vfms.f32	s13, s10, s12
 816:src/main.cpp  ****             };
 2870              		.loc 6 816 42 view .LVU971
 2871 09ec 67EEA67A 		vmul.f32	s15, s15, s13
 2872              	.LVL222:
 2873              	.L230:
 816:src/main.cpp  ****             };
 2874              		.loc 6 816 17 is_stmt 1 view .LVU972
 2875              	.LBE1190:
 2876              	.LBE1189:
 2877              		.loc 6 825 29 is_stmt 0 view .LVU973
 2878 09f0 654B     		ldr	r3, .L534+52
 823:src/main.cpp  **** 
 2879              		.loc 6 823 54 view .LVU974
 2880 09f2 059A     		ldr	r2, [sp, #20]
 2881              		.loc 6 825 29 view .LVU975
 2882 09f4 C3ED005A 		vstr.32	s11, [r3]
 826:src/main.cpp  ****             g_bitcrush      = bc;
 2883              		.loc 6 826 29 view .LVU976
 2884 09f8 644B     		ldr	r3, .L534+56
 2885 09fa 83ED007A 		vstr.32	s14, [r3]
 823:src/main.cpp  **** 
 2886              		.loc 6 823 54 view .LVU977
 2887 09fe 9423     		movs	r3, #148
 2888 0a00 03FB0523 		mla	r3, r3, r5, r2
 2889 0a04 93ED177A 		vldr.32	s14, [r3, #92]
 2890              	.LVL223:
 827:src/main.cpp  ****             g_ringmod       = rm;
 2891              		.loc 6 827 29 view .LVU978
 2892 0a08 614B     		ldr	r3, .L534+60
 823:src/main.cpp  **** 
 2893              		.loc 6 823 54 view .LVU979
 2894 0a0a 67EE877A 		vmul.f32	s15, s15, s14
 2895              	.LVL224:
 825:src/main.cpp  ****             g_bitcrush      = bc;
 2896              		.loc 6 825 13 is_stmt 1 view .LVU980
 826:src/main.cpp  ****             g_bitcrush      = bc;
ARM GAS  /tmp/claude-502/cc2bPfvH.s 			page 101


 2897              		.loc 6 826 13 view .LVU981
 2898              		.loc 6 827 13 view .LVU982
 2899              		.loc 6 827 29 is_stmt 0 view .LVU983
 2900 0a0e C3ED007A 		vstr.32	s15, [r3]
 2901              	.LVL225:
 2902              		.loc 6 827 29 view .LVU984
 2903              	.LBE1140:
 2904              	.LBE1139:
 828:src/main.cpp  ****         }
 829:src/main.cpp  ****         else
 830:src/main.cpp  ****         {
 831:src/main.cpp  ****             // No second finger: return detune to zero, clear effects
 832:src/main.cpp  ****             g_target_detune = 0.0f;
 833:src/main.cpp  ****             g_bitcrush      = 0.0f;
 834:src/main.cpp  ****             g_ringmod       = 0.0f;
 835:src/main.cpp  ****         }
 836:src/main.cpp  **** 
 837:src/main.cpp  ****         // ŌöĆŌöĆ Serial display (throttled; the control loop above runs much faster) ŌöĆ
 838:src/main.cpp  ****         if(System::GetNow() - last_print_ms < PRINT_INTERVAL_MS){
 2905              		.loc 6 838 9 is_stmt 1 view .LVU985
 2906              		.loc 6 838 26 is_stmt 0 view .LVU986
 2907 0a12 FFF7FEFF 		bl	_ZN5daisy6System6GetNowEv
 2908              	.LVL226:
 2909              		.loc 6 838 29 view .LVU987
 2910 0a16 139B     		ldr	r3, [sp, #76]
 2911 0a18 C01A     		subs	r0, r0, r3
 2912              		.loc 6 838 9 view .LVU988
 2913 0a1a 7728     		cmp	r0, #119
 2914 0a1c 40F23D82 		bls	.L507
 2915              	.LVL227:
 2916              	.L232:
 839:src/main.cpp  ****             System::Delay(CONTROL_DELAY_MS);
 840:src/main.cpp  ****             continue;
 841:src/main.cpp  ****         }
 842:src/main.cpp  ****         last_print_ms = System::GetNow();
 2917              		.loc 6 842 9 is_stmt 1 view .LVU989
 2918              		.loc 6 842 39 is_stmt 0 view .LVU990
 2919 0a20 FFF7FEFF 		bl	_ZN5daisy6System6GetNowEv
 2920              	.LVL228:
 843:src/main.cpp  **** 
 844:src/main.cpp  ****         if(g_voice_idx == MULTI_IDX)
 2921              		.loc 6 844 24 view .LVU991
 2922 0a24 5B4B     		ldr	r3, .L534+64
 842:src/main.cpp  **** 
 2923              		.loc 6 842 39 view .LVU992
 2924 0a26 1390     		str	r0, [sp, #76]
 2925              	.LVL229:
 2926              		.loc 6 844 9 is_stmt 1 view .LVU993
 2927              		.loc 6 844 24 is_stmt 0 view .LVU994
 2928 0a28 1B68     		ldr	r3, [r3]
 2929              		.loc 6 844 9 view .LVU995
 2930 0a2a 0C2B     		cmp	r3, #12
 845:src/main.cpp  ****             hw.PrintLine("VOICE %d/%d  Drums [Kick|Snare|Tom|Hat]  -> %s",
 2931              		.loc 6 845 25 view .LVU996
 2932 0a2c 594B     		ldr	r3, .L534+64
 2933 0a2e 1B68     		ldr	r3, [r3]
 2934              	.LVL230:
ARM GAS  /tmp/claude-502/cc2bPfvH.s 			page 102


 2935              	.LBB1212:
 2936              	.LBI1212:
 823:src/voice.h   ****   int p = 0;
 2937              		.loc 8 823 12 is_stmt 1 view .LVU997
 2938              	.LBB1213:
 824:src/voice.h   ****   for (int i = 0; i <= idx && i < NUM_VOICES; i++)
 2939              		.loc 8 824 3 view .LVU998
 825:src/voice.h   ****     if (!VOICES[i].no_cycle)
 2940              		.loc 8 825 3 view .LVU999
 2941              	.LBB1214:
 825:src/voice.h   ****     if (!VOICES[i].no_cycle)
 2942              		.loc 8 825 28 view .LVU1000
 2943 0a30 1E46     		mov	r6, r3
 2944              	.LBE1214:
 2945              	.LBE1213:
 2946              	.LBE1212:
 844:src/main.cpp  ****             hw.PrintLine("VOICE %d/%d  Drums [Kick|Snare|Tom|Hat]  -> %s",
 2947              		.loc 6 844 9 is_stmt 0 view .LVU1001
 2948 0a32 01F01181 		beq	.L508
 846:src/main.cpp  ****                 cycle_pos(g_voice_idx), cycle_total(), VOICE.name);
 847:src/main.cpp  ****         else
 848:src/main.cpp  ****             hw.PrintLine("VOICE %d/%d  %s  (%d-%dHz)",
 2949              		.loc 6 848 13 is_stmt 1 view .LVU1002
 2950 0a36 0C2B     		cmp	r3, #12
 2951              	.LBB1217:
 2952              	.LBB1218:
 824:src/voice.h   ****   for (int i = 0; i <= idx && i < NUM_VOICES; i++)
 2953              		.loc 8 824 7 is_stmt 0 view .LVU1003
 2954 0a38 4FF00001 		mov	r1, #0
 2955 0a3c A8BF     		it	ge
 2956 0a3e 0C26     		movge	r6, #12
 2957              	.LBB1219:
 825:src/voice.h   ****     if (!VOICES[i].no_cycle)
 2958              		.loc 8 825 28 view .LVU1004
 2959 0a40 002B     		cmp	r3, #0
 2960 0a42 09DB     		blt	.L240
 2961 0a44 544A     		ldr	r2, .L534+68
 825:src/voice.h   ****     if (!VOICES[i].no_cycle)
 2962              		.loc 8 825 12 view .LVU1005
 2963 0a46 0B46     		mov	r3, r1
 2964              	.LVL231:
 2965              	.L242:
 826:src/voice.h   ****       p++;
 2966              		.loc 8 826 5 is_stmt 1 view .LVU1006
 2967              		.loc 8 827 7 view .LVU1007
 826:src/voice.h   ****       p++;
 2968              		.loc 8 826 5 is_stmt 0 view .LVU1008
 2969 0a48 92F87C00 		ldrb	r0, [r2, #124]	@ zero_extendqisi2
 825:src/voice.h   ****     if (!VOICES[i].no_cycle)
 2970              		.loc 8 825 3 view .LVU1009
 2971 0a4c 0133     		adds	r3, r3, #1
 2972              	.LVL232:
 825:src/voice.h   ****     if (!VOICES[i].no_cycle)
 2973              		.loc 8 825 28 view .LVU1010
 2974 0a4e 9432     		adds	r2, r2, #148
 826:src/voice.h   ****       p++;
 2975              		.loc 8 826 5 view .LVU1011
ARM GAS  /tmp/claude-502/cc2bPfvH.s 			page 103


 2976 0a50 00B9     		cbnz	r0, .L241
 2977              		.loc 8 827 8 view .LVU1012
 2978 0a52 0131     		adds	r1, r1, #1
 2979              	.LVL233:
 2980              	.L241:
 825:src/voice.h   ****     if (!VOICES[i].no_cycle)
 2981              		.loc 8 825 3 is_stmt 1 view .LVU1013
 825:src/voice.h   ****     if (!VOICES[i].no_cycle)
 2982              		.loc 8 825 28 view .LVU1014
 2983 0a54 B342     		cmp	r3, r6
 2984 0a56 F7DD     		ble	.L242
 2985              	.LVL234:
 2986              	.L240:
 825:src/voice.h   ****     if (!VOICES[i].no_cycle)
 2987              		.loc 8 825 28 is_stmt 0 view .LVU1015
 2988              	.LBE1219:
 824:src/voice.h   ****   for (int i = 0; i <= idx && i < NUM_VOICES; i++)
 2989              		.loc 8 824 7 view .LVU1016
 2990 0a58 4F4B     		ldr	r3, .L534+68
 2991              	.LBE1218:
 2992              	.LBE1217:
 2993              	.LBB1220:
 2994              	.LBB1221:
 817:src/voice.h   ****   for (int i = 0; i < NUM_VOICES; i++)
 2995              		.loc 8 817 7 view .LVU1017
 2996 0a5a 0022     		movs	r2, #0
 2997              	.L244:
 2998              	.LVL235:
 2999              	.LBB1222:
 819:src/voice.h   ****       n++;
 3000              		.loc 8 819 5 is_stmt 1 view .LVU1018
 820:src/voice.h   ****   return n;
 3001              		.loc 8 820 7 view .LVU1019
 819:src/voice.h   ****       n++;
 3002              		.loc 8 819 5 is_stmt 0 view .LVU1020
 3003 0a5c 93F87C00 		ldrb	r0, [r3, #124]	@ zero_extendqisi2
 818:src/voice.h   ****     if (!VOICES[i].no_cycle)
 3004              		.loc 8 818 21 view .LVU1021
 3005 0a60 9433     		adds	r3, r3, #148
 819:src/voice.h   ****       n++;
 3006              		.loc 8 819 5 view .LVU1022
 3007 0a62 00B9     		cbnz	r0, .L243
 820:src/voice.h   ****   return n;
 3008              		.loc 8 820 8 view .LVU1023
 3009 0a64 0132     		adds	r2, r2, #1
 3010              	.LVL236:
 3011              	.L243:
 818:src/voice.h   ****     if (!VOICES[i].no_cycle)
 3012              		.loc 8 818 3 is_stmt 1 view .LVU1024
 818:src/voice.h   ****     if (!VOICES[i].no_cycle)
 3013              		.loc 8 818 21 view .LVU1025
 3014 0a66 4D48     		ldr	r0, .L534+72
 3015 0a68 9842     		cmp	r0, r3
 3016 0a6a F7D1     		bne	.L244
 818:src/voice.h   ****     if (!VOICES[i].no_cycle)
 3017              		.loc 8 818 21 is_stmt 0 view .LVU1026
 3018              	.LBE1222:
ARM GAS  /tmp/claude-502/cc2bPfvH.s 			page 104


 821:src/voice.h   **** }
 3019              		.loc 8 821 3 is_stmt 1 view .LVU1027
 3020              	.LVL237:
 821:src/voice.h   **** }
 3021              		.loc 8 821 3 is_stmt 0 view .LVU1028
 3022              	.LBE1221:
 3023              	.LBE1220:
 3024              	.LBB1223:
 3025              	.LBI1223:
 126:/Users/reza.kalfane/Workspaces/Daisy/DaisyExamples/libDaisy/src/daisy_seed.h ****     {
 3026              		.loc 1 126 17 is_stmt 1 view .LVU1029
 3027              	.LBE1223:
 849:src/main.cpp  ****                 cycle_pos(g_voice_idx), cycle_total(), VOICE.name,
 3028              		.loc 6 849 62 is_stmt 0 view .LVU1030
 3029 0a6c 9423     		movs	r3, #148
 3030              	.LBB1227:
 3031              	.LBB1224:
 128:/Users/reza.kalfane/Workspaces/Daisy/DaisyExamples/libDaisy/src/daisy_seed.h ****     }
 3032              		.loc 1 128 23 view .LVU1031
 3033 0a6e 4C48     		ldr	r0, .L534+76
 3034              	.LBE1224:
 3035              	.LBE1227:
 3036              		.loc 6 849 62 view .LVU1032
 3037 0a70 03FB05F5 		mul	r5, r3, r5
 3038              	.LVL238:
 3039              		.loc 6 849 62 view .LVU1033
 3040 0a74 059B     		ldr	r3, [sp, #20]
 3041 0a76 5E19     		adds	r6, r3, r5
 3042              	.LBB1228:
 3043              	.LBB1225:
 128:/Users/reza.kalfane/Workspaces/Daisy/DaisyExamples/libDaisy/src/daisy_seed.h ****     }
 3044              		.loc 1 128 23 view .LVU1034
 3045 0a78 5B59     		ldr	r3, [r3, r5]
 3046              	.LBE1225:
 3047              	.LBE1228:
 848:src/main.cpp  ****                 cycle_pos(g_voice_idx), cycle_total(), VOICE.name,
 3048              		.loc 6 848 25 view .LVU1035
 3049 0a7a 96ED027A 		vldr.32	s14, [r6, #8]
 3050 0a7e D6ED017A 		vldr.32	s15, [r6, #4]
 3051 0a82 BDEEC77A 		vcvt.s32.f32	s14, s14
 3052 0a86 FDEEE77A 		vcvt.s32.f32	s15, s15
 3053              	.LBB1229:
 3054              	.LBB1226:
 128:/Users/reza.kalfane/Workspaces/Daisy/DaisyExamples/libDaisy/src/daisy_seed.h ****     }
 3055              		.loc 1 128 23 view .LVU1036
 3056 0a8a 8DED017A 		vstr.32	s14, [sp, #4]	@ int
 3057 0a8e CDED007A 		vstr.32	s15, [sp]	@ int
 3058 0a92 FFF7FEFF 		bl	_ZN5daisy6LoggerILNS_17LoggerDestinationE1EE9PrintLineEPKcz
 3059              	.LVL239:
 3060              	.L239:
 128:/Users/reza.kalfane/Workspaces/Daisy/DaisyExamples/libDaisy/src/daisy_seed.h ****     }
 3061              		.loc 1 128 23 view .LVU1037
 3062              	.LBE1226:
 3063              	.LBE1229:
 850:src/main.cpp  ****                 (int)VOICE.freq_low, (int)VOICE.freq_high);
 851:src/main.cpp  ****         hw.PrintLine(" CH | DELTA | BAR");
 3064              		.loc 6 851 9 is_stmt 1 view .LVU1038
ARM GAS  /tmp/claude-502/cc2bPfvH.s 			page 105


 3065              	.LBB1230:
 3066              	.LBI1230:
 126:/Users/reza.kalfane/Workspaces/Daisy/DaisyExamples/libDaisy/src/daisy_seed.h ****     {
 3067              		.loc 1 126 17 view .LVU1039
 3068              	.LBB1231:
 128:/Users/reza.kalfane/Workspaces/Daisy/DaisyExamples/libDaisy/src/daisy_seed.h ****     }
 3069              		.loc 1 128 23 is_stmt 0 view .LVU1040
 3070 0a96 4348     		ldr	r0, .L534+80
 3071              	.LBE1231:
 3072              	.LBE1230:
 3073              	.LBB1233:
 3074              	.LBB1234:
 3075              	.LBB1235:
 3076              	.LBB1236:
  91:src/main.cpp  ****     if(n>w)n=w;
 3077              		.loc 6 91 42 view .LVU1041
 3078 0a98 4FEA6408 		asr	r8, r4, #1
 3079              	.LBE1236:
 3080              	.LBE1235:
 3081              	.LBE1234:
 3082              	.LBE1233:
 3083              	.LBB1255:
 3084              	.LBB1232:
 128:/Users/reza.kalfane/Workspaces/Daisy/DaisyExamples/libDaisy/src/daisy_seed.h ****     }
 3085              		.loc 1 128 23 view .LVU1042
 3086 0a9c FFF7FEFF 		bl	_ZN5daisy6LoggerILNS_17LoggerDestinationE1EE9PrintLineEPKcz
 3087              	.LVL240:
 128:/Users/reza.kalfane/Workspaces/Daisy/DaisyExamples/libDaisy/src/daisy_seed.h ****     }
 3088              		.loc 1 128 23 view .LVU1043
 3089              	.LBE1232:
 3090              	.LBE1255:
 852:src/main.cpp  ****         hw.PrintLine("----+-------+--------------------");
 3091              		.loc 6 852 9 is_stmt 1 view .LVU1044
 3092              	.LBB1256:
 3093              	.LBI1256:
 126:/Users/reza.kalfane/Workspaces/Daisy/DaisyExamples/libDaisy/src/daisy_seed.h ****     {
 3094              		.loc 1 126 17 view .LVU1045
 3095              	.LBB1257:
 128:/Users/reza.kalfane/Workspaces/Daisy/DaisyExamples/libDaisy/src/daisy_seed.h ****     }
 3096              		.loc 1 128 23 is_stmt 0 view .LVU1046
 3097 0aa0 4148     		ldr	r0, .L534+84
 3098 0aa2 FFF7FEFF 		bl	_ZN5daisy6LoggerILNS_17LoggerDestinationE1EE9PrintLineEPKcz
 3099              	.LVL241:
 128:/Users/reza.kalfane/Workspaces/Daisy/DaisyExamples/libDaisy/src/daisy_seed.h ****     }
 3100              		.loc 1 128 23 view .LVU1047
 3101              	.LBE1257:
 3102              	.LBE1256:
 853:src/main.cpp  ****         for(int i=0;i<N_CH;i++){
 3103              		.loc 6 853 9 is_stmt 1 view .LVU1048
 3104              	.LBB1259:
 3105              		.loc 6 853 22 view .LVU1049
 3106              		.loc 6 853 17 is_stmt 0 view .LVU1050
 3107 0aa6 0026     		movs	r6, #0
 3108              	.LBE1259:
 3109              	.LBB1260:
 3110              	.LBB1258:
 128:/Users/reza.kalfane/Workspaces/Daisy/DaisyExamples/libDaisy/src/daisy_seed.h ****     }
ARM GAS  /tmp/claude-502/cc2bPfvH.s 			page 106


 3111              		.loc 1 128 23 view .LVU1051
 3112 0aa8 0494     		str	r4, [sp, #16]
 3113 0aaa 129C     		ldr	r4, [sp, #72]
 3114              	.LVL242:
 3115              	.L251:
 128:/Users/reza.kalfane/Workspaces/Daisy/DaisyExamples/libDaisy/src/daisy_seed.h ****     }
 3116              		.loc 1 128 23 view .LVU1052
 3117              	.LBE1258:
 3118              	.LBE1260:
 3119              	.LBB1261:
 3120              	.LBB1252:
 854:src/main.cpp  ****             make_bar(bar,delta[i],max_delta,20);
 3121              		.loc 6 854 13 is_stmt 1 view .LVU1053
 3122              		.loc 6 854 21 is_stmt 0 view .LVU1054
 3123 0aac 54F8042B 		ldr	r2, [r4], #4
 3124              	.LVL243:
 3125              	.LBB1241:
 3126              	.LBI1235:
  89:src/main.cpp  **** {
 3127              		.loc 6 89 6 is_stmt 1 view .LVU1055
 3128              	.LBB1239:
  91:src/main.cpp  ****     if(n>w)n=w;
 3129              		.loc 6 91 5 view .LVU1056
  91:src/main.cpp  ****     if(n>w)n=w;
 3130              		.loc 6 91 25 is_stmt 0 view .LVU1057
 3131 0ab0 002A     		cmp	r2, #0
 3132 0ab2 40F3CC84 		ble	.L336
  91:src/main.cpp  ****     if(n>w)n=w;
 3133              		.loc 6 91 36 view .LVU1058
 3134 0ab6 02EB8200 		add	r0, r2, r2, lsl #2
  91:src/main.cpp  ****     if(n>w)n=w;
 3135              		.loc 6 91 25 view .LVU1059
 3136 0aba 049B     		ldr	r3, [sp, #16]
  91:src/main.cpp  ****     if(n>w)n=w;
 3137              		.loc 6 91 38 view .LVU1060
 3138 0abc 08EB8000 		add	r0, r8, r0, lsl #2
  91:src/main.cpp  ****     if(n>w)n=w;
 3139              		.loc 6 91 25 view .LVU1061
 3140 0ac0 B0FBF3F0 		udiv	r0, r0, r3
 3141 0ac4 1428     		cmp	r0, #20
 3142 0ac6 A8BF     		it	ge
 3143 0ac8 1420     		movge	r0, #20
 3144              	.L245:
  92:src/main.cpp  ****     out[0]='[';
 3145              		.loc 6 92 5 is_stmt 1 view .LVU1062
  93:src/main.cpp  ****     for(int i=0;i<w;i++)out[1+i]=(i<n)?'#':' ';
 3146              		.loc 6 93 5 view .LVU1063
  93:src/main.cpp  ****     for(int i=0;i<w;i++)out[1+i]=(i<n)?'#':' ';
 3147              		.loc 6 93 11 is_stmt 0 view .LVU1064
 3148 0aca 5B23     		movs	r3, #91
 3149 0acc 0DF23D17 		addw	r7, sp, #317
 3150 0ad0 4FA9     		add	r1, sp, #316
 3151              	.LVL244:
  93:src/main.cpp  ****     for(int i=0;i<w;i++)out[1+i]=(i<n)?'#':' ';
 3152              		.loc 6 93 11 view .LVU1065
 3153 0ad2 8DF83C31 		strb	r3, [sp, #316]
  94:src/main.cpp  ****     out[1+w]=']';out[2+w]='\0';
ARM GAS  /tmp/claude-502/cc2bPfvH.s 			page 107


 3154              		.loc 6 94 5 is_stmt 1 view .LVU1066
 3155              	.LVL245:
 3156              	.LBB1237:
  94:src/main.cpp  ****     out[1+w]=']';out[2+w]='\0';
 3157              		.loc 6 94 18 view .LVU1067
 3158              	.LBE1237:
  93:src/main.cpp  ****     for(int i=0;i<w;i++)out[1+i]=(i<n)?'#':' ';
 3159              		.loc 6 93 11 is_stmt 0 view .LVU1068
 3160 0ad6 3B46     		mov	r3, r7
 3161 0ad8 CD43     		mvns	r5, r1
 3162              	.LVL246:
 3163              	.L247:
 3164              	.LBB1238:
  94:src/main.cpp  ****     out[1+w]=']';out[2+w]='\0';
 3165              		.loc 6 94 25 is_stmt 1 view .LVU1069
  94:src/main.cpp  ****     out[1+w]=']';out[2+w]='\0';
 3166              		.loc 6 94 39 is_stmt 0 view .LVU1070
 3167 0ada 5919     		adds	r1, r3, r5
 3168 0adc 8142     		cmp	r1, r0
 3169 0ade ACBF     		ite	ge
 3170 0ae0 2021     		movge	r1, #32
 3171 0ae2 2321     		movlt	r1, #35
  94:src/main.cpp  ****     out[1+w]=']';out[2+w]='\0';
 3172              		.loc 6 94 33 view .LVU1071
 3173 0ae4 03F8011B 		strb	r1, [r3], #1
 3174              	.LVL247:
  94:src/main.cpp  ****     out[1+w]=']';out[2+w]='\0';
 3175              		.loc 6 94 5 is_stmt 1 view .LVU1072
  94:src/main.cpp  ****     out[1+w]=']';out[2+w]='\0';
 3176              		.loc 6 94 18 view .LVU1073
 3177 0ae8 9B45     		cmp	fp, r3
 3178 0aea F6D1     		bne	.L247
 3179              	.LBE1238:
  95:src/main.cpp  **** }
 3180              		.loc 6 95 5 view .LVU1074
  95:src/main.cpp  **** }
 3181              		.loc 6 95 13 is_stmt 0 view .LVU1075
 3182 0aec 5D23     		movs	r3, #93
 3183              	.LVL248:
  95:src/main.cpp  **** }
 3184              		.loc 6 95 13 view .LVU1076
 3185 0aee 8DF85131 		strb	r3, [sp, #337]
  95:src/main.cpp  **** }
 3186              		.loc 6 95 18 is_stmt 1 view .LVU1077
  95:src/main.cpp  **** }
 3187              		.loc 6 95 26 is_stmt 0 view .LVU1078
 3188 0af2 0023     		movs	r3, #0
 3189 0af4 8DF85231 		strb	r3, [sp, #338]
 3190              	.LVL249:
  95:src/main.cpp  **** }
 3191              		.loc 6 95 26 view .LVU1079
 3192              	.LBE1239:
 3193              	.LBE1241:
 3194              	.LBB1242:
 855:src/main.cpp  ****             char mk=' ';
 856:src/main.cpp  ****             for(int s=0;s<2;s++)
 3195              		.loc 6 856 26 is_stmt 1 view .LVU1080
ARM GAS  /tmp/claude-502/cc2bPfvH.s 			page 108


 857:src/main.cpp  ****                 if(tracked[s].alive&&i==tracked[s].peak_ch)mk=(char)('1'+s);
 3196              		.loc 6 857 17 view .LVU1081
 3197 0af8 9AF80030 		ldrb	r3, [r10]	@ zero_extendqisi2
 3198 0afc 002B     		cmp	r3, #0
 3199 0afe 00F0A384 		beq	.L338
 3200              		.loc 6 857 36 is_stmt 0 view .LVU1082
 3201 0b02 DAF80C30 		ldr	r3, [r10, #12]
 3202              	.LBE1242:
 855:src/main.cpp  ****             char mk=' ';
 3203              		.loc 6 855 18 view .LVU1083
 3204 0b06 B342     		cmp	r3, r6
 3205 0b08 0CBF     		ite	eq
 3206 0b0a 3123     		moveq	r3, #49
 3207 0b0c 2023     		movne	r3, #32
 3208              	.L248:
 3209              	.LVL250:
 3210              	.LBB1243:
 856:src/main.cpp  ****                 if(tracked[s].alive&&i==tracked[s].peak_ch)mk=(char)('1'+s);
 3211              		.loc 6 856 13 is_stmt 1 view .LVU1084
 856:src/main.cpp  ****                 if(tracked[s].alive&&i==tracked[s].peak_ch)mk=(char)('1'+s);
 3212              		.loc 6 856 26 view .LVU1085
 3213              		.loc 6 857 17 view .LVU1086
 3214 0b0e 9AF81410 		ldrb	r1, [r10, #20]	@ zero_extendqisi2
 3215 0b12 21B1     		cbz	r1, .L250
 3216              		.loc 6 857 36 is_stmt 0 view .LVU1087
 3217 0b14 DAF82010 		ldr	r1, [r10, #32]
 3218              	.LBE1243:
 3219              	.LBB1244:
 3220              	.LBB1245:
 128:/Users/reza.kalfane/Workspaces/Daisy/DaisyExamples/libDaisy/src/daisy_seed.h ****     }
 3221              		.loc 1 128 23 view .LVU1088
 3222 0b18 B142     		cmp	r1, r6
 3223 0b1a 08BF     		it	eq
 3224 0b1c 3223     		moveq	r3, #50
 3225              	.LVL251:
 3226              	.L250:
 128:/Users/reza.kalfane/Workspaces/Daisy/DaisyExamples/libDaisy/src/daisy_seed.h ****     }
 3227              		.loc 1 128 23 view .LVU1089
 3228              	.LBE1245:
 3229              	.LBE1244:
 3230              	.LBB1248:
 856:src/main.cpp  ****                 if(tracked[s].alive&&i==tracked[s].peak_ch)mk=(char)('1'+s);
 3231              		.loc 6 856 13 is_stmt 1 view .LVU1090
 856:src/main.cpp  ****                 if(tracked[s].alive&&i==tracked[s].peak_ch)mk=(char)('1'+s);
 3232              		.loc 6 856 26 view .LVU1091
 3233              	.LBE1248:
 858:src/main.cpp  ****             hw.PrintLine(" %2d | %5d | %s %c",i,(int)delta[i],bar,mk);
 3234              		.loc 6 858 13 view .LVU1092
 3235              	.LBB1249:
 3236              	.LBI1244:
 126:/Users/reza.kalfane/Workspaces/Daisy/DaisyExamples/libDaisy/src/daisy_seed.h ****     {
 3237              		.loc 1 126 17 view .LVU1093
 3238              	.LBB1246:
 128:/Users/reza.kalfane/Workspaces/Daisy/DaisyExamples/libDaisy/src/daisy_seed.h ****     }
 3239              		.loc 1 128 23 is_stmt 0 view .LVU1094
 3240 0b1e 3146     		mov	r1, r6
 3241              	.LBE1246:
ARM GAS  /tmp/claude-502/cc2bPfvH.s 			page 109


 3242              	.LBE1249:
 3243              	.LBE1252:
 853:src/main.cpp  ****             make_bar(bar,delta[i],max_delta,20);
 3244              		.loc 6 853 9 view .LVU1095
 3245 0b20 0136     		adds	r6, r6, #1
 3246              	.LVL252:
 3247              	.LBB1253:
 3248              	.LBB1250:
 3249              	.LBB1247:
 128:/Users/reza.kalfane/Workspaces/Daisy/DaisyExamples/libDaisy/src/daisy_seed.h ****     }
 3250              		.loc 1 128 23 view .LVU1096
 3251 0b22 0093     		str	r3, [sp]
 3252 0b24 4FAB     		add	r3, sp, #316
 3253              	.LVL253:
 128:/Users/reza.kalfane/Workspaces/Daisy/DaisyExamples/libDaisy/src/daisy_seed.h ****     }
 3254              		.loc 1 128 23 view .LVU1097
 3255 0b26 2148     		ldr	r0, .L534+88
 3256 0b28 FFF7FEFF 		bl	_ZN5daisy6LoggerILNS_17LoggerDestinationE1EE9PrintLineEPKcz
 3257              	.LVL254:
 128:/Users/reza.kalfane/Workspaces/Daisy/DaisyExamples/libDaisy/src/daisy_seed.h ****     }
 3258              		.loc 1 128 23 view .LVU1098
 3259              	.LBE1247:
 3260              	.LBE1250:
 3261              	.LBE1253:
 853:src/main.cpp  ****             make_bar(bar,delta[i],max_delta,20);
 3262              		.loc 6 853 9 is_stmt 1 view .LVU1099
 853:src/main.cpp  ****             make_bar(bar,delta[i],max_delta,20);
 3263              		.loc 6 853 22 view .LVU1100
 3264 0b2c 0C2E     		cmp	r6, #12
 3265 0b2e BDD1     		bne	.L251
 3266              	.LBE1261:
 859:src/main.cpp  ****         }
 860:src/main.cpp  **** 
 861:src/main.cpp  ****         make_pos_bar(pos_bar,40);
 3267              		.loc 6 861 9 view .LVU1101
 3268              	.LVL255:
 3269              	.LBB1262:
 3270              	.LBI1262:
  98:src/main.cpp  **** {
 3271              		.loc 6 98 6 view .LVU1102
 3272              	.LBB1263:
 100:src/main.cpp  ****     for(int i=0;i<w;i++)out[1+i]='-';
 3273              		.loc 6 100 5 view .LVU1103
 100:src/main.cpp  ****     for(int i=0;i<w;i++)out[1+i]='-';
 3274              		.loc 6 100 11 is_stmt 0 view .LVU1104
 3275 0b30 7C24     		movs	r4, #124
 3276              	.LBB1264:
 101:src/main.cpp  ****     out[1+w]='|';out[2+w]='\0';
 3277              		.loc 6 101 33 view .LVU1105
 3278 0b32 2822     		movs	r2, #40
 3279 0b34 2D21     		movs	r1, #45
 3280 0b36 0DF28D10 		addw	r0, sp, #397
 3281              	.LBE1264:
 100:src/main.cpp  ****     for(int i=0;i<w;i++)out[1+i]='-';
 3282              		.loc 6 100 11 view .LVU1106
 3283 0b3a 8DF88C41 		strb	r4, [sp, #396]
 101:src/main.cpp  ****     out[1+w]='|';out[2+w]='\0';
ARM GAS  /tmp/claude-502/cc2bPfvH.s 			page 110


 3284              		.loc 6 101 5 is_stmt 1 view .LVU1107
 3285              	.LVL256:
 3286              	.LBB1265:
 101:src/main.cpp  ****     out[1+w]='|';out[2+w]='\0';
 3287              		.loc 6 101 18 view .LVU1108
 3288              	.LBE1265:
 102:src/main.cpp  ****     for(int slot=0;slot<MAX_FINGERS;slot++){
 3289              		.loc 6 102 26 is_stmt 0 view .LVU1109
 3290 0b3e A846     		mov	r8, r5
 3291              	.LBB1266:
 101:src/main.cpp  ****     out[1+w]='|';out[2+w]='\0';
 3292              		.loc 6 101 33 view .LVU1110
 3293 0b40 FFF7FEFF 		bl	memset
 3294              	.LVL257:
 101:src/main.cpp  ****     out[1+w]='|';out[2+w]='\0';
 3295              		.loc 6 101 33 view .LVU1111
 3296              	.LBE1266:
 102:src/main.cpp  ****     for(int slot=0;slot<MAX_FINGERS;slot++){
 3297              		.loc 6 102 5 is_stmt 1 view .LVU1112
 102:src/main.cpp  ****     for(int slot=0;slot<MAX_FINGERS;slot++){
 3298              		.loc 6 102 26 is_stmt 0 view .LVU1113
 3299 0b44 1A4E     		ldr	r6, .L534+92
 3300              	.LVL258:
 102:src/main.cpp  ****     for(int slot=0;slot<MAX_FINGERS;slot++){
 3301              		.loc 6 102 26 view .LVU1114
 3302 0b46 0023     		movs	r3, #0
 102:src/main.cpp  ****     for(int slot=0;slot<MAX_FINGERS;slot++){
 3303              		.loc 6 102 13 view .LVU1115
 3304 0b48 8DF8B541 		strb	r4, [sp, #437]
 102:src/main.cpp  ****     for(int slot=0;slot<MAX_FINGERS;slot++){
 3305              		.loc 6 102 18 is_stmt 1 view .LVU1116
 102:src/main.cpp  ****     for(int slot=0;slot<MAX_FINGERS;slot++){
 3306              		.loc 6 102 26 is_stmt 0 view .LVU1117
 3307 0b4c 3124     		movs	r4, #49
 3308 0b4e 8DF8B631 		strb	r3, [sp, #438]
 3309 0b52 2FE0     		b	.L535
 3310              	.L536:
 3311              		.align	2
 3312              	.L534:
 3313 0b54 00000000 		.word	g_target_freq
 3314 0b58 00000000 		.word	g_target_cutoff
 3315 0b5c EC51383F 		.word	1060655596
 3316 0b60 00000000 		.word	g_vibrato_depth
 3317 0b64 00000000 		.word	g_target_drive
 3318 0b68 00000000 		.word	g_finger_on
 3319 0b6c 00000000 		.word	g_amp_target
 3320 0b70 20000000 		.word	.LANCHOR0+32
 3321 0b74 00007A44 		.word	1148846080
 3322 0b78 0000C842 		.word	1120403456
 3323 0b7c 9A99593F 		.word	1062836634
 3324 0b80 9A99193E 		.word	1041865114
 3325 0b84 00000000 		.word	0
 3326 0b88 00000000 		.word	g_target_detune
 3327 0b8c 00000000 		.word	g_bitcrush
 3328 0b90 00000000 		.word	g_ringmod
 3329 0b94 00000000 		.word	.LANCHOR1
 3330 0b98 00000000 		.word	.LANCHOR5
ARM GAS  /tmp/claude-502/cc2bPfvH.s 			page 111


 3331 0b9c 84070000 		.word	.LANCHOR5+1924
 3332 0ba0 F0010000 		.word	.LC15
 3333 0ba4 0C020000 		.word	.LC16
 3334 0ba8 20020000 		.word	.LC17
 3335 0bac 44020000 		.word	.LC18
 3336 0bb0 00000000 		.word	tracked
 3337              	.L535:
 103:src/main.cpp  ****         if(!tracked[slot].alive)continue;
 3338              		.loc 6 103 5 is_stmt 1 view .LVU1118
 3339              	.LVL259:
 3340              	.LBB1267:
 103:src/main.cpp  ****         if(!tracked[slot].alive)continue;
 3341              		.loc 6 103 24 view .LVU1119
 3342              	.L254:
 3343              	.LBB1268:
 104:src/main.cpp  ****         int p=(int)(((int64_t)tracked[slot].pos*(w-1)+500)/1000);
 3344              		.loc 6 104 9 view .LVU1120
 105:src/main.cpp  ****         if(p<0)p=0;if(p>=w)p=w-1;
 3345              		.loc 6 105 9 view .LVU1121
 104:src/main.cpp  ****         int p=(int)(((int64_t)tracked[slot].pos*(w-1)+500)/1000);
 3346              		.loc 6 104 9 is_stmt 0 view .LVU1122
 3347 0bb4 96F800E0 		ldrb	lr, [r6]	@ zero_extendqisi2
 105:src/main.cpp  ****         if(p<0)p=0;if(p>=w)p=w-1;
 3348              		.loc 6 105 54 view .LVU1123
 3349 0bb8 4FF0270C 		mov	ip, #39
 3350 0bbc 4FF4FA70 		mov	r0, #500
 3351 0bc0 0021     		movs	r1, #0
 105:src/main.cpp  ****         if(p<0)p=0;if(p>=w)p=w-1;
 3352              		.loc 6 105 59 view .LVU1124
 3353 0bc2 4FF47A72 		mov	r2, #1000
 3354 0bc6 0023     		movs	r3, #0
 104:src/main.cpp  ****         int p=(int)(((int64_t)tracked[slot].pos*(w-1)+500)/1000);
 3355              		.loc 6 104 9 view .LVU1125
 3356 0bc8 BEF1000F 		cmp	lr, #0
 3357 0bcc 10D0     		beq	.L252
 105:src/main.cpp  ****         if(p<0)p=0;if(p>=w)p=w-1;
 3358              		.loc 6 105 59 view .LVU1126
 3359 0bce 7568     		ldr	r5, [r6, #4]
 3360 0bd0 C5FB0C01 		smlal	r0, r1, r5, ip
 3361 0bd4 FFF7FEFF 		bl	__aeabi_ldivmod
 3362              	.LVL260:
 106:src/main.cpp  ****         out[1+p]=(char)('1'+slot);
 3363              		.loc 6 106 20 view .LVU1127
 3364 0bd8 2728     		cmp	r0, #39
 107:src/main.cpp  ****     }
 3365              		.loc 6 107 14 view .LVU1128
 3366 0bda 20EAE070 		bic	r0, r0, r0, asr #31
 3367 0bde 4FF02803 		mov	r3, #40
 106:src/main.cpp  ****         out[1+p]=(char)('1'+slot);
 3368              		.loc 6 106 9 is_stmt 1 view .LVU1129
 106:src/main.cpp  ****         out[1+p]=(char)('1'+slot);
 3369              		.loc 6 106 20 view .LVU1130
 107:src/main.cpp  ****     }
 3370              		.loc 6 107 14 is_stmt 0 view .LVU1131
 3371 0be2 D8BF     		it	le
 3372 0be4 431C     		addle	r3, r0, #1
 107:src/main.cpp  ****     }
ARM GAS  /tmp/claude-502/cc2bPfvH.s 			page 112


 3373              		.loc 6 107 9 is_stmt 1 view .LVU1132
 107:src/main.cpp  ****     }
 3374              		.loc 6 107 17 is_stmt 0 view .LVU1133
 3375 0be6 03F50473 		add	r3, r3, #528
 3376 0bea 6B44     		add	r3, sp, r3
 3377 0bec 03F8844C 		strb	r4, [r3, #-132]
 3378              	.L252:
 3379              	.LBE1268:
 103:src/main.cpp  ****         if(!tracked[slot].alive)continue;
 3380              		.loc 6 103 5 is_stmt 1 view .LVU1134
 103:src/main.cpp  ****         if(!tracked[slot].alive)continue;
 3381              		.loc 6 103 24 view .LVU1135
 3382 0bf0 0134     		adds	r4, r4, #1
 3383 0bf2 1436     		adds	r6, r6, #20
 3384 0bf4 E4B2     		uxtb	r4, r4
 3385 0bf6 352C     		cmp	r4, #53
 3386 0bf8 DCD1     		bne	.L254
 3387              	.LBE1267:
 3388              	.LBE1263:
 3389              	.LBE1262:
 3390              	.LBB1269:
 3391              	.LBB1270:
 128:/Users/reza.kalfane/Workspaces/Daisy/DaisyExamples/libDaisy/src/daisy_seed.h ****     }
 3392              		.loc 1 128 23 is_stmt 0 view .LVU1136
 3393 0bfa 63A9     		add	r1, sp, #396
 3394              	.LVL261:
 128:/Users/reza.kalfane/Workspaces/Daisy/DaisyExamples/libDaisy/src/daisy_seed.h ****     }
 3395              		.loc 1 128 23 view .LVU1137
 3396 0bfc AB48     		ldr	r0, .L537
 3397 0bfe FFF7FEFF 		bl	_ZN5daisy6LoggerILNS_17LoggerDestinationE1EE9PrintLineEPKcz
 3398              	.LVL262:
 128:/Users/reza.kalfane/Workspaces/Daisy/DaisyExamples/libDaisy/src/daisy_seed.h ****     }
 3399              		.loc 1 128 23 view .LVU1138
 3400 0c02 4546     		mov	r5, r8
 3401              	.LVL263:
 128:/Users/reza.kalfane/Workspaces/Daisy/DaisyExamples/libDaisy/src/daisy_seed.h ****     }
 3402              		.loc 1 128 23 view .LVU1139
 3403              	.LBE1270:
 3404              	.LBE1269:
 862:src/main.cpp  ****         hw.PrintLine("\nPOS  %s",pos_bar);
 3405              		.loc 6 862 9 is_stmt 1 view .LVU1140
 3406              	.LBB1272:
 3407              	.LBI1269:
 126:/Users/reza.kalfane/Workspaces/Daisy/DaisyExamples/libDaisy/src/daisy_seed.h ****     {
 3408              		.loc 1 126 17 view .LVU1141
 126:/Users/reza.kalfane/Workspaces/Daisy/DaisyExamples/libDaisy/src/daisy_seed.h ****     {
 3409              		.loc 1 126 17 is_stmt 0 view .LVU1142
 3410              	.LBE1272:
 863:src/main.cpp  **** 
 864:src/main.cpp  ****         // Always print both finger rows ŌĆö inactive shows dashes so line count is stable
 865:src/main.cpp  ****         for(int slot=0;slot<2;slot++){
 3411              		.loc 6 865 9 is_stmt 1 view .LVU1143
 3412              	.LBB1273:
 3413              		.loc 6 865 28 view .LVU1144
 3414 0c04 DDF85880 		ldr	r8, [sp, #88]
 3415              	.LBE1273:
 3416              	.LBB1288:
ARM GAS  /tmp/claude-502/cc2bPfvH.s 			page 113


 3417              	.LBB1271:
 128:/Users/reza.kalfane/Workspaces/Daisy/DaisyExamples/libDaisy/src/daisy_seed.h ****     }
 3418              		.loc 1 128 23 is_stmt 0 view .LVU1145
 3419 0c08 0126     		movs	r6, #1
 3420              	.LVL264:
 128:/Users/reza.kalfane/Workspaces/Daisy/DaisyExamples/libDaisy/src/daisy_seed.h ****     }
 3421              		.loc 1 128 23 view .LVU1146
 3422              	.LBE1271:
 3423              	.LBE1288:
 3424              	.LBB1289:
 866:src/main.cpp  ****             if(tracked[slot].alive){
 3425              		.loc 6 866 13 is_stmt 1 view .LVU1147
 3426 0c0a 0DF24D14 		addw	r4, sp, #333
 3427 0c0e 98F80030 		ldrb	r3, [r8]	@ zero_extendqisi2
 3428 0c12 002B     		cmp	r3, #0
 3429 0c14 00F02484 		beq	.L255
 3430              	.LVL265:
 3431              	.L521:
 867:src/main.cpp  ****                 make_bar(bar,tracked[slot].pressure,100,16);
 3432              		.loc 6 867 17 view .LVU1148
 3433              		.loc 6 867 25 is_stmt 0 view .LVU1149
 3434 0c18 D8F80830 		ldr	r3, [r8, #8]
 3435              	.LVL266:
 3436              	.LBB1274:
 3437              	.LBI1274:
  89:src/main.cpp  **** {
 3438              		.loc 6 89 6 is_stmt 1 view .LVU1150
 3439              	.LBB1275:
  91:src/main.cpp  ****     if(n>w)n=w;
 3440              		.loc 6 91 5 view .LVU1151
  91:src/main.cpp  ****     if(n>w)n=w;
 3441              		.loc 6 91 25 is_stmt 0 view .LVU1152
 3442 0c1c 002B     		cmp	r3, #0
 3443 0c1e 40F30F87 		ble	.L342
  91:src/main.cpp  ****     if(n>w)n=w;
 3444              		.loc 6 91 36 view .LVU1153
 3445 0c22 1801     		lsls	r0, r3, #4
  91:src/main.cpp  ****     if(n>w)n=w;
 3446              		.loc 6 91 25 view .LVU1154
 3447 0c24 A24A     		ldr	r2, .L537+4
  91:src/main.cpp  ****     if(n>w)n=w;
 3448              		.loc 6 91 38 view .LVU1155
 3449 0c26 3230     		adds	r0, r0, #50
  91:src/main.cpp  ****     if(n>w)n=w;
 3450              		.loc 6 91 25 view .LVU1156
 3451 0c28 A2FB0020 		umull	r2, r0, r2, r0
 3452 0c2c 4009     		lsrs	r0, r0, #5
 3453 0c2e 1028     		cmp	r0, #16
 3454 0c30 A8BF     		it	ge
 3455 0c32 1020     		movge	r0, #16
 3456              	.L256:
  92:src/main.cpp  ****     out[0]='[';
 3457              		.loc 6 92 5 is_stmt 1 view .LVU1157
  93:src/main.cpp  ****     for(int i=0;i<w;i++)out[1+i]=(i<n)?'#':' ';
 3458              		.loc 6 93 5 view .LVU1158
  93:src/main.cpp  ****     for(int i=0;i<w;i++)out[1+i]=(i<n)?'#':' ';
 3459              		.loc 6 93 11 is_stmt 0 view .LVU1159
ARM GAS  /tmp/claude-502/cc2bPfvH.s 			page 114


 3460 0c34 5B22     		movs	r2, #91
 3461 0c36 8DF83C21 		strb	r2, [sp, #316]
  94:src/main.cpp  ****     out[1+w]=']';out[2+w]='\0';
 3462              		.loc 6 94 5 is_stmt 1 view .LVU1160
 3463              	.LVL267:
 3464              	.LBB1276:
  94:src/main.cpp  ****     out[1+w]=']';out[2+w]='\0';
 3465              		.loc 6 94 18 view .LVU1161
 3466              	.LBE1276:
  93:src/main.cpp  ****     for(int i=0;i<w;i++)out[1+i]=(i<n)?'#':' ';
 3467              		.loc 6 93 11 is_stmt 0 view .LVU1162
 3468 0c3a 0DF23D12 		addw	r2, sp, #317
 3469              	.LVL268:
 3470              	.L258:
 3471              	.LBB1277:
  94:src/main.cpp  ****     out[1+w]=']';out[2+w]='\0';
 3472              		.loc 6 94 25 is_stmt 1 view .LVU1163
  94:src/main.cpp  ****     out[1+w]=']';out[2+w]='\0';
 3473              		.loc 6 94 39 is_stmt 0 view .LVU1164
 3474 0c3e 5119     		adds	r1, r2, r5
 3475 0c40 8142     		cmp	r1, r0
 3476 0c42 ACBF     		ite	ge
 3477 0c44 2021     		movge	r1, #32
 3478 0c46 2321     		movlt	r1, #35
  94:src/main.cpp  ****     out[1+w]=']';out[2+w]='\0';
 3479              		.loc 6 94 33 view .LVU1165
 3480 0c48 02F8011B 		strb	r1, [r2], #1
 3481              	.LVL269:
  94:src/main.cpp  ****     out[1+w]=']';out[2+w]='\0';
 3482              		.loc 6 94 5 is_stmt 1 view .LVU1166
  94:src/main.cpp  ****     out[1+w]=']';out[2+w]='\0';
 3483              		.loc 6 94 18 view .LVU1167
 3484 0c4c 9442     		cmp	r4, r2
 3485 0c4e F6D1     		bne	.L258
 3486              	.LBE1277:
  95:src/main.cpp  **** }
 3487              		.loc 6 95 5 view .LVU1168
 3488              	.LBE1275:
 3489              	.LBE1274:
 3490              	.LBB1280:
 3491              	.LBB1281:
 128:/Users/reza.kalfane/Workspaces/Daisy/DaisyExamples/libDaisy/src/daisy_seed.h ****     }
 3492              		.loc 1 128 23 is_stmt 0 view .LVU1169
 3493 0c50 4FAA     		add	r2, sp, #316
 3494              	.LVL270:
 128:/Users/reza.kalfane/Workspaces/Daisy/DaisyExamples/libDaisy/src/daisy_seed.h ****     }
 3495              		.loc 1 128 23 view .LVU1170
 3496 0c52 3146     		mov	r1, r6
 3497 0c54 9748     		ldr	r0, .L537+8
 3498 0c56 0092     		str	r2, [sp]
 3499              	.LBE1281:
 3500              	.LBE1280:
 3501              	.LBB1283:
 3502              	.LBB1278:
  95:src/main.cpp  **** }
 3503              		.loc 6 95 13 view .LVU1171
 3504 0c58 5D22     		movs	r2, #93
ARM GAS  /tmp/claude-502/cc2bPfvH.s 			page 115


 3505              	.LVL271:
  95:src/main.cpp  **** }
 3506              		.loc 6 95 13 view .LVU1172
 3507 0c5a 8DF84D21 		strb	r2, [sp, #333]
  95:src/main.cpp  **** }
 3508              		.loc 6 95 18 is_stmt 1 view .LVU1173
  95:src/main.cpp  **** }
 3509              		.loc 6 95 26 is_stmt 0 view .LVU1174
 3510 0c5e 0022     		movs	r2, #0
 3511 0c60 8DF84E21 		strb	r2, [sp, #334]
 3512              	.LVL272:
  95:src/main.cpp  **** }
 3513              		.loc 6 95 26 view .LVU1175
 3514              	.LBE1278:
 3515              	.LBE1283:
 868:src/main.cpp  ****                 hw.PrintLine("  %d  pos:%4d  prs:%3d%%  %s",
 3516              		.loc 6 868 17 is_stmt 1 view .LVU1176
 3517              	.LBB1284:
 3518              	.LBI1280:
 126:/Users/reza.kalfane/Workspaces/Daisy/DaisyExamples/libDaisy/src/daisy_seed.h ****     {
 3519              		.loc 1 126 17 view .LVU1177
 3520              	.LBB1282:
 128:/Users/reza.kalfane/Workspaces/Daisy/DaisyExamples/libDaisy/src/daisy_seed.h ****     }
 3521              		.loc 1 128 23 is_stmt 0 view .LVU1178
 3522 0c64 D8F80420 		ldr	r2, [r8, #4]
 3523 0c68 FFF7FEFF 		bl	_ZN5daisy6LoggerILNS_17LoggerDestinationE1EE9PrintLineEPKcz
 3524              	.LVL273:
 3525              	.L259:
 128:/Users/reza.kalfane/Workspaces/Daisy/DaisyExamples/libDaisy/src/daisy_seed.h ****     }
 3526              		.loc 1 128 23 view .LVU1179
 3527              	.LBE1282:
 3528              	.LBE1284:
 865:src/main.cpp  ****             if(tracked[slot].alive){
 3529              		.loc 6 865 9 is_stmt 1 discriminator 2 view .LVU1180
 865:src/main.cpp  ****             if(tracked[slot].alive){
 3530              		.loc 6 865 28 discriminator 2 view .LVU1181
 3531 0c6c 022E     		cmp	r6, #2
 3532 0c6e 08F11408 		add	r8, r8, #20
 3533 0c72 40F0EF83 		bne	.L344
 3534              	.LBE1289:
 869:src/main.cpp  ****                     slot+1,(int)tracked[slot].pos,(int)tracked[slot].pressure,bar);
 870:src/main.cpp  ****             } else {
 871:src/main.cpp  ****                 hw.PrintLine("  %d  pos: ---  prs: --%%  [                ]",slot+1);
 872:src/main.cpp  ****             }
 873:src/main.cpp  ****         }
 874:src/main.cpp  **** 
 875:src/main.cpp  ****         // FSR (master-volume) pressure: unpressed = 0%, pressed to mute = 100%.
 876:src/main.cpp  ****         int fsr_pct = (int)((1.0f - vol) * 100.0f + 0.5f);
 3535              		.loc 6 876 9 view .LVU1182
 3536              		.loc 6 876 35 is_stmt 0 view .LVU1183
 3537 0c76 B7EE007A 		vmov.f32	s14, #1.0e+0
 3538              		.loc 6 876 51 view .LVU1184
 3539 0c7a DFED8F6A 		vldr.32	s13, .L537+12
 3540 0c7e F6EE007A 		vmov.f32	s15, #5.0e-1
 3541              		.loc 6 876 35 view .LVU1185
 3542 0c82 37EE488A 		vsub.f32	s16, s14, s16
 3543              		.loc 6 876 51 view .LVU1186
ARM GAS  /tmp/claude-502/cc2bPfvH.s 			page 116


 3544 0c86 E8EE267A 		vfma.f32	s15, s16, s13
 3545              		.loc 6 876 13 view .LVU1187
 3546 0c8a FDEEE77A 		vcvt.s32.f32	s15, s15
 3547 0c8e 17EE903A 		vmov	r3, s15	@ int
 3548              	.LVL274:
 877:src/main.cpp  ****         if(fsr_pct < 0) fsr_pct = 0; else if(fsr_pct > 100) fsr_pct = 100;
 3549              		.loc 6 877 9 is_stmt 1 view .LVU1188
 3550 0c92 17EE901A 		vmov	r1, s15	@ int
 3551 0c96 642B     		cmp	r3, #100
 3552 0c98 A8BF     		it	ge
 3553 0c9a 6421     		movge	r1, #100
 3554              	.LBB1290:
 3555              	.LBB1291:
  91:src/main.cpp  ****     if(n>w)n=w;
 3556              		.loc 6 91 25 is_stmt 0 view .LVU1189
 3557 0c9c 002B     		cmp	r3, #0
 3558 0c9e 21EAE171 		bic	r1, r1, r1, asr #31
 3559              	.LVL275:
  91:src/main.cpp  ****     if(n>w)n=w;
 3560              		.loc 6 91 25 view .LVU1190
 3561              	.LBE1291:
 3562              	.LBE1290:
 878:src/main.cpp  ****         make_bar(bar, fsr_pct, 100, 16);
 3563              		.loc 6 878 9 is_stmt 1 view .LVU1191
 3564              	.LBB1296:
 3565              	.LBI1290:
  89:src/main.cpp  **** {
 3566              		.loc 6 89 6 view .LVU1192
 3567              	.LBB1293:
  91:src/main.cpp  ****     if(n>w)n=w;
 3568              		.loc 6 91 5 view .LVU1193
  91:src/main.cpp  ****     if(n>w)n=w;
 3569              		.loc 6 91 25 is_stmt 0 view .LVU1194
 3570 0ca2 40F3D086 		ble	.L345
  91:src/main.cpp  ****     if(n>w)n=w;
 3571              		.loc 6 91 36 view .LVU1195
 3572 0ca6 0A01     		lsls	r2, r1, #4
  91:src/main.cpp  ****     if(n>w)n=w;
 3573              		.loc 6 91 25 view .LVU1196
 3574 0ca8 814B     		ldr	r3, .L537+4
  91:src/main.cpp  ****     if(n>w)n=w;
 3575              		.loc 6 91 38 view .LVU1197
 3576 0caa 3232     		adds	r2, r2, #50
  91:src/main.cpp  ****     if(n>w)n=w;
 3577              		.loc 6 91 25 view .LVU1198
 3578 0cac A3FB0232 		umull	r3, r2, r3, r2
 3579 0cb0 5209     		lsrs	r2, r2, #5
 3580              	.L261:
 3581              	.LVL276:
  92:src/main.cpp  ****     out[0]='[';
 3582              		.loc 6 92 5 is_stmt 1 view .LVU1199
  93:src/main.cpp  ****     for(int i=0;i<w;i++)out[1+i]=(i<n)?'#':' ';
 3583              		.loc 6 93 5 view .LVU1200
  93:src/main.cpp  ****     for(int i=0;i<w;i++)out[1+i]=(i<n)?'#':' ';
 3584              		.loc 6 93 11 is_stmt 0 view .LVU1201
 3585 0cb2 5B23     		movs	r3, #91
 3586 0cb4 8DF83C31 		strb	r3, [sp, #316]
ARM GAS  /tmp/claude-502/cc2bPfvH.s 			page 117


  94:src/main.cpp  ****     out[1+w]=']';out[2+w]='\0';
 3587              		.loc 6 94 5 is_stmt 1 view .LVU1202
 3588              	.LVL277:
 3589              	.LBB1292:
  94:src/main.cpp  ****     out[1+w]=']';out[2+w]='\0';
 3590              		.loc 6 94 18 view .LVU1203
 3591              	.L263:
  94:src/main.cpp  ****     out[1+w]=']';out[2+w]='\0';
 3592              		.loc 6 94 25 view .LVU1204
  94:src/main.cpp  ****     out[1+w]=']';out[2+w]='\0';
 3593              		.loc 6 94 39 is_stmt 0 view .LVU1205
 3594 0cb8 EB19     		adds	r3, r5, r7
 3595 0cba 9342     		cmp	r3, r2
 3596 0cbc ACBF     		ite	ge
 3597 0cbe 2023     		movge	r3, #32
 3598 0cc0 2323     		movlt	r3, #35
  94:src/main.cpp  ****     out[1+w]=']';out[2+w]='\0';
 3599              		.loc 6 94 33 view .LVU1206
 3600 0cc2 07F8013B 		strb	r3, [r7], #1
 3601              	.LVL278:
  94:src/main.cpp  ****     out[1+w]=']';out[2+w]='\0';
 3602              		.loc 6 94 5 is_stmt 1 view .LVU1207
  94:src/main.cpp  ****     out[1+w]=']';out[2+w]='\0';
 3603              		.loc 6 94 18 view .LVU1208
 3604 0cc6 A742     		cmp	r7, r4
 3605 0cc8 F6D1     		bne	.L263
 3606              	.LBE1292:
  95:src/main.cpp  **** }
 3607              		.loc 6 95 5 view .LVU1209
  95:src/main.cpp  **** }
 3608              		.loc 6 95 13 is_stmt 0 view .LVU1210
 3609 0cca 5D23     		movs	r3, #93
 3610              	.LBE1293:
 3611              	.LBE1296:
 3612              	.LBB1297:
 3613              	.LBB1298:
 128:/Users/reza.kalfane/Workspaces/Daisy/DaisyExamples/libDaisy/src/daisy_seed.h ****     }
 3614              		.loc 1 128 23 view .LVU1211
 3615 0ccc 4FAA     		add	r2, sp, #316
 3616              	.LVL279:
 128:/Users/reza.kalfane/Workspaces/Daisy/DaisyExamples/libDaisy/src/daisy_seed.h ****     }
 3617              		.loc 1 128 23 view .LVU1212
 3618 0cce 7B48     		ldr	r0, .L537+16
 3619              	.LBE1298:
 3620              	.LBE1297:
 3621              	.LBB1300:
 3622              	.LBB1294:
  95:src/main.cpp  **** }
 3623              		.loc 6 95 13 view .LVU1213
 3624 0cd0 8DF84D31 		strb	r3, [sp, #333]
  95:src/main.cpp  **** }
 3625              		.loc 6 95 18 is_stmt 1 view .LVU1214
  95:src/main.cpp  **** }
 3626              		.loc 6 95 26 is_stmt 0 view .LVU1215
 3627 0cd4 0023     		movs	r3, #0
 3628 0cd6 8DF84E31 		strb	r3, [sp, #334]
 3629              	.LVL280:
ARM GAS  /tmp/claude-502/cc2bPfvH.s 			page 118


  95:src/main.cpp  **** }
 3630              		.loc 6 95 26 view .LVU1216
 3631              	.LBE1294:
 3632              	.LBE1300:
 879:src/main.cpp  ****         hw.PrintLine(" FSR pressure  %3d%%  %s", fsr_pct, bar);
 3633              		.loc 6 879 9 is_stmt 1 view .LVU1217
 3634              	.LBB1301:
 3635              	.LBI1297:
 126:/Users/reza.kalfane/Workspaces/Daisy/DaisyExamples/libDaisy/src/daisy_seed.h ****     {
 3636              		.loc 1 126 17 view .LVU1218
 3637              	.LBB1299:
 128:/Users/reza.kalfane/Workspaces/Daisy/DaisyExamples/libDaisy/src/daisy_seed.h ****     }
 3638              		.loc 1 128 23 is_stmt 0 view .LVU1219
 3639 0cda FFF7FEFF 		bl	_ZN5daisy6LoggerILNS_17LoggerDestinationE1EE9PrintLineEPKcz
 3640              	.LVL281:
 128:/Users/reza.kalfane/Workspaces/Daisy/DaisyExamples/libDaisy/src/daisy_seed.h ****     }
 3641              		.loc 1 128 23 view .LVU1220
 3642              	.LBE1299:
 3643              	.LBE1301:
 880:src/main.cpp  **** 
 881:src/main.cpp  ****         // Audio param display ŌĆö fixed width, always same line count
 882:src/main.cpp  ****         int freq_i  = (int)g_target_freq;
 3644              		.loc 6 882 9 is_stmt 1 view .LVU1221
 3645              		.loc 6 882 23 is_stmt 0 view .LVU1222
 3646 0cde 784B     		ldr	r3, .L537+20
 883:src/main.cpp  ****         int cut_i   = (int)g_target_cutoff;
 884:src/main.cpp  ****         int det_i10 = (int)(g_target_detune*10);
 3647              		.loc 6 884 44 view .LVU1223
 3648 0ce0 F2EE044A 		vmov.f32	s9, #1.0e+1
 885:src/main.cpp  ****         int bc_i    = (int)(g_bitcrush*100);
 3649              		.loc 6 885 39 view .LVU1224
 3650 0ce4 9FED745A 		vldr.32	s10, .L537+12
 3651              	.LVL282:
 882:src/main.cpp  ****         int cut_i   = (int)g_target_cutoff;
 3652              		.loc 6 882 23 view .LVU1225
 3653 0ce8 D3ED006A 		vldr.32	s13, [r3]
 883:src/main.cpp  ****         int cut_i   = (int)g_target_cutoff;
 3654              		.loc 6 883 23 view .LVU1226
 3655 0cec 754B     		ldr	r3, .L537+24
 882:src/main.cpp  ****         int cut_i   = (int)g_target_cutoff;
 3656              		.loc 6 882 28 view .LVU1227
 3657 0cee FDEEE66A 		vcvt.s32.f32	s13, s13
 883:src/main.cpp  ****         int cut_i   = (int)g_target_cutoff;
 3658              		.loc 6 883 23 view .LVU1228
 3659 0cf2 93ED006A 		vldr.32	s12, [r3]
 884:src/main.cpp  ****         int bc_i    = (int)(g_bitcrush*100);
 3660              		.loc 6 884 29 view .LVU1229
 3661 0cf6 744B     		ldr	r3, .L537+28
 882:src/main.cpp  ****         int cut_i   = (int)g_target_cutoff;
 3662              		.loc 6 882 28 view .LVU1230
 3663 0cf8 16EE901A 		vmov	r1, s13	@ int
 3664              	.LVL283:
 883:src/main.cpp  ****         int det_i10 = (int)(g_target_detune*10);
 3665              		.loc 6 883 9 is_stmt 1 view .LVU1231
 883:src/main.cpp  ****         int det_i10 = (int)(g_target_detune*10);
 3666              		.loc 6 883 28 is_stmt 0 view .LVU1232
 3667 0cfc FDEEC66A 		vcvt.s32.f32	s13, s12
ARM GAS  /tmp/claude-502/cc2bPfvH.s 			page 119


 884:src/main.cpp  ****         int bc_i    = (int)(g_bitcrush*100);
 3668              		.loc 6 884 29 view .LVU1233
 3669 0d00 D3ED005A 		vldr.32	s11, [r3]
 3670              		.loc 6 885 29 view .LVU1234
 3671 0d04 714B     		ldr	r3, .L537+32
 884:src/main.cpp  ****         int bc_i    = (int)(g_bitcrush*100);
 3672              		.loc 6 884 44 view .LVU1235
 3673 0d06 65EEA45A 		vmul.f32	s11, s11, s9
 883:src/main.cpp  ****         int det_i10 = (int)(g_target_detune*10);
 3674              		.loc 6 883 28 view .LVU1236
 3675 0d0a 16EE902A 		vmov	r2, s13	@ int
 3676              	.LVL284:
 884:src/main.cpp  ****         int bc_i    = (int)(g_bitcrush*100);
 3677              		.loc 6 884 9 is_stmt 1 view .LVU1237
 3678              		.loc 6 885 29 is_stmt 0 view .LVU1238
 3679 0d0e D3ED007A 		vldr.32	s15, [r3]
 886:src/main.cpp  ****         int vib_i   = (int)(g_vibrato_depth*100);
 3680              		.loc 6 886 29 view .LVU1239
 3681 0d12 6F4B     		ldr	r3, .L537+36
 884:src/main.cpp  ****         int bc_i    = (int)(g_bitcrush*100);
 3682              		.loc 6 884 47 view .LVU1240
 3683 0d14 FDEEE56A 		vcvt.s32.f32	s13, s11
 3684              		.loc 6 886 29 view .LVU1241
 3685 0d18 93ED007A 		vldr.32	s14, [r3]
 885:src/main.cpp  ****         int vib_i   = (int)(g_vibrato_depth*100);
 3686              		.loc 6 885 39 view .LVU1242
 3687 0d1c 67EE857A 		vmul.f32	s15, s15, s10
 884:src/main.cpp  ****         int bc_i    = (int)(g_bitcrush*100);
 3688              		.loc 6 884 47 view .LVU1243
 3689 0d20 16EE900A 		vmov	r0, s13	@ int
 3690              	.LVL285:
 885:src/main.cpp  ****         int vib_i   = (int)(g_vibrato_depth*100);
 3691              		.loc 6 885 9 is_stmt 1 view .LVU1244
 3692              		.loc 6 886 44 is_stmt 0 view .LVU1245
 3693 0d24 27EE057A 		vmul.f32	s14, s14, s10
 885:src/main.cpp  ****         int vib_i   = (int)(g_vibrato_depth*100);
 3694              		.loc 6 885 43 view .LVU1246
 3695 0d28 FDEEE77A 		vcvt.s32.f32	s15, s15
 3696              	.LVL286:
 3697              		.loc 6 886 9 is_stmt 1 view .LVU1247
 887:src/main.cpp  ****         hw.PrintLine("  freq:%4dHz  cut:%5dHz  det:%c%d.%ds  fx:%2d%%  vib:%2d%%",
 3698              		.loc 6 887 21 is_stmt 0 view .LVU1248
 3699 0d2c 0028     		cmp	r0, #0
 886:src/main.cpp  ****         hw.PrintLine("  freq:%4dHz  cut:%5dHz  det:%c%d.%ds  fx:%2d%%  vib:%2d%%",
 3700              		.loc 6 886 48 view .LVU1249
 3701 0d2e BDEEC77A 		vcvt.s32.f32	s14, s14
 3702              	.LVL287:
 3703              		.loc 6 887 9 is_stmt 1 view .LVU1250
 3704              		.loc 6 887 21 is_stmt 0 view .LVU1251
 3705 0d32 C0F2A386 		blt	.L509
 3706 0d36 674B     		ldr	r3, .L537+40
 3707 0d38 C517     		asrs	r5, r0, #31
 3708 0d3a 83FB0043 		smull	r4, r3, r3, r0
 3709 0d3e C5EBA305 		rsb	r5, r5, r3, asr #2
 3710 0d42 2B23     		movs	r3, #43
 3711 0d44 05EB8504 		add	r4, r5, r5, lsl #2
 3712 0d48 A0EB4404 		sub	r4, r0, r4, lsl #1
ARM GAS  /tmp/claude-502/cc2bPfvH.s 			page 120


 3713              	.LVL288:
 3714              	.L267:
 3715              	.LBB1302:
 3716              	.LBI1302:
 126:/Users/reza.kalfane/Workspaces/Daisy/DaisyExamples/libDaisy/src/daisy_seed.h ****     {
 3717              		.loc 1 126 17 is_stmt 1 discriminator 12 view .LVU1252
 3718              	.LBE1302:
 568:src/main.cpp  ****         if(f1_on) f1_last_seen_ms = System::GetNow();
 3719              		.loc 6 568 14 is_stmt 0 discriminator 12 view .LVU1253
 3720 0d4c 0798     		ldr	r0, [sp, #28]
 3721              	.LBB1305:
 3722              	.LBB1303:
 128:/Users/reza.kalfane/Workspaces/Daisy/DaisyExamples/libDaisy/src/daisy_seed.h ****     }
 3723              		.loc 1 128 23 discriminator 12 view .LVU1254
 3724 0d4e 8DED037A 		vstr.32	s14, [sp, #12]	@ int
 3725 0d52 CDED027A 		vstr.32	s15, [sp, #8]	@ int
 3726              	.LBE1303:
 3727              	.LBE1305:
 568:src/main.cpp  ****         if(f1_on) f1_last_seen_ms = System::GetNow();
 3728              		.loc 6 568 14 discriminator 12 view .LVU1255
 3729 0d56 0890     		str	r0, [sp, #32]
 3730              	.LBB1306:
 3731              	.LBB1304:
 128:/Users/reza.kalfane/Workspaces/Daisy/DaisyExamples/libDaisy/src/daisy_seed.h ****     }
 3732              		.loc 1 128 23 discriminator 12 view .LVU1256
 3733 0d58 5F48     		ldr	r0, .L537+44
 3734 0d5a CDE90054 		strd	r5, r4, [sp]
 3735 0d5e FFF7FEFF 		bl	_ZN5daisy6LoggerILNS_17LoggerDestinationE1EE9PrintLineEPKcz
 3736              	.LVL289:
 128:/Users/reza.kalfane/Workspaces/Daisy/DaisyExamples/libDaisy/src/daisy_seed.h ****     }
 3737              		.loc 1 128 23 discriminator 12 view .LVU1257
 3738              	.LBE1304:
 3739              	.LBE1306:
 888:src/main.cpp  ****             freq_i, cut_i,
 889:src/main.cpp  ****             det_i10<0?'-':'+',
 890:src/main.cpp  ****             det_i10<0?(-det_i10)/10:det_i10/10,
 891:src/main.cpp  ****             det_i10<0?(-det_i10)%10:det_i10%10,
 892:src/main.cpp  ****             bc_i, vib_i);
 893:src/main.cpp  ****         hw.PrintLine("--------------------------------------------");
 3740              		.loc 6 893 9 is_stmt 1 discriminator 12 view .LVU1258
 3741              	.LBB1307:
 3742              	.LBI1307:
 126:/Users/reza.kalfane/Workspaces/Daisy/DaisyExamples/libDaisy/src/daisy_seed.h ****     {
 3743              		.loc 1 126 17 discriminator 12 view .LVU1259
 3744              	.LBB1308:
 128:/Users/reza.kalfane/Workspaces/Daisy/DaisyExamples/libDaisy/src/daisy_seed.h ****     }
 3745              		.loc 1 128 23 is_stmt 0 discriminator 12 view .LVU1260
 3746 0d62 5E48     		ldr	r0, .L537+48
 3747 0d64 FFF7FEFF 		bl	_ZN5daisy6LoggerILNS_17LoggerDestinationE1EE9PrintLineEPKcz
 3748              	.LVL290:
 128:/Users/reza.kalfane/Workspaces/Daisy/DaisyExamples/libDaisy/src/daisy_seed.h ****     }
 3749              		.loc 1 128 23 discriminator 12 view .LVU1261
 3750              	.LBE1308:
 3751              	.LBE1307:
 894:src/main.cpp  **** 
 895:src/main.cpp  ****         System::Delay(CONTROL_DELAY_MS);
 3752              		.loc 6 895 9 is_stmt 1 discriminator 12 view .LVU1262
ARM GAS  /tmp/claude-502/cc2bPfvH.s 			page 121


 3753              		.loc 6 895 22 is_stmt 0 discriminator 12 view .LVU1263
 3754 0d68 0320     		movs	r0, #3
 3755 0d6a FFF7FEFF 		bl	_ZN5daisy6System5DelayEm
 3756              	.LVL291:
 434:src/main.cpp  ****         else if(fsr_raw <= FSR_MIN) vol = 0.0f;
 3757              		.loc 6 434 20 discriminator 12 view .LVU1264
 3758 0d6e BDF88280 		ldrh	r8, [sp, #130]
 3759              	.LVL292:
 434:src/main.cpp  ****         else if(fsr_raw <= FSR_MIN) vol = 0.0f;
 3760              		.loc 6 434 20 discriminator 12 view .LVU1265
 3761              	.LBE1398:
 380:src/main.cpp  ****     static constexpr float    PRS_SMOOTH  = 0.5f;  // light smoothing (preserve the attack edge)
 3762              		.loc 6 380 5 is_stmt 1 discriminator 12 view .LVU1266
 381:src/main.cpp  ****     static constexpr float    RISE_THRESH = 18.0f; // % pressure rise/frame = a held re-attack
 3763              		.loc 6 381 5 discriminator 12 view .LVU1267
 382:src/main.cpp  **** 
 3764              		.loc 6 382 5 discriminator 12 view .LVU1268
 386:src/main.cpp  ****         float p    = clampf((float)pos / 1000.0f, 0.0f, 1.0f);
 3765              		.loc 6 386 5 discriminator 12 view .LVU1269
 411:src/main.cpp  ****         const Voice& V = VOICES[bankidx];
 3766              		.loc 6 411 5 discriminator 12 view .LVU1270
 427:src/main.cpp  ****     {
 3767              		.loc 6 427 5 discriminator 12 view .LVU1271
 3768              	.LBB1399:
 432:src/main.cpp  ****         float    vol;
 3769              		.loc 6 432 9 discriminator 12 view .LVU1272
 432:src/main.cpp  ****         float    vol;
 3770              		.loc 6 432 38 is_stmt 0 discriminator 12 view .LVU1273
 3771 0d72 0021     		movs	r1, #0
 3772 0d74 5A48     		ldr	r0, .L537+52
 3773 0d76 FFF7FEFF 		bl	_ZNK5daisy9AdcHandle3GetEh
 3774              	.LVL293:
 433:src/main.cpp  ****         if(fsr_raw >= fsr_dead)     vol = 1.0f;
 3775              		.loc 6 433 9 is_stmt 1 discriminator 12 view .LVU1274
 434:src/main.cpp  ****         else if(fsr_raw <= FSR_MIN) vol = 0.0f;
 3776              		.loc 6 434 9 discriminator 12 view .LVU1275
 3777 0d7a 4045     		cmp	r0, r8
 3778 0d7c FFF4F1AA 		bcc	.L510
 3779              	.LVL294:
 3780              	.L69:
 437:src/main.cpp  **** 
 3781              		.loc 6 437 9 view .LVU1276
 444:src/main.cpp  ****         else if(vol >= 0.4f)   full_state = false;   // clearly eased off
 3782              		.loc 6 444 9 is_stmt 0 view .LVU1277
 3783 0d80 B0F5FA5F 		cmp	r0, #8000
 437:src/main.cpp  **** 
 3784              		.loc 6 437 22 view .LVU1278
 3785 0d84 F7EE007A 		vmov.f32	s15, #1.0e+0
 444:src/main.cpp  ****         else if(vol >= 0.4f)   full_state = false;   // clearly eased off
 3786              		.loc 6 444 9 view .LVU1279
 3787 0d88 8CBF     		ite	hi
 3788 0d8a 0023     		movhi	r3, #0
 3789 0d8c 0123     		movls	r3, #1
 434:src/main.cpp  ****         else if(fsr_raw <= FSR_MIN) vol = 0.0f;
 3790              		.loc 6 434 41 view .LVU1280
 3791 0d8e B0EE678A 		vmov.f32	s16, s15
 444:src/main.cpp  ****         else if(vol >= 0.4f)   full_state = false;   // clearly eased off
ARM GAS  /tmp/claude-502/cc2bPfvH.s 			page 122


 3792              		.loc 6 444 9 view .LVU1281
 3793 0d92 0A93     		str	r3, [sp, #40]
 3794              	.LVL295:
 437:src/main.cpp  **** 
 3795              		.loc 6 437 22 view .LVU1282
 3796 0d94 534B     		ldr	r3, .L537+56
 3797 0d96 C3ED007A 		vstr.32	s15, [r3]
 444:src/main.cpp  ****         else if(vol >= 0.4f)   full_state = false;   // clearly eased off
 3798              		.loc 6 444 9 is_stmt 1 view .LVU1283
 3799 0d9a FFF7FDBA 		b	.L71
 3800              	.LVL296:
 3801              	.L148:
 3802              	.LBB1309:
 3803              	.LBB938:
 591:src/main.cpp  ****             deb_alive[i] = deb;
 3804              		.loc 6 591 13 view .LVU1284
 591:src/main.cpp  ****             deb_alive[i] = deb;
 3805              		.loc 6 591 48 is_stmt 0 view .LVU1285
 3806 0d9e 1468     		ldr	r4, [r2]
 3807 0da0 AEEB0404 		sub	r4, lr, r4
 591:src/main.cpp  ****             deb_alive[i] = deb;
 3808              		.loc 6 591 28 view .LVU1286
 3809 0da4 272C     		cmp	r4, #39
 3810 0da6 63DC     		bgt	.L511
 3811              	.LVL297:
 592:src/main.cpp  ****             if(!deb) continue;                              // truly lifted
 3812              		.loc 6 592 13 is_stmt 1 view .LVU1287
 592:src/main.cpp  ****             if(!deb) continue;                              // truly lifted
 3813              		.loc 6 592 26 is_stmt 0 view .LVU1288
 3814 0da8 0124     		movs	r4, #1
 3815 0daa 0C70     		strb	r4, [r1]
 593:src/main.cpp  **** 
 3816              		.loc 6 593 13 is_stmt 1 view .LVU1289
 595:src/main.cpp  ****             if(multi){
 3817              		.loc 6 595 13 view .LVU1290
 596:src/main.cpp  ****                 int z = (int)(clampf((float)tracked[i].pos/1000.0f,0.0f,1.0f) * 4.0f);
 3818              		.loc 6 596 13 view .LVU1291
 3819              	.LBB931:
 3820 0dac 069C     		ldr	r4, [sp, #24]
 3821 0dae 0C2C     		cmp	r4, #12
 3822 0db0 7FF4B7AB 		bne	.L151
 3823              	.L499:
 3824              	.LBB917:
 597:src/main.cpp  ****                 if(z > 3) z = 3; vidx = MULTI_ZONES[z];
 3825              		.loc 6 597 17 view .LVU1292
 597:src/main.cpp  ****                 if(z > 3) z = 3; vidx = MULTI_ZONES[z];
 3826              		.loc 6 597 38 is_stmt 0 view .LVU1293
 3827 0db4 D3ED017A 		vldr.32	s15, [r3, #4]	@ int
 597:src/main.cpp  ****                 if(z > 3) z = 3; vidx = MULTI_ZONES[z];
 3828              		.loc 6 597 37 view .LVU1294
 3829 0db8 DFED4B6A 		vldr.32	s13, .L537+60
 597:src/main.cpp  ****                 if(z > 3) z = 3; vidx = MULTI_ZONES[z];
 3830              		.loc 6 597 38 view .LVU1295
 3831 0dbc F8EEE77A 		vcvt.f32.s32	s15, s15
 597:src/main.cpp  ****                 if(z > 3) z = 3; vidx = MULTI_ZONES[z];
 3832              		.loc 6 597 37 view .LVU1296
 3833 0dc0 87EEA67A 		vdiv.f32	s14, s15, s13
ARM GAS  /tmp/claude-502/cc2bPfvH.s 			page 123


 3834              	.LVL298:
 3835              	.LBB918:
 3836              	.LBI918:
  12:src/dsp.h     ****     return v<lo?lo:v>hi?hi:v;
 3837              		.loc 9 12 21 is_stmt 1 view .LVU1297
 3838              	.LBB919:
 3839              		.loc 9 13 5 view .LVU1298
 3840              		.loc 9 13 16 is_stmt 0 view .LVU1299
 3841 0dc4 B5EEC07A 		vcmpe.f32	s14, #0
 3842 0dc8 F1EE10FA 		vmrs	APSR_nzcv, FPSCR
 3843 0dcc 53D4     		bmi	.L299
 3844              		.loc 9 13 24 view .LVU1300
 3845 0dce F7EE007A 		vmov.f32	s15, #1.0e+0
 3846 0dd2 B4EEE77A 		vcmpe.f32	s14, s15
 3847 0dd6 F1EE10FA 		vmrs	APSR_nzcv, FPSCR
 3848 0dda 4CDC     		bgt	.L299
 3849              	.LBE919:
 3850              	.LBE918:
 597:src/main.cpp  ****                 if(z > 3) z = 3; vidx = MULTI_ZONES[z];
 3851              		.loc 6 597 85 view .LVU1301
 3852 0ddc F0EE477A 		vmov.f32	s15, s14
 3853              	.LBE917:
 3854              	.LBE931:
 600:src/main.cpp  ****             float prs = (float)tracked[i].pressure;
 3855              		.loc 6 600 19 view .LVU1302
 3856 0de0 424F     		ldr	r7, .L537+64
 3857 0de2 4FF09408 		mov	r8, #148
 3858              	.LBB932:
 3859              	.LBB922:
 597:src/main.cpp  ****                 if(z > 3) z = 3; vidx = MULTI_ZONES[z];
 3860              		.loc 6 597 85 view .LVU1303
 3861 0de6 FEEECF7A 		vcvt.s32.f32	s15, s15, #2
 3862 0dea 17EE904A 		vmov	r4, s15	@ int
 3863              	.LBE922:
 3864              	.LBE932:
 601:src/main.cpp  **** 
 3865              		.loc 6 601 19 view .LVU1304
 3866 0dee D3ED027A 		vldr.32	s15, [r3, #8]	@ int
 3867              	.LBB933:
 3868              	.LBB923:
 598:src/main.cpp  ****             } else vidx = g_active_voice;
 3869              		.loc 6 598 39 view .LVU1305
 3870 0df2 032C     		cmp	r4, #3
 3871              	.LBE923:
 3872              	.LBE933:
 601:src/main.cpp  **** 
 3873              		.loc 6 601 19 view .LVU1306
 3874 0df4 F8EEE77A 		vcvt.f32.s32	s15, s15
 3875              	.LBB934:
 3876              	.LBB924:
 598:src/main.cpp  ****             } else vidx = g_active_voice;
 3877              		.loc 6 598 39 view .LVU1307
 3878 0df8 A8BF     		it	ge
 3879 0dfa 0324     		movge	r4, #3
 3880              	.LBE924:
 3881              	.LBE934:
 600:src/main.cpp  ****             float prs = (float)tracked[i].pressure;
ARM GAS  /tmp/claude-502/cc2bPfvH.s 			page 124


 3882              		.loc 6 600 19 view .LVU1308
 3883 0dfc 57F82440 		ldr	r4, [r7, r4, lsl #2]
 3884 0e00 059F     		ldr	r7, [sp, #20]
 3885 0e02 08FB0474 		mla	r4, r8, r4, r7
 3886 0e06 94ED217A 		vldr.32	s14, [r4, #132]
 3887              	.LVL299:
 600:src/main.cpp  ****             float prs = (float)tracked[i].pressure;
 3888              		.loc 6 600 13 is_stmt 1 view .LVU1309
 601:src/main.cpp  **** 
 3889              		.loc 6 601 13 view .LVU1310
 603:src/main.cpp  ****                 // Genuine new tap (after a real lift) ŌĆö fire immediately, no cap.
 3890              		.loc 6 603 13 view .LVU1311
 3891              	.LBB935:
 3892 0e0a 2C78     		ldrb	r4, [r5]	@ zero_extendqisi2
 3893 0e0c 002C     		cmp	r4, #0
 3894 0e0e 3FF499AB 		beq	.L512
 3895              	.LVL300:
 3896              	.L154:
 603:src/main.cpp  ****                 // Genuine new tap (after a real lift) ŌĆö fire immediately, no cap.
 3897              		.loc 6 603 13 is_stmt 0 view .LVU1312
 3898              	.LBE935:
 3899              	.LBE938:
 3900              	.LBE1309:
 3901              	.LBE1399:
 606:src/main.cpp  ****                 // Held: re-attack on a sharp pressure rise, capped by retrig_ms.
 3902              		.loc 6 606 20 is_stmt 1 view .LVU1313
 3903              	.LBB1400:
 3904              	.LBB1310:
 3905              	.LBB939:
 3906              	.LBB936:
 3907              	.LBB928:
 3908 0e12 0028     		cmp	r0, #0
 3909 0e14 3FF49EAB 		beq	.L150
 3910              	.LBB929:
 608:src/main.cpp  ****                 prs_sm[i] = prev*PRS_SMOOTH + prs*(1.0f - PRS_SMOOTH);
 3911              		.loc 6 608 17 view .LVU1314
 609:src/main.cpp  ****                 if(rms > 0.0f && (prs_sm[i] - prev) > RISE_THRESH
 3912              		.loc 6 609 50 is_stmt 0 view .LVU1315
 3913 0e18 F6EE006A 		vmov.f32	s13, #5.0e-1
 608:src/main.cpp  ****                 prs_sm[i] = prev*PRS_SMOOTH + prs*(1.0f - PRS_SMOOTH);
 3914              		.loc 6 608 23 view .LVU1316
 3915 0e1c 96ED006A 		vldr.32	s12, [r6]
 3916              	.LVL301:
 609:src/main.cpp  ****                 if(rms > 0.0f && (prs_sm[i] - prev) > RISE_THRESH
 3917              		.loc 6 609 17 is_stmt 1 view .LVU1317
 610:src/main.cpp  ****                    && (int32_t)(now_ms - last_retrig[i]) >= (int32_t)rms){
 3918              		.loc 6 610 17 is_stmt 0 view .LVU1318
 3919 0e20 B5EEC07A 		vcmpe.f32	s14, #0
 609:src/main.cpp  ****                 if(rms > 0.0f && (prs_sm[i] - prev) > RISE_THRESH
 3920              		.loc 6 609 50 view .LVU1319
 3921 0e24 67EEA67A 		vmul.f32	s15, s15, s13
 3922              	.LVL302:
 610:src/main.cpp  ****                    && (int32_t)(now_ms - last_retrig[i]) >= (int32_t)rms){
 3923              		.loc 6 610 17 view .LVU1320
 3924 0e28 F1EE10FA 		vmrs	APSR_nzcv, FPSCR
 609:src/main.cpp  ****                 if(rms > 0.0f && (prs_sm[i] - prev) > RISE_THRESH
 3925              		.loc 6 609 45 view .LVU1321
ARM GAS  /tmp/claude-502/cc2bPfvH.s 			page 125


 3926 0e2c E6EE267A 		vfma.f32	s15, s12, s13
 609:src/main.cpp  ****                 if(rms > 0.0f && (prs_sm[i] - prev) > RISE_THRESH
 3927              		.loc 6 609 27 view .LVU1322
 3928 0e30 C6ED007A 		vstr.32	s15, [r6]
 610:src/main.cpp  ****                    && (int32_t)(now_ms - last_retrig[i]) >= (int32_t)rms){
 3929              		.loc 6 610 17 is_stmt 1 view .LVU1323
 3930 0e34 7FF78EAB 		ble	.L150
 610:src/main.cpp  ****                    && (int32_t)(now_ms - last_retrig[i]) >= (int32_t)rms){
 3931              		.loc 6 610 45 is_stmt 0 discriminator 1 view .LVU1324
 3932 0e38 77EEC67A 		vsub.f32	s15, s15, s12
 610:src/main.cpp  ****                    && (int32_t)(now_ms - last_retrig[i]) >= (int32_t)rms){
 3933              		.loc 6 610 31 discriminator 1 view .LVU1325
 3934 0e3c F3EE026A 		vmov.f32	s13, #1.8e+1
 3935 0e40 F4EEE67A 		vcmpe.f32	s15, s13
 3936 0e44 F1EE10FA 		vmrs	APSR_nzcv, FPSCR
 3937 0e48 7FF784AB 		ble	.L150
 611:src/main.cpp  ****                     reatk[i] = true; last_retrig[i] = now_ms;
 3938              		.loc 6 611 40 view .LVU1326
 3939 0e4c 049F     		ldr	r7, [sp, #16]
 611:src/main.cpp  ****                     reatk[i] = true; last_retrig[i] = now_ms;
 3940              		.loc 6 611 61 view .LVU1327
 3941 0e4e BDEEC77A 		vcvt.s32.f32	s14, s14
 611:src/main.cpp  ****                     reatk[i] = true; last_retrig[i] = now_ms;
 3942              		.loc 6 611 40 view .LVU1328
 3943 0e52 3868     		ldr	r0, [r7]
 3944              	.LVL303:
 611:src/main.cpp  ****                     reatk[i] = true; last_retrig[i] = now_ms;
 3945              		.loc 6 611 20 view .LVU1329
 3946 0e54 17EE104A 		vmov	r4, s14	@ int
 611:src/main.cpp  ****                     reatk[i] = true; last_retrig[i] = now_ms;
 3947              		.loc 6 611 40 view .LVU1330
 3948 0e58 AEEB0000 		sub	r0, lr, r0
 611:src/main.cpp  ****                     reatk[i] = true; last_retrig[i] = now_ms;
 3949              		.loc 6 611 20 view .LVU1331
 3950 0e5c A042     		cmp	r0, r4
 3951 0e5e FFF679AB 		blt	.L150
 612:src/main.cpp  ****                 }
 3952              		.loc 6 612 21 is_stmt 1 view .LVU1332
 612:src/main.cpp  ****                 }
 3953              		.loc 6 612 30 is_stmt 0 view .LVU1333
 3954 0e62 0120     		movs	r0, #1
 612:src/main.cpp  ****                 }
 3955              		.loc 6 612 53 view .LVU1334
 3956 0e64 C7F800E0 		str	lr, [r7]
 612:src/main.cpp  ****                 }
 3957              		.loc 6 612 30 view .LVU1335
 3958 0e68 8CF80000 		strb	r0, [ip]
 612:src/main.cpp  ****                 }
 3959              		.loc 6 612 38 is_stmt 1 view .LVU1336
 3960 0e6c FFF772BB 		b	.L150
 3961              	.LVL304:
 3962              	.L511:
 612:src/main.cpp  ****                 }
 3963              		.loc 6 612 38 is_stmt 0 view .LVU1337
 3964              	.LBE929:
 3965              	.LBE928:
 3966              	.LBE936:
ARM GAS  /tmp/claude-502/cc2bPfvH.s 			page 126


 592:src/main.cpp  ****             if(!deb) continue;                              // truly lifted
 3967              		.loc 6 592 13 is_stmt 1 view .LVU1338
 592:src/main.cpp  ****             if(!deb) continue;                              // truly lifted
 3968              		.loc 6 592 26 is_stmt 0 view .LVU1339
 3969 0e70 0870     		strb	r0, [r1]
 593:src/main.cpp  **** 
 3970              		.loc 6 593 13 is_stmt 1 view .LVU1340
 3971 0e72 FFF76FBB 		b	.L150
 3972              	.LVL305:
 3973              	.L299:
 3974              	.LBB937:
 3975              	.LBB925:
 3976              	.LBB921:
 3977              	.LBB920:
 593:src/main.cpp  **** 
 3978              		.loc 6 593 13 is_stmt 0 view .LVU1341
 3979 0e76 9FED1E7A 		vldr.32	s14, .L537+68
 3980              	.LVL306:
 593:src/main.cpp  **** 
 3981              		.loc 6 593 13 view .LVU1342
 3982              	.LBE920:
 3983              	.LBE921:
 598:src/main.cpp  ****             } else vidx = g_active_voice;
 3984              		.loc 6 598 17 is_stmt 1 view .LVU1343
 598:src/main.cpp  ****             } else vidx = g_active_voice;
 3985              		.loc 6 598 34 view .LVU1344
 598:src/main.cpp  ****             } else vidx = g_active_voice;
 3986              		.loc 6 598 34 is_stmt 0 view .LVU1345
 3987 0e7a FFF75BBB 		b	.L153
 3988              	.LVL307:
 3989              	.L218:
 598:src/main.cpp  ****             } else vidx = g_active_voice;
 3990              		.loc 6 598 34 view .LVU1346
 3991              	.LBE925:
 3992              	.LBE937:
 3993              	.LBE939:
 3994              	.LBE1310:
 3995              	.LBB1311:
 832:src/main.cpp  ****             g_bitcrush      = 0.0f;
 3996              		.loc 6 832 13 is_stmt 1 view .LVU1347
 832:src/main.cpp  ****             g_bitcrush      = 0.0f;
 3997              		.loc 6 832 29 is_stmt 0 view .LVU1348
 3998 0e7e 0023     		movs	r3, #0
 3999 0e80 114A     		ldr	r2, .L537+28
 4000 0e82 1360     		str	r3, [r2]	@ float
 833:src/main.cpp  ****             g_ringmod       = 0.0f;
 4001              		.loc 6 833 13 is_stmt 1 view .LVU1349
 833:src/main.cpp  ****             g_ringmod       = 0.0f;
 4002              		.loc 6 833 29 is_stmt 0 view .LVU1350
 4003 0e84 114A     		ldr	r2, .L537+32
 4004 0e86 1360     		str	r3, [r2]	@ float
 834:src/main.cpp  ****         }
 4005              		.loc 6 834 13 is_stmt 1 view .LVU1351
 4006              	.LBE1311:
 838:src/main.cpp  ****             System::Delay(CONTROL_DELAY_MS);
 4007              		.loc 6 838 9 view .LVU1352
 4008              	.LBB1312:
ARM GAS  /tmp/claude-502/cc2bPfvH.s 			page 127


 834:src/main.cpp  ****         }
 4009              		.loc 6 834 29 is_stmt 0 view .LVU1353
 4010 0e88 1A4A     		ldr	r2, .L537+72
 4011 0e8a 1360     		str	r3, [r2]	@ float
 4012              	.LBE1312:
 838:src/main.cpp  ****             System::Delay(CONTROL_DELAY_MS);
 4013              		.loc 6 838 26 view .LVU1354
 4014 0e8c FFF7FEFF 		bl	_ZN5daisy6System6GetNowEv
 4015              	.LVL308:
 838:src/main.cpp  ****             System::Delay(CONTROL_DELAY_MS);
 4016              		.loc 6 838 29 view .LVU1355
 4017 0e90 139B     		ldr	r3, [sp, #76]
 4018 0e92 C01A     		subs	r0, r0, r3
 838:src/main.cpp  ****             System::Delay(CONTROL_DELAY_MS);
 4019              		.loc 6 838 9 view .LVU1356
 4020 0e94 7728     		cmp	r0, #119
 4021 0e96 3FF6C3AD 		bhi	.L232
 4022              	.L507:
 839:src/main.cpp  ****             continue;
 4023              		.loc 6 839 13 is_stmt 1 discriminator 1 view .LVU1357
 568:src/main.cpp  ****         if(f1_on) f1_last_seen_ms = System::GetNow();
 4024              		.loc 6 568 14 is_stmt 0 discriminator 1 view .LVU1358
 4025 0e9a 079B     		ldr	r3, [sp, #28]
 839:src/main.cpp  ****             continue;
 4026              		.loc 6 839 26 discriminator 1 view .LVU1359
 4027 0e9c 0320     		movs	r0, #3
 568:src/main.cpp  ****         if(f1_on) f1_last_seen_ms = System::GetNow();
 4028              		.loc 6 568 14 discriminator 1 view .LVU1360
 4029 0e9e 0893     		str	r3, [sp, #32]
 839:src/main.cpp  ****             continue;
 4030              		.loc 6 839 26 discriminator 1 view .LVU1361
 4031 0ea0 FFF7FEFF 		bl	_ZN5daisy6System5DelayEm
 4032              	.LVL309:
 840:src/main.cpp  ****         }
 4033              		.loc 6 840 13 is_stmt 1 discriminator 1 view .LVU1362
 434:src/main.cpp  ****         else if(fsr_raw <= FSR_MIN) vol = 0.0f;
 4034              		.loc 6 434 20 is_stmt 0 discriminator 1 view .LVU1363
 4035 0ea4 BDF88280 		ldrh	r8, [sp, #130]
 840:src/main.cpp  ****         }
 4036              		.loc 6 840 13 discriminator 1 view .LVU1364
 4037 0ea8 FFF754BA 		b	.L64
 4038              	.L538:
 4039              		.align	2
 4040              	.L537:
 4041 0eac 58020000 		.word	.LC19
 4042 0eb0 1F85EB51 		.word	1374389535
 4043 0eb4 64020000 		.word	.LC20
 4044 0eb8 0000C842 		.word	1120403456
 4045 0ebc B4020000 		.word	.LC22
 4046 0ec0 00000000 		.word	g_target_freq
 4047 0ec4 00000000 		.word	g_target_cutoff
 4048 0ec8 00000000 		.word	g_target_detune
 4049 0ecc 00000000 		.word	g_bitcrush
 4050 0ed0 00000000 		.word	g_vibrato_depth
 4051 0ed4 67666666 		.word	1717986919
 4052 0ed8 D0020000 		.word	.LC23
 4053 0edc 0C030000 		.word	.LC24
ARM GAS  /tmp/claude-502/cc2bPfvH.s 			page 128


 4054 0ee0 18000000 		.word	.LANCHOR0+24
 4055 0ee4 00000000 		.word	g_master_vol
 4056 0ee8 00007A44 		.word	1148846080
 4057 0eec 00000000 		.word	.LANCHOR6
 4058 0ef0 0000C843 		.word	1137180672
 4059 0ef4 00000000 		.word	g_ringmod
 4060              	.LVL310:
 4061              	.L493:
 4062              	.LBB1313:
 476:src/main.cpp  **** 
 4063              		.loc 6 476 13 is_stmt 1 view .LVU1365
 476:src/main.cpp  **** 
 4064              		.loc 6 476 51 is_stmt 0 view .LVU1366
 4065 0ef8 189B     		ldr	r3, [sp, #96]
 4066 0efa C71A     		subs	r7, r0, r3
 4067              	.LBB901:
 478:src/main.cpp  ****                 if(full_state && !touching){
 4068              		.loc 6 478 13 view .LVU1367
 4069 0efc 0F9B     		ldr	r3, [sp, #60]
 4070              	.LBE901:
 476:src/main.cpp  **** 
 4071              		.loc 6 476 34 view .LVU1368
 4072 0efe 3B2F     		cmp	r7, #59
 4073 0f00 CCBF     		ite	gt
 4074 0f02 0027     		movgt	r7, #0
 4075 0f04 0127     		movle	r7, #1
 4076              	.LVL311:
 478:src/main.cpp  ****                 if(full_state && !touching){
 4077              		.loc 6 478 13 is_stmt 1 view .LVU1369
 4078              	.LBB902:
 4079 0f06 002B     		cmp	r3, #0
 4080 0f08 7FF4B0AA 		bne	.L277
 479:src/main.cpp  ****                     if(full_since == 0) full_since = now;
 4081              		.loc 6 479 17 view .LVU1370
 4082 0f0c 0A9B     		ldr	r3, [sp, #40]
 4083 0f0e 002B     		cmp	r3, #0
 4084 0f10 01F01E80 		beq	.L288
 480:src/main.cpp  ****                     idle_since = now; last_touch_ms = now;   // freeze idle/rebaseline
 4085              		.loc 6 480 21 view .LVU1371
 4086 0f14 1A9B     		ldr	r3, [sp, #104]
 4087 0f16 002B     		cmp	r3, #0
 4088 0f18 00F01983 		beq	.L289
 4089              	.LVL312:
 481:src/main.cpp  ****                     if(now - full_since >= VOICE_SELECT_ENTER_MS){
 4090              		.loc 6 481 21 view .LVU1372
 481:src/main.cpp  ****                     if(now - full_since >= VOICE_SELECT_ENTER_MS){
 4091              		.loc 6 481 39 view .LVU1373
 482:src/main.cpp  ****                         sel_mode     = 1;
 4092              		.loc 6 482 21 view .LVU1374
 482:src/main.cpp  ****                         sel_mode     = 1;
 4093              		.loc 6 482 28 is_stmt 0 view .LVU1375
 4094 0f1c EB1A     		subs	r3, r5, r3
 4095              	.LVL313:
 482:src/main.cpp  ****                         sel_mode     = 1;
 4096              		.loc 6 482 21 view .LVU1376
 4097 0f1e B3F5FA6F 		cmp	r3, #2000
 4098 0f22 C0F06E86 		bcc	.L290
ARM GAS  /tmp/claude-502/cc2bPfvH.s 			page 129


 483:src/main.cpp  ****                         g_amp_target = 0.0f;                 // silence any held note
 4099              		.loc 6 483 25 is_stmt 1 view .LVU1377
 4100              	.LVL314:
 484:src/main.cpp  ****                         hw.PrintLine("[voice select] %s (%d/%d) - tap/slide glass; release FSR to k
 4101              		.loc 6 484 25 view .LVU1378
 484:src/main.cpp  ****                         hw.PrintLine("[voice select] %s (%d/%d) - tap/slide glass; release FSR to k
 4102              		.loc 6 484 38 is_stmt 0 view .LVU1379
 4103 0f26 0023     		movs	r3, #0
 4104 0f28 CB4A     		ldr	r2, .L539
 486:src/main.cpp  ****                         blink_start(cycle_pos(g_voice_idx), now);  // blink the current voice numbe
 4105              		.loc 6 486 45 view .LVU1380
 4106 0f2a CC48     		ldr	r0, .L539+4
 4107              	.LVL315:
 484:src/main.cpp  ****                         hw.PrintLine("[voice select] %s (%d/%d) - tap/slide glass; release FSR to k
 4108              		.loc 6 484 38 view .LVU1381
 4109 0f2c 1360     		str	r3, [r2]	@ float
 485:src/main.cpp  ****                                      VOICES[g_voice_idx].name, cycle_pos(g_voice_idx), cycle_total(
 4110              		.loc 6 485 25 is_stmt 1 view .LVU1382
 486:src/main.cpp  ****                         blink_start(cycle_pos(g_voice_idx), now);  // blink the current voice numbe
 4111              		.loc 6 486 58 is_stmt 0 view .LVU1383
 4112 0f2e 9422     		movs	r2, #148
 486:src/main.cpp  ****                         blink_start(cycle_pos(g_voice_idx), now);  // blink the current voice numbe
 4113              		.loc 6 486 45 view .LVU1384
 4114 0f30 0368     		ldr	r3, [r0]
 486:src/main.cpp  ****                         blink_start(cycle_pos(g_voice_idx), now);  // blink the current voice numbe
 4115              		.loc 6 486 58 view .LVU1385
 4116 0f32 02FB03F3 		mul	r3, r2, r3
 4117 0f36 059A     		ldr	r2, [sp, #20]
 4118 0f38 D158     		ldr	r1, [r2, r3]
 485:src/main.cpp  ****                                      VOICES[g_voice_idx].name, cycle_pos(g_voice_idx), cycle_total(
 4119              		.loc 6 485 37 view .LVU1386
 4120 0f3a 0368     		ldr	r3, [r0]
 4121              	.LVL316:
 4122              	.LBB858:
 4123              	.LBI858:
 823:src/voice.h   ****   int p = 0;
 4124              		.loc 8 823 12 is_stmt 1 view .LVU1387
 4125              	.LBB859:
 824:src/voice.h   ****   for (int i = 0; i <= idx && i < NUM_VOICES; i++)
 4126              		.loc 8 824 3 view .LVU1388
 825:src/voice.h   ****     if (!VOICES[i].no_cycle)
 4127              		.loc 8 825 3 view .LVU1389
 4128              	.LBB860:
 825:src/voice.h   ****     if (!VOICES[i].no_cycle)
 4129              		.loc 8 825 28 view .LVU1390
 4130              	.LBE860:
 824:src/voice.h   ****   for (int i = 0; i <= idx && i < NUM_VOICES; i++)
 4131              		.loc 8 824 7 is_stmt 0 view .LVU1391
 4132 0f3c 0F9A     		ldr	r2, [sp, #60]
 4133 0f3e 0C2B     		cmp	r3, #12
 4134 0f40 9E46     		mov	lr, r3
 4135 0f42 A8BF     		it	ge
 4136 0f44 4FF00C0E 		movge	lr, #12
 4137              	.LBB861:
 825:src/voice.h   ****     if (!VOICES[i].no_cycle)
 4138              		.loc 8 825 28 view .LVU1392
 4139 0f48 002B     		cmp	r3, #0
ARM GAS  /tmp/claude-502/cc2bPfvH.s 			page 130


 4140 0f4a 0CDB     		blt	.L79
 4141 0f4c C448     		ldr	r0, .L539+8
 825:src/voice.h   ****     if (!VOICES[i].no_cycle)
 4142              		.loc 8 825 12 view .LVU1393
 4143 0f4e 1346     		mov	r3, r2
 4144              	.LVL317:
 825:src/voice.h   ****     if (!VOICES[i].no_cycle)
 4145              		.loc 8 825 12 view .LVU1394
 4146 0f50 9446     		mov	ip, r2
 4147              	.LVL318:
 4148              	.L81:
 826:src/voice.h   ****       p++;
 4149              		.loc 8 826 5 is_stmt 1 view .LVU1395
 4150              		.loc 8 827 7 view .LVU1396
 826:src/voice.h   ****       p++;
 4151              		.loc 8 826 5 is_stmt 0 view .LVU1397
 4152 0f52 90F87C20 		ldrb	r2, [r0, #124]	@ zero_extendqisi2
 825:src/voice.h   ****     if (!VOICES[i].no_cycle)
 4153              		.loc 8 825 3 view .LVU1398
 4154 0f56 0133     		adds	r3, r3, #1
 4155              	.LVL319:
 825:src/voice.h   ****     if (!VOICES[i].no_cycle)
 4156              		.loc 8 825 28 view .LVU1399
 4157 0f58 9430     		adds	r0, r0, #148
 826:src/voice.h   ****       p++;
 4158              		.loc 8 826 5 view .LVU1400
 4159 0f5a 0AB9     		cbnz	r2, .L80
 4160              		.loc 8 827 8 view .LVU1401
 4161 0f5c 0CF1010C 		add	ip, ip, #1
 4162              	.LVL320:
 4163              	.L80:
 825:src/voice.h   ****     if (!VOICES[i].no_cycle)
 4164              		.loc 8 825 3 is_stmt 1 view .LVU1402
 825:src/voice.h   ****     if (!VOICES[i].no_cycle)
 4165              		.loc 8 825 28 view .LVU1403
 4166 0f60 7345     		cmp	r3, lr
 4167 0f62 F6DD     		ble	.L81
 825:src/voice.h   ****     if (!VOICES[i].no_cycle)
 4168              		.loc 8 825 28 is_stmt 0 view .LVU1404
 4169 0f64 6246     		mov	r2, ip
 4170              	.LVL321:
 4171              	.L79:
 825:src/voice.h   ****     if (!VOICES[i].no_cycle)
 4172              		.loc 8 825 28 view .LVU1405
 4173              	.LBE861:
 824:src/voice.h   ****   for (int i = 0; i <= idx && i < NUM_VOICES; i++)
 4174              		.loc 8 824 7 view .LVU1406
 4175 0f66 BE48     		ldr	r0, .L539+8
 4176              	.LBE859:
 4177              	.LBE858:
 4178              	.LBB862:
 4179              	.LBB863:
 817:src/voice.h   ****   for (int i = 0; i < NUM_VOICES; i++)
 4180              		.loc 8 817 7 view .LVU1407
 4181 0f68 4FF0000C 		mov	ip, #0
 4182              	.L83:
 4183              	.LVL322:
ARM GAS  /tmp/claude-502/cc2bPfvH.s 			page 131


 4184              	.LBB864:
 819:src/voice.h   ****       n++;
 4185              		.loc 8 819 5 is_stmt 1 view .LVU1408
 820:src/voice.h   ****   return n;
 4186              		.loc 8 820 7 view .LVU1409
 819:src/voice.h   ****       n++;
 4187              		.loc 8 819 5 is_stmt 0 view .LVU1410
 4188 0f6c 90F87C30 		ldrb	r3, [r0, #124]	@ zero_extendqisi2
 818:src/voice.h   ****     if (!VOICES[i].no_cycle)
 4189              		.loc 8 818 21 view .LVU1411
 4190 0f70 9430     		adds	r0, r0, #148
 819:src/voice.h   ****       n++;
 4191              		.loc 8 819 5 view .LVU1412
 4192 0f72 0BB9     		cbnz	r3, .L82
 820:src/voice.h   ****   return n;
 4193              		.loc 8 820 8 view .LVU1413
 4194 0f74 0CF1010C 		add	ip, ip, #1
 4195              	.LVL323:
 4196              	.L82:
 818:src/voice.h   ****     if (!VOICES[i].no_cycle)
 4197              		.loc 8 818 3 is_stmt 1 view .LVU1414
 818:src/voice.h   ****     if (!VOICES[i].no_cycle)
 4198              		.loc 8 818 21 view .LVU1415
 4199 0f78 BA4B     		ldr	r3, .L539+12
 4200 0f7a 8342     		cmp	r3, r0
 4201 0f7c F6D1     		bne	.L83
 818:src/voice.h   ****     if (!VOICES[i].no_cycle)
 4202              		.loc 8 818 21 is_stmt 0 view .LVU1416
 4203              	.LBE864:
 821:src/voice.h   **** }
 4204              		.loc 8 821 3 is_stmt 1 view .LVU1417
 4205              	.LVL324:
 821:src/voice.h   **** }
 4206              		.loc 8 821 3 is_stmt 0 view .LVU1418
 4207              	.LBE863:
 4208              	.LBE862:
 4209              	.LBB865:
 4210              	.LBI865:
 126:/Users/reza.kalfane/Workspaces/Daisy/DaisyExamples/libDaisy/src/daisy_seed.h ****     {
 4211              		.loc 1 126 17 is_stmt 1 view .LVU1419
 4212              	.LBB866:
 128:/Users/reza.kalfane/Workspaces/Daisy/DaisyExamples/libDaisy/src/daisy_seed.h ****     }
 4213              		.loc 1 128 23 is_stmt 0 view .LVU1420
 4214 0f7e 6346     		mov	r3, ip
 4215 0f80 B948     		ldr	r0, .L539+16
 4216 0f82 FFF7FEFF 		bl	_ZN5daisy6LoggerILNS_17LoggerDestinationE1EE9PrintLineEPKcz
 4217              	.LVL325:
 128:/Users/reza.kalfane/Workspaces/Daisy/DaisyExamples/libDaisy/src/daisy_seed.h ****     }
 4218              		.loc 1 128 23 view .LVU1421
 4219              	.LBE866:
 4220              	.LBE865:
 487:src/main.cpp  ****                     }
 4221              		.loc 6 487 25 is_stmt 1 view .LVU1422
 487:src/main.cpp  ****                     }
 4222              		.loc 6 487 36 is_stmt 0 view .LVU1423
 4223 0f86 B54B     		ldr	r3, .L539+4
 4224 0f88 1B68     		ldr	r3, [r3]
ARM GAS  /tmp/claude-502/cc2bPfvH.s 			page 132


 4225              	.LVL326:
 4226              	.LBB867:
 4227              	.LBI867:
 823:src/voice.h   ****   int p = 0;
 4228              		.loc 8 823 12 is_stmt 1 view .LVU1424
 4229              	.LBB868:
 4230              	.LBB869:
 825:src/voice.h   ****     if (!VOICES[i].no_cycle)
 4231              		.loc 8 825 28 view .LVU1425
 4232 0f8a 0C2B     		cmp	r3, #12
 4233 0f8c 1846     		mov	r0, r3
 4234 0f8e A8BF     		it	ge
 4235 0f90 0C20     		movge	r0, #12
 4236 0f92 002B     		cmp	r3, #0
 4237 0f94 C0F2F186 		blt	.L84
 825:src/voice.h   ****     if (!VOICES[i].no_cycle)
 4238              		.loc 8 825 12 is_stmt 0 view .LVU1426
 4239 0f98 0023     		movs	r3, #0
 4240              	.LVL327:
 825:src/voice.h   ****     if (!VOICES[i].no_cycle)
 4241              		.loc 8 825 28 view .LVU1427
 4242 0f9a B14A     		ldr	r2, .L539+8
 4243              	.LBE869:
 824:src/voice.h   ****   for (int i = 0; i <= idx && i < NUM_VOICES; i++)
 4244              		.loc 8 824 7 view .LVU1428
 4245 0f9c 9C46     		mov	ip, r3
 4246              	.LVL328:
 4247              	.L86:
 4248              	.LBB870:
 826:src/voice.h   ****       p++;
 4249              		.loc 8 826 5 is_stmt 1 view .LVU1429
 4250              		.loc 8 827 7 view .LVU1430
 826:src/voice.h   ****       p++;
 4251              		.loc 8 826 5 is_stmt 0 view .LVU1431
 4252 0f9e 92F87C10 		ldrb	r1, [r2, #124]	@ zero_extendqisi2
 825:src/voice.h   ****     if (!VOICES[i].no_cycle)
 4253              		.loc 8 825 3 view .LVU1432
 4254 0fa2 0133     		adds	r3, r3, #1
 4255              	.LVL329:
 825:src/voice.h   ****     if (!VOICES[i].no_cycle)
 4256              		.loc 8 825 28 view .LVU1433
 4257 0fa4 9432     		adds	r2, r2, #148
 826:src/voice.h   ****       p++;
 4258              		.loc 8 826 5 view .LVU1434
 4259 0fa6 09B9     		cbnz	r1, .L85
 4260              		.loc 8 827 8 view .LVU1435
 4261 0fa8 0CF1010C 		add	ip, ip, #1
 4262              	.LVL330:
 4263              	.L85:
 825:src/voice.h   ****     if (!VOICES[i].no_cycle)
 4264              		.loc 8 825 3 is_stmt 1 view .LVU1436
 825:src/voice.h   ****     if (!VOICES[i].no_cycle)
 4265              		.loc 8 825 28 view .LVU1437
 4266 0fac 8342     		cmp	r3, r0
 4267 0fae F6DD     		ble	.L86
 825:src/voice.h   ****     if (!VOICES[i].no_cycle)
 4268              		.loc 8 825 28 is_stmt 0 view .LVU1438
ARM GAS  /tmp/claude-502/cc2bPfvH.s 			page 133


 4269              	.LBE870:
 828:src/voice.h   ****   return p;
 4270              		.loc 8 828 3 is_stmt 1 view .LVU1439
 4271              	.LVL331:
 4272              		.loc 8 828 3 is_stmt 0 view .LVU1440
 4273              	.LBE868:
 4274              	.LBE867:
 4275              	.LBB871:
 4276              	.LBB872:
 349:src/main.cpp  ****         else     { leds_write(false); blink_on = false; }
 4277              		.loc 6 349 9 view .LVU1441
 4278 0fb0 6346     		mov	r3, ip
 4279              	.LVL332:
 349:src/main.cpp  ****         else     { leds_write(false); blink_on = false; }
 4280              		.loc 6 349 9 view .LVU1442
 4281              	.LBE872:
 4282              	.LBI871:
 347:src/main.cpp  ****         blink_left = n;
 4283              		.loc 6 347 24 is_stmt 1 view .LVU1443
 4284              	.LBB885:
 348:src/main.cpp  ****         if(n > 0){ leds_write(true); blink_on = true; blink_t = now + 110; }
 4285              		.loc 6 348 9 view .LVU1444
 349:src/main.cpp  ****         else     { leds_write(false); blink_on = false; }
 4286              		.loc 6 349 9 view .LVU1445
 4287 0fb2 CDF834C0 		str	ip, [sp, #52]
 4288 0fb6 002B     		cmp	r3, #0
 4289 0fb8 00F0DF86 		beq	.L84
 349:src/main.cpp  ****         else     { leds_write(false); blink_on = false; }
 4290              		.loc 6 349 20 view .LVU1446
 4291              	.LVL333:
 4292              	.LBB873:
 4293              	.LBI873:
 342:src/main.cpp  ****         hw.dac.WriteValue(DacHandle::Channel::ONE, on ? (uint16_t)LED1_MAX : 0);
 4294              		.loc 6 342 23 view .LVU1447
 4295              	.LBB874:
 343:src/main.cpp  ****         hw.dac.WriteValue(DacHandle::Channel::TWO, on ? (uint16_t)LED2_MAX : 0);
 4296              		.loc 6 343 9 view .LVU1448
 343:src/main.cpp  ****         hw.dac.WriteValue(DacHandle::Channel::TWO, on ? (uint16_t)LED2_MAX : 0);
 4297              		.loc 6 343 26 is_stmt 0 view .LVU1449
 4298 0fbc 40F6FF72 		movw	r2, #4095
 4299 0fc0 0021     		movs	r1, #0
 4300 0fc2 AA48     		ldr	r0, .L539+20
 4301              	.LBE874:
 4302              	.LBE873:
 4303 0fc4 0C97     		str	r7, [sp, #48]
 4304              	.LVL334:
 4305              	.LBB877:
 4306              	.LBB875:
 343:src/main.cpp  ****         hw.dac.WriteValue(DacHandle::Channel::TWO, on ? (uint16_t)LED2_MAX : 0);
 4307              		.loc 6 343 26 view .LVU1450
 4308 0fc6 FFF7FEFF 		bl	_ZN5daisy9DacHandle10WriteValueENS0_7ChannelEt
 4309              	.LVL335:
 344:src/main.cpp  ****         g_led3_duty = on ? LED3_INTENSITY : 0.0f;
 4310              		.loc 6 344 9 is_stmt 1 view .LVU1451
 344:src/main.cpp  ****         g_led3_duty = on ? LED3_INTENSITY : 0.0f;
 4311              		.loc 6 344 26 is_stmt 0 view .LVU1452
 4312 0fca 40F6FF72 		movw	r2, #4095
ARM GAS  /tmp/claude-502/cc2bPfvH.s 			page 134


 4313 0fce 0121     		movs	r1, #1
 4314 0fd0 A648     		ldr	r0, .L539+20
 4315 0fd2 FFF7FEFF 		bl	_ZN5daisy9DacHandle10WriteValueENS0_7ChannelEt
 4316              	.LVL336:
 345:src/main.cpp  ****     };
 4317              		.loc 6 345 9 is_stmt 1 view .LVU1453
 345:src/main.cpp  ****     };
 4318              		.loc 6 345 21 is_stmt 0 view .LVU1454
 4319 0fd6 A64B     		ldr	r3, .L539+24
 4320 0fd8 199A     		ldr	r2, [sp, #100]
 4321              	.LBE875:
 4322              	.LBE877:
 4323 0fda 0E95     		str	r5, [sp, #56]
 4324              	.LBB878:
 4325              	.LBB876:
 4326 0fdc 1360     		str	r3, [r2]	@ float
 4327              	.LVL337:
 345:src/main.cpp  ****     };
 4328              		.loc 6 345 21 view .LVU1455
 4329              	.LBE876:
 4330              	.LBE878:
 349:src/main.cpp  ****         else     { leds_write(false); blink_on = false; }
 4331              		.loc 6 349 38 is_stmt 1 view .LVU1456
 349:src/main.cpp  ****         else     { leds_write(false); blink_on = false; }
 4332              		.loc 6 349 55 view .LVU1457
 349:src/main.cpp  ****         else     { leds_write(false); blink_on = false; }
 4333              		.loc 6 349 69 is_stmt 0 view .LVU1458
 4334 0fde 05F16E03 		add	r3, r5, #110
 4335 0fe2 1493     		str	r3, [sp, #80]
 4336              	.LVL338:
 349:src/main.cpp  ****         else     { leds_write(false); blink_on = false; }
 4337              		.loc 6 349 47 view .LVU1459
 4338 0fe4 0A9B     		ldr	r3, [sp, #40]
 4339              	.LVL339:
 349:src/main.cpp  ****         else     { leds_write(false); blink_on = false; }
 4340              		.loc 6 349 47 view .LVU1460
 4341 0fe6 1093     		str	r3, [sp, #64]
 4342              	.LBE885:
 4343              	.LBE871:
 483:src/main.cpp  ****                         g_amp_target = 0.0f;                 // silence any held note
 4344              		.loc 6 483 38 view .LVU1461
 4345 0fe8 0123     		movs	r3, #1
 4346 0fea 0F93     		str	r3, [sp, #60]
 4347              	.LVL340:
 4348              	.L78:
 483:src/main.cpp  ****                         g_amp_target = 0.0f;                 // silence any held note
 4349              		.loc 6 483 38 view .LVU1462
 4350              	.LBE902:
 4351              	.LBE1313:
 547:src/main.cpp  ****                 tracked[0].alive=tracked[1].alive=false;
 4352              		.loc 6 547 13 is_stmt 1 view .LVU1463
 547:src/main.cpp  ****                 tracked[0].alive=tracked[1].alive=false;
 4353              		.loc 6 547 30 is_stmt 0 view .LVU1464
 4354 0fec FFF7FEFF 		bl	_ZN5daisy6System6GetNowEv
 4355              	.LVL341:
 547:src/main.cpp  ****                 tracked[0].alive=tracked[1].alive=false;
 4356              		.loc 6 547 32 view .LVU1465
ARM GAS  /tmp/claude-502/cc2bPfvH.s 			page 135


 4357 0ff0 401B     		subs	r0, r0, r5
 547:src/main.cpp  ****                 tracked[0].alive=tracked[1].alive=false;
 4358              		.loc 6 547 13 view .LVU1466
 4359 0ff2 B0F5FA6F 		cmp	r0, #2000
 4360 0ff6 80F06081 		bcs	.L513
 4361              	.LVL342:
 4362              	.L117:
 556:src/main.cpp  ****             last_touch_ms = System::GetNow();
 4363              		.loc 6 556 9 is_stmt 1 view .LVU1467
 558:src/main.cpp  ****             idle_chase_and_calibrate();
 4364              		.loc 6 558 16 view .LVU1468
 558:src/main.cpp  ****             idle_chase_and_calibrate();
 4365              		.loc 6 558 33 is_stmt 0 view .LVU1469
 4366 0ffa FFF7FEFF 		bl	_ZN5daisy6System6GetNowEv
 4367              	.LVL343:
 558:src/main.cpp  ****             idle_chase_and_calibrate();
 4368              		.loc 6 558 36 view .LVU1470
 4369 0ffe 0E9B     		ldr	r3, [sp, #56]
 4370 1000 C01A     		subs	r0, r0, r3
 558:src/main.cpp  ****             idle_chase_and_calibrate();
 4371              		.loc 6 558 16 view .LVU1471
 4372 1002 41F28733 		movw	r3, #4999
 4373 1006 9842     		cmp	r0, r3
 4374 1008 00F2DE82 		bhi	.L275
 558:src/main.cpp  ****             idle_chase_and_calibrate();
 4375              		.loc 6 558 16 view .LVU1472
 4376 100c 1795     		str	r5, [sp, #92]
 4377 100e FFF74EBA 		b	.L116
 4378              	.LVL344:
 4379              	.L181:
 4380              	.LBB1314:
 759:src/main.cpp  ****         } else {
 4381              		.loc 6 759 13 is_stmt 1 view .LVU1473
 759:src/main.cpp  ****         } else {
 4382              		.loc 6 759 23 is_stmt 0 view .LVU1474
 4383 1012 FFF7FEFF 		bl	_ZN5daisy6System6GetNowEv
 4384              	.LVL345:
 4385              	.LBB1085:
 352:src/main.cpp  ****         if(blink_left == 0 && !blink_on) return;
 4386              		.loc 6 352 23 is_stmt 1 view .LVU1475
 4387              	.LBB1084:
 353:src/main.cpp  ****         if((int32_t)(now - blink_t) < 0)  return;
 4388              		.loc 6 353 9 view .LVU1476
 354:src/main.cpp  ****         if(blink_on){ leds_write(false); blink_on = false; blink_left--; blink_t = now + 140; }
 4389              		.loc 6 354 9 view .LVU1477
 354:src/main.cpp  ****         if(blink_on){ leds_write(false); blink_on = false; blink_left--; blink_t = now + 140; }
 4390              		.loc 6 354 26 is_stmt 0 view .LVU1478
 4391 1016 149B     		ldr	r3, [sp, #80]
 4392 1018 C31A     		subs	r3, r0, r3
 354:src/main.cpp  ****         if(blink_on){ leds_write(false); blink_on = false; blink_left--; blink_t = now + 140; }
 4393              		.loc 6 354 9 view .LVU1479
 4394 101a 002B     		cmp	r3, #0
 4395 101c FFF649AC 		blt	.L184
 355:src/main.cpp  ****         else if(blink_left > 0){ leds_write(true); blink_on = true; blink_t = now + 110; }
 4396              		.loc 6 355 9 is_stmt 1 view .LVU1480
 4397 1020 109B     		ldr	r3, [sp, #64]
 4398 1022 002B     		cmp	r3, #0
ARM GAS  /tmp/claude-502/cc2bPfvH.s 			page 136


 4399 1024 7FF431AC 		bne	.L282
 356:src/main.cpp  ****     };
 4400              		.loc 6 356 14 view .LVU1481
 4401              	.LVL346:
 4402              	.LBB1076:
 4403              	.LBI1076:
 352:src/main.cpp  ****         if(blink_left == 0 && !blink_on) return;
 4404              		.loc 6 352 23 view .LVU1482
 4405              	.LBB1077:
 356:src/main.cpp  ****     };
 4406              		.loc 6 356 34 view .LVU1483
 4407              	.LBB1078:
 4408              	.LBI1078:
 342:src/main.cpp  ****         hw.dac.WriteValue(DacHandle::Channel::ONE, on ? (uint16_t)LED1_MAX : 0);
 4409              		.loc 6 342 23 view .LVU1484
 4410              	.LBB1079:
 343:src/main.cpp  ****         hw.dac.WriteValue(DacHandle::Channel::TWO, on ? (uint16_t)LED2_MAX : 0);
 4411              		.loc 6 343 9 view .LVU1485
 4412              	.LBE1079:
 4413              	.LBE1078:
 356:src/main.cpp  ****     };
 4414              		.loc 6 356 83 is_stmt 0 view .LVU1486
 4415 1028 00F16E03 		add	r3, r0, #110
 4416              	.LBB1082:
 4417              	.LBB1080:
 343:src/main.cpp  ****         hw.dac.WriteValue(DacHandle::Channel::TWO, on ? (uint16_t)LED2_MAX : 0);
 4418              		.loc 6 343 26 view .LVU1487
 4419 102c 1099     		ldr	r1, [sp, #64]
 4420 102e 40F6FF72 		movw	r2, #4095
 4421 1032 8E48     		ldr	r0, .L539+20
 4422              	.LVL347:
 343:src/main.cpp  ****         hw.dac.WriteValue(DacHandle::Channel::TWO, on ? (uint16_t)LED2_MAX : 0);
 4423              		.loc 6 343 26 view .LVU1488
 4424              	.LBE1080:
 4425              	.LBE1082:
 356:src/main.cpp  ****     };
 4426              		.loc 6 356 83 view .LVU1489
 4427 1034 1493     		str	r3, [sp, #80]
 4428              	.LVL348:
 4429              	.LBB1083:
 4430              	.LBB1081:
 343:src/main.cpp  ****         hw.dac.WriteValue(DacHandle::Channel::TWO, on ? (uint16_t)LED2_MAX : 0);
 4431              		.loc 6 343 26 view .LVU1490
 4432 1036 FFF7FEFF 		bl	_ZN5daisy9DacHandle10WriteValueENS0_7ChannelEt
 4433              	.LVL349:
 344:src/main.cpp  ****         g_led3_duty = on ? LED3_INTENSITY : 0.0f;
 4434              		.loc 6 344 9 is_stmt 1 view .LVU1491
 344:src/main.cpp  ****         g_led3_duty = on ? LED3_INTENSITY : 0.0f;
 4435              		.loc 6 344 26 is_stmt 0 view .LVU1492
 4436 103a 40F6FF72 		movw	r2, #4095
 4437 103e 0121     		movs	r1, #1
 4438 1040 8A48     		ldr	r0, .L539+20
 4439 1042 FFF7FEFF 		bl	_ZN5daisy9DacHandle10WriteValueENS0_7ChannelEt
 4440              	.LVL350:
 345:src/main.cpp  ****     };
 4441              		.loc 6 345 9 is_stmt 1 view .LVU1493
 345:src/main.cpp  ****     };
ARM GAS  /tmp/claude-502/cc2bPfvH.s 			page 137


 4442              		.loc 6 345 21 is_stmt 0 view .LVU1494
 4443 1046 8A4B     		ldr	r3, .L539+24
 4444 1048 199A     		ldr	r2, [sp, #100]
 4445 104a 1360     		str	r3, [r2]	@ float
 4446              	.LVL351:
 345:src/main.cpp  ****     };
 4447              		.loc 6 345 21 view .LVU1495
 4448              	.LBE1081:
 4449              	.LBE1083:
 356:src/main.cpp  ****     };
 4450              		.loc 6 356 52 is_stmt 1 view .LVU1496
 356:src/main.cpp  ****     };
 4451              		.loc 6 356 69 view .LVU1497
 356:src/main.cpp  ****     };
 4452              		.loc 6 356 61 is_stmt 0 view .LVU1498
 4453 104c 0123     		movs	r3, #1
 4454 104e 1093     		str	r3, [sp, #64]
 4455 1050 2FE4     		b	.L184
 4456              	.LVL352:
 4457              	.L501:
 356:src/main.cpp  ****     };
 4458              		.loc 6 356 61 view .LVU1499
 4459              	.LBE1077:
 4460              	.LBE1076:
 4461              	.LBE1084:
 4462              	.LBE1085:
 4463              	.LBE1314:
 4464              	.LBB1315:
 739:src/main.cpp  ****             g_finger_on  = false;
 4465              		.loc 6 739 13 is_stmt 1 view .LVU1500
 740:src/main.cpp  ****             g_amp_target = 0.0f;
 4466              		.loc 6 740 13 view .LVU1501
 740:src/main.cpp  ****             g_amp_target = 0.0f;
 4467              		.loc 6 740 26 is_stmt 0 view .LVU1502
 4468 1052 884B     		ldr	r3, .L539+28
 4469 1054 079A     		ldr	r2, [sp, #28]
 4470 1056 1A70     		strb	r2, [r3]
 741:src/main.cpp  ****             // Do NOT reset cutoff here ŌĆö let it close with the amplitude
 4471              		.loc 6 741 13 is_stmt 1 view .LVU1503
 741:src/main.cpp  ****             // Do NOT reset cutoff here ŌĆö let it close with the amplitude
 4472              		.loc 6 741 26 is_stmt 0 view .LVU1504
 4473 1058 0023     		movs	r3, #0
 4474 105a 7F4A     		ldr	r2, .L539
 4475 105c 1360     		str	r3, [r2]	@ float
 4476 105e 06E4     		b	.L167
 4477              	.LVL353:
 4478              	.L498:
 741:src/main.cpp  ****             // Do NOT reset cutoff here ŌĆö let it close with the amplitude
 4479              		.loc 6 741 26 view .LVU1505
 4480              	.LBE1315:
 570:src/main.cpp  **** 
 4481              		.loc 6 570 54 discriminator 1 view .LVU1506
 4482 1060 FFF7FEFF 		bl	_ZN5daisy6System6GetNowEv
 4483              	.LVL354:
 570:src/main.cpp  **** 
 4484              		.loc 6 570 57 discriminator 1 view .LVU1507
 4485 1064 1B9B     		ldr	r3, [sp, #108]
ARM GAS  /tmp/claude-502/cc2bPfvH.s 			page 138


 4486 1066 C01A     		subs	r0, r0, r3
 570:src/main.cpp  **** 
 4487              		.loc 6 570 36 discriminator 1 view .LVU1508
 4488 1068 C728     		cmp	r0, #199
 4489 106a 94BF     		ite	ls
 4490 106c 0023     		movls	r3, #0
 4491 106e 0123     		movhi	r3, #1
 4492 1070 1193     		str	r3, [sp, #68]
 4493 1072 FFF72DBA 		b	.L146
 4494              	.LVL355:
 4495              	.L497:
 569:src/main.cpp  ****         bool f1_fresh = !f1_was_on && (System::GetNow() - f1_last_seen_ms >= F1_REQUANTIZE_MS);
 4496              		.loc 6 569 19 is_stmt 1 discriminator 1 view .LVU1509
 569:src/main.cpp  ****         bool f1_fresh = !f1_was_on && (System::GetNow() - f1_last_seen_ms >= F1_REQUANTIZE_MS);
 4497              		.loc 6 569 51 is_stmt 0 discriminator 1 view .LVU1510
 4498 1076 FFF7FEFF 		bl	_ZN5daisy6System6GetNowEv
 4499              	.LVL356:
 569:src/main.cpp  ****         bool f1_fresh = !f1_was_on && (System::GetNow() - f1_last_seen_ms >= F1_REQUANTIZE_MS);
 4500              		.loc 6 569 51 discriminator 1 view .LVU1511
 4501 107a 1B90     		str	r0, [sp, #108]
 4502              	.LVL357:
 569:src/main.cpp  ****         bool f1_fresh = !f1_was_on && (System::GetNow() - f1_last_seen_ms >= F1_REQUANTIZE_MS);
 4503              		.loc 6 569 51 discriminator 1 view .LVU1512
 4504 107c FFF722BA 		b	.L145
 4505              	.LVL358:
 4506              	.L504:
 4507              	.LBB1316:
 4508              	.LBB1086:
 761:src/main.cpp  ****             if(f1_on) {
 4509              		.loc 6 761 13 is_stmt 1 view .LVU1513
 762:src/main.cpp  ****                 float p01      = clampf((float)tracked[0].pos / 1000.0f, 0.0f, 1.0f);
 4510              		.loc 6 762 13 view .LVU1514
 4511              	.LBB1087:
 4512 1080 079B     		ldr	r3, [sp, #28]
 4513 1082 002B     		cmp	r3, #0
 4514 1084 00F0F181 		beq	.L323
 4515              	.LBB1088:
 763:src/main.cpp  ****                 float pr01     = clampf((float)tracked[0].pressure / 100.0f, 0.0f, 1.0f);
 4516              		.loc 6 763 17 view .LVU1515
 763:src/main.cpp  ****                 float pr01     = clampf((float)tracked[0].pressure / 100.0f, 0.0f, 1.0f);
 4517              		.loc 6 763 41 is_stmt 0 view .LVU1516
 4518 1088 DAED017A 		vldr.32	s15, [r10, #4]	@ int
 763:src/main.cpp  ****                 float pr01     = clampf((float)tracked[0].pressure / 100.0f, 0.0f, 1.0f);
 4519              		.loc 6 763 40 view .LVU1517
 4520 108c DFED7A6A 		vldr.32	s13, .L539+32
 763:src/main.cpp  ****                 float pr01     = clampf((float)tracked[0].pressure / 100.0f, 0.0f, 1.0f);
 4521              		.loc 6 763 41 view .LVU1518
 4522 1090 F8EEE77A 		vcvt.f32.s32	s15, s15
 763:src/main.cpp  ****                 float pr01     = clampf((float)tracked[0].pressure / 100.0f, 0.0f, 1.0f);
 4523              		.loc 6 763 40 view .LVU1519
 4524 1094 87EEA67A 		vdiv.f32	s14, s15, s13
 4525              	.LVL359:
 4526              	.LBB1089:
 4527              	.LBI1089:
  12:src/dsp.h     ****     return v<lo?lo:v>hi?hi:v;
 4528              		.loc 9 12 21 is_stmt 1 view .LVU1520
 4529              	.LBB1090:
ARM GAS  /tmp/claude-502/cc2bPfvH.s 			page 139


 4530              		.loc 9 13 5 view .LVU1521
 4531              		.loc 9 13 16 is_stmt 0 view .LVU1522
 4532 1098 B5EEC07A 		vcmpe.f32	s14, #0
 4533 109c F1EE10FA 		vmrs	APSR_nzcv, FPSCR
 4534 10a0 00F1D484 		bmi	.L187
 4535              		.loc 9 13 24 view .LVU1523
 4536 10a4 F7EE007A 		vmov.f32	s15, #1.0e+0
 4537 10a8 B4EEE77A 		vcmpe.f32	s14, s15
 4538 10ac F1EE10FA 		vmrs	APSR_nzcv, FPSCR
 4539 10b0 00F31986 		bgt	.L188
 4540              	.LVL360:
 4541              		.loc 9 13 24 view .LVU1524
 4542              	.LBE1090:
 4543              	.LBE1089:
 764:src/main.cpp  ****                 float prs_mult = 0.75f + 0.25f * pr01;
 4544              		.loc 6 764 17 is_stmt 1 view .LVU1525
 764:src/main.cpp  ****                 float prs_mult = 0.75f + 0.25f * pr01;
 4545              		.loc 6 764 41 is_stmt 0 view .LVU1526
 4546 10b4 DAED026A 		vldr.32	s13, [r10, #8]	@ int
 764:src/main.cpp  ****                 float prs_mult = 0.75f + 0.25f * pr01;
 4547              		.loc 6 764 40 view .LVU1527
 4548 10b8 DFED705A 		vldr.32	s11, .L539+36
 764:src/main.cpp  ****                 float prs_mult = 0.75f + 0.25f * pr01;
 4549              		.loc 6 764 41 view .LVU1528
 4550 10bc B8EEE66A 		vcvt.f32.s32	s12, s13
 764:src/main.cpp  ****                 float prs_mult = 0.75f + 0.25f * pr01;
 4551              		.loc 6 764 40 view .LVU1529
 4552 10c0 C6EE256A 		vdiv.f32	s13, s12, s11
 4553              	.LVL361:
 4554              	.LBB1091:
 4555              	.LBI1091:
  12:src/dsp.h     ****     return v<lo?lo:v>hi?hi:v;
 4556              		.loc 9 12 21 is_stmt 1 view .LVU1530
 4557              	.LBB1092:
 4558              		.loc 9 13 5 view .LVU1531
 4559              		.loc 9 13 16 is_stmt 0 view .LVU1532
 4560 10c4 F5EEC06A 		vcmpe.f32	s13, #0
 4561 10c8 F1EE10FA 		vmrs	APSR_nzcv, FPSCR
 4562 10cc 40F18086 		bpl	.L469
 4563              	.LBE1092:
 4564              	.LBE1091:
 768:src/main.cpp  ****                 led1_target    = sqrtf(sqrtf(l2_raw)) * prs_mult;  // middle tent
 4565              		.loc 6 768 58 view .LVU1533
 4566 10d0 F6EE006A 		vmov.f32	s13, #5.0e-1
 4567              	.LVL362:
 766:src/main.cpp  ****                 float l3_raw   = 2.0f * p01 - 1.0f;                 if(l3_raw < 0) l3_raw = 0;
 4568              		.loc 6 766 23 view .LVU1534
 4569 10d4 B0EE006A 		vmov.f32	s12, #2.0e+0
 4570              	.LVL363:
 767:src/main.cpp  ****                 float l2_raw   = 1.0f - 2.0f * fabsf(p01 - 0.5f);   if(l2_raw < 0) l2_raw = 0;
 4571              		.loc 6 767 23 view .LVU1535
 4572 10d8 FFEE00BA 		vmov.f32	s23, #-1.0e+0
 768:src/main.cpp  ****                 led1_target    = sqrtf(sqrtf(l2_raw)) * prs_mult;  // middle tent
 4573              		.loc 6 768 23 view .LVU1536
 4574 10dc B6EE08CA 		vmov.f32	s24, #7.5e-1
 4575              	.L488:
 768:src/main.cpp  ****                 led1_target    = sqrtf(sqrtf(l2_raw)) * prs_mult;  // middle tent
ARM GAS  /tmp/claude-502/cc2bPfvH.s 			page 140


 4576              		.loc 6 768 58 view .LVU1537
 4577 10e0 77EE666A 		vsub.f32	s13, s14, s13
 766:src/main.cpp  ****                 float l3_raw   = 2.0f * p01 - 1.0f;                 if(l3_raw < 0) l3_raw = 0;
 4578              		.loc 6 766 23 view .LVU1538
 4579 10e4 B0EE67BA 		vmov.f32	s22, s15
 767:src/main.cpp  ****                 float l2_raw   = 1.0f - 2.0f * fabsf(p01 - 0.5f);   if(l2_raw < 0) l2_raw = 0;
 4580              		.loc 6 767 23 view .LVU1539
 4581 10e8 E7EE06BA 		vfma.f32	s23, s14, s12
 768:src/main.cpp  ****                 led1_target    = sqrtf(sqrtf(l2_raw)) * prs_mult;  // middle tent
 4582              		.loc 6 768 53 view .LVU1540
 4583 10ec F0EEE66A 		vabs.f32	s13, s13
 766:src/main.cpp  ****                 float l3_raw   = 2.0f * p01 - 1.0f;                 if(l3_raw < 0) l3_raw = 0;
 4584              		.loc 6 766 23 view .LVU1541
 4585 10f0 A7EE46BA 		vfms.f32	s22, s14, s12
 768:src/main.cpp  ****                 led1_target    = sqrtf(sqrtf(l2_raw)) * prs_mult;  // middle tent
 4586              		.loc 6 768 23 view .LVU1542
 4587 10f4 E6EEC67A 		vfms.f32	s15, s13, s12
 4588 10f8 B0EE677A 		vmov.f32	s14, s15
 4589              	.LVL364:
 4590              	.L191:
 765:src/main.cpp  ****                 float l1_raw   = 1.0f - 2.0f * p01;                 if(l1_raw < 0) l1_raw = 0;
 4591              		.loc 6 765 17 is_stmt 1 view .LVU1543
 766:src/main.cpp  ****                 float l3_raw   = 2.0f * p01 - 1.0f;                 if(l3_raw < 0) l3_raw = 0;
 4592              		.loc 6 766 17 view .LVU1544
 766:src/main.cpp  ****                 float l3_raw   = 2.0f * p01 - 1.0f;                 if(l3_raw < 0) l3_raw = 0;
 4593              		.loc 6 766 69 view .LVU1545
 4594 10fc B5EEC0BA 		vcmpe.f32	s22, #0
 4595 1100 F1EE10FA 		vmrs	APSR_nzcv, FPSCR
 767:src/main.cpp  ****                 float l2_raw   = 1.0f - 2.0f * fabsf(p01 - 0.5f);   if(l2_raw < 0) l2_raw = 0;
 4596              		.loc 6 767 69 is_stmt 0 view .LVU1546
 4597 1104 F5EEC0BA 		vcmpe.f32	s23, #0
 766:src/main.cpp  ****                 float l3_raw   = 2.0f * p01 - 1.0f;                 if(l3_raw < 0) l3_raw = 0;
 4598              		.loc 6 766 91 view .LVU1547
 4599 1108 48BF     		it	mi
 4600 110a 9FED5DBA 		vldrmi.32	s22, .L539+40
 4601              	.LVL365:
 767:src/main.cpp  ****                 float l2_raw   = 1.0f - 2.0f * fabsf(p01 - 0.5f);   if(l2_raw < 0) l2_raw = 0;
 4602              		.loc 6 767 17 is_stmt 1 view .LVU1548
 767:src/main.cpp  ****                 float l2_raw   = 1.0f - 2.0f * fabsf(p01 - 0.5f);   if(l2_raw < 0) l2_raw = 0;
 4603              		.loc 6 767 69 view .LVU1549
 4604 110e F1EE10FA 		vmrs	APSR_nzcv, FPSCR
 768:src/main.cpp  ****                 led1_target    = sqrtf(sqrtf(l2_raw)) * prs_mult;  // middle tent
 4605              		.loc 6 768 69 is_stmt 0 view .LVU1550
 4606 1112 B5EEC07A 		vcmpe.f32	s14, #0
 767:src/main.cpp  ****                 float l2_raw   = 1.0f - 2.0f * fabsf(p01 - 0.5f);   if(l2_raw < 0) l2_raw = 0;
 4607              		.loc 6 767 91 view .LVU1551
 4608 1116 48BF     		it	mi
 4609 1118 DFED59BA 		vldrmi.32	s23, .L539+40
 4610              	.LVL366:
 768:src/main.cpp  ****                 led1_target    = sqrtf(sqrtf(l2_raw)) * prs_mult;  // middle tent
 4611              		.loc 6 768 17 is_stmt 1 view .LVU1552
 768:src/main.cpp  ****                 led1_target    = sqrtf(sqrtf(l2_raw)) * prs_mult;  // middle tent
 4612              		.loc 6 768 69 view .LVU1553
 4613 111c F1EE10FA 		vmrs	APSR_nzcv, FPSCR
 4614 1120 40F1CC86 		bpl	.L514
 768:src/main.cpp  ****                 led1_target    = sqrtf(sqrtf(l2_raw)) * prs_mult;  // middle tent
 4615              		.loc 6 768 91 is_stmt 0 view .LVU1554
ARM GAS  /tmp/claude-502/cc2bPfvH.s 			page 141


 4616 1124 9FED567A 		vldr.32	s14, .L539+40
 4617              	.L198:
 4618              	.LVL367:
 769:src/main.cpp  ****                 led2_target    = sqrtf(sqrtf(l1_raw)) * prs_mult;  // pos 0 ramp
 4619              		.loc 6 769 39 view .LVU1555
 4620 1128 B1EEC70A 		vsqrt.f32	s0, s14
 4621              	.LVL368:
 4622              	.L201:
 769:src/main.cpp  ****                 led2_target    = sqrtf(sqrtf(l1_raw)) * prs_mult;  // pos 0 ramp
 4623              		.loc 6 769 39 view .LVU1556
 4624 112c B5EE400A 		vcmp.f32	s0, #0
 4625 1130 F1EE10FA 		vmrs	APSR_nzcv, FPSCR
 4626 1134 00F16687 		bmi	.L472
 4627 1138 F1EEC07A 		vsqrt.f32	s15, s0
 4628              	.L204:
 4629 113c B5EE40BA 		vcmp.f32	s22, #0
 769:src/main.cpp  ****                 led2_target    = sqrtf(sqrtf(l1_raw)) * prs_mult;  // pos 0 ramp
 4630              		.loc 6 769 32 view .LVU1557
 4631 1140 67EE8CAA 		vmul.f32	s21, s15, s24
 4632              	.LVL369:
 770:src/main.cpp  ****                 led3_target    = sqrtf(sqrtf(l3_raw)) * prs_mult * LED3_INTENSITY;
 4633              		.loc 6 770 17 is_stmt 1 view .LVU1558
 4634 1144 F1EE10FA 		vmrs	APSR_nzcv, FPSCR
 4635 1148 00F15687 		bmi	.L473
 770:src/main.cpp  ****                 led3_target    = sqrtf(sqrtf(l3_raw)) * prs_mult * LED3_INTENSITY;
 4636              		.loc 6 770 39 is_stmt 0 view .LVU1559
 4637 114c B1EECB0A 		vsqrt.f32	s0, s22
 4638              	.L207:
 4639 1150 B5EE400A 		vcmp.f32	s0, #0
 4640 1154 F1EE10FA 		vmrs	APSR_nzcv, FPSCR
 4641 1158 00F10C87 		bmi	.L474
 4642 115c F1EEC07A 		vsqrt.f32	s15, s0
 4643              	.L210:
 4644 1160 F5EE40BA 		vcmp.f32	s23, #0
 770:src/main.cpp  ****                 led3_target    = sqrtf(sqrtf(l3_raw)) * prs_mult * LED3_INTENSITY;
 4645              		.loc 6 770 32 view .LVU1560
 4646 1164 2CEE27BA 		vmul.f32	s22, s24, s15
 4647              	.LVL370:
 771:src/main.cpp  ****             }
 4648              		.loc 6 771 17 is_stmt 1 view .LVU1561
 4649 1168 F1EE10FA 		vmrs	APSR_nzcv, FPSCR
 4650 116c 00F1FC86 		bmi	.L475
 771:src/main.cpp  ****             }
 4651              		.loc 6 771 39 is_stmt 0 view .LVU1562
 4652 1170 B1EEEB0A 		vsqrt.f32	s0, s23
 4653              	.L213:
 771:src/main.cpp  ****             }
 4654              		.loc 6 771 39 view .LVU1563
 4655 1174 B5EE400A 		vcmp.f32	s0, #0
 4656 1178 F1EE10FA 		vmrs	APSR_nzcv, FPSCR
 4657 117c 00F1EE86 		bmi	.L476
 4658 1180 F1EEC07A 		vsqrt.f32	s15, s0
 4659              	.L216:
 771:src/main.cpp  ****             }
 4660              		.loc 6 771 32 view .LVU1564
 4661 1184 9FED3F7A 		vldr.32	s14, .L539+44
 4662              	.LBE1088:
ARM GAS  /tmp/claude-502/cc2bPfvH.s 			page 142


 4663              	.LBE1087:
 4664              	.LBB1112:
 775:src/main.cpp  ****                 s_led1 = led1_target;
 4665              		.loc 6 775 13 view .LVU1565
 4666 1188 089B     		ldr	r3, [sp, #32]
 4667              	.LBE1112:
 4668              	.LBB1116:
 4669              	.LBB1103:
 771:src/main.cpp  ****             }
 4670              		.loc 6 771 55 view .LVU1566
 4671 118a 6CEE277A 		vmul.f32	s15, s24, s15
 771:src/main.cpp  ****             }
 4672              		.loc 6 771 32 view .LVU1567
 4673 118e 67EE877A 		vmul.f32	s15, s15, s14
 4674              	.LVL371:
 771:src/main.cpp  ****             }
 4675              		.loc 6 771 32 view .LVU1568
 4676              	.LBE1103:
 4677              	.LBE1116:
 775:src/main.cpp  ****                 s_led1 = led1_target;
 4678              		.loc 6 775 13 is_stmt 1 view .LVU1569
 4679              	.LBB1117:
 4680 1192 002B     		cmp	r3, #0
 4681 1194 40F08585 		bne	.L515
 4682              	.LBE1117:
 4683              	.LBB1118:
 4684              	.LBB1104:
 771:src/main.cpp  ****             }
 4685              		.loc 6 771 32 is_stmt 0 view .LVU1570
 4686 1198 B0EE679A 		vmov.f32	s18, s15
 4687              	.LVL372:
 770:src/main.cpp  ****                 led3_target    = sqrtf(sqrtf(l3_raw)) * prs_mult * LED3_INTENSITY;
 4688              		.loc 6 770 32 view .LVU1571
 4689 119c B0EE4BAA 		vmov.f32	s20, s22
 4690              	.LVL373:
 769:src/main.cpp  ****                 led2_target    = sqrtf(sqrtf(l1_raw)) * prs_mult;  // pos 0 ramp
 4691              		.loc 6 769 32 view .LVU1572
 4692 11a0 F0EE6A9A 		vmov.f32	s19, s21
 4693              	.LVL374:
 4694              	.L217:
 769:src/main.cpp  ****                 led2_target    = sqrtf(sqrtf(l1_raw)) * prs_mult;  // pos 0 ramp
 4695              		.loc 6 769 32 view .LVU1573
 4696              	.LBE1104:
 4697              	.LBE1118:
 785:src/main.cpp  ****             hw.dac.WriteValue(DacHandle::Channel::TWO, (uint16_t)(s_led2 * LED2_MAX));
 4698              		.loc 6 785 13 is_stmt 1 view .LVU1574
 785:src/main.cpp  ****             hw.dac.WriteValue(DacHandle::Channel::TWO, (uint16_t)(s_led2 * LED2_MAX));
 4699              		.loc 6 785 74 is_stmt 0 view .LVU1575
 4700 11a4 DFED38AA 		vldr.32	s21, .L539+48
 785:src/main.cpp  ****             hw.dac.WriteValue(DacHandle::Channel::TWO, (uint16_t)(s_led2 * LED2_MAX));
 4701              		.loc 6 785 30 view .LVU1576
 4702 11a8 0021     		movs	r1, #0
 4703 11aa 3048     		ldr	r0, .L539+20
 785:src/main.cpp  ****             hw.dac.WriteValue(DacHandle::Channel::TWO, (uint16_t)(s_led2 * LED2_MAX));
 4704              		.loc 6 785 74 view .LVU1577
 4705 11ac 69EEAA7A 		vmul.f32	s15, s19, s21
 785:src/main.cpp  ****             hw.dac.WriteValue(DacHandle::Channel::TWO, (uint16_t)(s_led2 * LED2_MAX));
ARM GAS  /tmp/claude-502/cc2bPfvH.s 			page 143


 4706              		.loc 6 785 30 view .LVU1578
 4707 11b0 FCEEE77A 		vcvt.u32.f32	s15, s15
 4708 11b4 17EE903A 		vmov	r3, s15	@ int
 4709 11b8 9AB2     		uxth	r2, r3
 4710 11ba FFF7FEFF 		bl	_ZN5daisy9DacHandle10WriteValueENS0_7ChannelEt
 4711              	.LVL375:
 786:src/main.cpp  ****             g_led3_duty = s_led3;  // audio callback sigma-delta's this onto A0
 4712              		.loc 6 786 13 is_stmt 1 view .LVU1579
 786:src/main.cpp  ****             g_led3_duty = s_led3;  // audio callback sigma-delta's this onto A0
 4713              		.loc 6 786 74 is_stmt 0 view .LVU1580
 4714 11be 6AEE2AAA 		vmul.f32	s21, s20, s21
 786:src/main.cpp  ****             g_led3_duty = s_led3;  // audio callback sigma-delta's this onto A0
 4715              		.loc 6 786 30 view .LVU1581
 4716 11c2 0121     		movs	r1, #1
 4717 11c4 2948     		ldr	r0, .L539+20
 4718 11c6 FCEEEAAA 		vcvt.u32.f32	s21, s21
 4719 11ca 1AEE903A 		vmov	r3, s21	@ int
 4720 11ce 9AB2     		uxth	r2, r3
 4721 11d0 FFF7FEFF 		bl	_ZN5daisy9DacHandle10WriteValueENS0_7ChannelEt
 4722              	.LVL376:
 787:src/main.cpp  ****         }
 4723              		.loc 6 787 13 is_stmt 1 view .LVU1582
 787:src/main.cpp  ****         }
 4724              		.loc 6 787 25 is_stmt 0 view .LVU1583
 4725 11d4 199B     		ldr	r3, [sp, #100]
 4726 11d6 83ED009A 		vstr.32	s18, [r3]
 4727 11da FFF76ABB 		b	.L184
 4728              	.LVL377:
 4729              	.L349:
 787:src/main.cpp  ****         }
 4730              		.loc 6 787 25 view .LVU1584
 4731              	.LBE1086:
 4732              	.LBE1316:
 4733              	.LBB1317:
 476:src/main.cpp  **** 
 4734              		.loc 6 476 34 view .LVU1585
 4735 11de 0123     		movs	r3, #1
 4736 11e0 0C93     		str	r3, [sp, #48]
 4737              	.LVL378:
 4738              	.LBB903:
 490:src/main.cpp  ****                 }
 4739              		.loc 6 490 32 view .LVU1586
 4740 11e2 0F9B     		ldr	r3, [sp, #60]
 4741 11e4 1A93     		str	r3, [sp, #104]
 4742              	.LVL379:
 490:src/main.cpp  ****                 }
 4743              		.loc 6 490 32 view .LVU1587
 4744 11e6 FFF75CB9 		b	.L276
 4745              	.LVL380:
 4746              	.L70:
 490:src/main.cpp  ****                 }
 4747              		.loc 6 490 32 view .LVU1588
 4748              	.LBE903:
 4749              	.LBE1317:
 437:src/main.cpp  **** 
 4750              		.loc 6 437 9 is_stmt 1 view .LVU1589
 437:src/main.cpp  **** 
ARM GAS  /tmp/claude-502/cc2bPfvH.s 			page 144


 4751              		.loc 6 437 22 is_stmt 0 view .LVU1590
 4752 11ea DFED257A 		vldr.32	s15, .L539+40
 4753 11ee 274B     		ldr	r3, .L539+52
 435:src/main.cpp  ****         else                        vol = (float)(fsr_raw - FSR_MIN) * fsr_active_inv;
 4754              		.loc 6 435 41 view .LVU1591
 4755 11f0 B0EE678A 		vmov.f32	s16, s15
 437:src/main.cpp  **** 
 4756              		.loc 6 437 22 view .LVU1592
 4757 11f4 C3ED007A 		vstr.32	s15, [r3]
 444:src/main.cpp  ****         else if(vol >= 0.4f)   full_state = false;   // clearly eased off
 4758              		.loc 6 444 9 is_stmt 1 view .LVU1593
 444:src/main.cpp  ****         else if(vol >= 0.4f)   full_state = false;   // clearly eased off
 4759              		.loc 6 444 43 is_stmt 0 view .LVU1594
 4760 11f8 0123     		movs	r3, #1
 4761 11fa 0A93     		str	r3, [sp, #40]
 4762              	.LVL381:
 444:src/main.cpp  ****         else if(vol >= 0.4f)   full_state = false;   // clearly eased off
 4763              		.loc 6 444 43 view .LVU1595
 4764 11fc FFF7CCB8 		b	.L71
 4765              	.LVL382:
 4766              	.L307:
 4767              	.LBB1318:
 4768              	.LBB1060:
 4769              	.LBB1042:
 4770              	.LBB996:
 4771              		.loc 9 13 16 view .LVU1596
 4772 1200 9FED1FBA 		vldr.32	s22, .L539+40
 4773              	.LVL383:
 4774              		.loc 9 13 16 view .LVU1597
 4775 1204 FFF703BA 		b	.L170
 4776              	.LVL384:
 4777              	.L305:
 4778              		.loc 9 13 16 view .LVU1598
 4779              	.LBE996:
 4780              	.LBE1042:
 4781              	.LBB1043:
 4782              	.LBB993:
 4783 1208 9FED1D7A 		vldr.32	s14, .L539+40
 4784              	.LVL385:
 4785              		.loc 9 13 16 view .LVU1599
 4786 120c FFF7E9B9 		b	.L169
 4787              	.LVL386:
 4788              	.L311:
 4789              		.loc 9 13 16 view .LVU1600
 4790              	.LBE993:
 4791              	.LBE1043:
 4792              	.LBB1044:
 4793              	.LBB1001:
 4794              	.LBB1002:
 4795              	.LBB1003:
 4796 1210 F0EE6A7A 		vmov.f32	s15, s21
 4797              	.LVL387:
 4798              	.L173:
 4799              		.loc 9 13 16 view .LVU1601
 4800              	.LBE1003:
 4801              	.LBE1002:
 4802              	.LBE1001:
ARM GAS  /tmp/claude-502/cc2bPfvH.s 			page 145


 4803              	.LBE1044:
 4804              	.LBB1045:
 4805              	.LBB1013:
 4806              		.loc 9 13 24 view .LVU1602
 4807 1214 F4EEE7BA 		vcmpe.f32	s23, s15
 4808 1218 F1EE10FA 		vmrs	APSR_nzcv, FPSCR
 4809              	.LBE1013:
 4810              	.LBE1045:
 4811              	.LBB1046:
 4812              	.LBB1018:
 692:src/main.cpp  ****                 return x*x*x*(x*(x*6.0f - 15.0f) + 10.0f);
 4813              		.loc 6 692 24 view .LVU1603
 4814 121c B5EEC0BA 		vcmpe.f32	s22, #0
 4815              	.LBE1018:
 4816              	.LBE1046:
 4817              	.LBB1047:
 4818              	.LBB1014:
 4819              		.loc 9 13 24 view .LVU1604
 4820 1220 58BF     		it	pl
 4821 1222 F0EE67BA 		vmovpl.f32	s23, s15
 4822              	.LVL388:
 4823              		.loc 9 13 24 view .LVU1605
 4824              	.LBE1014:
 4825              	.LBE1047:
 687:src/main.cpp  ****                 x = x<0?0:x>1?1:x;
 4826              		.loc 6 687 13 is_stmt 1 view .LVU1606
 691:src/main.cpp  ****                 x = x<0?0:x>1?1:x;
 4827              		.loc 6 691 13 view .LVU1607
 698:src/main.cpp  ****             float cutoff_oct = VOICE.cutoff_oct_max * prs_cut;
 4828              		.loc 6 698 13 view .LVU1608
 4829              	.LBB1048:
 691:src/main.cpp  ****                 x = x<0?0:x>1?1:x;
 4830              		.loc 6 691 33 view .LVU1609
 4831              	.LBB1019:
 692:src/main.cpp  ****                 return x*x*x*(x*(x*6.0f - 15.0f) + 10.0f);
 4832              		.loc 6 692 17 view .LVU1610
 692:src/main.cpp  ****                 return x*x*x*(x*(x*6.0f - 15.0f) + 10.0f);
 4833              		.loc 6 692 24 is_stmt 0 view .LVU1611
 4834 1226 F1EE10FA 		vmrs	APSR_nzcv, FPSCR
 4835 122a 7FF531AA 		bpl	.L516
 4836              	.L314:
 692:src/main.cpp  ****                 return x*x*x*(x*(x*6.0f - 15.0f) + 10.0f);
 4837              		.loc 6 692 24 view .LVU1612
 4838 122e DFED147A 		vldr.32	s15, .L539+40
 4839 1232 FFF744BA 		b	.L175
 4840              	.LVL389:
 4841              	.L309:
 692:src/main.cpp  ****                 return x*x*x*(x*(x*6.0f - 15.0f) + 10.0f);
 4842              		.loc 6 692 24 view .LVU1613
 4843              	.LBE1019:
 4844              	.LBE1048:
 4845              	.LBB1049:
 4846              	.LBB999:
 4847              		.loc 9 13 16 view .LVU1614
 4848 1236 F0EE6A7A 		vmov.f32	s15, s21
 4849              	.LVL390:
 4850              		.loc 9 13 16 view .LVU1615
ARM GAS  /tmp/claude-502/cc2bPfvH.s 			page 146


 4851 123a FFF710BA 		b	.L171
 4852              	.LVL391:
 4853              	.L319:
 4854              		.loc 9 13 16 view .LVU1616
 4855              	.LBE999:
 4856              	.LBE1049:
 4857              	.LBB1050:
 4858              	.LBB1040:
 688:src/main.cpp  ****                 return x*x*(3.0f - 2.0f*x);
 4859              		.loc 6 688 24 view .LVU1617
 4860 123e B5EEC0BA 		vcmpe.f32	s22, #0
 4861              	.LBE1040:
 4862              	.LBE1050:
 4863              	.LBB1051:
 4864              	.LBB1029:
 4865 1242 DFED0FCA 		vldr.32	s25, .L539+40
 4866              	.LVL392:
 688:src/main.cpp  ****                 return x*x*(3.0f - 2.0f*x);
 4867              		.loc 6 688 24 view .LVU1618
 4868              	.LBE1029:
 4869              	.LBE1051:
 4870              	.LBB1052:
 4871              	.LBB1035:
 689:src/main.cpp  ****             };
 4872              		.loc 6 689 17 is_stmt 1 view .LVU1619
 689:src/main.cpp  ****             };
 4873              		.loc 6 689 17 is_stmt 0 view .LVU1620
 4874              	.LBE1035:
 4875              	.LBE1052:
 716:src/main.cpp  **** 
 4876              		.loc 6 716 13 is_stmt 1 view .LVU1621
 4877              	.LBB1053:
 687:src/main.cpp  ****                 x = x<0?0:x>1?1:x;
 4878              		.loc 6 687 31 view .LVU1622
 4879              	.LBB1041:
 688:src/main.cpp  ****                 return x*x*(3.0f - 2.0f*x);
 4880              		.loc 6 688 17 view .LVU1623
 688:src/main.cpp  ****                 return x*x*(3.0f - 2.0f*x);
 4881              		.loc 6 688 24 is_stmt 0 view .LVU1624
 4882 1246 F1EE10FA 		vmrs	APSR_nzcv, FPSCR
 4883 124a 7FF5CBAA 		bpl	.L517
 4884              	.L321:
 688:src/main.cpp  ****                 return x*x*(3.0f - 2.0f*x);
 4885              		.loc 6 688 24 view .LVU1625
 4886 124e DFED0C7A 		vldr.32	s15, .L539+40
 4887 1252 FFF7D8BA 		b	.L179
 4888              	.L540:
 4889 1256 00BF     		.align	2
 4890              	.L539:
 4891 1258 00000000 		.word	g_amp_target
 4892 125c 00000000 		.word	.LANCHOR1
 4893 1260 00000000 		.word	.LANCHOR5
 4894 1264 84070000 		.word	.LANCHOR5+1924
 4895 1268 28010000 		.word	.LC9
 4896 126c 20000000 		.word	.LANCHOR0+32
 4897 1270 CDCC4C3D 		.word	1028443341
 4898 1274 00000000 		.word	g_finger_on
ARM GAS  /tmp/claude-502/cc2bPfvH.s 			page 147


 4899 1278 00007A44 		.word	1148846080
 4900 127c 0000C842 		.word	1120403456
 4901 1280 00000000 		.word	0
 4902 1284 CDCC4C3D 		.word	1028443341
 4903 1288 00F07F45 		.word	1166012416
 4904 128c 00000000 		.word	g_master_vol
 4905              	.LVL393:
 4906              	.L317:
 688:src/main.cpp  ****                 return x*x*(3.0f - 2.0f*x);
 4907              		.loc 6 688 24 view .LVU1626
 4908              	.LBE1041:
 4909              	.LBE1053:
 4910              	.LBB1054:
 4911              	.LBB1025:
 4912              		.loc 9 13 16 view .LVU1627
 4913 1290 F0EE67AA 		vmov.f32	s21, s15
 4914              	.LVL394:
 4915              		.loc 9 13 16 view .LVU1628
 4916 1294 FFF759BA 		b	.L177
 4917              	.LVL395:
 4918              	.L99:
 4919              		.loc 9 13 16 view .LVU1629
 4920              	.LBE1025:
 4921              	.LBE1054:
 4922              	.LBE1060:
 4923              	.LBE1318:
 4924              	.LBB1319:
 4925              	.LBB904:
 4926              	.LBB888:
 4927              	.LBB847:
 4928              	.LBB784:
 517:src/main.cpp  ****                         g_finger_on = false; g_amp_target = 0.0f;   // silent cycling
 4929              		.loc 6 517 21 is_stmt 1 view .LVU1630
 522:src/main.cpp  ****                         // Drums kit: a tap fires a kick + snare "one-two" (one-shots).
 4930              		.loc 6 522 21 view .LVU1631
 522:src/main.cpp  ****                         // Drums kit: a tap fires a kick + snare "one-two" (one-shots).
 4931              		.loc 6 522 36 is_stmt 0 view .LVU1632
 4932 1298 B14B     		ldr	r3, .L541
 4933 129a 1B68     		ldr	r3, [r3]
 522:src/main.cpp  ****                         // Drums kit: a tap fires a kick + snare "one-two" (one-shots).
 4934              		.loc 6 522 21 view .LVU1633
 4935 129c 0C2B     		cmp	r3, #12
 4936 129e 00F06C84 		beq	.L109
 4937              	.LBE784:
 4938              	.LBE847:
 4939              	.LBE888:
 4940              	.LBE904:
 4941              	.LBE1319:
 544:src/main.cpp  ****             idle_since=System::GetNow();
 4942              		.loc 6 544 9 view .LVU1634
 4943 12a2 002E     		cmp	r6, #0
 4944              	.LBB1320:
 4945              	.LBB905:
 4946              	.LBB889:
 4947              	.LBB848:
 4948              	.LBB785:
 522:src/main.cpp  ****                         // Drums kit: a tap fires a kick + snare "one-two" (one-shots).
ARM GAS  /tmp/claude-502/cc2bPfvH.s 			page 148


 4949              		.loc 6 522 21 view .LVU1635
 4950 12a4 0C97     		str	r7, [sp, #48]
 522:src/main.cpp  ****                         // Drums kit: a tap fires a kick + snare "one-two" (one-shots).
 4951              		.loc 6 522 21 view .LVU1636
 4952              	.LBE785:
 4953              	.LBE848:
 4954              	.LBE889:
 4955              	.LBE905:
 540:src/main.cpp  ****         }
 4956              		.loc 6 540 13 is_stmt 1 view .LVU1637
 4957              	.LVL396:
 540:src/main.cpp  ****         }
 4958              		.loc 6 540 13 is_stmt 0 view .LVU1638
 4959              	.LBE1320:
 544:src/main.cpp  ****             idle_since=System::GetNow();
 4960              		.loc 6 544 9 is_stmt 1 view .LVU1639
 4961 12a6 3FF7FCA8 		bgt	.L276
 4962              	.LVL397:
 4963              	.L496:
 544:src/main.cpp  ****             idle_since=System::GetNow();
 4964              		.loc 6 544 9 is_stmt 0 view .LVU1640
 4965 12aa 0E95     		str	r5, [sp, #56]
 4966              	.LVL398:
 547:src/main.cpp  ****                 tracked[0].alive=tracked[1].alive=false;
 4967              		.loc 6 547 13 is_stmt 1 view .LVU1641
 547:src/main.cpp  ****                 tracked[0].alive=tracked[1].alive=false;
 4968              		.loc 6 547 30 is_stmt 0 view .LVU1642
 4969 12ac FFF7FEFF 		bl	_ZN5daisy6System6GetNowEv
 4970              	.LVL399:
 547:src/main.cpp  ****                 tracked[0].alive=tracked[1].alive=false;
 4971              		.loc 6 547 32 view .LVU1643
 4972 12b0 401B     		subs	r0, r0, r5
 547:src/main.cpp  ****                 tracked[0].alive=tracked[1].alive=false;
 4973              		.loc 6 547 13 view .LVU1644
 4974 12b2 B0F5FA6F 		cmp	r0, #2000
 4975 12b6 FFF4A0AE 		bcc	.L117
 4976              	.LVL400:
 4977              	.L513:
 548:src/main.cpp  ****                 capture_baseline(baseline);
 4978              		.loc 6 548 17 is_stmt 1 view .LVU1645
 548:src/main.cpp  ****                 capture_baseline(baseline);
 4979              		.loc 6 548 50 is_stmt 0 view .LVU1646
 4980 12ba 0023     		movs	r3, #0
 549:src/main.cpp  ****                 hw.PrintLine("[rebaseline]");
 4981              		.loc 6 549 33 view .LVU1647
 4982 12bc 0998     		ldr	r0, [sp, #36]
 548:src/main.cpp  ****                 capture_baseline(baseline);
 4983              		.loc 6 548 50 view .LVU1648
 4984 12be 8AF81430 		strb	r3, [r10, #20]
 548:src/main.cpp  ****                 capture_baseline(baseline);
 4985              		.loc 6 548 33 view .LVU1649
 4986 12c2 8AF80030 		strb	r3, [r10]
 549:src/main.cpp  ****                 hw.PrintLine("[rebaseline]");
 4987              		.loc 6 549 17 is_stmt 1 view .LVU1650
 549:src/main.cpp  ****                 hw.PrintLine("[rebaseline]");
 4988              		.loc 6 549 33 is_stmt 0 view .LVU1651
 4989 12c6 FFF7FEFF 		bl	_Z16capture_baselinePt
ARM GAS  /tmp/claude-502/cc2bPfvH.s 			page 149


 4990              	.LVL401:
 550:src/main.cpp  ****                 idle_since=System::GetNow();
 4991              		.loc 6 550 17 is_stmt 1 view .LVU1652
 4992              	.LBB1321:
 4993              	.LBI1321:
 126:/Users/reza.kalfane/Workspaces/Daisy/DaisyExamples/libDaisy/src/daisy_seed.h ****     {
 4994              		.loc 1 126 17 view .LVU1653
 4995              	.LBB1322:
 128:/Users/reza.kalfane/Workspaces/Daisy/DaisyExamples/libDaisy/src/daisy_seed.h ****     }
 4996              		.loc 1 128 23 is_stmt 0 view .LVU1654
 4997 12ca A648     		ldr	r0, .L541+4
 4998 12cc FFF7FEFF 		bl	_ZN5daisy6LoggerILNS_17LoggerDestinationE1EE9PrintLineEPKcz
 4999              	.LVL402:
 128:/Users/reza.kalfane/Workspaces/Daisy/DaisyExamples/libDaisy/src/daisy_seed.h ****     }
 5000              		.loc 1 128 23 view .LVU1655
 5001              	.LBE1322:
 5002              	.LBE1321:
 551:src/main.cpp  ****             }
 5003              		.loc 6 551 17 is_stmt 1 view .LVU1656
 551:src/main.cpp  ****             }
 5004              		.loc 6 551 42 is_stmt 0 view .LVU1657
 5005 12d0 FFF7FEFF 		bl	_ZN5daisy6System6GetNowEv
 5006              	.LVL403:
 5007 12d4 0546     		mov	r5, r0
 5008              	.LVL404:
 551:src/main.cpp  ****             }
 5009              		.loc 6 551 42 view .LVU1658
 5010 12d6 90E6     		b	.L117
 5011              	.LVL405:
 5012              	.L505:
 5013              	.LBB1323:
 5014              	.LBB1207:
 800:src/main.cpp  **** 
 5015              		.loc 6 800 13 is_stmt 1 view .LVU1659
 803:src/main.cpp  ****                 x = x<0?0:x>1?1:x;
 5016              		.loc 6 803 13 view .LVU1660
 809:src/main.cpp  ****             float ss3 = smootherstep2(ss2);   // triple smootherstep ŌĆö very lazy
 5017              		.loc 6 809 13 view .LVU1661
 5018              	.LBB1191:
 691:src/main.cpp  ****                 x = x<0?0:x>1?1:x;
 5019              		.loc 6 691 33 view .LVU1662
 5020              	.LBB1152:
 692:src/main.cpp  ****                 return x*x*x*(x*(x*6.0f - 15.0f) + 10.0f);
 5021              		.loc 6 692 17 view .LVU1663
 693:src/main.cpp  ****             };
 5022              		.loc 6 693 41 is_stmt 0 view .LVU1664
 5023 12d8 B1EE085A 		vmov.f32	s10, #6.0e+0
 5024              	.LBE1152:
 5025              	.LBE1191:
 822:src/main.cpp  ****             float rm    = smoothstep2(rm_in) * VOICE.ringmod_max;
 5026              		.loc 6 822 41 view .LVU1665
 5027 12dc 9FEDA24A 		vldr.32	s8, .L541+8
 5028              	.LBB1192:
 5029              	.LBB1153:
 693:src/main.cpp  ****             };
 5030              		.loc 6 693 41 view .LVU1666
 5031 12e0 FAEE0E4A 		vmov.f32	s9, #-1.5e+1
ARM GAS  /tmp/claude-502/cc2bPfvH.s 			page 150


 5032              	.LBE1153:
 5033              	.LBE1192:
 822:src/main.cpp  ****             float rm    = smoothstep2(rm_in) * VOICE.ringmod_max;
 5034              		.loc 6 822 33 view .LVU1667
 5035 12e4 DFEDA13A 		vldr.32	s7, .L541+12
 5036              	.LBB1193:
 5037              	.LBB1154:
 693:src/main.cpp  ****             };
 5038              		.loc 6 693 50 view .LVU1668
 5039 12e8 B2EE047A 		vmov.f32	s14, #1.0e+1
 693:src/main.cpp  ****             };
 5040              		.loc 6 693 25 view .LVU1669
 5041 12ec 67EEA76A 		vmul.f32	s13, s15, s15
 693:src/main.cpp  ****             };
 5042              		.loc 6 693 41 view .LVU1670
 5043 12f0 E7EE854A 		vfma.f32	s9, s15, s10
 5044              	.LBE1154:
 5045              	.LBE1193:
 822:src/main.cpp  ****             float rm    = smoothstep2(rm_in) * VOICE.ringmod_max;
 5046              		.loc 6 822 41 view .LVU1671
 5047 12f4 37EEC44A 		vsub.f32	s8, s15, s8
 5048              	.LBB1194:
 5049              	.LBB1155:
 693:src/main.cpp  ****             };
 5050              		.loc 6 693 27 view .LVU1672
 5051 12f8 66EEA76A 		vmul.f32	s13, s13, s15
 5052              	.LBE1155:
 5053              	.LBE1194:
 822:src/main.cpp  ****             float rm    = smoothstep2(rm_in) * VOICE.ringmod_max;
 5054              		.loc 6 822 33 view .LVU1673
 5055 12fc 84EE235A 		vdiv.f32	s10, s8, s7
 5056              	.LBB1195:
 5057              	.LBB1156:
 693:src/main.cpp  ****             };
 5058              		.loc 6 693 50 view .LVU1674
 5059 1300 A7EEA47A 		vfma.f32	s14, s15, s9
 693:src/main.cpp  ****             };
 5060              		.loc 6 693 57 view .LVU1675
 5061 1304 26EE877A 		vmul.f32	s14, s13, s14
 693:src/main.cpp  ****             };
 5062              		.loc 6 693 17 is_stmt 1 view .LVU1676
 5063              	.LVL406:
 693:src/main.cpp  ****             };
 5064              		.loc 6 693 17 is_stmt 0 view .LVU1677
 5065              	.LBE1156:
 5066              	.LBE1195:
 810:src/main.cpp  ****             float bc  = smootherstep2(ss3) * VOICE.fold_max; // ceiling is voice-defined
 5067              		.loc 6 810 13 is_stmt 1 view .LVU1678
 5068              	.LBB1196:
 691:src/main.cpp  ****                 x = x<0?0:x>1?1:x;
 5069              		.loc 6 691 33 view .LVU1679
 5070              	.LBB1160:
 692:src/main.cpp  ****                 return x*x*x*(x*(x*6.0f - 15.0f) + 10.0f);
 5071              		.loc 6 692 17 view .LVU1680
 692:src/main.cpp  ****                 return x*x*x*(x*(x*6.0f - 15.0f) + 10.0f);
 5072              		.loc 6 692 24 is_stmt 0 view .LVU1681
 5073 1308 B5EEC07A 		vcmpe.f32	s14, #0
ARM GAS  /tmp/claude-502/cc2bPfvH.s 			page 151


 5074 130c F1EE10FA 		vmrs	APSR_nzcv, FPSCR
 5075 1310 40F1BF82 		bpl	.L518
 5076 1314 9FED967A 		vldr.32	s14, .L541+16
 5077 1318 FFF730BB 		b	.L224
 5078              	.LVL407:
 5079              	.L326:
 692:src/main.cpp  ****                 return x*x*x*(x*(x*6.0f - 15.0f) + 10.0f);
 5080              		.loc 6 692 24 view .LVU1682
 5081              	.LBE1160:
 5082              	.LBE1196:
 5083              	.LBB1197:
 5084              	.LBB1144:
 5085 131c FFEE085A 		vmov.f32	s11, #-1.5e+0
 5086 1320 FFF7EEBA 		b	.L219
 5087              	.LVL408:
 5088              	.L328:
 692:src/main.cpp  ****                 return x*x*x*(x*(x*6.0f - 15.0f) + 10.0f);
 5089              		.loc 6 692 24 view .LVU1683
 5090              	.LBE1144:
 5091              	.LBE1197:
 5092              	.LBB1198:
 5093              	.LBB1148:
 5094              		.loc 9 13 16 view .LVU1684
 5095 1324 DFED927A 		vldr.32	s15, .L541+16
 5096 1328 FFF702BB 		b	.L220
 5097              	.LVL409:
 5098              	.L332:
 5099              		.loc 9 13 16 view .LVU1685
 5100              	.LBE1148:
 5101              	.LBE1198:
 5102              	.LBB1199:
 5103              	.LBB1188:
 5104 132c DFED907A 		vldr.32	s15, .L541+16
 5105 1330 FFF75EBB 		b	.L230
 5106              	.LVL410:
 5107              	.L503:
 5108              		.loc 9 13 16 view .LVU1686
 5109              	.LBE1188:
 5110              	.LBE1199:
 5111              	.LBE1207:
 5112              	.LBE1323:
 5113              	.LBB1324:
 5114              	.LBB1061:
 708:src/main.cpp  ****             float cutoff   = clampf(track_freq * VOICE.cutoff_mult * oct_mult, 20.0f, 18000.0f);
 5115              		.loc 6 708 40 discriminator 2 view .LVU1687
 5116 1334 8BEEAA0A 		vdiv.f32	s0, s23, s21
 5117 1338 FFF7FEFF 		bl	powf
 5118              	.LVL411:
 707:src/main.cpp  ****                 : VOICE.freq_low * powf(freq / VOICE.freq_low, VOICE.keytrack);
 5119              		.loc 6 707 17 discriminator 2 view .LVU1688
 5120 133c 6AEE80AA 		vmul.f32	s21, s21, s0
 5121 1340 FFF7E9B9 		b	.L176
 5122              	.LVL412:
 5123              	.L500:
 707:src/main.cpp  ****                 : VOICE.freq_low * powf(freq / VOICE.freq_low, VOICE.keytrack);
 5124              		.loc 6 707 17 discriminator 2 view .LVU1689
 5125 1344 8B4E     		ldr	r6, .L541+20
ARM GAS  /tmp/claude-502/cc2bPfvH.s 			page 152


 5126              	.LBE1061:
 5127              	.LBE1324:
 5128              	.LBB1325:
 617:src/main.cpp  ****             // Poly drums: each finger drives its own slot.
 5129              		.loc 6 617 9 view .LVU1690
 5130 1346 A0F15007 		sub	r7, r0, #80
 5131              	.LBB942:
 5132              	.LBB943:
 619:src/main.cpp  ****                 if(reatk[i])                                  trigger_drum(i, tracked[i].pos, track
 5133              		.loc 6 619 21 view .LVU1691
 5134 134a 0025     		movs	r5, #0
 5135 134c DDF85480 		ldr	r8, [sp, #84]
 5136 1350 0494     		str	r4, [sp, #16]
 5137              	.LVL413:
 5138              	.L166:
 620:src/main.cpp  ****                 else if(!deb_alive[i] && hit_was_alive[i])    g_hits[i].gate = false;  // lifted Ōå
 5139              		.loc 6 620 17 is_stmt 1 view .LVU1692
 620:src/main.cpp  ****                 else if(!deb_alive[i] && hit_was_alive[i])    g_hits[i].gate = false;  // lifted Ōå
 5140              		.loc 6 620 27 is_stmt 0 view .LVU1693
 5141 1352 18F8013B 		ldrb	r3, [r8], #1	@ zero_extendqisi2
 620:src/main.cpp  ****                 else if(!deb_alive[i] && hit_was_alive[i])    g_hits[i].gate = false;  // lifted Ōå
 5142              		.loc 6 620 17 view .LVU1694
 5143 1356 1BBB     		cbnz	r3, .L519
 621:src/main.cpp  ****             }
 5144              		.loc 6 621 22 is_stmt 1 view .LVU1695
 5145 1358 49AB     		add	r3, sp, #292
 5146 135a 5B5D     		ldrb	r3, [r3, r5]	@ zero_extendqisi2
 5147 135c 1BB9     		cbnz	r3, .L165
 621:src/main.cpp  ****             }
 5148              		.loc 6 621 39 is_stmt 0 discriminator 1 view .LVU1696
 5149 135e 22AA     		add	r2, sp, #136
 5150 1360 525D     		ldrb	r2, [r2, r5]	@ zero_extendqisi2
 5151 1362 02B1     		cbz	r2, .L165
 621:src/main.cpp  ****             }
 5152              		.loc 6 621 63 is_stmt 1 discriminator 2 view .LVU1697
 621:src/main.cpp  ****             }
 5153              		.loc 6 621 78 is_stmt 0 discriminator 2 view .LVU1698
 5154 1364 7370     		strb	r3, [r6, #1]
 5155              	.L165:
 619:src/main.cpp  ****                 if(reatk[i])                                  trigger_drum(i, tracked[i].pos, track
 5156              		.loc 6 619 13 is_stmt 1 discriminator 2 view .LVU1699
 5157 1366 0135     		adds	r5, r5, #1
 5158              	.LVL414:
 619:src/main.cpp  ****                 if(reatk[i])                                  trigger_drum(i, tracked[i].pos, track
 5159              		.loc 6 619 30 discriminator 2 view .LVU1700
 5160 1368 4C36     		adds	r6, r6, #76
 5161 136a 1437     		adds	r7, r7, #20
 5162 136c 042D     		cmp	r5, #4
 5163 136e F0D1     		bne	.L166
 5164              	.LBE943:
 623:src/main.cpp  ****         } else {
 5165              		.loc 6 623 26 is_stmt 0 view .LVU1701
 5166 1370 0023     		movs	r3, #0
 5167 1372 814A     		ldr	r2, .L541+24
 5168 1374 049C     		ldr	r4, [sp, #16]
 623:src/main.cpp  ****         } else {
 5169              		.loc 6 623 13 is_stmt 1 view .LVU1702
ARM GAS  /tmp/claude-502/cc2bPfvH.s 			page 153


 623:src/main.cpp  ****         } else {
 5170              		.loc 6 623 26 is_stmt 0 view .LVU1703
 5171 1376 1360     		str	r3, [r2]	@ float
 5172              	.LVL415:
 623:src/main.cpp  ****         } else {
 5173              		.loc 6 623 26 view .LVU1704
 5174              	.LBE942:
 5175              	.LBE1325:
 5176              	.LBB1326:
 630:src/main.cpp  **** 
 5177              		.loc 6 630 26 is_stmt 1 view .LVU1705
 630:src/main.cpp  **** 
 5178              		.loc 6 630 46 view .LVU1706
 630:src/main.cpp  **** 
 5179              		.loc 6 630 63 is_stmt 0 view .LVU1707
 5180 1378 9DF82431 		ldrb	r3, [sp, #292]	@ zero_extendqisi2
 5181 137c 8DF88830 		strb	r3, [sp, #136]
 630:src/main.cpp  **** 
 5182              		.loc 6 630 9 is_stmt 1 view .LVU1708
 5183              	.LVL416:
 630:src/main.cpp  **** 
 5184              		.loc 6 630 26 view .LVU1709
 630:src/main.cpp  **** 
 5185              		.loc 6 630 46 view .LVU1710
 630:src/main.cpp  **** 
 5186              		.loc 6 630 63 is_stmt 0 view .LVU1711
 5187 1380 9DF82531 		ldrb	r3, [sp, #293]	@ zero_extendqisi2
 5188 1384 8DF88930 		strb	r3, [sp, #137]
 630:src/main.cpp  **** 
 5189              		.loc 6 630 9 is_stmt 1 view .LVU1712
 5190              	.LVL417:
 630:src/main.cpp  **** 
 5191              		.loc 6 630 26 view .LVU1713
 630:src/main.cpp  **** 
 5192              		.loc 6 630 46 view .LVU1714
 630:src/main.cpp  **** 
 5193              		.loc 6 630 63 is_stmt 0 view .LVU1715
 5194 1388 9DF82631 		ldrb	r3, [sp, #294]	@ zero_extendqisi2
 5195 138c 8DF88A30 		strb	r3, [sp, #138]
 630:src/main.cpp  **** 
 5196              		.loc 6 630 9 is_stmt 1 view .LVU1716
 5197              	.LVL418:
 630:src/main.cpp  **** 
 5198              		.loc 6 630 26 view .LVU1717
 630:src/main.cpp  **** 
 5199              		.loc 6 630 46 view .LVU1718
 630:src/main.cpp  **** 
 5200              		.loc 6 630 63 is_stmt 0 view .LVU1719
 5201 1390 9DF82731 		ldrb	r3, [sp, #295]	@ zero_extendqisi2
 5202 1394 8DF88B30 		strb	r3, [sp, #139]
 630:src/main.cpp  **** 
 5203              		.loc 6 630 9 is_stmt 1 view .LVU1720
 5204              	.LVL419:
 630:src/main.cpp  **** 
 5205              		.loc 6 630 26 view .LVU1721
 5206              	.LBE1326:
 633:src/main.cpp  **** 
ARM GAS  /tmp/claude-502/cc2bPfvH.s 			page 154


 5207              		.loc 6 633 9 view .LVU1722
 633:src/main.cpp  **** 
 5208              		.loc 6 633 37 is_stmt 0 view .LVU1723
 5209 1398 784B     		ldr	r3, .L541+28
 5210 139a 1D68     		ldr	r5, [r3]
 5211              	.LVL420:
 635:src/main.cpp  ****         {
 5212              		.loc 6 635 9 is_stmt 1 view .LVU1724
 5213 139c FFF767BA 		b	.L167
 5214              	.LVL421:
 5215              	.L519:
 5216              	.LBB1327:
 5217              	.LBB981:
 5218              	.LBB975:
 620:src/main.cpp  ****                 else if(!deb_alive[i] && hit_was_alive[i])    g_hits[i].gate = false;  // lifted Ōå
 5219              		.loc 6 620 63 discriminator 1 view .LVU1725
 5220              	.LBB944:
 5221              	.LBI944:
 386:src/main.cpp  ****         float p    = clampf((float)pos / 1000.0f, 0.0f, 1.0f);
 5222              		.loc 6 386 25 discriminator 1 view .LVU1726
 5223              	.LBB945:
 5224              	.LBB946:
 387:src/main.cpp  ****         int   zone = (int)(p * 4.0f); if(zone > 3) zone = 3;
 5225              		.loc 6 387 9 discriminator 1 view .LVU1727
 387:src/main.cpp  ****         int   zone = (int)(p * 4.0f); if(zone > 3) zone = 3;
 5226              		.loc 6 387 29 is_stmt 0 discriminator 1 view .LVU1728
 5227 13a0 D7ED017A 		vldr.32	s15, [r7, #4]	@ int
 387:src/main.cpp  ****         int   zone = (int)(p * 4.0f); if(zone > 3) zone = 3;
 5228              		.loc 6 387 28 discriminator 1 view .LVU1729
 5229 13a4 DFED766A 		vldr.32	s13, .L541+32
 387:src/main.cpp  ****         int   zone = (int)(p * 4.0f); if(zone > 3) zone = 3;
 5230              		.loc 6 387 29 discriminator 1 view .LVU1730
 5231 13a8 B8EEE77A 		vcvt.f32.s32	s14, s15
 387:src/main.cpp  ****         int   zone = (int)(p * 4.0f); if(zone > 3) zone = 3;
 5232              		.loc 6 387 28 discriminator 1 view .LVU1731
 5233 13ac C7EE267A 		vdiv.f32	s15, s14, s13
 5234              	.LVL422:
 5235              	.LBB947:
 5236              	.LBI947:
  12:src/dsp.h     ****     return v<lo?lo:v>hi?hi:v;
 5237              		.loc 9 12 21 is_stmt 1 discriminator 1 view .LVU1732
 5238              	.LBB948:
 5239              		.loc 9 13 5 discriminator 1 view .LVU1733
 5240              		.loc 9 13 16 is_stmt 0 discriminator 1 view .LVU1734
 5241 13b0 F5EEC07A 		vcmpe.f32	s15, #0
 5242 13b4 F1EE10FA 		vmrs	APSR_nzcv, FPSCR
 5243 13b8 00F18782 		bmi	.L300
 5244              		.loc 9 13 24 view .LVU1735
 5245 13bc F7EE00AA 		vmov.f32	s21, #1.0e+0
 5246 13c0 F4EEEA7A 		vcmpe.f32	s15, s21
 5247 13c4 F1EE10FA 		vmrs	APSR_nzcv, FPSCR
 5248 13c8 66DD     		ble	.L520
 5249 13ca B3EE09DA 		vmov.f32	s26, #2.5e+1
 5250 13ce DFED6DBA 		vldr.32	s23, .L541+36
 5251 13d2 DFED6D0A 		vldr.32	s1, .L541+40
 5252 13d6 0B24     		movs	r4, #11
 5253 13d8 9FED6CCA 		vldr.32	s24, .L541+44
ARM GAS  /tmp/claude-502/cc2bPfvH.s 			page 155


 5254 13dc DFED6CCA 		vldr.32	s25, .L541+48
 5255              	.L162:
 5256              	.LVL423:
 5257              		.loc 9 13 24 view .LVU1736
 5258              	.LBE948:
 5259              	.LBE947:
 388:src/main.cpp  ****         int   vidx = MULTI_ZONES[zone];
 5260              		.loc 6 388 9 is_stmt 1 view .LVU1737
 388:src/main.cpp  ****         int   vidx = MULTI_ZONES[zone];
 5261              		.loc 6 388 39 view .LVU1738
 389:src/main.cpp  ****         const Voice& V = VOICES[vidx];
 5262              		.loc 6 389 9 view .LVU1739
 390:src/main.cpp  ****         float subp = p * 4.0f - (float)zone;
 5263              		.loc 6 390 9 view .LVU1740
 391:src/main.cpp  ****         int   step = (int)(subp * (float)MULTI_NINTERVALS);
 5264              		.loc 6 391 9 view .LVU1741
 392:src/main.cpp  ****         if(step >= MULTI_NINTERVALS) step = MULTI_NINTERVALS - 1;
 5265              		.loc 6 392 9 view .LVU1742
 393:src/main.cpp  ****         float freq = V.freq_low * MULTI_INTERVALS[step];
 5266              		.loc 6 393 9 view .LVU1743
 394:src/main.cpp  ****         float v    = FIX_DRUM ? 1.0f : clampf((float)pressure / 100.0f, 0.0f, 1.0f);
 5267              		.loc 6 394 9 view .LVU1744
 395:src/main.cpp  ****         float amp  = 0.72f * ((1.0f - V.vel_sens) + V.vel_sens * v);
 5268              		.loc 6 395 9 view .LVU1745
 396:src/main.cpp  ****         // Cutoff from velocity, same curve as the mono path.
 5269              		.loc 6 396 9 view .LVU1746
 398:src/main.cpp  ****         float oa = cutoff_oct * 0.6931f;
 5270              		.loc 6 398 9 view .LVU1747
 398:src/main.cpp  ****         float oa = cutoff_oct * 0.6931f;
 5271              		.loc 6 398 9 is_stmt 0 view .LVU1748
 5272              	.LBE946:
 5273              	.LBE945:
 5274              	.LBE944:
 5275              	.LBE975:
 5276              	.LBE981:
 5277              	.LBE1327:
 5278              	.LBE1400:
  14:src/dsp.h     **** }
  15:src/dsp.h     **** static inline float smoothstep_f(float x){
  16:src/dsp.h     ****     x = x<0?0:x>1?1:x; return x*x*(3.0f - 2.0f*x);
  17:src/dsp.h     **** }
  18:src/dsp.h     **** static inline float smootherstep_f(float x){
  19:src/dsp.h     ****     x = x<0?0:x>1?1:x; return x*x*x*(x*(x*6.0f - 15.0f) + 10.0f);
 5279              		.loc 9 19 5 is_stmt 1 view .LVU1749
 5280              		.loc 9 19 24 view .LVU1750
 5281              	.LBB1401:
 5282              	.LBB1328:
 5283              	.LBB982:
 5284              	.LBB976:
 5285              	.LBB969:
 5286              	.LBB963:
 5287              	.LBB957:
 399:src/main.cpp  ****         float om = 1.0f + oa*(1.0f + oa*(0.5f + oa*(0.1667f + oa*0.0417f)));
 5288              		.loc 6 399 9 view .LVU1751
 400:src/main.cpp  ****         float tf = (V.keytrack >= 0.999f) ? freq
 5289              		.loc 6 400 9 view .LVU1752
 401:src/main.cpp  ****                    : V.freq_low * powf(freq / V.freq_low, V.keytrack);
ARM GAS  /tmp/claude-502/cc2bPfvH.s 			page 156


 5290              		.loc 6 401 9 view .LVU1753
 5291              	.LBE957:
 5292              	.LBE963:
 5293              	.LBE969:
 619:src/main.cpp  ****                 if(reatk[i])                                  trigger_drum(i, tracked[i].pos, track
 5294              		.loc 6 619 21 is_stmt 0 view .LVU1754
 5295 13e0 DFED6CAA 		vldr.32	s21, .L541+52
 5296 13e4 9FED6CBA 		vldr.32	s22, .L541+56
 5297              	.L283:
 5298              	.LBB970:
 5299              	.LBB964:
 5300              	.LBB958:
 402:src/main.cpp  ****         float cutoff = clampf(tf * V.cutoff_mult * om, 20.0f, 18000.0f);
 5301              		.loc 6 402 39 view .LVU1755
 5302 13e8 8CEE2C0A 		vdiv.f32	s0, s24, s25
 5303 13ec FFF7FEFF 		bl	powf
 5304              	.LVL424:
 401:src/main.cpp  ****                    : V.freq_low * powf(freq / V.freq_low, V.keytrack);
 5305              		.loc 6 401 43 view .LVU1756
 5306 13f0 20EE2C0A 		vmul.f32	s0, s0, s25
 5307              	.L163:
 5308              	.LVL425:
 403:src/main.cpp  ****         float drive  = 1.0f + smoothstep_f(v) * V.drive_max;
 5309              		.loc 6 403 9 is_stmt 1 view .LVU1757
 403:src/main.cpp  ****         float drive  = 1.0f + smoothstep_f(v) * V.drive_max;
 5310              		.loc 6 403 34 is_stmt 0 view .LVU1758
 5311 13f4 20EE0D0A 		vmul.f32	s0, s0, s26
 5312              	.LVL426:
 5313              	.LBB950:
 5314              	.LBB951:
  13:src/dsp.h     **** }
 5315              		.loc 9 13 16 view .LVU1759
 5316 13f8 F3EE047A 		vmov.f32	s15, #2.0e+1
 5317              	.LBE951:
 5318              	.LBE950:
 403:src/main.cpp  ****         float drive  = 1.0f + smoothstep_f(v) * V.drive_max;
 5319              		.loc 6 403 30 view .LVU1760
 5320 13fc 60EE2AAA 		vmul.f32	s21, s0, s21
 5321              	.LVL427:
 5322              	.LBB954:
 5323              	.LBI950:
  12:src/dsp.h     ****     return v<lo?lo:v>hi?hi:v;
 5324              		.loc 9 12 21 is_stmt 1 view .LVU1761
 5325              	.LBB952:
  13:src/dsp.h     **** }
 5326              		.loc 9 13 5 view .LVU1762
  13:src/dsp.h     **** }
 5327              		.loc 9 13 16 is_stmt 0 view .LVU1763
 5328 1400 F4EEE7AA 		vcmpe.f32	s21, s15
 5329 1404 F1EE10FA 		vmrs	APSR_nzcv, FPSCR
 5330 1408 00F16B82 		bmi	.L303
  13:src/dsp.h     **** }
 5331              		.loc 9 13 24 view .LVU1764
 5332 140c DFED637A 		vldr.32	s15, .L541+60
 5333 1410 F4EE67AA 		vcmp.f32	s21, s15
 5334 1414 F1EE10FA 		vmrs	APSR_nzcv, FPSCR
 5335 1418 77FEAAAA 		vselgt.f32	s21, s15, s21
ARM GAS  /tmp/claude-502/cc2bPfvH.s 			page 157


 5336              	.LVL428:
 5337              	.L164:
  13:src/dsp.h     **** }
 5338              		.loc 9 13 24 view .LVU1765
 5339              	.LBE952:
 5340              	.LBE954:
 404:src/main.cpp  ****         drum_trigger(g_hits[s], vidx, freq, amp, cutoff, drive, hw.AudioSampleRate());
 5341              		.loc 6 404 9 is_stmt 1 view .LVU1766
 404:src/main.cpp  ****         drum_trigger(g_hits[s], vidx, freq, amp, cutoff, drive, hw.AudioSampleRate());
 5342              		.loc 6 404 9 is_stmt 0 view .LVU1767
 5343              	.LBE958:
 5344              	.LBE964:
 5345              	.LBE970:
 5346              	.LBE976:
 5347              	.LBE982:
 5348              	.LBE1328:
 5349              	.LBE1401:
  16:src/dsp.h     **** }
 5350              		.loc 9 16 5 is_stmt 1 view .LVU1768
  16:src/dsp.h     **** }
 5351              		.loc 9 16 24 view .LVU1769
 5352              	.LBB1402:
 5353              	.LBB1329:
 5354              	.LBB983:
 5355              	.LBB977:
 5356              	.LBB971:
 5357              	.LBB965:
 5358              	.LBB959:
 405:src/main.cpp  ****         g_active_voice = vidx;   // header shows the last-hit drum
 5359              		.loc 6 405 9 view .LVU1770
 405:src/main.cpp  ****         g_active_voice = vidx;   // header shows the last-hit drum
 5360              		.loc 6 405 21 is_stmt 0 view .LVU1771
 5361 141c 6048     		ldr	r0, .L541+64
 5362 141e FFF7FEFF 		bl	_ZN5daisy9DaisySeed15AudioSampleRateEv
 5363              	.LVL429:
 404:src/main.cpp  ****         drum_trigger(g_hits[s], vidx, freq, amp, cutoff, drive, hw.AudioSampleRate());
 5364              		.loc 6 404 51 view .LVU1772
 5365 1422 F7EE001A 		vmov.f32	s3, #1.0e+0
 405:src/main.cpp  ****         g_active_voice = vidx;   // header shows the last-hit drum
 5366              		.loc 6 405 21 view .LVU1773
 5367 1426 B0EE402A 		vmov.f32	s4, s0
 5368 142a 2146     		mov	r1, r4
 5369 142c F0EE4B0A 		vmov.f32	s1, s22
 5370 1430 3046     		mov	r0, r6
 5371 1432 B0EE6A1A 		vmov.f32	s2, s21
 5372 1436 B0EE4C0A 		vmov.f32	s0, s24
 5373 143a 7BEEA11A 		vadd.f32	s3, s23, s3
 5374              	.LVL430:
 405:src/main.cpp  ****         g_active_voice = vidx;   // header shows the last-hit drum
 5375              		.loc 6 405 21 view .LVU1774
 5376 143e FFF7FEFF 		bl	_Z12drum_triggerR7DrumHitifffff
 5377              	.LVL431:
 406:src/main.cpp  ****     };
 5378              		.loc 6 406 9 is_stmt 1 view .LVU1775
 406:src/main.cpp  ****     };
 5379              		.loc 6 406 24 is_stmt 0 view .LVU1776
 5380 1442 4E4B     		ldr	r3, .L541+28
ARM GAS  /tmp/claude-502/cc2bPfvH.s 			page 158


 5381 1444 1C60     		str	r4, [r3]
 5382              	.LBE959:
 407:src/main.cpp  **** 
 5383              		.loc 6 407 5 view .LVU1777
 5384 1446 8EE7     		b	.L165
 5385              	.LVL432:
 5386              	.L338:
 407:src/main.cpp  **** 
 5387              		.loc 6 407 5 view .LVU1778
 5388              	.LBE965:
 5389              	.LBE971:
 5390              	.LBE977:
 5391              	.LBE983:
 5392              	.LBE1329:
 5393              	.LBB1330:
 5394              	.LBB1254:
 855:src/main.cpp  ****             for(int s=0;s<2;s++)
 5395              		.loc 6 855 18 view .LVU1779
 5396 1448 2023     		movs	r3, #32
 5397 144a FFF760BB 		b	.L248
 5398              	.LVL433:
 5399              	.L336:
 5400              	.LBB1251:
 5401              	.LBB1240:
 855:src/main.cpp  ****             for(int s=0;s<2;s++)
 5402              		.loc 6 855 18 view .LVU1780
 5403 144e 0020     		movs	r0, #0
 5404 1450 FFF73BBB 		b	.L245
 5405              	.LVL434:
 5406              	.L344:
 855:src/main.cpp  ****             for(int s=0;s<2;s++)
 5407              		.loc 6 855 18 view .LVU1781
 5408              	.LBE1240:
 5409              	.LBE1251:
 5410              	.LBE1254:
 5411              	.LBE1330:
 5412              	.LBB1331:
 866:src/main.cpp  ****                 make_bar(bar,tracked[slot].pressure,100,16);
 5413              		.loc 6 866 13 view .LVU1782
 5414 1454 98F80030 		ldrb	r3, [r8]	@ zero_extendqisi2
 5415 1458 0226     		movs	r6, #2
 5416              	.LVL435:
 866:src/main.cpp  ****                 make_bar(bar,tracked[slot].pressure,100,16);
 5417              		.loc 6 866 13 is_stmt 1 view .LVU1783
 5418 145a 002B     		cmp	r3, #0
 5419 145c 7FF4DCAB 		bne	.L521
 5420              	.LVL436:
 5421              	.L255:
 871:src/main.cpp  ****             }
 5422              		.loc 6 871 17 view .LVU1784
 5423              	.LBB1285:
 5424              	.LBI1285:
 126:/Users/reza.kalfane/Workspaces/Daisy/DaisyExamples/libDaisy/src/daisy_seed.h ****     {
 5425              		.loc 1 126 17 view .LVU1785
 5426              	.LBB1286:
 128:/Users/reza.kalfane/Workspaces/Daisy/DaisyExamples/libDaisy/src/daisy_seed.h ****     }
 5427              		.loc 1 128 23 is_stmt 0 view .LVU1786
ARM GAS  /tmp/claude-502/cc2bPfvH.s 			page 159


 5428 1460 3146     		mov	r1, r6
 5429 1462 5048     		ldr	r0, .L541+68
 5430 1464 FFF7FEFF 		bl	_ZN5daisy6LoggerILNS_17LoggerDestinationE1EE9PrintLineEPKcz
 5431              	.LVL437:
 129:/Users/reza.kalfane/Workspaces/Daisy/DaisyExamples/libDaisy/src/daisy_seed.h **** 
 5432              		.loc 1 129 5 view .LVU1787
 5433 1468 00E4     		b	.L259
 5434              	.LVL438:
 5435              	.L323:
 129:/Users/reza.kalfane/Workspaces/Daisy/DaisyExamples/libDaisy/src/daisy_seed.h **** 
 5436              		.loc 1 129 5 view .LVU1788
 5437              	.LBE1286:
 5438              	.LBE1285:
 5439              	.LBE1331:
 5440              	.LBB1332:
 5441              	.LBB1131:
 5442              	.LBB1119:
 5443 146a DFED417A 		vldr.32	s15, .L541+16
 5444              	.LBE1119:
 5445              	.LBB1120:
 5446              	.LBB1113:
 780:src/main.cpp  ****                 s_led1 = s_led1 * LED_SMOOTH + led1_target * (1.0f - LED_SMOOTH);
 5447              		.loc 6 780 39 view .LVU1789
 5448 146e DFED4E5A 		vldr.32	s11, .L541+72
 5449              	.LBE1113:
 5450              	.LBE1120:
 5451              	.LBB1121:
 5452 1472 F0EE676A 		vmov.f32	s13, s15
 5453 1476 B0EE677A 		vmov.f32	s14, s15
 5454              	.LVL439:
 5455              	.L186:
 780:src/main.cpp  ****                 s_led1 = s_led1 * LED_SMOOTH + led1_target * (1.0f - LED_SMOOTH);
 5456              		.loc 6 780 39 view .LVU1790
 5457              	.LBE1121:
 5458              	.LBB1122:
 5459              	.LBB1114:
 781:src/main.cpp  ****                 s_led2 = s_led2 * LED_SMOOTH + led2_target * (1.0f - LED_SMOOTH);
 5460              		.loc 6 781 17 is_stmt 1 discriminator 4 view .LVU1791
 781:src/main.cpp  ****                 s_led2 = s_led2 * LED_SMOOTH + led2_target * (1.0f - LED_SMOOTH);
 5461              		.loc 6 781 24 is_stmt 0 discriminator 4 view .LVU1792
 5462 147a 9FED4C6A 		vldr.32	s12, .L541+76
 783:src/main.cpp  ****             }
 5463              		.loc 6 783 24 discriminator 4 view .LVU1793
 5464 147e E9EE257A 		vfma.f32	s15, s18, s11
 781:src/main.cpp  ****                 s_led2 = s_led2 * LED_SMOOTH + led2_target * (1.0f - LED_SMOOTH);
 5465              		.loc 6 781 24 discriminator 4 view .LVU1794
 5466 1482 A9EE867A 		vfma.f32	s14, s19, s12
 782:src/main.cpp  ****                 s_led3 = s_led3 * smooth3   + led3_target * (1.0f - smooth3);
 5467              		.loc 6 782 24 discriminator 4 view .LVU1795
 5468 1486 EAEE066A 		vfma.f32	s13, s20, s12
 783:src/main.cpp  ****             }
 5469              		.loc 6 783 24 discriminator 4 view .LVU1796
 5470 148a B0EE679A 		vmov.f32	s18, s15
 5471              	.LVL440:
 781:src/main.cpp  ****                 s_led2 = s_led2 * LED_SMOOTH + led2_target * (1.0f - LED_SMOOTH);
 5472              		.loc 6 781 24 discriminator 4 view .LVU1797
 5473 148e F0EE479A 		vmov.f32	s19, s14
ARM GAS  /tmp/claude-502/cc2bPfvH.s 			page 160


 5474              	.LVL441:
 782:src/main.cpp  ****                 s_led3 = s_led3 * smooth3   + led3_target * (1.0f - smooth3);
 5475              		.loc 6 782 17 is_stmt 1 discriminator 4 view .LVU1798
 782:src/main.cpp  ****                 s_led3 = s_led3 * smooth3   + led3_target * (1.0f - smooth3);
 5476              		.loc 6 782 24 is_stmt 0 discriminator 4 view .LVU1799
 5477 1492 B0EE66AA 		vmov.f32	s20, s13
 5478              	.LVL442:
 783:src/main.cpp  ****             }
 5479              		.loc 6 783 17 is_stmt 1 discriminator 4 view .LVU1800
 783:src/main.cpp  ****             }
 5480              		.loc 6 783 17 is_stmt 0 discriminator 4 view .LVU1801
 5481 1496 85E6     		b	.L217
 5482              	.LVL443:
 5483              	.L520:
 783:src/main.cpp  ****             }
 5484              		.loc 6 783 17 discriminator 4 view .LVU1802
 5485              	.LBE1114:
 5486              	.LBE1122:
 5487              	.LBE1131:
 5488              	.LBE1332:
 5489              	.LBB1333:
 5490              	.LBB984:
 5491              	.LBB978:
 5492              	.LBB972:
 5493              	.LBB966:
 5494              	.LBB960:
 388:src/main.cpp  ****         int   vidx = MULTI_ZONES[zone];
 5495              		.loc 6 388 30 view .LVU1803
 5496 1498 B1EE007A 		vmov.f32	s14, #4.0e+0
 389:src/main.cpp  ****         const Voice& V = VOICES[vidx];
 5497              		.loc 6 389 15 view .LVU1804
 5498 149c 4449     		ldr	r1, .L541+80
 394:src/main.cpp  ****         float v    = FIX_DRUM ? 1.0f : clampf((float)pressure / 100.0f, 0.0f, 1.0f);
 5499              		.loc 6 394 24 view .LVU1805
 5500 149e 9423     		movs	r3, #148
 399:src/main.cpp  ****         float om = 1.0f + oa*(1.0f + oa*(0.5f + oa*(0.1667f + oa*0.0417f)));
 5501              		.loc 6 399 15 view .LVU1806
 5502 14a0 DFED443A 		vldr.32	s7, .L541+84
 400:src/main.cpp  ****         float tf = (V.keytrack >= 0.999f) ? freq
 5503              		.loc 6 400 61 view .LVU1807
 5504 14a4 9FED444A 		vldr.32	s8, .L541+88
 400:src/main.cpp  ****         float tf = (V.keytrack >= 0.999f) ? freq
 5505              		.loc 6 400 47 view .LVU1808
 5506 14a8 F6EE006A 		vmov.f32	s13, #5.0e-1
 388:src/main.cpp  ****         int   vidx = MULTI_ZONES[zone];
 5507              		.loc 6 388 30 view .LVU1809
 5508 14ac 67EE877A 		vmul.f32	s15, s15, s14
 5509              	.LVL444:
 400:src/main.cpp  ****         float tf = (V.keytrack >= 0.999f) ? freq
 5510              		.loc 6 400 61 view .LVU1810
 5511 14b0 9FED426A 		vldr.32	s12, .L541+92
 401:src/main.cpp  ****                    : V.freq_low * powf(freq / V.freq_low, V.keytrack);
 5512              		.loc 6 401 43 view .LVU1811
 5513 14b4 9FED425A 		vldr.32	s10, .L541+96
 396:src/main.cpp  ****         // Cutoff from velocity, same curve as the mono path.
 5514              		.loc 6 396 15 view .LVU1812
 5515 14b8 DFED374A 		vldr.32	s9, .L541+56
ARM GAS  /tmp/claude-502/cc2bPfvH.s 			page 161


 388:src/main.cpp  ****         int   vidx = MULTI_ZONES[zone];
 5516              		.loc 6 388 15 view .LVU1813
 5517 14bc BDEEE77A 		vcvt.s32.f32	s14, s15
 5518 14c0 17EE102A 		vmov	r2, s14	@ int
 5519 14c4 032A     		cmp	r2, #3
 5520 14c6 A8BF     		it	ge
 5521 14c8 0322     		movge	r2, #3
 391:src/main.cpp  ****         int   step = (int)(subp * (float)MULTI_NINTERVALS);
 5522              		.loc 6 391 33 view .LVU1814
 5523 14ca 07EE102A 		vmov	s14, r2	@ int
 389:src/main.cpp  ****         const Voice& V = VOICES[vidx];
 5524              		.loc 6 389 15 view .LVU1815
 5525 14ce 51F82240 		ldr	r4, [r1, r2, lsl #2]
 394:src/main.cpp  ****         float v    = FIX_DRUM ? 1.0f : clampf((float)pressure / 100.0f, 0.0f, 1.0f);
 5526              		.loc 6 394 24 view .LVU1816
 5527 14d2 059A     		ldr	r2, [sp, #20]
 391:src/main.cpp  ****         int   step = (int)(subp * (float)MULTI_NINTERVALS);
 5528              		.loc 6 391 33 view .LVU1817
 5529 14d4 B8EEC77A 		vcvt.f32.s32	s14, s14
 394:src/main.cpp  ****         float v    = FIX_DRUM ? 1.0f : clampf((float)pressure / 100.0f, 0.0f, 1.0f);
 5530              		.loc 6 394 24 view .LVU1818
 5531 14d8 03FB0423 		mla	r3, r3, r4, r2
 394:src/main.cpp  ****         float v    = FIX_DRUM ? 1.0f : clampf((float)pressure / 100.0f, 0.0f, 1.0f);
 5532              		.loc 6 394 55 view .LVU1819
 5533 14dc 394A     		ldr	r2, .L541+100
 391:src/main.cpp  ****         int   step = (int)(subp * (float)MULTI_NINTERVALS);
 5534              		.loc 6 391 15 view .LVU1820
 5535 14de 77EEC77A 		vsub.f32	s15, s15, s14
 399:src/main.cpp  ****         float om = 1.0f + oa*(1.0f + oa*(0.5f + oa*(0.1667f + oa*0.0417f)));
 5536              		.loc 6 399 15 view .LVU1821
 5537 14e2 93ED117A 		vldr.32	s14, [r3, #68]
 396:src/main.cpp  ****         // Cutoff from velocity, same curve as the mono path.
 5538              		.loc 6 396 41 view .LVU1822
 5539 14e6 D3ED205A 		vldr.32	s11, [r3, #128]
 399:src/main.cpp  ****         float om = 1.0f + oa*(1.0f + oa*(0.5f + oa*(0.1667f + oa*0.0417f)));
 5540              		.loc 6 399 15 view .LVU1823
 5541 14ea 27EE237A 		vmul.f32	s14, s14, s7
 394:src/main.cpp  ****         float v    = FIX_DRUM ? 1.0f : clampf((float)pressure / 100.0f, 0.0f, 1.0f);
 5542              		.loc 6 394 24 view .LVU1824
 5543 14ee D3ED01CA 		vldr.32	s25, [r3, #4]
 396:src/main.cpp  ****         // Cutoff from velocity, same curve as the mono path.
 5544              		.loc 6 396 37 view .LVU1825
 5545 14f2 3AEEE5BA 		vsub.f32	s22, s21, s11
 401:src/main.cpp  ****                    : V.freq_low * powf(freq / V.freq_low, V.keytrack);
 5546              		.loc 6 401 23 view .LVU1826
 5547 14f6 D3ED150A 		vldr.32	s1, [r3, #84]
 403:src/main.cpp  ****         float drive  = 1.0f + smoothstep_f(v) * V.drive_max;
 5548              		.loc 6 403 38 view .LVU1827
 5549 14fa 93ED10DA 		vldr.32	s26, [r3, #64]
 400:src/main.cpp  ****         float tf = (V.keytrack >= 0.999f) ? freq
 5550              		.loc 6 400 61 view .LVU1828
 5551 14fe A7EE046A 		vfma.f32	s12, s14, s8
 404:src/main.cpp  ****         drum_trigger(g_hits[s], vidx, freq, amp, cutoff, drive, hw.AudioSampleRate());
 5552              		.loc 6 404 51 view .LVU1829
 5553 1502 D3ED13BA 		vldr.32	s23, [r3, #76]
 5554              	.LVL445:
 388:src/main.cpp  ****         int   vidx = MULTI_ZONES[zone];
ARM GAS  /tmp/claude-502/cc2bPfvH.s 			page 162


 5555              		.loc 6 388 9 is_stmt 1 view .LVU1830
 388:src/main.cpp  ****         int   vidx = MULTI_ZONES[zone];
 5556              		.loc 6 388 39 view .LVU1831
 389:src/main.cpp  ****         const Voice& V = VOICES[vidx];
 5557              		.loc 6 389 9 view .LVU1832
 390:src/main.cpp  ****         float subp = p * 4.0f - (float)zone;
 5558              		.loc 6 390 9 view .LVU1833
 391:src/main.cpp  ****         int   step = (int)(subp * (float)MULTI_NINTERVALS);
 5559              		.loc 6 391 9 view .LVU1834
 392:src/main.cpp  ****         if(step >= MULTI_NINTERVALS) step = MULTI_NINTERVALS - 1;
 5560              		.loc 6 392 9 view .LVU1835
 393:src/main.cpp  ****         float freq = V.freq_low * MULTI_INTERVALS[step];
 5561              		.loc 6 393 9 view .LVU1836
 394:src/main.cpp  ****         float v    = FIX_DRUM ? 1.0f : clampf((float)pressure / 100.0f, 0.0f, 1.0f);
 5562              		.loc 6 394 9 view .LVU1837
 395:src/main.cpp  ****         float amp  = 0.72f * ((1.0f - V.vel_sens) + V.vel_sens * v);
 5563              		.loc 6 395 9 view .LVU1838
 396:src/main.cpp  ****         // Cutoff from velocity, same curve as the mono path.
 5564              		.loc 6 396 9 view .LVU1839
 398:src/main.cpp  ****         float oa = cutoff_oct * 0.6931f;
 5565              		.loc 6 398 9 view .LVU1840
 398:src/main.cpp  ****         float oa = cutoff_oct * 0.6931f;
 5566              		.loc 6 398 9 is_stmt 0 view .LVU1841
 5567              	.LBE960:
 5568              	.LBE966:
 5569              	.LBE972:
 5570              	.LBE978:
 5571              	.LBE984:
 5572              	.LBE1333:
 5573              	.LBE1402:
 5574              		.loc 9 19 5 is_stmt 1 view .LVU1842
 5575              		.loc 9 19 24 view .LVU1843
 5576              	.LBB1403:
 5577              	.LBB1334:
 5578              	.LBB985:
 5579              	.LBB979:
 5580              	.LBB973:
 5581              	.LBB967:
 5582              	.LBB961:
 399:src/main.cpp  ****         float om = 1.0f + oa*(1.0f + oa*(0.5f + oa*(0.1667f + oa*0.0417f)));
 5583              		.loc 6 399 9 view .LVU1844
 400:src/main.cpp  ****         float tf = (V.keytrack >= 0.999f) ? freq
 5584              		.loc 6 400 9 view .LVU1845
 401:src/main.cpp  ****                    : V.freq_low * powf(freq / V.freq_low, V.keytrack);
 5585              		.loc 6 401 9 view .LVU1846
 401:src/main.cpp  ****                    : V.freq_low * powf(freq / V.freq_low, V.keytrack);
 5586              		.loc 6 401 43 is_stmt 0 view .LVU1847
 5587 1506 F4EEC50A 		vcmpe.f32	s1, s10
 396:src/main.cpp  ****         // Cutoff from velocity, same curve as the mono path.
 5588              		.loc 6 396 51 view .LVU1848
 5589 150a 3BEE25BA 		vadd.f32	s22, s22, s11
 396:src/main.cpp  ****         // Cutoff from velocity, same curve as the mono path.
 5590              		.loc 6 396 15 view .LVU1849
 5591 150e 2BEE24BA 		vmul.f32	s22, s22, s9
 400:src/main.cpp  ****         float tf = (V.keytrack >= 0.999f) ? freq
 5592              		.loc 6 400 47 view .LVU1850
 5593 1512 E7EE066A 		vfma.f32	s13, s14, s12
ARM GAS  /tmp/claude-502/cc2bPfvH.s 			page 163


 400:src/main.cpp  ****         float tf = (V.keytrack >= 0.999f) ? freq
 5594              		.loc 6 400 36 view .LVU1851
 5595 1516 B0EE6A6A 		vmov.f32	s12, s21
 5596 151a A7EE266A 		vfma.f32	s12, s14, s13
 400:src/main.cpp  ****         float tf = (V.keytrack >= 0.999f) ? freq
 5597              		.loc 6 400 15 view .LVU1852
 5598 151e E7EE06AA 		vfma.f32	s21, s14, s12
 392:src/main.cpp  ****         if(step >= MULTI_NINTERVALS) step = MULTI_NINTERVALS - 1;
 5599              		.loc 6 392 15 view .LVU1853
 5600 1522 B0EE677A 		vmov.f32	s14, s15
 5601 1526 BEEECF7A 		vcvt.s32.f32	s14, s14, #2
 5602 152a 17EE103A 		vmov	r3, s14	@ int
 394:src/main.cpp  ****         float v    = FIX_DRUM ? 1.0f : clampf((float)pressure / 100.0f, 0.0f, 1.0f);
 5603              		.loc 6 394 55 view .LVU1854
 5604 152e 032B     		cmp	r3, #3
 5605 1530 A8BF     		it	ge
 5606 1532 0323     		movge	r3, #3
 401:src/main.cpp  ****                    : V.freq_low * powf(freq / V.freq_low, V.keytrack);
 5607              		.loc 6 401 43 view .LVU1855
 5608 1534 F1EE10FA 		vmrs	APSR_nzcv, FPSCR
 394:src/main.cpp  ****         float v    = FIX_DRUM ? 1.0f : clampf((float)pressure / 100.0f, 0.0f, 1.0f);
 5609              		.loc 6 394 55 view .LVU1856
 5610 1538 02EB8303 		add	r3, r2, r3, lsl #2
 394:src/main.cpp  ****         float v    = FIX_DRUM ? 1.0f : clampf((float)pressure / 100.0f, 0.0f, 1.0f);
 5611              		.loc 6 394 15 view .LVU1857
 5612 153c 93ED000A 		vldr.32	s0, [r3]
 5613 1540 2CEE800A 		vmul.f32	s0, s25, s0
 5614 1544 B0EE40CA 		vmov.f32	s24, s0
 401:src/main.cpp  ****                    : V.freq_low * powf(freq / V.freq_low, V.keytrack);
 5615              		.loc 6 401 43 view .LVU1858
 5616 1548 BFF654AF 		bge	.L163
 5617 154c 4CE7     		b	.L283
 5618              	.LVL446:
 5619              	.L289:
 401:src/main.cpp  ****                    : V.freq_low * powf(freq / V.freq_low, V.keytrack);
 5620              		.loc 6 401 43 view .LVU1859
 5621              	.LBE961:
 5622              	.LBE967:
 5623              	.LBE973:
 5624              	.LBE979:
 5625              	.LBE985:
 5626              	.LBE1334:
 5627              	.LBB1335:
 5628              	.LBB906:
 5629 154e 0C97     		str	r7, [sp, #48]
 5630              	.LVL447:
 480:src/main.cpp  ****                     idle_since = now; last_touch_ms = now;   // freeze idle/rebaseline
 5631              		.loc 6 480 52 view .LVU1860
 5632 1550 1A95     		str	r5, [sp, #104]
 5633              	.LVL448:
 480:src/main.cpp  ****                     idle_since = now; last_touch_ms = now;   // freeze idle/rebaseline
 5634              		.loc 6 480 52 view .LVU1861
 5635 1552 0E95     		str	r5, [sp, #56]
 5636              	.LVL449:
 480:src/main.cpp  ****                     idle_since = now; last_touch_ms = now;   // freeze idle/rebaseline
 5637              		.loc 6 480 52 view .LVU1862
 5638 1554 4AE5     		b	.L78
ARM GAS  /tmp/claude-502/cc2bPfvH.s 			page 164


 5639              	.LVL450:
 5640              	.L506:
 480:src/main.cpp  ****                     idle_since = now; last_touch_ms = now;   // freeze idle/rebaseline
 5641              		.loc 6 480 52 view .LVU1863
 5642              	.LBE906:
 5643              	.LBE1335:
 5644              	.LBB1336:
 5645              	.LBB1208:
 825:src/main.cpp  ****             g_bitcrush      = bc;
 5646              		.loc 6 825 42 view .LVU1864
 5647 1556 65EE865A 		vmul.f32	s11, s11, s12
 5648 155a FFF732BA 		b	.L229
 5649              	.L542:
 5650 155e 00BF     		.align	2
 5651              	.L541:
 5652 1560 00000000 		.word	.LANCHOR1
 5653 1564 98010000 		.word	.LC12
 5654 1568 9A99593F 		.word	1062836634
 5655 156c 9A99193E 		.word	1041865114
 5656 1570 00000000 		.word	0
 5657 1574 00000000 		.word	g_hits
 5658 1578 00000000 		.word	g_amp_target
 5659 157c 00000000 		.word	.LANCHOR2
 5660 1580 00007A44 		.word	1148846080
 5661 1584 9A99993F 		.word	1067030938
 5662 1588 CDCC4C3E 		.word	1045220557
 5663 158c 0000FA45 		.word	1174011904
 5664 1590 00007A45 		.word	1165623296
 5665 1594 827A7C40 		.word	1081899650
 5666 1598 EC51383F 		.word	1060655596
 5667 159c 00A08C46 		.word	1183621120
 5668 15a0 00000000 		.word	.LANCHOR0
 5669 15a4 84020000 		.word	.LC21
 5670 15a8 CDCCCC3D 		.word	1036831949
 5671 15ac 6666E63E 		.word	1055286886
 5672 15b0 00000000 		.word	.LANCHOR6
 5673 15b4 006F313F 		.word	1060204288
 5674 15b8 9FCD2A3D 		.word	1026215327
 5675 15bc 68B32A3E 		.word	1042985832
 5676 15c0 77BE7F3F 		.word	1065336439
 5677 15c4 00000000 		.word	.LANCHOR7
 5678              	.LVL451:
 5679              	.L275:
 825:src/main.cpp  ****             g_bitcrush      = bc;
 5680              		.loc 6 825 42 view .LVU1865
 5681              	.LBE1208:
 5682              	.LBE1336:
 559:src/main.cpp  ****             last_touch_ms = System::GetNow();
 5683              		.loc 6 559 13 is_stmt 1 view .LVU1866
 5684              	.LBB1337:
 5685              	.LBI1337:
 199:src/main.cpp  ****         uint32_t start = System::GetNow();
 5686              		.loc 6 199 37 view .LVU1867
 5687              	.LBB1338:
 5688              	.LBB1339:
 200:src/main.cpp  ****         uint32_t acc = 0; int n = 0;
 5689              		.loc 6 200 9 view .LVU1868
ARM GAS  /tmp/claude-502/cc2bPfvH.s 			page 165


 202:src/main.cpp  ****         constexpr uint32_t SWEEP_PERIOD_MS = 12000;  // one 0ŌåÆ1ŌåÆ0 cycle
 5690              		.loc 6 202 18 is_stmt 0 view .LVU1869
 5691 15c8 0027     		movs	r7, #0
 200:src/main.cpp  ****         uint32_t acc = 0; int n = 0;
 5692              		.loc 6 200 40 view .LVU1870
 5693 15ca FFF7FEFF 		bl	_ZN5daisy6System6GetNowEv
 5694              	.LVL452:
 201:src/main.cpp  ****         bool     calibrated = false;
 5695              		.loc 6 201 9 is_stmt 1 view .LVU1871
 201:src/main.cpp  ****         bool     calibrated = false;
 5696              		.loc 6 201 27 view .LVU1872
 202:src/main.cpp  ****         constexpr uint32_t SWEEP_PERIOD_MS = 12000;  // one 0ŌåÆ1ŌåÆ0 cycle
 5697              		.loc 6 202 9 view .LVU1873
 203:src/main.cpp  ****         constexpr float    TAU             = 6.2831853f;
 5698              		.loc 6 203 9 view .LVU1874
 204:src/main.cpp  ****         uint16_t scan[N_CH];
 5699              		.loc 6 204 9 view .LVU1875
 201:src/main.cpp  ****         bool     calibrated = false;
 5700              		.loc 6 201 18 is_stmt 0 view .LVU1876
 5701 15ce 0696     		str	r6, [sp, #24]
 5702 15d0 0646     		mov	r6, r0
 5703              	.LVL453:
 201:src/main.cpp  ****         bool     calibrated = false;
 5704              		.loc 6 201 18 view .LVU1877
 5705 15d2 CDF81CA0 		str	r10, [sp, #28]
 201:src/main.cpp  ****         bool     calibrated = false;
 5706              		.loc 6 201 31 view .LVU1878
 5707 15d6 B846     		mov	r8, r7
 201:src/main.cpp  ****         bool     calibrated = false;
 5708              		.loc 6 201 18 view .LVU1879
 5709 15d8 3D46     		mov	r5, r7
 5710              	.LVL454:
 201:src/main.cpp  ****         bool     calibrated = false;
 5711              		.loc 6 201 18 view .LVU1880
 5712 15da DDF864A0 		ldr	r10, [sp, #100]
 5713 15de 0494     		str	r4, [sp, #16]
 5714              	.LVL455:
 5715              	.L144:
 205:src/main.cpp  **** 
 5716              		.loc 6 205 9 is_stmt 1 view .LVU1881
 207:src/main.cpp  ****             uint32_t elapsed = System::GetNow() - start;
 5717              		.loc 6 207 9 view .LVU1882
 5718              	.LBB1340:
 208:src/main.cpp  **** 
 5719              		.loc 6 208 13 view .LVU1883
 208:src/main.cpp  **** 
 5720              		.loc 6 208 46 is_stmt 0 view .LVU1884
 5721 15e0 FFF7FEFF 		bl	_ZN5daisy6System6GetNowEv
 5722              	.LVL456:
 212:src/main.cpp  ****             float p01   = 0.5f * (1.0f - cosf(phase * TAU));
 5723              		.loc 6 212 43 view .LVU1885
 5724 15e4 C04B     		ldr	r3, .L543
 208:src/main.cpp  **** 
 5725              		.loc 6 208 51 view .LVU1886
 5726 15e6 841B     		subs	r4, r0, r6
 5727              	.LVL457:
 212:src/main.cpp  ****             float p01   = 0.5f * (1.0f - cosf(phase * TAU));
ARM GAS  /tmp/claude-502/cc2bPfvH.s 			page 166


 5728              		.loc 6 212 13 is_stmt 1 view .LVU1887
 213:src/main.cpp  **** 
 5729              		.loc 6 213 13 view .LVU1888
 212:src/main.cpp  ****             float p01   = 0.5f * (1.0f - cosf(phase * TAU));
 5730              		.loc 6 212 19 is_stmt 0 view .LVU1889
 5731 15e8 DFEDC06A 		vldr.32	s13, .L543+4
 213:src/main.cpp  **** 
 5732              		.loc 6 213 46 view .LVU1890
 5733 15ec 9FEDC07A 		vldr.32	s14, .L543+8
 213:src/main.cpp  **** 
 5734              		.loc 6 213 40 view .LVU1891
 5735 15f0 B7EE00BA 		vmov.f32	s22, #1.0e+0
 212:src/main.cpp  ****             float p01   = 0.5f * (1.0f - cosf(phase * TAU));
 5736              		.loc 6 212 43 view .LVU1892
 5737 15f4 A3FB0423 		umull	r2, r3, r3, r4
 5738 15f8 42F6E062 		movw	r2, #12000
 5739 15fc 1B0A     		lsrs	r3, r3, #8
 5740 15fe 02FB1343 		mls	r3, r2, r3, r4
 212:src/main.cpp  ****             float p01   = 0.5f * (1.0f - cosf(phase * TAU));
 5741              		.loc 6 212 27 view .LVU1893
 5742 1602 07EE903A 		vmov	s15, r3	@ int
 5743 1606 F8EEE77A 		vcvt.f32.s32	s15, s15
 212:src/main.cpp  ****             float p01   = 0.5f * (1.0f - cosf(phase * TAU));
 5744              		.loc 6 212 19 view .LVU1894
 5745 160a 87EEA60A 		vdiv.f32	s0, s15, s13
 213:src/main.cpp  **** 
 5746              		.loc 6 213 46 view .LVU1895
 5747 160e 20EE070A 		vmul.f32	s0, s0, s14
 5748 1612 FFF7FEFF 		bl	cosf
 5749              	.LVL458:
 213:src/main.cpp  **** 
 5750              		.loc 6 213 19 view .LVU1896
 5751 1616 F6EE007A 		vmov.f32	s15, #5.0e-1
 213:src/main.cpp  **** 
 5752              		.loc 6 213 40 view .LVU1897
 5753 161a 3BEE400A 		vsub.f32	s0, s22, s0
 218:src/main.cpp  ****             float led1   = sqrtf(sqrtf(l2_raw));              // middle (DAC1)
 5754              		.loc 6 218 19 view .LVU1898
 5755 161e F0EE006A 		vmov.f32	s13, #2.0e+0
 5756 1622 B7EE007A 		vmov.f32	s14, #1.0e+0
 213:src/main.cpp  **** 
 5757              		.loc 6 213 19 view .LVU1899
 5758 1626 20EE270A 		vmul.f32	s0, s0, s15
 5759              	.LVL459:
 216:src/main.cpp  ****             float l3_raw = 2.0f * p01 - 1.0f;                 if(l3_raw < 0) l3_raw = 0;
 5760              		.loc 6 216 13 is_stmt 1 view .LVU1900
 217:src/main.cpp  ****             float l2_raw = 1.0f - 2.0f * fabsf(p01 - 0.5f);   if(l2_raw < 0) l2_raw = 0;
 5761              		.loc 6 217 19 is_stmt 0 view .LVU1901
 5762 162a F7EE007A 		vmov.f32	s15, #1.0e+0
 216:src/main.cpp  ****             float l3_raw = 2.0f * p01 - 1.0f;                 if(l3_raw < 0) l3_raw = 0;
 5763              		.loc 6 216 40 view .LVU1902
 5764 162e 70EE00AA 		vadd.f32	s21, s0, s0
 216:src/main.cpp  ****             float l3_raw = 2.0f * p01 - 1.0f;                 if(l3_raw < 0) l3_raw = 0;
 5765              		.loc 6 216 19 view .LVU1903
 5766 1632 3BEE6ABA 		vsub.f32	s22, s22, s21
 5767              	.LVL460:
 216:src/main.cpp  ****             float l3_raw = 2.0f * p01 - 1.0f;                 if(l3_raw < 0) l3_raw = 0;
ARM GAS  /tmp/claude-502/cc2bPfvH.s 			page 167


 5768              		.loc 6 216 63 is_stmt 1 view .LVU1904
 217:src/main.cpp  ****             float l2_raw = 1.0f - 2.0f * fabsf(p01 - 0.5f);   if(l2_raw < 0) l2_raw = 0;
 5769              		.loc 6 217 19 is_stmt 0 view .LVU1905
 5770 1636 7AEEE7AA 		vsub.f32	s21, s21, s15
 218:src/main.cpp  ****             float led1   = sqrtf(sqrtf(l2_raw));              // middle (DAC1)
 5771              		.loc 6 218 52 view .LVU1906
 5772 163a F6EE007A 		vmov.f32	s15, #5.0e-1
 216:src/main.cpp  ****             float l3_raw = 2.0f * p01 - 1.0f;                 if(l3_raw < 0) l3_raw = 0;
 5773              		.loc 6 216 63 view .LVU1907
 5774 163e B5EEC0BA 		vcmpe.f32	s22, #0
 218:src/main.cpp  ****             float led1   = sqrtf(sqrtf(l2_raw));              // middle (DAC1)
 5775              		.loc 6 218 52 view .LVU1908
 5776 1642 30EE670A 		vsub.f32	s0, s0, s15
 5777              	.LVL461:
 216:src/main.cpp  ****             float l3_raw = 2.0f * p01 - 1.0f;                 if(l3_raw < 0) l3_raw = 0;
 5778              		.loc 6 216 63 view .LVU1909
 5779 1646 F1EE10FA 		vmrs	APSR_nzcv, FPSCR
 217:src/main.cpp  ****             float l2_raw = 1.0f - 2.0f * fabsf(p01 - 0.5f);   if(l2_raw < 0) l2_raw = 0;
 5780              		.loc 6 217 63 view .LVU1910
 5781 164a F5EEC0AA 		vcmpe.f32	s21, #0
 218:src/main.cpp  ****             float led1   = sqrtf(sqrtf(l2_raw));              // middle (DAC1)
 5782              		.loc 6 218 47 view .LVU1911
 5783 164e F0EEC07A 		vabs.f32	s15, s0
 216:src/main.cpp  ****             float l3_raw = 2.0f * p01 - 1.0f;                 if(l3_raw < 0) l3_raw = 0;
 5784              		.loc 6 216 85 view .LVU1912
 5785 1652 48BF     		it	mi
 5786 1654 9FEDA7BA 		vldrmi.32	s22, .L543+12
 5787              	.LVL462:
 217:src/main.cpp  ****             float l2_raw = 1.0f - 2.0f * fabsf(p01 - 0.5f);   if(l2_raw < 0) l2_raw = 0;
 5788              		.loc 6 217 13 is_stmt 1 view .LVU1913
 217:src/main.cpp  ****             float l2_raw = 1.0f - 2.0f * fabsf(p01 - 0.5f);   if(l2_raw < 0) l2_raw = 0;
 5789              		.loc 6 217 63 view .LVU1914
 5790 1658 F1EE10FA 		vmrs	APSR_nzcv, FPSCR
 218:src/main.cpp  ****             float led1   = sqrtf(sqrtf(l2_raw));              // middle (DAC1)
 5791              		.loc 6 218 19 is_stmt 0 view .LVU1915
 5792 165c A7EEE67A 		vfms.f32	s14, s15, s13
 217:src/main.cpp  ****             float l2_raw = 1.0f - 2.0f * fabsf(p01 - 0.5f);   if(l2_raw < 0) l2_raw = 0;
 5793              		.loc 6 217 85 view .LVU1916
 5794 1660 48BF     		it	mi
 5795 1662 DFEDA4AA 		vldrmi.32	s21, .L543+12
 5796              	.LVL463:
 218:src/main.cpp  ****             float led1   = sqrtf(sqrtf(l2_raw));              // middle (DAC1)
 5797              		.loc 6 218 13 is_stmt 1 view .LVU1917
 218:src/main.cpp  ****             float led1   = sqrtf(sqrtf(l2_raw));              // middle (DAC1)
 5798              		.loc 6 218 63 view .LVU1918
 5799 1666 B5EEC07A 		vcmpe.f32	s14, #0
 5800 166a F1EE10FA 		vmrs	APSR_nzcv, FPSCR
 5801 166e 00F19F80 		bmi	.L296
 219:src/main.cpp  ****             float led2   = sqrtf(sqrtf(l1_raw));              // pos 0  (DAC2)
 5802              		.loc 6 219 13 view .LVU1919
 5803 1672 B5EE407A 		vcmp.f32	s14, #0
 5804 1676 F1EE10FA 		vmrs	APSR_nzcv, FPSCR
 5805 167a 00F14B84 		bmi	.L522
 5806              	.LVL464:
 5807              	.L122:
 219:src/main.cpp  ****             float led2   = sqrtf(sqrtf(l1_raw));              // pos 0  (DAC2)
 5808              		.loc 6 219 33 is_stmt 0 view .LVU1920
ARM GAS  /tmp/claude-502/cc2bPfvH.s 			page 168


 5809 167e B1EEC70A 		vsqrt.f32	s0, s14
 5810              	.LVL465:
 5811              	.L125:
 219:src/main.cpp  ****             float led2   = sqrtf(sqrtf(l1_raw));              // pos 0  (DAC2)
 5812              		.loc 6 219 33 view .LVU1921
 5813 1682 B5EE400A 		vcmp.f32	s0, #0
 5814 1686 F1EE10FA 		vmrs	APSR_nzcv, FPSCR
 5815 168a 00F14984 		bmi	.L463
 5816 168e F1EEC0BA 		vsqrt.f32	s23, s0
 5817              	.L128:
 220:src/main.cpp  ****             float led3   = sqrtf(sqrtf(l3_raw)) * LED3_INTENSITY; // pos 1 (PWM A0)
 5818              		.loc 6 220 13 is_stmt 1 view .LVU1922
 5819 1692 B5EE40BA 		vcmp.f32	s22, #0
 5820 1696 F1EE10FA 		vmrs	APSR_nzcv, FPSCR
 5821 169a 00F14784 		bmi	.L464
 220:src/main.cpp  ****             float led3   = sqrtf(sqrtf(l3_raw)) * LED3_INTENSITY; // pos 1 (PWM A0)
 5822              		.loc 6 220 33 is_stmt 0 view .LVU1923
 5823 169e B1EECB0A 		vsqrt.f32	s0, s22
 5824              	.L131:
 5825 16a2 B5EE400A 		vcmp.f32	s0, #0
 5826 16a6 F1EE10FA 		vmrs	APSR_nzcv, FPSCR
 5827 16aa 00F14584 		bmi	.L465
 5828 16ae B1EEC0BA 		vsqrt.f32	s22, s0
 5829              	.LVL466:
 5830              	.L134:
 221:src/main.cpp  ****             hw.dac.WriteValue(DacHandle::Channel::ONE, (uint16_t)(led1 * LED1_MAX));
 5831              		.loc 6 221 13 is_stmt 1 view .LVU1924
 5832 16b2 F5EE40AA 		vcmp.f32	s21, #0
 5833 16b6 F1EE10FA 		vmrs	APSR_nzcv, FPSCR
 5834 16ba 00F14384 		bmi	.L466
 221:src/main.cpp  ****             hw.dac.WriteValue(DacHandle::Channel::ONE, (uint16_t)(led1 * LED1_MAX));
 5835              		.loc 6 221 33 is_stmt 0 view .LVU1925
 5836 16be B1EEEA0A 		vsqrt.f32	s0, s21
 5837              	.L137:
 5838 16c2 B5EE400A 		vcmp.f32	s0, #0
 5839 16c6 F1EE10FA 		vmrs	APSR_nzcv, FPSCR
 5840 16ca 00F11D84 		bmi	.L467
 5841 16ce F1EEC07A 		vsqrt.f32	s15, s0
 5842              	.L140:
 222:src/main.cpp  ****             hw.dac.WriteValue(DacHandle::Channel::TWO, (uint16_t)(led2 * LED2_MAX));
 5843              		.loc 6 222 72 view .LVU1926
 5844 16d2 9FED89CA 		vldr.32	s24, .L543+16
 222:src/main.cpp  ****             hw.dac.WriteValue(DacHandle::Channel::TWO, (uint16_t)(led2 * LED2_MAX));
 5845              		.loc 6 222 30 view .LVU1927
 5846 16d6 0021     		movs	r1, #0
 221:src/main.cpp  ****             hw.dac.WriteValue(DacHandle::Channel::ONE, (uint16_t)(led1 * LED1_MAX));
 5847              		.loc 6 221 51 view .LVU1928
 5848 16d8 DFED88AA 		vldr.32	s21, .L543+20
 5849              	.LVL467:
 222:src/main.cpp  ****             hw.dac.WriteValue(DacHandle::Channel::TWO, (uint16_t)(led2 * LED2_MAX));
 5850              		.loc 6 222 30 view .LVU1929
 5851 16dc 8848     		ldr	r0, .L543+24
 222:src/main.cpp  ****             hw.dac.WriteValue(DacHandle::Channel::TWO, (uint16_t)(led2 * LED2_MAX));
 5852              		.loc 6 222 72 view .LVU1930
 5853 16de 6BEE8CBA 		vmul.f32	s23, s23, s24
 221:src/main.cpp  ****             hw.dac.WriteValue(DacHandle::Channel::ONE, (uint16_t)(led1 * LED1_MAX));
 5854              		.loc 6 221 51 view .LVU1931
ARM GAS  /tmp/claude-502/cc2bPfvH.s 			page 169


 5855 16e2 67EEAAAA 		vmul.f32	s21, s15, s21
 5856              	.LVL468:
 222:src/main.cpp  ****             hw.dac.WriteValue(DacHandle::Channel::TWO, (uint16_t)(led2 * LED2_MAX));
 5857              		.loc 6 222 13 is_stmt 1 view .LVU1932
 222:src/main.cpp  ****             hw.dac.WriteValue(DacHandle::Channel::TWO, (uint16_t)(led2 * LED2_MAX));
 5858              		.loc 6 222 30 is_stmt 0 view .LVU1933
 5859 16e6 FCEEEBBA 		vcvt.u32.f32	s23, s23
 5860 16ea 1BEE903A 		vmov	r3, s23	@ int
 5861 16ee 9AB2     		uxth	r2, r3
 5862 16f0 FFF7FEFF 		bl	_ZN5daisy9DacHandle10WriteValueENS0_7ChannelEt
 5863              	.LVL469:
 223:src/main.cpp  ****             g_led3_duty = led3;
 5864              		.loc 6 223 13 is_stmt 1 view .LVU1934
 223:src/main.cpp  ****             g_led3_duty = led3;
 5865              		.loc 6 223 72 is_stmt 0 view .LVU1935
 5866 16f4 2BEE0CBA 		vmul.f32	s22, s22, s24
 223:src/main.cpp  ****             g_led3_duty = led3;
 5867              		.loc 6 223 30 view .LVU1936
 5868 16f8 0121     		movs	r1, #1
 5869 16fa 8148     		ldr	r0, .L543+24
 5870 16fc BCEECBBA 		vcvt.u32.f32	s22, s22
 5871 1700 1BEE103A 		vmov	r3, s22	@ int
 5872 1704 9AB2     		uxth	r2, r3
 5873 1706 FFF7FEFF 		bl	_ZN5daisy9DacHandle10WriteValueENS0_7ChannelEt
 5874              	.LVL470:
 224:src/main.cpp  **** 
 5875              		.loc 6 224 13 is_stmt 1 view .LVU1937
 229:src/main.cpp  ****             if(fsr_now <= FSR_MIN) break;
 5876              		.loc 6 229 42 is_stmt 0 view .LVU1938
 5877 170a 0021     		movs	r1, #0
 5878 170c 7D48     		ldr	r0, .L543+28
 224:src/main.cpp  **** 
 5879              		.loc 6 224 25 view .LVU1939
 5880 170e CAED00AA 		vstr.32	s21, [r10]
 229:src/main.cpp  ****             if(fsr_now <= FSR_MIN) break;
 5881              		.loc 6 229 13 is_stmt 1 view .LVU1940
 229:src/main.cpp  ****             if(fsr_now <= FSR_MIN) break;
 5882              		.loc 6 229 42 is_stmt 0 view .LVU1941
 5883 1712 FFF7FEFF 		bl	_ZNK5daisy9AdcHandle3GetEh
 5884              	.LVL471:
 230:src/main.cpp  ****             if(!calibrated) {
 5885              		.loc 6 230 13 is_stmt 1 view .LVU1942
 5886 1716 B0F5FA5F 		cmp	r0, #8000
 5887 171a 4CD9     		bls	.L141
 231:src/main.cpp  ****                 acc += fsr_now;
 5888              		.loc 6 231 13 view .LVU1943
 5889 171c 97BB     		cbnz	r7, .L142
 232:src/main.cpp  ****                 n++;
 5890              		.loc 6 232 17 view .LVU1944
 234:src/main.cpp  ****                     commit_fsr_avg(acc, n);
 5891              		.loc 6 234 17 is_stmt 0 view .LVU1945
 5892 171e B4F5FA6F 		cmp	r4, #2000
 232:src/main.cpp  ****                 n++;
 5893              		.loc 6 232 21 view .LVU1946
 5894 1722 0544     		add	r5, r5, r0
 5895              	.LVL472:
 233:src/main.cpp  ****                 if(elapsed >= 2000) {
ARM GAS  /tmp/claude-502/cc2bPfvH.s 			page 170


 5896              		.loc 6 233 17 is_stmt 1 view .LVU1947
 233:src/main.cpp  ****                 if(elapsed >= 2000) {
 5897              		.loc 6 233 18 is_stmt 0 view .LVU1948
 5898 1724 08F10108 		add	r8, r8, #1
 5899              	.LVL473:
 234:src/main.cpp  ****                     commit_fsr_avg(acc, n);
 5900              		.loc 6 234 17 is_stmt 1 view .LVU1949
 5901 1728 2CD3     		bcc	.L142
 235:src/main.cpp  ****                     calibrated = true;
 5902              		.loc 6 235 21 view .LVU1950
 5903              	.LVL474:
 5904              	.LBB1341:
 5905              	.LBI1341:
 172:src/main.cpp  ****         if(n == 0) return;
 5906              		.loc 6 172 27 view .LVU1951
 5907              	.LBE1341:
 5908              	.LBE1340:
 5909              	.LBE1339:
 5910              	.LBE1338:
 5911              	.LBE1337:
 5912              	.LBE1403:
 173:src/main.cpp  ****         uint16_t avg = (uint16_t)(acc / n);
 5913              		.loc 6 173 9 view .LVU1952
 5914              	.LBB1404:
 5915              	.LBB1362:
 5916              	.LBB1360:
 5917              	.LBB1358:
 5918              	.LBB1355:
 5919              	.LBB1350:
 5920              	.LBB1342:
 5921              	.LBB1343:
 5922              	.LBI1343:
 172:src/main.cpp  ****         if(n == 0) return;
 5923              		.loc 6 172 27 view .LVU1953
 5924              	.LBB1344:
 5925              	.LBB1345:
 174:src/main.cpp  ****         // Sanity floor ŌĆö without enough headroom over FSR_MIN the volume curve
 5926              		.loc 6 174 9 view .LVU1954
 5927 172a 42F23412 		movw	r2, #8500
 179:src/main.cpp  ****         fsr_active_inv = 1.0f / (float)(fsr_dead - FSR_MIN);
 5928              		.loc 6 179 45 is_stmt 0 view .LVU1955
 5929 172e 9FED766A 		vldr.32	s12, .L543+32
 180:src/main.cpp  ****     };
 5930              		.loc 6 180 31 view .LVU1956
 5931 1732 F7EE006A 		vmov.f32	s13, #1.0e+0
 180:src/main.cpp  ****     };
 5932              		.loc 6 180 31 view .LVU1957
 5933              	.LBE1345:
 5934              	.LBE1344:
 5935              	.LBE1343:
 5936              	.LBE1342:
 5937              	.LBE1350:
 236:src/main.cpp  ****                 }
 5938              		.loc 6 236 32 view .LVU1958
 5939 1736 0127     		movs	r7, #1
 5940              	.LVL475:
 5941              	.LBB1351:
ARM GAS  /tmp/claude-502/cc2bPfvH.s 			page 171


 5942              	.LBB1349:
 5943              	.LBB1348:
 5944              	.LBB1347:
 5945              	.LBB1346:
 174:src/main.cpp  ****         // Sanity floor ŌĆö without enough headroom over FSR_MIN the volume curve
 5946              		.loc 6 174 39 view .LVU1959
 5947 1738 B5FBF8F3 		udiv	r3, r5, r8
 174:src/main.cpp  ****         // Sanity floor ŌĆö without enough headroom over FSR_MIN the volume curve
 5948              		.loc 6 174 18 view .LVU1960
 5949 173c 9BB2     		uxth	r3, r3
 5950              	.LVL476:
 177:src/main.cpp  ****         fsr_max        = avg;
 5951              		.loc 6 177 9 is_stmt 1 view .LVU1961
 5952 173e 9342     		cmp	r3, r2
 5953 1740 38BF     		it	cc
 5954 1742 1346     		movcc	r3, r2
 5955              	.LVL477:
 178:src/main.cpp  ****         fsr_dead       = (uint16_t)(fsr_max - FSR_DEADZONE * (fsr_max - FSR_MIN));
 5956              		.loc 6 178 9 view .LVU1962
 179:src/main.cpp  ****         fsr_active_inv = 1.0f / (float)(fsr_dead - FSR_MIN);
 5957              		.loc 6 179 71 is_stmt 0 view .LVU1963
 5958 1744 A3F5FA52 		sub	r2, r3, #8000
 179:src/main.cpp  ****         fsr_active_inv = 1.0f / (float)(fsr_dead - FSR_MIN);
 5959              		.loc 6 179 45 view .LVU1964
 5960 1748 07EE903A 		vmov	s15, r3	@ int
 179:src/main.cpp  ****         fsr_active_inv = 1.0f / (float)(fsr_dead - FSR_MIN);
 5961              		.loc 6 179 71 view .LVU1965
 5962 174c 07EE102A 		vmov	s14, r2	@ int
 179:src/main.cpp  ****         fsr_active_inv = 1.0f / (float)(fsr_dead - FSR_MIN);
 5963              		.loc 6 179 45 view .LVU1966
 5964 1750 F8EEE77A 		vcvt.f32.s32	s15, s15
 178:src/main.cpp  ****         fsr_dead       = (uint16_t)(fsr_max - FSR_DEADZONE * (fsr_max - FSR_MIN));
 5965              		.loc 6 178 24 view .LVU1967
 5966 1754 249A     		ldr	r2, [sp, #144]
 179:src/main.cpp  ****         fsr_active_inv = 1.0f / (float)(fsr_dead - FSR_MIN);
 5967              		.loc 6 179 60 view .LVU1968
 5968 1756 B8EEC77A 		vcvt.f32.s32	s14, s14
 178:src/main.cpp  ****         fsr_dead       = (uint16_t)(fsr_max - FSR_DEADZONE * (fsr_max - FSR_MIN));
 5969              		.loc 6 178 24 view .LVU1969
 5970 175a 1380     		strh	r3, [r2]	@ movhi
 179:src/main.cpp  ****         fsr_active_inv = 1.0f / (float)(fsr_dead - FSR_MIN);
 5971              		.loc 6 179 9 is_stmt 1 view .LVU1970
 179:src/main.cpp  ****         fsr_active_inv = 1.0f / (float)(fsr_dead - FSR_MIN);
 5972              		.loc 6 179 24 is_stmt 0 view .LVU1971
 5973 175c 259A     		ldr	r2, [sp, #148]
 179:src/main.cpp  ****         fsr_active_inv = 1.0f / (float)(fsr_dead - FSR_MIN);
 5974              		.loc 6 179 45 view .LVU1972
 5975 175e E7EE467A 		vfms.f32	s15, s14, s12
 179:src/main.cpp  ****         fsr_active_inv = 1.0f / (float)(fsr_dead - FSR_MIN);
 5976              		.loc 6 179 26 view .LVU1973
 5977 1762 FCEEE77A 		vcvt.u32.f32	s15, s15
 5978 1766 17EE903A 		vmov	r3, s15	@ int
 5979              	.LVL478:
 179:src/main.cpp  ****         fsr_active_inv = 1.0f / (float)(fsr_dead - FSR_MIN);
 5980              		.loc 6 179 26 view .LVU1974
 5981 176a 9BB2     		uxth	r3, r3
 179:src/main.cpp  ****         fsr_active_inv = 1.0f / (float)(fsr_dead - FSR_MIN);
ARM GAS  /tmp/claude-502/cc2bPfvH.s 			page 172


 5982              		.loc 6 179 24 view .LVU1975
 5983 176c 1380     		strh	r3, [r2]	@ movhi
 180:src/main.cpp  ****     };
 5984              		.loc 6 180 9 is_stmt 1 view .LVU1976
 180:src/main.cpp  ****     };
 5985              		.loc 6 180 50 is_stmt 0 view .LVU1977
 5986 176e A3F5FA53 		sub	r3, r3, #8000
 180:src/main.cpp  ****     };
 5987              		.loc 6 180 33 view .LVU1978
 5988 1772 07EE903A 		vmov	s15, r3	@ int
 180:src/main.cpp  ****     };
 5989              		.loc 6 180 24 view .LVU1979
 5990 1776 269B     		ldr	r3, [sp, #152]
 180:src/main.cpp  ****     };
 5991              		.loc 6 180 33 view .LVU1980
 5992 1778 F8EEE77A 		vcvt.f32.s32	s15, s15
 180:src/main.cpp  ****     };
 5993              		.loc 6 180 31 view .LVU1981
 5994 177c 86EEA77A 		vdiv.f32	s14, s13, s15
 180:src/main.cpp  ****     };
 5995              		.loc 6 180 24 view .LVU1982
 5996 1780 83ED007A 		vstr.32	s14, [r3]
 5997              	.LVL479:
 5998              	.L142:
 180:src/main.cpp  ****     };
 5999              		.loc 6 180 24 view .LVU1983
 6000              	.LBE1346:
 6001              	.LBE1347:
 6002              	.LBE1348:
 6003              	.LBE1349:
 6004              	.LBE1351:
 241:src/main.cpp  ****             int32_t max_d = 0;
 6005              		.loc 6 241 13 is_stmt 1 view .LVU1984
 241:src/main.cpp  ****             int32_t max_d = 0;
 6006              		.loc 6 241 28 is_stmt 0 view .LVU1985
 6007 1784 49A8     		add	r0, sp, #292
 6008              	.LVL480:
 241:src/main.cpp  ****             int32_t max_d = 0;
 6009              		.loc 6 241 28 view .LVU1986
 6010 1786 FFF7FEFF 		bl	_Z15read_electrodesPt
 6011              	.LVL481:
 242:src/main.cpp  ****             for(int i = 0; i < N_CH; i++) {
 6012              		.loc 6 242 13 is_stmt 1 view .LVU1987
 243:src/main.cpp  ****                 int32_t d = (int32_t)baseline[i] - (int32_t)scan[i];
 6013              		.loc 6 243 13 view .LVU1988
 6014              	.LBB1352:
 243:src/main.cpp  ****                 int32_t d = (int32_t)baseline[i] - (int32_t)scan[i];
 6015              		.loc 6 243 30 view .LVU1989
 6016 178a 49A8     		add	r0, sp, #292
 6017              	.LBE1352:
 241:src/main.cpp  ****             int32_t max_d = 0;
 6018              		.loc 6 241 28 is_stmt 0 view .LVU1990
 6019 178c 099A     		ldr	r2, [sp, #36]
 242:src/main.cpp  ****             for(int i = 0; i < N_CH; i++) {
 6020              		.loc 6 242 21 view .LVU1991
 6021 178e 0021     		movs	r1, #0
 6022              	.LVL482:
ARM GAS  /tmp/claude-502/cc2bPfvH.s 			page 173


 6023              	.L143:
 6024              	.LBB1354:
 6025              	.LBB1353:
 244:src/main.cpp  ****                 if(d > max_d) max_d = d;
 6026              		.loc 6 244 17 is_stmt 1 view .LVU1992
 244:src/main.cpp  ****                 if(d > max_d) max_d = d;
 6027              		.loc 6 244 48 is_stmt 0 view .LVU1993
 6028 1790 32F8023B 		ldrh	r3, [r2], #2
 244:src/main.cpp  ****                 if(d > max_d) max_d = d;
 6029              		.loc 6 244 67 view .LVU1994
 6030 1794 30F8024B 		ldrh	r4, [r0], #2
 6031              	.LVL483:
 245:src/main.cpp  ****             }
 6032              		.loc 6 245 17 is_stmt 1 view .LVU1995
 244:src/main.cpp  ****                 if(d > max_d) max_d = d;
 6033              		.loc 6 244 25 is_stmt 0 view .LVU1996
 6034 1798 1B1B     		subs	r3, r3, r4
 6035              	.LVL484:
 244:src/main.cpp  ****                 if(d > max_d) max_d = d;
 6036              		.loc 6 244 25 view .LVU1997
 6037 179a 9942     		cmp	r1, r3
 6038 179c B8BF     		it	lt
 6039 179e 1946     		movlt	r1, r3
 6040              	.LVL485:
 244:src/main.cpp  ****                 if(d > max_d) max_d = d;
 6041              		.loc 6 244 25 view .LVU1998
 6042              	.LBE1353:
 243:src/main.cpp  ****                 int32_t d = (int32_t)baseline[i] - (int32_t)scan[i];
 6043              		.loc 6 243 13 is_stmt 1 view .LVU1999
 243:src/main.cpp  ****                 int32_t d = (int32_t)baseline[i] - (int32_t)scan[i];
 6044              		.loc 6 243 30 view .LVU2000
 6045 17a0 9145     		cmp	r9, r2
 6046 17a2 F5D1     		bne	.L143
 6047              	.LBE1354:
 247:src/main.cpp  **** 
 6048              		.loc 6 247 13 view .LVU2001
 6049 17a4 0929     		cmp	r1, #9
 6050 17a6 06DC     		bgt	.L141
 249:src/main.cpp  ****         }
 6051              		.loc 6 249 13 view .LVU2002
 249:src/main.cpp  ****         }
 6052              		.loc 6 249 26 is_stmt 0 view .LVU2003
 6053 17a8 0A20     		movs	r0, #10
 6054 17aa FFF7FEFF 		bl	_ZN5daisy6System5DelayEm
 6055              	.LVL486:
 249:src/main.cpp  ****         }
 6056              		.loc 6 249 26 view .LVU2004
 6057              	.LBE1355:
 207:src/main.cpp  ****             uint32_t elapsed = System::GetNow() - start;
 6058              		.loc 6 207 9 is_stmt 1 view .LVU2005
 250:src/main.cpp  **** 
 6059              		.loc 6 250 9 is_stmt 0 view .LVU2006
 6060 17ae 17E7     		b	.L144
 6061              	.LVL487:
 6062              	.L296:
 6063              	.LBB1356:
 218:src/main.cpp  ****             float led1   = sqrtf(sqrtf(l2_raw));              // middle (DAC1)
ARM GAS  /tmp/claude-502/cc2bPfvH.s 			page 174


 6064              		.loc 6 218 85 view .LVU2007
 6065 17b0 9FED507A 		vldr.32	s14, .L543+12
 6066              	.LVL488:
 218:src/main.cpp  ****             float led1   = sqrtf(sqrtf(l2_raw));              // middle (DAC1)
 6067              		.loc 6 218 85 view .LVU2008
 6068 17b4 63E7     		b	.L122
 6069              	.LVL489:
 6070              	.L141:
 218:src/main.cpp  ****             float led1   = sqrtf(sqrtf(l2_raw));              // middle (DAC1)
 6071              		.loc 6 218 85 view .LVU2009
 6072              	.LBE1356:
 253:src/main.cpp  ****         hw.dac.WriteValue(DacHandle::Channel::TWO, 0);
 6073              		.loc 6 253 9 is_stmt 1 view .LVU2010
 253:src/main.cpp  ****         hw.dac.WriteValue(DacHandle::Channel::TWO, 0);
 6074              		.loc 6 253 26 is_stmt 0 view .LVU2011
 6075 17b6 0022     		movs	r2, #0
 6076 17b8 5148     		ldr	r0, .L543+24
 6077 17ba 049C     		ldr	r4, [sp, #16]
 6078 17bc 1146     		mov	r1, r2
 6079 17be DDE9066A 		ldrd	r6, r10, [sp, #24]
 6080              	.LVL490:
 253:src/main.cpp  ****         hw.dac.WriteValue(DacHandle::Channel::TWO, 0);
 6081              		.loc 6 253 26 view .LVU2012
 6082 17c2 FFF7FEFF 		bl	_ZN5daisy9DacHandle10WriteValueENS0_7ChannelEt
 6083              	.LVL491:
 254:src/main.cpp  ****         g_led3_duty = 0.0f;
 6084              		.loc 6 254 9 is_stmt 1 view .LVU2013
 254:src/main.cpp  ****         g_led3_duty = 0.0f;
 6085              		.loc 6 254 26 is_stmt 0 view .LVU2014
 6086 17c6 0121     		movs	r1, #1
 6087 17c8 0022     		movs	r2, #0
 6088 17ca 4D48     		ldr	r0, .L543+24
 6089 17cc FFF7FEFF 		bl	_ZN5daisy9DacHandle10WriteValueENS0_7ChannelEt
 6090              	.LVL492:
 255:src/main.cpp  ****     };
 6091              		.loc 6 255 9 is_stmt 1 view .LVU2015
 255:src/main.cpp  ****     };
 6092              		.loc 6 255 21 is_stmt 0 view .LVU2016
 6093 17d0 0023     		movs	r3, #0
 6094 17d2 199A     		ldr	r2, [sp, #100]
 6095 17d4 1360     		str	r3, [r2]	@ float
 6096              	.LVL493:
 255:src/main.cpp  ****     };
 6097              		.loc 6 255 21 view .LVU2017
 6098              	.LBE1358:
 6099              	.LBE1360:
 6100              	.LBE1362:
 560:src/main.cpp  ****             idle_since    = System::GetNow();
 6101              		.loc 6 560 13 is_stmt 1 view .LVU2018
 560:src/main.cpp  ****             idle_since    = System::GetNow();
 6102              		.loc 6 560 43 is_stmt 0 view .LVU2019
 6103 17d6 FFF7FEFF 		bl	_ZN5daisy6System6GetNowEv
 6104              	.LVL494:
 6105 17da 0E90     		str	r0, [sp, #56]
 6106              	.LVL495:
 561:src/main.cpp  ****             hw.PrintLine("[fsr recal] fsr_max=%d", (int)fsr_max);
 6107              		.loc 6 561 13 is_stmt 1 view .LVU2020
ARM GAS  /tmp/claude-502/cc2bPfvH.s 			page 175


 561:src/main.cpp  ****             hw.PrintLine("[fsr recal] fsr_max=%d", (int)fsr_max);
 6108              		.loc 6 561 43 is_stmt 0 view .LVU2021
 6109 17dc FFF7FEFF 		bl	_ZN5daisy6System6GetNowEv
 6110              	.LVL496:
 6111              	.LBB1363:
 6112              	.LBB1364:
 128:/Users/reza.kalfane/Workspaces/Daisy/DaisyExamples/libDaisy/src/daisy_seed.h ****     }
 6113              		.loc 1 128 23 view .LVU2022
 6114 17e0 BDF88010 		ldrh	r1, [sp, #128]
 6115              	.LBE1364:
 6116              	.LBE1363:
 561:src/main.cpp  ****             hw.PrintLine("[fsr recal] fsr_max=%d", (int)fsr_max);
 6117              		.loc 6 561 43 view .LVU2023
 6118 17e4 1790     		str	r0, [sp, #92]
 6119              	.LVL497:
 562:src/main.cpp  ****         }
 6120              		.loc 6 562 13 is_stmt 1 view .LVU2024
 6121              	.LBB1366:
 6122              	.LBI1363:
 126:/Users/reza.kalfane/Workspaces/Daisy/DaisyExamples/libDaisy/src/daisy_seed.h ****     {
 6123              		.loc 1 126 17 view .LVU2025
 6124              	.LBB1365:
 128:/Users/reza.kalfane/Workspaces/Daisy/DaisyExamples/libDaisy/src/daisy_seed.h ****     }
 6125              		.loc 1 128 23 is_stmt 0 view .LVU2026
 6126 17e6 4948     		ldr	r0, .L543+36
 6127              	.LVL498:
 128:/Users/reza.kalfane/Workspaces/Daisy/DaisyExamples/libDaisy/src/daisy_seed.h ****     }
 6128              		.loc 1 128 23 view .LVU2027
 6129 17e8 FFF7FEFF 		bl	_ZN5daisy6LoggerILNS_17LoggerDestinationE1EE9PrintLineEPKcz
 6130              	.LVL499:
 129:/Users/reza.kalfane/Workspaces/Daisy/DaisyExamples/libDaisy/src/daisy_seed.h **** 
 6131              		.loc 1 129 5 view .LVU2028
 6132 17ec FEF75FBE 		b	.L116
 6133              	.LVL500:
 6134              	.L320:
 129:/Users/reza.kalfane/Workspaces/Daisy/DaisyExamples/libDaisy/src/daisy_seed.h **** 
 6135              		.loc 1 129 5 view .LVU2029
 6136              	.LBE1365:
 6137              	.LBE1366:
 6138              	.LBB1367:
 6139              	.LBB1062:
 6140              	.LBB1055:
 6141              	.LBB1030:
 6142 17f0 DFED47CA 		vldr.32	s25, .L543+40
 6143 17f4 FEF7CDBF 		b	.L178
 6144              	.LVL501:
 6145              	.L502:
 129:/Users/reza.kalfane/Workspaces/Daisy/DaisyExamples/libDaisy/src/daisy_seed.h **** 
 6146              		.loc 1 129 5 view .LVU2030
 6147              	.LBE1030:
 6148              	.LBE1055:
 649:src/main.cpp  ****             float y = (freq_ratio - 1.0f) / (freq_ratio + 1.0f);
 6149              		.loc 6 649 19 view .LVU2031
 6150 17f8 DFED465A 		vldr.32	s11, .L543+44
 650:src/main.cpp  ****             float y2 = y*y;
 6151              		.loc 6 650 35 view .LVU2032
 6152 17fc B7EE007A 		vmov.f32	s14, #1.0e+0
ARM GAS  /tmp/claude-502/cc2bPfvH.s 			page 176


 6153              	.LVL502:
 652:src/main.cpp  ****             float midi_raw = 69.0f + 17.3123f * ln_ratio; // 17.3123 = 12/ln(2)
 6154              		.loc 6 652 57 view .LVU2033
 6155 1800 9FED456A 		vldr.32	s12, .L543+48
 649:src/main.cpp  ****             float y = (freq_ratio - 1.0f) / (freq_ratio + 1.0f);
 6156              		.loc 6 649 19 view .LVU2034
 6157 1804 C7EEA56A 		vdiv.f32	s13, s15, s11
 652:src/main.cpp  ****             float midi_raw = 69.0f + 17.3123f * ln_ratio; // 17.3123 = 12/ln(2)
 6158              		.loc 6 652 57 view .LVU2035
 6159 1808 DFED443A 		vldr.32	s7, .L543+52
 653:src/main.cpp  **** 
 6160              		.loc 6 653 19 view .LVU2036
 6161 180c 9FED445A 		vldr.32	s10, .L543+56
 6162 1810 9FED444A 		vldr.32	s8, .L543+60
 6163              	.LBB1056:
 6164              	.LBB1006:
 660:src/main.cpp  ****                 // Convert quantized MIDI back to Hz
 6165              		.loc 6 660 45 view .LVU2037
 6166 1814 B0EE450A 		vmov.f32	s0, s10
 6167 1818 D3E92301 		ldrd	r0, r1, [r3, #140]
 6168              	.LVL503:
 660:src/main.cpp  ****                 // Convert quantized MIDI back to Hz
 6169              		.loc 6 660 45 view .LVU2038
 6170              	.LBE1006:
 6171              	.LBE1056:
 650:src/main.cpp  ****             float y2 = y*y;
 6172              		.loc 6 650 35 view .LVU2039
 6173 181c 76EEC74A 		vsub.f32	s9, s13, s14
 650:src/main.cpp  ****             float y2 = y*y;
 6174              		.loc 6 650 57 view .LVU2040
 6175 1820 76EE876A 		vadd.f32	s13, s13, s14
 650:src/main.cpp  ****             float y2 = y*y;
 6176              		.loc 6 650 19 view .LVU2041
 6177 1824 C4EEA67A 		vdiv.f32	s15, s9, s13
 6178              	.LVL504:
 652:src/main.cpp  ****             float midi_raw = 69.0f + 17.3123f * ln_ratio; // 17.3123 = 12/ln(2)
 6179              		.loc 6 652 57 view .LVU2042
 6180 1828 F0EE466A 		vmov.f32	s13, s12
 652:src/main.cpp  ****             float midi_raw = 69.0f + 17.3123f * ln_ratio; // 17.3123 = 12/ln(2)
 6181              		.loc 6 652 43 view .LVU2043
 6182 182c B0EE476A 		vmov.f32	s12, s14
 651:src/main.cpp  ****             float ln_ratio = 2.0f*y*(1.0f + y2*(0.3333f + y2*0.2f));
 6183              		.loc 6 651 19 view .LVU2044
 6184 1830 67EEA74A 		vmul.f32	s9, s15, s15
 6185              	.LBB1057:
 6186              	.LBB1007:
 660:src/main.cpp  ****                 // Convert quantized MIDI back to Hz
 6187              		.loc 6 660 17 is_stmt 1 view .LVU2045
 6188              	.LBE1007:
 6189              	.LBE1057:
 652:src/main.cpp  ****             float midi_raw = 69.0f + 17.3123f * ln_ratio; // 17.3123 = 12/ln(2)
 6190              		.loc 6 652 34 is_stmt 0 view .LVU2046
 6191 1834 77EEA77A 		vadd.f32	s15, s15, s15
 652:src/main.cpp  ****             float midi_raw = 69.0f + 17.3123f * ln_ratio; // 17.3123 = 12/ln(2)
 6192              		.loc 6 652 57 view .LVU2047
 6193 1838 E4EEA36A 		vfma.f32	s13, s9, s7
 652:src/main.cpp  ****             float midi_raw = 69.0f + 17.3123f * ln_ratio; // 17.3123 = 12/ln(2)
ARM GAS  /tmp/claude-502/cc2bPfvH.s 			page 177


 6194              		.loc 6 652 43 view .LVU2048
 6195 183c A6EEA46A 		vfma.f32	s12, s13, s9
 6196              	.LBB1058:
 6197              	.LBB1008:
 663:src/main.cpp  ****                 f1_sliding = false;
 6198              		.loc 6 663 61 view .LVU2049
 6199 1840 F6EE006A 		vmov.f32	s13, #5.0e-1
 6200              	.LBE1008:
 6201              	.LBE1058:
 652:src/main.cpp  ****             float midi_raw = 69.0f + 17.3123f * ln_ratio; // 17.3123 = 12/ln(2)
 6202              		.loc 6 652 19 view .LVU2050
 6203 1844 67EE867A 		vmul.f32	s15, s15, s12
 6204              	.LBB1059:
 6205              	.LBB1009:
 663:src/main.cpp  ****                 f1_sliding = false;
 6206              		.loc 6 663 61 view .LVU2051
 6207 1848 9FED376A 		vldr.32	s12, .L543+64
 660:src/main.cpp  ****                 // Convert quantized MIDI back to Hz
 6208              		.loc 6 660 45 view .LVU2052
 6209 184c A7EE840A 		vfma.f32	s0, s15, s8
 6210 1850 FFF7FEFF 		bl	_Z13quantize_midifPKai
 6211              	.LVL505:
 662:src/main.cpp  ****                 freq = clampf(440.0f*(1.0f+qe*(1.0f+qe*(0.5f+qe*0.1667f))), VOICE.freq_low, VOICE.f
 6212              		.loc 6 662 17 is_stmt 1 view .LVU2053
 662:src/main.cpp  ****                 freq = clampf(440.0f*(1.0f+qe*(1.0f+qe*(0.5f+qe*0.1667f))), VOICE.freq_low, VOICE.f
 6213              		.loc 6 662 42 is_stmt 0 view .LVU2054
 6214 1854 30EE450A 		vsub.f32	s0, s0, s10
 6215              	.LVL506:
 662:src/main.cpp  ****                 freq = clampf(440.0f*(1.0f+qe*(1.0f+qe*(0.5f+qe*0.1667f))), VOICE.freq_low, VOICE.f
 6216              		.loc 6 662 23 view .LVU2055
 6217 1858 DFED347A 		vldr.32	s15, .L543+68
 6218 185c 60EE277A 		vmul.f32	s15, s0, s15
 6219              	.LVL507:
 663:src/main.cpp  ****                 f1_sliding = false;
 6220              		.loc 6 663 17 is_stmt 1 view .LVU2056
 663:src/main.cpp  ****                 f1_sliding = false;
 6221              		.loc 6 663 61 is_stmt 0 view .LVU2057
 6222 1860 E7EE866A 		vfma.f32	s13, s15, s12
 663:src/main.cpp  ****                 f1_sliding = false;
 6223              		.loc 6 663 52 view .LVU2058
 6224 1864 B0EE476A 		vmov.f32	s12, s14
 6225 1868 A6EEA76A 		vfma.f32	s12, s13, s15
 663:src/main.cpp  ****                 f1_sliding = false;
 6226              		.loc 6 663 43 view .LVU2059
 6227 186c A6EE277A 		vfma.f32	s14, s12, s15
 663:src/main.cpp  ****                 f1_sliding = false;
 6228              		.loc 6 663 30 view .LVU2060
 6229 1870 67EE257A 		vmul.f32	s15, s14, s11
 6230              	.LVL508:
 6231              	.LBB1005:
 6232              	.LBI1002:
  12:src/dsp.h     ****     return v<lo?lo:v>hi?hi:v;
 6233              		.loc 9 12 21 is_stmt 1 view .LVU2061
 6234              	.LBB1004:
  13:src/dsp.h     **** }
 6235              		.loc 9 13 5 view .LVU2062
  13:src/dsp.h     **** }
ARM GAS  /tmp/claude-502/cc2bPfvH.s 			page 178


 6236              		.loc 9 13 16 is_stmt 0 view .LVU2063
 6237 1874 F4EEE7AA 		vcmpe.f32	s21, s15
 6238 1878 F1EE10FA 		vmrs	APSR_nzcv, FPSCR
 6239 187c 3FF7C8AC 		bgt	.L311
  13:src/dsp.h     **** }
 6240              		.loc 9 13 24 view .LVU2064
 6241 1880 F4EE67BA 		vcmp.f32	s23, s15
 6242 1884 F1EE10FA 		vmrs	APSR_nzcv, FPSCR
 6243 1888 48BF     		it	mi
 6244 188a F0EE6B7A 		vmovmi.f32	s15, s23
 6245              	.LVL509:
  13:src/dsp.h     **** }
 6246              		.loc 9 13 24 view .LVU2065
 6247 188e FEF7F1BE 		b	.L172
 6248              	.LVL510:
 6249              	.L518:
  13:src/dsp.h     **** }
 6250              		.loc 9 13 24 view .LVU2066
 6251              	.LBE1004:
 6252              	.LBE1005:
 6253              	.LBE1009:
 6254              	.LBE1059:
 6255              	.LBE1062:
 6256              	.LBE1367:
 6257              	.LBB1368:
 6258              	.LBB1209:
 6259              	.LBB1200:
 6260              	.LBB1161:
 692:src/main.cpp  ****                 return x*x*x*(x*(x*6.0f - 15.0f) + 10.0f);
 6261              		.loc 6 692 30 view .LVU2067
 6262 1892 B4EEC67A 		vcmpe.f32	s14, s12
 6263 1896 F1EE10FA 		vmrs	APSR_nzcv, FPSCR
 6264 189a 7FF74BA8 		ble	.L284
 6265 189e B0EE467A 		vmov.f32	s14, s12
 6266              	.LVL511:
 693:src/main.cpp  ****             };
 6267              		.loc 6 693 17 is_stmt 1 view .LVU2068
 693:src/main.cpp  ****             };
 6268              		.loc 6 693 17 is_stmt 0 view .LVU2069
 6269              	.LBE1161:
 6270              	.LBE1200:
 811:src/main.cpp  **** 
 6271              		.loc 6 811 13 is_stmt 1 view .LVU2070
 6272              	.LBB1201:
 691:src/main.cpp  ****                 x = x<0?0:x>1?1:x;
 6273              		.loc 6 691 33 view .LVU2071
 6274              	.LBB1167:
 692:src/main.cpp  ****                 return x*x*x*(x*(x*6.0f - 15.0f) + 10.0f);
 6275              		.loc 6 692 17 view .LVU2072
 6276 18a2 FFF76BB8 		b	.L224
 6277              	.LVL512:
 6278              	.L477:
 692:src/main.cpp  ****                 return x*x*x*(x*(x*6.0f - 15.0f) + 10.0f);
 6279              		.loc 6 692 30 is_stmt 0 view .LVU2073
 6280 18a6 B7EE007A 		vmov.f32	s14, #1.0e+0
 6281 18aa F4EEC76A 		vcmpe.f32	s13, s14
 6282 18ae F1EE10FA 		vmrs	APSR_nzcv, FPSCR
ARM GAS  /tmp/claude-502/cc2bPfvH.s 			page 179


 6283 18b2 40F38B83 		ble	.L478
 6284              	.LBE1167:
 6285              	.LBE1201:
 822:src/main.cpp  ****             float rm    = smoothstep2(rm_in) * VOICE.ringmod_max;
 6286              		.loc 6 822 41 view .LVU2074
 6287 18b6 DFED1E6A 		vldr.32	s13, .L543+72
 6288              	.LVL513:
 822:src/main.cpp  ****             float rm    = smoothstep2(rm_in) * VOICE.ringmod_max;
 6289              		.loc 6 822 33 view .LVU2075
 6290 18ba 9FED1E6A 		vldr.32	s12, .L543+76
 822:src/main.cpp  ****             float rm    = smoothstep2(rm_in) * VOICE.ringmod_max;
 6291              		.loc 6 822 41 view .LVU2076
 6292 18be 77EEE66A 		vsub.f32	s13, s15, s13
 822:src/main.cpp  ****             float rm    = smoothstep2(rm_in) * VOICE.ringmod_max;
 6293              		.loc 6 822 33 view .LVU2077
 6294 18c2 86EE865A 		vdiv.f32	s10, s13, s12
 6295 18c6 FFF759B8 		b	.L224
 6296              	.LVL514:
 6297              	.L300:
 822:src/main.cpp  ****             float rm    = smoothstep2(rm_in) * VOICE.ringmod_max;
 6298              		.loc 6 822 33 view .LVU2078
 6299              	.LBE1209:
 6300              	.LBE1368:
 6301              	.LBB1369:
 6302              	.LBB986:
 6303              	.LBB980:
 6304              	.LBB974:
 6305              	.LBB968:
 6306              	.LBB962:
 6307              	.LBB955:
 6308              	.LBB949:
 6309 18ca B3EE0ECA 		vmov.f32	s24, #3.0e+1
 6310 18ce DFED1ABA 		vldr.32	s23, .L543+80
 6311 18d2 B0EE08DA 		vmov.f32	s26, #3.0e+0
 6312 18d6 0924     		movs	r4, #9
 6313 18d8 F6EE000A 		vmov.f32	s1, #5.0e-1
 6314 18dc F0EE4CCA 		vmov.f32	s25, s24
 6315 18e0 7EE5     		b	.L162
 6316              	.LVL515:
 6317              	.L303:
 822:src/main.cpp  ****             float rm    = smoothstep2(rm_in) * VOICE.ringmod_max;
 6318              		.loc 6 822 33 view .LVU2079
 6319              	.LBE949:
 6320              	.LBE955:
 6321              	.LBB956:
 6322              	.LBB953:
  13:src/dsp.h     **** }
 6323              		.loc 9 13 16 view .LVU2080
 6324 18e2 F0EE67AA 		vmov.f32	s21, s15
 6325              	.LVL516:
  13:src/dsp.h     **** }
 6326              		.loc 9 13 16 view .LVU2081
 6327 18e6 99E5     		b	.L164
 6328              	.L544:
 6329              		.align	2
 6330              	.L543:
 6331 18e8 F1197605 		.word	91625969
ARM GAS  /tmp/claude-502/cc2bPfvH.s 			page 180


 6332 18ec 00803B46 		.word	1178304512
 6333 18f0 DB0FC940 		.word	1086918619
 6334 18f4 00000000 		.word	0
 6335 18f8 00F07F45 		.word	1166012416
 6336 18fc CDCC4C3D 		.word	1028443341
 6337 1900 20000000 		.word	.LANCHOR0+32
 6338 1904 18000000 		.word	.LANCHOR0+24
 6339 1908 CDCCCC3D 		.word	1036831949
 6340 190c A8010000 		.word	.LC13
 6341 1910 CDCC4C3F 		.word	1061997773
 6342 1914 0000DC43 		.word	1138491392
 6343 1918 4CA6AA3E 		.word	1051371084
 6344 191c CDCC4C3E 		.word	1045220557
 6345 1920 00008A42 		.word	1116340224
 6346 1924 977F8A41 		.word	1099595671
 6347 1928 68B32A3E 		.word	1042985832
 6348 192c C0956C3D 		.word	1030526400
 6349 1930 9A99593F 		.word	1062836634
 6350 1934 9A99193E 		.word	1041865114
 6351 1938 6666E63F 		.word	1072064102
 6352              	.LVL517:
 6353              	.L494:
  13:src/dsp.h     **** }
 6354              		.loc 9 13 16 view .LVU2082
 6355              	.LBE953:
 6356              	.LBE956:
 6357              	.LBE962:
 6358              	.LBE968:
 6359              	.LBE974:
 6360              	.LBE980:
 6361              	.LBE986:
 6362              	.LBE1369:
 6363              	.LBB1370:
 6364              	.LBB907:
 6365              	.LBB890:
 6366              	.LBB849:
 499:src/main.cpp  ****                     storage.Save();                          // writes QSPI only if changed
 6367              		.loc 6 499 21 is_stmt 1 view .LVU2083
 499:src/main.cpp  ****                     storage.Save();                          // writes QSPI only if changed
 6368              		.loc 6 499 53 is_stmt 0 view .LVU2084
 6369 193c B34B     		ldr	r3, .L545
 6370              	.LBB786:
 6371              	.LBB787:
 6372              	.LBB788:
  86:/Users/reza.kalfane/Workspaces/Daisy/DaisyExamples/libDaisy/src/util/PersistentStorage.h ****         }
  87:/Users/reza.kalfane/Workspaces/Daisy/DaisyExamples/libDaisy/src/util/PersistentStorage.h ****     }
  88:/Users/reza.kalfane/Workspaces/Daisy/DaisyExamples/libDaisy/src/util/PersistentStorage.h **** 
  89:/Users/reza.kalfane/Workspaces/Daisy/DaisyExamples/libDaisy/src/util/PersistentStorage.h ****     /** Returns the state of the Persistent Data */
  90:/Users/reza.kalfane/Workspaces/Daisy/DaisyExamples/libDaisy/src/util/PersistentStorage.h ****     State GetState() const { return state_; }
  91:/Users/reza.kalfane/Workspaces/Daisy/DaisyExamples/libDaisy/src/util/PersistentStorage.h **** 
  92:/Users/reza.kalfane/Workspaces/Daisy/DaisyExamples/libDaisy/src/util/PersistentStorage.h ****     /** Returns a reference to the setting struct */
  93:/Users/reza.kalfane/Workspaces/Daisy/DaisyExamples/libDaisy/src/util/PersistentStorage.h ****     SettingStruct &GetSettings() { return settings_; }
  94:/Users/reza.kalfane/Workspaces/Daisy/DaisyExamples/libDaisy/src/util/PersistentStorage.h **** 
  95:/Users/reza.kalfane/Workspaces/Daisy/DaisyExamples/libDaisy/src/util/PersistentStorage.h ****     /** Performs the save operation, storing the storage */
  96:/Users/reza.kalfane/Workspaces/Daisy/DaisyExamples/libDaisy/src/util/PersistentStorage.h ****     void Save()
  97:/Users/reza.kalfane/Workspaces/Daisy/DaisyExamples/libDaisy/src/util/PersistentStorage.h ****     {
  98:/Users/reza.kalfane/Workspaces/Daisy/DaisyExamples/libDaisy/src/util/PersistentStorage.h ****         state_ = State::USER;
ARM GAS  /tmp/claude-502/cc2bPfvH.s 			page 181


  99:/Users/reza.kalfane/Workspaces/Daisy/DaisyExamples/libDaisy/src/util/PersistentStorage.h ****         StoreSettingsIfChanged();
 100:/Users/reza.kalfane/Workspaces/Daisy/DaisyExamples/libDaisy/src/util/PersistentStorage.h ****     }
 101:/Users/reza.kalfane/Workspaces/Daisy/DaisyExamples/libDaisy/src/util/PersistentStorage.h **** 
 102:/Users/reza.kalfane/Workspaces/Daisy/DaisyExamples/libDaisy/src/util/PersistentStorage.h ****     /** Restores the settings stored in the QSPI */
 103:/Users/reza.kalfane/Workspaces/Daisy/DaisyExamples/libDaisy/src/util/PersistentStorage.h ****     void RestoreDefaults()
 104:/Users/reza.kalfane/Workspaces/Daisy/DaisyExamples/libDaisy/src/util/PersistentStorage.h ****     {
 105:/Users/reza.kalfane/Workspaces/Daisy/DaisyExamples/libDaisy/src/util/PersistentStorage.h ****         settings_ = default_settings_;
 106:/Users/reza.kalfane/Workspaces/Daisy/DaisyExamples/libDaisy/src/util/PersistentStorage.h ****         state_    = State::FACTORY;
 107:/Users/reza.kalfane/Workspaces/Daisy/DaisyExamples/libDaisy/src/util/PersistentStorage.h ****         StoreSettingsIfChanged();
 108:/Users/reza.kalfane/Workspaces/Daisy/DaisyExamples/libDaisy/src/util/PersistentStorage.h ****     }
 109:/Users/reza.kalfane/Workspaces/Daisy/DaisyExamples/libDaisy/src/util/PersistentStorage.h **** 
 110:/Users/reza.kalfane/Workspaces/Daisy/DaisyExamples/libDaisy/src/util/PersistentStorage.h ****   private:
 111:/Users/reza.kalfane/Workspaces/Daisy/DaisyExamples/libDaisy/src/util/PersistentStorage.h ****     struct SaveStruct
 112:/Users/reza.kalfane/Workspaces/Daisy/DaisyExamples/libDaisy/src/util/PersistentStorage.h ****     {
 113:/Users/reza.kalfane/Workspaces/Daisy/DaisyExamples/libDaisy/src/util/PersistentStorage.h ****         State         storage_state;
 114:/Users/reza.kalfane/Workspaces/Daisy/DaisyExamples/libDaisy/src/util/PersistentStorage.h ****         SettingStruct user_data;
 115:/Users/reza.kalfane/Workspaces/Daisy/DaisyExamples/libDaisy/src/util/PersistentStorage.h ****     };
 116:/Users/reza.kalfane/Workspaces/Daisy/DaisyExamples/libDaisy/src/util/PersistentStorage.h **** 
 117:/Users/reza.kalfane/Workspaces/Daisy/DaisyExamples/libDaisy/src/util/PersistentStorage.h ****     void StoreSettingsIfChanged()
 118:/Users/reza.kalfane/Workspaces/Daisy/DaisyExamples/libDaisy/src/util/PersistentStorage.h ****     {
 119:/Users/reza.kalfane/Workspaces/Daisy/DaisyExamples/libDaisy/src/util/PersistentStorage.h ****         SaveStruct s;
 120:/Users/reza.kalfane/Workspaces/Daisy/DaisyExamples/libDaisy/src/util/PersistentStorage.h ****         s.storage_state = state_;
 121:/Users/reza.kalfane/Workspaces/Daisy/DaisyExamples/libDaisy/src/util/PersistentStorage.h ****         s.user_data     = settings_;
 122:/Users/reza.kalfane/Workspaces/Daisy/DaisyExamples/libDaisy/src/util/PersistentStorage.h **** 
 123:/Users/reza.kalfane/Workspaces/Daisy/DaisyExamples/libDaisy/src/util/PersistentStorage.h ****         void *data_ptr = qspi_.GetData(address_offset_);
 6373              		.loc 7 123 39 view .LVU2085
 6374 193e 0A99     		ldr	r1, [sp, #40]
 6375              	.LBE788:
 6376              	.LBE787:
 6377              	.LBE786:
 499:src/main.cpp  ****                     storage.Save();                          // writes QSPI only if changed
 6378              		.loc 6 499 53 view .LVU2086
 6379 1940 1A68     		ldr	r2, [r3]
 6380              	.LVL518:
 500:src/main.cpp  ****                     hw.PrintLine("[voice kept %d/%d] %s",
 6381              		.loc 6 500 21 is_stmt 1 view .LVU2087
 6382              	.LBB795:
 6383              	.LBI786:
  96:/Users/reza.kalfane/Workspaces/Daisy/DaisyExamples/libDaisy/src/util/PersistentStorage.h ****     {
 6384              		.loc 7 96 10 view .LVU2088
 6385              	.LBB793:
 6386              	.LBI787:
 117:/Users/reza.kalfane/Workspaces/Daisy/DaisyExamples/libDaisy/src/util/PersistentStorage.h ****     {
 6387              		.loc 7 117 10 view .LVU2089
 6388              	.LBB791:
 120:/Users/reza.kalfane/Workspaces/Daisy/DaisyExamples/libDaisy/src/util/PersistentStorage.h ****         s.user_data     = settings_;
 6389              		.loc 7 120 25 is_stmt 0 view .LVU2090
 6390 1942 0223     		movs	r3, #2
 6391              		.loc 7 123 39 view .LVU2091
 6392 1944 B248     		ldr	r0, .L545+4
 6393              	.LVL519:
 121:/Users/reza.kalfane/Workspaces/Daisy/DaisyExamples/libDaisy/src/util/PersistentStorage.h **** 
 6394              		.loc 7 121 9 view .LVU2092
 6395 1946 4A92     		str	r2, [sp, #296]
 6396 1948 0492     		str	r2, [sp, #16]
 120:/Users/reza.kalfane/Workspaces/Daisy/DaisyExamples/libDaisy/src/util/PersistentStorage.h ****         s.user_data     = settings_;
 6397              		.loc 7 120 25 view .LVU2093
ARM GAS  /tmp/claude-502/cc2bPfvH.s 			page 182


 6398 194a 4993     		str	r3, [sp, #292]
 6399              		.loc 7 123 39 view .LVU2094
 6400 194c FFF7FEFF 		bl	_ZN5daisy10QSPIHandle7GetDataEm
 6401              	.LVL520:
 6402              		.loc 7 123 39 view .LVU2095
 6403 1950 8046     		mov	r8, r0
 6404              	.LVL521:
 124:/Users/reza.kalfane/Workspaces/Daisy/DaisyExamples/libDaisy/src/util/PersistentStorage.h **** 
 125:/Users/reza.kalfane/Workspaces/Daisy/DaisyExamples/libDaisy/src/util/PersistentStorage.h **** #if !UNIT_TEST
 126:/Users/reza.kalfane/Workspaces/Daisy/DaisyExamples/libDaisy/src/util/PersistentStorage.h ****         // Caching behavior is different when running programs outside internal flash
 127:/Users/reza.kalfane/Workspaces/Daisy/DaisyExamples/libDaisy/src/util/PersistentStorage.h ****         // so we need to explicitly invalidate the QSPI mapped memory to ensure we are
 128:/Users/reza.kalfane/Workspaces/Daisy/DaisyExamples/libDaisy/src/util/PersistentStorage.h ****         // comparing the local settings with the most recently persisted settings.
 129:/Users/reza.kalfane/Workspaces/Daisy/DaisyExamples/libDaisy/src/util/PersistentStorage.h ****         if(System::GetProgramMemoryRegion()
 6405              		.loc 7 129 42 view .LVU2096
 6406 1952 FFF7FEFF 		bl	_ZN5daisy6System22GetProgramMemoryRegionEv
 6407              	.LVL522:
 6408              		.loc 7 129 9 view .LVU2097
 6409 1956 049A     		ldr	r2, [sp, #16]
 6410 1958 0028     		cmp	r0, #0
 6411 195a 40F02482 		bne	.L523
 6412              	.L88:
 6413              	.LVL523:
 6414              	.LBB789:
 6415              	.LBI789:
  42:src/main.cpp  **** };
 6416              		.loc 6 42 10 is_stmt 1 view .LVU2098
 6417              	.LBB790:
  42:src/main.cpp  **** };
 6418              		.loc 6 42 55 view .LVU2099
  42:src/main.cpp  **** };
 6419              		.loc 6 42 55 is_stmt 0 view .LVU2100
 6420              	.LBE790:
 6421              	.LBE789:
 130:/Users/reza.kalfane/Workspaces/Daisy/DaisyExamples/libDaisy/src/util/PersistentStorage.h ****            != System::MemoryRegion::INTERNAL_FLASH)
 131:/Users/reza.kalfane/Workspaces/Daisy/DaisyExamples/libDaisy/src/util/PersistentStorage.h ****         {
 132:/Users/reza.kalfane/Workspaces/Daisy/DaisyExamples/libDaisy/src/util/PersistentStorage.h ****             dsy_dma_invalidate_cache_for_buffer((uint8_t *)data_ptr, sizeof(s));
 133:/Users/reza.kalfane/Workspaces/Daisy/DaisyExamples/libDaisy/src/util/PersistentStorage.h ****         }
 134:/Users/reza.kalfane/Workspaces/Daisy/DaisyExamples/libDaisy/src/util/PersistentStorage.h **** #endif
 135:/Users/reza.kalfane/Workspaces/Daisy/DaisyExamples/libDaisy/src/util/PersistentStorage.h **** 
 136:/Users/reza.kalfane/Workspaces/Daisy/DaisyExamples/libDaisy/src/util/PersistentStorage.h ****         // Only actually save if the new data is different
 137:/Users/reza.kalfane/Workspaces/Daisy/DaisyExamples/libDaisy/src/util/PersistentStorage.h ****         // Use the `==operator` in custom SettingStruct to fine tune
 138:/Users/reza.kalfane/Workspaces/Daisy/DaisyExamples/libDaisy/src/util/PersistentStorage.h ****         // what may or may not trigger the erase/save.
 139:/Users/reza.kalfane/Workspaces/Daisy/DaisyExamples/libDaisy/src/util/PersistentStorage.h ****         auto storage_data = reinterpret_cast<SaveStruct *>(data_ptr);
 140:/Users/reza.kalfane/Workspaces/Daisy/DaisyExamples/libDaisy/src/util/PersistentStorage.h ****         if(settings_ != storage_data->user_data)
 6422              		.loc 7 140 9 view .LVU2101
 6423 195e D8F80430 		ldr	r3, [r8, #4]
 6424 1962 9A42     		cmp	r2, r3
 6425 1964 0AD0     		beq	.L89
 141:/Users/reza.kalfane/Workspaces/Daisy/DaisyExamples/libDaisy/src/util/PersistentStorage.h ****         {
 142:/Users/reza.kalfane/Workspaces/Daisy/DaisyExamples/libDaisy/src/util/PersistentStorage.h ****             qspi_.Erase(address_offset_, address_offset_ + sizeof(s));
 6426              		.loc 7 142 24 view .LVU2102
 6427 1966 0822     		movs	r2, #8
 6428 1968 0021     		movs	r1, #0
 6429 196a A948     		ldr	r0, .L545+4
 6430 196c FFF7FEFF 		bl	_ZN5daisy10QSPIHandle5EraseEmm
 6431              	.LVL524:
 143:/Users/reza.kalfane/Workspaces/Daisy/DaisyExamples/libDaisy/src/util/PersistentStorage.h ****             qspi_.Write(address_offset_, sizeof(s), (uint8_t *)&s);
ARM GAS  /tmp/claude-502/cc2bPfvH.s 			page 183


 6432              		.loc 7 143 24 view .LVU2103
 6433 1970 49AB     		add	r3, sp, #292
 6434 1972 0822     		movs	r2, #8
 6435 1974 0021     		movs	r1, #0
 6436 1976 A648     		ldr	r0, .L545+4
 6437 1978 FFF7FEFF 		bl	_ZN5daisy10QSPIHandle5WriteEmmPh
 6438              	.LVL525:
 6439              	.L89:
 6440              		.loc 7 143 24 view .LVU2104
 6441              	.LBE791:
 6442              	.LBE793:
 6443              	.LBE795:
 501:src/main.cpp  ****                                  cycle_pos(g_voice_idx), cycle_total(), VOICES[g_voice_idx].name);
 6444              		.loc 6 501 21 is_stmt 1 view .LVU2105
 501:src/main.cpp  ****                                  cycle_pos(g_voice_idx), cycle_total(), VOICES[g_voice_idx].name);
 6445              		.loc 6 501 33 is_stmt 0 view .LVU2106
 6446 197c A34B     		ldr	r3, .L545
 6447              	.LBB796:
 6448              	.LBB797:
 824:src/voice.h   ****   for (int i = 0; i <= idx && i < NUM_VOICES; i++)
 6449              		.loc 8 824 7 view .LVU2107
 6450 197e 0021     		movs	r1, #0
 6451              	.LBE797:
 6452              	.LBE796:
 501:src/main.cpp  ****                                  cycle_pos(g_voice_idx), cycle_total(), VOICES[g_voice_idx].name);
 6453              		.loc 6 501 33 view .LVU2108
 6454 1980 1B68     		ldr	r3, [r3]
 6455              	.LVL526:
 6456              	.LBB800:
 6457              	.LBI796:
 823:src/voice.h   ****   int p = 0;
 6458              		.loc 8 823 12 is_stmt 1 view .LVU2109
 6459              	.LBB799:
 6460              	.LBB798:
 825:src/voice.h   ****     if (!VOICES[i].no_cycle)
 6461              		.loc 8 825 28 view .LVU2110
 6462 1982 0C2B     		cmp	r3, #12
 6463 1984 9C46     		mov	ip, r3
 6464 1986 A8BF     		it	ge
 6465 1988 4FF00C0C 		movge	ip, #12
 6466 198c 002B     		cmp	r3, #0
 6467 198e 09DB     		blt	.L90
 6468 1990 A04A     		ldr	r2, .L545+8
 825:src/voice.h   ****     if (!VOICES[i].no_cycle)
 6469              		.loc 8 825 12 is_stmt 0 view .LVU2111
 6470 1992 0B46     		mov	r3, r1
 6471              	.LVL527:
 6472              	.L92:
 826:src/voice.h   ****       p++;
 6473              		.loc 8 826 5 is_stmt 1 view .LVU2112
 827:src/voice.h   ****   return p;
 6474              		.loc 8 827 7 view .LVU2113
 826:src/voice.h   ****       p++;
 6475              		.loc 8 826 5 is_stmt 0 view .LVU2114
 6476 1994 92F87C00 		ldrb	r0, [r2, #124]	@ zero_extendqisi2
 825:src/voice.h   ****     if (!VOICES[i].no_cycle)
 6477              		.loc 8 825 3 view .LVU2115
ARM GAS  /tmp/claude-502/cc2bPfvH.s 			page 184


 6478 1998 0133     		adds	r3, r3, #1
 6479              	.LVL528:
 825:src/voice.h   ****     if (!VOICES[i].no_cycle)
 6480              		.loc 8 825 28 view .LVU2116
 6481 199a 9432     		adds	r2, r2, #148
 826:src/voice.h   ****       p++;
 6482              		.loc 8 826 5 view .LVU2117
 6483 199c 00B9     		cbnz	r0, .L91
 827:src/voice.h   ****   return p;
 6484              		.loc 8 827 8 view .LVU2118
 6485 199e 0131     		adds	r1, r1, #1
 6486              	.LVL529:
 6487              	.L91:
 825:src/voice.h   ****     if (!VOICES[i].no_cycle)
 6488              		.loc 8 825 3 is_stmt 1 view .LVU2119
 825:src/voice.h   ****     if (!VOICES[i].no_cycle)
 6489              		.loc 8 825 28 view .LVU2120
 6490 19a0 6345     		cmp	r3, ip
 6491 19a2 F7DD     		ble	.L92
 6492              	.LVL530:
 6493              	.L90:
 825:src/voice.h   ****     if (!VOICES[i].no_cycle)
 6494              		.loc 8 825 28 is_stmt 0 view .LVU2121
 6495              	.LBE798:
 824:src/voice.h   ****   for (int i = 0; i <= idx && i < NUM_VOICES; i++)
 6496              		.loc 8 824 7 view .LVU2122
 6497 19a4 9B4B     		ldr	r3, .L545+8
 6498              	.LBE799:
 6499              	.LBE800:
 6500              	.LBB801:
 6501              	.LBB802:
 817:src/voice.h   ****   for (int i = 0; i < NUM_VOICES; i++)
 6502              		.loc 8 817 7 view .LVU2123
 6503 19a6 0022     		movs	r2, #0
 6504              	.L94:
 6505              	.LVL531:
 6506              	.LBB803:
 819:src/voice.h   ****       n++;
 6507              		.loc 8 819 5 is_stmt 1 view .LVU2124
 820:src/voice.h   ****   return n;
 6508              		.loc 8 820 7 view .LVU2125
 819:src/voice.h   ****       n++;
 6509              		.loc 8 819 5 is_stmt 0 view .LVU2126
 6510 19a8 93F87C00 		ldrb	r0, [r3, #124]	@ zero_extendqisi2
 818:src/voice.h   ****     if (!VOICES[i].no_cycle)
 6511              		.loc 8 818 21 view .LVU2127
 6512 19ac 9433     		adds	r3, r3, #148
 819:src/voice.h   ****       n++;
 6513              		.loc 8 819 5 view .LVU2128
 6514 19ae 00B9     		cbnz	r0, .L93
 820:src/voice.h   ****   return n;
 6515              		.loc 8 820 8 view .LVU2129
 6516 19b0 0132     		adds	r2, r2, #1
 6517              	.LVL532:
 6518              	.L93:
 818:src/voice.h   ****     if (!VOICES[i].no_cycle)
 6519              		.loc 8 818 3 is_stmt 1 view .LVU2130
ARM GAS  /tmp/claude-502/cc2bPfvH.s 			page 185


 818:src/voice.h   ****     if (!VOICES[i].no_cycle)
 6520              		.loc 8 818 21 view .LVU2131
 6521 19b2 9948     		ldr	r0, .L545+12
 6522 19b4 9842     		cmp	r0, r3
 6523 19b6 F7D1     		bne	.L94
 818:src/voice.h   ****     if (!VOICES[i].no_cycle)
 6524              		.loc 8 818 21 is_stmt 0 view .LVU2132
 6525              	.LBE803:
 821:src/voice.h   **** }
 6526              		.loc 8 821 3 is_stmt 1 view .LVU2133
 6527              	.LVL533:
 821:src/voice.h   **** }
 6528              		.loc 8 821 3 is_stmt 0 view .LVU2134
 6529              	.LBE802:
 6530              	.LBE801:
 502:src/main.cpp  ****                     drum2_at = 0;
 6531              		.loc 6 502 80 view .LVU2135
 6532 19b8 944B     		ldr	r3, .L545
 502:src/main.cpp  ****                     drum2_at = 0;
 6533              		.loc 6 502 93 view .LVU2136
 6534 19ba 9420     		movs	r0, #148
 502:src/main.cpp  ****                     drum2_at = 0;
 6535              		.loc 6 502 80 view .LVU2137
 6536 19bc 1B68     		ldr	r3, [r3]
 6537              	.LVL534:
 6538              	.LBB804:
 6539              	.LBI804:
 126:/Users/reza.kalfane/Workspaces/Daisy/DaisyExamples/libDaisy/src/daisy_seed.h ****     {
 6540              		.loc 1 126 17 is_stmt 1 view .LVU2138
 6541              	.LBE804:
 502:src/main.cpp  ****                     drum2_at = 0;
 6542              		.loc 6 502 93 is_stmt 0 view .LVU2139
 6543 19be 00FB03F3 		mul	r3, r0, r3
 6544              	.LVL535:
 6545              	.LBB806:
 6546              	.LBB805:
 128:/Users/reza.kalfane/Workspaces/Daisy/DaisyExamples/libDaisy/src/daisy_seed.h ****     }
 6547              		.loc 1 128 23 view .LVU2140
 6548 19c2 0598     		ldr	r0, [sp, #20]
 6549 19c4 C358     		ldr	r3, [r0, r3]
 6550 19c6 9548     		ldr	r0, .L545+16
 6551 19c8 FFF7FEFF 		bl	_ZN5daisy6LoggerILNS_17LoggerDestinationE1EE9PrintLineEPKcz
 6552              	.LVL536:
 128:/Users/reza.kalfane/Workspaces/Daisy/DaisyExamples/libDaisy/src/daisy_seed.h ****     }
 6553              		.loc 1 128 23 view .LVU2141
 6554              	.LBE805:
 6555              	.LBE806:
 503:src/main.cpp  ****                     sel_mode = 0; full_since = 0;
 6556              		.loc 6 503 21 is_stmt 1 view .LVU2142
 504:src/main.cpp  ****                     blink_start(cycle_pos(g_voice_idx), now); // confirm saved voice (non-blocking)
 6557              		.loc 6 504 21 view .LVU2143
 504:src/main.cpp  ****                     blink_start(cycle_pos(g_voice_idx), now); // confirm saved voice (non-blocking)
 6558              		.loc 6 504 35 view .LVU2144
 505:src/main.cpp  ****                 } else {
 6559              		.loc 6 505 21 view .LVU2145
 505:src/main.cpp  ****                 } else {
 6560              		.loc 6 505 32 is_stmt 0 view .LVU2146
ARM GAS  /tmp/claude-502/cc2bPfvH.s 			page 186


 6561 19cc 8F4B     		ldr	r3, .L545
 6562 19ce 1B68     		ldr	r3, [r3]
 6563              	.LVL537:
 6564              	.LBB807:
 6565              	.LBI807:
 823:src/voice.h   ****   int p = 0;
 6566              		.loc 8 823 12 is_stmt 1 view .LVU2147
 6567              	.LBB808:
 6568              	.LBB809:
 825:src/voice.h   ****     if (!VOICES[i].no_cycle)
 6569              		.loc 8 825 28 view .LVU2148
 6570 19d0 0C2B     		cmp	r3, #12
 6571 19d2 1846     		mov	r0, r3
 6572 19d4 A8BF     		it	ge
 6573 19d6 0C20     		movge	r0, #12
 6574 19d8 002B     		cmp	r3, #0
 6575 19da C0F29681 		blt	.L95
 6576              	.LBE809:
 824:src/voice.h   ****   for (int i = 0; i <= idx && i < NUM_VOICES; i++)
 6577              		.loc 8 824 7 is_stmt 0 view .LVU2149
 6578 19de 0023     		movs	r3, #0
 6579              	.LVL538:
 6580              	.LBB810:
 825:src/voice.h   ****     if (!VOICES[i].no_cycle)
 6581              		.loc 8 825 28 view .LVU2150
 6582 19e0 8C4A     		ldr	r2, .L545+8
 825:src/voice.h   ****     if (!VOICES[i].no_cycle)
 6583              		.loc 8 825 12 view .LVU2151
 6584 19e2 9C46     		mov	ip, r3
 6585              	.LVL539:
 6586              	.L97:
 826:src/voice.h   ****       p++;
 6587              		.loc 8 826 5 is_stmt 1 view .LVU2152
 827:src/voice.h   ****   return p;
 6588              		.loc 8 827 7 view .LVU2153
 826:src/voice.h   ****       p++;
 6589              		.loc 8 826 5 is_stmt 0 view .LVU2154
 6590 19e4 92F87C10 		ldrb	r1, [r2, #124]	@ zero_extendqisi2
 825:src/voice.h   ****     if (!VOICES[i].no_cycle)
 6591              		.loc 8 825 3 view .LVU2155
 6592 19e8 0133     		adds	r3, r3, #1
 6593              	.LVL540:
 825:src/voice.h   ****     if (!VOICES[i].no_cycle)
 6594              		.loc 8 825 28 view .LVU2156
 6595 19ea 9432     		adds	r2, r2, #148
 826:src/voice.h   ****       p++;
 6596              		.loc 8 826 5 view .LVU2157
 6597 19ec 09B9     		cbnz	r1, .L96
 827:src/voice.h   ****   return p;
 6598              		.loc 8 827 8 view .LVU2158
 6599 19ee 0CF1010C 		add	ip, ip, #1
 6600              	.LVL541:
 6601              	.L96:
 825:src/voice.h   ****     if (!VOICES[i].no_cycle)
 6602              		.loc 8 825 3 is_stmt 1 view .LVU2159
 825:src/voice.h   ****     if (!VOICES[i].no_cycle)
 6603              		.loc 8 825 28 view .LVU2160
ARM GAS  /tmp/claude-502/cc2bPfvH.s 			page 187


 6604 19f2 8342     		cmp	r3, r0
 6605 19f4 F6DD     		ble	.L97
 825:src/voice.h   ****     if (!VOICES[i].no_cycle)
 6606              		.loc 8 825 28 is_stmt 0 view .LVU2161
 6607              	.LBE810:
 6608              		.loc 8 828 3 is_stmt 1 view .LVU2162
 6609              	.LVL542:
 6610              		.loc 8 828 3 is_stmt 0 view .LVU2163
 6611              	.LBE808:
 6612              	.LBE807:
 6613              	.LBB811:
 6614              	.LBB812:
 349:src/main.cpp  ****         else     { leds_write(false); blink_on = false; }
 6615              		.loc 6 349 9 view .LVU2164
 6616 19f6 6346     		mov	r3, ip
 6617              	.LVL543:
 349:src/main.cpp  ****         else     { leds_write(false); blink_on = false; }
 6618              		.loc 6 349 9 view .LVU2165
 6619              	.LBE812:
 6620              	.LBI811:
 347:src/main.cpp  ****         blink_left = n;
 6621              		.loc 6 347 24 is_stmt 1 view .LVU2166
 6622              	.LBB827:
 348:src/main.cpp  ****         if(n > 0){ leds_write(true); blink_on = true; blink_t = now + 110; }
 6623              		.loc 6 348 9 view .LVU2167
 349:src/main.cpp  ****         else     { leds_write(false); blink_on = false; }
 6624              		.loc 6 349 9 view .LVU2168
 6625 19f8 CDF834C0 		str	ip, [sp, #52]
 6626 19fc 002B     		cmp	r3, #0
 6627 19fe 00F08481 		beq	.L95
 349:src/main.cpp  ****         else     { leds_write(false); blink_on = false; }
 6628              		.loc 6 349 20 view .LVU2169
 6629              	.LVL544:
 6630              	.LBB813:
 6631              	.LBI813:
 342:src/main.cpp  ****         hw.dac.WriteValue(DacHandle::Channel::ONE, on ? (uint16_t)LED1_MAX : 0);
 6632              		.loc 6 342 23 view .LVU2170
 6633              	.LBB814:
 343:src/main.cpp  ****         hw.dac.WriteValue(DacHandle::Channel::TWO, on ? (uint16_t)LED2_MAX : 0);
 6634              		.loc 6 343 9 view .LVU2171
 343:src/main.cpp  ****         hw.dac.WriteValue(DacHandle::Channel::TWO, on ? (uint16_t)LED2_MAX : 0);
 6635              		.loc 6 343 26 is_stmt 0 view .LVU2172
 6636 1a02 40F6FF72 		movw	r2, #4095
 6637 1a06 0021     		movs	r1, #0
 6638 1a08 8548     		ldr	r0, .L545+20
 6639              	.LBE814:
 6640              	.LBE813:
 6641 1a0a 0C97     		str	r7, [sp, #48]
 6642              	.LVL545:
 6643              	.LBB817:
 6644              	.LBB815:
 343:src/main.cpp  ****         hw.dac.WriteValue(DacHandle::Channel::TWO, on ? (uint16_t)LED2_MAX : 0);
 6645              		.loc 6 343 26 view .LVU2173
 6646 1a0c FFF7FEFF 		bl	_ZN5daisy9DacHandle10WriteValueENS0_7ChannelEt
 6647              	.LVL546:
 344:src/main.cpp  ****         g_led3_duty = on ? LED3_INTENSITY : 0.0f;
 6648              		.loc 6 344 9 is_stmt 1 view .LVU2174
ARM GAS  /tmp/claude-502/cc2bPfvH.s 			page 188


 344:src/main.cpp  ****         g_led3_duty = on ? LED3_INTENSITY : 0.0f;
 6649              		.loc 6 344 26 is_stmt 0 view .LVU2175
 6650 1a10 40F6FF72 		movw	r2, #4095
 6651 1a14 0121     		movs	r1, #1
 6652 1a16 8248     		ldr	r0, .L545+20
 6653 1a18 FFF7FEFF 		bl	_ZN5daisy9DacHandle10WriteValueENS0_7ChannelEt
 6654              	.LVL547:
 345:src/main.cpp  ****     };
 6655              		.loc 6 345 9 is_stmt 1 view .LVU2176
 345:src/main.cpp  ****     };
 6656              		.loc 6 345 21 is_stmt 0 view .LVU2177
 6657 1a1c 814B     		ldr	r3, .L545+24
 6658 1a1e 1999     		ldr	r1, [sp, #100]
 6659              	.LBE815:
 6660              	.LBE817:
 6661              	.LBE827:
 6662              	.LBE811:
 503:src/main.cpp  ****                     sel_mode = 0; full_since = 0;
 6663              		.loc 6 503 30 view .LVU2178
 6664 1a20 0022     		movs	r2, #0
 6665              	.LBB833:
 6666              	.LBB828:
 6667              	.LBB818:
 6668              	.LBB816:
 345:src/main.cpp  ****     };
 6669              		.loc 6 345 21 view .LVU2179
 6670 1a22 0B60     		str	r3, [r1]	@ float
 6671              	.LVL548:
 345:src/main.cpp  ****     };
 6672              		.loc 6 345 21 view .LVU2180
 6673              	.LBE816:
 6674              	.LBE818:
 349:src/main.cpp  ****         else     { leds_write(false); blink_on = false; }
 6675              		.loc 6 349 38 is_stmt 1 view .LVU2181
 349:src/main.cpp  ****         else     { leds_write(false); blink_on = false; }
 6676              		.loc 6 349 55 view .LVU2182
 349:src/main.cpp  ****         else     { leds_write(false); blink_on = false; }
 6677              		.loc 6 349 69 is_stmt 0 view .LVU2183
 6678 1a24 05F16E03 		add	r3, r5, #110
 6679              	.LBE828:
 6680              	.LBE833:
 503:src/main.cpp  ****                     sel_mode = 0; full_since = 0;
 6681              		.loc 6 503 30 view .LVU2184
 6682 1a28 1D92     		str	r2, [sp, #116]
 6683              	.LBB834:
 6684              	.LBB829:
 349:src/main.cpp  ****         else     { leds_write(false); blink_on = false; }
 6685              		.loc 6 349 69 view .LVU2185
 6686 1a2a 1493     		str	r3, [sp, #80]
 6687              	.LVL549:
 349:src/main.cpp  ****         else     { leds_write(false); blink_on = false; }
 6688              		.loc 6 349 47 view .LVU2186
 6689 1a2c 0123     		movs	r3, #1
 6690              	.LVL550:
 349:src/main.cpp  ****         else     { leds_write(false); blink_on = false; }
 6691              		.loc 6 349 47 view .LVU2187
 6692              	.LBE829:
ARM GAS  /tmp/claude-502/cc2bPfvH.s 			page 189


 6693              	.LBE834:
 504:src/main.cpp  ****                     blink_start(cycle_pos(g_voice_idx), now); // confirm saved voice (non-blocking)
 6694              		.loc 6 504 46 view .LVU2188
 6695 1a2e 1A92     		str	r2, [sp, #104]
 6696              	.LBB835:
 6697              	.LBB830:
 349:src/main.cpp  ****         else     { leds_write(false); blink_on = false; }
 6698              		.loc 6 349 47 view .LVU2189
 6699 1a30 1093     		str	r3, [sp, #64]
 6700              	.LBE830:
 6701              	.LBE835:
 504:src/main.cpp  ****                     blink_start(cycle_pos(g_voice_idx), now); // confirm saved voice (non-blocking)
 6702              		.loc 6 504 30 view .LVU2190
 6703 1a32 0F92     		str	r2, [sp, #60]
 6704              	.LBB836:
 6705              	.LBB831:
 6706 1a34 FEF732BD 		b	.L98
 6707              	.LVL551:
 6708              	.L327:
 504:src/main.cpp  ****                     blink_start(cycle_pos(g_voice_idx), now); // confirm saved voice (non-blocking)
 6709              		.loc 6 504 30 view .LVU2191
 6710              	.LBE831:
 6711              	.LBE836:
 6712              	.LBE849:
 6713              	.LBE890:
 6714              	.LBE907:
 6715              	.LBE1370:
 6716              	.LBB1371:
 6717              	.LBB1210:
 6718              	.LBB1202:
 6719              	.LBB1145:
 6720 1a38 F7EE085A 		vmov.f32	s11, #1.5e+0
 6721 1a3c FEF760BF 		b	.L219
 6722              	.LVL552:
 6723              	.L342:
 504:src/main.cpp  ****                     blink_start(cycle_pos(g_voice_idx), now); // confirm saved voice (non-blocking)
 6724              		.loc 6 504 30 view .LVU2192
 6725              	.LBE1145:
 6726              	.LBE1202:
 6727              	.LBE1210:
 6728              	.LBE1371:
 6729              	.LBB1372:
 6730              	.LBB1287:
 6731              	.LBB1279:
 6732 1a40 0020     		movs	r0, #0
 6733 1a42 FFF7F7B8 		b	.L256
 6734              	.LVL553:
 6735              	.L345:
 504:src/main.cpp  ****                     blink_start(cycle_pos(g_voice_idx), now); // confirm saved voice (non-blocking)
 6736              		.loc 6 504 30 view .LVU2193
 6737              	.LBE1279:
 6738              	.LBE1287:
 6739              	.LBE1372:
 6740              	.LBB1373:
 6741              	.LBB1295:
  91:src/main.cpp  ****     if(n>w)n=w;
 6742              		.loc 6 91 25 view .LVU2194
ARM GAS  /tmp/claude-502/cc2bPfvH.s 			page 190


 6743 1a46 0022     		movs	r2, #0
 6744 1a48 FFF733B9 		b	.L261
 6745              	.LVL554:
 6746              	.L187:
  91:src/main.cpp  ****     if(n>w)n=w;
 6747              		.loc 6 91 25 view .LVU2195
 6748              	.LBE1295:
 6749              	.LBE1373:
 6750              	.LBB1374:
 6751              	.LBB1132:
 6752              	.LBB1123:
 6753              	.LBB1105:
 764:src/main.cpp  ****                 float prs_mult = 0.75f + 0.25f * pr01;
 6754              		.loc 6 764 17 is_stmt 1 view .LVU2196
 764:src/main.cpp  ****                 float prs_mult = 0.75f + 0.25f * pr01;
 6755              		.loc 6 764 41 is_stmt 0 view .LVU2197
 6756 1a4c DAED027A 		vldr.32	s15, [r10, #8]	@ int
 764:src/main.cpp  ****                 float prs_mult = 0.75f + 0.25f * pr01;
 6757              		.loc 6 764 40 view .LVU2198
 6758 1a50 9FED757A 		vldr.32	s14, .L545+28
 764:src/main.cpp  ****                 float prs_mult = 0.75f + 0.25f * pr01;
 6759              		.loc 6 764 41 view .LVU2199
 6760 1a54 F8EEE77A 		vcvt.f32.s32	s15, s15
 764:src/main.cpp  ****                 float prs_mult = 0.75f + 0.25f * pr01;
 6761              		.loc 6 764 40 view .LVU2200
 6762 1a58 C7EE876A 		vdiv.f32	s13, s15, s14
 6763              	.LVL555:
 6764              	.LBB1098:
  12:src/dsp.h     ****     return v<lo?lo:v>hi?hi:v;
 6765              		.loc 9 12 21 is_stmt 1 view .LVU2201
 6766              	.LBB1093:
  13:src/dsp.h     **** }
 6767              		.loc 9 13 5 view .LVU2202
  13:src/dsp.h     **** }
 6768              		.loc 9 13 16 is_stmt 0 view .LVU2203
 6769 1a5c F5EEC06A 		vcmpe.f32	s13, #0
 6770 1a60 F1EE10FA 		vmrs	APSR_nzcv, FPSCR
 6771 1a64 40F12981 		bpl	.L524
 6772              	.LBE1093:
 6773              	.LBE1098:
 766:src/main.cpp  ****                 float l3_raw   = 2.0f * p01 - 1.0f;                 if(l3_raw < 0) l3_raw = 0;
 6774              		.loc 6 766 23 view .LVU2204
 6775 1a68 B7EE00BA 		vmov.f32	s22, #1.0e+0
 767:src/main.cpp  ****                 float l2_raw   = 1.0f - 2.0f * fabsf(p01 - 0.5f);   if(l2_raw < 0) l2_raw = 0;
 6776              		.loc 6 767 91 view .LVU2205
 6777 1a6c DFED6FBA 		vldr.32	s23, .L545+32
 6778              	.LVL556:
 6779              	.L268:
 768:src/main.cpp  ****                 led1_target    = sqrtf(sqrtf(l2_raw)) * prs_mult;  // middle tent
 6780              		.loc 6 768 17 is_stmt 1 view .LVU2206
 768:src/main.cpp  ****                 led1_target    = sqrtf(sqrtf(l2_raw)) * prs_mult;  // middle tent
 6781              		.loc 6 768 69 view .LVU2207
 768:src/main.cpp  ****                 led1_target    = sqrtf(sqrtf(l2_raw)) * prs_mult;  // middle tent
 6782              		.loc 6 768 91 is_stmt 0 view .LVU2208
 6783 1a70 B6EE08CA 		vmov.f32	s24, #7.5e-1
 6784 1a74 9FED6D7A 		vldr.32	s14, .L545+32
 6785 1a78 FFF756BB 		b	.L198
ARM GAS  /tmp/claude-502/cc2bPfvH.s 			page 191


 6786              	.LVL557:
 6787              	.L509:
 768:src/main.cpp  ****                 led1_target    = sqrtf(sqrtf(l2_raw)) * prs_mult;  // middle tent
 6788              		.loc 6 768 91 view .LVU2209
 6789              	.LBE1105:
 6790              	.LBE1123:
 6791              	.LBE1132:
 6792              	.LBE1374:
 891:src/main.cpp  ****             bc_i, vib_i);
 6793              		.loc 6 891 24 view .LVU2210
 6794 1a7c 4342     		rsbs	r3, r0, #0
 887:src/main.cpp  ****             freq_i, cut_i,
 6795              		.loc 6 887 21 view .LVU2211
 6796 1a7e 6C4C     		ldr	r4, .L545+36
 6797 1a80 A4FB0354 		umull	r5, r4, r4, r3
 6798 1a84 E408     		lsrs	r4, r4, #3
 6799 1a86 04EB8404 		add	r4, r4, r4, lsl #2
 6800 1a8a A3EB4404 		sub	r4, r3, r4, lsl #1
 6801 1a8e 694B     		ldr	r3, .L545+40
 6802 1a90 83FB0053 		smull	r5, r3, r3, r0
 6803 1a94 C017     		asrs	r0, r0, #31
 6804              	.LVL558:
 887:src/main.cpp  ****             freq_i, cut_i,
 6805              		.loc 6 887 21 view .LVU2212
 6806 1a96 A0EBA305 		sub	r5, r0, r3, asr #2
 6807 1a9a 2D23     		movs	r3, #45
 6808 1a9c FFF756B9 		b	.L267
 6809              	.LVL559:
 6810              	.L495:
 6811              	.LBB1375:
 6812              	.LBB908:
 6813              	.LBB891:
 6814              	.LBB850:
 6815              	.LBB837:
 509:src/main.cpp  ****                         // glass tap (debounced rising edge) ŌåÆ advance one voice (wraps)
 6816              		.loc 6 509 21 is_stmt 1 view .LVU2213
 511:src/main.cpp  ****                         g_voice_idx = cycle_next(g_voice_idx);
 6817              		.loc 6 511 25 view .LVU2214
 512:src/main.cpp  ****                         hw.PrintLine("[voice %d/%d] %s",
 6818              		.loc 6 512 25 view .LVU2215
 512:src/main.cpp  ****                         hw.PrintLine("[voice %d/%d] %s",
 6819              		.loc 6 512 49 is_stmt 0 view .LVU2216
 6820 1aa0 D3F800C0 		ldr	ip, [r3]
 6821              	.LVL560:
 6822              	.LBB714:
 6823              	.LBI714:
 829:src/voice.h   **** }
 830:src/voice.h   **** // Next cyclable voice index after `idx` (wraps). Falls back to idx if none.
 831:src/voice.h   **** static int cycle_next(int idx) {
 6824              		.loc 8 831 12 is_stmt 1 view .LVU2217
 6825              	.LBB715:
 832:src/voice.h   ****   for (int step = 1; step <= NUM_VOICES; step++) {
 6826              		.loc 8 832 3 view .LVU2218
 6827              	.LBB716:
 6828              		.loc 8 832 27 view .LVU2219
 6829 1aa4 0494     		str	r4, [sp, #16]
 6830 1aa6 0CF10101 		add	r1, ip, #1
ARM GAS  /tmp/claude-502/cc2bPfvH.s 			page 192


 6831 1aaa 0CF10E00 		add	r0, ip, #14
 6832              	.LVL561:
 6833              		.loc 8 832 27 is_stmt 0 view .LVU2220
 6834 1aae CDF818C0 		str	ip, [sp, #24]
 6835 1ab2 DDF814C0 		ldr	ip, [sp, #20]
 6836              	.LVL562:
 6837              	.L102:
 6838              	.LBB717:
 833:src/voice.h   ****     int n = (idx + step) % NUM_VOICES;
 6839              		.loc 8 833 5 is_stmt 1 view .LVU2221
 6840              	.LBE717:
 832:src/voice.h   ****   for (int step = 1; step <= NUM_VOICES; step++) {
 6841              		.loc 8 832 3 view .LVU2222
 832:src/voice.h   ****   for (int step = 1; step <= NUM_VOICES; step++) {
 6842              		.loc 8 832 27 view .LVU2223
 6843              	.LBB718:
 6844              		.loc 8 833 9 is_stmt 0 view .LVU2224
 6845 1ab6 604B     		ldr	r3, .L545+44
 6846 1ab8 4FEAE17E 		asr	lr, r1, #31
 834:src/voice.h   ****     if (!VOICES[n].no_cycle)
 6847              		.loc 8 834 20 view .LVU2225
 6848 1abc 9422     		movs	r2, #148
 833:src/voice.h   ****     int n = (idx + step) % NUM_VOICES;
 6849              		.loc 8 833 9 view .LVU2226
 6850 1abe 83FB0143 		smull	r4, r3, r3, r1
 6851 1ac2 CEEBA303 		rsb	r3, lr, r3, asr #2
 6852 1ac6 03EB430E 		add	lr, r3, r3, lsl #1
 6853 1aca 03EB8E03 		add	r3, r3, lr, lsl #2
 6854 1ace CB1A     		subs	r3, r1, r3
 6855              	.LVL563:
 6856              		.loc 8 834 5 is_stmt 1 view .LVU2227
 6857              	.LBE718:
 832:src/voice.h   ****   for (int step = 1; step <= NUM_VOICES; step++) {
 6858              		.loc 8 832 27 is_stmt 0 view .LVU2228
 6859 1ad0 0131     		adds	r1, r1, #1
 6860              	.LBB719:
 6861              		.loc 8 834 20 view .LVU2229
 6862 1ad2 02FB03C2 		mla	r2, r2, r3, ip
 6863              		.loc 8 834 5 view .LVU2230
 6864 1ad6 92F87C20 		ldrb	r2, [r2, #124]	@ zero_extendqisi2
 6865 1ada 002A     		cmp	r2, #0
 6866 1adc 00F06981 		beq	.L293
 6867              	.LBE719:
 832:src/voice.h   ****   for (int step = 1; step <= NUM_VOICES; step++) {
 6868              		.loc 8 832 27 view .LVU2231
 6869 1ae0 8842     		cmp	r0, r1
 6870 1ae2 E8D1     		bne	.L102
 6871 1ae4 049C     		ldr	r4, [sp, #16]
 6872 1ae6 DDF818C0 		ldr	ip, [sp, #24]
 6873              	.L101:
 6874              	.LVL564:
 832:src/voice.h   ****   for (int step = 1; step <= NUM_VOICES; step++) {
 6875              		.loc 8 832 27 view .LVU2232
 6876              	.LBE716:
 6877              	.LBE715:
 6878              	.LBE714:
 512:src/main.cpp  ****                         hw.PrintLine("[voice %d/%d] %s",
ARM GAS  /tmp/claude-502/cc2bPfvH.s 			page 193


 6879              		.loc 6 512 37 view .LVU2233
 6880 1aea 484B     		ldr	r3, .L545
 6881              	.LBB723:
 6882              	.LBB724:
 824:src/voice.h   ****   for (int i = 0; i <= idx && i < NUM_VOICES; i++)
 6883              		.loc 8 824 7 view .LVU2234
 6884 1aec 0021     		movs	r1, #0
 6885              	.LBE724:
 6886              	.LBE723:
 512:src/main.cpp  ****                         hw.PrintLine("[voice %d/%d] %s",
 6887              		.loc 6 512 37 view .LVU2235
 6888 1aee C3F800C0 		str	ip, [r3]
 513:src/main.cpp  ****                                      cycle_pos(g_voice_idx), cycle_total(), VOICES[g_voice_idx].nam
 6889              		.loc 6 513 25 is_stmt 1 view .LVU2236
 513:src/main.cpp  ****                                      cycle_pos(g_voice_idx), cycle_total(), VOICES[g_voice_idx].nam
 6890              		.loc 6 513 37 is_stmt 0 view .LVU2237
 6891 1af2 1B68     		ldr	r3, [r3]
 6892              	.LVL565:
 6893              	.LBB727:
 6894              	.LBI723:
 823:src/voice.h   ****   int p = 0;
 6895              		.loc 8 823 12 is_stmt 1 view .LVU2238
 6896              	.LBB726:
 6897              	.LBB725:
 825:src/voice.h   ****     if (!VOICES[i].no_cycle)
 6898              		.loc 8 825 28 view .LVU2239
 6899 1af4 0C2B     		cmp	r3, #12
 6900 1af6 9C46     		mov	ip, r3
 6901 1af8 A8BF     		it	ge
 6902 1afa 4FF00C0C 		movge	ip, #12
 6903 1afe 002B     		cmp	r3, #0
 6904 1b00 09DB     		blt	.L103
 6905 1b02 444A     		ldr	r2, .L545+8
 825:src/voice.h   ****     if (!VOICES[i].no_cycle)
 6906              		.loc 8 825 12 is_stmt 0 view .LVU2240
 6907 1b04 0B46     		mov	r3, r1
 6908              	.LVL566:
 6909              	.L105:
 826:src/voice.h   ****       p++;
 6910              		.loc 8 826 5 is_stmt 1 view .LVU2241
 827:src/voice.h   ****   return p;
 6911              		.loc 8 827 7 view .LVU2242
 826:src/voice.h   ****       p++;
 6912              		.loc 8 826 5 is_stmt 0 view .LVU2243
 6913 1b06 92F87C00 		ldrb	r0, [r2, #124]	@ zero_extendqisi2
 825:src/voice.h   ****     if (!VOICES[i].no_cycle)
 6914              		.loc 8 825 3 view .LVU2244
 6915 1b0a 0133     		adds	r3, r3, #1
 6916              	.LVL567:
 825:src/voice.h   ****     if (!VOICES[i].no_cycle)
 6917              		.loc 8 825 28 view .LVU2245
 6918 1b0c 9432     		adds	r2, r2, #148
 826:src/voice.h   ****       p++;
 6919              		.loc 8 826 5 view .LVU2246
 6920 1b0e 00B9     		cbnz	r0, .L104
 827:src/voice.h   ****   return p;
 6921              		.loc 8 827 8 view .LVU2247
ARM GAS  /tmp/claude-502/cc2bPfvH.s 			page 194


 6922 1b10 0131     		adds	r1, r1, #1
 6923              	.LVL568:
 6924              	.L104:
 825:src/voice.h   ****     if (!VOICES[i].no_cycle)
 6925              		.loc 8 825 3 is_stmt 1 view .LVU2248
 825:src/voice.h   ****     if (!VOICES[i].no_cycle)
 6926              		.loc 8 825 28 view .LVU2249
 6927 1b12 6345     		cmp	r3, ip
 6928 1b14 F7DD     		ble	.L105
 6929              	.LVL569:
 6930              	.L103:
 825:src/voice.h   ****     if (!VOICES[i].no_cycle)
 6931              		.loc 8 825 28 is_stmt 0 view .LVU2250
 6932              	.LBE725:
 824:src/voice.h   ****   for (int i = 0; i <= idx && i < NUM_VOICES; i++)
 6933              		.loc 8 824 7 view .LVU2251
 6934 1b16 3F4B     		ldr	r3, .L545+8
 6935              	.LBE726:
 6936              	.LBE727:
 6937              	.LBB728:
 6938              	.LBB729:
 817:src/voice.h   ****   for (int i = 0; i < NUM_VOICES; i++)
 6939              		.loc 8 817 7 view .LVU2252
 6940 1b18 0022     		movs	r2, #0
 6941              	.L107:
 6942              	.LVL570:
 6943              	.LBB730:
 819:src/voice.h   ****       n++;
 6944              		.loc 8 819 5 is_stmt 1 view .LVU2253
 820:src/voice.h   ****   return n;
 6945              		.loc 8 820 7 view .LVU2254
 819:src/voice.h   ****       n++;
 6946              		.loc 8 819 5 is_stmt 0 view .LVU2255
 6947 1b1a 93F87C00 		ldrb	r0, [r3, #124]	@ zero_extendqisi2
 818:src/voice.h   ****     if (!VOICES[i].no_cycle)
 6948              		.loc 8 818 21 view .LVU2256
 6949 1b1e 9433     		adds	r3, r3, #148
 819:src/voice.h   ****       n++;
 6950              		.loc 8 819 5 view .LVU2257
 6951 1b20 00B9     		cbnz	r0, .L106
 820:src/voice.h   ****   return n;
 6952              		.loc 8 820 8 view .LVU2258
 6953 1b22 0132     		adds	r2, r2, #1
 6954              	.LVL571:
 6955              	.L106:
 818:src/voice.h   ****     if (!VOICES[i].no_cycle)
 6956              		.loc 8 818 3 is_stmt 1 view .LVU2259
 818:src/voice.h   ****     if (!VOICES[i].no_cycle)
 6957              		.loc 8 818 21 view .LVU2260
 6958 1b24 3C48     		ldr	r0, .L545+12
 6959 1b26 9842     		cmp	r0, r3
 6960 1b28 F7D1     		bne	.L107
 818:src/voice.h   ****     if (!VOICES[i].no_cycle)
 6961              		.loc 8 818 21 is_stmt 0 view .LVU2261
 6962              	.LBE730:
 821:src/voice.h   **** }
 6963              		.loc 8 821 3 is_stmt 1 view .LVU2262
ARM GAS  /tmp/claude-502/cc2bPfvH.s 			page 195


 6964              	.LVL572:
 821:src/voice.h   **** }
 6965              		.loc 8 821 3 is_stmt 0 view .LVU2263
 6966              	.LBE729:
 6967              	.LBE728:
 514:src/main.cpp  ****                         blink_start(1, now);                 // single blink per advance
 6968              		.loc 6 514 84 view .LVU2264
 6969 1b2a 384B     		ldr	r3, .L545
 514:src/main.cpp  ****                         blink_start(1, now);                 // single blink per advance
 6970              		.loc 6 514 97 view .LVU2265
 6971 1b2c 9420     		movs	r0, #148
 514:src/main.cpp  ****                         blink_start(1, now);                 // single blink per advance
 6972              		.loc 6 514 84 view .LVU2266
 6973 1b2e 1B68     		ldr	r3, [r3]
 6974              	.LVL573:
 6975              	.LBB731:
 6976              	.LBI731:
 126:/Users/reza.kalfane/Workspaces/Daisy/DaisyExamples/libDaisy/src/daisy_seed.h ****     {
 6977              		.loc 1 126 17 is_stmt 1 view .LVU2267
 6978              	.LBE731:
 514:src/main.cpp  ****                         blink_start(1, now);                 // single blink per advance
 6979              		.loc 6 514 97 is_stmt 0 view .LVU2268
 6980 1b30 00FB03F3 		mul	r3, r0, r3
 6981              	.LVL574:
 6982              	.LBB733:
 6983              	.LBB732:
 128:/Users/reza.kalfane/Workspaces/Daisy/DaisyExamples/libDaisy/src/daisy_seed.h ****     }
 6984              		.loc 1 128 23 view .LVU2269
 6985 1b34 0598     		ldr	r0, [sp, #20]
 6986 1b36 C358     		ldr	r3, [r0, r3]
 6987 1b38 4048     		ldr	r0, .L545+48
 6988 1b3a FFF7FEFF 		bl	_ZN5daisy6LoggerILNS_17LoggerDestinationE1EE9PrintLineEPKcz
 6989              	.LVL575:
 128:/Users/reza.kalfane/Workspaces/Daisy/DaisyExamples/libDaisy/src/daisy_seed.h ****     }
 6990              		.loc 1 128 23 view .LVU2270
 6991              	.LBE732:
 6992              	.LBE733:
 515:src/main.cpp  ****                     }
 6993              		.loc 6 515 25 is_stmt 1 view .LVU2271
 6994              	.LBB734:
 6995              	.LBI734:
 347:src/main.cpp  ****         blink_left = n;
 6996              		.loc 6 347 24 view .LVU2272
 6997              	.LBB735:
 348:src/main.cpp  ****         if(n > 0){ leds_write(true); blink_on = true; blink_t = now + 110; }
 6998              		.loc 6 348 9 view .LVU2273
 349:src/main.cpp  ****         else     { leds_write(false); blink_on = false; }
 6999              		.loc 6 349 9 view .LVU2274
 349:src/main.cpp  ****         else     { leds_write(false); blink_on = false; }
 7000              		.loc 6 349 20 view .LVU2275
 7001              	.LBB736:
 7002              	.LBI736:
 342:src/main.cpp  ****         hw.dac.WriteValue(DacHandle::Channel::ONE, on ? (uint16_t)LED1_MAX : 0);
 7003              		.loc 6 342 23 view .LVU2276
 7004              	.LBB737:
 343:src/main.cpp  ****         hw.dac.WriteValue(DacHandle::Channel::TWO, on ? (uint16_t)LED2_MAX : 0);
 7005              		.loc 6 343 9 view .LVU2277
ARM GAS  /tmp/claude-502/cc2bPfvH.s 			page 196


 343:src/main.cpp  ****         hw.dac.WriteValue(DacHandle::Channel::TWO, on ? (uint16_t)LED2_MAX : 0);
 7006              		.loc 6 343 26 is_stmt 0 view .LVU2278
 7007 1b3e 40F6FF72 		movw	r2, #4095
 7008 1b42 0021     		movs	r1, #0
 7009 1b44 3648     		ldr	r0, .L545+20
 7010 1b46 FFF7FEFF 		bl	_ZN5daisy9DacHandle10WriteValueENS0_7ChannelEt
 7011              	.LVL576:
 344:src/main.cpp  ****         g_led3_duty = on ? LED3_INTENSITY : 0.0f;
 7012              		.loc 6 344 9 is_stmt 1 view .LVU2279
 344:src/main.cpp  ****         g_led3_duty = on ? LED3_INTENSITY : 0.0f;
 7013              		.loc 6 344 26 is_stmt 0 view .LVU2280
 7014 1b4a 40F6FF72 		movw	r2, #4095
 7015 1b4e 0121     		movs	r1, #1
 7016 1b50 3348     		ldr	r0, .L545+20
 7017 1b52 FFF7FEFF 		bl	_ZN5daisy9DacHandle10WriteValueENS0_7ChannelEt
 7018              	.LVL577:
 345:src/main.cpp  ****     };
 7019              		.loc 6 345 9 is_stmt 1 view .LVU2281
 345:src/main.cpp  ****     };
 7020              		.loc 6 345 21 is_stmt 0 view .LVU2282
 7021 1b56 334B     		ldr	r3, .L545+24
 7022 1b58 199A     		ldr	r2, [sp, #100]
 7023 1b5a 1360     		str	r3, [r2]	@ float
 7024              	.LVL578:
 345:src/main.cpp  ****     };
 7025              		.loc 6 345 21 view .LVU2283
 7026              	.LBE737:
 7027              	.LBE736:
 349:src/main.cpp  ****         else     { leds_write(false); blink_on = false; }
 7028              		.loc 6 349 38 is_stmt 1 view .LVU2284
 349:src/main.cpp  ****         else     { leds_write(false); blink_on = false; }
 7029              		.loc 6 349 55 view .LVU2285
 349:src/main.cpp  ****         else     { leds_write(false); blink_on = false; }
 7030              		.loc 6 349 69 is_stmt 0 view .LVU2286
 7031 1b5c 05F16E02 		add	r2, r5, #110
 7032              	.LBE735:
 7033              	.LBE734:
 522:src/main.cpp  ****                         // Drums kit: a tap fires a kick + snare "one-two" (one-shots).
 7034              		.loc 6 522 36 view .LVU2287
 7035 1b60 2A4B     		ldr	r3, .L545
 7036              	.LBB742:
 7037              	.LBB738:
 349:src/main.cpp  ****         else     { leds_write(false); blink_on = false; }
 7038              		.loc 6 349 69 view .LVU2288
 7039 1b62 1492     		str	r2, [sp, #80]
 7040              	.LVL579:
 349:src/main.cpp  ****         else     { leds_write(false); blink_on = false; }
 7041              		.loc 6 349 69 view .LVU2289
 7042              	.LBE738:
 7043              	.LBE742:
 517:src/main.cpp  ****                         g_finger_on = false; g_amp_target = 0.0f;   // silent cycling
 7044              		.loc 6 517 21 is_stmt 1 view .LVU2290
 522:src/main.cpp  ****                         // Drums kit: a tap fires a kick + snare "one-two" (one-shots).
 7045              		.loc 6 522 21 view .LVU2291
 522:src/main.cpp  ****                         // Drums kit: a tap fires a kick + snare "one-two" (one-shots).
 7046              		.loc 6 522 36 is_stmt 0 view .LVU2292
 7047 1b64 1B68     		ldr	r3, [r3]
ARM GAS  /tmp/claude-502/cc2bPfvH.s 			page 197


 522:src/main.cpp  ****                         // Drums kit: a tap fires a kick + snare "one-two" (one-shots).
 7048              		.loc 6 522 21 view .LVU2293
 7049 1b66 0C2B     		cmp	r3, #12
 7050              	.LBB743:
 7051              	.LBB739:
 349:src/main.cpp  ****         else     { leds_write(false); blink_on = false; }
 7052              		.loc 6 349 47 view .LVU2294
 7053 1b68 0C9B     		ldr	r3, [sp, #48]
 7054 1b6a 1093     		str	r3, [sp, #64]
 7055              	.LBE739:
 7056              	.LBE743:
 522:src/main.cpp  ****                         // Drums kit: a tap fires a kick + snare "one-two" (one-shots).
 7057              		.loc 6 522 21 view .LVU2295
 7058 1b6c 00F0E380 		beq	.L108
 7059              	.LBB744:
 7060              	.LBB740:
 348:src/main.cpp  ****         if(n > 0){ leds_write(true); blink_on = true; blink_t = now + 110; }
 7061              		.loc 6 348 20 view .LVU2296
 7062 1b70 0123     		movs	r3, #1
 7063              	.LBE740:
 7064              	.LBE744:
 511:src/main.cpp  ****                         g_voice_idx = cycle_next(g_voice_idx);
 7065              		.loc 6 511 37 view .LVU2297
 7066 1b72 1C95     		str	r5, [sp, #112]
 7067              	.LBB745:
 7068              	.LBB741:
 348:src/main.cpp  ****         if(n > 0){ leds_write(true); blink_on = true; blink_t = now + 110; }
 7069              		.loc 6 348 20 view .LVU2298
 7070 1b74 0D93     		str	r3, [sp, #52]
 7071 1b76 FEF791BC 		b	.L98
 7072              	.LVL580:
 7073              	.L109:
 348:src/main.cpp  ****         if(n > 0){ leds_write(true); blink_on = true; blink_t = now + 110; }
 7074              		.loc 6 348 20 view .LVU2299
 7075              	.LBE741:
 7076              	.LBE745:
 529:src/main.cpp  ****                             preview_drum(1, MULTI_ZONES[1]);            // delayed snare
 7077              		.loc 6 529 25 is_stmt 1 view .LVU2300
 7078 1b7a 1D9B     		ldr	r3, [sp, #116]
 7079 1b7c D3B1     		cbz	r3, .L111
 529:src/main.cpp  ****                             preview_drum(1, MULTI_ZONES[1]);            // delayed snare
 7080              		.loc 6 529 54 is_stmt 0 discriminator 1 view .LVU2301
 7081 1b7e EB1A     		subs	r3, r5, r3
 529:src/main.cpp  ****                             preview_drum(1, MULTI_ZONES[1]);            // delayed snare
 7082              		.loc 6 529 37 discriminator 1 view .LVU2302
 7083 1b80 002B     		cmp	r3, #0
 7084 1b82 17DB     		blt	.L111
 530:src/main.cpp  ****                             drum2_at = 0;
 7085              		.loc 6 530 29 is_stmt 1 view .LVU2303
 7086              	.LVL581:
 7087              	.LBB746:
 7088              	.LBI746:
 411:src/main.cpp  ****         const Voice& V = VOICES[bankidx];
 7089              		.loc 6 411 25 view .LVU2304
 7090              	.LBB747:
 7091              	.LBB748:
 412:src/main.cpp  ****         float freq   = V.freq_low;
ARM GAS  /tmp/claude-502/cc2bPfvH.s 			page 198


 7092              		.loc 6 412 9 view .LVU2305
 413:src/main.cpp  ****         // Bright enough that the noisy drums (snare/hat) crack through; the
 7093              		.loc 6 413 9 view .LVU2306
 416:src/main.cpp  ****         float drive  = 1.0f + 0.6f * V.drive_max;
 7094              		.loc 6 416 9 view .LVU2307
 416:src/main.cpp  ****         float drive  = 1.0f + 0.6f * V.drive_max;
 7095              		.loc 6 416 9 is_stmt 0 view .LVU2308
 7096              	.LBE748:
 7097              	.LBE747:
 7098              	.LBE746:
 7099              	.LBE837:
 7100              	.LBE850:
 7101              	.LBE891:
 7102              	.LBE908:
 7103              	.LBE1375:
 7104              	.LBE1404:
  13:src/dsp.h     **** }
 7105              		.loc 9 13 5 is_stmt 1 view .LVU2309
 7106              	.LBB1405:
 7107              	.LBB1376:
 7108              	.LBB909:
 7109              	.LBB892:
 7110              	.LBB851:
 7111              	.LBB838:
 7112              	.LBB753:
 7113              	.LBB751:
 7114              	.LBB749:
 417:src/main.cpp  ****         drum_trigger(g_hits[slot], bankidx, freq, 0.85f, cutoff, drive, hw.AudioSampleRate());
 7115              		.loc 6 417 9 view .LVU2310
 418:src/main.cpp  ****         // ONE-SHOT: jump to full amp and immediately ungate so the hit decays on
 7116              		.loc 6 418 9 view .LVU2311
 418:src/main.cpp  ****         // ONE-SHOT: jump to full amp and immediately ungate so the hit decays on
 7117              		.loc 6 418 21 is_stmt 0 view .LVU2312
 7118 1b84 2248     		ldr	r0, .L545+4
 7119              	.LVL582:
 418:src/main.cpp  ****         // ONE-SHOT: jump to full amp and immediately ungate so the hit decays on
 7120              		.loc 6 418 21 view .LVU2313
 7121 1b86 FFF7FEFF 		bl	_ZN5daisy9DaisySeed15AudioSampleRateEv
 7122              	.LVL583:
 7123 1b8a DFED2D1A 		vldr.32	s3, .L545+52
 7124 1b8e B0EE402A 		vmov.f32	s4, s0
 7125 1b92 9FED2C1A 		vldr.32	s2, .L545+56
 7126 1b96 DFED2C0A 		vldr.32	s1, .L545+60
 7127 1b9a 0A21     		movs	r1, #10
 7128 1b9c 9FED2B0A 		vldr.32	s0, .L545+64
 7129 1ba0 2B48     		ldr	r0, .L545+68
 7130 1ba2 FFF7FEFF 		bl	_Z12drum_triggerR7DrumHitifffff
 7131              	.LVL584:
 423:src/main.cpp  ****         g_hits[slot].gate = false;
 7132              		.loc 6 423 9 is_stmt 1 view .LVU2314
 424:src/main.cpp  ****     };
 7133              		.loc 6 424 27 is_stmt 0 view .LVU2315
 7134 1ba6 0023     		movs	r3, #0
 7135 1ba8 2A4A     		ldr	r2, .L545+72
 7136              	.LBE749:
 7137              	.LBE751:
 7138              	.LBE753:
ARM GAS  /tmp/claude-502/cc2bPfvH.s 			page 199


 531:src/main.cpp  ****                         }
 7139              		.loc 6 531 38 view .LVU2316
 7140 1baa 1D93     		str	r3, [sp, #116]
 7141              	.LVL585:
 7142              	.LBB754:
 7143              	.LBB752:
 7144              	.LBB750:
 424:src/main.cpp  ****     };
 7145              		.loc 6 424 27 view .LVU2317
 7146 1bac 82F84D30 		strb	r3, [r2, #77]
 423:src/main.cpp  ****         g_hits[slot].gate = false;
 7147              		.loc 6 423 27 view .LVU2318
 7148 1bb0 936D     		ldr	r3, [r2, #88]	@ float
 7149 1bb2 5367     		str	r3, [r2, #116]	@ float
 424:src/main.cpp  ****     };
 7150              		.loc 6 424 9 is_stmt 1 view .LVU2319
 7151              	.LVL586:
 7152              	.L111:
 424:src/main.cpp  ****     };
 7153              		.loc 6 424 9 is_stmt 0 view .LVU2320
 7154              	.LBE750:
 7155              	.LBE752:
 7156              	.LBE754:
 533:src/main.cpp  ****                         blink_tick(now); System::Delay(CONTROL_DELAY_MS); continue;
 7157              		.loc 6 533 25 is_stmt 1 view .LVU2321
 534:src/main.cpp  ****                     }
 7158              		.loc 6 534 25 view .LVU2322
 7159              	.LBB755:
 7160              	.LBI755:
 352:src/main.cpp  ****         if(blink_left == 0 && !blink_on) return;
 7161              		.loc 6 352 23 view .LVU2323
 7162              	.LBB756:
 353:src/main.cpp  ****         if((int32_t)(now - blink_t) < 0)  return;
 7163              		.loc 6 353 9 view .LVU2324
 7164 1bb4 0D9B     		ldr	r3, [sp, #52]
 7165 1bb6 002B     		cmp	r3, #0
 7166 1bb8 40F02181 		bne	.L112
 353:src/main.cpp  ****         if((int32_t)(now - blink_t) < 0)  return;
 7167              		.loc 6 353 28 is_stmt 0 view .LVU2325
 7168 1bbc 109B     		ldr	r3, [sp, #64]
 7169 1bbe C3B1     		cbz	r3, .L110
 354:src/main.cpp  ****         if(blink_on){ leds_write(false); blink_on = false; blink_left--; blink_t = now + 140; }
 7170              		.loc 6 354 9 is_stmt 1 view .LVU2326
 354:src/main.cpp  ****         if(blink_on){ leds_write(false); blink_on = false; blink_left--; blink_t = now + 140; }
 7171              		.loc 6 354 26 is_stmt 0 view .LVU2327
 7172 1bc0 149B     		ldr	r3, [sp, #80]
 7173 1bc2 EB1A     		subs	r3, r5, r3
 354:src/main.cpp  ****         if(blink_on){ leds_write(false); blink_on = false; blink_left--; blink_t = now + 140; }
 7174              		.loc 6 354 9 view .LVU2328
 7175 1bc4 002B     		cmp	r3, #0
 7176 1bc6 14DB     		blt	.L110
 7177              	.L281:
 355:src/main.cpp  ****         else if(blink_left > 0){ leds_write(true); blink_on = true; blink_t = now + 110; }
 7178              		.loc 6 355 23 is_stmt 1 view .LVU2329
 7179              	.LVL587:
 7180              	.LBB757:
 7181              	.LBI757:
ARM GAS  /tmp/claude-502/cc2bPfvH.s 			page 200


 342:src/main.cpp  ****         hw.dac.WriteValue(DacHandle::Channel::ONE, on ? (uint16_t)LED1_MAX : 0);
 7182              		.loc 6 342 23 view .LVU2330
 7183              	.LBB758:
 343:src/main.cpp  ****         hw.dac.WriteValue(DacHandle::Channel::TWO, on ? (uint16_t)LED2_MAX : 0);
 7184              		.loc 6 343 9 view .LVU2331
 7185              	.LBE758:
 7186              	.LBE757:
 355:src/main.cpp  ****         else if(blink_left > 0){ leds_write(true); blink_on = true; blink_t = now + 110; }
 7187              		.loc 6 355 70 is_stmt 0 view .LVU2332
 7188 1bc8 0D9B     		ldr	r3, [sp, #52]
 7189              	.LBB762:
 7190              	.LBB759:
 343:src/main.cpp  ****         hw.dac.WriteValue(DacHandle::Channel::TWO, on ? (uint16_t)LED2_MAX : 0);
 7191              		.loc 6 343 26 view .LVU2333
 7192 1bca 0022     		movs	r2, #0
 7193 1bcc 1448     		ldr	r0, .L545+20
 7194              	.LBE759:
 7195              	.LBE762:
 355:src/main.cpp  ****         else if(blink_left > 0){ leds_write(true); blink_on = true; blink_t = now + 110; }
 7196              		.loc 6 355 70 view .LVU2334
 7197 1bce 013B     		subs	r3, r3, #1
 7198              	.LBB763:
 7199              	.LBB760:
 343:src/main.cpp  ****         hw.dac.WriteValue(DacHandle::Channel::TWO, on ? (uint16_t)LED2_MAX : 0);
 7200              		.loc 6 343 26 view .LVU2335
 7201 1bd0 1146     		mov	r1, r2
 7202              	.LBE760:
 7203              	.LBE763:
 355:src/main.cpp  ****         else if(blink_left > 0){ leds_write(true); blink_on = true; blink_t = now + 110; }
 7204              		.loc 6 355 70 view .LVU2336
 7205 1bd2 0D93     		str	r3, [sp, #52]
 7206              	.LVL588:
 355:src/main.cpp  ****         else if(blink_left > 0){ leds_write(true); blink_on = true; blink_t = now + 110; }
 7207              		.loc 6 355 88 view .LVU2337
 7208 1bd4 05F18C03 		add	r3, r5, #140
 7209 1bd8 1493     		str	r3, [sp, #80]
 7210              	.LVL589:
 7211              	.LBB764:
 7212              	.LBB761:
 343:src/main.cpp  ****         hw.dac.WriteValue(DacHandle::Channel::TWO, on ? (uint16_t)LED2_MAX : 0);
 7213              		.loc 6 343 26 view .LVU2338
 7214 1bda FFF7FEFF 		bl	_ZN5daisy9DacHandle10WriteValueENS0_7ChannelEt
 7215              	.LVL590:
 344:src/main.cpp  ****         g_led3_duty = on ? LED3_INTENSITY : 0.0f;
 7216              		.loc 6 344 9 is_stmt 1 view .LVU2339
 344:src/main.cpp  ****         g_led3_duty = on ? LED3_INTENSITY : 0.0f;
 7217              		.loc 6 344 26 is_stmt 0 view .LVU2340
 7218 1bde 0022     		movs	r2, #0
 7219 1be0 0121     		movs	r1, #1
 7220 1be2 0F48     		ldr	r0, .L545+20
 7221 1be4 FFF7FEFF 		bl	_ZN5daisy9DacHandle10WriteValueENS0_7ChannelEt
 7222              	.LVL591:
 345:src/main.cpp  ****     };
 7223              		.loc 6 345 9 is_stmt 1 view .LVU2341
 345:src/main.cpp  ****     };
 7224              		.loc 6 345 21 is_stmt 0 view .LVU2342
 7225 1be8 0023     		movs	r3, #0
ARM GAS  /tmp/claude-502/cc2bPfvH.s 			page 201


 7226 1bea 199A     		ldr	r2, [sp, #100]
 7227 1bec 1360     		str	r3, [r2]	@ float
 7228              	.LVL592:
 345:src/main.cpp  ****     };
 7229              		.loc 6 345 21 view .LVU2343
 7230              	.LBE761:
 7231              	.LBE764:
 355:src/main.cpp  ****         else if(blink_left > 0){ leds_write(true); blink_on = true; blink_t = now + 110; }
 7232              		.loc 6 355 42 is_stmt 1 view .LVU2344
 355:src/main.cpp  ****         else if(blink_left > 0){ leds_write(true); blink_on = true; blink_t = now + 110; }
 7233              		.loc 6 355 60 view .LVU2345
 355:src/main.cpp  ****         else if(blink_left > 0){ leds_write(true); blink_on = true; blink_t = now + 110; }
 7234              		.loc 6 355 74 view .LVU2346
 355:src/main.cpp  ****         else if(blink_left > 0){ leds_write(true); blink_on = true; blink_t = now + 110; }
 7235              		.loc 6 355 51 is_stmt 0 view .LVU2347
 7236 1bee 0023     		movs	r3, #0
 7237 1bf0 1093     		str	r3, [sp, #64]
 7238              	.LVL593:
 7239              	.L110:
 355:src/main.cpp  ****         else if(blink_left > 0){ leds_write(true); blink_on = true; blink_t = now + 110; }
 7240              		.loc 6 355 51 view .LVU2348
 7241              	.LBE756:
 7242              	.LBE755:
 534:src/main.cpp  ****                     }
 7243              		.loc 6 534 42 is_stmt 1 view .LVU2349
 534:src/main.cpp  ****                     }
 7244              		.loc 6 534 55 is_stmt 0 view .LVU2350
 7245 1bf2 0320     		movs	r0, #3
 7246              	.LBE838:
 7247              	.LBE851:
 493:src/main.cpp  ****                 g_master_vol = 0.85f;                        // monitor level (the FSR mutes)
 7248              		.loc 6 493 49 view .LVU2351
 7249 1bf4 0E95     		str	r5, [sp, #56]
 7250              	.LBB852:
 7251              	.LBB839:
 534:src/main.cpp  ****                     }
 7252              		.loc 6 534 75 view .LVU2352
 7253 1bf6 0C97     		str	r7, [sp, #48]
 534:src/main.cpp  ****                     }
 7254              		.loc 6 534 55 view .LVU2353
 7255 1bf8 FFF7FEFF 		bl	_ZN5daisy6System5DelayEm
 7256              	.LVL594:
 534:src/main.cpp  ****                     }
 7257              		.loc 6 534 75 is_stmt 1 view .LVU2354
 7258              	.LBE839:
 7259              	.LBE852:
 493:src/main.cpp  ****                 g_master_vol = 0.85f;                        // monitor level (the FSR mutes)
 7260              		.loc 6 493 28 is_stmt 0 view .LVU2355
 7261 1bfc 1795     		str	r5, [sp, #92]
 7262              	.LBB853:
 7263              	.LBB840:
 534:src/main.cpp  ****                     }
 7264              		.loc 6 534 75 view .LVU2356
 7265 1bfe FEF7A9BB 		b	.L64
 7266              	.LVL595:
 7267              	.L290:
 534:src/main.cpp  ****                     }
ARM GAS  /tmp/claude-502/cc2bPfvH.s 			page 202


 7268              		.loc 6 534 75 view .LVU2357
 7269              	.LBE840:
 7270              	.LBE853:
 7271              	.LBE892:
 7272 1c02 0C97     		str	r7, [sp, #48]
 7273              	.LVL596:
 534:src/main.cpp  ****                     }
 7274              		.loc 6 534 75 view .LVU2358
 7275 1c04 0E95     		str	r5, [sp, #56]
 7276 1c06 FFF7F1B9 		b	.L78
 7277              	.L546:
 7278 1c0a 00BF     		.align	2
 7279              	.L545:
 7280 1c0c 00000000 		.word	.LANCHOR1
 7281 1c10 00000000 		.word	.LANCHOR0
 7282 1c14 00000000 		.word	.LANCHOR5
 7283 1c18 84070000 		.word	.LANCHOR5+1924
 7284 1c1c 6C010000 		.word	.LC10
 7285 1c20 20000000 		.word	.LANCHOR0+32
 7286 1c24 CDCC4C3D 		.word	1028443341
 7287 1c28 0000C842 		.word	1120403456
 7288 1c2c 00000000 		.word	0
 7289 1c30 CDCCCCCC 		.word	-858993459
 7290 1c34 67666666 		.word	1717986919
 7291 1c38 4FECC44E 		.word	1321528399
 7292 1c3c 84010000 		.word	.LC11
 7293 1c40 3433F33F 		.word	1072902964
 7294 1c44 0020FD45 		.word	1174216704
 7295 1c48 9A99593F 		.word	1062836634
 7296 1c4c 00001643 		.word	1125515264
 7297 1c50 4C000000 		.word	g_hits+76
 7298 1c54 00000000 		.word	g_hits
 7299              	.LVL597:
 7300              	.L508:
 534:src/main.cpp  ****                     }
 7301              		.loc 6 534 75 view .LVU2359
 7302              	.LBE909:
 7303              	.LBE1376:
 845:src/main.cpp  ****                 cycle_pos(g_voice_idx), cycle_total(), VOICE.name);
 7304              		.loc 6 845 13 is_stmt 1 view .LVU2360
 7305 1c58 0C2B     		cmp	r3, #12
 7306              	.LBB1377:
 7307              	.LBB1216:
 824:src/voice.h   ****   for (int i = 0; i <= idx && i < NUM_VOICES; i++)
 7308              		.loc 8 824 7 is_stmt 0 view .LVU2361
 7309 1c5a 4FF00001 		mov	r1, #0
 7310 1c5e A8BF     		it	ge
 7311 1c60 0C26     		movge	r6, #12
 7312              	.LBB1215:
 825:src/voice.h   ****     if (!VOICES[i].no_cycle)
 7313              		.loc 8 825 28 view .LVU2362
 7314 1c62 002B     		cmp	r3, #0
 7315 1c64 09DB     		blt	.L234
 7316 1c66 C64A     		ldr	r2, .L547
 825:src/voice.h   ****     if (!VOICES[i].no_cycle)
 7317              		.loc 8 825 12 view .LVU2363
 7318 1c68 0B46     		mov	r3, r1
ARM GAS  /tmp/claude-502/cc2bPfvH.s 			page 203


 7319              	.LVL598:
 7320              	.L236:
 826:src/voice.h   ****       p++;
 7321              		.loc 8 826 5 is_stmt 1 view .LVU2364
 827:src/voice.h   ****   return p;
 7322              		.loc 8 827 7 view .LVU2365
 826:src/voice.h   ****       p++;
 7323              		.loc 8 826 5 is_stmt 0 view .LVU2366
 7324 1c6a 92F87C00 		ldrb	r0, [r2, #124]	@ zero_extendqisi2
 825:src/voice.h   ****     if (!VOICES[i].no_cycle)
 7325              		.loc 8 825 3 view .LVU2367
 7326 1c6e 0133     		adds	r3, r3, #1
 7327              	.LVL599:
 825:src/voice.h   ****     if (!VOICES[i].no_cycle)
 7328              		.loc 8 825 28 view .LVU2368
 7329 1c70 9432     		adds	r2, r2, #148
 826:src/voice.h   ****       p++;
 7330              		.loc 8 826 5 view .LVU2369
 7331 1c72 00B9     		cbnz	r0, .L235
 827:src/voice.h   ****   return p;
 7332              		.loc 8 827 8 view .LVU2370
 7333 1c74 0131     		adds	r1, r1, #1
 7334              	.LVL600:
 7335              	.L235:
 825:src/voice.h   ****     if (!VOICES[i].no_cycle)
 7336              		.loc 8 825 3 is_stmt 1 view .LVU2371
 825:src/voice.h   ****     if (!VOICES[i].no_cycle)
 7337              		.loc 8 825 28 view .LVU2372
 7338 1c76 B342     		cmp	r3, r6
 7339 1c78 F7DD     		ble	.L236
 7340              	.LVL601:
 7341              	.L234:
 825:src/voice.h   ****     if (!VOICES[i].no_cycle)
 7342              		.loc 8 825 28 is_stmt 0 view .LVU2373
 7343              	.LBE1215:
 824:src/voice.h   ****   for (int i = 0; i <= idx && i < NUM_VOICES; i++)
 7344              		.loc 8 824 7 view .LVU2374
 7345 1c7a C14B     		ldr	r3, .L547
 7346              	.LBE1216:
 7347              	.LBE1377:
 7348              	.LBB1378:
 7349              	.LBB1379:
 817:src/voice.h   ****   for (int i = 0; i < NUM_VOICES; i++)
 7350              		.loc 8 817 7 view .LVU2375
 7351 1c7c 0022     		movs	r2, #0
 7352              	.L238:
 7353              	.LVL602:
 7354              	.LBB1380:
 819:src/voice.h   ****       n++;
 7355              		.loc 8 819 5 is_stmt 1 view .LVU2376
 820:src/voice.h   ****   return n;
 7356              		.loc 8 820 7 view .LVU2377
 819:src/voice.h   ****       n++;
 7357              		.loc 8 819 5 is_stmt 0 view .LVU2378
 7358 1c7e 93F87C00 		ldrb	r0, [r3, #124]	@ zero_extendqisi2
 818:src/voice.h   ****     if (!VOICES[i].no_cycle)
 7359              		.loc 8 818 21 view .LVU2379
ARM GAS  /tmp/claude-502/cc2bPfvH.s 			page 204


 7360 1c82 9433     		adds	r3, r3, #148
 819:src/voice.h   ****       n++;
 7361              		.loc 8 819 5 view .LVU2380
 7362 1c84 00B9     		cbnz	r0, .L237
 820:src/voice.h   ****   return n;
 7363              		.loc 8 820 8 view .LVU2381
 7364 1c86 0132     		adds	r2, r2, #1
 7365              	.LVL603:
 7366              	.L237:
 818:src/voice.h   ****     if (!VOICES[i].no_cycle)
 7367              		.loc 8 818 3 is_stmt 1 view .LVU2382
 818:src/voice.h   ****     if (!VOICES[i].no_cycle)
 7368              		.loc 8 818 21 view .LVU2383
 7369 1c88 BE48     		ldr	r0, .L547+4
 7370 1c8a 9842     		cmp	r0, r3
 7371 1c8c F7D1     		bne	.L238
 818:src/voice.h   ****     if (!VOICES[i].no_cycle)
 7372              		.loc 8 818 21 is_stmt 0 view .LVU2384
 7373              	.LBE1380:
 821:src/voice.h   **** }
 7374              		.loc 8 821 3 is_stmt 1 view .LVU2385
 7375              	.LVL604:
 821:src/voice.h   **** }
 7376              		.loc 8 821 3 is_stmt 0 view .LVU2386
 7377              	.LBE1379:
 7378              	.LBE1378:
 7379              	.LBB1381:
 7380              	.LBI1381:
 126:/Users/reza.kalfane/Workspaces/Daisy/DaisyExamples/libDaisy/src/daisy_seed.h ****     {
 7381              		.loc 1 126 17 is_stmt 1 view .LVU2387
 7382              	.LBE1381:
 846:src/main.cpp  ****         else
 7383              		.loc 6 846 62 is_stmt 0 view .LVU2388
 7384 1c8e 9423     		movs	r3, #148
 7385              	.LBB1384:
 7386              	.LBB1382:
 128:/Users/reza.kalfane/Workspaces/Daisy/DaisyExamples/libDaisy/src/daisy_seed.h ****     }
 7387              		.loc 1 128 23 view .LVU2389
 7388 1c90 BD48     		ldr	r0, .L547+8
 7389              	.LBE1382:
 7390              	.LBE1384:
 846:src/main.cpp  ****         else
 7391              		.loc 6 846 62 view .LVU2390
 7392 1c92 03FB05F5 		mul	r5, r3, r5
 7393              	.LVL605:
 7394              	.LBB1385:
 7395              	.LBB1383:
 128:/Users/reza.kalfane/Workspaces/Daisy/DaisyExamples/libDaisy/src/daisy_seed.h ****     }
 7396              		.loc 1 128 23 view .LVU2391
 7397 1c96 059B     		ldr	r3, [sp, #20]
 7398 1c98 5B59     		ldr	r3, [r3, r5]
 7399 1c9a FFF7FEFF 		bl	_ZN5daisy6LoggerILNS_17LoggerDestinationE1EE9PrintLineEPKcz
 7400              	.LVL606:
 129:/Users/reza.kalfane/Workspaces/Daisy/DaisyExamples/libDaisy/src/daisy_seed.h **** 
 7401              		.loc 1 129 5 view .LVU2392
 7402 1c9e FEF7FABE 		b	.L239
 7403              	.LVL607:
ARM GAS  /tmp/claude-502/cc2bPfvH.s 			page 205


 7404              	.L515:
 129:/Users/reza.kalfane/Workspaces/Daisy/DaisyExamples/libDaisy/src/daisy_seed.h **** 
 7405              		.loc 1 129 5 view .LVU2393
 7406              	.LBE1383:
 7407              	.LBE1385:
 7408              	.LBB1386:
 7409              	.LBB1133:
 7410              	.LBB1124:
 7411              	.LBB1115:
 781:src/main.cpp  ****                 s_led2 = s_led2 * LED_SMOOTH + led2_target * (1.0f - LED_SMOOTH);
 7412              		.loc 6 781 60 view .LVU2394
 7413 1ca2 9FEDBA6A 		vldr.32	s12, .L547+12
 780:src/main.cpp  ****                 s_led1 = s_led1 * LED_SMOOTH + led1_target * (1.0f - LED_SMOOTH);
 7414              		.loc 6 780 39 view .LVU2395
 7415 1ca6 DFEDBA5A 		vldr.32	s11, .L547+16
 781:src/main.cpp  ****                 s_led2 = s_led2 * LED_SMOOTH + led2_target * (1.0f - LED_SMOOTH);
 7416              		.loc 6 781 60 view .LVU2396
 7417 1caa 2AEE867A 		vmul.f32	s14, s21, s12
 782:src/main.cpp  ****                 s_led3 = s_led3 * smooth3   + led3_target * (1.0f - smooth3);
 7418              		.loc 6 782 60 view .LVU2397
 7419 1cae 6BEE066A 		vmul.f32	s13, s22, s12
 783:src/main.cpp  ****             }
 7420              		.loc 6 783 59 view .LVU2398
 7421 1cb2 67EE867A 		vmul.f32	s15, s15, s12
 7422              	.LVL608:
 783:src/main.cpp  ****             }
 7423              		.loc 6 783 59 view .LVU2399
 7424 1cb6 FFF7E0BB 		b	.L186
 7425              	.LVL609:
 7426              	.L524:
 783:src/main.cpp  ****             }
 7427              		.loc 6 783 59 view .LVU2400
 7428              	.LBE1115:
 7429              	.LBE1124:
 7430              	.LBB1125:
 7431              	.LBB1106:
 7432              	.LBB1099:
 7433              	.LBB1094:
  13:src/dsp.h     **** }
 7434              		.loc 9 13 24 view .LVU2401
 7435 1cba B7EE00BA 		vmov.f32	s22, #1.0e+0
 7436 1cbe F4EECB6A 		vcmpe.f32	s13, s22
 7437 1cc2 F1EE10FA 		vmrs	APSR_nzcv, FPSCR
 7438 1cc6 00F39280 		bgt	.L351
 7439 1cca FFEE00BA 		vmov.f32	s23, #-1.0e+0
 7440 1cce 9FEDB17A 		vldr.32	s14, .L547+20
 7441              	.LVL610:
 7442              	.L280:
  13:src/dsp.h     **** }
 7443              		.loc 9 13 24 view .LVU2402
 7444              	.LBE1094:
 7445              	.LBE1099:
 765:src/main.cpp  ****                 float l1_raw   = 1.0f - 2.0f * p01;                 if(l1_raw < 0) l1_raw = 0;
 7446              		.loc 6 765 23 view .LVU2403
 7447 1cd2 B5EE006A 		vmov.f32	s12, #2.5e-1
 7448 1cd6 F6EE087A 		vmov.f32	s15, #7.5e-1
 7449 1cda E6EE867A 		vfma.f32	s15, s13, s12
ARM GAS  /tmp/claude-502/cc2bPfvH.s 			page 206


 7450 1cde B0EE67CA 		vmov.f32	s24, s15
 7451 1ce2 FFF70BBA 		b	.L191
 7452              	.LVL611:
 7453              	.L188:
 764:src/main.cpp  ****                 float prs_mult = 0.75f + 0.25f * pr01;
 7454              		.loc 6 764 17 is_stmt 1 view .LVU2404
 764:src/main.cpp  ****                 float prs_mult = 0.75f + 0.25f * pr01;
 7455              		.loc 6 764 41 is_stmt 0 view .LVU2405
 7456 1ce6 9AED027A 		vldr.32	s14, [r10, #8]	@ int
 764:src/main.cpp  ****                 float prs_mult = 0.75f + 0.25f * pr01;
 7457              		.loc 6 764 40 view .LVU2406
 7458 1cea 9FEDAB6A 		vldr.32	s12, .L547+24
 764:src/main.cpp  ****                 float prs_mult = 0.75f + 0.25f * pr01;
 7459              		.loc 6 764 41 view .LVU2407
 7460 1cee B8EEC77A 		vcvt.f32.s32	s14, s14
 764:src/main.cpp  ****                 float prs_mult = 0.75f + 0.25f * pr01;
 7461              		.loc 6 764 40 view .LVU2408
 7462 1cf2 C7EE066A 		vdiv.f32	s13, s14, s12
 7463              	.LVL612:
 7464              	.LBB1100:
  12:src/dsp.h     ****     return v<lo?lo:v>hi?hi:v;
 7465              		.loc 9 12 21 is_stmt 1 view .LVU2409
 7466              	.LBB1095:
  13:src/dsp.h     **** }
 7467              		.loc 9 13 5 view .LVU2410
  13:src/dsp.h     **** }
 7468              		.loc 9 13 16 is_stmt 0 view .LVU2411
 7469 1cf6 F5EEC06A 		vcmpe.f32	s13, #0
 7470 1cfa F1EE10FA 		vmrs	APSR_nzcv, FPSCR
 7471 1cfe 5BD5     		bpl	.L525
 7472              	.LBE1095:
 7473              	.LBE1100:
 767:src/main.cpp  ****                 float l2_raw   = 1.0f - 2.0f * fabsf(p01 - 0.5f);   if(l2_raw < 0) l2_raw = 0;
 7474              		.loc 6 767 23 view .LVU2412
 7475 1d00 F0EE67BA 		vmov.f32	s23, s15
 766:src/main.cpp  ****                 float l3_raw   = 2.0f * p01 - 1.0f;                 if(l3_raw < 0) l3_raw = 0;
 7476              		.loc 6 766 91 view .LVU2413
 7477 1d04 9FEDA3BA 		vldr.32	s22, .L547+20
 7478 1d08 B2E6     		b	.L268
 7479              	.LVL613:
 7480              	.L95:
 766:src/main.cpp  ****                 float l3_raw   = 2.0f * p01 - 1.0f;                 if(l3_raw < 0) l3_raw = 0;
 7481              		.loc 6 766 91 view .LVU2414
 7482              	.LBE1106:
 7483              	.LBE1125:
 7484              	.LBE1133:
 7485              	.LBE1386:
 7486              	.LBB1387:
 7487              	.LBB910:
 7488              	.LBB893:
 7489              	.LBB854:
 7490              	.LBB841:
 7491              	.LBB832:
 7492              	.LBB819:
 7493              	.LBI819:
 347:src/main.cpp  ****         blink_left = n;
 7494              		.loc 6 347 24 is_stmt 1 view .LVU2415
ARM GAS  /tmp/claude-502/cc2bPfvH.s 			page 207


 7495              	.LBB820:
 350:src/main.cpp  ****     };
 7496              		.loc 6 350 20 view .LVU2416
 7497              	.LBB821:
 7498              	.LBI821:
 342:src/main.cpp  ****         hw.dac.WriteValue(DacHandle::Channel::ONE, on ? (uint16_t)LED1_MAX : 0);
 7499              		.loc 6 342 23 view .LVU2417
 7500              	.LBB822:
 343:src/main.cpp  ****         hw.dac.WriteValue(DacHandle::Channel::TWO, on ? (uint16_t)LED2_MAX : 0);
 7501              		.loc 6 343 9 view .LVU2418
 343:src/main.cpp  ****         hw.dac.WriteValue(DacHandle::Channel::TWO, on ? (uint16_t)LED2_MAX : 0);
 7502              		.loc 6 343 26 is_stmt 0 view .LVU2419
 7503 1d0a 0022     		movs	r2, #0
 345:src/main.cpp  ****     };
 7504              		.loc 6 345 21 view .LVU2420
 7505 1d0c 0C97     		str	r7, [sp, #48]
 7506              	.LVL614:
 343:src/main.cpp  ****         hw.dac.WriteValue(DacHandle::Channel::TWO, on ? (uint16_t)LED2_MAX : 0);
 7507              		.loc 6 343 26 view .LVU2421
 7508 1d0e A348     		ldr	r0, .L547+28
 7509              	.LBE822:
 7510              	.LBE821:
 350:src/main.cpp  ****     };
 7511              		.loc 6 350 48 view .LVU2422
 7512 1d10 1746     		mov	r7, r2
 7513              	.LBB825:
 7514              	.LBB823:
 343:src/main.cpp  ****         hw.dac.WriteValue(DacHandle::Channel::TWO, on ? (uint16_t)LED2_MAX : 0);
 7515              		.loc 6 343 26 view .LVU2423
 7516 1d12 1146     		mov	r1, r2
 7517              	.LBE823:
 7518              	.LBE825:
 350:src/main.cpp  ****     };
 7519              		.loc 6 350 48 view .LVU2424
 7520 1d14 1092     		str	r2, [sp, #64]
 7521              	.LVL615:
 7522              	.LBB826:
 7523              	.LBB824:
 343:src/main.cpp  ****         hw.dac.WriteValue(DacHandle::Channel::TWO, on ? (uint16_t)LED2_MAX : 0);
 7524              		.loc 6 343 26 view .LVU2425
 7525 1d16 FFF7FEFF 		bl	_ZN5daisy9DacHandle10WriteValueENS0_7ChannelEt
 7526              	.LVL616:
 344:src/main.cpp  ****         g_led3_duty = on ? LED3_INTENSITY : 0.0f;
 7527              		.loc 6 344 9 is_stmt 1 view .LVU2426
 344:src/main.cpp  ****         g_led3_duty = on ? LED3_INTENSITY : 0.0f;
 7528              		.loc 6 344 26 is_stmt 0 view .LVU2427
 7529 1d1a 3A46     		mov	r2, r7
 7530 1d1c 0121     		movs	r1, #1
 7531 1d1e 9F48     		ldr	r0, .L547+28
 7532 1d20 FFF7FEFF 		bl	_ZN5daisy9DacHandle10WriteValueENS0_7ChannelEt
 7533              	.LVL617:
 345:src/main.cpp  ****     };
 7534              		.loc 6 345 9 is_stmt 1 view .LVU2428
 345:src/main.cpp  ****     };
 7535              		.loc 6 345 21 is_stmt 0 view .LVU2429
 7536 1d24 0023     		movs	r3, #0
 7537 1d26 199A     		ldr	r2, [sp, #100]
ARM GAS  /tmp/claude-502/cc2bPfvH.s 			page 208


 7538 1d28 0D97     		str	r7, [sp, #52]
 7539 1d2a 1360     		str	r3, [r2]	@ float
 7540              	.LVL618:
 345:src/main.cpp  ****     };
 7541              		.loc 6 345 21 view .LVU2430
 7542              	.LBE824:
 7543              	.LBE826:
 350:src/main.cpp  ****     };
 7544              		.loc 6 350 39 is_stmt 1 view .LVU2431
 350:src/main.cpp  ****     };
 7545              		.loc 6 350 39 is_stmt 0 view .LVU2432
 7546              	.LBE820:
 7547              	.LBE819:
 7548              	.LBE832:
 7549              	.LBE841:
 503:src/main.cpp  ****                     sel_mode = 0; full_since = 0;
 7550              		.loc 6 503 30 view .LVU2433
 7551 1d2c 1D97     		str	r7, [sp, #116]
 504:src/main.cpp  ****                     blink_start(cycle_pos(g_voice_idx), now); // confirm saved voice (non-blocking)
 7552              		.loc 6 504 46 view .LVU2434
 7553 1d2e 1A97     		str	r7, [sp, #104]
 504:src/main.cpp  ****                     blink_start(cycle_pos(g_voice_idx), now); // confirm saved voice (non-blocking)
 7554              		.loc 6 504 30 view .LVU2435
 7555 1d30 0F97     		str	r7, [sp, #60]
 7556 1d32 FEF7B3BB 		b	.L98
 7557              	.LVL619:
 7558              	.L108:
 7559              	.LBB842:
 524:src/main.cpp  ****                             g_finger_on = false; g_amp_target = 0.0f;   // hush mono
 7560              		.loc 6 524 25 is_stmt 1 view .LVU2436
 525:src/main.cpp  ****                             preview_drum(0, MULTI_ZONES[0]);
 7561              		.loc 6 525 29 view .LVU2437
 525:src/main.cpp  ****                             preview_drum(0, MULTI_ZONES[0]);
 7562              		.loc 6 525 41 is_stmt 0 view .LVU2438
 7563 1d36 0024     		movs	r4, #0
 7564 1d38 994B     		ldr	r3, .L547+32
 525:src/main.cpp  ****                             preview_drum(0, MULTI_ZONES[0]);
 7565              		.loc 6 525 63 view .LVU2439
 7566 1d3a 9A4A     		ldr	r2, .L547+36
 7567              	.LVL620:
 525:src/main.cpp  ****                             preview_drum(0, MULTI_ZONES[0]);
 7568              		.loc 6 525 41 view .LVU2440
 7569 1d3c 1C70     		strb	r4, [r3]
 525:src/main.cpp  ****                             preview_drum(0, MULTI_ZONES[0]);
 7570              		.loc 6 525 50 is_stmt 1 view .LVU2441
 525:src/main.cpp  ****                             preview_drum(0, MULTI_ZONES[0]);
 7571              		.loc 6 525 63 is_stmt 0 view .LVU2442
 7572 1d3e 0023     		movs	r3, #0
 7573              	.LBB775:
 7574              	.LBB776:
 418:src/main.cpp  ****         // ONE-SHOT: jump to full amp and immediately ungate so the hit decays on
 7575              		.loc 6 418 21 view .LVU2443
 7576 1d40 9948     		ldr	r0, .L547+40
 7577              	.LBE776:
 7578              	.LBE775:
 525:src/main.cpp  ****                             preview_drum(0, MULTI_ZONES[0]);
 7579              		.loc 6 525 63 view .LVU2444
ARM GAS  /tmp/claude-502/cc2bPfvH.s 			page 209


 7580 1d42 1360     		str	r3, [r2]	@ float
 526:src/main.cpp  ****                             drum2_at = now + 150;
 7581              		.loc 6 526 29 is_stmt 1 view .LVU2445
 7582              	.LVL621:
 7583              	.LBB779:
 7584              	.LBI775:
 411:src/main.cpp  ****         const Voice& V = VOICES[bankidx];
 7585              		.loc 6 411 25 view .LVU2446
 7586              	.LBB777:
 412:src/main.cpp  ****         float freq   = V.freq_low;
 7587              		.loc 6 412 9 view .LVU2447
 413:src/main.cpp  ****         // Bright enough that the noisy drums (snare/hat) crack through; the
 7588              		.loc 6 413 9 view .LVU2448
 416:src/main.cpp  ****         float drive  = 1.0f + 0.6f * V.drive_max;
 7589              		.loc 6 416 9 view .LVU2449
 416:src/main.cpp  ****         float drive  = 1.0f + 0.6f * V.drive_max;
 7590              		.loc 6 416 9 is_stmt 0 view .LVU2450
 7591              	.LBE777:
 7592              	.LBE779:
 7593              	.LBE842:
 7594              	.LBE854:
 7595              	.LBE893:
 7596              	.LBE910:
 7597              	.LBE1387:
 7598              	.LBE1405:
  13:src/dsp.h     **** }
 7599              		.loc 9 13 5 is_stmt 1 view .LVU2451
 7600              	.LBB1406:
 7601              	.LBB1388:
 7602              	.LBB911:
 7603              	.LBB894:
 7604              	.LBB855:
 7605              	.LBB843:
 7606              	.LBB780:
 7607              	.LBB778:
 417:src/main.cpp  ****         drum_trigger(g_hits[slot], bankidx, freq, 0.85f, cutoff, drive, hw.AudioSampleRate());
 7608              		.loc 6 417 9 view .LVU2452
 418:src/main.cpp  ****         // ONE-SHOT: jump to full amp and immediately ungate so the hit decays on
 7609              		.loc 6 418 9 view .LVU2453
 418:src/main.cpp  ****         // ONE-SHOT: jump to full amp and immediately ungate so the hit decays on
 7610              		.loc 6 418 21 is_stmt 0 view .LVU2454
 7611 1d44 FFF7FEFF 		bl	_ZN5daisy9DaisySeed15AudioSampleRateEv
 7612              	.LVL622:
 7613 1d48 DFED981A 		vldr.32	s3, .L547+44
 7614 1d4c B0EE402A 		vmov.f32	s4, s0
 7615 1d50 9FED971A 		vldr.32	s2, .L547+48
 7616 1d54 B3EE0E0A 		vmov.f32	s0, #3.0e+1
 7617 1d58 DFED9A0A 		vldr.32	s1, .L547+68
 7618 1d5c 0921     		movs	r1, #9
 7619 1d5e 9548     		ldr	r0, .L547+52
 7620 1d60 FFF7FEFF 		bl	_Z12drum_triggerR7DrumHitifffff
 7621              	.LVL623:
 423:src/main.cpp  ****         g_hits[slot].gate = false;
 7622              		.loc 6 423 9 is_stmt 1 view .LVU2455
 424:src/main.cpp  ****     };
 7623              		.loc 6 424 27 is_stmt 0 view .LVU2456
 7624 1d64 934A     		ldr	r2, .L547+52
ARM GAS  /tmp/claude-502/cc2bPfvH.s 			page 210


 423:src/main.cpp  ****         g_hits[slot].gate = false;
 7625              		.loc 6 423 27 view .LVU2457
 7626 1d66 D368     		ldr	r3, [r2, #12]	@ float
 424:src/main.cpp  ****     };
 7627              		.loc 6 424 27 view .LVU2458
 7628 1d68 5470     		strb	r4, [r2, #1]
 423:src/main.cpp  ****         g_hits[slot].gate = false;
 7629              		.loc 6 423 27 view .LVU2459
 7630 1d6a 9362     		str	r3, [r2, #40]	@ float
 424:src/main.cpp  ****     };
 7631              		.loc 6 424 9 is_stmt 1 view .LVU2460
 7632              	.LVL624:
 424:src/main.cpp  ****     };
 7633              		.loc 6 424 9 is_stmt 0 view .LVU2461
 7634              	.LBE778:
 7635              	.LBE780:
 527:src/main.cpp  ****                         }
 7636              		.loc 6 527 29 is_stmt 1 view .LVU2462
 527:src/main.cpp  ****                         }
 7637              		.loc 6 527 38 is_stmt 0 view .LVU2463
 7638 1d6c 05F19603 		add	r3, r5, #150
 511:src/main.cpp  ****                         g_voice_idx = cycle_next(g_voice_idx);
 7639              		.loc 6 511 37 view .LVU2464
 7640 1d70 CDE91C53 		strd	r5, r3, [sp, #112]
 7641              	.LVL625:
 7642              	.LBB781:
 7643              	.LBB773:
 353:src/main.cpp  ****         if((int32_t)(now - blink_t) < 0)  return;
 7644              		.loc 6 353 12 view .LVU2465
 7645 1d74 0123     		movs	r3, #1
 7646 1d76 0D93     		str	r3, [sp, #52]
 7647 1d78 3BE7     		b	.L110
 7648              	.LVL626:
 7649              	.L84:
 353:src/main.cpp  ****         if((int32_t)(now - blink_t) < 0)  return;
 7650              		.loc 6 353 12 view .LVU2466
 7651              	.LBE773:
 7652              	.LBE781:
 7653              	.LBE843:
 7654              	.LBE855:
 7655              	.LBE894:
 7656              	.LBB895:
 7657              	.LBB886:
 7658              	.LBB879:
 7659              	.LBI879:
 347:src/main.cpp  ****         blink_left = n;
 7660              		.loc 6 347 24 is_stmt 1 view .LVU2467
 7661              	.LBB880:
 350:src/main.cpp  ****     };
 7662              		.loc 6 350 20 view .LVU2468
 7663              	.LBB881:
 7664              	.LBI881:
 342:src/main.cpp  ****         hw.dac.WriteValue(DacHandle::Channel::ONE, on ? (uint16_t)LED1_MAX : 0);
 7665              		.loc 6 342 23 view .LVU2469
 7666              	.LBB882:
 343:src/main.cpp  ****         hw.dac.WriteValue(DacHandle::Channel::TWO, on ? (uint16_t)LED2_MAX : 0);
 7667              		.loc 6 343 9 view .LVU2470
ARM GAS  /tmp/claude-502/cc2bPfvH.s 			page 211


 343:src/main.cpp  ****         hw.dac.WriteValue(DacHandle::Channel::TWO, on ? (uint16_t)LED2_MAX : 0);
 7668              		.loc 6 343 26 is_stmt 0 view .LVU2471
 7669 1d7a 0022     		movs	r2, #0
 345:src/main.cpp  ****     };
 7670              		.loc 6 345 21 view .LVU2472
 7671 1d7c 0C97     		str	r7, [sp, #48]
 7672              	.LVL627:
 343:src/main.cpp  ****         hw.dac.WriteValue(DacHandle::Channel::TWO, on ? (uint16_t)LED2_MAX : 0);
 7673              		.loc 6 343 26 view .LVU2473
 7674 1d7e 8748     		ldr	r0, .L547+28
 345:src/main.cpp  ****     };
 7675              		.loc 6 345 21 view .LVU2474
 7676 1d80 1746     		mov	r7, r2
 7677              	.LVL628:
 343:src/main.cpp  ****         hw.dac.WriteValue(DacHandle::Channel::TWO, on ? (uint16_t)LED2_MAX : 0);
 7678              		.loc 6 343 26 view .LVU2475
 7679 1d82 1146     		mov	r1, r2
 345:src/main.cpp  ****     };
 7680              		.loc 6 345 21 view .LVU2476
 7681 1d84 0D92     		str	r2, [sp, #52]
 343:src/main.cpp  ****         hw.dac.WriteValue(DacHandle::Channel::TWO, on ? (uint16_t)LED2_MAX : 0);
 7682              		.loc 6 343 26 view .LVU2477
 7683 1d86 FFF7FEFF 		bl	_ZN5daisy9DacHandle10WriteValueENS0_7ChannelEt
 7684              	.LVL629:
 344:src/main.cpp  ****         g_led3_duty = on ? LED3_INTENSITY : 0.0f;
 7685              		.loc 6 344 9 is_stmt 1 view .LVU2478
 344:src/main.cpp  ****         g_led3_duty = on ? LED3_INTENSITY : 0.0f;
 7686              		.loc 6 344 26 is_stmt 0 view .LVU2479
 7687 1d8a 3A46     		mov	r2, r7
 7688 1d8c 0121     		movs	r1, #1
 7689 1d8e 8348     		ldr	r0, .L547+28
 7690 1d90 FFF7FEFF 		bl	_ZN5daisy9DacHandle10WriteValueENS0_7ChannelEt
 7691              	.LVL630:
 345:src/main.cpp  ****     };
 7692              		.loc 6 345 9 is_stmt 1 view .LVU2480
 345:src/main.cpp  ****     };
 7693              		.loc 6 345 21 is_stmt 0 view .LVU2481
 7694 1d94 0023     		movs	r3, #0
 7695 1d96 199A     		ldr	r2, [sp, #100]
 7696 1d98 0E95     		str	r5, [sp, #56]
 7697 1d9a 1360     		str	r3, [r2]	@ float
 7698              	.LVL631:
 345:src/main.cpp  ****     };
 7699              		.loc 6 345 21 view .LVU2482
 7700              	.LBE882:
 7701              	.LBE881:
 350:src/main.cpp  ****     };
 7702              		.loc 6 350 39 is_stmt 1 view .LVU2483
 350:src/main.cpp  ****     };
 7703              		.loc 6 350 39 is_stmt 0 view .LVU2484
 7704              	.LBE880:
 7705              	.LBE879:
 7706              	.LBE886:
 7707              	.LBE895:
 483:src/main.cpp  ****                         g_amp_target = 0.0f;                 // silence any held note
 7708              		.loc 6 483 38 view .LVU2485
 7709 1d9c 0123     		movs	r3, #1
ARM GAS  /tmp/claude-502/cc2bPfvH.s 			page 212


 7710              	.LBB896:
 7711              	.LBB887:
 7712              	.LBB884:
 7713              	.LBB883:
 350:src/main.cpp  ****     };
 7714              		.loc 6 350 48 view .LVU2486
 7715 1d9e 1097     		str	r7, [sp, #64]
 7716              	.LBE883:
 7717              	.LBE884:
 7718              	.LBE887:
 7719              	.LBE896:
 483:src/main.cpp  ****                         g_amp_target = 0.0f;                 // silence any held note
 7720              		.loc 6 483 38 view .LVU2487
 7721 1da0 0F93     		str	r3, [sp, #60]
 7722 1da2 FFF723B9 		b	.L78
 7723              	.LVL632:
 7724              	.L523:
 7725              	.LBB897:
 7726              	.LBB856:
 7727              	.LBB844:
 7728              	.LBB794:
 7729              	.LBB792:
 132:/Users/reza.kalfane/Workspaces/Daisy/DaisyExamples/libDaisy/src/util/PersistentStorage.h ****         }
 7730              		.loc 7 132 48 view .LVU2488
 7731 1da6 0821     		movs	r1, #8
 7732 1da8 4046     		mov	r0, r8
 7733 1daa FFF7FEFF 		bl	dsy_dma_invalidate_cache_for_buffer
 7734              	.LVL633:
 7735 1dae 049A     		ldr	r2, [sp, #16]
 7736 1db0 D5E5     		b	.L88
 7737              	.LVL634:
 7738              	.L293:
 132:/Users/reza.kalfane/Workspaces/Daisy/DaisyExamples/libDaisy/src/util/PersistentStorage.h ****         }
 7739              		.loc 7 132 48 view .LVU2489
 7740              	.LBE792:
 7741              	.LBE794:
 7742              	.LBE844:
 7743              	.LBB845:
 7744              	.LBB782:
 7745              	.LBB722:
 7746              	.LBB721:
 7747              	.LBB720:
 833:src/voice.h   ****     if (!VOICES[n].no_cycle)
 7748              		.loc 8 833 9 view .LVU2490
 7749 1db2 049C     		ldr	r4, [sp, #16]
 7750 1db4 9C46     		mov	ip, r3
 7751 1db6 98E6     		b	.L101
 7752              	.LVL635:
 7753              	.L525:
 833:src/voice.h   ****     if (!VOICES[n].no_cycle)
 7754              		.loc 8 833 9 view .LVU2491
 7755              	.LBE720:
 7756              	.LBE721:
 7757              	.LBE722:
 7758              	.LBE782:
 7759              	.LBE845:
 7760              	.LBE856:
ARM GAS  /tmp/claude-502/cc2bPfvH.s 			page 213


 7761              	.LBE897:
 7762              	.LBE911:
 7763              	.LBE1388:
 7764              	.LBB1389:
 7765              	.LBB1134:
 7766              	.LBB1126:
 7767              	.LBB1107:
 7768              	.LBB1101:
 7769              	.LBB1096:
  13:src/dsp.h     **** }
 7770              		.loc 9 13 24 view .LVU2492
 7771 1db8 F4EEE76A 		vcmpe.f32	s13, s15
 7772 1dbc F1EE10FA 		vmrs	APSR_nzcv, FPSCR
 7773 1dc0 3FDC     		bgt	.L350
 7774 1dc2 BFEE00BA 		vmov.f32	s22, #-1.0e+0
 7775 1dc6 9FED737A 		vldr.32	s14, .L547+20
 7776 1dca F0EE67BA 		vmov.f32	s23, s15
 7777 1dce 80E7     		b	.L280
 7778              	.LVL636:
 7779              	.L469:
  13:src/dsp.h     **** }
 7780              		.loc 9 13 24 view .LVU2493
 7781 1dd0 F4EEE76A 		vcmpe.f32	s13, s15
 7782 1dd4 F1EE10FA 		vmrs	APSR_nzcv, FPSCR
 7783 1dd8 38DD     		ble	.L470
 7784              	.LBE1096:
 7785              	.LBE1101:
 768:src/main.cpp  ****                 led1_target    = sqrtf(sqrtf(l2_raw)) * prs_mult;  // middle tent
 7786              		.loc 6 768 58 view .LVU2494
 7787 1dda F6EE006A 		vmov.f32	s13, #5.0e-1
 7788              	.LVL637:
 766:src/main.cpp  ****                 float l3_raw   = 2.0f * p01 - 1.0f;                 if(l3_raw < 0) l3_raw = 0;
 7789              		.loc 6 766 23 view .LVU2495
 7790 1dde B0EE006A 		vmov.f32	s12, #2.0e+0
 7791              	.LVL638:
 767:src/main.cpp  ****                 float l2_raw   = 1.0f - 2.0f * fabsf(p01 - 0.5f);   if(l2_raw < 0) l2_raw = 0;
 7792              		.loc 6 767 23 view .LVU2496
 7793 1de2 FFEE00BA 		vmov.f32	s23, #-1.0e+0
 768:src/main.cpp  ****                 led1_target    = sqrtf(sqrtf(l2_raw)) * prs_mult;  // middle tent
 7794              		.loc 6 768 23 view .LVU2497
 7795 1de6 B0EE67CA 		vmov.f32	s24, s15
 7796 1dea FFF779B9 		b	.L488
 7797              	.LVL639:
 7798              	.L351:
 767:src/main.cpp  ****                 float l2_raw   = 1.0f - 2.0f * fabsf(p01 - 0.5f);   if(l2_raw < 0) l2_raw = 0;
 7799              		.loc 6 767 91 view .LVU2498
 7800 1dee DFED69BA 		vldr.32	s23, .L547+20
 7801              	.LVL640:
 7802              	.L279:
 768:src/main.cpp  ****                 led1_target    = sqrtf(sqrtf(l2_raw)) * prs_mult;  // middle tent
 7803              		.loc 6 768 17 is_stmt 1 view .LVU2499
 768:src/main.cpp  ****                 led1_target    = sqrtf(sqrtf(l2_raw)) * prs_mult;  // middle tent
 7804              		.loc 6 768 69 view .LVU2500
 767:src/main.cpp  ****                 float l2_raw   = 1.0f - 2.0f * fabsf(p01 - 0.5f);   if(l2_raw < 0) l2_raw = 0;
 7805              		.loc 6 767 91 is_stmt 0 view .LVU2501
 7806 1df2 B7EE00CA 		vmov.f32	s24, #1.0e+0
 7807 1df6 9FED677A 		vldr.32	s14, .L547+20
ARM GAS  /tmp/claude-502/cc2bPfvH.s 			page 214


 7808 1dfa FFF795B9 		b	.L198
 7809              	.LVL641:
 7810              	.L112:
 767:src/main.cpp  ****                 float l2_raw   = 1.0f - 2.0f * fabsf(p01 - 0.5f);   if(l2_raw < 0) l2_raw = 0;
 7811              		.loc 6 767 91 view .LVU2502
 7812              	.LBE1107:
 7813              	.LBE1126:
 7814              	.LBE1134:
 7815              	.LBE1389:
 7816              	.LBB1390:
 7817              	.LBB912:
 7818              	.LBB898:
 7819              	.LBB857:
 7820              	.LBB846:
 7821              	.LBB783:
 7822              	.LBB774:
 354:src/main.cpp  ****         if(blink_on){ leds_write(false); blink_on = false; blink_left--; blink_t = now + 140; }
 7823              		.loc 6 354 9 is_stmt 1 view .LVU2503
 354:src/main.cpp  ****         if(blink_on){ leds_write(false); blink_on = false; blink_left--; blink_t = now + 140; }
 7824              		.loc 6 354 26 is_stmt 0 view .LVU2504
 7825 1dfe 149B     		ldr	r3, [sp, #80]
 7826 1e00 EB1A     		subs	r3, r5, r3
 354:src/main.cpp  ****         if(blink_on){ leds_write(false); blink_on = false; blink_left--; blink_t = now + 140; }
 7827              		.loc 6 354 9 view .LVU2505
 7828 1e02 002B     		cmp	r3, #0
 7829 1e04 FFF6F5AE 		blt	.L110
 355:src/main.cpp  ****         else if(blink_left > 0){ leds_write(true); blink_on = true; blink_t = now + 110; }
 7830              		.loc 6 355 9 is_stmt 1 view .LVU2506
 7831 1e08 109B     		ldr	r3, [sp, #64]
 7832 1e0a 002B     		cmp	r3, #0
 7833 1e0c 7FF4DCAE 		bne	.L281
 356:src/main.cpp  ****     };
 7834              		.loc 6 356 14 view .LVU2507
 7835 1e10 0D9B     		ldr	r3, [sp, #52]
 7836 1e12 002B     		cmp	r3, #0
 7837 1e14 7FF7EDAE 		ble	.L110
 7838              	.LVL642:
 7839              	.LBB765:
 7840              	.LBI765:
 352:src/main.cpp  ****         if(blink_left == 0 && !blink_on) return;
 7841              		.loc 6 352 23 view .LVU2508
 7842              	.LBB766:
 356:src/main.cpp  ****     };
 7843              		.loc 6 356 34 view .LVU2509
 7844              	.LBB767:
 7845              	.LBI767:
 342:src/main.cpp  ****         hw.dac.WriteValue(DacHandle::Channel::ONE, on ? (uint16_t)LED1_MAX : 0);
 7846              		.loc 6 342 23 view .LVU2510
 7847              	.LBB768:
 343:src/main.cpp  ****         hw.dac.WriteValue(DacHandle::Channel::TWO, on ? (uint16_t)LED2_MAX : 0);
 7848              		.loc 6 343 9 view .LVU2511
 343:src/main.cpp  ****         hw.dac.WriteValue(DacHandle::Channel::TWO, on ? (uint16_t)LED2_MAX : 0);
 7849              		.loc 6 343 26 is_stmt 0 view .LVU2512
 7850 1e18 1099     		ldr	r1, [sp, #64]
 7851 1e1a 40F6FF72 		movw	r2, #4095
 7852 1e1e 5F48     		ldr	r0, .L547+28
 7853 1e20 FFF7FEFF 		bl	_ZN5daisy9DacHandle10WriteValueENS0_7ChannelEt
ARM GAS  /tmp/claude-502/cc2bPfvH.s 			page 215


 7854              	.LVL643:
 344:src/main.cpp  ****         g_led3_duty = on ? LED3_INTENSITY : 0.0f;
 7855              		.loc 6 344 9 is_stmt 1 view .LVU2513
 344:src/main.cpp  ****         g_led3_duty = on ? LED3_INTENSITY : 0.0f;
 7856              		.loc 6 344 26 is_stmt 0 view .LVU2514
 7857 1e24 40F6FF72 		movw	r2, #4095
 7858 1e28 0121     		movs	r1, #1
 7859 1e2a 5C48     		ldr	r0, .L547+28
 7860 1e2c FFF7FEFF 		bl	_ZN5daisy9DacHandle10WriteValueENS0_7ChannelEt
 7861              	.LVL644:
 345:src/main.cpp  ****     };
 7862              		.loc 6 345 9 is_stmt 1 view .LVU2515
 7863              	.LBE768:
 7864              	.LBE767:
 356:src/main.cpp  ****     };
 7865              		.loc 6 356 83 is_stmt 0 view .LVU2516
 7866 1e30 05F16E03 		add	r3, r5, #110
 7867              	.LBB771:
 7868              	.LBB769:
 345:src/main.cpp  ****     };
 7869              		.loc 6 345 21 view .LVU2517
 7870 1e34 199A     		ldr	r2, [sp, #100]
 7871              	.LBE769:
 7872              	.LBE771:
 356:src/main.cpp  ****     };
 7873              		.loc 6 356 83 view .LVU2518
 7874 1e36 1493     		str	r3, [sp, #80]
 7875              	.LVL645:
 7876              	.LBB772:
 7877              	.LBB770:
 345:src/main.cpp  ****     };
 7878              		.loc 6 345 21 view .LVU2519
 7879 1e38 5F4B     		ldr	r3, .L547+56
 7880 1e3a 1360     		str	r3, [r2]	@ float
 7881              	.LVL646:
 345:src/main.cpp  ****     };
 7882              		.loc 6 345 21 view .LVU2520
 7883              	.LBE770:
 7884              	.LBE772:
 356:src/main.cpp  ****     };
 7885              		.loc 6 356 52 is_stmt 1 view .LVU2521
 356:src/main.cpp  ****     };
 7886              		.loc 6 356 69 view .LVU2522
 356:src/main.cpp  ****     };
 7887              		.loc 6 356 61 is_stmt 0 view .LVU2523
 7888 1e3c 0A9B     		ldr	r3, [sp, #40]
 7889 1e3e 1093     		str	r3, [sp, #64]
 7890 1e40 D7E6     		b	.L110
 7891              	.LVL647:
 7892              	.L350:
 356:src/main.cpp  ****     };
 7893              		.loc 6 356 61 view .LVU2524
 7894              	.LBE766:
 7895              	.LBE765:
 7896              	.LBE774:
 7897              	.LBE783:
 7898              	.LBE846:
ARM GAS  /tmp/claude-502/cc2bPfvH.s 			page 216


 7899              	.LBE857:
 7900              	.LBE898:
 7901              	.LBE912:
 7902              	.LBE1390:
 7903              	.LBB1391:
 7904              	.LBB1135:
 7905              	.LBB1127:
 7906              	.LBB1108:
 7907              	.LBB1102:
 7908              	.LBB1097:
  13:src/dsp.h     **** }
 7909              		.loc 9 13 24 view .LVU2525
 7910 1e42 F0EE67BA 		vmov.f32	s23, s15
 7911              	.LBE1097:
 7912              	.LBE1102:
 766:src/main.cpp  ****                 float l3_raw   = 2.0f * p01 - 1.0f;                 if(l3_raw < 0) l3_raw = 0;
 7913              		.loc 6 766 91 view .LVU2526
 7914 1e46 9FED53BA 		vldr.32	s22, .L547+20
 7915 1e4a D2E7     		b	.L279
 7916              	.LVL648:
 7917              	.L470:
 768:src/main.cpp  ****                 led1_target    = sqrtf(sqrtf(l2_raw)) * prs_mult;  // middle tent
 7918              		.loc 6 768 58 view .LVU2527
 7919 1e4c B6EE006A 		vmov.f32	s12, #5.0e-1
 766:src/main.cpp  ****                 float l3_raw   = 2.0f * p01 - 1.0f;                 if(l3_raw < 0) l3_raw = 0;
 7920              		.loc 6 766 23 view .LVU2528
 7921 1e50 F0EE005A 		vmov.f32	s11, #2.0e+0
 7922 1e54 B0EE67BA 		vmov.f32	s22, s15
 768:src/main.cpp  ****                 led1_target    = sqrtf(sqrtf(l2_raw)) * prs_mult;  // middle tent
 7923              		.loc 6 768 58 view .LVU2529
 7924 1e58 37EE466A 		vsub.f32	s12, s14, s12
 767:src/main.cpp  ****                 float l2_raw   = 1.0f - 2.0f * fabsf(p01 - 0.5f);   if(l2_raw < 0) l2_raw = 0;
 7925              		.loc 6 767 23 view .LVU2530
 7926 1e5c FFEE00BA 		vmov.f32	s23, #-1.0e+0
 766:src/main.cpp  ****                 float l3_raw   = 2.0f * p01 - 1.0f;                 if(l3_raw < 0) l3_raw = 0;
 7927              		.loc 6 766 23 view .LVU2531
 7928 1e60 A7EE65BA 		vfms.f32	s22, s14, s11
 768:src/main.cpp  ****                 led1_target    = sqrtf(sqrtf(l2_raw)) * prs_mult;  // middle tent
 7929              		.loc 6 768 53 view .LVU2532
 7930 1e64 B0EEC66A 		vabs.f32	s12, s12
 767:src/main.cpp  ****                 float l2_raw   = 1.0f - 2.0f * fabsf(p01 - 0.5f);   if(l2_raw < 0) l2_raw = 0;
 7931              		.loc 6 767 23 view .LVU2533
 7932 1e68 E7EE25BA 		vfma.f32	s23, s14, s11
 768:src/main.cpp  ****                 led1_target    = sqrtf(sqrtf(l2_raw)) * prs_mult;  // middle tent
 7933              		.loc 6 768 23 view .LVU2534
 7934 1e6c E6EE657A 		vfms.f32	s15, s12, s11
 7935 1e70 B0EE677A 		vmov.f32	s14, s15
 7936              	.LVL649:
 768:src/main.cpp  ****                 led1_target    = sqrtf(sqrtf(l2_raw)) * prs_mult;  // middle tent
 7937              		.loc 6 768 23 view .LVU2535
 7938 1e74 2DE7     		b	.L280
 7939              	.LVL650:
 7940              	.L489:
 768:src/main.cpp  ****                 led1_target    = sqrtf(sqrtf(l2_raw)) * prs_mult;  // middle tent
 7941              		.loc 6 768 23 view .LVU2536
 7942              	.LBE1108:
 7943              	.LBE1127:
ARM GAS  /tmp/claude-502/cc2bPfvH.s 			page 217


 7944              	.LBE1135:
 7945              	.LBE1391:
 7946              	.LBE1406:
 7947              	.LBB1407:
 7948              	.LBB638:
 7949              	.LBB631:
 7950              	.LBI631:
 117:/Users/reza.kalfane/Workspaces/Daisy/DaisyExamples/libDaisy/src/util/PersistentStorage.h ****     {
 7951              		.loc 7 117 10 is_stmt 1 view .LVU2537
 7952              	.LBB632:
 120:/Users/reza.kalfane/Workspaces/Daisy/DaisyExamples/libDaisy/src/util/PersistentStorage.h ****         s.user_data     = settings_;
 7953              		.loc 7 120 25 is_stmt 0 view .LVU2538
 7954 1e76 0123     		movs	r3, #1
 123:/Users/reza.kalfane/Workspaces/Daisy/DaisyExamples/libDaisy/src/util/PersistentStorage.h **** 
 7955              		.loc 7 123 39 view .LVU2539
 7956 1e78 0021     		movs	r1, #0
 7957 1e7a 4B48     		ldr	r0, .L547+40
 7958              	.LVL651:
 120:/Users/reza.kalfane/Workspaces/Daisy/DaisyExamples/libDaisy/src/util/PersistentStorage.h ****         s.user_data     = settings_;
 7959              		.loc 7 120 25 view .LVU2540
 7960 1e7c CDE97034 		strd	r3, r4, [sp, #448]
 123:/Users/reza.kalfane/Workspaces/Daisy/DaisyExamples/libDaisy/src/util/PersistentStorage.h **** 
 7961              		.loc 7 123 39 view .LVU2541
 7962 1e80 FFF7FEFF 		bl	_ZN5daisy10QSPIHandle7GetDataEm
 7963              	.LVL652:
 7964 1e84 0546     		mov	r5, r0
 7965              	.LVL653:
 129:/Users/reza.kalfane/Workspaces/Daisy/DaisyExamples/libDaisy/src/util/PersistentStorage.h ****            != System::MemoryRegion::INTERNAL_FLASH)
 7966              		.loc 7 129 42 view .LVU2542
 7967 1e86 FFF7FEFF 		bl	_ZN5daisy6System22GetProgramMemoryRegionEv
 7968              	.LVL654:
 129:/Users/reza.kalfane/Workspaces/Daisy/DaisyExamples/libDaisy/src/util/PersistentStorage.h ****            != System::MemoryRegion::INTERNAL_FLASH)
 7969              		.loc 7 129 9 view .LVU2543
 7970 1e8a 88BB     		cbnz	r0, .L526
 7971              	.L47:
 7972              	.LVL655:
 7973              	.LBB633:
 7974              	.LBI633:
  42:src/main.cpp  **** };
 7975              		.loc 6 42 10 is_stmt 1 view .LVU2544
 7976              	.LBB634:
  42:src/main.cpp  **** };
 7977              		.loc 6 42 55 view .LVU2545
  42:src/main.cpp  **** };
 7978              		.loc 6 42 55 is_stmt 0 view .LVU2546
 7979              	.LBE634:
 7980              	.LBE633:
 140:/Users/reza.kalfane/Workspaces/Daisy/DaisyExamples/libDaisy/src/util/PersistentStorage.h ****         {
 7981              		.loc 7 140 9 view .LVU2547
 7982 1e8c 6B68     		ldr	r3, [r5, #4]
 7983 1e8e 9C42     		cmp	r4, r3
 7984 1e90 3EF4D0A8 		beq	.L486
 142:/Users/reza.kalfane/Workspaces/Daisy/DaisyExamples/libDaisy/src/util/PersistentStorage.h ****             qspi_.Write(address_offset_, sizeof(s), (uint8_t *)&s);
 7985              		.loc 7 142 24 view .LVU2548
 7986 1e94 0822     		movs	r2, #8
 7987 1e96 0021     		movs	r1, #0
 7988 1e98 4348     		ldr	r0, .L547+40
ARM GAS  /tmp/claude-502/cc2bPfvH.s 			page 218


 7989 1e9a FFF7FEFF 		bl	_ZN5daisy10QSPIHandle5EraseEmm
 7990              	.LVL656:
 7991              		.loc 7 143 24 view .LVU2549
 7992 1e9e 70AB     		add	r3, sp, #448
 7993 1ea0 0822     		movs	r2, #8
 7994 1ea2 0021     		movs	r1, #0
 7995 1ea4 4048     		ldr	r0, .L547+40
 7996 1ea6 0DEE903A 		vmov	s27, r3	@ int
 7997 1eaa FFF7FEFF 		bl	_ZN5daisy10QSPIHandle5WriteEmmPh
 7998              	.LVL657:
 144:/Users/reza.kalfane/Workspaces/Daisy/DaisyExamples/libDaisy/src/util/PersistentStorage.h ****         }
 145:/Users/reza.kalfane/Workspaces/Daisy/DaisyExamples/libDaisy/src/util/PersistentStorage.h ****     }
 7999              		.loc 7 145 5 view .LVU2550
 8000 1eae FEF7C4B8 		b	.L49
 8001              	.LVL658:
 8002              	.L61:
 8003              		.loc 7 145 5 view .LVU2551
 8004              	.LBE632:
 8005              	.LBE631:
 8006              	.LBE638:
 8007              	.LBE1407:
 290:src/main.cpp  ****     hw.PrintLine("Press FSR fully (no touch) 2s -> select; tap to cycle; release to keep");
 8008              		.loc 6 290 9 is_stmt 1 view .LVU2552
 8009              	.LBB1408:
 8010              	.LBI1408:
 126:/Users/reza.kalfane/Workspaces/Daisy/DaisyExamples/libDaisy/src/daisy_seed.h ****     {
 8011              		.loc 1 126 17 view .LVU2553
 8012              	.LBB1409:
 128:/Users/reza.kalfane/Workspaces/Daisy/DaisyExamples/libDaisy/src/daisy_seed.h ****     }
 8013              		.loc 1 128 23 is_stmt 0 view .LVU2554
 8014 1eb2 4248     		ldr	r0, .L547+60
 8015 1eb4 FFF7FEFF 		bl	_ZN5daisy6LoggerILNS_17LoggerDestinationE1EE9PrintLineEPKcz
 8016              	.LVL659:
 129:/Users/reza.kalfane/Workspaces/Daisy/DaisyExamples/libDaisy/src/daisy_seed.h **** 
 8017              		.loc 1 129 5 view .LVU2555
 8018 1eb8 FEF7D2B9 		b	.L62
 8019              	.LVL660:
 8020              	.L514:
 129:/Users/reza.kalfane/Workspaces/Daisy/DaisyExamples/libDaisy/src/daisy_seed.h **** 
 8021              		.loc 1 129 5 view .LVU2556
 8022              	.LBE1409:
 8023              	.LBE1408:
 8024              	.LBB1410:
 8025              	.LBB1392:
 8026              	.LBB1136:
 8027              	.LBB1128:
 8028              	.LBB1109:
 769:src/main.cpp  ****                 led2_target    = sqrtf(sqrtf(l1_raw)) * prs_mult;  // pos 0 ramp
 8029              		.loc 6 769 17 is_stmt 1 view .LVU2557
 8030 1ebc B5EE407A 		vcmp.f32	s14, #0
 8031 1ec0 F1EE10FA 		vmrs	APSR_nzcv, FPSCR
 8032 1ec4 7FF530A9 		bpl	.L198
 769:src/main.cpp  ****                 led2_target    = sqrtf(sqrtf(l1_raw)) * prs_mult;  // pos 0 ramp
 8033              		.loc 6 769 39 is_stmt 0 view .LVU2558
 8034 1ec8 B0EE470A 		vmov.f32	s0, s14
 8035 1ecc FFF7FEFF 		bl	sqrtf
 8036              	.LVL661:
ARM GAS  /tmp/claude-502/cc2bPfvH.s 			page 219


 8037 1ed0 FFF72CB9 		b	.L201
 8038              	.LVL662:
 8039              	.L459:
 769:src/main.cpp  ****                 led2_target    = sqrtf(sqrtf(l1_raw)) * prs_mult;  // pos 0 ramp
 8040              		.loc 6 769 39 view .LVU2559
 8041              	.LBE1109:
 8042              	.LBE1128:
 8043              	.LBE1136:
 8044              	.LBE1392:
 8045              	.LBE1410:
 139:src/main.cpp  ****         capture_baseline(baseline);
 8046              		.loc 6 139 9 is_stmt 1 view .LVU2560
 140:src/main.cpp  ****     }
 8047              		.loc 6 140 25 is_stmt 0 view .LVU2561
 8048 1ed4 1C46     		mov	r4, r3
 8049              	.LVL663:
 139:src/main.cpp  ****         capture_baseline(baseline);
 8050              		.loc 6 139 22 view .LVU2562
 8051 1ed6 4FF49670 		mov	r0, #300
 140:src/main.cpp  ****     }
 8052              		.loc 6 140 25 view .LVU2563
 8053 1eda 0993     		str	r3, [sp, #36]
 139:src/main.cpp  ****         capture_baseline(baseline);
 8054              		.loc 6 139 22 view .LVU2564
 8055 1edc FFF7FEFF 		bl	_ZN5daisy6System5DelayEm
 8056              	.LVL664:
 140:src/main.cpp  ****     }
 8057              		.loc 6 140 9 is_stmt 1 view .LVU2565
 140:src/main.cpp  ****     }
 8058              		.loc 6 140 25 is_stmt 0 view .LVU2566
 8059 1ee0 2046     		mov	r0, r4
 8060 1ee2 FFF7FEFF 		bl	_Z16capture_baselinePt
 8061              	.LVL665:
 8062 1ee6 FEF7C1B8 		b	.L52
 8063              	.LVL666:
 8064              	.L285:
 126:src/main.cpp  **** 
 8065              		.loc 6 126 49 view .LVU2567
 8066 1eea 0923     		movs	r3, #9
 8067 1eec FEF7AFB8 		b	.L51
 8068              	.LVL667:
 8069              	.L526:
 8070              	.LBB1411:
 8071              	.LBB639:
 8072              	.LBB636:
 8073              	.LBB635:
 132:/Users/reza.kalfane/Workspaces/Daisy/DaisyExamples/libDaisy/src/util/PersistentStorage.h ****         }
 8074              		.loc 7 132 48 view .LVU2568
 8075 1ef0 0821     		movs	r1, #8
 8076 1ef2 2846     		mov	r0, r5
 8077 1ef4 FFF7FEFF 		bl	dsy_dma_invalidate_cache_for_buffer
 8078              	.LVL668:
 8079 1ef8 C8E7     		b	.L47
 8080              	.LVL669:
 8081              	.L286:
 132:/Users/reza.kalfane/Workspaces/Daisy/DaisyExamples/libDaisy/src/util/PersistentStorage.h ****         }
 8082              		.loc 7 132 48 view .LVU2569
ARM GAS  /tmp/claude-502/cc2bPfvH.s 			page 220


 8083              	.LBE635:
 8084              	.LBE636:
 8085              	.LBE639:
 8086              	.LBE1411:
 8087              	.LBB1412:
 8088              	.LBB665:
 824:src/voice.h   ****   for (int i = 0; i <= idx && i < NUM_VOICES; i++)
 8089              		.loc 8 824 7 view .LVU2570
 8090 1efa 0021     		movs	r1, #0
 8091 1efc FEF787B9 		b	.L56
 8092              	.LVL670:
 8093              	.L487:
 824:src/voice.h   ****   for (int i = 0; i <= idx && i < NUM_VOICES; i++)
 8094              		.loc 8 824 7 view .LVU2571
 8095 1f00 2F4B     		ldr	r3, .L547+64
 8096 1f02 1993     		str	r3, [sp, #100]
 8097 1f04 FEF7FBB9 		b	.L65
 8098              	.LVL671:
 8099              	.L467:
 824:src/voice.h   ****   for (int i = 0; i <= idx && i < NUM_VOICES; i++)
 8100              		.loc 8 824 7 view .LVU2572
 8101              	.LBE665:
 8102              	.LBE1412:
 8103              	.LBB1413:
 8104              	.LBB1393:
 8105              	.LBB1361:
 8106              	.LBB1359:
 8107              	.LBB1357:
 221:src/main.cpp  ****             hw.dac.WriteValue(DacHandle::Channel::ONE, (uint16_t)(led1 * LED1_MAX));
 8108              		.loc 6 221 33 view .LVU2573
 8109 1f08 FFF7FEFF 		bl	sqrtf
 8110              	.LVL672:
 8111 1f0c F0EE407A 		vmov.f32	s15, s0
 8112 1f10 FFF7DFBB 		b	.L140
 8113              	.LVL673:
 8114              	.L522:
 219:src/main.cpp  ****             float led2   = sqrtf(sqrtf(l1_raw));              // pos 0  (DAC2)
 8115              		.loc 6 219 33 view .LVU2574
 8116 1f14 B0EE470A 		vmov.f32	s0, s14
 8117 1f18 FFF7FEFF 		bl	sqrtf
 8118              	.LVL674:
 219:src/main.cpp  ****             float led2   = sqrtf(sqrtf(l1_raw));              // pos 0  (DAC2)
 8119              		.loc 6 219 33 view .LVU2575
 8120 1f1c FFF7B1BB 		b	.L125
 8121              	.L463:
 219:src/main.cpp  ****             float led2   = sqrtf(sqrtf(l1_raw));              // pos 0  (DAC2)
 8122              		.loc 6 219 33 view .LVU2576
 8123 1f20 FFF7FEFF 		bl	sqrtf
 8124              	.LVL675:
 8125 1f24 F0EE40BA 		vmov.f32	s23, s0
 8126 1f28 FFF7B3BB 		b	.L128
 8127              	.L464:
 220:src/main.cpp  ****             float led3   = sqrtf(sqrtf(l3_raw)) * LED3_INTENSITY; // pos 1 (PWM A0)
 8128              		.loc 6 220 33 view .LVU2577
 8129 1f2c B0EE4B0A 		vmov.f32	s0, s22
 8130 1f30 FFF7FEFF 		bl	sqrtf
 8131              	.LVL676:
ARM GAS  /tmp/claude-502/cc2bPfvH.s 			page 221


 8132 1f34 FFF7B5BB 		b	.L131
 8133              	.L465:
 220:src/main.cpp  ****             float led3   = sqrtf(sqrtf(l3_raw)) * LED3_INTENSITY; // pos 1 (PWM A0)
 8134              		.loc 6 220 33 view .LVU2578
 8135 1f38 FFF7FEFF 		bl	sqrtf
 8136              	.LVL677:
 8137 1f3c B0EE40BA 		vmov.f32	s22, s0
 8138              	.LVL678:
 220:src/main.cpp  ****             float led3   = sqrtf(sqrtf(l3_raw)) * LED3_INTENSITY; // pos 1 (PWM A0)
 8139              		.loc 6 220 33 view .LVU2579
 8140 1f40 FFF7B7BB 		b	.L134
 8141              	.L466:
 221:src/main.cpp  ****             hw.dac.WriteValue(DacHandle::Channel::ONE, (uint16_t)(led1 * LED1_MAX));
 8142              		.loc 6 221 33 view .LVU2580
 8143 1f44 B0EE6A0A 		vmov.f32	s0, s21
 8144 1f48 FFF7FEFF 		bl	sqrtf
 8145              	.LVL679:
 8146 1f4c FFF7B9BB 		b	.L137
 8147              	.LVL680:
 8148              	.L288:
 221:src/main.cpp  ****             hw.dac.WriteValue(DacHandle::Channel::ONE, (uint16_t)(led1 * LED1_MAX));
 8149              		.loc 6 221 33 view .LVU2581
 8150              	.LBE1357:
 8151              	.LBE1359:
 8152              	.LBE1361:
 8153              	.LBE1393:
 8154              	.LBB1394:
 8155              	.LBB913:
 490:src/main.cpp  ****                 }
 8156              		.loc 6 490 32 view .LVU2582
 8157 1f50 0A9B     		ldr	r3, [sp, #40]
 8158 1f52 179D     		ldr	r5, [sp, #92]
 8159 1f54 0C97     		str	r7, [sp, #48]
 8160              	.LVL681:
 490:src/main.cpp  ****                 }
 8161              		.loc 6 490 32 view .LVU2583
 8162 1f56 1A93     		str	r3, [sp, #104]
 8163              	.LVL682:
 490:src/main.cpp  ****                 }
 8164              		.loc 6 490 32 view .LVU2584
 8165 1f58 FFF748B8 		b	.L78
 8166              	.LVL683:
 8167              	.L476:
 490:src/main.cpp  ****                 }
 8168              		.loc 6 490 32 view .LVU2585
 8169              	.LBE913:
 8170              	.LBE1394:
 8171              	.LBB1395:
 8172              	.LBB1137:
 8173              	.LBB1129:
 8174              	.LBB1110:
 771:src/main.cpp  ****             }
 8175              		.loc 6 771 39 view .LVU2586
 8176 1f5c FFF7FEFF 		bl	sqrtf
 8177              	.LVL684:
 8178 1f60 F0EE407A 		vmov.f32	s15, s0
 8179 1f64 FFF70EB9 		b	.L216
ARM GAS  /tmp/claude-502/cc2bPfvH.s 			page 222


 8180              	.L475:
 771:src/main.cpp  ****             }
 8181              		.loc 6 771 39 view .LVU2587
 8182 1f68 B0EE6B0A 		vmov.f32	s0, s23
 8183 1f6c FFF7FEFF 		bl	sqrtf
 8184              	.LVL685:
 8185 1f70 FFF700B9 		b	.L213
 8186              	.LVL686:
 8187              	.L474:
 770:src/main.cpp  ****                 led3_target    = sqrtf(sqrtf(l3_raw)) * prs_mult * LED3_INTENSITY;
 8188              		.loc 6 770 39 view .LVU2588
 8189 1f74 FFF7FEFF 		bl	sqrtf
 8190              	.LVL687:
 8191 1f78 F0EE407A 		vmov.f32	s15, s0
 8192 1f7c FFF7F0B8 		b	.L210
 8193              	.L548:
 8194              		.align	2
 8195              	.L547:
 8196 1f80 00000000 		.word	.LANCHOR5
 8197 1f84 84070000 		.word	.LANCHOR5+1924
 8198 1f88 C0010000 		.word	.LC14
 8199 1f8c CDCC0C3F 		.word	1057803469
 8200 1f90 6666E63E 		.word	1055286886
 8201 1f94 00000000 		.word	0
 8202 1f98 0000C842 		.word	1120403456
 8203 1f9c 20000000 		.word	.LANCHOR0+32
 8204 1fa0 00000000 		.word	g_finger_on
 8205 1fa4 00000000 		.word	g_amp_target
 8206 1fa8 00000000 		.word	.LANCHOR0
 8207 1fac B81E0540 		.word	1074077368
 8208 1fb0 00008743 		.word	1132920832
 8209 1fb4 00000000 		.word	g_hits
 8210 1fb8 CDCC4C3D 		.word	1028443341
 8211 1fbc 90000000 		.word	.LC5
 8212 1fc0 00000000 		.word	g_led3_duty
 8213 1fc4 9A99593F 		.word	1062836634
 8214 1fc8 9A99193E 		.word	1041865114
 8215              	.LVL688:
 8216              	.L478:
 770:src/main.cpp  ****                 led3_target    = sqrtf(sqrtf(l3_raw)) * prs_mult * LED3_INTENSITY;
 8217              		.loc 6 770 39 view .LVU2589
 8218              	.LBE1110:
 8219              	.LBE1129:
 8220              	.LBE1137:
 8221              	.LBE1395:
 8222              	.LBB1396:
 8223              	.LBB1211:
 8224              	.LBB1203:
 8225              	.LBB1168:
 693:src/main.cpp  ****             };
 8226              		.loc 6 693 41 view .LVU2590
 8227 1fcc A6EE845A 		vfma.f32	s10, s13, s8
 8228              	.LBE1168:
 8229              	.LBE1203:
 822:src/main.cpp  ****             float rm    = smoothstep2(rm_in) * VOICE.ringmod_max;
 8230              		.loc 6 822 41 view .LVU2591
 8231 1fd0 5FED043A 		vldr.32	s7, .L547+68
ARM GAS  /tmp/claude-502/cc2bPfvH.s 			page 223


 8232              	.LBB1204:
 8233              	.LBB1169:
 693:src/main.cpp  ****             };
 8234              		.loc 6 693 25 view .LVU2592
 8235 1fd4 26EEA67A 		vmul.f32	s14, s13, s13
 8236              	.LBE1169:
 8237              	.LBE1204:
 822:src/main.cpp  ****             float rm    = smoothstep2(rm_in) * VOICE.ringmod_max;
 8238              		.loc 6 822 33 view .LVU2593
 8239 1fd8 1FED053A 		vldr.32	s6, .L547+72
 822:src/main.cpp  ****             float rm    = smoothstep2(rm_in) * VOICE.ringmod_max;
 8240              		.loc 6 822 41 view .LVU2594
 8241 1fdc 37EEE34A 		vsub.f32	s8, s15, s7
 8242              	.LBB1205:
 8243              	.LBB1170:
 693:src/main.cpp  ****             };
 8244              		.loc 6 693 27 view .LVU2595
 8245 1fe0 27EE267A 		vmul.f32	s14, s14, s13
 693:src/main.cpp  ****             };
 8246              		.loc 6 693 41 view .LVU2596
 8247 1fe4 F0EE454A 		vmov.f32	s9, s10
 8248              	.LBE1170:
 8249              	.LBE1205:
 822:src/main.cpp  ****             float rm    = smoothstep2(rm_in) * VOICE.ringmod_max;
 8250              		.loc 6 822 33 view .LVU2597
 8251 1fe8 84EE035A 		vdiv.f32	s10, s8, s6
 8252              	.LBB1206:
 8253              	.LBB1171:
 693:src/main.cpp  ****             };
 8254              		.loc 6 693 50 view .LVU2598
 8255 1fec A6EEA46A 		vfma.f32	s12, s13, s9
 693:src/main.cpp  ****             };
 8256              		.loc 6 693 57 view .LVU2599
 8257 1ff0 27EE067A 		vmul.f32	s14, s14, s12
 8258 1ff4 FEF7C2BC 		b	.L224
 8259              	.LVL689:
 8260              	.L473:
 693:src/main.cpp  ****             };
 8261              		.loc 6 693 57 view .LVU2600
 8262              	.LBE1171:
 8263              	.LBE1206:
 8264              	.LBE1211:
 8265              	.LBE1396:
 8266              	.LBB1397:
 8267              	.LBB1138:
 8268              	.LBB1130:
 8269              	.LBB1111:
 770:src/main.cpp  ****                 led3_target    = sqrtf(sqrtf(l3_raw)) * prs_mult * LED3_INTENSITY;
 8270              		.loc 6 770 39 view .LVU2601
 8271 1ff8 B0EE4B0A 		vmov.f32	s0, s22
 8272 1ffc FFF7FEFF 		bl	sqrtf
 8273              	.LVL690:
 8274 2000 FFF7A6B8 		b	.L207
 8275              	.LVL691:
 8276              	.L472:
 769:src/main.cpp  ****                 led2_target    = sqrtf(sqrtf(l1_raw)) * prs_mult;  // pos 0 ramp
 8277              		.loc 6 769 39 view .LVU2602
ARM GAS  /tmp/claude-502/cc2bPfvH.s 			page 224


 8278 2004 FFF7FEFF 		bl	sqrtf
 8279              	.LVL692:
 8280 2008 F0EE407A 		vmov.f32	s15, s0
 8281 200c FFF796B8 		b	.L204
 8282              	.LBE1111:
 8283              	.LBE1130:
 8284              	.LBE1138:
 8285              	.LBE1397:
 8286              	.LBE1413:
 8287              		.cfi_endproc
 8288              	.LFE2580:
 8290              		.section	.text.startup._GLOBAL__sub_I_g_voice_idx,"ax",%progbits
 8291              		.align	1
 8292              		.p2align 2,,3
 8293              		.syntax unified
 8294              		.thumb
 8295              		.thumb_func
 8297              	_GLOBAL__sub_I_g_voice_idx:
 8298              	.LFB2637:
 896:src/main.cpp  ****     }
 897:src/main.cpp  **** }
 8299              		.loc 6 897 1 is_stmt 1 view -0
 8300              		.cfi_startproc
 8301              		@ args = 0, pretend = 0, frame = 0
 8302              		@ frame_needed = 0, uses_anonymous_args = 0
 8303              	.LBB1443:
 8304              	.LBI1443:
 8305              		.loc 6 897 1 view .LVU2604
 8306              	.LVL693:
 8307              	.LBB1444:
 8308              	.LBB1445:
 8309              	.LBI1445:
  21:/Users/reza.kalfane/Workspaces/Daisy/DaisyExamples/libDaisy/src/daisy_seed.h ****     ~DaisySeed() {}
 8310              		.loc 1 21 5 view .LVU2605
 8311              	.LBB1446:
 8312              	.LBB1447:
 8313              	.LBI1447:
 8314              		.file 10 "/Users/reza.kalfane/Workspaces/Daisy/DaisyExamples/libDaisy/src/per/qspi.h"
   1:/Users/reza.kalfane/Workspaces/Daisy/DaisyExamples/libDaisy/src/per/qspi.h **** #ifndef DSY_QSPI
   2:/Users/reza.kalfane/Workspaces/Daisy/DaisyExamples/libDaisy/src/per/qspi.h **** #define DSY_QSPI /**< Macro */
   3:/Users/reza.kalfane/Workspaces/Daisy/DaisyExamples/libDaisy/src/per/qspi.h **** 
   4:/Users/reza.kalfane/Workspaces/Daisy/DaisyExamples/libDaisy/src/per/qspi.h **** #ifndef UNIT_TEST // for unit tests, a dummy implementation
   5:/Users/reza.kalfane/Workspaces/Daisy/DaisyExamples/libDaisy/src/per/qspi.h **** 
   6:/Users/reza.kalfane/Workspaces/Daisy/DaisyExamples/libDaisy/src/per/qspi.h **** #include <cstdint>
   7:/Users/reza.kalfane/Workspaces/Daisy/DaisyExamples/libDaisy/src/per/qspi.h **** #include "daisy_core.h" // Added for dsy_gpio_pin typedef
   8:/Users/reza.kalfane/Workspaces/Daisy/DaisyExamples/libDaisy/src/per/qspi.h **** 
   9:/Users/reza.kalfane/Workspaces/Daisy/DaisyExamples/libDaisy/src/per/qspi.h **** #define DSY_QSPI_TEXT       \
  10:/Users/reza.kalfane/Workspaces/Daisy/DaisyExamples/libDaisy/src/per/qspi.h ****     __attribute__((section( \
  11:/Users/reza.kalfane/Workspaces/Daisy/DaisyExamples/libDaisy/src/per/qspi.h ****         ".qspiflash_text"))) /**< used for reading memory in memory_mapped mode. */
  12:/Users/reza.kalfane/Workspaces/Daisy/DaisyExamples/libDaisy/src/per/qspi.h **** #define DSY_QSPI_DATA       \
  13:/Users/reza.kalfane/Workspaces/Daisy/DaisyExamples/libDaisy/src/per/qspi.h ****     __attribute__((section( \
  14:/Users/reza.kalfane/Workspaces/Daisy/DaisyExamples/libDaisy/src/per/qspi.h ****         ".qspiflash_data"))) /**< used for reading memory in memory_mapped mode. */
  15:/Users/reza.kalfane/Workspaces/Daisy/DaisyExamples/libDaisy/src/per/qspi.h **** #define DSY_QSPI_BSS        \
  16:/Users/reza.kalfane/Workspaces/Daisy/DaisyExamples/libDaisy/src/per/qspi.h ****     __attribute__((section( \
  17:/Users/reza.kalfane/Workspaces/Daisy/DaisyExamples/libDaisy/src/per/qspi.h ****         ".qspiflash_bss"))) /**< used for reading memory in memory_mapped mode. */
  18:/Users/reza.kalfane/Workspaces/Daisy/DaisyExamples/libDaisy/src/per/qspi.h **** 
  19:/Users/reza.kalfane/Workspaces/Daisy/DaisyExamples/libDaisy/src/per/qspi.h **** namespace daisy
ARM GAS  /tmp/claude-502/cc2bPfvH.s 			page 225


  20:/Users/reza.kalfane/Workspaces/Daisy/DaisyExamples/libDaisy/src/per/qspi.h **** {
  21:/Users/reza.kalfane/Workspaces/Daisy/DaisyExamples/libDaisy/src/per/qspi.h **** /** @addtogroup serial
  22:/Users/reza.kalfane/Workspaces/Daisy/DaisyExamples/libDaisy/src/per/qspi.h **** @{
  23:/Users/reza.kalfane/Workspaces/Daisy/DaisyExamples/libDaisy/src/per/qspi.h **** */
  24:/Users/reza.kalfane/Workspaces/Daisy/DaisyExamples/libDaisy/src/per/qspi.h **** 
  25:/Users/reza.kalfane/Workspaces/Daisy/DaisyExamples/libDaisy/src/per/qspi.h **** /** 
  26:/Users/reza.kalfane/Workspaces/Daisy/DaisyExamples/libDaisy/src/per/qspi.h ****  Driver for QSPI peripheral to interface with external flash memory. \n 
  27:/Users/reza.kalfane/Workspaces/Daisy/DaisyExamples/libDaisy/src/per/qspi.h ****     Currently supported QSPI Devices: \n 
  28:/Users/reza.kalfane/Workspaces/Daisy/DaisyExamples/libDaisy/src/per/qspi.h ****     * IS25LP080D
  29:/Users/reza.kalfane/Workspaces/Daisy/DaisyExamples/libDaisy/src/per/qspi.h **** */
  30:/Users/reza.kalfane/Workspaces/Daisy/DaisyExamples/libDaisy/src/per/qspi.h **** class QSPIHandle
  31:/Users/reza.kalfane/Workspaces/Daisy/DaisyExamples/libDaisy/src/per/qspi.h **** {
  32:/Users/reza.kalfane/Workspaces/Daisy/DaisyExamples/libDaisy/src/per/qspi.h ****   public:
  33:/Users/reza.kalfane/Workspaces/Daisy/DaisyExamples/libDaisy/src/per/qspi.h ****     enum Result
  34:/Users/reza.kalfane/Workspaces/Daisy/DaisyExamples/libDaisy/src/per/qspi.h ****     {
  35:/Users/reza.kalfane/Workspaces/Daisy/DaisyExamples/libDaisy/src/per/qspi.h ****         OK = 0,
  36:/Users/reza.kalfane/Workspaces/Daisy/DaisyExamples/libDaisy/src/per/qspi.h ****         ERR
  37:/Users/reza.kalfane/Workspaces/Daisy/DaisyExamples/libDaisy/src/per/qspi.h ****     };
  38:/Users/reza.kalfane/Workspaces/Daisy/DaisyExamples/libDaisy/src/per/qspi.h **** 
  39:/Users/reza.kalfane/Workspaces/Daisy/DaisyExamples/libDaisy/src/per/qspi.h ****     /** Indicates the current status of the module. 
  40:/Users/reza.kalfane/Workspaces/Daisy/DaisyExamples/libDaisy/src/per/qspi.h ****          *  Warnings are indicated by a leading W.
  41:/Users/reza.kalfane/Workspaces/Daisy/DaisyExamples/libDaisy/src/per/qspi.h ****          *  Errors are indicated by a leading E and cause an immediate exit.
  42:/Users/reza.kalfane/Workspaces/Daisy/DaisyExamples/libDaisy/src/per/qspi.h ****          * 
  43:/Users/reza.kalfane/Workspaces/Daisy/DaisyExamples/libDaisy/src/per/qspi.h ****          *  \param GOOD - No errors have been reported.
  44:/Users/reza.kalfane/Workspaces/Daisy/DaisyExamples/libDaisy/src/per/qspi.h ****          *  \param E_HAL_ERROR - HAL code did not return HAL_OK.
  45:/Users/reza.kalfane/Workspaces/Daisy/DaisyExamples/libDaisy/src/per/qspi.h ****          *  \param E_SWITCHING_MODES - An error was encountered while switching QSPI peripheral mod
  46:/Users/reza.kalfane/Workspaces/Daisy/DaisyExamples/libDaisy/src/per/qspi.h ****          *  \param E_INVALID_MODE - QSPI should not be written to while the program is executing fr
  47:/Users/reza.kalfane/Workspaces/Daisy/DaisyExamples/libDaisy/src/per/qspi.h ****          */
  48:/Users/reza.kalfane/Workspaces/Daisy/DaisyExamples/libDaisy/src/per/qspi.h ****     enum Status
  49:/Users/reza.kalfane/Workspaces/Daisy/DaisyExamples/libDaisy/src/per/qspi.h ****     {
  50:/Users/reza.kalfane/Workspaces/Daisy/DaisyExamples/libDaisy/src/per/qspi.h ****         GOOD = 0,
  51:/Users/reza.kalfane/Workspaces/Daisy/DaisyExamples/libDaisy/src/per/qspi.h ****         E_HAL_ERROR,
  52:/Users/reza.kalfane/Workspaces/Daisy/DaisyExamples/libDaisy/src/per/qspi.h ****         E_SWITCHING_MODES,
  53:/Users/reza.kalfane/Workspaces/Daisy/DaisyExamples/libDaisy/src/per/qspi.h ****         E_INVALID_MODE,
  54:/Users/reza.kalfane/Workspaces/Daisy/DaisyExamples/libDaisy/src/per/qspi.h ****     };
  55:/Users/reza.kalfane/Workspaces/Daisy/DaisyExamples/libDaisy/src/per/qspi.h **** 
  56:/Users/reza.kalfane/Workspaces/Daisy/DaisyExamples/libDaisy/src/per/qspi.h ****     /** Configuration structure for interfacing with QSPI Driver */
  57:/Users/reza.kalfane/Workspaces/Daisy/DaisyExamples/libDaisy/src/per/qspi.h ****     struct Config
  58:/Users/reza.kalfane/Workspaces/Daisy/DaisyExamples/libDaisy/src/per/qspi.h ****     {
  59:/Users/reza.kalfane/Workspaces/Daisy/DaisyExamples/libDaisy/src/per/qspi.h ****         /** Flash Devices supported. (Both of these are more-or-less the same, just different sizes
  60:/Users/reza.kalfane/Workspaces/Daisy/DaisyExamples/libDaisy/src/per/qspi.h ****         enum Device
  61:/Users/reza.kalfane/Workspaces/Daisy/DaisyExamples/libDaisy/src/per/qspi.h ****         {
  62:/Users/reza.kalfane/Workspaces/Daisy/DaisyExamples/libDaisy/src/per/qspi.h ****             IS25LP080D,  /**< & */
  63:/Users/reza.kalfane/Workspaces/Daisy/DaisyExamples/libDaisy/src/per/qspi.h ****             IS25LP064A,  /**< & */
  64:/Users/reza.kalfane/Workspaces/Daisy/DaisyExamples/libDaisy/src/per/qspi.h ****             DEVICE_LAST, /**< & */
  65:/Users/reza.kalfane/Workspaces/Daisy/DaisyExamples/libDaisy/src/per/qspi.h ****         };
  66:/Users/reza.kalfane/Workspaces/Daisy/DaisyExamples/libDaisy/src/per/qspi.h **** 
  67:/Users/reza.kalfane/Workspaces/Daisy/DaisyExamples/libDaisy/src/per/qspi.h ****         /** 
  68:/Users/reza.kalfane/Workspaces/Daisy/DaisyExamples/libDaisy/src/per/qspi.h ****         Modes of operation.
  69:/Users/reza.kalfane/Workspaces/Daisy/DaisyExamples/libDaisy/src/per/qspi.h ****         Memory Mapped mode: QSPI configured so that the QSPI can be
  70:/Users/reza.kalfane/Workspaces/Daisy/DaisyExamples/libDaisy/src/per/qspi.h ****         read from starting address 0x90000000. Writing is not
  71:/Users/reza.kalfane/Workspaces/Daisy/DaisyExamples/libDaisy/src/per/qspi.h ****         possible in this mode. \n 
  72:/Users/reza.kalfane/Workspaces/Daisy/DaisyExamples/libDaisy/src/per/qspi.h ****         Indirect Polling mode: Device driver enabled. 
  73:/Users/reza.kalfane/Workspaces/Daisy/DaisyExamples/libDaisy/src/per/qspi.h ****         */
  74:/Users/reza.kalfane/Workspaces/Daisy/DaisyExamples/libDaisy/src/per/qspi.h ****         enum Mode
  75:/Users/reza.kalfane/Workspaces/Daisy/DaisyExamples/libDaisy/src/per/qspi.h ****         {
  76:/Users/reza.kalfane/Workspaces/Daisy/DaisyExamples/libDaisy/src/per/qspi.h ****             MEMORY_MAPPED,    /**< & */
ARM GAS  /tmp/claude-502/cc2bPfvH.s 			page 226


  77:/Users/reza.kalfane/Workspaces/Daisy/DaisyExamples/libDaisy/src/per/qspi.h ****             INDIRECT_POLLING, /**< & */
  78:/Users/reza.kalfane/Workspaces/Daisy/DaisyExamples/libDaisy/src/per/qspi.h ****             MODE_LAST,
  79:/Users/reza.kalfane/Workspaces/Daisy/DaisyExamples/libDaisy/src/per/qspi.h ****         };
  80:/Users/reza.kalfane/Workspaces/Daisy/DaisyExamples/libDaisy/src/per/qspi.h **** 
  81:/Users/reza.kalfane/Workspaces/Daisy/DaisyExamples/libDaisy/src/per/qspi.h ****         //SCK,  CE# (active low)
  82:/Users/reza.kalfane/Workspaces/Daisy/DaisyExamples/libDaisy/src/per/qspi.h ****         struct
  83:/Users/reza.kalfane/Workspaces/Daisy/DaisyExamples/libDaisy/src/per/qspi.h ****         {
  84:/Users/reza.kalfane/Workspaces/Daisy/DaisyExamples/libDaisy/src/per/qspi.h ****             dsy_gpio_pin io0; /**< & */
  85:/Users/reza.kalfane/Workspaces/Daisy/DaisyExamples/libDaisy/src/per/qspi.h ****             dsy_gpio_pin io1; /**< & */
  86:/Users/reza.kalfane/Workspaces/Daisy/DaisyExamples/libDaisy/src/per/qspi.h ****             dsy_gpio_pin io2; /**< & */
  87:/Users/reza.kalfane/Workspaces/Daisy/DaisyExamples/libDaisy/src/per/qspi.h ****             dsy_gpio_pin io3; /**< & */
  88:/Users/reza.kalfane/Workspaces/Daisy/DaisyExamples/libDaisy/src/per/qspi.h ****             dsy_gpio_pin clk; /**< & */
  89:/Users/reza.kalfane/Workspaces/Daisy/DaisyExamples/libDaisy/src/per/qspi.h ****             dsy_gpio_pin ncs; /**< & */
  90:/Users/reza.kalfane/Workspaces/Daisy/DaisyExamples/libDaisy/src/per/qspi.h ****         } pin_config;
  91:/Users/reza.kalfane/Workspaces/Daisy/DaisyExamples/libDaisy/src/per/qspi.h **** 
  92:/Users/reza.kalfane/Workspaces/Daisy/DaisyExamples/libDaisy/src/per/qspi.h ****         Device device;
  93:/Users/reza.kalfane/Workspaces/Daisy/DaisyExamples/libDaisy/src/per/qspi.h ****         Mode   mode;
  94:/Users/reza.kalfane/Workspaces/Daisy/DaisyExamples/libDaisy/src/per/qspi.h ****     };
  95:/Users/reza.kalfane/Workspaces/Daisy/DaisyExamples/libDaisy/src/per/qspi.h **** 
  96:/Users/reza.kalfane/Workspaces/Daisy/DaisyExamples/libDaisy/src/per/qspi.h ****     /** 
  97:/Users/reza.kalfane/Workspaces/Daisy/DaisyExamples/libDaisy/src/per/qspi.h ****         Initializes QSPI peripheral, and Resets, and prepares memory for access.
  98:/Users/reza.kalfane/Workspaces/Daisy/DaisyExamples/libDaisy/src/per/qspi.h ****         \param config should be populated with the mode, device and pin_config before calling this 
  99:/Users/reza.kalfane/Workspaces/Daisy/DaisyExamples/libDaisy/src/per/qspi.h ****         \return Result::OK or Result::ERR
 100:/Users/reza.kalfane/Workspaces/Daisy/DaisyExamples/libDaisy/src/per/qspi.h ****         */
 101:/Users/reza.kalfane/Workspaces/Daisy/DaisyExamples/libDaisy/src/per/qspi.h ****     Result Init(const Config& config);
 102:/Users/reza.kalfane/Workspaces/Daisy/DaisyExamples/libDaisy/src/per/qspi.h **** 
 103:/Users/reza.kalfane/Workspaces/Daisy/DaisyExamples/libDaisy/src/per/qspi.h ****     /** Returns the current config. */
 104:/Users/reza.kalfane/Workspaces/Daisy/DaisyExamples/libDaisy/src/per/qspi.h ****     const Config& GetConfig() const;
 105:/Users/reza.kalfane/Workspaces/Daisy/DaisyExamples/libDaisy/src/per/qspi.h **** 
 106:/Users/reza.kalfane/Workspaces/Daisy/DaisyExamples/libDaisy/src/per/qspi.h ****     // Couldn't this just be called before anything else in init? That
 107:/Users/reza.kalfane/Workspaces/Daisy/DaisyExamples/libDaisy/src/per/qspi.h ****     // would make manually calling it unnecessary.
 108:/Users/reza.kalfane/Workspaces/Daisy/DaisyExamples/libDaisy/src/per/qspi.h ****     /** 
 109:/Users/reza.kalfane/Workspaces/Daisy/DaisyExamples/libDaisy/src/per/qspi.h ****         Deinitializes the peripheral
 110:/Users/reza.kalfane/Workspaces/Daisy/DaisyExamples/libDaisy/src/per/qspi.h ****         This should be called before reinitializing QSPI in a different mode.
 111:/Users/reza.kalfane/Workspaces/Daisy/DaisyExamples/libDaisy/src/per/qspi.h ****         \return Result::OK or Result::ERR
 112:/Users/reza.kalfane/Workspaces/Daisy/DaisyExamples/libDaisy/src/per/qspi.h ****         */
 113:/Users/reza.kalfane/Workspaces/Daisy/DaisyExamples/libDaisy/src/per/qspi.h ****     Result DeInit();
 114:/Users/reza.kalfane/Workspaces/Daisy/DaisyExamples/libDaisy/src/per/qspi.h **** 
 115:/Users/reza.kalfane/Workspaces/Daisy/DaisyExamples/libDaisy/src/per/qspi.h ****     /** 
 116:/Users/reza.kalfane/Workspaces/Daisy/DaisyExamples/libDaisy/src/per/qspi.h ****         Writes a single page to to the specified address on the QSPI chip.
 117:/Users/reza.kalfane/Workspaces/Daisy/DaisyExamples/libDaisy/src/per/qspi.h ****         For IS25LP*, page size is 256 bytes.
 118:/Users/reza.kalfane/Workspaces/Daisy/DaisyExamples/libDaisy/src/per/qspi.h ****         \param address Address to write to
 119:/Users/reza.kalfane/Workspaces/Daisy/DaisyExamples/libDaisy/src/per/qspi.h ****         \param size Buffer size
 120:/Users/reza.kalfane/Workspaces/Daisy/DaisyExamples/libDaisy/src/per/qspi.h ****         \param buffer Buffer to write
 121:/Users/reza.kalfane/Workspaces/Daisy/DaisyExamples/libDaisy/src/per/qspi.h ****         \return Result::OK or Result::ERR
 122:/Users/reza.kalfane/Workspaces/Daisy/DaisyExamples/libDaisy/src/per/qspi.h ****         */
 123:/Users/reza.kalfane/Workspaces/Daisy/DaisyExamples/libDaisy/src/per/qspi.h ****     Result WritePage(uint32_t address, uint32_t size, uint8_t* buffer);
 124:/Users/reza.kalfane/Workspaces/Daisy/DaisyExamples/libDaisy/src/per/qspi.h **** 
 125:/Users/reza.kalfane/Workspaces/Daisy/DaisyExamples/libDaisy/src/per/qspi.h ****     /** 
 126:/Users/reza.kalfane/Workspaces/Daisy/DaisyExamples/libDaisy/src/per/qspi.h ****         Writes data in buffer to to the QSPI. Starting at address to address+size 
 127:/Users/reza.kalfane/Workspaces/Daisy/DaisyExamples/libDaisy/src/per/qspi.h ****         \param address Address to write to
 128:/Users/reza.kalfane/Workspaces/Daisy/DaisyExamples/libDaisy/src/per/qspi.h ****         \param size Buffer size
 129:/Users/reza.kalfane/Workspaces/Daisy/DaisyExamples/libDaisy/src/per/qspi.h ****         \param buffer Buffer to write
 130:/Users/reza.kalfane/Workspaces/Daisy/DaisyExamples/libDaisy/src/per/qspi.h ****         \return Result::OK or Result::ERR
 131:/Users/reza.kalfane/Workspaces/Daisy/DaisyExamples/libDaisy/src/per/qspi.h ****         */
 132:/Users/reza.kalfane/Workspaces/Daisy/DaisyExamples/libDaisy/src/per/qspi.h ****     Result Write(uint32_t address, uint32_t size, uint8_t* buffer);
 133:/Users/reza.kalfane/Workspaces/Daisy/DaisyExamples/libDaisy/src/per/qspi.h **** 
ARM GAS  /tmp/claude-502/cc2bPfvH.s 			page 227


 134:/Users/reza.kalfane/Workspaces/Daisy/DaisyExamples/libDaisy/src/per/qspi.h ****     /** 
 135:/Users/reza.kalfane/Workspaces/Daisy/DaisyExamples/libDaisy/src/per/qspi.h ****         Erases the area specified on the chip.
 136:/Users/reza.kalfane/Workspaces/Daisy/DaisyExamples/libDaisy/src/per/qspi.h ****         Erasures will happen by 4K, 32K or 64K increments.
 137:/Users/reza.kalfane/Workspaces/Daisy/DaisyExamples/libDaisy/src/per/qspi.h ****         Smallest erase possible is 4kB at a time. (on IS25LP*)
 138:/Users/reza.kalfane/Workspaces/Daisy/DaisyExamples/libDaisy/src/per/qspi.h ****         \param start_addr Address to begin erasing from
 139:/Users/reza.kalfane/Workspaces/Daisy/DaisyExamples/libDaisy/src/per/qspi.h ****         \param end_addr  Address to stop erasing at
 140:/Users/reza.kalfane/Workspaces/Daisy/DaisyExamples/libDaisy/src/per/qspi.h ****         \return Result::OK or Result::ERR
 141:/Users/reza.kalfane/Workspaces/Daisy/DaisyExamples/libDaisy/src/per/qspi.h ****         */
 142:/Users/reza.kalfane/Workspaces/Daisy/DaisyExamples/libDaisy/src/per/qspi.h ****     Result Erase(uint32_t start_addr, uint32_t end_addr);
 143:/Users/reza.kalfane/Workspaces/Daisy/DaisyExamples/libDaisy/src/per/qspi.h **** 
 144:/Users/reza.kalfane/Workspaces/Daisy/DaisyExamples/libDaisy/src/per/qspi.h ****     /**  
 145:/Users/reza.kalfane/Workspaces/Daisy/DaisyExamples/libDaisy/src/per/qspi.h ****          Erases a single sector of the chip.  
 146:/Users/reza.kalfane/Workspaces/Daisy/DaisyExamples/libDaisy/src/per/qspi.h ****         TODO: Document the size of this function. 
 147:/Users/reza.kalfane/Workspaces/Daisy/DaisyExamples/libDaisy/src/per/qspi.h ****         \param address Address of sector to erase
 148:/Users/reza.kalfane/Workspaces/Daisy/DaisyExamples/libDaisy/src/per/qspi.h ****         \return Result::OK or Result::ERR
 149:/Users/reza.kalfane/Workspaces/Daisy/DaisyExamples/libDaisy/src/per/qspi.h ****         */
 150:/Users/reza.kalfane/Workspaces/Daisy/DaisyExamples/libDaisy/src/per/qspi.h ****     Result EraseSector(uint32_t address);
 151:/Users/reza.kalfane/Workspaces/Daisy/DaisyExamples/libDaisy/src/per/qspi.h **** 
 152:/Users/reza.kalfane/Workspaces/Daisy/DaisyExamples/libDaisy/src/per/qspi.h ****     /** Returns the current class status. Useful for debugging.
 153:/Users/reza.kalfane/Workspaces/Daisy/DaisyExamples/libDaisy/src/per/qspi.h ****      *  \returns Status
 154:/Users/reza.kalfane/Workspaces/Daisy/DaisyExamples/libDaisy/src/per/qspi.h ****      */
 155:/Users/reza.kalfane/Workspaces/Daisy/DaisyExamples/libDaisy/src/per/qspi.h ****     Status GetStatus();
 156:/Users/reza.kalfane/Workspaces/Daisy/DaisyExamples/libDaisy/src/per/qspi.h **** 
 157:/Users/reza.kalfane/Workspaces/Daisy/DaisyExamples/libDaisy/src/per/qspi.h ****     /** Returns a pointer to the actual memory used 
 158:/Users/reza.kalfane/Workspaces/Daisy/DaisyExamples/libDaisy/src/per/qspi.h ****      *  The memory at this address is read-only
 159:/Users/reza.kalfane/Workspaces/Daisy/DaisyExamples/libDaisy/src/per/qspi.h ****      *  to write to it use the Write function.
 160:/Users/reza.kalfane/Workspaces/Daisy/DaisyExamples/libDaisy/src/per/qspi.h ****      * 
 161:/Users/reza.kalfane/Workspaces/Daisy/DaisyExamples/libDaisy/src/per/qspi.h ****      *  \param offset returns the pointer starting this 
 162:/Users/reza.kalfane/Workspaces/Daisy/DaisyExamples/libDaisy/src/per/qspi.h ****      *                many bytes into the memory
 163:/Users/reza.kalfane/Workspaces/Daisy/DaisyExamples/libDaisy/src/per/qspi.h ****     */
 164:/Users/reza.kalfane/Workspaces/Daisy/DaisyExamples/libDaisy/src/per/qspi.h ****     void* GetData(uint32_t offset = 0);
 165:/Users/reza.kalfane/Workspaces/Daisy/DaisyExamples/libDaisy/src/per/qspi.h **** 
 166:/Users/reza.kalfane/Workspaces/Daisy/DaisyExamples/libDaisy/src/per/qspi.h ****     QSPIHandle() : pimpl_(nullptr) {}
 8315              		.loc 10 166 5 view .LVU2606
 8316              	.LBE1447:
 8317              	.LBE1446:
 8318              	.LBE1445:
 8319              	.LBE1444:
 8320              	.LBE1443:
 8321              		.loc 6 897 1 is_stmt 0 view .LVU2607
 8322 0000 10B5     		push	{r4, lr}
 8323              		.cfi_def_cfa_offset 8
 8324              		.cfi_offset 4, -8
 8325              		.cfi_offset 14, -4
 8326              	.LBB1480:
 8327              	.LBB1479:
 8328              	.LBB1468:
 8329              	.LBB1466:
 8330              	.LBB1452:
 8331              	.LBB1448:
 8332              	.LBB1449:
 8333              		.loc 10 166 34 view .LVU2608
 8334 0002 0948     		ldr	r0, .L551
 8335 0004 0024     		movs	r4, #0
 8336              	.LBE1449:
 8337              	.LBE1448:
 8338              	.LBE1452:
ARM GAS  /tmp/claude-502/cc2bPfvH.s 			page 228


 8339              	.LBE1466:
 8340              	.LBE1468:
  58:src/main.cpp  **** GPIO      led3;  // software-PWM LED on A0 (ADC0 / D15 / pin 22)
 8341              		.loc 6 58 11 view .LVU2609
 8342 0006 094A     		ldr	r2, .L551+4
 8343 0008 0949     		ldr	r1, .L551+8
 8344              	.LBB1469:
 8345              	.LBB1467:
 8346              	.LBB1453:
 8347              	.LBB1451:
 8348              	.LBB1450:
 8349              		.loc 10 166 34 view .LVU2610
 8350 000a 0460     		str	r4, [r0]
 8351              	.LVL694:
 8352              		.loc 10 166 34 view .LVU2611
 8353              	.LBE1450:
 8354              	.LBE1451:
 8355              	.LBE1453:
 8356              	.LBB1454:
 8357              	.LBI1454:
  95:/Users/reza.kalfane/Workspaces/Daisy/DaisyExamples/libDaisy/src/hid/audio.h ****     ~AudioHandle() {}
 8358              		.loc 5 95 5 is_stmt 1 view .LVU2612
 8359              	.LBB1455:
 8360              	.LBB1456:
  95:/Users/reza.kalfane/Workspaces/Daisy/DaisyExamples/libDaisy/src/hid/audio.h ****     ~AudioHandle() {}
 8361              		.loc 5 95 35 is_stmt 0 view .LVU2613
 8362 000c 4461     		str	r4, [r0, #20]
 8363              	.LVL695:
  95:/Users/reza.kalfane/Workspaces/Daisy/DaisyExamples/libDaisy/src/hid/audio.h ****     ~AudioHandle() {}
 8364              		.loc 5 95 35 view .LVU2614
 8365              	.LBE1456:
 8366              	.LBE1455:
 8367              	.LBE1454:
 8368              	.LBB1457:
 8369              	.LBI1457:
 109:/Users/reza.kalfane/Workspaces/Daisy/DaisyExamples/libDaisy/src/per/adc.h ****     ~AdcHandle() {}
 8370              		.loc 4 109 5 is_stmt 1 view .LVU2615
 109:/Users/reza.kalfane/Workspaces/Daisy/DaisyExamples/libDaisy/src/per/adc.h ****     ~AdcHandle() {}
 8371              		.loc 4 109 5 is_stmt 0 view .LVU2616
 8372              	.LBE1457:
 8373              	.LBB1458:
 8374              	.LBI1458:
 8375              		.file 11 "/Users/reza.kalfane/Workspaces/Daisy/DaisyExamples/libDaisy/src/per/dac.h"
   1:/Users/reza.kalfane/Workspaces/Daisy/DaisyExamples/libDaisy/src/per/dac.h **** #pragma once
   2:/Users/reza.kalfane/Workspaces/Daisy/DaisyExamples/libDaisy/src/per/dac.h **** #ifndef DSY_DAC_H
   3:/Users/reza.kalfane/Workspaces/Daisy/DaisyExamples/libDaisy/src/per/dac.h **** #define DSY_DAC_H
   4:/Users/reza.kalfane/Workspaces/Daisy/DaisyExamples/libDaisy/src/per/dac.h **** 
   5:/Users/reza.kalfane/Workspaces/Daisy/DaisyExamples/libDaisy/src/per/dac.h **** #include "daisy_core.h"
   6:/Users/reza.kalfane/Workspaces/Daisy/DaisyExamples/libDaisy/src/per/dac.h **** 
   7:/Users/reza.kalfane/Workspaces/Daisy/DaisyExamples/libDaisy/src/per/dac.h **** namespace daisy
   8:/Users/reza.kalfane/Workspaces/Daisy/DaisyExamples/libDaisy/src/per/dac.h **** {
   9:/Users/reza.kalfane/Workspaces/Daisy/DaisyExamples/libDaisy/src/per/dac.h **** /** @brief DAC handle for Built-in DAC Peripheral 
  10:/Users/reza.kalfane/Workspaces/Daisy/DaisyExamples/libDaisy/src/per/dac.h ****  *  @ingroup per_analog
  11:/Users/reza.kalfane/Workspaces/Daisy/DaisyExamples/libDaisy/src/per/dac.h ****  ** 
  12:/Users/reza.kalfane/Workspaces/Daisy/DaisyExamples/libDaisy/src/per/dac.h ****  ** For now only Normal Mode is supported,
  13:/Users/reza.kalfane/Workspaces/Daisy/DaisyExamples/libDaisy/src/per/dac.h ****  ** Sample and hold mode provides reduced power consumption, but requires a bit more setup.
  14:/Users/reza.kalfane/Workspaces/Daisy/DaisyExamples/libDaisy/src/per/dac.h ****  **
ARM GAS  /tmp/claude-502/cc2bPfvH.s 			page 229


  15:/Users/reza.kalfane/Workspaces/Daisy/DaisyExamples/libDaisy/src/per/dac.h ****  ** For now connecting the DAC through other internal peripherals is also not supported.
  16:/Users/reza.kalfane/Workspaces/Daisy/DaisyExamples/libDaisy/src/per/dac.h ****  **
  17:/Users/reza.kalfane/Workspaces/Daisy/DaisyExamples/libDaisy/src/per/dac.h ****  ** Since the DAC channels have dedicated pins we don't need to pass in a pin config like with
  18:/Users/reza.kalfane/Workspaces/Daisy/DaisyExamples/libDaisy/src/per/dac.h ****  ** other modules. However, it is still important to not try to use the DAC pins for anything else.
  19:/Users/reza.kalfane/Workspaces/Daisy/DaisyExamples/libDaisy/src/per/dac.h ****  ** DAC Channel 1 is on PA4, and DAC Channel 2 is on PA5
  20:/Users/reza.kalfane/Workspaces/Daisy/DaisyExamples/libDaisy/src/per/dac.h ****  ***/
  21:/Users/reza.kalfane/Workspaces/Daisy/DaisyExamples/libDaisy/src/per/dac.h **** class DacHandle
  22:/Users/reza.kalfane/Workspaces/Daisy/DaisyExamples/libDaisy/src/per/dac.h **** {
  23:/Users/reza.kalfane/Workspaces/Daisy/DaisyExamples/libDaisy/src/per/dac.h ****   public:
  24:/Users/reza.kalfane/Workspaces/Daisy/DaisyExamples/libDaisy/src/per/dac.h ****     /** Return Values for the DacHandle class */
  25:/Users/reza.kalfane/Workspaces/Daisy/DaisyExamples/libDaisy/src/per/dac.h ****     enum class Result
  26:/Users/reza.kalfane/Workspaces/Daisy/DaisyExamples/libDaisy/src/per/dac.h ****     {
  27:/Users/reza.kalfane/Workspaces/Daisy/DaisyExamples/libDaisy/src/per/dac.h ****         OK,
  28:/Users/reza.kalfane/Workspaces/Daisy/DaisyExamples/libDaisy/src/per/dac.h ****         ERR,
  29:/Users/reza.kalfane/Workspaces/Daisy/DaisyExamples/libDaisy/src/per/dac.h ****     };
  30:/Users/reza.kalfane/Workspaces/Daisy/DaisyExamples/libDaisy/src/per/dac.h **** 
  31:/Users/reza.kalfane/Workspaces/Daisy/DaisyExamples/libDaisy/src/per/dac.h ****     /** Selects which channel(s) will be configured for use. */
  32:/Users/reza.kalfane/Workspaces/Daisy/DaisyExamples/libDaisy/src/per/dac.h ****     enum class Channel
  33:/Users/reza.kalfane/Workspaces/Daisy/DaisyExamples/libDaisy/src/per/dac.h ****     {
  34:/Users/reza.kalfane/Workspaces/Daisy/DaisyExamples/libDaisy/src/per/dac.h ****         ONE,
  35:/Users/reza.kalfane/Workspaces/Daisy/DaisyExamples/libDaisy/src/per/dac.h ****         TWO,
  36:/Users/reza.kalfane/Workspaces/Daisy/DaisyExamples/libDaisy/src/per/dac.h ****         BOTH,
  37:/Users/reza.kalfane/Workspaces/Daisy/DaisyExamples/libDaisy/src/per/dac.h ****     };
  38:/Users/reza.kalfane/Workspaces/Daisy/DaisyExamples/libDaisy/src/per/dac.h **** 
  39:/Users/reza.kalfane/Workspaces/Daisy/DaisyExamples/libDaisy/src/per/dac.h ****     /** Sets the Mode for the DAC channels.
  40:/Users/reza.kalfane/Workspaces/Daisy/DaisyExamples/libDaisy/src/per/dac.h ****      **
  41:/Users/reza.kalfane/Workspaces/Daisy/DaisyExamples/libDaisy/src/per/dac.h ****      ** Polling mode uses the blocking mode to transmit a single value at a time.
  42:/Users/reza.kalfane/Workspaces/Daisy/DaisyExamples/libDaisy/src/per/dac.h ****      **
  43:/Users/reza.kalfane/Workspaces/Daisy/DaisyExamples/libDaisy/src/per/dac.h ****      ** DMA mode uses a buffer, and periodically transmits it triggering a 
  44:/Users/reza.kalfane/Workspaces/Daisy/DaisyExamples/libDaisy/src/per/dac.h ****      ** callback to fill the buffer when it is ready for more samples.
  45:/Users/reza.kalfane/Workspaces/Daisy/DaisyExamples/libDaisy/src/per/dac.h ****      ***/
  46:/Users/reza.kalfane/Workspaces/Daisy/DaisyExamples/libDaisy/src/per/dac.h ****     enum class Mode
  47:/Users/reza.kalfane/Workspaces/Daisy/DaisyExamples/libDaisy/src/per/dac.h ****     {
  48:/Users/reza.kalfane/Workspaces/Daisy/DaisyExamples/libDaisy/src/per/dac.h ****         POLLING,
  49:/Users/reza.kalfane/Workspaces/Daisy/DaisyExamples/libDaisy/src/per/dac.h ****         DMA,
  50:/Users/reza.kalfane/Workspaces/Daisy/DaisyExamples/libDaisy/src/per/dac.h ****     };
  51:/Users/reza.kalfane/Workspaces/Daisy/DaisyExamples/libDaisy/src/per/dac.h **** 
  52:/Users/reza.kalfane/Workspaces/Daisy/DaisyExamples/libDaisy/src/per/dac.h ****     /** Sets the number of bits per sample transmitted out of the DAC.
  53:/Users/reza.kalfane/Workspaces/Daisy/DaisyExamples/libDaisy/src/per/dac.h ****      ** The output range will be: 0V - VDDA
  54:/Users/reza.kalfane/Workspaces/Daisy/DaisyExamples/libDaisy/src/per/dac.h ****      ** The resolution will be roughly: bitdepth / (VDDA - 0V) 
  55:/Users/reza.kalfane/Workspaces/Daisy/DaisyExamples/libDaisy/src/per/dac.h ****      ***/
  56:/Users/reza.kalfane/Workspaces/Daisy/DaisyExamples/libDaisy/src/per/dac.h ****     enum class BitDepth
  57:/Users/reza.kalfane/Workspaces/Daisy/DaisyExamples/libDaisy/src/per/dac.h ****     {
  58:/Users/reza.kalfane/Workspaces/Daisy/DaisyExamples/libDaisy/src/per/dac.h ****         BITS_8,
  59:/Users/reza.kalfane/Workspaces/Daisy/DaisyExamples/libDaisy/src/per/dac.h ****         BITS_12
  60:/Users/reza.kalfane/Workspaces/Daisy/DaisyExamples/libDaisy/src/per/dac.h ****     };
  61:/Users/reza.kalfane/Workspaces/Daisy/DaisyExamples/libDaisy/src/per/dac.h **** 
  62:/Users/reza.kalfane/Workspaces/Daisy/DaisyExamples/libDaisy/src/per/dac.h ****     /** Sets whether the DAC output is buffered for higher drive ability. */
  63:/Users/reza.kalfane/Workspaces/Daisy/DaisyExamples/libDaisy/src/per/dac.h ****     enum class BufferState
  64:/Users/reza.kalfane/Workspaces/Daisy/DaisyExamples/libDaisy/src/per/dac.h ****     {
  65:/Users/reza.kalfane/Workspaces/Daisy/DaisyExamples/libDaisy/src/per/dac.h ****         ENABLED,
  66:/Users/reza.kalfane/Workspaces/Daisy/DaisyExamples/libDaisy/src/per/dac.h ****         DISABLED,
  67:/Users/reza.kalfane/Workspaces/Daisy/DaisyExamples/libDaisy/src/per/dac.h ****     };
  68:/Users/reza.kalfane/Workspaces/Daisy/DaisyExamples/libDaisy/src/per/dac.h **** 
  69:/Users/reza.kalfane/Workspaces/Daisy/DaisyExamples/libDaisy/src/per/dac.h ****     /** Configuration structure for initializing the DAC structure. */
  70:/Users/reza.kalfane/Workspaces/Daisy/DaisyExamples/libDaisy/src/per/dac.h ****     struct Config
  71:/Users/reza.kalfane/Workspaces/Daisy/DaisyExamples/libDaisy/src/per/dac.h ****     {
ARM GAS  /tmp/claude-502/cc2bPfvH.s 			page 230


  72:/Users/reza.kalfane/Workspaces/Daisy/DaisyExamples/libDaisy/src/per/dac.h ****         /** Target Samplerate in Hz used to configure the internal 
  73:/Users/reza.kalfane/Workspaces/Daisy/DaisyExamples/libDaisy/src/per/dac.h ****          ** timebase for DMA mode. Does nothing in POLLING mode.
  74:/Users/reza.kalfane/Workspaces/Daisy/DaisyExamples/libDaisy/src/per/dac.h ****          ** If the value is 0 at Init time this will default to 48000Hz 
  75:/Users/reza.kalfane/Workspaces/Daisy/DaisyExamples/libDaisy/src/per/dac.h ****          ** otherwise the driver will attempt meet the target.*/
  76:/Users/reza.kalfane/Workspaces/Daisy/DaisyExamples/libDaisy/src/per/dac.h ****         uint32_t target_samplerate;
  77:/Users/reza.kalfane/Workspaces/Daisy/DaisyExamples/libDaisy/src/per/dac.h **** 
  78:/Users/reza.kalfane/Workspaces/Daisy/DaisyExamples/libDaisy/src/per/dac.h ****         Channel     chn;
  79:/Users/reza.kalfane/Workspaces/Daisy/DaisyExamples/libDaisy/src/per/dac.h ****         Mode        mode;
  80:/Users/reza.kalfane/Workspaces/Daisy/DaisyExamples/libDaisy/src/per/dac.h ****         BitDepth    bitdepth;
  81:/Users/reza.kalfane/Workspaces/Daisy/DaisyExamples/libDaisy/src/per/dac.h ****         BufferState buff_state;
  82:/Users/reza.kalfane/Workspaces/Daisy/DaisyExamples/libDaisy/src/per/dac.h ****     };
  83:/Users/reza.kalfane/Workspaces/Daisy/DaisyExamples/libDaisy/src/per/dac.h **** 
  84:/Users/reza.kalfane/Workspaces/Daisy/DaisyExamples/libDaisy/src/per/dac.h ****     DacHandle() : pimpl_(nullptr) {}
 8376              		.loc 11 84 5 is_stmt 1 view .LVU2617
 8377              	.LBB1459:
 8378              	.LBB1460:
 8379              		.loc 11 84 33 is_stmt 0 view .LVU2618
 8380 000e 0462     		str	r4, [r0, #32]
 8381              	.LVL696:
 8382              		.loc 11 84 33 view .LVU2619
 8383              	.LBE1460:
 8384              	.LBE1459:
 8385              	.LBE1458:
 8386              	.LBB1461:
 8387              	.LBI1461:
  40:/Users/reza.kalfane/Workspaces/Daisy/DaisyExamples/libDaisy/src/hid/usb.h **** 
 8388              		.loc 3 40 5 is_stmt 1 view .LVU2620
  40:/Users/reza.kalfane/Workspaces/Daisy/DaisyExamples/libDaisy/src/hid/usb.h **** 
 8389              		.loc 3 40 5 is_stmt 0 view .LVU2621
 8390              	.LBE1461:
 8391              	.LBB1462:
 8392              	.LBI1462:
  96:/Users/reza.kalfane/Workspaces/Daisy/DaisyExamples/libDaisy/src/sys/system.h ****     ~System() {}
 8393              		.loc 2 96 5 is_stmt 1 view .LVU2622
  96:/Users/reza.kalfane/Workspaces/Daisy/DaisyExamples/libDaisy/src/sys/system.h ****     ~System() {}
 8394              		.loc 2 96 5 is_stmt 0 view .LVU2623
 8395              	.LBE1462:
 8396              	.LBB1463:
 8397              	.LBI1463:
 8398              		.file 12 "/Users/reza.kalfane/Workspaces/Daisy/DaisyExamples/libDaisy/src/per/sai.h"
   1:/Users/reza.kalfane/Workspaces/Daisy/DaisyExamples/libDaisy/src/per/sai.h **** #pragma once
   2:/Users/reza.kalfane/Workspaces/Daisy/DaisyExamples/libDaisy/src/per/sai.h **** #ifndef DSY_SAI_H
   3:/Users/reza.kalfane/Workspaces/Daisy/DaisyExamples/libDaisy/src/per/sai.h **** #define DSY_SAI_H
   4:/Users/reza.kalfane/Workspaces/Daisy/DaisyExamples/libDaisy/src/per/sai.h **** 
   5:/Users/reza.kalfane/Workspaces/Daisy/DaisyExamples/libDaisy/src/per/sai.h **** #include "daisy_core.h"
   6:/Users/reza.kalfane/Workspaces/Daisy/DaisyExamples/libDaisy/src/per/sai.h **** 
   7:/Users/reza.kalfane/Workspaces/Daisy/DaisyExamples/libDaisy/src/per/sai.h **** namespace daisy
   8:/Users/reza.kalfane/Workspaces/Daisy/DaisyExamples/libDaisy/src/per/sai.h **** {
   9:/Users/reza.kalfane/Workspaces/Daisy/DaisyExamples/libDaisy/src/per/sai.h **** /** 
  10:/Users/reza.kalfane/Workspaces/Daisy/DaisyExamples/libDaisy/src/per/sai.h ****  * Support for I2S Audio Protocol with different bit-depth, samplerate options
  11:/Users/reza.kalfane/Workspaces/Daisy/DaisyExamples/libDaisy/src/per/sai.h ****  * Allows for master or slave, as well as freedom of selecting direction, 
  12:/Users/reza.kalfane/Workspaces/Daisy/DaisyExamples/libDaisy/src/per/sai.h ****  * and other behavior for each peripheral, and block.
  13:/Users/reza.kalfane/Workspaces/Daisy/DaisyExamples/libDaisy/src/per/sai.h ****  * 
  14:/Users/reza.kalfane/Workspaces/Daisy/DaisyExamples/libDaisy/src/per/sai.h ****  * DMA Transfer commands must use buffers located within non-cached memory or use cache maintenance
  15:/Users/reza.kalfane/Workspaces/Daisy/DaisyExamples/libDaisy/src/per/sai.h ****  * To declare an unitialized global element in the DMA memory section:
  16:/Users/reza.kalfane/Workspaces/Daisy/DaisyExamples/libDaisy/src/per/sai.h ****  *    int32_t DSY_DMA_BUFFER_SECTOR my_buffer[96];
  17:/Users/reza.kalfane/Workspaces/Daisy/DaisyExamples/libDaisy/src/per/sai.h ****  *
ARM GAS  /tmp/claude-502/cc2bPfvH.s 			page 231


  18:/Users/reza.kalfane/Workspaces/Daisy/DaisyExamples/libDaisy/src/per/sai.h ****  * Callback functions will be called once per half of the buffer. In the above example, 
  19:/Users/reza.kalfane/Workspaces/Daisy/DaisyExamples/libDaisy/src/per/sai.h ****  * the callback function would be called once for every 48 samples.
  20:/Users/reza.kalfane/Workspaces/Daisy/DaisyExamples/libDaisy/src/per/sai.h ****  * 
  21:/Users/reza.kalfane/Workspaces/Daisy/DaisyExamples/libDaisy/src/per/sai.h ****  * Use SAI Handle like this:
  22:/Users/reza.kalfane/Workspaces/Daisy/DaisyExamples/libDaisy/src/per/sai.h ****  * 
  23:/Users/reza.kalfane/Workspaces/Daisy/DaisyExamples/libDaisy/src/per/sai.h ****  *  SaiHandle::Config sai_config;
  24:/Users/reza.kalfane/Workspaces/Daisy/DaisyExamples/libDaisy/src/per/sai.h ****  *  sai_config.periph          = SaiHandle::Config::Peripheral::SAI_1;
  25:/Users/reza.kalfane/Workspaces/Daisy/DaisyExamples/libDaisy/src/per/sai.h ****  *  sai_config.sr              = SaiHandle::Config::SampleRate::SAI_48KHZ;
  26:/Users/reza.kalfane/Workspaces/Daisy/DaisyExamples/libDaisy/src/per/sai.h ****  *  sai_config.bit_depth       = SaiHandle::Config::BitDepth::SAI_24BIT;
  27:/Users/reza.kalfane/Workspaces/Daisy/DaisyExamples/libDaisy/src/per/sai.h ****  *  sai_config.a_sync          = SaiHandle::Config::Sync::MASTER;
  28:/Users/reza.kalfane/Workspaces/Daisy/DaisyExamples/libDaisy/src/per/sai.h ****  *  sai_config.b_sync          = SaiHandle::Config::Sync::SLAVE;
  29:/Users/reza.kalfane/Workspaces/Daisy/DaisyExamples/libDaisy/src/per/sai.h ****  *  sai_config.a_dir           = SaiHandle::Config::Direction::RECEIVE;
  30:/Users/reza.kalfane/Workspaces/Daisy/DaisyExamples/libDaisy/src/per/sai.h ****  *  sai_config.b_dir           = SaiHandle::Config::Direction::TRANSMIT;
  31:/Users/reza.kalfane/Workspaces/Daisy/DaisyExamples/libDaisy/src/per/sai.h ****  *  sai_config.pin_config.fs   = {DSY_GPIOE, 4};
  32:/Users/reza.kalfane/Workspaces/Daisy/DaisyExamples/libDaisy/src/per/sai.h ****  *  sai_config.pin_config.mclk = {DSY_GPIOE, 2};
  33:/Users/reza.kalfane/Workspaces/Daisy/DaisyExamples/libDaisy/src/per/sai.h ****  *  sai_config.pin_config.sck  = {DSY_GPIOE, 5};
  34:/Users/reza.kalfane/Workspaces/Daisy/DaisyExamples/libDaisy/src/per/sai.h ****  *  sai_config.pin_config.sa   = {DSY_GPIOE, 6};
  35:/Users/reza.kalfane/Workspaces/Daisy/DaisyExamples/libDaisy/src/per/sai.h ****  *  sai_config.pin_config.sb   = {DSY_GPIOE, 3};
  36:/Users/reza.kalfane/Workspaces/Daisy/DaisyExamples/libDaisy/src/per/sai.h ****  *  // Then Initialize
  37:/Users/reza.kalfane/Workspaces/Daisy/DaisyExamples/libDaisy/src/per/sai.h ****  *  SaiHandle sai;
  38:/Users/reza.kalfane/Workspaces/Daisy/DaisyExamples/libDaisy/src/per/sai.h ****  *  sai.Init(sai_config);
  39:/Users/reza.kalfane/Workspaces/Daisy/DaisyExamples/libDaisy/src/per/sai.h ****  *  // Now you can use it:
  40:/Users/reza.kalfane/Workspaces/Daisy/DaisyExamples/libDaisy/src/per/sai.h ****  *  sai.StartDma(. . .);
  41:/Users/reza.kalfane/Workspaces/Daisy/DaisyExamples/libDaisy/src/per/sai.h ****  */
  42:/Users/reza.kalfane/Workspaces/Daisy/DaisyExamples/libDaisy/src/per/sai.h **** class SaiHandle
  43:/Users/reza.kalfane/Workspaces/Daisy/DaisyExamples/libDaisy/src/per/sai.h **** {
  44:/Users/reza.kalfane/Workspaces/Daisy/DaisyExamples/libDaisy/src/per/sai.h ****   public:
  45:/Users/reza.kalfane/Workspaces/Daisy/DaisyExamples/libDaisy/src/per/sai.h ****     /** Contains settings for initialising an SAI Interface */
  46:/Users/reza.kalfane/Workspaces/Daisy/DaisyExamples/libDaisy/src/per/sai.h ****     struct Config
  47:/Users/reza.kalfane/Workspaces/Daisy/DaisyExamples/libDaisy/src/per/sai.h ****     {
  48:/Users/reza.kalfane/Workspaces/Daisy/DaisyExamples/libDaisy/src/per/sai.h ****         /** Specifies the internal peripheral to use (mapped to different hardware pins) */
  49:/Users/reza.kalfane/Workspaces/Daisy/DaisyExamples/libDaisy/src/per/sai.h ****         enum class Peripheral
  50:/Users/reza.kalfane/Workspaces/Daisy/DaisyExamples/libDaisy/src/per/sai.h ****         {
  51:/Users/reza.kalfane/Workspaces/Daisy/DaisyExamples/libDaisy/src/per/sai.h ****             SAI_1,
  52:/Users/reza.kalfane/Workspaces/Daisy/DaisyExamples/libDaisy/src/per/sai.h ****             SAI_2,
  53:/Users/reza.kalfane/Workspaces/Daisy/DaisyExamples/libDaisy/src/per/sai.h ****         };
  54:/Users/reza.kalfane/Workspaces/Daisy/DaisyExamples/libDaisy/src/per/sai.h **** 
  55:/Users/reza.kalfane/Workspaces/Daisy/DaisyExamples/libDaisy/src/per/sai.h ****         /** Rate at which samples will be streaming to/from the device. */
  56:/Users/reza.kalfane/Workspaces/Daisy/DaisyExamples/libDaisy/src/per/sai.h ****         enum class SampleRate
  57:/Users/reza.kalfane/Workspaces/Daisy/DaisyExamples/libDaisy/src/per/sai.h ****         {
  58:/Users/reza.kalfane/Workspaces/Daisy/DaisyExamples/libDaisy/src/per/sai.h ****             SAI_8KHZ,
  59:/Users/reza.kalfane/Workspaces/Daisy/DaisyExamples/libDaisy/src/per/sai.h ****             SAI_16KHZ,
  60:/Users/reza.kalfane/Workspaces/Daisy/DaisyExamples/libDaisy/src/per/sai.h ****             SAI_32KHZ,
  61:/Users/reza.kalfane/Workspaces/Daisy/DaisyExamples/libDaisy/src/per/sai.h ****             SAI_48KHZ,
  62:/Users/reza.kalfane/Workspaces/Daisy/DaisyExamples/libDaisy/src/per/sai.h ****             SAI_96KHZ,
  63:/Users/reza.kalfane/Workspaces/Daisy/DaisyExamples/libDaisy/src/per/sai.h ****         };
  64:/Users/reza.kalfane/Workspaces/Daisy/DaisyExamples/libDaisy/src/per/sai.h **** 
  65:/Users/reza.kalfane/Workspaces/Daisy/DaisyExamples/libDaisy/src/per/sai.h ****         /** Bit Depth that the hardware expects to be transferred to/from the device. */
  66:/Users/reza.kalfane/Workspaces/Daisy/DaisyExamples/libDaisy/src/per/sai.h ****         enum class BitDepth
  67:/Users/reza.kalfane/Workspaces/Daisy/DaisyExamples/libDaisy/src/per/sai.h ****         {
  68:/Users/reza.kalfane/Workspaces/Daisy/DaisyExamples/libDaisy/src/per/sai.h ****             SAI_16BIT,
  69:/Users/reza.kalfane/Workspaces/Daisy/DaisyExamples/libDaisy/src/per/sai.h ****             SAI_24BIT,
  70:/Users/reza.kalfane/Workspaces/Daisy/DaisyExamples/libDaisy/src/per/sai.h ****             SAI_32BIT,
  71:/Users/reza.kalfane/Workspaces/Daisy/DaisyExamples/libDaisy/src/per/sai.h ****         };
  72:/Users/reza.kalfane/Workspaces/Daisy/DaisyExamples/libDaisy/src/per/sai.h **** 
  73:/Users/reza.kalfane/Workspaces/Daisy/DaisyExamples/libDaisy/src/per/sai.h ****         /** Specifies whether a particular block is the master or the slave 
  74:/Users/reza.kalfane/Workspaces/Daisy/DaisyExamples/libDaisy/src/per/sai.h ****          ** If both are set to slave, no MCLK signal will be used, and it is
ARM GAS  /tmp/claude-502/cc2bPfvH.s 			page 232


  75:/Users/reza.kalfane/Workspaces/Daisy/DaisyExamples/libDaisy/src/per/sai.h ****          ** expected that the codec will have its own xtal.
  76:/Users/reza.kalfane/Workspaces/Daisy/DaisyExamples/libDaisy/src/per/sai.h ****          */
  77:/Users/reza.kalfane/Workspaces/Daisy/DaisyExamples/libDaisy/src/per/sai.h ****         enum class Sync
  78:/Users/reza.kalfane/Workspaces/Daisy/DaisyExamples/libDaisy/src/per/sai.h ****         {
  79:/Users/reza.kalfane/Workspaces/Daisy/DaisyExamples/libDaisy/src/per/sai.h ****             MASTER,
  80:/Users/reza.kalfane/Workspaces/Daisy/DaisyExamples/libDaisy/src/per/sai.h ****             SLAVE,
  81:/Users/reza.kalfane/Workspaces/Daisy/DaisyExamples/libDaisy/src/per/sai.h ****         };
  82:/Users/reza.kalfane/Workspaces/Daisy/DaisyExamples/libDaisy/src/per/sai.h **** 
  83:/Users/reza.kalfane/Workspaces/Daisy/DaisyExamples/libDaisy/src/per/sai.h ****         /** Specifies the direction for each peripheral block. */
  84:/Users/reza.kalfane/Workspaces/Daisy/DaisyExamples/libDaisy/src/per/sai.h ****         enum class Direction
  85:/Users/reza.kalfane/Workspaces/Daisy/DaisyExamples/libDaisy/src/per/sai.h ****         {
  86:/Users/reza.kalfane/Workspaces/Daisy/DaisyExamples/libDaisy/src/per/sai.h ****             TRANSMIT,
  87:/Users/reza.kalfane/Workspaces/Daisy/DaisyExamples/libDaisy/src/per/sai.h ****             RECEIVE,
  88:/Users/reza.kalfane/Workspaces/Daisy/DaisyExamples/libDaisy/src/per/sai.h ****         };
  89:/Users/reza.kalfane/Workspaces/Daisy/DaisyExamples/libDaisy/src/per/sai.h **** 
  90:/Users/reza.kalfane/Workspaces/Daisy/DaisyExamples/libDaisy/src/per/sai.h ****         Peripheral periph;
  91:/Users/reza.kalfane/Workspaces/Daisy/DaisyExamples/libDaisy/src/per/sai.h ****         struct
  92:/Users/reza.kalfane/Workspaces/Daisy/DaisyExamples/libDaisy/src/per/sai.h ****         {
  93:/Users/reza.kalfane/Workspaces/Daisy/DaisyExamples/libDaisy/src/per/sai.h ****             dsy_gpio_pin mclk, fs, sck, sa, sb;
  94:/Users/reza.kalfane/Workspaces/Daisy/DaisyExamples/libDaisy/src/per/sai.h ****         } pin_config;
  95:/Users/reza.kalfane/Workspaces/Daisy/DaisyExamples/libDaisy/src/per/sai.h ****         SampleRate sr;
  96:/Users/reza.kalfane/Workspaces/Daisy/DaisyExamples/libDaisy/src/per/sai.h ****         BitDepth   bit_depth;
  97:/Users/reza.kalfane/Workspaces/Daisy/DaisyExamples/libDaisy/src/per/sai.h ****         Sync       a_sync, b_sync;
  98:/Users/reza.kalfane/Workspaces/Daisy/DaisyExamples/libDaisy/src/per/sai.h ****         Direction  a_dir, b_dir;
  99:/Users/reza.kalfane/Workspaces/Daisy/DaisyExamples/libDaisy/src/per/sai.h ****     };
 100:/Users/reza.kalfane/Workspaces/Daisy/DaisyExamples/libDaisy/src/per/sai.h **** 
 101:/Users/reza.kalfane/Workspaces/Daisy/DaisyExamples/libDaisy/src/per/sai.h ****     /** Return values for SAI functions */
 102:/Users/reza.kalfane/Workspaces/Daisy/DaisyExamples/libDaisy/src/per/sai.h ****     enum class Result
 103:/Users/reza.kalfane/Workspaces/Daisy/DaisyExamples/libDaisy/src/per/sai.h ****     {
 104:/Users/reza.kalfane/Workspaces/Daisy/DaisyExamples/libDaisy/src/per/sai.h ****         OK,
 105:/Users/reza.kalfane/Workspaces/Daisy/DaisyExamples/libDaisy/src/per/sai.h ****         ERR,
 106:/Users/reza.kalfane/Workspaces/Daisy/DaisyExamples/libDaisy/src/per/sai.h ****     };
 107:/Users/reza.kalfane/Workspaces/Daisy/DaisyExamples/libDaisy/src/per/sai.h **** 
 108:/Users/reza.kalfane/Workspaces/Daisy/DaisyExamples/libDaisy/src/per/sai.h ****     SaiHandle() : pimpl_(nullptr) {}
 8399              		.loc 12 108 5 is_stmt 1 view .LVU2624
 8400              	.LBB1464:
 8401              	.LBB1465:
 8402              		.loc 12 108 33 is_stmt 0 view .LVU2625
 8403 0010 C463     		str	r4, [r0, #60]
 8404              	.LVL697:
 8405              		.loc 12 108 33 view .LVU2626
 8406              	.LBE1465:
 8407              	.LBE1464:
 8408              	.LBE1463:
 8409              	.LBE1467:
 8410              	.LBE1469:
  58:src/main.cpp  **** GPIO      led3;  // software-PWM LED on A0 (ADC0 / D15 / pin 22)
 8411              		.loc 6 58 11 view .LVU2627
 8412 0012 FFF7FEFF 		bl	__aeabi_atexit
 8413              	.LVL698:
 8414              	.LBB1470:
 8415              	.LBI1470:
 8416              		.file 13 "/Users/reza.kalfane/Workspaces/Daisy/DaisyExamples/libDaisy/src/per/gpio.h"
   1:/Users/reza.kalfane/Workspaces/Daisy/DaisyExamples/libDaisy/src/per/gpio.h **** #pragma once
   2:/Users/reza.kalfane/Workspaces/Daisy/DaisyExamples/libDaisy/src/per/gpio.h **** #ifndef DSY_GPIO_H
   3:/Users/reza.kalfane/Workspaces/Daisy/DaisyExamples/libDaisy/src/per/gpio.h **** #define DSY_GPIO_H
   4:/Users/reza.kalfane/Workspaces/Daisy/DaisyExamples/libDaisy/src/per/gpio.h **** #include "daisy_core.h"
ARM GAS  /tmp/claude-502/cc2bPfvH.s 			page 233


   5:/Users/reza.kalfane/Workspaces/Daisy/DaisyExamples/libDaisy/src/per/gpio.h **** 
   6:/Users/reza.kalfane/Workspaces/Daisy/DaisyExamples/libDaisy/src/per/gpio.h **** #ifdef __cplusplus
   7:/Users/reza.kalfane/Workspaces/Daisy/DaisyExamples/libDaisy/src/per/gpio.h **** 
   8:/Users/reza.kalfane/Workspaces/Daisy/DaisyExamples/libDaisy/src/per/gpio.h **** namespace daisy
   9:/Users/reza.kalfane/Workspaces/Daisy/DaisyExamples/libDaisy/src/per/gpio.h **** {
  10:/Users/reza.kalfane/Workspaces/Daisy/DaisyExamples/libDaisy/src/per/gpio.h **** /** @brief General Purpose I/O control 
  11:/Users/reza.kalfane/Workspaces/Daisy/DaisyExamples/libDaisy/src/per/gpio.h ****  *  @details peripheral control over a single GPIO
  12:/Users/reza.kalfane/Workspaces/Daisy/DaisyExamples/libDaisy/src/per/gpio.h ****  *  @ingroup peripheral
  13:/Users/reza.kalfane/Workspaces/Daisy/DaisyExamples/libDaisy/src/per/gpio.h ****  *   
  14:/Users/reza.kalfane/Workspaces/Daisy/DaisyExamples/libDaisy/src/per/gpio.h ****  *  Button Input (with internal Pullup resistor)
  15:/Users/reza.kalfane/Workspaces/Daisy/DaisyExamples/libDaisy/src/per/gpio.h ****  *  @include GPIO_Input.cpp 
  16:/Users/reza.kalfane/Workspaces/Daisy/DaisyExamples/libDaisy/src/per/gpio.h ****  * 
  17:/Users/reza.kalfane/Workspaces/Daisy/DaisyExamples/libDaisy/src/per/gpio.h ****  *  Output Example (perfect for blinking an LED)
  18:/Users/reza.kalfane/Workspaces/Daisy/DaisyExamples/libDaisy/src/per/gpio.h ****  *  @include GPIO_Output.cpp
  19:/Users/reza.kalfane/Workspaces/Daisy/DaisyExamples/libDaisy/src/per/gpio.h ****  * 
  20:/Users/reza.kalfane/Workspaces/Daisy/DaisyExamples/libDaisy/src/per/gpio.h **** */
  21:/Users/reza.kalfane/Workspaces/Daisy/DaisyExamples/libDaisy/src/per/gpio.h **** class GPIO
  22:/Users/reza.kalfane/Workspaces/Daisy/DaisyExamples/libDaisy/src/per/gpio.h **** {
  23:/Users/reza.kalfane/Workspaces/Daisy/DaisyExamples/libDaisy/src/per/gpio.h ****   public:
  24:/Users/reza.kalfane/Workspaces/Daisy/DaisyExamples/libDaisy/src/per/gpio.h ****     /** @brief Mode of operation for the specified GPIO */
  25:/Users/reza.kalfane/Workspaces/Daisy/DaisyExamples/libDaisy/src/per/gpio.h ****     enum class Mode
  26:/Users/reza.kalfane/Workspaces/Daisy/DaisyExamples/libDaisy/src/per/gpio.h ****     {
  27:/Users/reza.kalfane/Workspaces/Daisy/DaisyExamples/libDaisy/src/per/gpio.h ****         INPUT,     /**< Input for reading state of pin */
  28:/Users/reza.kalfane/Workspaces/Daisy/DaisyExamples/libDaisy/src/per/gpio.h ****         OUTPUT,    /**< Output w/ push-pull configuration */
  29:/Users/reza.kalfane/Workspaces/Daisy/DaisyExamples/libDaisy/src/per/gpio.h ****         OUTPUT_OD, /**< Output w/ open-drain configuration */
  30:/Users/reza.kalfane/Workspaces/Daisy/DaisyExamples/libDaisy/src/per/gpio.h ****         ANALOG,    /**< Analog for connection to ADC or DAC peripheral */
  31:/Users/reza.kalfane/Workspaces/Daisy/DaisyExamples/libDaisy/src/per/gpio.h ****     };
  32:/Users/reza.kalfane/Workspaces/Daisy/DaisyExamples/libDaisy/src/per/gpio.h **** 
  33:/Users/reza.kalfane/Workspaces/Daisy/DaisyExamples/libDaisy/src/per/gpio.h ****     /** @brief Configures whether an internal Pull up or Pull down resistor is used. 
  34:/Users/reza.kalfane/Workspaces/Daisy/DaisyExamples/libDaisy/src/per/gpio.h ****      *  
  35:/Users/reza.kalfane/Workspaces/Daisy/DaisyExamples/libDaisy/src/per/gpio.h ****      * Internal Pull up/down resistors are typically 40k ohms, and will be between
  36:/Users/reza.kalfane/Workspaces/Daisy/DaisyExamples/libDaisy/src/per/gpio.h ****      * 30k and 50k
  37:/Users/reza.kalfane/Workspaces/Daisy/DaisyExamples/libDaisy/src/per/gpio.h ****      * 
  38:/Users/reza.kalfane/Workspaces/Daisy/DaisyExamples/libDaisy/src/per/gpio.h ****      * When the Pin is configured in Analog mode, the pull up/down resistors are
  39:/Users/reza.kalfane/Workspaces/Daisy/DaisyExamples/libDaisy/src/per/gpio.h ****      * disabled by hardware. 
  40:/Users/reza.kalfane/Workspaces/Daisy/DaisyExamples/libDaisy/src/per/gpio.h ****      */
  41:/Users/reza.kalfane/Workspaces/Daisy/DaisyExamples/libDaisy/src/per/gpio.h ****     enum class Pull
  42:/Users/reza.kalfane/Workspaces/Daisy/DaisyExamples/libDaisy/src/per/gpio.h ****     {
  43:/Users/reza.kalfane/Workspaces/Daisy/DaisyExamples/libDaisy/src/per/gpio.h ****         NOPULL,   /**< No pull up resistor */
  44:/Users/reza.kalfane/Workspaces/Daisy/DaisyExamples/libDaisy/src/per/gpio.h ****         PULLUP,   /**< Internal pull up enabled */
  45:/Users/reza.kalfane/Workspaces/Daisy/DaisyExamples/libDaisy/src/per/gpio.h ****         PULLDOWN, /**< Internal pull down enabled*/
  46:/Users/reza.kalfane/Workspaces/Daisy/DaisyExamples/libDaisy/src/per/gpio.h ****     };
  47:/Users/reza.kalfane/Workspaces/Daisy/DaisyExamples/libDaisy/src/per/gpio.h **** 
  48:/Users/reza.kalfane/Workspaces/Daisy/DaisyExamples/libDaisy/src/per/gpio.h ****     /** @brief Output speed controls the drive strength, and slew rate of the pin */
  49:/Users/reza.kalfane/Workspaces/Daisy/DaisyExamples/libDaisy/src/per/gpio.h ****     enum class Speed
  50:/Users/reza.kalfane/Workspaces/Daisy/DaisyExamples/libDaisy/src/per/gpio.h ****     {
  51:/Users/reza.kalfane/Workspaces/Daisy/DaisyExamples/libDaisy/src/per/gpio.h ****         LOW,
  52:/Users/reza.kalfane/Workspaces/Daisy/DaisyExamples/libDaisy/src/per/gpio.h ****         MEDIUM,
  53:/Users/reza.kalfane/Workspaces/Daisy/DaisyExamples/libDaisy/src/per/gpio.h ****         HIGH,
  54:/Users/reza.kalfane/Workspaces/Daisy/DaisyExamples/libDaisy/src/per/gpio.h ****         VERY_HIGH,
  55:/Users/reza.kalfane/Workspaces/Daisy/DaisyExamples/libDaisy/src/per/gpio.h ****     };
  56:/Users/reza.kalfane/Workspaces/Daisy/DaisyExamples/libDaisy/src/per/gpio.h **** 
  57:/Users/reza.kalfane/Workspaces/Daisy/DaisyExamples/libDaisy/src/per/gpio.h ****     /** @brief Configuration for a given GPIO */
  58:/Users/reza.kalfane/Workspaces/Daisy/DaisyExamples/libDaisy/src/per/gpio.h ****     struct Config
  59:/Users/reza.kalfane/Workspaces/Daisy/DaisyExamples/libDaisy/src/per/gpio.h ****     {
  60:/Users/reza.kalfane/Workspaces/Daisy/DaisyExamples/libDaisy/src/per/gpio.h ****         Pin   pin;
  61:/Users/reza.kalfane/Workspaces/Daisy/DaisyExamples/libDaisy/src/per/gpio.h ****         Mode  mode;
ARM GAS  /tmp/claude-502/cc2bPfvH.s 			page 234


  62:/Users/reza.kalfane/Workspaces/Daisy/DaisyExamples/libDaisy/src/per/gpio.h ****         Pull  pull;
  63:/Users/reza.kalfane/Workspaces/Daisy/DaisyExamples/libDaisy/src/per/gpio.h ****         Speed speed;
  64:/Users/reza.kalfane/Workspaces/Daisy/DaisyExamples/libDaisy/src/per/gpio.h **** 
  65:/Users/reza.kalfane/Workspaces/Daisy/DaisyExamples/libDaisy/src/per/gpio.h ****         /** Constructor with no arguments will prepare an invalid GPIO set as
  66:/Users/reza.kalfane/Workspaces/Daisy/DaisyExamples/libDaisy/src/per/gpio.h ****          *  an input, with no pullup. 
  67:/Users/reza.kalfane/Workspaces/Daisy/DaisyExamples/libDaisy/src/per/gpio.h ****          */
  68:/Users/reza.kalfane/Workspaces/Daisy/DaisyExamples/libDaisy/src/per/gpio.h ****         Config()
  69:/Users/reza.kalfane/Workspaces/Daisy/DaisyExamples/libDaisy/src/per/gpio.h ****         : pin(), mode(Mode::INPUT), pull(Pull::NOPULL), speed(Speed::LOW)
  70:/Users/reza.kalfane/Workspaces/Daisy/DaisyExamples/libDaisy/src/per/gpio.h ****         {
  71:/Users/reza.kalfane/Workspaces/Daisy/DaisyExamples/libDaisy/src/per/gpio.h ****         }
  72:/Users/reza.kalfane/Workspaces/Daisy/DaisyExamples/libDaisy/src/per/gpio.h ****     };
  73:/Users/reza.kalfane/Workspaces/Daisy/DaisyExamples/libDaisy/src/per/gpio.h **** 
  74:/Users/reza.kalfane/Workspaces/Daisy/DaisyExamples/libDaisy/src/per/gpio.h ****     GPIO() {}
 8417              		.loc 13 74 5 is_stmt 1 view .LVU2628
 8418              	.LBB1471:
 8419              	.LBB1472:
 8420              	.LBI1472:
  68:/Users/reza.kalfane/Workspaces/Daisy/DaisyExamples/libDaisy/src/per/gpio.h ****         : pin(), mode(Mode::INPUT), pull(Pull::NOPULL), speed(Speed::LOW)
 8421              		.loc 13 68 9 view .LVU2629
 8422              	.LBB1473:
 8423              	.LBB1474:
 8424              	.LBB1475:
 8425              	.LBI1475:
 8426              		.file 14 "/Users/reza.kalfane/Workspaces/Daisy/DaisyExamples/libDaisy/src/daisy_core.h"
   1:/Users/reza.kalfane/Workspaces/Daisy/DaisyExamples/libDaisy/src/daisy_core.h **** #pragma once
   2:/Users/reza.kalfane/Workspaces/Daisy/DaisyExamples/libDaisy/src/daisy_core.h **** #ifndef DSY_CORE_HW_H
   3:/Users/reza.kalfane/Workspaces/Daisy/DaisyExamples/libDaisy/src/daisy_core.h **** #define DSY_CORE_HW_H /**< & */
   4:/Users/reza.kalfane/Workspaces/Daisy/DaisyExamples/libDaisy/src/daisy_core.h **** #include <stdint.h>
   5:/Users/reza.kalfane/Workspaces/Daisy/DaisyExamples/libDaisy/src/daisy_core.h **** #include <stdlib.h>
   6:/Users/reza.kalfane/Workspaces/Daisy/DaisyExamples/libDaisy/src/daisy_core.h **** 
   7:/Users/reza.kalfane/Workspaces/Daisy/DaisyExamples/libDaisy/src/daisy_core.h **** #if defined(_MSC_VER)
   8:/Users/reza.kalfane/Workspaces/Daisy/DaisyExamples/libDaisy/src/daisy_core.h **** #define FORCE_INLINE __forceinline /**< & */
   9:/Users/reza.kalfane/Workspaces/Daisy/DaisyExamples/libDaisy/src/daisy_core.h **** #elif defined(__clang__)
  10:/Users/reza.kalfane/Workspaces/Daisy/DaisyExamples/libDaisy/src/daisy_core.h **** #define FORCE_INLINE inline __attribute__((always_inline)) /**< & */
  11:/Users/reza.kalfane/Workspaces/Daisy/DaisyExamples/libDaisy/src/daisy_core.h **** #pragma clang diagnostic ignored "-Wduplicate-decl-specifier"
  12:/Users/reza.kalfane/Workspaces/Daisy/DaisyExamples/libDaisy/src/daisy_core.h **** #elif defined(__GNUC__)
  13:/Users/reza.kalfane/Workspaces/Daisy/DaisyExamples/libDaisy/src/daisy_core.h **** #define FORCE_INLINE inline __attribute__((always_inline)) /**< & */
  14:/Users/reza.kalfane/Workspaces/Daisy/DaisyExamples/libDaisy/src/daisy_core.h **** #else
  15:/Users/reza.kalfane/Workspaces/Daisy/DaisyExamples/libDaisy/src/daisy_core.h **** #error unknown compiler
  16:/Users/reza.kalfane/Workspaces/Daisy/DaisyExamples/libDaisy/src/daisy_core.h **** #endif
  17:/Users/reza.kalfane/Workspaces/Daisy/DaisyExamples/libDaisy/src/daisy_core.h **** 
  18:/Users/reza.kalfane/Workspaces/Daisy/DaisyExamples/libDaisy/src/daisy_core.h **** /** @addtogroup utility
  19:/Users/reza.kalfane/Workspaces/Daisy/DaisyExamples/libDaisy/src/daisy_core.h ****     @{
  20:/Users/reza.kalfane/Workspaces/Daisy/DaisyExamples/libDaisy/src/daisy_core.h **** */
  21:/Users/reza.kalfane/Workspaces/Daisy/DaisyExamples/libDaisy/src/daisy_core.h **** 
  22:/Users/reza.kalfane/Workspaces/Daisy/DaisyExamples/libDaisy/src/daisy_core.h **** /** Macro for area of memory that is configured as cacheless
  23:/Users/reza.kalfane/Workspaces/Daisy/DaisyExamples/libDaisy/src/daisy_core.h **** This should be used primarily for DMA buffers, and the like.
  24:/Users/reza.kalfane/Workspaces/Daisy/DaisyExamples/libDaisy/src/daisy_core.h **** */
  25:/Users/reza.kalfane/Workspaces/Daisy/DaisyExamples/libDaisy/src/daisy_core.h **** #define DMA_BUFFER_MEM_SECTION __attribute__((section(".sram1_bss")))
  26:/Users/reza.kalfane/Workspaces/Daisy/DaisyExamples/libDaisy/src/daisy_core.h **** /** 
  27:/Users/reza.kalfane/Workspaces/Daisy/DaisyExamples/libDaisy/src/daisy_core.h **** THE DTCM RAM section is also non-cached. However, is not suitable 
  28:/Users/reza.kalfane/Workspaces/Daisy/DaisyExamples/libDaisy/src/daisy_core.h **** for DMA transfers. Performance is on par with internal SRAM w/ 
  29:/Users/reza.kalfane/Workspaces/Daisy/DaisyExamples/libDaisy/src/daisy_core.h **** cache enabled.
  30:/Users/reza.kalfane/Workspaces/Daisy/DaisyExamples/libDaisy/src/daisy_core.h **** */
  31:/Users/reza.kalfane/Workspaces/Daisy/DaisyExamples/libDaisy/src/daisy_core.h **** #define DTCM_MEM_SECTION __attribute__((section(".dtcmram_bss")))
  32:/Users/reza.kalfane/Workspaces/Daisy/DaisyExamples/libDaisy/src/daisy_core.h **** 
  33:/Users/reza.kalfane/Workspaces/Daisy/DaisyExamples/libDaisy/src/daisy_core.h **** #define FBIPMAX 0.999985f             /**< close to 1.0f-LSB at 16 bit */
ARM GAS  /tmp/claude-502/cc2bPfvH.s 			page 235


  34:/Users/reza.kalfane/Workspaces/Daisy/DaisyExamples/libDaisy/src/daisy_core.h **** #define FBIPMIN (-FBIPMAX)            /**< - (1 - LSB) */
  35:/Users/reza.kalfane/Workspaces/Daisy/DaisyExamples/libDaisy/src/daisy_core.h **** #define U82F_SCALE 0.0078740f         /**< 1 / 127 */
  36:/Users/reza.kalfane/Workspaces/Daisy/DaisyExamples/libDaisy/src/daisy_core.h **** #define F2U8_SCALE 127.0f             /**< 128 - 1 */
  37:/Users/reza.kalfane/Workspaces/Daisy/DaisyExamples/libDaisy/src/daisy_core.h **** #define S82F_SCALE 0.0078125f         /**< 1 / (2**7) */
  38:/Users/reza.kalfane/Workspaces/Daisy/DaisyExamples/libDaisy/src/daisy_core.h **** #define F2S8_SCALE 127.0f             /**< (2 ** 7) - 1 */
  39:/Users/reza.kalfane/Workspaces/Daisy/DaisyExamples/libDaisy/src/daisy_core.h **** #define S162F_SCALE 3.0517578125e-05f /**< 1 / (2** 15) */
  40:/Users/reza.kalfane/Workspaces/Daisy/DaisyExamples/libDaisy/src/daisy_core.h **** #define F2S16_SCALE 32767.0f          /**< (2 ** 15) - 1 */
  41:/Users/reza.kalfane/Workspaces/Daisy/DaisyExamples/libDaisy/src/daisy_core.h **** #define F2S24_SCALE 8388608.0f        /**< 2 ** 23 */
  42:/Users/reza.kalfane/Workspaces/Daisy/DaisyExamples/libDaisy/src/daisy_core.h **** #define S242F_SCALE 1.192092896e-07f  /**< 1 / (2 ** 23) */
  43:/Users/reza.kalfane/Workspaces/Daisy/DaisyExamples/libDaisy/src/daisy_core.h **** #define S24SIGN 0x800000              /**< 2 ** 23 */
  44:/Users/reza.kalfane/Workspaces/Daisy/DaisyExamples/libDaisy/src/daisy_core.h **** #define S322F_SCALE 4.6566129e-10f    /**< 1 / (2** 31) */
  45:/Users/reza.kalfane/Workspaces/Daisy/DaisyExamples/libDaisy/src/daisy_core.h **** #define F2S32_SCALE 2147483647.f      /**< (2 ** 31) - 1 */
  46:/Users/reza.kalfane/Workspaces/Daisy/DaisyExamples/libDaisy/src/daisy_core.h **** 
  47:/Users/reza.kalfane/Workspaces/Daisy/DaisyExamples/libDaisy/src/daisy_core.h **** 
  48:/Users/reza.kalfane/Workspaces/Daisy/DaisyExamples/libDaisy/src/daisy_core.h **** /** shorthand macro for simplifying the reading of the left 
  49:/Users/reza.kalfane/Workspaces/Daisy/DaisyExamples/libDaisy/src/daisy_core.h ****  *  channel of a non-interleaved output buffer named out */
  50:/Users/reza.kalfane/Workspaces/Daisy/DaisyExamples/libDaisy/src/daisy_core.h **** #define OUT_L out[0]
  51:/Users/reza.kalfane/Workspaces/Daisy/DaisyExamples/libDaisy/src/daisy_core.h **** 
  52:/Users/reza.kalfane/Workspaces/Daisy/DaisyExamples/libDaisy/src/daisy_core.h **** /** shorthand macro for simplifying the reading of the right 
  53:/Users/reza.kalfane/Workspaces/Daisy/DaisyExamples/libDaisy/src/daisy_core.h ****  *  channel of a non-interleaved output buffer named out */
  54:/Users/reza.kalfane/Workspaces/Daisy/DaisyExamples/libDaisy/src/daisy_core.h **** #define OUT_R out[1]
  55:/Users/reza.kalfane/Workspaces/Daisy/DaisyExamples/libDaisy/src/daisy_core.h **** 
  56:/Users/reza.kalfane/Workspaces/Daisy/DaisyExamples/libDaisy/src/daisy_core.h **** /** shorthand macro for simplifying the reading of the left 
  57:/Users/reza.kalfane/Workspaces/Daisy/DaisyExamples/libDaisy/src/daisy_core.h ****  *  channel of a non-interleaved input buffer named in */
  58:/Users/reza.kalfane/Workspaces/Daisy/DaisyExamples/libDaisy/src/daisy_core.h **** #define IN_L in[0]
  59:/Users/reza.kalfane/Workspaces/Daisy/DaisyExamples/libDaisy/src/daisy_core.h **** 
  60:/Users/reza.kalfane/Workspaces/Daisy/DaisyExamples/libDaisy/src/daisy_core.h **** /** shorthand macro for simplifying the reading of the right 
  61:/Users/reza.kalfane/Workspaces/Daisy/DaisyExamples/libDaisy/src/daisy_core.h ****  *  channel of a non-interleaved input buffer named in */
  62:/Users/reza.kalfane/Workspaces/Daisy/DaisyExamples/libDaisy/src/daisy_core.h **** #define IN_R in[1]
  63:/Users/reza.kalfane/Workspaces/Daisy/DaisyExamples/libDaisy/src/daisy_core.h **** 
  64:/Users/reza.kalfane/Workspaces/Daisy/DaisyExamples/libDaisy/src/daisy_core.h **** /** 
  65:/Users/reza.kalfane/Workspaces/Daisy/DaisyExamples/libDaisy/src/daisy_core.h ****     Computes cube.
  66:/Users/reza.kalfane/Workspaces/Daisy/DaisyExamples/libDaisy/src/daisy_core.h ****     \param x Number to be cubed
  67:/Users/reza.kalfane/Workspaces/Daisy/DaisyExamples/libDaisy/src/daisy_core.h ****     \return x ^ 3
  68:/Users/reza.kalfane/Workspaces/Daisy/DaisyExamples/libDaisy/src/daisy_core.h **** */
  69:/Users/reza.kalfane/Workspaces/Daisy/DaisyExamples/libDaisy/src/daisy_core.h **** FORCE_INLINE float cube(float x)
  70:/Users/reza.kalfane/Workspaces/Daisy/DaisyExamples/libDaisy/src/daisy_core.h **** {
  71:/Users/reza.kalfane/Workspaces/Daisy/DaisyExamples/libDaisy/src/daisy_core.h ****     return (x * x) * x;
  72:/Users/reza.kalfane/Workspaces/Daisy/DaisyExamples/libDaisy/src/daisy_core.h **** }
  73:/Users/reza.kalfane/Workspaces/Daisy/DaisyExamples/libDaisy/src/daisy_core.h **** 
  74:/Users/reza.kalfane/Workspaces/Daisy/DaisyExamples/libDaisy/src/daisy_core.h **** /** 
  75:/Users/reza.kalfane/Workspaces/Daisy/DaisyExamples/libDaisy/src/daisy_core.h ****     Converts unsigned 8-bit to float
  76:/Users/reza.kalfane/Workspaces/Daisy/DaisyExamples/libDaisy/src/daisy_core.h ****     \param x Number to be scaled.
  77:/Users/reza.kalfane/Workspaces/Daisy/DaisyExamples/libDaisy/src/daisy_core.h ****     \return Scaled number.
  78:/Users/reza.kalfane/Workspaces/Daisy/DaisyExamples/libDaisy/src/daisy_core.h **** */
  79:/Users/reza.kalfane/Workspaces/Daisy/DaisyExamples/libDaisy/src/daisy_core.h **** FORCE_INLINE float u82f(uint8_t x)
  80:/Users/reza.kalfane/Workspaces/Daisy/DaisyExamples/libDaisy/src/daisy_core.h **** {
  81:/Users/reza.kalfane/Workspaces/Daisy/DaisyExamples/libDaisy/src/daisy_core.h ****     return ((float)x - 127.f) * U82F_SCALE;
  82:/Users/reza.kalfane/Workspaces/Daisy/DaisyExamples/libDaisy/src/daisy_core.h **** }
  83:/Users/reza.kalfane/Workspaces/Daisy/DaisyExamples/libDaisy/src/daisy_core.h **** 
  84:/Users/reza.kalfane/Workspaces/Daisy/DaisyExamples/libDaisy/src/daisy_core.h **** /**
  85:/Users/reza.kalfane/Workspaces/Daisy/DaisyExamples/libDaisy/src/daisy_core.h ****     Converts float to unsigned 8-bit
  86:/Users/reza.kalfane/Workspaces/Daisy/DaisyExamples/libDaisy/src/daisy_core.h **** */
  87:/Users/reza.kalfane/Workspaces/Daisy/DaisyExamples/libDaisy/src/daisy_core.h **** FORCE_INLINE uint8_t f2u8(float x)
  88:/Users/reza.kalfane/Workspaces/Daisy/DaisyExamples/libDaisy/src/daisy_core.h **** {
  89:/Users/reza.kalfane/Workspaces/Daisy/DaisyExamples/libDaisy/src/daisy_core.h ****     x = x <= FBIPMIN ? FBIPMIN : x;
  90:/Users/reza.kalfane/Workspaces/Daisy/DaisyExamples/libDaisy/src/daisy_core.h ****     x = x >= FBIPMAX ? FBIPMAX : x;
ARM GAS  /tmp/claude-502/cc2bPfvH.s 			page 236


  91:/Users/reza.kalfane/Workspaces/Daisy/DaisyExamples/libDaisy/src/daisy_core.h ****     return (uint8_t)((x * F2U8_SCALE) + F2U8_SCALE);
  92:/Users/reza.kalfane/Workspaces/Daisy/DaisyExamples/libDaisy/src/daisy_core.h **** }
  93:/Users/reza.kalfane/Workspaces/Daisy/DaisyExamples/libDaisy/src/daisy_core.h **** 
  94:/Users/reza.kalfane/Workspaces/Daisy/DaisyExamples/libDaisy/src/daisy_core.h **** 
  95:/Users/reza.kalfane/Workspaces/Daisy/DaisyExamples/libDaisy/src/daisy_core.h **** /** 
  96:/Users/reza.kalfane/Workspaces/Daisy/DaisyExamples/libDaisy/src/daisy_core.h ****     Converts Signed 8-bit to float
  97:/Users/reza.kalfane/Workspaces/Daisy/DaisyExamples/libDaisy/src/daisy_core.h ****     \param x Number to be scaled.
  98:/Users/reza.kalfane/Workspaces/Daisy/DaisyExamples/libDaisy/src/daisy_core.h ****     \return Scaled number.
  99:/Users/reza.kalfane/Workspaces/Daisy/DaisyExamples/libDaisy/src/daisy_core.h **** */
 100:/Users/reza.kalfane/Workspaces/Daisy/DaisyExamples/libDaisy/src/daisy_core.h **** FORCE_INLINE float s82f(int8_t x)
 101:/Users/reza.kalfane/Workspaces/Daisy/DaisyExamples/libDaisy/src/daisy_core.h **** {
 102:/Users/reza.kalfane/Workspaces/Daisy/DaisyExamples/libDaisy/src/daisy_core.h ****     return (float)x * S82F_SCALE;
 103:/Users/reza.kalfane/Workspaces/Daisy/DaisyExamples/libDaisy/src/daisy_core.h **** }
 104:/Users/reza.kalfane/Workspaces/Daisy/DaisyExamples/libDaisy/src/daisy_core.h **** 
 105:/Users/reza.kalfane/Workspaces/Daisy/DaisyExamples/libDaisy/src/daisy_core.h **** /**
 106:/Users/reza.kalfane/Workspaces/Daisy/DaisyExamples/libDaisy/src/daisy_core.h ****     Converts float to Signed 8-bit
 107:/Users/reza.kalfane/Workspaces/Daisy/DaisyExamples/libDaisy/src/daisy_core.h **** */
 108:/Users/reza.kalfane/Workspaces/Daisy/DaisyExamples/libDaisy/src/daisy_core.h **** FORCE_INLINE int8_t f2s8(float x)
 109:/Users/reza.kalfane/Workspaces/Daisy/DaisyExamples/libDaisy/src/daisy_core.h **** {
 110:/Users/reza.kalfane/Workspaces/Daisy/DaisyExamples/libDaisy/src/daisy_core.h ****     x = x <= FBIPMIN ? FBIPMIN : x;
 111:/Users/reza.kalfane/Workspaces/Daisy/DaisyExamples/libDaisy/src/daisy_core.h ****     x = x >= FBIPMAX ? FBIPMAX : x;
 112:/Users/reza.kalfane/Workspaces/Daisy/DaisyExamples/libDaisy/src/daisy_core.h ****     return (int32_t)(x * F2S8_SCALE);
 113:/Users/reza.kalfane/Workspaces/Daisy/DaisyExamples/libDaisy/src/daisy_core.h **** }
 114:/Users/reza.kalfane/Workspaces/Daisy/DaisyExamples/libDaisy/src/daisy_core.h **** 
 115:/Users/reza.kalfane/Workspaces/Daisy/DaisyExamples/libDaisy/src/daisy_core.h **** /** 
 116:/Users/reza.kalfane/Workspaces/Daisy/DaisyExamples/libDaisy/src/daisy_core.h ****     Converts Signed 16-bit to float
 117:/Users/reza.kalfane/Workspaces/Daisy/DaisyExamples/libDaisy/src/daisy_core.h ****     \param x Number to be scaled.
 118:/Users/reza.kalfane/Workspaces/Daisy/DaisyExamples/libDaisy/src/daisy_core.h ****     \return Scaled number.
 119:/Users/reza.kalfane/Workspaces/Daisy/DaisyExamples/libDaisy/src/daisy_core.h **** */
 120:/Users/reza.kalfane/Workspaces/Daisy/DaisyExamples/libDaisy/src/daisy_core.h **** FORCE_INLINE float s162f(int16_t x)
 121:/Users/reza.kalfane/Workspaces/Daisy/DaisyExamples/libDaisy/src/daisy_core.h **** {
 122:/Users/reza.kalfane/Workspaces/Daisy/DaisyExamples/libDaisy/src/daisy_core.h ****     return (float)x * S162F_SCALE;
 123:/Users/reza.kalfane/Workspaces/Daisy/DaisyExamples/libDaisy/src/daisy_core.h **** }
 124:/Users/reza.kalfane/Workspaces/Daisy/DaisyExamples/libDaisy/src/daisy_core.h **** 
 125:/Users/reza.kalfane/Workspaces/Daisy/DaisyExamples/libDaisy/src/daisy_core.h **** /**
 126:/Users/reza.kalfane/Workspaces/Daisy/DaisyExamples/libDaisy/src/daisy_core.h ****     Converts float to Signed 16-bit
 127:/Users/reza.kalfane/Workspaces/Daisy/DaisyExamples/libDaisy/src/daisy_core.h **** */
 128:/Users/reza.kalfane/Workspaces/Daisy/DaisyExamples/libDaisy/src/daisy_core.h **** FORCE_INLINE int16_t f2s16(float x)
 129:/Users/reza.kalfane/Workspaces/Daisy/DaisyExamples/libDaisy/src/daisy_core.h **** {
 130:/Users/reza.kalfane/Workspaces/Daisy/DaisyExamples/libDaisy/src/daisy_core.h ****     x = x <= FBIPMIN ? FBIPMIN : x;
 131:/Users/reza.kalfane/Workspaces/Daisy/DaisyExamples/libDaisy/src/daisy_core.h ****     x = x >= FBIPMAX ? FBIPMAX : x;
 132:/Users/reza.kalfane/Workspaces/Daisy/DaisyExamples/libDaisy/src/daisy_core.h ****     return (int32_t)(x * F2S16_SCALE);
 133:/Users/reza.kalfane/Workspaces/Daisy/DaisyExamples/libDaisy/src/daisy_core.h **** }
 134:/Users/reza.kalfane/Workspaces/Daisy/DaisyExamples/libDaisy/src/daisy_core.h **** 
 135:/Users/reza.kalfane/Workspaces/Daisy/DaisyExamples/libDaisy/src/daisy_core.h **** /**
 136:/Users/reza.kalfane/Workspaces/Daisy/DaisyExamples/libDaisy/src/daisy_core.h ****     Converts Signed 24-bit to float
 137:/Users/reza.kalfane/Workspaces/Daisy/DaisyExamples/libDaisy/src/daisy_core.h ****  */
 138:/Users/reza.kalfane/Workspaces/Daisy/DaisyExamples/libDaisy/src/daisy_core.h **** FORCE_INLINE float s242f(int32_t x)
 139:/Users/reza.kalfane/Workspaces/Daisy/DaisyExamples/libDaisy/src/daisy_core.h **** {
 140:/Users/reza.kalfane/Workspaces/Daisy/DaisyExamples/libDaisy/src/daisy_core.h ****     x = (x ^ S24SIGN) - S24SIGN; //sign extend aka ((x<<8)>>8)
 141:/Users/reza.kalfane/Workspaces/Daisy/DaisyExamples/libDaisy/src/daisy_core.h ****     return (float)x * S242F_SCALE;
 142:/Users/reza.kalfane/Workspaces/Daisy/DaisyExamples/libDaisy/src/daisy_core.h **** }
 143:/Users/reza.kalfane/Workspaces/Daisy/DaisyExamples/libDaisy/src/daisy_core.h **** /**
 144:/Users/reza.kalfane/Workspaces/Daisy/DaisyExamples/libDaisy/src/daisy_core.h ****     Converts float to Signed 24-bit
 145:/Users/reza.kalfane/Workspaces/Daisy/DaisyExamples/libDaisy/src/daisy_core.h ****  */
 146:/Users/reza.kalfane/Workspaces/Daisy/DaisyExamples/libDaisy/src/daisy_core.h **** FORCE_INLINE int32_t f2s24(float x)
 147:/Users/reza.kalfane/Workspaces/Daisy/DaisyExamples/libDaisy/src/daisy_core.h **** {
ARM GAS  /tmp/claude-502/cc2bPfvH.s 			page 237


 148:/Users/reza.kalfane/Workspaces/Daisy/DaisyExamples/libDaisy/src/daisy_core.h ****     x = x <= FBIPMIN ? FBIPMIN : x;
 149:/Users/reza.kalfane/Workspaces/Daisy/DaisyExamples/libDaisy/src/daisy_core.h ****     x = x >= FBIPMAX ? FBIPMAX : x;
 150:/Users/reza.kalfane/Workspaces/Daisy/DaisyExamples/libDaisy/src/daisy_core.h ****     return (int32_t)(x * F2S24_SCALE);
 151:/Users/reza.kalfane/Workspaces/Daisy/DaisyExamples/libDaisy/src/daisy_core.h **** }
 152:/Users/reza.kalfane/Workspaces/Daisy/DaisyExamples/libDaisy/src/daisy_core.h **** 
 153:/Users/reza.kalfane/Workspaces/Daisy/DaisyExamples/libDaisy/src/daisy_core.h **** /**
 154:/Users/reza.kalfane/Workspaces/Daisy/DaisyExamples/libDaisy/src/daisy_core.h ****     Converts Signed 32-bit to float
 155:/Users/reza.kalfane/Workspaces/Daisy/DaisyExamples/libDaisy/src/daisy_core.h ****  */
 156:/Users/reza.kalfane/Workspaces/Daisy/DaisyExamples/libDaisy/src/daisy_core.h **** FORCE_INLINE float s322f(int32_t x)
 157:/Users/reza.kalfane/Workspaces/Daisy/DaisyExamples/libDaisy/src/daisy_core.h **** {
 158:/Users/reza.kalfane/Workspaces/Daisy/DaisyExamples/libDaisy/src/daisy_core.h ****     return (float)x * S322F_SCALE;
 159:/Users/reza.kalfane/Workspaces/Daisy/DaisyExamples/libDaisy/src/daisy_core.h **** }
 160:/Users/reza.kalfane/Workspaces/Daisy/DaisyExamples/libDaisy/src/daisy_core.h **** /**
 161:/Users/reza.kalfane/Workspaces/Daisy/DaisyExamples/libDaisy/src/daisy_core.h ****     Converts float to Signed 24-bit
 162:/Users/reza.kalfane/Workspaces/Daisy/DaisyExamples/libDaisy/src/daisy_core.h ****  */
 163:/Users/reza.kalfane/Workspaces/Daisy/DaisyExamples/libDaisy/src/daisy_core.h **** FORCE_INLINE int32_t f2s32(float x)
 164:/Users/reza.kalfane/Workspaces/Daisy/DaisyExamples/libDaisy/src/daisy_core.h **** {
 165:/Users/reza.kalfane/Workspaces/Daisy/DaisyExamples/libDaisy/src/daisy_core.h ****     x = x <= FBIPMIN ? FBIPMIN : x;
 166:/Users/reza.kalfane/Workspaces/Daisy/DaisyExamples/libDaisy/src/daisy_core.h ****     x = x >= FBIPMAX ? FBIPMAX : x;
 167:/Users/reza.kalfane/Workspaces/Daisy/DaisyExamples/libDaisy/src/daisy_core.h ****     return (int32_t)(x * F2S32_SCALE);
 168:/Users/reza.kalfane/Workspaces/Daisy/DaisyExamples/libDaisy/src/daisy_core.h **** }
 169:/Users/reza.kalfane/Workspaces/Daisy/DaisyExamples/libDaisy/src/daisy_core.h **** 
 170:/Users/reza.kalfane/Workspaces/Daisy/DaisyExamples/libDaisy/src/daisy_core.h **** 
 171:/Users/reza.kalfane/Workspaces/Daisy/DaisyExamples/libDaisy/src/daisy_core.h **** /** Enums and a simple struct for defining a hardware pin on the MCU
 172:/Users/reza.kalfane/Workspaces/Daisy/DaisyExamples/libDaisy/src/daisy_core.h ****  *  These correlate with the stm32 datasheet, and are used to configure
 173:/Users/reza.kalfane/Workspaces/Daisy/DaisyExamples/libDaisy/src/daisy_core.h ****  *  the hardware.
 174:/Users/reza.kalfane/Workspaces/Daisy/DaisyExamples/libDaisy/src/daisy_core.h ****  * 
 175:/Users/reza.kalfane/Workspaces/Daisy/DaisyExamples/libDaisy/src/daisy_core.h ****  *  This along with the dsy_gpio_pin class should no longer be used.
 176:/Users/reza.kalfane/Workspaces/Daisy/DaisyExamples/libDaisy/src/daisy_core.h ****  *  They are available for backwards compatability. 
 177:/Users/reza.kalfane/Workspaces/Daisy/DaisyExamples/libDaisy/src/daisy_core.h ****  * 
 178:/Users/reza.kalfane/Workspaces/Daisy/DaisyExamples/libDaisy/src/daisy_core.h ****  *  Please use GPIOPort enum and the Pin struct instead.
 179:/Users/reza.kalfane/Workspaces/Daisy/DaisyExamples/libDaisy/src/daisy_core.h ****  */
 180:/Users/reza.kalfane/Workspaces/Daisy/DaisyExamples/libDaisy/src/daisy_core.h **** typedef enum
 181:/Users/reza.kalfane/Workspaces/Daisy/DaisyExamples/libDaisy/src/daisy_core.h **** {
 182:/Users/reza.kalfane/Workspaces/Daisy/DaisyExamples/libDaisy/src/daisy_core.h ****     DSY_GPIOA, /**< & */
 183:/Users/reza.kalfane/Workspaces/Daisy/DaisyExamples/libDaisy/src/daisy_core.h ****     DSY_GPIOB, /**< & */
 184:/Users/reza.kalfane/Workspaces/Daisy/DaisyExamples/libDaisy/src/daisy_core.h ****     DSY_GPIOC, /**< & */
 185:/Users/reza.kalfane/Workspaces/Daisy/DaisyExamples/libDaisy/src/daisy_core.h ****     DSY_GPIOD, /**< & */
 186:/Users/reza.kalfane/Workspaces/Daisy/DaisyExamples/libDaisy/src/daisy_core.h ****     DSY_GPIOE, /**< & */
 187:/Users/reza.kalfane/Workspaces/Daisy/DaisyExamples/libDaisy/src/daisy_core.h ****     DSY_GPIOF, /**< & */
 188:/Users/reza.kalfane/Workspaces/Daisy/DaisyExamples/libDaisy/src/daisy_core.h ****     DSY_GPIOG, /**< & */
 189:/Users/reza.kalfane/Workspaces/Daisy/DaisyExamples/libDaisy/src/daisy_core.h ****     DSY_GPIOH, /**< & */
 190:/Users/reza.kalfane/Workspaces/Daisy/DaisyExamples/libDaisy/src/daisy_core.h ****     DSY_GPIOI, /**< & */
 191:/Users/reza.kalfane/Workspaces/Daisy/DaisyExamples/libDaisy/src/daisy_core.h ****     DSY_GPIOJ, /**< & */
 192:/Users/reza.kalfane/Workspaces/Daisy/DaisyExamples/libDaisy/src/daisy_core.h ****     DSY_GPIOK, /**< & */
 193:/Users/reza.kalfane/Workspaces/Daisy/DaisyExamples/libDaisy/src/daisy_core.h ****     DSY_GPIOX, /** This is a non-existant port for unsupported bits of hardware. */
 194:/Users/reza.kalfane/Workspaces/Daisy/DaisyExamples/libDaisy/src/daisy_core.h ****     DSY_GPIO_LAST, /** Final enum member */
 195:/Users/reza.kalfane/Workspaces/Daisy/DaisyExamples/libDaisy/src/daisy_core.h **** } dsy_gpio_port;
 196:/Users/reza.kalfane/Workspaces/Daisy/DaisyExamples/libDaisy/src/daisy_core.h **** 
 197:/Users/reza.kalfane/Workspaces/Daisy/DaisyExamples/libDaisy/src/daisy_core.h **** /** Hardware define pins 
 198:/Users/reza.kalfane/Workspaces/Daisy/DaisyExamples/libDaisy/src/daisy_core.h ****  *  
 199:/Users/reza.kalfane/Workspaces/Daisy/DaisyExamples/libDaisy/src/daisy_core.h ****  *  The dsy_gpio_pin struct should no longer be used, and is only available for
 200:/Users/reza.kalfane/Workspaces/Daisy/DaisyExamples/libDaisy/src/daisy_core.h ****  *  backwards compatability.
 201:/Users/reza.kalfane/Workspaces/Daisy/DaisyExamples/libDaisy/src/daisy_core.h ****  * 
 202:/Users/reza.kalfane/Workspaces/Daisy/DaisyExamples/libDaisy/src/daisy_core.h ****  *  Please use Pin struct instead.
 203:/Users/reza.kalfane/Workspaces/Daisy/DaisyExamples/libDaisy/src/daisy_core.h ****  */
 204:/Users/reza.kalfane/Workspaces/Daisy/DaisyExamples/libDaisy/src/daisy_core.h **** typedef struct
ARM GAS  /tmp/claude-502/cc2bPfvH.s 			page 238


 205:/Users/reza.kalfane/Workspaces/Daisy/DaisyExamples/libDaisy/src/daisy_core.h **** {
 206:/Users/reza.kalfane/Workspaces/Daisy/DaisyExamples/libDaisy/src/daisy_core.h ****     dsy_gpio_port port; /**< & */
 207:/Users/reza.kalfane/Workspaces/Daisy/DaisyExamples/libDaisy/src/daisy_core.h ****     uint8_t       pin;  /**< number 0-15 */
 208:/Users/reza.kalfane/Workspaces/Daisy/DaisyExamples/libDaisy/src/daisy_core.h **** } dsy_gpio_pin;
 209:/Users/reza.kalfane/Workspaces/Daisy/DaisyExamples/libDaisy/src/daisy_core.h **** 
 210:/Users/reza.kalfane/Workspaces/Daisy/DaisyExamples/libDaisy/src/daisy_core.h **** /** Helper for creating pins from port/pin combos easily
 211:/Users/reza.kalfane/Workspaces/Daisy/DaisyExamples/libDaisy/src/daisy_core.h ****  * 
 212:/Users/reza.kalfane/Workspaces/Daisy/DaisyExamples/libDaisy/src/daisy_core.h ****  *  The dsy_gpio_pin struct should no longer be used, and is only available for
 213:/Users/reza.kalfane/Workspaces/Daisy/DaisyExamples/libDaisy/src/daisy_core.h ****  *  backwards compatability.
 214:/Users/reza.kalfane/Workspaces/Daisy/DaisyExamples/libDaisy/src/daisy_core.h ****  * 
 215:/Users/reza.kalfane/Workspaces/Daisy/DaisyExamples/libDaisy/src/daisy_core.h ****  *  Please use Pin struct instead.
 216:/Users/reza.kalfane/Workspaces/Daisy/DaisyExamples/libDaisy/src/daisy_core.h **** */
 217:/Users/reza.kalfane/Workspaces/Daisy/DaisyExamples/libDaisy/src/daisy_core.h **** FORCE_INLINE dsy_gpio_pin dsy_pin(dsy_gpio_port port, uint8_t pin)
 218:/Users/reza.kalfane/Workspaces/Daisy/DaisyExamples/libDaisy/src/daisy_core.h **** {
 219:/Users/reza.kalfane/Workspaces/Daisy/DaisyExamples/libDaisy/src/daisy_core.h ****     dsy_gpio_pin p;
 220:/Users/reza.kalfane/Workspaces/Daisy/DaisyExamples/libDaisy/src/daisy_core.h ****     p.port = port;
 221:/Users/reza.kalfane/Workspaces/Daisy/DaisyExamples/libDaisy/src/daisy_core.h ****     p.pin  = pin;
 222:/Users/reza.kalfane/Workspaces/Daisy/DaisyExamples/libDaisy/src/daisy_core.h ****     return p;
 223:/Users/reza.kalfane/Workspaces/Daisy/DaisyExamples/libDaisy/src/daisy_core.h **** }
 224:/Users/reza.kalfane/Workspaces/Daisy/DaisyExamples/libDaisy/src/daisy_core.h **** 
 225:/Users/reza.kalfane/Workspaces/Daisy/DaisyExamples/libDaisy/src/daisy_core.h **** /** Helper for testing sameness of two dsy_gpio_pins
 226:/Users/reza.kalfane/Workspaces/Daisy/DaisyExamples/libDaisy/src/daisy_core.h ****  *  \return    1 if same, 0 if different
 227:/Users/reza.kalfane/Workspaces/Daisy/DaisyExamples/libDaisy/src/daisy_core.h ****  * 
 228:/Users/reza.kalfane/Workspaces/Daisy/DaisyExamples/libDaisy/src/daisy_core.h ****  *  The dsy_gpio_pin struct should no longer be used, and is only available for
 229:/Users/reza.kalfane/Workspaces/Daisy/DaisyExamples/libDaisy/src/daisy_core.h ****  *  backwards compatability.
 230:/Users/reza.kalfane/Workspaces/Daisy/DaisyExamples/libDaisy/src/daisy_core.h ****  * 
 231:/Users/reza.kalfane/Workspaces/Daisy/DaisyExamples/libDaisy/src/daisy_core.h ****  *  Please use Pin struct instead.
 232:/Users/reza.kalfane/Workspaces/Daisy/DaisyExamples/libDaisy/src/daisy_core.h ****  */
 233:/Users/reza.kalfane/Workspaces/Daisy/DaisyExamples/libDaisy/src/daisy_core.h **** FORCE_INLINE uint8_t dsy_pin_cmp(dsy_gpio_pin *a, dsy_gpio_pin *b)
 234:/Users/reza.kalfane/Workspaces/Daisy/DaisyExamples/libDaisy/src/daisy_core.h **** {
 235:/Users/reza.kalfane/Workspaces/Daisy/DaisyExamples/libDaisy/src/daisy_core.h ****     return ((a->port == b->port) && (a->pin == b->pin));
 236:/Users/reza.kalfane/Workspaces/Daisy/DaisyExamples/libDaisy/src/daisy_core.h **** }
 237:/Users/reza.kalfane/Workspaces/Daisy/DaisyExamples/libDaisy/src/daisy_core.h **** 
 238:/Users/reza.kalfane/Workspaces/Daisy/DaisyExamples/libDaisy/src/daisy_core.h **** #ifdef __cplusplus
 239:/Users/reza.kalfane/Workspaces/Daisy/DaisyExamples/libDaisy/src/daisy_core.h **** 
 240:/Users/reza.kalfane/Workspaces/Daisy/DaisyExamples/libDaisy/src/daisy_core.h **** namespace daisy
 241:/Users/reza.kalfane/Workspaces/Daisy/DaisyExamples/libDaisy/src/daisy_core.h **** {
 242:/Users/reza.kalfane/Workspaces/Daisy/DaisyExamples/libDaisy/src/daisy_core.h **** /** @brief GPIO Port names */
 243:/Users/reza.kalfane/Workspaces/Daisy/DaisyExamples/libDaisy/src/daisy_core.h **** enum GPIOPort
 244:/Users/reza.kalfane/Workspaces/Daisy/DaisyExamples/libDaisy/src/daisy_core.h **** {
 245:/Users/reza.kalfane/Workspaces/Daisy/DaisyExamples/libDaisy/src/daisy_core.h ****     PORTA, /**< Port A */
 246:/Users/reza.kalfane/Workspaces/Daisy/DaisyExamples/libDaisy/src/daisy_core.h ****     PORTB, /**< Port B */
 247:/Users/reza.kalfane/Workspaces/Daisy/DaisyExamples/libDaisy/src/daisy_core.h ****     PORTC, /**< Port C */
 248:/Users/reza.kalfane/Workspaces/Daisy/DaisyExamples/libDaisy/src/daisy_core.h ****     PORTD, /**< Port D */
 249:/Users/reza.kalfane/Workspaces/Daisy/DaisyExamples/libDaisy/src/daisy_core.h ****     PORTE, /**< Port E */
 250:/Users/reza.kalfane/Workspaces/Daisy/DaisyExamples/libDaisy/src/daisy_core.h ****     PORTF, /**< Port F */
 251:/Users/reza.kalfane/Workspaces/Daisy/DaisyExamples/libDaisy/src/daisy_core.h ****     PORTG, /**< Port G */
 252:/Users/reza.kalfane/Workspaces/Daisy/DaisyExamples/libDaisy/src/daisy_core.h ****     PORTH, /**< Port H */
 253:/Users/reza.kalfane/Workspaces/Daisy/DaisyExamples/libDaisy/src/daisy_core.h ****     PORTI, /**< Port I */
 254:/Users/reza.kalfane/Workspaces/Daisy/DaisyExamples/libDaisy/src/daisy_core.h ****     PORTJ, /**< Port J */
 255:/Users/reza.kalfane/Workspaces/Daisy/DaisyExamples/libDaisy/src/daisy_core.h ****     PORTK, /**< Port K */
 256:/Users/reza.kalfane/Workspaces/Daisy/DaisyExamples/libDaisy/src/daisy_core.h ****     PORTX, /**< Used as a dummy port to signal an invalid pin. */
 257:/Users/reza.kalfane/Workspaces/Daisy/DaisyExamples/libDaisy/src/daisy_core.h **** };
 258:/Users/reza.kalfane/Workspaces/Daisy/DaisyExamples/libDaisy/src/daisy_core.h **** 
 259:/Users/reza.kalfane/Workspaces/Daisy/DaisyExamples/libDaisy/src/daisy_core.h **** /** @brief representation of hardware port/pin combination */
 260:/Users/reza.kalfane/Workspaces/Daisy/DaisyExamples/libDaisy/src/daisy_core.h **** struct Pin
 261:/Users/reza.kalfane/Workspaces/Daisy/DaisyExamples/libDaisy/src/daisy_core.h **** {
ARM GAS  /tmp/claude-502/cc2bPfvH.s 			page 239


 262:/Users/reza.kalfane/Workspaces/Daisy/DaisyExamples/libDaisy/src/daisy_core.h ****     GPIOPort port;
 263:/Users/reza.kalfane/Workspaces/Daisy/DaisyExamples/libDaisy/src/daisy_core.h ****     uint8_t  pin;
 264:/Users/reza.kalfane/Workspaces/Daisy/DaisyExamples/libDaisy/src/daisy_core.h **** 
 265:/Users/reza.kalfane/Workspaces/Daisy/DaisyExamples/libDaisy/src/daisy_core.h ****     /** @brief Constructor creates a valid pin. 
 266:/Users/reza.kalfane/Workspaces/Daisy/DaisyExamples/libDaisy/src/daisy_core.h ****      *  @param pt GPIOPort between PA, and PK corresponding to STM32 Port.
 267:/Users/reza.kalfane/Workspaces/Daisy/DaisyExamples/libDaisy/src/daisy_core.h ****      *  @param pn pin number in range of 0-15
 268:/Users/reza.kalfane/Workspaces/Daisy/DaisyExamples/libDaisy/src/daisy_core.h ****     */
 269:/Users/reza.kalfane/Workspaces/Daisy/DaisyExamples/libDaisy/src/daisy_core.h ****     constexpr Pin(const GPIOPort pt, const uint8_t pn) : port(pt), pin(pn) {}
 270:/Users/reza.kalfane/Workspaces/Daisy/DaisyExamples/libDaisy/src/daisy_core.h **** 
 271:/Users/reza.kalfane/Workspaces/Daisy/DaisyExamples/libDaisy/src/daisy_core.h ****     /** @brief Basic Constructor creates an invalid Pin object */
 272:/Users/reza.kalfane/Workspaces/Daisy/DaisyExamples/libDaisy/src/daisy_core.h ****     constexpr Pin() : port(PORTX), pin(255) {}
 8427              		.loc 14 272 15 view .LVU2630
 8428              		.loc 14 272 15 is_stmt 0 view .LVU2631
 8429              	.LBE1475:
 8430              	.LBE1474:
 8431              	.LBE1473:
 8432              	.LBE1472:
 8433              		.loc 13 74 12 view .LVU2632
 8434 0016 074B     		ldr	r3, .L551+12
 8435 0018 4FF60B72 		movw	r2, #65291
 8436              	.LBB1478:
 8437              	.LBB1477:
 8438              	.LBB1476:
  69:/Users/reza.kalfane/Workspaces/Daisy/DaisyExamples/libDaisy/src/per/gpio.h ****         {
 8439              		.loc 13 69 73 view .LVU2633
 8440 001c C3E90244 		strd	r4, r4, [r3, #8]
 8441              	.LVL699:
  69:/Users/reza.kalfane/Workspaces/Daisy/DaisyExamples/libDaisy/src/per/gpio.h ****         {
 8442              		.loc 13 69 73 view .LVU2634
 8443              	.LBE1476:
 8444              	.LBE1477:
 8445              	.LBE1478:
 8446              		.loc 13 74 12 view .LVU2635
 8447 0020 C3E90024 		strd	r2, r4, [r3]
 8448              	.LBE1471:
 8449              	.LBE1470:
 8450              	.LBE1479:
 8451              	.LBE1480:
 8452              		.loc 6 897 1 view .LVU2636
 8453 0024 10BD     		pop	{r4, pc}
 8454              	.L552:
 8455 0026 00BF     		.align	2
 8456              	.L551:
 8457 0028 00000000 		.word	.LANCHOR0
 8458 002c 00000000 		.word	__dso_handle
 8459 0030 00000000 		.word	_ZN5daisy9DaisySeedD1Ev
 8460 0034 00000000 		.word	.LANCHOR4
 8461              		.cfi_endproc
 8462              	.LFE2637:
 8464              		.section	.init_array,"aw",%init_array
 8465              		.align	2
 8466 0000 00000000 		.word	_GLOBAL__sub_I_g_voice_idx(target1)
 8467              		.global	led3
 8468              		.global	hw
 8469              		.global	g_active_voice
 8470              		.global	g_voice_idx
 8471              		.section	.rodata.str1.4,"aMS",%progbits,1
ARM GAS  /tmp/claude-502/cc2bPfvH.s 			page 240


 8472              		.align	2
 8473              	.LC25:
 8474 0000 4C656164 		.ascii	"Lead\000"
 8474      00
 8475 0005 000000   		.align	2
 8476              	.LC26:
 8477 0008 42617373 		.ascii	"Bass\000"
 8477      00
 8478 000d 000000   		.align	2
 8479              	.LC27:
 8480 0010 4F70656E 		.ascii	"OpenBass\000"
 8480      42617373 
 8480      00
 8481 0019 000000   		.align	2
 8482              	.LC28:
 8483 001c 52696368 		.ascii	"RichBass\000"
 8483      42617373 
 8483      00
 8484 0025 000000   		.align	2
 8485              	.LC29:
 8486 0028 4F726761 		.ascii	"Organ\000"
 8486      6E00
 8487 002e 0000     		.align	2
 8488              	.LC30:
 8489 0030 53637265 		.ascii	"Scream\000"
 8489      616D00
 8490 0037 00       		.align	2
 8491              	.LC31:
 8492 0038 436C6F73 		.ascii	"ClosedBass\000"
 8492      65644261 
 8492      737300
 8493 0043 00       		.align	2
 8494              	.LC32:
 8495 0044 50616400 		.ascii	"Pad\000"
 8496              		.align	2
 8497              	.LC33:
 8498 0048 546F6D00 		.ascii	"Tom\000"
 8499              		.align	2
 8500              	.LC34:
 8501 004c 4B69636B 		.ascii	"Kick\000"
 8501      00
 8502 0051 000000   		.align	2
 8503              	.LC35:
 8504 0054 536E6172 		.ascii	"Snare\000"
 8504      6500
 8505 005a 0000     		.align	2
 8506              	.LC36:
 8507 005c 48694861 		.ascii	"HiHat\000"
 8507      7400
 8508 0062 0000     		.align	2
 8509              	.LC37:
 8510 0064 4472756D 		.ascii	"Drums\000"
 8510      7300
 8511              		.section	.bss.hw,"aw",%nobits
 8512              		.align	2
 8513              		.set	.LANCHOR0,. + 0
 8516              	hw:
ARM GAS  /tmp/claude-502/cc2bPfvH.s 			page 241


 8517 0000 00000000 		.space	64
 8517      00000000 
 8517      00000000 
 8517      00000000 
 8517      00000000 
 8518              		.section	.bss.led3,"aw",%nobits
 8519              		.align	2
 8520              		.set	.LANCHOR4,. + 0
 8523              	led3:
 8524 0000 00000000 		.space	20
 8524      00000000 
 8524      00000000 
 8524      00000000 
 8524      00000000 
 8525              		.section	.data.g_active_voice,"aw"
 8526              		.align	2
 8527              		.set	.LANCHOR2,. + 0
 8530              	g_active_voice:
 8531 0000 02000000 		.word	2
 8532              		.section	.data.g_voice_idx,"aw"
 8533              		.align	2
 8534              		.set	.LANCHOR1,. + 0
 8537              	g_voice_idx:
 8538 0000 02000000 		.word	2
 8539              		.section	.rodata._ZL11MULTI_ZONES,"a"
 8540              		.align	2
 8541              		.set	.LANCHOR6,. + 0
 8544              	_ZL11MULTI_ZONES:
 8545 0000 09000000 		.word	9
 8546 0004 0A000000 		.word	10
 8547 0008 08000000 		.word	8
 8548 000c 0B000000 		.word	11
 8549              		.section	.rodata._ZL11SCALE_MINOR,"a"
 8550              		.align	2
 8553              	_ZL11SCALE_MINOR:
 8554 0000 00020305 		.ascii	"\000\002\003\005\007\010\012"
 8554      07080A
 8555              		.section	.rodata._ZL15MULTI_INTERVALS,"a"
 8556              		.align	2
 8557              		.set	.LANCHOR7,. + 0
 8560              	_ZL15MULTI_INTERVALS:
 8561 0000 0000803F 		.word	1065353216
 8562 0004 0ADCAA3F 		.word	1068162058
 8563 0008 9FC8BF3F 		.word	1069533343
 8564 000c 00000040 		.word	1073741824
 8565              		.section	.rodata._ZL6VOICES,"a"
 8566              		.align	2
 8567              		.set	.LANCHOR5,. + 0
 8570              	_ZL6VOICES:
 8571 0000 00000000 		.word	.LC25
 8572 0004 00004842 		.word	1112014848
 8573 0008 00009643 		.word	1133903872
 8574 000c 6458E53F 		.word	1071994980
 8575 0010 0000803F 		.word	1065353216
 8576 0014 0000003F 		.word	1056964608
 8577 0018 00       		.byte	0
 8578 0019 000000   		.space	3
ARM GAS  /tmp/claude-502/cc2bPfvH.s 			page 242


 8579 001c 0000803F 		.word	1065353216
 8580 0020 AE47613E 		.word	1046562734
 8581 0024 00       		.byte	0
 8582 0025 000000   		.space	3
 8583 0028 0000003F 		.word	1056964608
 8584 002c EC51383E 		.word	1043878380
 8585 0030 00       		.byte	0
 8586 0031 000000   		.space	3
 8587 0034 00000040 		.word	1073741824
 8588 0038 9A99193E 		.word	1041865114
 8589 003c 00       		.byte	0
 8590 003d 01       		.byte	1
 8591 003e 0000     		.space	2
 8592 0040 9A99993E 		.word	1050253722
 8593 0044 00004041 		.word	1094713344
 8594 0048 0000403F 		.word	1061158912
 8595 004c 00002040 		.word	1075838976
 8596 0050 00000000 		.word	0
 8597 0054 0000803F 		.word	1065353216
 8598 0058 0000803F 		.word	1065353216
 8599 005c 9A99193E 		.word	1041865114
 8600 0060 EC51383E 		.word	1043878380
 8601 0064 00008040 		.word	1082130432
 8602 0068 0000C843 		.word	1137180672
 8603 006c 00002042 		.word	1109393408
 8604 0070 00000000 		.space	36
 8604      00000000 
 8604      00000000 
 8604      00000000 
 8604      00000000 
 8605 0094 08000000 		.word	.LC26
 8606 0098 00002042 		.word	1109393408
 8607 009c 00002043 		.word	1126170624
 8608 00a0 F371B13F 		.word	1068593651
 8609 00a4 0000803F 		.word	1065353216
 8610 00a8 6666E63E 		.word	1055286886
 8611 00ac 00       		.byte	0
 8612 00ad 000000   		.space	3
 8613 00b0 9FC8BF3F 		.word	1069533343
 8614 00b4 9A99993E 		.word	1050253722
 8615 00b8 00       		.byte	0
 8616 00b9 000000   		.space	3
 8617 00bc 0000003F 		.word	1056964608
 8618 00c0 7B14AE3E 		.word	1051595899
 8619 00c4 00       		.byte	0
 8620 00c5 000000   		.space	3
 8621 00c8 00000040 		.word	1073741824
 8622 00cc CDCC4C3E 		.word	1045220557
 8623 00d0 00       		.byte	0
 8624 00d1 00       		.byte	0
 8625 00d2 0000     		.space	2
 8626 00d4 0000803E 		.word	1048576000
 8627 00d8 0000E040 		.word	1088421888
 8628 00dc 0000003F 		.word	1056964608
 8629 00e0 0000803F 		.word	1065353216
 8630 00e4 00000000 		.word	0
 8631 00e8 0000803F 		.word	1065353216
ARM GAS  /tmp/claude-502/cc2bPfvH.s 			page 243


 8632 00ec 0000803F 		.word	1065353216
 8633 00f0 8FC2F53D 		.word	1039516303
 8634 00f4 8FC2F53D 		.word	1039516303
 8635 00f8 0000C040 		.word	1086324736
 8636 00fc 00009643 		.word	1133903872
 8637 0100 0000C841 		.word	1103626240
 8638 0104 00000000 		.space	36
 8638      00000000 
 8638      00000000 
 8638      00000000 
 8638      00000000 
 8639 0128 10000000 		.word	.LC27
 8640 012c 00002042 		.word	1109393408
 8641 0130 00003443 		.word	1127481344
 8642 0134 B285C03F 		.word	1069581746
 8643 0138 0000803F 		.word	1065353216
 8644 013c 6666E63E 		.word	1055286886
 8645 0140 00       		.byte	0
 8646 0141 000000   		.space	3
 8647 0144 9FC8BF3F 		.word	1069533343
 8648 0148 9A99993E 		.word	1050253722
 8649 014c 00       		.byte	0
 8650 014d 000000   		.space	3
 8651 0150 0000003F 		.word	1056964608
 8652 0154 9A99993E 		.word	1050253722
 8653 0158 00       		.byte	0
 8654 0159 000000   		.space	3
 8655 015c 00000040 		.word	1073741824
 8656 0160 AE47613E 		.word	1046562734
 8657 0164 00       		.byte	0
 8658 0165 00       		.byte	0
 8659 0166 0000     		.space	2
 8660 0168 0000003F 		.word	1056964608
 8661 016c 00002041 		.word	1092616192
 8662 0170 6666263F 		.word	1059481190
 8663 0174 6666E63F 		.word	1072064102
 8664 0178 00000000 		.word	0
 8665 017c 0000803F 		.word	1065353216
 8666 0180 0000803F 		.word	1065353216
 8667 0184 9A99193E 		.word	1041865114
 8668 0188 9A99193E 		.word	1041865114
 8669 018c 0000A040 		.word	1084227584
 8670 0190 0000AF43 		.word	1135542272
 8671 0194 0000C841 		.word	1103626240
 8672 0198 00000000 		.space	36
 8672      00000000 
 8672      00000000 
 8672      00000000 
 8672      00000000 
 8673 01bc 1C000000 		.word	.LC28
 8674 01c0 00002042 		.word	1109393408
 8675 01c4 00002043 		.word	1126170624
 8676 01c8 F371B13F 		.word	1068593651
 8677 01cc 0000803F 		.word	1065353216
 8678 01d0 CDCCCC3E 		.word	1053609165
 8679 01d4 03       		.byte	3
 8680 01d5 000000   		.space	3
ARM GAS  /tmp/claude-502/cc2bPfvH.s 			page 244


 8681 01d8 9FC8BF3F 		.word	1069533343
 8682 01dc B81E853E 		.word	1048911544
 8683 01e0 02       		.byte	2
 8684 01e1 000000   		.space	3
 8685 01e4 0000003F 		.word	1056964608
 8686 01e8 0AD7A33E 		.word	1050924810
 8687 01ec 01       		.byte	1
 8688 01ed 000000   		.space	3
 8689 01f0 00000040 		.word	1073741824
 8690 01f4 EC51383E 		.word	1043878380
 8691 01f8 03       		.byte	3
 8692 01f9 00       		.byte	0
 8693 01fa 0000     		.space	2
 8694 01fc CDCC4C3E 		.word	1045220557
 8695 0200 00005041 		.word	1095761920
 8696 0204 85EB513F 		.word	1062333317
 8697 0208 CDCC0C40 		.word	1074580685
 8698 020c 00000000 		.word	0
 8699 0210 0000803F 		.word	1065353216
 8700 0214 0000803F 		.word	1065353216
 8701 0218 CDCC4C3E 		.word	1045220557
 8702 021c CDCC4C3E 		.word	1045220557
 8703 0220 00004040 		.word	1077936128
 8704 0224 00007A43 		.word	1132068864
 8705 0228 00009041 		.word	1099956224
 8706 022c 00000000 		.space	36
 8706      00000000 
 8706      00000000 
 8706      00000000 
 8706      00000000 
 8707 0250 28000000 		.word	.LC29
 8708 0254 00008242 		.word	1115815936
 8709 0258 00000244 		.word	1140981760
 8710 025c 8C150540 		.word	1074075020
 8711 0260 0000803F 		.word	1065353216
 8712 0264 6666E63E 		.word	1055286886
 8713 0268 01       		.byte	1
 8714 0269 000000   		.space	3
 8715 026c D7A3803F 		.word	1065395159
 8716 0270 CDCCCC3E 		.word	1053609165
 8717 0274 01       		.byte	1
 8718 0275 000000   		.space	3
 8719 0278 0000003F 		.word	1056964608
 8720 027c 9A99993E 		.word	1050253722
 8721 0280 01       		.byte	1
 8722 0281 000000   		.space	3
 8723 0284 00000040 		.word	1073741824
 8724 0288 295C8F3E 		.word	1049582633
 8725 028c 01       		.byte	1
 8726 028d 00       		.byte	0
 8727 028e 0000     		.space	2
 8728 0290 00000040 		.word	1073741824
 8729 0294 0000A040 		.word	1084227584
 8730 0298 CDCC4C3E 		.word	1045220557
 8731 029c CDCC4C3F 		.word	1061997773
 8732 02a0 8FC2F53C 		.word	1022739087
 8733 02a4 0000803F 		.word	1065353216
ARM GAS  /tmp/claude-502/cc2bPfvH.s 			page 245


 8734 02a8 0000803F 		.word	1065353216
 8735 02ac CDCC4C3D 		.word	1028443341
 8736 02b0 00000000 		.word	0
 8737 02b4 00000041 		.word	1090519040
 8738 02b8 0000F042 		.word	1123024896
 8739 02bc 00000041 		.word	1090519040
 8740 02c0 00000000 		.word	0
 8741 02c4 00000000 		.word	0
 8742 02c8 00000000 		.word	0
 8743 02cc 00       		.byte	0
 8744 02cd 000000   		.space	3
 8745 02d0 00000000 		.word	0
 8746 02d4 00000000 		.word	0
 8747 02d8 01       		.byte	1
 8748 02d9 000000   		.space	3
 8749 02dc 00000000 		.word	_ZL11SCALE_MINOR
 8750 02e0 07000000 		.word	7
 8751 02e4 30000000 		.word	.LC30
 8752 02e8 0000B442 		.word	1119092736
 8753 02ec 00003444 		.word	1144258560
 8754 02f0 8C150540 		.word	1074075020
 8755 02f4 0000803F 		.word	1065353216
 8756 02f8 3D0AD73E 		.word	1054280253
 8757 02fc 03       		.byte	3
 8758 02fd 000000   		.space	3
 8759 0300 2506813F 		.word	1065420325
 8760 0304 5C8FC23E 		.word	1052938076
 8761 0308 03       		.byte	3
 8762 0309 000000   		.space	3
 8763 030c 0000003F 		.word	1056964608
 8764 0310 CDCC4C3E 		.word	1045220557
 8765 0314 03       		.byte	3
 8766 0315 000000   		.space	3
 8767 0318 00000040 		.word	1073741824
 8768 031c 9A99993E 		.word	1050253722
 8769 0320 03       		.byte	3
 8770 0321 00       		.byte	0
 8771 0322 0000     		.space	2
 8772 0324 00004040 		.word	1077936128
 8773 0328 00003041 		.word	1093664768
 8774 032c 6666663F 		.word	1063675494
 8775 0330 00008040 		.word	1082130432
 8776 0334 CDCC4C3D 		.word	1028443341
 8777 0338 0000803F 		.word	1065353216
 8778 033c 00002040 		.word	1075838976
 8779 0340 CDCCCC3E 		.word	1053609165
 8780 0344 9A99993E 		.word	1050253722
 8781 0348 00000040 		.word	1073741824
 8782 034c 00004843 		.word	1128792064
 8783 0350 00000C42 		.word	1108082688
 8784 0354 00000000 		.space	36
 8784      00000000 
 8784      00000000 
 8784      00000000 
 8784      00000000 
 8785 0378 38000000 		.word	.LC31
 8786 037c 00000C42 		.word	1108082688
ARM GAS  /tmp/claude-502/cc2bPfvH.s 			page 246


 8787 0380 00000C43 		.word	1124859904
 8788 0384 F371B13F 		.word	1068593651
 8789 0388 0000803F 		.word	1065353216
 8790 038c 3D0AD73E 		.word	1054280253
 8791 0390 00       		.byte	0
 8792 0391 000000   		.space	3
 8793 0394 9FC8BF3F 		.word	1069533343
 8794 0398 EC51383E 		.word	1043878380
 8795 039c 00       		.byte	0
 8796 039d 000000   		.space	3
 8797 03a0 0000003F 		.word	1056964608
 8798 03a4 AE47E13E 		.word	1054951342
 8799 03a8 01       		.byte	1
 8800 03a9 000000   		.space	3
 8801 03ac 00000040 		.word	1073741824
 8802 03b0 CDCCCC3D 		.word	1036831949
 8803 03b4 00       		.byte	0
 8804 03b5 00       		.byte	0
 8805 03b6 0000     		.space	2
 8806 03b8 0000803F 		.word	1065353216
 8807 03bc 00000040 		.word	1073741824
 8808 03c0 9A99993E 		.word	1050253722
 8809 03c4 0000003F 		.word	1056964608
 8810 03c8 00000000 		.word	0
 8811 03cc 9A99193F 		.word	1058642330
 8812 03d0 0000803F 		.word	1065353216
 8813 03d4 00000000 		.word	0
 8814 03d8 00000000 		.word	0
 8815 03dc 00002041 		.word	1092616192
 8816 03e0 0000FA43 		.word	1140457472
 8817 03e4 0000F041 		.word	1106247680
 8818 03e8 00000000 		.space	36
 8818      00000000 
 8818      00000000 
 8818      00000000 
 8818      00000000 
 8819 040c 44000000 		.word	.LC32
 8820 0410 00008C42 		.word	1116471296
 8821 0414 00000C44 		.word	1141637120
 8822 0418 8C150540 		.word	1074075020
 8823 041c 0000803F 		.word	1065353216
 8824 0420 0AD7A33E 		.word	1050924810
 8825 0424 03       		.byte	3
 8826 0425 000000   		.space	3
 8827 0428 9CC4803F 		.word	1065403548
 8828 042c 9A99993E 		.word	1050253722
 8829 0430 03       		.byte	3
 8830 0431 000000   		.space	3
 8831 0434 0000003F 		.word	1056964608
 8832 0438 AE47613E 		.word	1046562734
 8833 043c 00       		.byte	0
 8834 043d 000000   		.space	3
 8835 0440 00000040 		.word	1073741824
 8836 0444 EC51383E 		.word	1043878380
 8837 0448 01       		.byte	1
 8838 0449 00       		.byte	0
 8839 044a 0000     		.space	2
ARM GAS  /tmp/claude-502/cc2bPfvH.s 			page 247


 8840 044c 9A99993F 		.word	1067030938
 8841 0450 00004040 		.word	1077936128
 8842 0454 CDCC4C3E 		.word	1045220557
 8843 0458 9A99193F 		.word	1058642330
 8844 045c 8FC2753C 		.word	1014350479
 8845 0460 0000803F 		.word	1065353216
 8846 0464 0000803F 		.word	1065353216
 8847 0468 00000000 		.word	0
 8848 046c 0AD7A33D 		.word	1034147594
 8849 0470 00800945 		.word	1158250496
 8850 0474 0000FA44 		.word	1157234688
 8851 0478 0000A042 		.word	1117782016
 8852 047c 00000000 		.space	36
 8852      00000000 
 8852      00000000 
 8852      00000000 
 8852      00000000 
 8853 04a0 48000000 		.word	.LC33
 8854 04a4 00002042 		.word	1109393408
 8855 04a8 0000C843 		.word	1137180672
 8856 04ac A25D1340 		.word	1075010978
 8857 04b0 0000803F 		.word	1065353216
 8858 04b4 AE47613E 		.word	1046562734
 8859 04b8 01       		.byte	1
 8860 04b9 000000   		.space	3
 8861 04bc CDCCCC3F 		.word	1070386381
 8862 04c0 9A99193E 		.word	1041865114
 8863 04c4 01       		.byte	1
 8864 04c5 000000   		.space	3
 8865 04c8 0000003F 		.word	1056964608
 8866 04cc CDCCCC3D 		.word	1036831949
 8867 04d0 01       		.byte	1
 8868 04d1 000000   		.space	3
 8869 04d4 00000040 		.word	1073741824
 8870 04d8 00000000 		.word	0
 8871 04dc 01       		.byte	1
 8872 04dd 00       		.byte	0
 8873 04de 0000     		.space	2
 8874 04e0 00004040 		.word	1077936128
 8875 04e4 00004040 		.word	1077936128
 8876 04e8 9A99993E 		.word	1050253722
 8877 04ec 0000C03F 		.word	1069547520
 8878 04f0 3333333F 		.word	1060320051
 8879 04f4 9A99993E 		.word	1050253722
 8880 04f8 0000803F 		.word	1065353216
 8881 04fc 00000000 		.word	0
 8882 0500 CDCCCC3D 		.word	1036831949
 8883 0504 0000803F 		.word	1065353216
 8884 0508 00001643 		.word	1125515264
 8885 050c 0000A040 		.word	1084227584
 8886 0510 0000803F 		.word	1065353216
 8887 0514 0000A042 		.word	1117782016
 8888 0518 00000000 		.word	0
 8889 051c 01       		.byte	1
 8890 051d 000000   		.space	3
 8891 0520 9A99593F 		.word	1062836634
 8892 0524 0000C843 		.word	1137180672
ARM GAS  /tmp/claude-502/cc2bPfvH.s 			page 248


 8893 0528 00000000 		.space	12
 8893      00000000 
 8893      00000000 
 8894 0534 4C000000 		.word	.LC34
 8895 0538 0000F041 		.word	1106247680
 8896 053c 0000A042 		.word	1117782016
 8897 0540 AD177B3F 		.word	1065031597
 8898 0544 0000803F 		.word	1065353216
 8899 0548 CDCC0C3F 		.word	1057803469
 8900 054c 01       		.byte	1
 8901 054d 000000   		.space	3
 8902 0550 00000040 		.word	1073741824
 8903 0554 CDCCCC3D 		.word	1036831949
 8904 0558 01       		.byte	1
 8905 0559 000000   		.space	3
 8906 055c 0000003F 		.word	1056964608
 8907 0560 9A99193E 		.word	1041865114
 8908 0564 01       		.byte	1
 8909 0565 000000   		.space	3
 8910 0568 00000040 		.word	1073741824
 8911 056c 00000000 		.word	0
 8912 0570 01       		.byte	1
 8913 0571 00       		.byte	0
 8914 0572 0000     		.space	2
 8915 0574 00004040 		.word	1077936128
 8916 0578 00000040 		.word	1073741824
 8917 057c CDCC4C3E 		.word	1045220557
 8918 0580 6666E63F 		.word	1072064102
 8919 0584 0AD7A33D 		.word	1034147594
 8920 0588 0000003F 		.word	1056964608
 8921 058c 0000803F 		.word	1065353216
 8922 0590 00000000 		.word	0
 8923 0594 00000000 		.word	0
 8924 0598 0000803F 		.word	1065353216
 8925 059c 00002043 		.word	1126170624
 8926 05a0 0000A040 		.word	1084227584
 8927 05a4 00000040 		.word	1073741824
 8928 05a8 00003442 		.word	1110704128
 8929 05ac 00000000 		.word	0
 8930 05b0 01       		.byte	1
 8931 05b1 000000   		.space	3
 8932 05b4 9A99593F 		.word	1062836634
 8933 05b8 0000C843 		.word	1137180672
 8934 05bc 00000000 		.space	12
 8934      00000000 
 8934      00000000 
 8935 05c8 54000000 		.word	.LC35
 8936 05cc 00001643 		.word	1125515264
 8937 05d0 0000FA43 		.word	1140457472
 8938 05d4 B01B9A3F 		.word	1067064240
 8939 05d8 0000803F 		.word	1065353216
 8940 05dc 9A99193E 		.word	1041865114
 8941 05e0 01       		.byte	1
 8942 05e1 000000   		.space	3
 8943 05e4 6666E63F 		.word	1072064102
 8944 05e8 8FC2F53D 		.word	1039516303
 8945 05ec 00       		.byte	0
ARM GAS  /tmp/claude-502/cc2bPfvH.s 			page 249


 8946 05ed 000000   		.space	3
 8947 05f0 0000003F 		.word	1056964608
 8948 05f4 CDCC4C3D 		.word	1028443341
 8949 05f8 01       		.byte	1
 8950 05f9 000000   		.space	3
 8951 05fc 00000040 		.word	1073741824
 8952 0600 00000000 		.word	0
 8953 0604 01       		.byte	1
 8954 0605 00       		.byte	0
 8955 0606 0000     		.space	2
 8956 0608 00009041 		.word	1099956224
 8957 060c 00008040 		.word	1082130432
 8958 0610 9A99993E 		.word	1050253722
 8959 0614 0000C03F 		.word	1069547520
 8960 0618 EC51383F 		.word	1060655596
 8961 061c 9A99993E 		.word	1050253722
 8962 0620 0000803F 		.word	1065353216
 8963 0624 00000000 		.word	0
 8964 0628 CDCCCC3D 		.word	1036831949
 8965 062c 0000803F 		.word	1065353216
 8966 0630 00000C43 		.word	1124859904
 8967 0634 0000A040 		.word	1084227584
 8968 0638 3333333F 		.word	1060320051
 8969 063c 0000F041 		.word	1106247680
 8970 0640 00000000 		.word	0
 8971 0644 01       		.byte	1
 8972 0645 000000   		.space	3
 8973 0648 9A99593F 		.word	1062836634
 8974 064c 0000C843 		.word	1137180672
 8975 0650 00000000 		.space	12
 8975      00000000 
 8975      00000000 
 8976 065c 5C000000 		.word	.LC36
 8977 0660 00007A45 		.word	1165623296
 8978 0664 00E02B46 		.word	1177280512
 8979 0668 1C7C813F 		.word	1065450524
 8980 066c 0000803F 		.word	1065353216
 8981 0670 CDCCCC3D 		.word	1036831949
 8982 0674 02       		.byte	2
 8983 0675 000000   		.space	3
 8984 0678 3D0AD73F 		.word	1071057469
 8985 067c 0AD7A33D 		.word	1034147594
 8986 0680 02       		.byte	2
 8987 0681 000000   		.space	3
 8988 0684 0000003F 		.word	1056964608
 8989 0688 00000000 		.word	0
 8990 068c 01       		.byte	1
 8991 068d 000000   		.space	3
 8992 0690 00000040 		.word	1073741824
 8993 0694 8FC2753D 		.word	1031127695
 8994 0698 02       		.byte	2
 8995 0699 00       		.byte	0
 8996 069a 0000     		.space	2
 8997 069c 0000C841 		.word	1103626240
 8998 06a0 00000040 		.word	1073741824
 8999 06a4 CDCC4C3E 		.word	1045220557
 9000 06a8 9A99993F 		.word	1067030938
ARM GAS  /tmp/claude-502/cc2bPfvH.s 			page 250


 9001 06ac CDCC4C3F 		.word	1061997773
 9002 06b0 CDCC4C3E 		.word	1045220557
 9003 06b4 0000803F 		.word	1065353216
 9004 06b8 00000000 		.word	0
 9005 06bc CDCC4C3D 		.word	1028443341
 9006 06c0 0000803F 		.word	1065353216
 9007 06c4 00002043 		.word	1126170624
 9008 06c8 00004040 		.word	1077936128
 9009 06cc 00000000 		.word	0
 9010 06d0 00000000 		.word	0
 9011 06d4 0000803F 		.word	1065353216
 9012 06d8 01       		.byte	1
 9013 06d9 000000   		.space	3
 9014 06dc 9A99593F 		.word	1062836634
 9015 06e0 0000C843 		.word	1137180672
 9016 06e4 00000000 		.space	12
 9016      00000000 
 9016      00000000 
 9017 06f0 64000000 		.word	.LC37
 9018 06f4 0000F041 		.word	1106247680
 9019 06f8 0000A042 		.word	1117782016
 9020 06fc AD177B3F 		.word	1065031597
 9021 0700 0000803F 		.word	1065353216
 9022 0704 CDCC0C3F 		.word	1057803469
 9023 0708 01       		.byte	1
 9024 0709 000000   		.space	3
 9025 070c 0000803F 		.word	1065353216
 9026 0710 00000000 		.word	0
 9027 0714 01       		.byte	1
 9028 0715 000000   		.space	3
 9029 0718 0000003F 		.word	1056964608
 9030 071c 00000000 		.word	0
 9031 0720 01       		.byte	1
 9032 0721 000000   		.space	3
 9033 0724 00000040 		.word	1073741824
 9034 0728 00000000 		.word	0
 9035 072c 01       		.byte	1
 9036 072d 00       		.byte	0
 9037 072e 0000     		.space	2
 9038 0730 00004040 		.word	1077936128
 9039 0734 00000040 		.word	1073741824
 9040 0738 CDCC4C3E 		.word	1045220557
 9041 073c 0000803F 		.word	1065353216
 9042 0740 00000000 		.word	0
 9043 0744 0000003F 		.word	1056964608
 9044 0748 0000803F 		.word	1065353216
 9045 074c 00000000 		.word	0
 9046 0750 00000000 		.word	0
 9047 0754 0000803F 		.word	1065353216
 9048 0758 00002043 		.word	1126170624
 9049 075c 0000A040 		.word	1084227584
 9050 0760 00000000 		.word	0
 9051 0764 00000000 		.word	0
 9052 0768 00000000 		.word	0
 9053 076c 00000000 		.space	24
 9053      00000000 
 9053      00000000 
ARM GAS  /tmp/claude-502/cc2bPfvH.s 			page 251


 9053      00000000 
 9053      00000000 
 9054              		.section	.rodata._ZN5daisy4seedL2A0E,"a"
 9055              		.align	2
 9056              		.set	.LANCHOR3,. + 0
 9059              	_ZN5daisy4seedL2A0E:
 9060 0000 02       		.byte	2
 9061 0001 00       		.byte	0
 9062              		.text
 9063              	.Letext0:
 9064              		.file 15 "/Library/DaisyToolchain/0.2.0/arm/arm-none-eabi/include/machine/_default_types.h"
 9065              		.file 16 "/Library/DaisyToolchain/0.2.0/arm/arm-none-eabi/include/sys/_stdint.h"
 9066              		.file 17 "/Library/DaisyToolchain/0.2.0/arm/arm-none-eabi/include/stdint.h"
 9067              		.file 18 "/Library/DaisyToolchain/0.2.0/arm/lib/gcc/arm-none-eabi/10.3.1/include/stddef.h"
 9068              		.file 19 "/Library/DaisyToolchain/0.2.0/arm/arm-none-eabi/include/c++/10.3.1/cmath"
 9069              		.file 20 "/Library/DaisyToolchain/0.2.0/arm/arm-none-eabi/include/c++/10.3.1/bits/std_abs.h"
 9070              		.file 21 "/Library/DaisyToolchain/0.2.0/arm/arm-none-eabi/include/c++/10.3.1/cstdlib"
 9071              		.file 22 "/Library/DaisyToolchain/0.2.0/arm/arm-none-eabi/include/c++/10.3.1/cstdint"
 9072              		.file 23 "/Library/DaisyToolchain/0.2.0/arm/arm-none-eabi/include/c++/10.3.1/type_traits"
 9073              		.file 24 "/Library/DaisyToolchain/0.2.0/arm/arm-none-eabi/include/c++/10.3.1/debug/debug.h"
 9074              		.file 25 "/Library/DaisyToolchain/0.2.0/arm/arm-none-eabi/include/c++/10.3.1/arm-none-eabi/thumb/v
 9075              		.file 26 "/Library/DaisyToolchain/0.2.0/arm/arm-none-eabi/include/c++/10.3.1/bits/algorithmfwd.h"
 9076              		.file 27 "/Library/DaisyToolchain/0.2.0/arm/arm-none-eabi/include/c++/10.3.1/bits/stl_pair.h"
 9077              		.file 28 "/Library/DaisyToolchain/0.2.0/arm/arm-none-eabi/include/c++/10.3.1/bits/exception_ptr.h"
 9078              		.file 29 "/Library/DaisyToolchain/0.2.0/arm/arm-none-eabi/include/c++/10.3.1/cstdarg"
 9079              		.file 30 "/Library/DaisyToolchain/0.2.0/arm/arm-none-eabi/include/c++/10.3.1/cstdio"
 9080              		.file 31 "/Library/DaisyToolchain/0.2.0/arm/arm-none-eabi/include/c++/10.3.1/cstring"
 9081              		.file 32 "/Library/DaisyToolchain/0.2.0/arm/arm-none-eabi/include/c++/10.3.1/bits/predefined_ops.h
 9082              		.file 33 "/Library/DaisyToolchain/0.2.0/arm/arm-none-eabi/include/sys/_types.h"
 9083              		.file 34 "/Library/DaisyToolchain/0.2.0/arm/arm-none-eabi/include/sys/reent.h"
 9084              		.file 35 "/Library/DaisyToolchain/0.2.0/arm/arm-none-eabi/include/sys/lock.h"
 9085              		.file 36 "/Library/DaisyToolchain/0.2.0/arm/arm-none-eabi/include/math.h"
 9086              		.file 37 "/Library/DaisyToolchain/0.2.0/arm/arm-none-eabi/include/stdlib.h"
 9087              		.file 38 "/Library/DaisyToolchain/0.2.0/arm/arm-none-eabi/include/c++/10.3.1/math.h"
 9088              		.file 39 "/Library/DaisyToolchain/0.2.0/arm/arm-none-eabi/include/c++/10.3.1/stdlib.h"
 9089              		.file 40 "/Users/reza.kalfane/Workspaces/Daisy/DaisyExamples/libDaisy/src/per/tim.h"
 9090              		.file 41 "/Users/reza.kalfane/Workspaces/Daisy/DaisyExamples/libDaisy/src/hid/logger_impl.h"
 9091              		.file 42 "/Users/reza.kalfane/Workspaces/Daisy/DaisyExamples/libDaisy/src/util/wav_format.h"
 9092              		.file 43 "/Users/reza.kalfane/Workspaces/Daisy/DaisyExamples/libDaisy/src/dev/max11300.h"
 9093              		.file 44 "/Users/reza.kalfane/Workspaces/Daisy/DaisyExamples/libDaisy/src/hid/logger.h"
 9094              		.file 45 "/Users/reza.kalfane/Workspaces/Daisy/DaisyExamples/libDaisy/src/dev/sdram.h"
 9095              		.file 46 "/Library/DaisyToolchain/0.2.0/arm/lib/gcc/arm-none-eabi/10.3.1/include/stdarg.h"
 9096              		.file 47 "/Library/DaisyToolchain/0.2.0/arm/arm-none-eabi/include/stdio.h"
 9097              		.file 48 "/Library/DaisyToolchain/0.2.0/arm/arm-none-eabi/include/string.h"
 9098              		.file 49 "src/config.h"
 9099              		.file 50 "/Users/reza.kalfane/Workspaces/Daisy/DaisyExamples/libDaisy/src/dev/sr_595.h"
 9100              		.file 51 "src/mpr121.h"
 9101              		.file 52 "src/touch.h"
 9102              		.file 53 "src/engine.h"
 9103              		.file 54 "/Users/reza.kalfane/Workspaces/Daisy/DaisyExamples/libDaisy/src/sys/dma.h"
 9104              		.file 55 "<built-in>"
ARM GAS  /tmp/claude-502/cc2bPfvH.s 			page 252


DEFINED SYMBOLS
                            *ABS*:0000000000000000 main.cpp
/tmp/claude-502/cc2bPfvH.s:19     .text._ZN5daisy9DaisySeedD2Ev:0000000000000000 $t
/tmp/claude-502/cc2bPfvH.s:26     .text._ZN5daisy9DaisySeedD2Ev:0000000000000000 _ZN5daisy9DaisySeedD2Ev
/tmp/claude-502/cc2bPfvH.s:26     .text._ZN5daisy9DaisySeedD2Ev:0000000000000000 _ZN5daisy9DaisySeedD1Ev
/tmp/claude-502/cc2bPfvH.s:67     .text._Z13quantize_midifPKai:0000000000000000 $t
/tmp/claude-502/cc2bPfvH.s:74     .text._Z13quantize_midifPKai:0000000000000000 _Z13quantize_midifPKai
/tmp/claude-502/cc2bPfvH.s:224    .text._Z13quantize_midifPKai:0000000000000088 $d
/tmp/claude-502/cc2bPfvH.s:229    .text._Z8make_barPclli:0000000000000000 $t
/tmp/claude-502/cc2bPfvH.s:236    .text._Z8make_barPclli:0000000000000000 _Z8make_barPclli
/tmp/claude-502/cc2bPfvH.s:332    .text._Z12make_pos_barPci:0000000000000000 $t
/tmp/claude-502/cc2bPfvH.s:339    .text._Z12make_pos_barPci:0000000000000000 _Z12make_pos_barPci
/tmp/claude-502/cc2bPfvH.s:454    .text._Z12make_pos_barPci:000000000000006c $d
/tmp/claude-502/cc2bPfvH.s:459    .rodata.main.str1.4:0000000000000000 $d
/tmp/claude-502/cc2bPfvH.s:538    .text.startup.main:0000000000000000 $t
/tmp/claude-502/cc2bPfvH.s:545    .text.startup.main:0000000000000000 main
/tmp/claude-502/cc2bPfvH.s:815    .text.startup.main:00000000000000f8 $d
/tmp/claude-502/cc2bPfvH.s:826    .text.startup.main:0000000000000118 $t
/tmp/claude-502/cc2bPfvH.s:1587   .text.startup.main:00000000000003ac $d
/tmp/claude-502/cc2bPfvH.s:1617   .text.startup.main:0000000000000418 $t
/tmp/claude-502/cc2bPfvH.s:2376   .text.startup.main:00000000000007a0 $d
/tmp/claude-502/cc2bPfvH.s:2396   .text.startup.main:00000000000007e4 $t
/tmp/claude-502/cc2bPfvH.s:3313   .text.startup.main:0000000000000b54 $d
/tmp/claude-502/cc2bPfvH.s:3347   .text.startup.main:0000000000000bb4 $t
/tmp/claude-502/cc2bPfvH.s:4041   .text.startup.main:0000000000000eac $d
/tmp/claude-502/cc2bPfvH.s:4065   .text.startup.main:0000000000000ef8 $t
/tmp/claude-502/cc2bPfvH.s:4891   .text.startup.main:0000000000001258 $d
/tmp/claude-502/cc2bPfvH.s:4913   .text.startup.main:0000000000001290 $t
/tmp/claude-502/cc2bPfvH.s:5652   .text.startup.main:0000000000001560 $d
/tmp/claude-502/cc2bPfvH.s:5691   .text.startup.main:00000000000015c8 $t
/tmp/claude-502/cc2bPfvH.s:6331   .text.startup.main:00000000000018e8 $d
/tmp/claude-502/cc2bPfvH.s:6369   .text.startup.main:000000000000193c $t
/tmp/claude-502/cc2bPfvH.s:7280   .text.startup.main:0000000000001c0c $d
/tmp/claude-502/cc2bPfvH.s:7305   .text.startup.main:0000000000001c58 $t
/tmp/claude-502/cc2bPfvH.s:8196   .text.startup.main:0000000000001f80 $d
/tmp/claude-502/cc2bPfvH.s:8227   .text.startup.main:0000000000001fcc $t
/tmp/claude-502/cc2bPfvH.s:8291   .text.startup._GLOBAL__sub_I_g_voice_idx:0000000000000000 $t
/tmp/claude-502/cc2bPfvH.s:8297   .text.startup._GLOBAL__sub_I_g_voice_idx:0000000000000000 _GLOBAL__sub_I_g_voice_idx
/tmp/claude-502/cc2bPfvH.s:8457   .text.startup._GLOBAL__sub_I_g_voice_idx:0000000000000028 $d
/tmp/claude-502/cc2bPfvH.s:8465   .init_array:0000000000000000 $d
/tmp/claude-502/cc2bPfvH.s:8523   .bss.led3:0000000000000000 led3
/tmp/claude-502/cc2bPfvH.s:8516   .bss.hw:0000000000000000 hw
/tmp/claude-502/cc2bPfvH.s:8530   .data.g_active_voice:0000000000000000 g_active_voice
/tmp/claude-502/cc2bPfvH.s:8537   .data.g_voice_idx:0000000000000000 g_voice_idx
/tmp/claude-502/cc2bPfvH.s:8472   .rodata.str1.4:0000000000000000 $d
/tmp/claude-502/cc2bPfvH.s:8512   .bss.hw:0000000000000000 $d
/tmp/claude-502/cc2bPfvH.s:8519   .bss.led3:0000000000000000 $d
/tmp/claude-502/cc2bPfvH.s:8526   .data.g_active_voice:0000000000000000 $d
/tmp/claude-502/cc2bPfvH.s:8533   .data.g_voice_idx:0000000000000000 $d
/tmp/claude-502/cc2bPfvH.s:8540   .rodata._ZL11MULTI_ZONES:0000000000000000 $d
/tmp/claude-502/cc2bPfvH.s:8544   .rodata._ZL11MULTI_ZONES:0000000000000000 _ZL11MULTI_ZONES
/tmp/claude-502/cc2bPfvH.s:8550   .rodata._ZL11SCALE_MINOR:0000000000000000 $d
/tmp/claude-502/cc2bPfvH.s:8553   .rodata._ZL11SCALE_MINOR:0000000000000000 _ZL11SCALE_MINOR
/tmp/claude-502/cc2bPfvH.s:8556   .rodata._ZL15MULTI_INTERVALS:0000000000000000 $d
/tmp/claude-502/cc2bPfvH.s:8560   .rodata._ZL15MULTI_INTERVALS:0000000000000000 _ZL15MULTI_INTERVALS
/tmp/claude-502/cc2bPfvH.s:8566   .rodata._ZL6VOICES:0000000000000000 $d
/tmp/claude-502/cc2bPfvH.s:8570   .rodata._ZL6VOICES:0000000000000000 _ZL6VOICES
ARM GAS  /tmp/claude-502/cc2bPfvH.s 			page 253


/tmp/claude-502/cc2bPfvH.s:9055   .rodata._ZN5daisy4seedL2A0E:0000000000000000 $d
/tmp/claude-502/cc2bPfvH.s:9059   .rodata._ZN5daisy4seedL2A0E:0000000000000000 _ZN5daisy4seedL2A0E
                           .group:0000000000000000 _ZN5daisy9DaisySeedD5Ev

UNDEFINED SYMBOLS
__aeabi_ldivmod
memset
tracked
_ZN5daisy9DaisySeed4InitEb
_ZN5daisy9DaisySeed17SetAudioBlockSizeEj
_ZN5daisy10QSPIHandle7GetDataEm
_ZN5daisy6System5DelayEm
_Z13mpr_idle_pinsv
_Z8mpr_initv
_ZN5daisy9DacHandle4InitERKNS0_6ConfigE
_ZN5daisy9DacHandle10WriteValueENS0_7ChannelEt
_ZN5daisy4GPIO4InitENS_3PinENS0_4ModeENS0_4PullENS0_5SpeedE
_ZN5daisy4GPIO5WriteEb
_ZN5daisy16AdcChannelConfig10InitSingleE12dsy_gpio_pinNS0_15ConversionSpeedE
_ZN5daisy9AdcHandle4InitEPNS_16AdcChannelConfigEjNS0_12OverSamplingE
_ZN5daisy9AdcHandle5StartEv
_ZN5daisy6System6GetNowEv
_ZNK5daisy9AdcHandle3GetEh
_ZN5daisy9DaisySeed10StartAudioEPFvPKPKfPPfjE
_ZN5daisy6LoggerILNS_17LoggerDestinationE1EE8StartLogEb
_ZN5daisy6LoggerILNS_17LoggerDestinationE1EE9PrintLineEPKcz
_Z15read_electrodesPt
g_target_freq
g_amp_target
g_target_cutoff
_Z13AudioCallbackPKPKfPPfj
g_led3_duty
g_master_vol
_Z10detect_rawPlP6Fingeri
_Z14update_trackedP6Fingeri
g_retrig
g_vibrato_depth
g_target_drive
g_finger_on
g_target_detune
g_bitcrush
g_ringmod
_Z16capture_baselinePt
powf
_ZN5daisy9DaisySeed15AudioSampleRateEv
_Z12drum_triggerR7DrumHitifffff
g_hits
cosf
_ZN5daisy6System22GetProgramMemoryRegionEv
_ZN5daisy10QSPIHandle5EraseEmm
_ZN5daisy10QSPIHandle5WriteEmmPh
dsy_dma_invalidate_cache_for_buffer
sqrtf
__aeabi_atexit
__dso_handle
