ARM GAS  /tmp/claude-502/cc09dAcL.s 			page 1


   1              		.cpu cortex-m7
   2              		.arch armv7e-m
   3              		.fpu fpv5-d16
   4              		.eabi_attribute 28, 1
   5              		.eabi_attribute 20, 1
   6              		.eabi_attribute 21, 1
   7              		.eabi_attribute 23, 3
   8              		.eabi_attribute 24, 1
   9              		.eabi_attribute 25, 1
  10              		.eabi_attribute 26, 1
  11              		.eabi_attribute 30, 2
  12              		.eabi_attribute 34, 1
  13              		.eabi_attribute 18, 4
  14              		.file	"main.cpp"
  15              		.text
  16              	.Ltext0:
  17              		.cfi_sections	.debug_frame
  18              		.section	.text._ZN5daisy9DaisySeedD2Ev,"axG",%progbits,_ZN5daisy9DaisySeedD5Ev,comdat
  19              		.align	1
  20              		.p2align 2,,3
  21              		.weak	_ZN5daisy9DaisySeedD2Ev
  22              		.syntax unified
  23              		.thumb
  24              		.thumb_func
  26              	_ZN5daisy9DaisySeedD2Ev:
  27              	.LVL0:
  28              	.LFB2556:
  29              		.file 1 "/Users/reza.kalfane/Workspaces/Daisy/DaisyExamples/libDaisy/src/daisy_seed.h"
   1:/Users/reza.kalfane/Workspaces/Daisy/DaisyExamples/libDaisy/src/daisy_seed.h **** #pragma once
   2:/Users/reza.kalfane/Workspaces/Daisy/DaisyExamples/libDaisy/src/daisy_seed.h **** #ifndef DSY_SEED_H
   3:/Users/reza.kalfane/Workspaces/Daisy/DaisyExamples/libDaisy/src/daisy_seed.h **** #define DSY_SEED_H
   4:/Users/reza.kalfane/Workspaces/Daisy/DaisyExamples/libDaisy/src/daisy_seed.h **** 
   5:/Users/reza.kalfane/Workspaces/Daisy/DaisyExamples/libDaisy/src/daisy_seed.h **** #include "daisy.h"
   6:/Users/reza.kalfane/Workspaces/Daisy/DaisyExamples/libDaisy/src/daisy_seed.h **** 
   7:/Users/reza.kalfane/Workspaces/Daisy/DaisyExamples/libDaisy/src/daisy_seed.h **** //Uncomment this out if you're still using the rev2 hardware
   8:/Users/reza.kalfane/Workspaces/Daisy/DaisyExamples/libDaisy/src/daisy_seed.h **** //#define SEED_REV2
   9:/Users/reza.kalfane/Workspaces/Daisy/DaisyExamples/libDaisy/src/daisy_seed.h **** 
  10:/Users/reza.kalfane/Workspaces/Daisy/DaisyExamples/libDaisy/src/daisy_seed.h **** namespace daisy
  11:/Users/reza.kalfane/Workspaces/Daisy/DaisyExamples/libDaisy/src/daisy_seed.h **** {
  12:/Users/reza.kalfane/Workspaces/Daisy/DaisyExamples/libDaisy/src/daisy_seed.h **** /**
  13:/Users/reza.kalfane/Workspaces/Daisy/DaisyExamples/libDaisy/src/daisy_seed.h ****    @brief This is the higher-level interface for the Daisy board. \n 
  14:/Users/reza.kalfane/Workspaces/Daisy/DaisyExamples/libDaisy/src/daisy_seed.h ****     All basic peripheral configuration/initialization is setup here. \n
  15:/Users/reza.kalfane/Workspaces/Daisy/DaisyExamples/libDaisy/src/daisy_seed.h **** 
  16:/Users/reza.kalfane/Workspaces/Daisy/DaisyExamples/libDaisy/src/daisy_seed.h ****    @ingroup boards
  17:/Users/reza.kalfane/Workspaces/Daisy/DaisyExamples/libDaisy/src/daisy_seed.h **** */
  18:/Users/reza.kalfane/Workspaces/Daisy/DaisyExamples/libDaisy/src/daisy_seed.h **** class DaisySeed
  19:/Users/reza.kalfane/Workspaces/Daisy/DaisyExamples/libDaisy/src/daisy_seed.h **** {
  20:/Users/reza.kalfane/Workspaces/Daisy/DaisyExamples/libDaisy/src/daisy_seed.h ****   public:
  21:/Users/reza.kalfane/Workspaces/Daisy/DaisyExamples/libDaisy/src/daisy_seed.h ****     DaisySeed() {}
  22:/Users/reza.kalfane/Workspaces/Daisy/DaisyExamples/libDaisy/src/daisy_seed.h ****     ~DaisySeed() {}
  30              		.loc 1 22 5 view -0
  31              		.cfi_startproc
  32              		@ args = 0, pretend = 0, frame = 0
  33              		@ frame_needed = 0, uses_anonymous_args = 0
  34              		@ link register save eliminated.
  35              	.LBB279:
  36              	.LBI279:
ARM GAS  /tmp/claude-502/cc09dAcL.s 			page 2


  37              		.file 2 "/Users/reza.kalfane/Workspaces/Daisy/DaisyExamples/libDaisy/src/sys/system.h"
   1:/Users/reza.kalfane/Workspaces/Daisy/DaisyExamples/libDaisy/src/sys/system.h **** #ifndef DSY_SYSTEM_H
   2:/Users/reza.kalfane/Workspaces/Daisy/DaisyExamples/libDaisy/src/sys/system.h **** #define DSY_SYSTEM_H
   3:/Users/reza.kalfane/Workspaces/Daisy/DaisyExamples/libDaisy/src/sys/system.h **** 
   4:/Users/reza.kalfane/Workspaces/Daisy/DaisyExamples/libDaisy/src/sys/system.h **** #ifndef UNIT_TEST // for unit tests, a dummy implementation is provided below
   5:/Users/reza.kalfane/Workspaces/Daisy/DaisyExamples/libDaisy/src/sys/system.h **** 
   6:/Users/reza.kalfane/Workspaces/Daisy/DaisyExamples/libDaisy/src/sys/system.h **** #include <cstdint>
   7:/Users/reza.kalfane/Workspaces/Daisy/DaisyExamples/libDaisy/src/sys/system.h **** #include "per/tim.h"
   8:/Users/reza.kalfane/Workspaces/Daisy/DaisyExamples/libDaisy/src/sys/system.h **** 
   9:/Users/reza.kalfane/Workspaces/Daisy/DaisyExamples/libDaisy/src/sys/system.h **** namespace daisy
  10:/Users/reza.kalfane/Workspaces/Daisy/DaisyExamples/libDaisy/src/sys/system.h **** {
  11:/Users/reza.kalfane/Workspaces/Daisy/DaisyExamples/libDaisy/src/sys/system.h **** /** A handle for interacting with the Core System.
  12:/Users/reza.kalfane/Workspaces/Daisy/DaisyExamples/libDaisy/src/sys/system.h ****  ** This includes the Clock tree, MPU, global DMA initialization,
  13:/Users/reza.kalfane/Workspaces/Daisy/DaisyExamples/libDaisy/src/sys/system.h ****  ** cache handling, and any other necessary global initiailzation
  14:/Users/reza.kalfane/Workspaces/Daisy/DaisyExamples/libDaisy/src/sys/system.h ****  **
  15:/Users/reza.kalfane/Workspaces/Daisy/DaisyExamples/libDaisy/src/sys/system.h ****  ** @author shensley
  16:/Users/reza.kalfane/Workspaces/Daisy/DaisyExamples/libDaisy/src/sys/system.h ****  ** @ingroup system
  17:/Users/reza.kalfane/Workspaces/Daisy/DaisyExamples/libDaisy/src/sys/system.h ****  */
  18:/Users/reza.kalfane/Workspaces/Daisy/DaisyExamples/libDaisy/src/sys/system.h **** class System
  19:/Users/reza.kalfane/Workspaces/Daisy/DaisyExamples/libDaisy/src/sys/system.h **** {
  20:/Users/reza.kalfane/Workspaces/Daisy/DaisyExamples/libDaisy/src/sys/system.h ****   public:
  21:/Users/reza.kalfane/Workspaces/Daisy/DaisyExamples/libDaisy/src/sys/system.h ****     /** Contains settings for initializing the System */
  22:/Users/reza.kalfane/Workspaces/Daisy/DaisyExamples/libDaisy/src/sys/system.h ****     struct Config
  23:/Users/reza.kalfane/Workspaces/Daisy/DaisyExamples/libDaisy/src/sys/system.h ****     {
  24:/Users/reza.kalfane/Workspaces/Daisy/DaisyExamples/libDaisy/src/sys/system.h ****         /** Specifies the system clock frequency that feeds APB/AHB clocks, etc. */
  25:/Users/reza.kalfane/Workspaces/Daisy/DaisyExamples/libDaisy/src/sys/system.h ****         enum class SysClkFreq
  26:/Users/reza.kalfane/Workspaces/Daisy/DaisyExamples/libDaisy/src/sys/system.h ****         {
  27:/Users/reza.kalfane/Workspaces/Daisy/DaisyExamples/libDaisy/src/sys/system.h ****             FREQ_400MHZ,
  28:/Users/reza.kalfane/Workspaces/Daisy/DaisyExamples/libDaisy/src/sys/system.h ****             FREQ_480MHZ,
  29:/Users/reza.kalfane/Workspaces/Daisy/DaisyExamples/libDaisy/src/sys/system.h ****         };
  30:/Users/reza.kalfane/Workspaces/Daisy/DaisyExamples/libDaisy/src/sys/system.h **** 
  31:/Users/reza.kalfane/Workspaces/Daisy/DaisyExamples/libDaisy/src/sys/system.h ****         /** Method to call on the struct to set to defaults
  32:/Users/reza.kalfane/Workspaces/Daisy/DaisyExamples/libDaisy/src/sys/system.h ****          ** CPU Freq set to 400MHz
  33:/Users/reza.kalfane/Workspaces/Daisy/DaisyExamples/libDaisy/src/sys/system.h ****          ** Cache Enabled
  34:/Users/reza.kalfane/Workspaces/Daisy/DaisyExamples/libDaisy/src/sys/system.h ****          ** */
  35:/Users/reza.kalfane/Workspaces/Daisy/DaisyExamples/libDaisy/src/sys/system.h ****         void Defaults()
  36:/Users/reza.kalfane/Workspaces/Daisy/DaisyExamples/libDaisy/src/sys/system.h ****         {
  37:/Users/reza.kalfane/Workspaces/Daisy/DaisyExamples/libDaisy/src/sys/system.h ****             cpu_freq    = SysClkFreq::FREQ_400MHZ;
  38:/Users/reza.kalfane/Workspaces/Daisy/DaisyExamples/libDaisy/src/sys/system.h ****             use_dcache  = true;
  39:/Users/reza.kalfane/Workspaces/Daisy/DaisyExamples/libDaisy/src/sys/system.h ****             use_icache  = true;
  40:/Users/reza.kalfane/Workspaces/Daisy/DaisyExamples/libDaisy/src/sys/system.h ****             skip_clocks = false;
  41:/Users/reza.kalfane/Workspaces/Daisy/DaisyExamples/libDaisy/src/sys/system.h ****         }
  42:/Users/reza.kalfane/Workspaces/Daisy/DaisyExamples/libDaisy/src/sys/system.h **** 
  43:/Users/reza.kalfane/Workspaces/Daisy/DaisyExamples/libDaisy/src/sys/system.h ****         /** Method to call on the struct to set to boost mode:
  44:/Users/reza.kalfane/Workspaces/Daisy/DaisyExamples/libDaisy/src/sys/system.h ****          ** CPU Freq set to 480MHz
  45:/Users/reza.kalfane/Workspaces/Daisy/DaisyExamples/libDaisy/src/sys/system.h ****          ** Cache Enabled
  46:/Users/reza.kalfane/Workspaces/Daisy/DaisyExamples/libDaisy/src/sys/system.h ****          ** */
  47:/Users/reza.kalfane/Workspaces/Daisy/DaisyExamples/libDaisy/src/sys/system.h ****         void Boost()
  48:/Users/reza.kalfane/Workspaces/Daisy/DaisyExamples/libDaisy/src/sys/system.h ****         {
  49:/Users/reza.kalfane/Workspaces/Daisy/DaisyExamples/libDaisy/src/sys/system.h ****             cpu_freq    = SysClkFreq::FREQ_480MHZ;
  50:/Users/reza.kalfane/Workspaces/Daisy/DaisyExamples/libDaisy/src/sys/system.h ****             use_dcache  = true;
  51:/Users/reza.kalfane/Workspaces/Daisy/DaisyExamples/libDaisy/src/sys/system.h ****             use_icache  = true;
  52:/Users/reza.kalfane/Workspaces/Daisy/DaisyExamples/libDaisy/src/sys/system.h ****             skip_clocks = false;
  53:/Users/reza.kalfane/Workspaces/Daisy/DaisyExamples/libDaisy/src/sys/system.h ****         }
  54:/Users/reza.kalfane/Workspaces/Daisy/DaisyExamples/libDaisy/src/sys/system.h **** 
  55:/Users/reza.kalfane/Workspaces/Daisy/DaisyExamples/libDaisy/src/sys/system.h ****         SysClkFreq cpu_freq;
  56:/Users/reza.kalfane/Workspaces/Daisy/DaisyExamples/libDaisy/src/sys/system.h ****         bool       use_dcache;
ARM GAS  /tmp/claude-502/cc09dAcL.s 			page 3


  57:/Users/reza.kalfane/Workspaces/Daisy/DaisyExamples/libDaisy/src/sys/system.h ****         bool       use_icache;
  58:/Users/reza.kalfane/Workspaces/Daisy/DaisyExamples/libDaisy/src/sys/system.h ****         bool       skip_clocks;
  59:/Users/reza.kalfane/Workspaces/Daisy/DaisyExamples/libDaisy/src/sys/system.h ****     };
  60:/Users/reza.kalfane/Workspaces/Daisy/DaisyExamples/libDaisy/src/sys/system.h **** 
  61:/Users/reza.kalfane/Workspaces/Daisy/DaisyExamples/libDaisy/src/sys/system.h ****     /** Describes the different regions of memory available to the Daisy */
  62:/Users/reza.kalfane/Workspaces/Daisy/DaisyExamples/libDaisy/src/sys/system.h ****     enum MemoryRegion
  63:/Users/reza.kalfane/Workspaces/Daisy/DaisyExamples/libDaisy/src/sys/system.h ****     {
  64:/Users/reza.kalfane/Workspaces/Daisy/DaisyExamples/libDaisy/src/sys/system.h ****         INTERNAL_FLASH = 0,
  65:/Users/reza.kalfane/Workspaces/Daisy/DaisyExamples/libDaisy/src/sys/system.h ****         ITCMRAM,
  66:/Users/reza.kalfane/Workspaces/Daisy/DaisyExamples/libDaisy/src/sys/system.h ****         DTCMRAM,
  67:/Users/reza.kalfane/Workspaces/Daisy/DaisyExamples/libDaisy/src/sys/system.h ****         SRAM_D1,
  68:/Users/reza.kalfane/Workspaces/Daisy/DaisyExamples/libDaisy/src/sys/system.h ****         SRAM_D2,
  69:/Users/reza.kalfane/Workspaces/Daisy/DaisyExamples/libDaisy/src/sys/system.h ****         SRAM_D3,
  70:/Users/reza.kalfane/Workspaces/Daisy/DaisyExamples/libDaisy/src/sys/system.h ****         SDRAM,
  71:/Users/reza.kalfane/Workspaces/Daisy/DaisyExamples/libDaisy/src/sys/system.h ****         QSPI,
  72:/Users/reza.kalfane/Workspaces/Daisy/DaisyExamples/libDaisy/src/sys/system.h ****         INVALID_ADDRESS,
  73:/Users/reza.kalfane/Workspaces/Daisy/DaisyExamples/libDaisy/src/sys/system.h ****     };
  74:/Users/reza.kalfane/Workspaces/Daisy/DaisyExamples/libDaisy/src/sys/system.h **** 
  75:/Users/reza.kalfane/Workspaces/Daisy/DaisyExamples/libDaisy/src/sys/system.h ****     /** Bootloader struct for controlling bootloading parameters */
  76:/Users/reza.kalfane/Workspaces/Daisy/DaisyExamples/libDaisy/src/sys/system.h ****     struct BootInfo
  77:/Users/reza.kalfane/Workspaces/Daisy/DaisyExamples/libDaisy/src/sys/system.h ****     {
  78:/Users/reza.kalfane/Workspaces/Daisy/DaisyExamples/libDaisy/src/sys/system.h ****         enum class Type : uint32_t
  79:/Users/reza.kalfane/Workspaces/Daisy/DaisyExamples/libDaisy/src/sys/system.h ****         {
  80:/Users/reza.kalfane/Workspaces/Daisy/DaisyExamples/libDaisy/src/sys/system.h ****             INVALID      = 0x00000000,
  81:/Users/reza.kalfane/Workspaces/Daisy/DaisyExamples/libDaisy/src/sys/system.h ****             JUMP         = 0xDEADBEEF,
  82:/Users/reza.kalfane/Workspaces/Daisy/DaisyExamples/libDaisy/src/sys/system.h ****             SKIP_TIMEOUT = 0x5AFEB007,
  83:/Users/reza.kalfane/Workspaces/Daisy/DaisyExamples/libDaisy/src/sys/system.h ****             INF_TIMEOUT  = 0xB0074EFA,
  84:/Users/reza.kalfane/Workspaces/Daisy/DaisyExamples/libDaisy/src/sys/system.h ****         } status;
  85:/Users/reza.kalfane/Workspaces/Daisy/DaisyExamples/libDaisy/src/sys/system.h ****         uint32_t data;
  86:/Users/reza.kalfane/Workspaces/Daisy/DaisyExamples/libDaisy/src/sys/system.h ****         enum class Version : uint32_t
  87:/Users/reza.kalfane/Workspaces/Daisy/DaisyExamples/libDaisy/src/sys/system.h ****         {
  88:/Users/reza.kalfane/Workspaces/Daisy/DaisyExamples/libDaisy/src/sys/system.h ****             LT_v6_0 = 0, // Less than v6.0
  89:/Users/reza.kalfane/Workspaces/Daisy/DaisyExamples/libDaisy/src/sys/system.h ****             NONE,        // No bootloader present
  90:/Users/reza.kalfane/Workspaces/Daisy/DaisyExamples/libDaisy/src/sys/system.h ****             v6_0,        // v6.0
  91:/Users/reza.kalfane/Workspaces/Daisy/DaisyExamples/libDaisy/src/sys/system.h ****             v6_1,        // v6.1 or greater
  92:/Users/reza.kalfane/Workspaces/Daisy/DaisyExamples/libDaisy/src/sys/system.h ****             LAST
  93:/Users/reza.kalfane/Workspaces/Daisy/DaisyExamples/libDaisy/src/sys/system.h ****         } version;
  94:/Users/reza.kalfane/Workspaces/Daisy/DaisyExamples/libDaisy/src/sys/system.h ****     };
  95:/Users/reza.kalfane/Workspaces/Daisy/DaisyExamples/libDaisy/src/sys/system.h **** 
  96:/Users/reza.kalfane/Workspaces/Daisy/DaisyExamples/libDaisy/src/sys/system.h ****     System() {}
  97:/Users/reza.kalfane/Workspaces/Daisy/DaisyExamples/libDaisy/src/sys/system.h ****     ~System() {}
  38              		.loc 2 97 5 view .LVU1
  39              		.loc 2 97 5 is_stmt 0 view .LVU2
  40              	.LBE279:
  41              	.LBB280:
  42              	.LBI280:
  43              		.file 3 "/Users/reza.kalfane/Workspaces/Daisy/DaisyExamples/libDaisy/src/hid/usb.h"
   1:/Users/reza.kalfane/Workspaces/Daisy/DaisyExamples/libDaisy/src/hid/usb.h **** #pragma once
   2:/Users/reza.kalfane/Workspaces/Daisy/DaisyExamples/libDaisy/src/hid/usb.h **** #ifndef DSY_HID_USB_H
   3:/Users/reza.kalfane/Workspaces/Daisy/DaisyExamples/libDaisy/src/hid/usb.h **** #define DSY_HID_USB_H
   4:/Users/reza.kalfane/Workspaces/Daisy/DaisyExamples/libDaisy/src/hid/usb.h **** #include <stdint.h>
   5:/Users/reza.kalfane/Workspaces/Daisy/DaisyExamples/libDaisy/src/hid/usb.h **** #include <stdlib.h>
   6:/Users/reza.kalfane/Workspaces/Daisy/DaisyExamples/libDaisy/src/hid/usb.h **** 
   7:/Users/reza.kalfane/Workspaces/Daisy/DaisyExamples/libDaisy/src/hid/usb.h **** namespace daisy
   8:/Users/reza.kalfane/Workspaces/Daisy/DaisyExamples/libDaisy/src/hid/usb.h **** /** @addtogroup human_interface
   9:/Users/reza.kalfane/Workspaces/Daisy/DaisyExamples/libDaisy/src/hid/usb.h ****     @{
  10:/Users/reza.kalfane/Workspaces/Daisy/DaisyExamples/libDaisy/src/hid/usb.h **** */
ARM GAS  /tmp/claude-502/cc09dAcL.s 			page 4


  11:/Users/reza.kalfane/Workspaces/Daisy/DaisyExamples/libDaisy/src/hid/usb.h **** 
  12:/Users/reza.kalfane/Workspaces/Daisy/DaisyExamples/libDaisy/src/hid/usb.h **** {
  13:/Users/reza.kalfane/Workspaces/Daisy/DaisyExamples/libDaisy/src/hid/usb.h **** /** 
  14:/Users/reza.kalfane/Workspaces/Daisy/DaisyExamples/libDaisy/src/hid/usb.h ****     @brief Interface for initializing and using the USB Peripherals on the daisy
  15:/Users/reza.kalfane/Workspaces/Daisy/DaisyExamples/libDaisy/src/hid/usb.h ****     @author Stephen Hensley
  16:/Users/reza.kalfane/Workspaces/Daisy/DaisyExamples/libDaisy/src/hid/usb.h ****     @date December 2019
  17:/Users/reza.kalfane/Workspaces/Daisy/DaisyExamples/libDaisy/src/hid/usb.h **** */
  18:/Users/reza.kalfane/Workspaces/Daisy/DaisyExamples/libDaisy/src/hid/usb.h **** class UsbHandle
  19:/Users/reza.kalfane/Workspaces/Daisy/DaisyExamples/libDaisy/src/hid/usb.h **** {
  20:/Users/reza.kalfane/Workspaces/Daisy/DaisyExamples/libDaisy/src/hid/usb.h ****   public:
  21:/Users/reza.kalfane/Workspaces/Daisy/DaisyExamples/libDaisy/src/hid/usb.h ****     /** Return values for USBHandle Functions */
  22:/Users/reza.kalfane/Workspaces/Daisy/DaisyExamples/libDaisy/src/hid/usb.h ****     enum class Result
  23:/Users/reza.kalfane/Workspaces/Daisy/DaisyExamples/libDaisy/src/hid/usb.h ****     {
  24:/Users/reza.kalfane/Workspaces/Daisy/DaisyExamples/libDaisy/src/hid/usb.h ****         OK,
  25:/Users/reza.kalfane/Workspaces/Daisy/DaisyExamples/libDaisy/src/hid/usb.h ****         ERR,
  26:/Users/reza.kalfane/Workspaces/Daisy/DaisyExamples/libDaisy/src/hid/usb.h ****     };
  27:/Users/reza.kalfane/Workspaces/Daisy/DaisyExamples/libDaisy/src/hid/usb.h **** 
  28:/Users/reza.kalfane/Workspaces/Daisy/DaisyExamples/libDaisy/src/hid/usb.h ****     /** Specified which of the two USB Peripherals to initialize. */
  29:/Users/reza.kalfane/Workspaces/Daisy/DaisyExamples/libDaisy/src/hid/usb.h ****     enum UsbPeriph
  30:/Users/reza.kalfane/Workspaces/Daisy/DaisyExamples/libDaisy/src/hid/usb.h ****     {
  31:/Users/reza.kalfane/Workspaces/Daisy/DaisyExamples/libDaisy/src/hid/usb.h ****         FS_INTERNAL, /**< Internal pin */
  32:/Users/reza.kalfane/Workspaces/Daisy/DaisyExamples/libDaisy/src/hid/usb.h ****         FS_EXTERNAL, /**< FS External D+ pin is Pin 38 (GPIO32). FS External D- pin is Pin 37 (GPIO
  33:/Users/reza.kalfane/Workspaces/Daisy/DaisyExamples/libDaisy/src/hid/usb.h ****         FS_BOTH,     /**< Both */
  34:/Users/reza.kalfane/Workspaces/Daisy/DaisyExamples/libDaisy/src/hid/usb.h ****     };
  35:/Users/reza.kalfane/Workspaces/Daisy/DaisyExamples/libDaisy/src/hid/usb.h **** 
  36:/Users/reza.kalfane/Workspaces/Daisy/DaisyExamples/libDaisy/src/hid/usb.h **** 
  37:/Users/reza.kalfane/Workspaces/Daisy/DaisyExamples/libDaisy/src/hid/usb.h ****     /** Function called upon reception of a buffer */
  38:/Users/reza.kalfane/Workspaces/Daisy/DaisyExamples/libDaisy/src/hid/usb.h ****     typedef void (*ReceiveCallback)(uint8_t* buff, uint32_t* len);
  39:/Users/reza.kalfane/Workspaces/Daisy/DaisyExamples/libDaisy/src/hid/usb.h **** 
  40:/Users/reza.kalfane/Workspaces/Daisy/DaisyExamples/libDaisy/src/hid/usb.h ****     UsbHandle() {}
  41:/Users/reza.kalfane/Workspaces/Daisy/DaisyExamples/libDaisy/src/hid/usb.h **** 
  42:/Users/reza.kalfane/Workspaces/Daisy/DaisyExamples/libDaisy/src/hid/usb.h ****     ~UsbHandle() {}
  44              		.loc 3 42 5 is_stmt 1 view .LVU3
  45              		.loc 3 42 5 is_stmt 0 view .LVU4
  46              	.LBE280:
  47              	.LBB281:
  48              	.LBI281:
  49              		.file 4 "/Users/reza.kalfane/Workspaces/Daisy/DaisyExamples/libDaisy/src/per/adc.h"
   1:/Users/reza.kalfane/Workspaces/Daisy/DaisyExamples/libDaisy/src/per/adc.h **** #pragma once
   2:/Users/reza.kalfane/Workspaces/Daisy/DaisyExamples/libDaisy/src/per/adc.h **** #ifndef DSY_ADC_H
   3:/Users/reza.kalfane/Workspaces/Daisy/DaisyExamples/libDaisy/src/per/adc.h **** #define DSY_ADC_H /**< Macro */
   4:/Users/reza.kalfane/Workspaces/Daisy/DaisyExamples/libDaisy/src/per/adc.h **** #include <stdint.h>
   5:/Users/reza.kalfane/Workspaces/Daisy/DaisyExamples/libDaisy/src/per/adc.h **** #include <stdlib.h>
   6:/Users/reza.kalfane/Workspaces/Daisy/DaisyExamples/libDaisy/src/per/adc.h **** #include "daisy_core.h"
   7:/Users/reza.kalfane/Workspaces/Daisy/DaisyExamples/libDaisy/src/per/adc.h **** #include "per/gpio.h"
   8:/Users/reza.kalfane/Workspaces/Daisy/DaisyExamples/libDaisy/src/per/adc.h **** 
   9:/Users/reza.kalfane/Workspaces/Daisy/DaisyExamples/libDaisy/src/per/adc.h **** #define DSY_ADC_MAX_CHANNELS 16 /**< Maximum number of ADC channels */
  10:/Users/reza.kalfane/Workspaces/Daisy/DaisyExamples/libDaisy/src/per/adc.h **** 
  11:/Users/reza.kalfane/Workspaces/Daisy/DaisyExamples/libDaisy/src/per/adc.h **** namespace daisy
  12:/Users/reza.kalfane/Workspaces/Daisy/DaisyExamples/libDaisy/src/per/adc.h **** {
  13:/Users/reza.kalfane/Workspaces/Daisy/DaisyExamples/libDaisy/src/per/adc.h **** /** @addtogroup per_analog
  14:/Users/reza.kalfane/Workspaces/Daisy/DaisyExamples/libDaisy/src/per/adc.h ****     @{
  15:/Users/reza.kalfane/Workspaces/Daisy/DaisyExamples/libDaisy/src/per/adc.h **** */
  16:/Users/reza.kalfane/Workspaces/Daisy/DaisyExamples/libDaisy/src/per/adc.h **** 
  17:/Users/reza.kalfane/Workspaces/Daisy/DaisyExamples/libDaisy/src/per/adc.h **** /* While there may not be many configuration options here,
  18:/Users/reza.kalfane/Workspaces/Daisy/DaisyExamples/libDaisy/src/per/adc.h **** using a struct like this allows us to add more configuration
  19:/Users/reza.kalfane/Workspaces/Daisy/DaisyExamples/libDaisy/src/per/adc.h **** later without breaking existing functionality.
ARM GAS  /tmp/claude-502/cc09dAcL.s 			page 5


  20:/Users/reza.kalfane/Workspaces/Daisy/DaisyExamples/libDaisy/src/per/adc.h **** */
  21:/Users/reza.kalfane/Workspaces/Daisy/DaisyExamples/libDaisy/src/per/adc.h **** 
  22:/Users/reza.kalfane/Workspaces/Daisy/DaisyExamples/libDaisy/src/per/adc.h **** /** @brief   Configuration Structure for an ADC Channel 
  23:/Users/reza.kalfane/Workspaces/Daisy/DaisyExamples/libDaisy/src/per/adc.h ****  *  @details This can be used to configure a a single input, 
  24:/Users/reza.kalfane/Workspaces/Daisy/DaisyExamples/libDaisy/src/per/adc.h ****  *           or a multiplexed input, allowing up to 8 inputs on 
  25:/Users/reza.kalfane/Workspaces/Daisy/DaisyExamples/libDaisy/src/per/adc.h ****  *           one channel.
  26:/Users/reza.kalfane/Workspaces/Daisy/DaisyExamples/libDaisy/src/per/adc.h ****  *  @note    Sharing data lines to multiple muxes _is_ possible, but
  27:/Users/reza.kalfane/Workspaces/Daisy/DaisyExamples/libDaisy/src/per/adc.h ****  *           each channel sharing data lines must be set to the maximum
  28:/Users/reza.kalfane/Workspaces/Daisy/DaisyExamples/libDaisy/src/per/adc.h ****  *           number of channels, even if some multiplexers have fewer
  29:/Users/reza.kalfane/Workspaces/Daisy/DaisyExamples/libDaisy/src/per/adc.h ****  *           inputs connected.
  30:/Users/reza.kalfane/Workspaces/Daisy/DaisyExamples/libDaisy/src/per/adc.h **** */
  31:/Users/reza.kalfane/Workspaces/Daisy/DaisyExamples/libDaisy/src/per/adc.h **** struct AdcChannelConfig
  32:/Users/reza.kalfane/Workspaces/Daisy/DaisyExamples/libDaisy/src/per/adc.h **** {
  33:/Users/reza.kalfane/Workspaces/Daisy/DaisyExamples/libDaisy/src/per/adc.h ****     /** Which pin to use for multiplexing */
  34:/Users/reza.kalfane/Workspaces/Daisy/DaisyExamples/libDaisy/src/per/adc.h ****     enum MuxPin
  35:/Users/reza.kalfane/Workspaces/Daisy/DaisyExamples/libDaisy/src/per/adc.h ****     {
  36:/Users/reza.kalfane/Workspaces/Daisy/DaisyExamples/libDaisy/src/per/adc.h ****         MUX_SEL_0,    /**< & */
  37:/Users/reza.kalfane/Workspaces/Daisy/DaisyExamples/libDaisy/src/per/adc.h ****         MUX_SEL_1,    /**< & */
  38:/Users/reza.kalfane/Workspaces/Daisy/DaisyExamples/libDaisy/src/per/adc.h ****         MUX_SEL_2,    /**< & */
  39:/Users/reza.kalfane/Workspaces/Daisy/DaisyExamples/libDaisy/src/per/adc.h ****         MUX_SEL_LAST, /**< & */
  40:/Users/reza.kalfane/Workspaces/Daisy/DaisyExamples/libDaisy/src/per/adc.h ****     };
  41:/Users/reza.kalfane/Workspaces/Daisy/DaisyExamples/libDaisy/src/per/adc.h **** 
  42:/Users/reza.kalfane/Workspaces/Daisy/DaisyExamples/libDaisy/src/per/adc.h ****     /** \brief per channel conversion speed added to fixed time based on bitdepth, etc. */
  43:/Users/reza.kalfane/Workspaces/Daisy/DaisyExamples/libDaisy/src/per/adc.h ****     enum ConversionSpeed
  44:/Users/reza.kalfane/Workspaces/Daisy/DaisyExamples/libDaisy/src/per/adc.h ****     {
  45:/Users/reza.kalfane/Workspaces/Daisy/DaisyExamples/libDaisy/src/per/adc.h ****         SPEED_1CYCLES_5,
  46:/Users/reza.kalfane/Workspaces/Daisy/DaisyExamples/libDaisy/src/per/adc.h ****         SPEED_2CYCLES_5,
  47:/Users/reza.kalfane/Workspaces/Daisy/DaisyExamples/libDaisy/src/per/adc.h ****         SPEED_8CYCLES_5,
  48:/Users/reza.kalfane/Workspaces/Daisy/DaisyExamples/libDaisy/src/per/adc.h ****         SPEED_16CYCLES_5,
  49:/Users/reza.kalfane/Workspaces/Daisy/DaisyExamples/libDaisy/src/per/adc.h ****         SPEED_32CYCLES_5,
  50:/Users/reza.kalfane/Workspaces/Daisy/DaisyExamples/libDaisy/src/per/adc.h ****         SPEED_64CYCLES_5,
  51:/Users/reza.kalfane/Workspaces/Daisy/DaisyExamples/libDaisy/src/per/adc.h ****         SPEED_387CYCLES_5,
  52:/Users/reza.kalfane/Workspaces/Daisy/DaisyExamples/libDaisy/src/per/adc.h ****         SPEED_810CYCLES_5,
  53:/Users/reza.kalfane/Workspaces/Daisy/DaisyExamples/libDaisy/src/per/adc.h ****     };
  54:/Users/reza.kalfane/Workspaces/Daisy/DaisyExamples/libDaisy/src/per/adc.h **** 
  55:/Users/reza.kalfane/Workspaces/Daisy/DaisyExamples/libDaisy/src/per/adc.h ****     /** Initializes a single ADC pin as an ADC. 
  56:/Users/reza.kalfane/Workspaces/Daisy/DaisyExamples/libDaisy/src/per/adc.h ****     \param pin Pin to init.
  57:/Users/reza.kalfane/Workspaces/Daisy/DaisyExamples/libDaisy/src/per/adc.h ****     \param speed conversion speed for this pin defaults to 8.5 cycles
  58:/Users/reza.kalfane/Workspaces/Daisy/DaisyExamples/libDaisy/src/per/adc.h ****      */
  59:/Users/reza.kalfane/Workspaces/Daisy/DaisyExamples/libDaisy/src/per/adc.h ****     void InitSingle(dsy_gpio_pin pin, ConversionSpeed speed = SPEED_8CYCLES_5);
  60:/Users/reza.kalfane/Workspaces/Daisy/DaisyExamples/libDaisy/src/per/adc.h **** 
  61:/Users/reza.kalfane/Workspaces/Daisy/DaisyExamples/libDaisy/src/per/adc.h ****     /** 
  62:/Users/reza.kalfane/Workspaces/Daisy/DaisyExamples/libDaisy/src/per/adc.h ****     Initializes a single ADC pin as a Multiplexed ADC.
  63:/Users/reza.kalfane/Workspaces/Daisy/DaisyExamples/libDaisy/src/per/adc.h ****     Requires a CD405X Multiplexer connected to the pin.
  64:/Users/reza.kalfane/Workspaces/Daisy/DaisyExamples/libDaisy/src/per/adc.h ****     You only need to supply the mux pins that are required,
  65:/Users/reza.kalfane/Workspaces/Daisy/DaisyExamples/libDaisy/src/per/adc.h ****     e.g. a 4052 mux would only require mux_0 and mux_1.
  66:/Users/reza.kalfane/Workspaces/Daisy/DaisyExamples/libDaisy/src/per/adc.h ****     Internal Callbacks handle the pin addressing.
  67:/Users/reza.kalfane/Workspaces/Daisy/DaisyExamples/libDaisy/src/per/adc.h ****     \param adc_pin &
  68:/Users/reza.kalfane/Workspaces/Daisy/DaisyExamples/libDaisy/src/per/adc.h ****     \param mux_channels must be 1-8
  69:/Users/reza.kalfane/Workspaces/Daisy/DaisyExamples/libDaisy/src/per/adc.h ****     \param mux_0 First mux pin
  70:/Users/reza.kalfane/Workspaces/Daisy/DaisyExamples/libDaisy/src/per/adc.h ****     \param mux_1 Second mux pin
  71:/Users/reza.kalfane/Workspaces/Daisy/DaisyExamples/libDaisy/src/per/adc.h ****     \param mux_2 Third mux pin
  72:/Users/reza.kalfane/Workspaces/Daisy/DaisyExamples/libDaisy/src/per/adc.h ****     \param speed conversion speed for this pin defaults to 8.5 cycles
  73:/Users/reza.kalfane/Workspaces/Daisy/DaisyExamples/libDaisy/src/per/adc.h ****     */
  74:/Users/reza.kalfane/Workspaces/Daisy/DaisyExamples/libDaisy/src/per/adc.h ****     void InitMux(dsy_gpio_pin    adc_pin,
  75:/Users/reza.kalfane/Workspaces/Daisy/DaisyExamples/libDaisy/src/per/adc.h ****                  size_t          mux_channels,
  76:/Users/reza.kalfane/Workspaces/Daisy/DaisyExamples/libDaisy/src/per/adc.h ****                  dsy_gpio_pin    mux_0,
ARM GAS  /tmp/claude-502/cc09dAcL.s 			page 6


  77:/Users/reza.kalfane/Workspaces/Daisy/DaisyExamples/libDaisy/src/per/adc.h ****                  dsy_gpio_pin    mux_1 = {DSY_GPIOX, 0},
  78:/Users/reza.kalfane/Workspaces/Daisy/DaisyExamples/libDaisy/src/per/adc.h ****                  dsy_gpio_pin    mux_2 = {DSY_GPIOX, 0},
  79:/Users/reza.kalfane/Workspaces/Daisy/DaisyExamples/libDaisy/src/per/adc.h ****                  ConversionSpeed speed = SPEED_8CYCLES_5);
  80:/Users/reza.kalfane/Workspaces/Daisy/DaisyExamples/libDaisy/src/per/adc.h **** 
  81:/Users/reza.kalfane/Workspaces/Daisy/DaisyExamples/libDaisy/src/per/adc.h ****     dsy_gpio        pin_;                   /**< & */
  82:/Users/reza.kalfane/Workspaces/Daisy/DaisyExamples/libDaisy/src/per/adc.h ****     dsy_gpio        mux_pin_[MUX_SEL_LAST]; /**< & */
  83:/Users/reza.kalfane/Workspaces/Daisy/DaisyExamples/libDaisy/src/per/adc.h ****     uint8_t         mux_channels_;          /**< & */
  84:/Users/reza.kalfane/Workspaces/Daisy/DaisyExamples/libDaisy/src/per/adc.h ****     ConversionSpeed speed_;
  85:/Users/reza.kalfane/Workspaces/Daisy/DaisyExamples/libDaisy/src/per/adc.h **** };
  86:/Users/reza.kalfane/Workspaces/Daisy/DaisyExamples/libDaisy/src/per/adc.h **** 
  87:/Users/reza.kalfane/Workspaces/Daisy/DaisyExamples/libDaisy/src/per/adc.h **** /**
  88:/Users/reza.kalfane/Workspaces/Daisy/DaisyExamples/libDaisy/src/per/adc.h ****    @brief Handler for analog to digital conversion
  89:/Users/reza.kalfane/Workspaces/Daisy/DaisyExamples/libDaisy/src/per/adc.h **** */
  90:/Users/reza.kalfane/Workspaces/Daisy/DaisyExamples/libDaisy/src/per/adc.h **** class AdcHandle
  91:/Users/reza.kalfane/Workspaces/Daisy/DaisyExamples/libDaisy/src/per/adc.h **** {
  92:/Users/reza.kalfane/Workspaces/Daisy/DaisyExamples/libDaisy/src/per/adc.h ****   public:
  93:/Users/reza.kalfane/Workspaces/Daisy/DaisyExamples/libDaisy/src/per/adc.h ****     /** Supported oversampling amounts */
  94:/Users/reza.kalfane/Workspaces/Daisy/DaisyExamples/libDaisy/src/per/adc.h ****     enum OverSampling
  95:/Users/reza.kalfane/Workspaces/Daisy/DaisyExamples/libDaisy/src/per/adc.h ****     {
  96:/Users/reza.kalfane/Workspaces/Daisy/DaisyExamples/libDaisy/src/per/adc.h ****         OVS_NONE, /**< & */
  97:/Users/reza.kalfane/Workspaces/Daisy/DaisyExamples/libDaisy/src/per/adc.h ****         OVS_4,    /**< & */
  98:/Users/reza.kalfane/Workspaces/Daisy/DaisyExamples/libDaisy/src/per/adc.h ****         OVS_8,    /**< & */
  99:/Users/reza.kalfane/Workspaces/Daisy/DaisyExamples/libDaisy/src/per/adc.h ****         OVS_16,   /**< & */
 100:/Users/reza.kalfane/Workspaces/Daisy/DaisyExamples/libDaisy/src/per/adc.h ****         OVS_32,   /**< & */
 101:/Users/reza.kalfane/Workspaces/Daisy/DaisyExamples/libDaisy/src/per/adc.h ****         OVS_64,   /**< & */
 102:/Users/reza.kalfane/Workspaces/Daisy/DaisyExamples/libDaisy/src/per/adc.h ****         OVS_128,  /**< & */
 103:/Users/reza.kalfane/Workspaces/Daisy/DaisyExamples/libDaisy/src/per/adc.h ****         OVS_256,  /**< & */
 104:/Users/reza.kalfane/Workspaces/Daisy/DaisyExamples/libDaisy/src/per/adc.h ****         OVS_512,  /**< & */
 105:/Users/reza.kalfane/Workspaces/Daisy/DaisyExamples/libDaisy/src/per/adc.h ****         OVS_1024, /**< & */
 106:/Users/reza.kalfane/Workspaces/Daisy/DaisyExamples/libDaisy/src/per/adc.h ****         OVS_LAST, /**< & */
 107:/Users/reza.kalfane/Workspaces/Daisy/DaisyExamples/libDaisy/src/per/adc.h ****     };
 108:/Users/reza.kalfane/Workspaces/Daisy/DaisyExamples/libDaisy/src/per/adc.h **** 
 109:/Users/reza.kalfane/Workspaces/Daisy/DaisyExamples/libDaisy/src/per/adc.h ****     AdcHandle() {}
 110:/Users/reza.kalfane/Workspaces/Daisy/DaisyExamples/libDaisy/src/per/adc.h ****     ~AdcHandle() {}
  50              		.loc 4 110 5 is_stmt 1 view .LVU5
  51              		.loc 4 110 5 is_stmt 0 view .LVU6
  52              	.LBE281:
  53              	.LBB282:
  54              	.LBI282:
  55              		.file 5 "/Users/reza.kalfane/Workspaces/Daisy/DaisyExamples/libDaisy/src/hid/audio.h"
   1:/Users/reza.kalfane/Workspaces/Daisy/DaisyExamples/libDaisy/src/hid/audio.h **** #ifndef DSY_AUDIO_H
   2:/Users/reza.kalfane/Workspaces/Daisy/DaisyExamples/libDaisy/src/hid/audio.h **** #define DSY_AUDIO_H /**< & */
   3:/Users/reza.kalfane/Workspaces/Daisy/DaisyExamples/libDaisy/src/hid/audio.h **** 
   4:/Users/reza.kalfane/Workspaces/Daisy/DaisyExamples/libDaisy/src/hid/audio.h **** #include "per/sai.h"
   5:/Users/reza.kalfane/Workspaces/Daisy/DaisyExamples/libDaisy/src/hid/audio.h **** 
   6:/Users/reza.kalfane/Workspaces/Daisy/DaisyExamples/libDaisy/src/hid/audio.h **** namespace daisy
   7:/Users/reza.kalfane/Workspaces/Daisy/DaisyExamples/libDaisy/src/hid/audio.h **** {
   8:/Users/reza.kalfane/Workspaces/Daisy/DaisyExamples/libDaisy/src/hid/audio.h **** /** @brief Audio Engine Handle
   9:/Users/reza.kalfane/Workspaces/Daisy/DaisyExamples/libDaisy/src/hid/audio.h ****  *  @ingroup audio 
  10:/Users/reza.kalfane/Workspaces/Daisy/DaisyExamples/libDaisy/src/hid/audio.h ****  *  @details This class allows for higher level access to an audio engine.
  11:/Users/reza.kalfane/Workspaces/Daisy/DaisyExamples/libDaisy/src/hid/audio.h ****  *           If you're using a SOM like the DaisySeed or DaisyPatchSM (or any 
  12:/Users/reza.kalfane/Workspaces/Daisy/DaisyExamples/libDaisy/src/hid/audio.h ****  *            board that includes one of those objects) then the intialization
  13:/Users/reza.kalfane/Workspaces/Daisy/DaisyExamples/libDaisy/src/hid/audio.h ****  *            is already taken  care of.
  14:/Users/reza.kalfane/Workspaces/Daisy/DaisyExamples/libDaisy/src/hid/audio.h ****  *           If you're setting up your own custom hardware, or need to make changes
  15:/Users/reza.kalfane/Workspaces/Daisy/DaisyExamples/libDaisy/src/hid/audio.h ****  *           you will have to take the following steps:
  16:/Users/reza.kalfane/Workspaces/Daisy/DaisyExamples/libDaisy/src/hid/audio.h ****  *             1. Create and Initialize an SaiHandle or two depending on your requirements
  17:/Users/reza.kalfane/Workspaces/Daisy/DaisyExamples/libDaisy/src/hid/audio.h ****  *             2. Initialize the Audio Handle with the desired settings and the Initialized SaiHand
ARM GAS  /tmp/claude-502/cc09dAcL.s 			page 7


  18:/Users/reza.kalfane/Workspaces/Daisy/DaisyExamples/libDaisy/src/hid/audio.h ****  *             3. If the connected codec requires special configuration or initialization, do so
  19:/Users/reza.kalfane/Workspaces/Daisy/DaisyExamples/libDaisy/src/hid/audio.h ****  *             4. Write a callback method using either the AudioCallback or the InterleavingAudioCa
  20:/Users/reza.kalfane/Workspaces/Daisy/DaisyExamples/libDaisy/src/hid/audio.h ****  *             5. Start the Audio using one of the StartAudio function
  21:/Users/reza.kalfane/Workspaces/Daisy/DaisyExamples/libDaisy/src/hid/audio.h ****  */
  22:/Users/reza.kalfane/Workspaces/Daisy/DaisyExamples/libDaisy/src/hid/audio.h **** class AudioHandle
  23:/Users/reza.kalfane/Workspaces/Daisy/DaisyExamples/libDaisy/src/hid/audio.h **** {
  24:/Users/reza.kalfane/Workspaces/Daisy/DaisyExamples/libDaisy/src/hid/audio.h ****   public:
  25:/Users/reza.kalfane/Workspaces/Daisy/DaisyExamples/libDaisy/src/hid/audio.h ****     /** Manually configurable details about the Audio Engine */
  26:/Users/reza.kalfane/Workspaces/Daisy/DaisyExamples/libDaisy/src/hid/audio.h ****     /** TODO: Figure out how to get samplerate in here. */
  27:/Users/reza.kalfane/Workspaces/Daisy/DaisyExamples/libDaisy/src/hid/audio.h ****     struct Config
  28:/Users/reza.kalfane/Workspaces/Daisy/DaisyExamples/libDaisy/src/hid/audio.h ****     {
  29:/Users/reza.kalfane/Workspaces/Daisy/DaisyExamples/libDaisy/src/hid/audio.h ****         /** number of samples to process per callback */
  30:/Users/reza.kalfane/Workspaces/Daisy/DaisyExamples/libDaisy/src/hid/audio.h ****         size_t blocksize;
  31:/Users/reza.kalfane/Workspaces/Daisy/DaisyExamples/libDaisy/src/hid/audio.h **** 
  32:/Users/reza.kalfane/Workspaces/Daisy/DaisyExamples/libDaisy/src/hid/audio.h ****         /**< Sample rate of audio */
  33:/Users/reza.kalfane/Workspaces/Daisy/DaisyExamples/libDaisy/src/hid/audio.h ****         SaiHandle::Config::SampleRate samplerate;
  34:/Users/reza.kalfane/Workspaces/Daisy/DaisyExamples/libDaisy/src/hid/audio.h **** 
  35:/Users/reza.kalfane/Workspaces/Daisy/DaisyExamples/libDaisy/src/hid/audio.h ****         /** factor for adjustment before and after callback for hardware that may have extra headro
  36:/Users/reza.kalfane/Workspaces/Daisy/DaisyExamples/libDaisy/src/hid/audio.h ****         float postgain;
  37:/Users/reza.kalfane/Workspaces/Daisy/DaisyExamples/libDaisy/src/hid/audio.h **** 
  38:/Users/reza.kalfane/Workspaces/Daisy/DaisyExamples/libDaisy/src/hid/audio.h ****         /** factor for additional one-sided compensation to audio path for hardware that may
  39:/Users/reza.kalfane/Workspaces/Daisy/DaisyExamples/libDaisy/src/hid/audio.h ****          *  have unequal input/output ranges
  40:/Users/reza.kalfane/Workspaces/Daisy/DaisyExamples/libDaisy/src/hid/audio.h ****          */
  41:/Users/reza.kalfane/Workspaces/Daisy/DaisyExamples/libDaisy/src/hid/audio.h ****         float output_compensation;
  42:/Users/reza.kalfane/Workspaces/Daisy/DaisyExamples/libDaisy/src/hid/audio.h **** 
  43:/Users/reza.kalfane/Workspaces/Daisy/DaisyExamples/libDaisy/src/hid/audio.h ****         /** Sets default values for config struct */
  44:/Users/reza.kalfane/Workspaces/Daisy/DaisyExamples/libDaisy/src/hid/audio.h ****         Config()
  45:/Users/reza.kalfane/Workspaces/Daisy/DaisyExamples/libDaisy/src/hid/audio.h ****         : blocksize(48),
  46:/Users/reza.kalfane/Workspaces/Daisy/DaisyExamples/libDaisy/src/hid/audio.h ****           samplerate(SaiHandle::Config::SampleRate::SAI_48KHZ),
  47:/Users/reza.kalfane/Workspaces/Daisy/DaisyExamples/libDaisy/src/hid/audio.h ****           postgain(1.f),
  48:/Users/reza.kalfane/Workspaces/Daisy/DaisyExamples/libDaisy/src/hid/audio.h ****           output_compensation(1.f)
  49:/Users/reza.kalfane/Workspaces/Daisy/DaisyExamples/libDaisy/src/hid/audio.h ****         {
  50:/Users/reza.kalfane/Workspaces/Daisy/DaisyExamples/libDaisy/src/hid/audio.h ****         }
  51:/Users/reza.kalfane/Workspaces/Daisy/DaisyExamples/libDaisy/src/hid/audio.h ****     };
  52:/Users/reza.kalfane/Workspaces/Daisy/DaisyExamples/libDaisy/src/hid/audio.h **** 
  53:/Users/reza.kalfane/Workspaces/Daisy/DaisyExamples/libDaisy/src/hid/audio.h ****     enum class Result
  54:/Users/reza.kalfane/Workspaces/Daisy/DaisyExamples/libDaisy/src/hid/audio.h ****     {
  55:/Users/reza.kalfane/Workspaces/Daisy/DaisyExamples/libDaisy/src/hid/audio.h ****         OK,
  56:/Users/reza.kalfane/Workspaces/Daisy/DaisyExamples/libDaisy/src/hid/audio.h ****         ERR,
  57:/Users/reza.kalfane/Workspaces/Daisy/DaisyExamples/libDaisy/src/hid/audio.h ****     };
  58:/Users/reza.kalfane/Workspaces/Daisy/DaisyExamples/libDaisy/src/hid/audio.h **** 
  59:/Users/reza.kalfane/Workspaces/Daisy/DaisyExamples/libDaisy/src/hid/audio.h ****     /** Non-Interleaving input buffer
  60:/Users/reza.kalfane/Workspaces/Daisy/DaisyExamples/libDaisy/src/hid/audio.h ****      * Buffer arranged by float[chn][sample] 
  61:/Users/reza.kalfane/Workspaces/Daisy/DaisyExamples/libDaisy/src/hid/audio.h ****      * const so that the user can't modify the input
  62:/Users/reza.kalfane/Workspaces/Daisy/DaisyExamples/libDaisy/src/hid/audio.h ****      */
  63:/Users/reza.kalfane/Workspaces/Daisy/DaisyExamples/libDaisy/src/hid/audio.h ****     typedef const float* const* InputBuffer;
  64:/Users/reza.kalfane/Workspaces/Daisy/DaisyExamples/libDaisy/src/hid/audio.h **** 
  65:/Users/reza.kalfane/Workspaces/Daisy/DaisyExamples/libDaisy/src/hid/audio.h ****     /** Non-Interleaving output buffer
  66:/Users/reza.kalfane/Workspaces/Daisy/DaisyExamples/libDaisy/src/hid/audio.h ****      * Arranged by float[chn][sample] 
  67:/Users/reza.kalfane/Workspaces/Daisy/DaisyExamples/libDaisy/src/hid/audio.h ****      */
  68:/Users/reza.kalfane/Workspaces/Daisy/DaisyExamples/libDaisy/src/hid/audio.h ****     typedef float** OutputBuffer;
  69:/Users/reza.kalfane/Workspaces/Daisy/DaisyExamples/libDaisy/src/hid/audio.h **** 
  70:/Users/reza.kalfane/Workspaces/Daisy/DaisyExamples/libDaisy/src/hid/audio.h ****     /** Type for a Non-Interleaving audio callback 
  71:/Users/reza.kalfane/Workspaces/Daisy/DaisyExamples/libDaisy/src/hid/audio.h ****      * Non-Interleaving audio callbacks in daisy will be of this type
  72:/Users/reza.kalfane/Workspaces/Daisy/DaisyExamples/libDaisy/src/hid/audio.h ****      */
  73:/Users/reza.kalfane/Workspaces/Daisy/DaisyExamples/libDaisy/src/hid/audio.h ****     typedef void (*AudioCallback)(InputBuffer  in,
  74:/Users/reza.kalfane/Workspaces/Daisy/DaisyExamples/libDaisy/src/hid/audio.h ****                                   OutputBuffer out,
ARM GAS  /tmp/claude-502/cc09dAcL.s 			page 8


  75:/Users/reza.kalfane/Workspaces/Daisy/DaisyExamples/libDaisy/src/hid/audio.h ****                                   size_t       size);
  76:/Users/reza.kalfane/Workspaces/Daisy/DaisyExamples/libDaisy/src/hid/audio.h **** 
  77:/Users/reza.kalfane/Workspaces/Daisy/DaisyExamples/libDaisy/src/hid/audio.h ****     /** Interleaving Input buffer
  78:/Users/reza.kalfane/Workspaces/Daisy/DaisyExamples/libDaisy/src/hid/audio.h ****      ** audio is prepared as { L0, R0, L1, R1, . . . LN, RN }]
  79:/Users/reza.kalfane/Workspaces/Daisy/DaisyExamples/libDaisy/src/hid/audio.h ****      ** this is const, as the user shouldn't modify it
  80:/Users/reza.kalfane/Workspaces/Daisy/DaisyExamples/libDaisy/src/hid/audio.h ****     */
  81:/Users/reza.kalfane/Workspaces/Daisy/DaisyExamples/libDaisy/src/hid/audio.h ****     typedef const float* InterleavingInputBuffer;
  82:/Users/reza.kalfane/Workspaces/Daisy/DaisyExamples/libDaisy/src/hid/audio.h **** 
  83:/Users/reza.kalfane/Workspaces/Daisy/DaisyExamples/libDaisy/src/hid/audio.h ****     /** Interleaving Output buffer 
  84:/Users/reza.kalfane/Workspaces/Daisy/DaisyExamples/libDaisy/src/hid/audio.h ****      ** audio is prepared as { L0, R0, L1, R1, . . . LN, RN }
  85:/Users/reza.kalfane/Workspaces/Daisy/DaisyExamples/libDaisy/src/hid/audio.h ****     */
  86:/Users/reza.kalfane/Workspaces/Daisy/DaisyExamples/libDaisy/src/hid/audio.h ****     typedef float* InterleavingOutputBuffer;
  87:/Users/reza.kalfane/Workspaces/Daisy/DaisyExamples/libDaisy/src/hid/audio.h **** 
  88:/Users/reza.kalfane/Workspaces/Daisy/DaisyExamples/libDaisy/src/hid/audio.h ****     /** Interleaving Audio Callback 
  89:/Users/reza.kalfane/Workspaces/Daisy/DaisyExamples/libDaisy/src/hid/audio.h ****      * Interleaving audio callbacks in daisy must be of this type
  90:/Users/reza.kalfane/Workspaces/Daisy/DaisyExamples/libDaisy/src/hid/audio.h ****      */
  91:/Users/reza.kalfane/Workspaces/Daisy/DaisyExamples/libDaisy/src/hid/audio.h ****     typedef void (*InterleavingAudioCallback)(InterleavingInputBuffer  in,
  92:/Users/reza.kalfane/Workspaces/Daisy/DaisyExamples/libDaisy/src/hid/audio.h ****                                               InterleavingOutputBuffer out,
  93:/Users/reza.kalfane/Workspaces/Daisy/DaisyExamples/libDaisy/src/hid/audio.h ****                                               size_t                   size);
  94:/Users/reza.kalfane/Workspaces/Daisy/DaisyExamples/libDaisy/src/hid/audio.h **** 
  95:/Users/reza.kalfane/Workspaces/Daisy/DaisyExamples/libDaisy/src/hid/audio.h ****     AudioHandle() : pimpl_(nullptr) {}
  96:/Users/reza.kalfane/Workspaces/Daisy/DaisyExamples/libDaisy/src/hid/audio.h ****     ~AudioHandle() {}
  56              		.loc 5 96 5 is_stmt 1 view .LVU7
  57              		.loc 5 96 5 is_stmt 0 view .LVU8
  58              	.LBE282:
  59              		.loc 1 22 19 view .LVU9
  60 0000 7047     		bx	lr
  61              		.cfi_endproc
  62              	.LFE2556:
  64              		.weak	_ZN5daisy9DaisySeedD1Ev
  65              		.thumb_set _ZN5daisy9DaisySeedD1Ev,_ZN5daisy9DaisySeedD2Ev
  66 0002 00BF     		.section	.text._Z13quantize_midif,"ax",%progbits
  67              		.align	1
  68              		.p2align 2,,3
  69              		.global	_Z13quantize_midif
  70              		.syntax unified
  71              		.thumb
  72              		.thumb_func
  74              	_Z13quantize_midif:
  75              	.LVL1:
  76              	.LFB2577:
  77              		.file 6 "src/main.cpp"
   1:src/main.cpp  **** /**
   2:src/main.cpp  ****  * mpr121_synth.cpp ‚Äî Glass Touch Moog Synth
   3:src/main.cpp  ****  * Daisy Seed ‚Äî Bit-Bang I2C  SDA=D12  SCL=D11
   4:src/main.cpp  ****  *
   5:src/main.cpp  ****  * FINGER 1:
   6:src/main.cpp  ****  *   Position  ‚Üí Pitch (quantized on touch-down, continuous slide after)
   7:src/main.cpp  ****  *   Pressure  ‚Üí Filter cutoff (light=dark/closed, hard=bright/open)
   8:src/main.cpp  ****  *               + Vibrato depth (press harder for more wobble)
   9:src/main.cpp  ****  *
  10:src/main.cpp  ****  * FINGER 2:
  11:src/main.cpp  ****  *   Position  ‚Üí Oscillator detune (spread between osc1 and osc2)
  12:src/main.cpp  ****  *   Pressure  ‚Üí Wavefold distortion (gentle saturation to complex fold)
  13:src/main.cpp  ****  *               + Ring mod amount (extreme pressure adds metallic edge)
  14:src/main.cpp  ****  *
  15:src/main.cpp  ****  * EXPRESSION:
ARM GAS  /tmp/claude-502/cc09dAcL.s 			page 9


  16:src/main.cpp  ****  *   - Note quantize on initial touch, then free pitch bend on slide
  17:src/main.cpp  ****  *   - Pressure-controlled vibrato (LFO depth from finger 1 pressure)
  18:src/main.cpp  ****  *   - Portamento / glide between quantized notes
  19:src/main.cpp  ****  *   - Sub oscillator one octave below (adds weight)
  20:src/main.cpp  ****  *   - Soft-clip waveshaper before output
  21:src/main.cpp  ****  *   - Amplitude envelope: fast attack, pressure-controlled release
  22:src/main.cpp  ****  */
  23:src/main.cpp  **** 
  24:src/main.cpp  **** #include "daisy_seed.h"
  25:src/main.cpp  **** #include "util/PersistentStorage.h"
  26:src/main.cpp  **** #include <math.h>
  27:src/main.cpp  **** #include <string.h>
  28:src/main.cpp  **** 
  29:src/main.cpp  **** using namespace daisy;
  30:src/main.cpp  **** using namespace daisy::seed;
  31:src/main.cpp  **** 
  32:src/main.cpp  **** #include "config.h"   // tuning constants
  33:src/main.cpp  **** #include "dsp.h"      // oscillators, filters, math (Waveform)
  34:src/main.cpp  **** #include "voice.h"    // Voice struct, presets, bank, cycling
  35:src/main.cpp  **** #include "mpr121.h"   // capacitive sensor driver (bit-bang I2C)
  36:src/main.cpp  **** #include "touch.h"    // finger detection / tracking
  37:src/main.cpp  **** #include "engine.h"   // audio engine: synth state, drum voices, AudioCallback
  38:src/main.cpp  **** 
  39:src/main.cpp  **** // Persisted settings (saved to QSPI flash, survives power-off).
  40:src/main.cpp  **** struct PersistSettings {
  41:src/main.cpp  ****     int32_t voice_idx;
  42:src/main.cpp  ****     bool operator!=(const PersistSettings& o) const { return o.voice_idx != voice_idx; }
  43:src/main.cpp  **** };
  44:src/main.cpp  **** 
  45:src/main.cpp  **** 
  46:src/main.cpp  **** // Selected voice index ‚Äî set by the FSR-hold gesture, shown in the header.
  47:src/main.cpp  **** // Change the initial value to pick the boot voice.
  48:src/main.cpp  **** volatile int g_voice_idx = 2;                  // 2 = OpenBass (extern in engine.h)
  49:src/main.cpp  **** 
  50:src/main.cpp  **** // Active voice index ‚Äî what the audio engine actually plays. Normally tracks
  51:src/main.cpp  **** // g_voice_idx; in MultiVoice mode the touch loop routes it per tap to a drum.
  52:src/main.cpp  **** volatile int g_active_voice = 2;               // matches the boot voice (extern in engine.h)
  53:src/main.cpp  **** 
  54:src/main.cpp  **** 
  55:src/main.cpp  **** 
  56:src/main.cpp  **** 
  57:src/main.cpp  **** // ‚îÄ‚îÄ Globals ‚îÄ‚îÄ‚îÄ‚îÄ‚îÄ‚îÄ‚îÄ‚îÄ‚îÄ‚îÄ‚îÄ‚îÄ‚îÄ‚îÄ‚îÄ‚îÄ‚îÄ‚îÄ‚îÄ‚îÄ‚îÄ‚îÄ‚îÄ‚îÄ‚îÄ‚îÄ‚îÄ
  58:src/main.cpp  **** DaisySeed hw;
  59:src/main.cpp  **** GPIO      led3;  // software-PWM LED on A0 (ADC0 / D15 / pin 22)
  60:src/main.cpp  **** 
  61:src/main.cpp  **** 
  62:src/main.cpp  **** 
  63:src/main.cpp  **** 
  64:src/main.cpp  **** // ‚îÄ‚îÄ Note quantizer ‚îÄ‚îÄ‚îÄ‚îÄ‚îÄ‚îÄ‚îÄ‚îÄ‚îÄ‚îÄ‚îÄ‚îÄ‚îÄ‚îÄ‚îÄ‚îÄ‚îÄ‚îÄ‚îÄ‚îÄ‚îÄ‚îÄ‚îÄ‚îÄ‚î
  65:src/main.cpp  **** // Returns the nearest MIDI note in SCALE[] for a raw float MIDI pitch.
  66:src/main.cpp  **** float quantize_midi(float midi)
  67:src/main.cpp  **** {
  78              		.loc 6 67 1 is_stmt 1 view -0
  79              		.cfi_startproc
  80              		@ args = 0, pretend = 0, frame = 0
  81              		@ frame_needed = 0, uses_anonymous_args = 0
  68:src/main.cpp  ****     int root = (int)midi;
ARM GAS  /tmp/claude-502/cc09dAcL.s 			page 10


  82              		.loc 6 68 5 view .LVU11
  83              		.loc 6 68 9 is_stmt 0 view .LVU12
  84 0000 FDEEC07A 		vcvt.s32.f32	s15, s0
  69:src/main.cpp  ****     int pc   = root % 12;
  85              		.loc 6 69 9 view .LVU13
  86 0004 1B4B     		ldr	r3, .L11
  87 0006 1C49     		ldr	r1, .L11+4
  70:src/main.cpp  ****     int oct  = root / 12;
  88              		.loc 6 70 9 view .LVU14
  89 0008 0022     		movs	r2, #0
  67:src/main.cpp  ****     int root = (int)midi;
  90              		.loc 6 67 1 view .LVU15
  91 000a F0B5     		push	{r4, r5, r6, r7, lr}
  92              		.cfi_def_cfa_offset 20
  93              		.cfi_offset 4, -20
  94              		.cfi_offset 5, -16
  95              		.cfi_offset 6, -12
  96              		.cfi_offset 7, -8
  97              		.cfi_offset 14, -4
  68:src/main.cpp  ****     int pc   = root % 12;
  98              		.loc 6 68 9 view .LVU16
  99 000c 17EE906A 		vmov	r6, s15	@ int
 100              	.LVL2:
  69:src/main.cpp  ****     int oct  = root / 12;
 101              		.loc 6 69 5 is_stmt 1 view .LVU17
 102 0010 01F12C04 		add	r4, r1, #44
  71:src/main.cpp  ****     // find nearest scale degree
  72:src/main.cpp  ****     int best_deg=0, best_dist=127;
 103              		.loc 6 72 21 is_stmt 0 view .LVU18
 104 0014 4FF07F0E 		mov	lr, #127
 105              		.loc 6 72 9 view .LVU19
 106 0018 1546     		mov	r5, r2
  69:src/main.cpp  ****     int oct  = root / 12;
 107              		.loc 6 69 9 view .LVU20
 108 001a 83FB0603 		smull	r0, r3, r3, r6
 109 001e F017     		asrs	r0, r6, #31
 110 0020 C0EB6300 		rsb	r0, r0, r3, asr #1
 111 0024 0746     		mov	r7, r0
 112 0026 00EB4000 		add	r0, r0, r0, lsl #1
 113 002a A6EB8000 		sub	r0, r6, r0, lsl #2
 114              	.LVL3:
  70:src/main.cpp  ****     // find nearest scale degree
 115              		.loc 6 70 5 is_stmt 1 view .LVU21
 116              		.loc 6 72 5 view .LVU22
  73:src/main.cpp  ****     for(int i=0;i<SCALE_LEN;i++){
 117              		.loc 6 73 5 view .LVU23
 118              	.LBB283:
 119              		.loc 6 73 18 view .LVU24
 120 002e 01E0     		b	.L7
 121              	.LVL4:
 122              	.L10:
 123              	.LBB284:
  74:src/main.cpp  ****         int d=SCALE[i]-pc; if(d<0)d=-d;
 124              		.loc 6 74 22 is_stmt 0 view .LVU25
 125 0030 51F8042B 		ldr	r2, [r1], #4
 126              	.LVL5:
 127              	.L7:
ARM GAS  /tmp/claude-502/cc09dAcL.s 			page 11


 128              		.loc 6 74 9 is_stmt 1 view .LVU26
 129              		.loc 6 74 28 view .LVU27
 130              		.loc 6 74 35 view .LVU28
 131              		.loc 6 74 28 is_stmt 0 view .LVU29
 132 0034 131A     		subs	r3, r2, r0
 133              	.LVL6:
 134              		.loc 6 74 36 view .LVU30
 135 0036 48BF     		it	mi
 136 0038 831A     		submi	r3, r0, r2
 137              	.LVL7:
  75:src/main.cpp  ****         int d2=12-d; if(d2<d)d=d2;
 138              		.loc 6 75 9 is_stmt 1 view .LVU31
 139              		.loc 6 75 13 is_stmt 0 view .LVU32
 140 003a C3F10C0C 		rsb	ip, r3, #12
 141              	.LVL8:
 142              		.loc 6 75 22 is_stmt 1 view .LVU33
 143 003e 6345     		cmp	r3, ip
 144 0040 A8BF     		it	ge
 145 0042 6346     		movge	r3, ip
 146              	.LVL9:
  76:src/main.cpp  ****         if(d<best_dist){best_dist=d;best_deg=SCALE[i];}
 147              		.loc 6 76 9 view .LVU34
 148 0044 7345     		cmp	r3, lr
 149 0046 01DA     		bge	.L5
 150              		.loc 6 76 45 is_stmt 0 view .LVU35
 151 0048 1546     		mov	r5, r2
 152              		.loc 6 76 9 view .LVU36
 153 004a 9E46     		mov	lr, r3
 154              	.LVL10:
 155              	.L5:
 156              		.loc 6 76 9 view .LVU37
 157              	.LBE284:
  73:src/main.cpp  ****         int d=SCALE[i]-pc; if(d<0)d=-d;
 158              		.loc 6 73 5 is_stmt 1 discriminator 2 view .LVU38
  73:src/main.cpp  ****         int d=SCALE[i]-pc; if(d<0)d=-d;
 159              		.loc 6 73 18 discriminator 2 view .LVU39
 160 004c A142     		cmp	r1, r4
 161 004e EFD1     		bne	.L10
 162              	.LBE283:
  77:src/main.cpp  ****     }
  78:src/main.cpp  ****     float q=(float)(oct*12+best_deg);
 163              		.loc 6 78 5 view .LVU40
 164              	.LVL11:
  79:src/main.cpp  ****     // fractional semitone from the quantized note (for slide expression)
  80:src/main.cpp  ****     float frac=midi-(float)root;
 165              		.loc 6 80 5 view .LVU41
  81:src/main.cpp  ****     return q+frac;
 166              		.loc 6 81 5 view .LVU42
  80:src/main.cpp  ****     return q+frac;
 167              		.loc 6 80 21 is_stmt 0 view .LVU43
 168 0050 07EE906A 		vmov	s15, r6	@ int
  78:src/main.cpp  ****     // fractional semitone from the quantized note (for slide expression)
 169              		.loc 6 78 24 view .LVU44
 170 0054 07EB4707 		add	r7, r7, r7, lsl #1
 171              	.LVL12:
  80:src/main.cpp  ****     return q+frac;
 172              		.loc 6 80 21 view .LVU45
ARM GAS  /tmp/claude-502/cc09dAcL.s 			page 12


 173 0058 F8EEE77A 		vcvt.f32.s32	s15, s15
  78:src/main.cpp  ****     // fractional semitone from the quantized note (for slide expression)
 174              		.loc 6 78 27 view .LVU46
 175 005c 05EB8705 		add	r5, r5, r7, lsl #2
 176              	.LVL13:
  80:src/main.cpp  ****     return q+frac;
 177              		.loc 6 80 11 view .LVU47
 178 0060 30EE670A 		vsub.f32	s0, s0, s15
 179              	.LVL14:
  78:src/main.cpp  ****     // fractional semitone from the quantized note (for slide expression)
 180              		.loc 6 78 11 view .LVU48
 181 0064 07EE905A 		vmov	s15, r5	@ int
 182 0068 F8EEE77A 		vcvt.f32.s32	s15, s15
  82:src/main.cpp  **** }
 183              		.loc 6 82 1 view .LVU49
 184 006c 37EE800A 		vadd.f32	s0, s15, s0
 185              	.LVL15:
 186              		.loc 6 82 1 view .LVU50
 187 0070 F0BD     		pop	{r4, r5, r6, r7, pc}
 188              	.LVL16:
 189              	.L12:
 190              		.loc 6 82 1 view .LVU51
 191 0072 00BF     		.align	2
 192              	.L11:
 193 0074 ABAAAA2A 		.word	715827883
 194 0078 04000000 		.word	.LANCHOR0+4
 195              		.cfi_endproc
 196              	.LFE2577:
 198              		.section	.text._Z8make_barPclli,"ax",%progbits
 199              		.align	1
 200              		.p2align 2,,3
 201              		.global	_Z8make_barPclli
 202              		.syntax unified
 203              		.thumb
 204              		.thumb_func
 206              	_Z8make_barPclli:
 207              	.LVL17:
 208              	.LFB2578:
  83:src/main.cpp  **** 
  84:src/main.cpp  **** 
  85:src/main.cpp  **** // ‚îÄ‚îÄ Bar helpers ‚îÄ‚îÄ‚îÄ‚îÄ‚îÄ‚îÄ‚îÄ‚îÄ‚îÄ‚îÄ‚îÄ‚îÄ‚îÄ‚îÄ‚îÄ‚îÄ‚îÄ‚îÄ‚îÄ‚îÄ‚îÄ‚îÄ‚îÄ‚îÄ‚îÄ‚î
  86:src/main.cpp  **** void make_bar(char* out,int32_t val,int32_t max,int w)
  87:src/main.cpp  **** {
 209              		.loc 6 87 1 is_stmt 1 view -0
 210              		.cfi_startproc
 211              		@ args = 0, pretend = 0, frame = 0
 212              		@ frame_needed = 0, uses_anonymous_args = 0
  88:src/main.cpp  ****     int n=(max>0&&val>0)?(int)((val*w+max/2)/max):0;
 213              		.loc 6 88 5 view .LVU53
 214              		.loc 6 88 25 is_stmt 0 view .LVU54
 215 0000 002A     		cmp	r2, #0
  87:src/main.cpp  ****     int n=(max>0&&val>0)?(int)((val*w+max/2)/max):0;
 216              		.loc 6 87 1 view .LVU55
 217 0002 10B5     		push	{r4, lr}
 218              		.cfi_def_cfa_offset 8
 219              		.cfi_offset 4, -8
 220              		.cfi_offset 14, -4
ARM GAS  /tmp/claude-502/cc09dAcL.s 			page 13


 221              		.loc 6 88 25 view .LVU56
 222 0004 23DD     		ble	.L18
 223 0006 0029     		cmp	r1, #0
 224 0008 21DD     		ble	.L18
 225              		.loc 6 88 42 discriminator 1 view .LVU57
 226 000a 4FEA620E 		asr	lr, r2, #1
 227              		.loc 6 88 38 discriminator 1 view .LVU58
 228 000e 03FB01E1 		mla	r1, r3, r1, lr
 229              	.LVL18:
 230              		.loc 6 88 25 discriminator 1 view .LVU59
 231 0012 91FBF2FC 		sdiv	ip, r1, r2
 232              	.L14:
 233              	.LVL19:
  89:src/main.cpp  ****     if(n>w)n=w;
 234              		.loc 6 89 5 is_stmt 1 discriminator 4 view .LVU60
 235 0016 9C45     		cmp	ip, r3
  90:src/main.cpp  ****     out[0]='[';
 236              		.loc 6 90 11 is_stmt 0 discriminator 4 view .LVU61
 237 0018 4FF05B02 		mov	r2, #91
 238              	.LVL20:
 239              		.loc 6 90 11 discriminator 4 view .LVU62
 240 001c A8BF     		it	ge
 241 001e 9C46     		movge	ip, r3
 242              	.LVL21:
 243              		.loc 6 90 5 is_stmt 1 discriminator 4 view .LVU63
 244              	.LBB286:
  91:src/main.cpp  ****     for(int i=0;i<w;i++)out[1+i]=(i<n)?'#':' ';
 245              		.loc 6 91 18 is_stmt 0 discriminator 4 view .LVU64
 246 0020 002B     		cmp	r3, #0
 247              	.LBE286:
  90:src/main.cpp  ****     out[0]='[';
 248              		.loc 6 90 11 discriminator 4 view .LVU65
 249 0022 0270     		strb	r2, [r0]
 250              		.loc 6 91 5 is_stmt 1 discriminator 4 view .LVU66
 251              	.LVL22:
 252              	.LBB287:
 253              		.loc 6 91 18 discriminator 4 view .LVU67
 254 0024 0DDD     		ble	.L15
 255 0026 421C     		adds	r2, r0, #1
 256 0028 6FEA000E 		mvn	lr, r0
 257 002c D418     		adds	r4, r2, r3
 258              	.LVL23:
 259              	.L17:
 260              		.loc 6 91 25 discriminator 2 view .LVU68
 261              		.loc 6 91 39 is_stmt 0 discriminator 2 view .LVU69
 262 002e 0EEB0201 		add	r1, lr, r2
 263 0032 8C45     		cmp	ip, r1
 264 0034 D4BF     		ite	le
 265 0036 2021     		movle	r1, #32
 266 0038 2321     		movgt	r1, #35
 267              		.loc 6 91 33 discriminator 2 view .LVU70
 268 003a 02F8011B 		strb	r1, [r2], #1
 269              		.loc 6 91 5 is_stmt 1 discriminator 2 view .LVU71
 270              		.loc 6 91 18 discriminator 2 view .LVU72
 271 003e A242     		cmp	r2, r4
 272 0040 F5D1     		bne	.L17
 273              	.L15:
ARM GAS  /tmp/claude-502/cc09dAcL.s 			page 14


 274              		.loc 6 91 18 is_stmt 0 discriminator 2 view .LVU73
 275              	.LBE287:
  92:src/main.cpp  ****     out[1+w]=']';out[2+w]='\0';
 276              		.loc 6 92 5 is_stmt 1 view .LVU74
 277              		.loc 6 92 13 is_stmt 0 view .LVU75
 278 0042 1844     		add	r0, r0, r3
 279              	.LVL24:
 280              		.loc 6 92 13 view .LVU76
 281 0044 5D22     		movs	r2, #93
 282              		.loc 6 92 26 view .LVU77
 283 0046 0023     		movs	r3, #0
 284              	.LVL25:
 285              		.loc 6 92 13 view .LVU78
 286 0048 4270     		strb	r2, [r0, #1]
 287              		.loc 6 92 18 is_stmt 1 view .LVU79
 288              		.loc 6 92 26 is_stmt 0 view .LVU80
 289 004a 8370     		strb	r3, [r0, #2]
  93:src/main.cpp  **** }
 290              		.loc 6 93 1 view .LVU81
 291 004c 10BD     		pop	{r4, pc}
 292              	.LVL26:
 293              	.L18:
  88:src/main.cpp  ****     if(n>w)n=w;
 294              		.loc 6 88 25 view .LVU82
 295 004e 4FF0000C 		mov	ip, #0
 296 0052 E0E7     		b	.L14
 297              		.cfi_endproc
 298              	.LFE2578:
 300              		.global	__aeabi_ldivmod
 301              		.section	.text._Z12make_pos_barPci,"ax",%progbits
 302              		.align	1
 303              		.p2align 2,,3
 304              		.global	_Z12make_pos_barPci
 305              		.syntax unified
 306              		.thumb
 307              		.thumb_func
 309              	_Z12make_pos_barPci:
 310              	.LVL27:
 311              	.LFB2579:
  94:src/main.cpp  **** 
  95:src/main.cpp  **** void make_pos_bar(char* out,int w)
  96:src/main.cpp  **** {
 312              		.loc 6 96 1 is_stmt 1 view -0
 313              		.cfi_startproc
 314              		@ args = 0, pretend = 0, frame = 0
 315              		@ frame_needed = 0, uses_anonymous_args = 0
  97:src/main.cpp  ****     out[0]='|';
 316              		.loc 6 97 5 view .LVU84
  96:src/main.cpp  ****     out[0]='|';
 317              		.loc 6 96 1 is_stmt 0 view .LVU85
 318 0000 2DE9F041 		push	{r4, r5, r6, r7, r8, lr}
 319              		.cfi_def_cfa_offset 24
 320              		.cfi_offset 4, -24
 321              		.cfi_offset 5, -20
 322              		.cfi_offset 6, -16
 323              		.cfi_offset 7, -12
 324              		.cfi_offset 8, -8
ARM GAS  /tmp/claude-502/cc09dAcL.s 			page 15


 325              		.cfi_offset 14, -4
 326              		.loc 6 97 11 view .LVU86
 327 0004 7C23     		movs	r3, #124
 328              	.LBB291:
  98:src/main.cpp  ****     for(int i=0;i<w;i++)out[1+i]='-';
 329              		.loc 6 98 18 view .LVU87
 330 0006 0E1E     		subs	r6, r1, #0
 331              	.LBE291:
  96:src/main.cpp  ****     out[0]='|';
 332              		.loc 6 96 1 view .LVU88
 333 0008 8046     		mov	r8, r0
  97:src/main.cpp  ****     out[0]='|';
 334              		.loc 6 97 11 view .LVU89
 335 000a 0370     		strb	r3, [r0]
 336              		.loc 6 98 5 is_stmt 1 view .LVU90
 337              	.LVL28:
 338              	.LBB292:
 339              		.loc 6 98 18 view .LVU91
 340 000c 04DD     		ble	.L31
 341              		.loc 6 98 33 is_stmt 0 view .LVU92
 342 000e 3246     		mov	r2, r6
 343 0010 2D21     		movs	r1, #45
 344              	.LVL29:
 345              		.loc 6 98 33 view .LVU93
 346 0012 0130     		adds	r0, r0, #1
 347              	.LVL30:
 348              		.loc 6 98 33 view .LVU94
 349 0014 FFF7FEFF 		bl	memset
 350              	.LVL31:
 351              	.L31:
 352              		.loc 6 98 33 view .LVU95
 353              	.LBE292:
  99:src/main.cpp  ****     out[1+w]='|';out[2+w]='\0';
 354              		.loc 6 99 5 is_stmt 1 view .LVU96
 355              		.loc 6 99 13 is_stmt 0 view .LVU97
 356 0018 08EB0603 		add	r3, r8, r6
 357 001c 7C21     		movs	r1, #124
 358              		.loc 6 99 26 view .LVU98
 359 001e 0022     		movs	r2, #0
 360 0020 124D     		ldr	r5, .L40
 361 0022 3124     		movs	r4, #49
 362              		.loc 6 99 13 view .LVU99
 363 0024 5970     		strb	r1, [r3, #1]
 364              		.loc 6 99 18 is_stmt 1 view .LVU100
 365              		.loc 6 99 26 is_stmt 0 view .LVU101
 366 0026 9A70     		strb	r2, [r3, #2]
 100:src/main.cpp  ****     for(int slot=0;slot<MAX_FINGERS;slot++){
 367              		.loc 6 100 5 is_stmt 1 view .LVU102
 368              	.LVL32:
 369              	.LBB293:
 370              		.loc 6 100 24 view .LVU103
 371              	.L30:
 372              	.LBB294:
 101:src/main.cpp  ****         if(!tracked[slot].alive)continue;
 373              		.loc 6 101 9 view .LVU104
 102:src/main.cpp  ****         int p=(int)(((int64_t)tracked[slot].pos*(w-1)+500)/1000);
 374              		.loc 6 102 9 view .LVU105
ARM GAS  /tmp/claude-502/cc09dAcL.s 			page 16


 101:src/main.cpp  ****         if(!tracked[slot].alive)continue;
 375              		.loc 6 101 9 is_stmt 0 view .LVU106
 376 0028 95F800E0 		ldrb	lr, [r5]	@ zero_extendqisi2
 377              		.loc 6 102 51 view .LVU107
 378 002c 06F1FF3C 		add	ip, r6, #-1
 379              		.loc 6 102 54 view .LVU108
 380 0030 4FF4FA70 		mov	r0, #500
 381 0034 0021     		movs	r1, #0
 382              		.loc 6 102 59 view .LVU109
 383 0036 4FF47A72 		mov	r2, #1000
 384 003a 0023     		movs	r3, #0
 101:src/main.cpp  ****         if(!tracked[slot].alive)continue;
 385              		.loc 6 101 9 view .LVU110
 386 003c BEF1000F 		cmp	lr, #0
 387 0040 0CD0     		beq	.L32
 388              		.loc 6 102 59 view .LVU111
 389 0042 6F68     		ldr	r7, [r5, #4]
 390 0044 C7FB0C01 		smlal	r0, r1, r7, ip
 391 0048 FFF7FEFF 		bl	__aeabi_ldivmod
 392              	.LVL33:
 103:src/main.cpp  ****         if(p<0)p=0;if(p>=w)p=w-1;
 393              		.loc 6 103 9 is_stmt 1 view .LVU112
 394 004c 20EAE073 		bic	r3, r0, r0, asr #31
 395              	.LVL34:
 396              		.loc 6 103 20 view .LVU113
 397 0050 3246     		mov	r2, r6
 398 0052 B342     		cmp	r3, r6
 104:src/main.cpp  ****         out[1+p]=(char)('1'+slot);
 399              		.loc 6 104 14 is_stmt 0 view .LVU114
 400 0054 B8BF     		it	lt
 401 0056 5A1C     		addlt	r2, r3, #1
 402              	.LVL35:
 403              		.loc 6 104 9 is_stmt 1 view .LVU115
 404              		.loc 6 104 17 is_stmt 0 view .LVU116
 405 0058 08F80240 		strb	r4, [r8, r2]
 406              	.L32:
 407              		.loc 6 104 17 view .LVU117
 408              	.LBE294:
 100:src/main.cpp  ****         if(!tracked[slot].alive)continue;
 409              		.loc 6 100 5 is_stmt 1 discriminator 2 view .LVU118
 100:src/main.cpp  ****         if(!tracked[slot].alive)continue;
 410              		.loc 6 100 24 discriminator 2 view .LVU119
 411 005c 0134     		adds	r4, r4, #1
 412 005e 1435     		adds	r5, r5, #20
 413 0060 E4B2     		uxtb	r4, r4
 414 0062 352C     		cmp	r4, #53
 415 0064 E0D1     		bne	.L30
 416              	.LBE293:
 105:src/main.cpp  ****     }
 106:src/main.cpp  **** }
 417              		.loc 6 106 1 is_stmt 0 view .LVU120
 418 0066 BDE8F081 		pop	{r4, r5, r6, r7, r8, pc}
 419              	.LVL36:
 420              	.L41:
 421              		.loc 6 106 1 view .LVU121
 422 006a 00BF     		.align	2
 423              	.L40:
ARM GAS  /tmp/claude-502/cc09dAcL.s 			page 17


 424 006c 00000000 		.word	tracked
 425              		.cfi_endproc
 426              	.LFE2579:
 428              		.section	.rodata.main.str1.4,"aMS",%progbits,1
 429              		.align	2
 430              	.LC0:
 431 0000 476C6173 		.ascii	"Glass Moog Synth\000"
 431      73204D6F 
 431      6F672053 
 431      796E7468 
 431      00
 432 0011 000000   		.align	2
 433              	.LC1:
 434 0014 3D3D3D3D 		.ascii	"================\000"
 434      3D3D3D3D 
 434      3D3D3D3D 
 434      3D3D3D3D 
 434      00
 435 0025 000000   		.align	2
 436              	.LC2:
 437 0028 566F6963 		.ascii	"Voice %d/%d: %s  (%d-%dHz)\000"
 437      65202564 
 437      2F25643A 
 437      20257320 
 437      20282564 
 438 0043 00       		.align	2
 439              	.LC3:
 440 0044 46312070 		.ascii	"F1 pos=pitch  F1 prs=cutoff+vibrato\000"
 440      6F733D70 
 440      69746368 
 440      20204631 
 440      20707273 
 441              		.align	2
 442              	.LC4:
 443 0068 46322070 		.ascii	"F2 pos=detune F2 prs=wavefold+ringmod\000"
 443      6F733D64 
 443      6574756E 
 443      65204632 
 443      20707273 
 444 008e 0000     		.align	2
 445              	.LC5:
 446 0090 46322070 		.ascii	"F2 prs=wavefold+ringmod (osc2=fixed)\000"
 446      72733D77 
 446      61766566 
 446      6F6C642B 
 446      72696E67 
 447 00b5 000000   		.align	2
 448              	.LC6:
 449 00b8 486F6C64 		.ascii	"Hold FSR pressed 3s to change voice (then every 2s)"
 449      20465352 
 449      20707265 
 449      73736564 
 449      20337320 
 450 00eb 00       		.ascii	"\000"
 451              		.align	2
 452              	.LC7:
 453 00ec 4D505231 		.ascii	"MPR121 OK \342\200\224 baseline captured\000"
ARM GAS  /tmp/claude-502/cc09dAcL.s 			page 18


 453      3231204F 
 453      4B20E280 
 453      94206261 
 453      73656C69 
 454              		.align	2
 455              	.LC8:
 456 010c 52656164 		.ascii	"Ready.\012\000"
 456      792E0A00 
 457              		.align	2
 458              	.LC9:
 459 0114 5B766F69 		.ascii	"[voice %d/%d] %s\000"
 459      63652025 
 459      642F2564 
 459      5D202573 
 459      00
 460 0125 000000   		.align	2
 461              	.LC10:
 462 0128 5B726562 		.ascii	"[rebaseline]\000"
 462      6173656C 
 462      696E655D 
 462      00
 463 0135 000000   		.align	2
 464              	.LC11:
 465 0138 5B667372 		.ascii	"[fsr recal] fsr_max=%d\000"
 465      20726563 
 465      616C5D20 
 465      6673725F 
 465      6D61783D 
 466 014f 00       		.align	2
 467              	.LC12:
 468 0150 564F4943 		.ascii	"VOICE %d/%d  Drums [Kick|Snare|Tom|Hat]  -> %s\000"
 468      45202564 
 468      2F256420 
 468      20447275 
 468      6D73205B 
 469 017f 00       		.align	2
 470              	.LC13:
 471 0180 564F4943 		.ascii	"VOICE %d/%d  %s  (%d-%dHz)\000"
 471      45202564 
 471      2F256420 
 471      20257320 
 471      20282564 
 472 019b 00       		.align	2
 473              	.LC14:
 474 019c 20434820 		.ascii	" CH | DELTA | BAR\000"
 474      7C204445 
 474      4C544120 
 474      7C204241 
 474      5200
 475 01ae 0000     		.align	2
 476              	.LC15:
 477 01b0 2D2D2D2D 		.ascii	"----+-------+--------------------\000"
 477      2B2D2D2D 
 477      2D2D2D2D 
 477      2B2D2D2D 
 477      2D2D2D2D 
 478 01d2 0000     		.align	2
ARM GAS  /tmp/claude-502/cc09dAcL.s 			page 19


 479              	.LC16:
 480 01d4 20253264 		.ascii	" %2d | %5d | %s %c\000"
 480      207C2025 
 480      3564207C 
 480      20257320 
 480      256300
 481 01e7 00       		.align	2
 482              	.LC17:
 483 01e8 0A504F53 		.ascii	"\012POS  %s\000"
 483      20202573 
 483      00
 484 01f1 000000   		.align	2
 485              	.LC18:
 486 01f4 20202564 		.ascii	"  %d  pos:%4d  prs:%3d%%  %s\000"
 486      2020706F 
 486      733A2534 
 486      64202070 
 486      72733A25 
 487 0211 000000   		.align	2
 488              	.LC19:
 489 0214 20202564 		.ascii	"  %d  pos: ---  prs: --%%  [                ]\000"
 489      2020706F 
 489      733A202D 
 489      2D2D2020 
 489      7072733A 
 490 0242 0000     		.align	2
 491              	.LC20:
 492 0244 20465352 		.ascii	" FSR pressure  %3d%%  %s\000"
 492      20707265 
 492      73737572 
 492      65202025 
 492      33642525 
 493 025d 000000   		.align	2
 494              	.LC21:
 495 0260 20206672 		.ascii	"  freq:%4dHz  cut:%5dHz  det:%c%d.%ds  fx:%2d%%  vi"
 495      65713A25 
 495      3464487A 
 495      20206375 
 495      743A2535 
 496 0293 623A2532 		.ascii	"b:%2d%%\000"
 496      64252500 
 497 029b 00       		.align	2
 498              	.LC22:
 499 029c 2D2D2D2D 		.ascii	"--------------------------------------------\000"
 499      2D2D2D2D 
 499      2D2D2D2D 
 499      2D2D2D2D 
 499      2D2D2D2D 
 500              		.section	.text.startup.main,"ax",%progbits
 501              		.align	1
 502              		.p2align 2,,3
 503              		.global	main
 504              		.syntax unified
 505              		.thumb
 506              		.thumb_func
 508              	main:
 509              	.LFB2580:
ARM GAS  /tmp/claude-502/cc09dAcL.s 			page 20


 107:src/main.cpp  **** 
 108:src/main.cpp  **** // ‚îÄ‚îÄ Main ‚îÄ‚îÄ‚îÄ‚îÄ‚îÄ‚îÄ‚îÄ‚îÄ‚îÄ‚îÄ‚îÄ‚îÄ‚îÄ‚îÄ‚îÄ‚îÄ‚îÄ‚îÄ‚îÄ‚îÄ‚îÄ‚îÄ‚îÄ‚îÄ‚îÄ‚îÄ‚îÄ‚îÄ
 109:src/main.cpp  **** int main()
 110:src/main.cpp  **** {
 510              		.loc 6 110 1 is_stmt 1 view -0
 511              		.cfi_startproc
 512              		@ args = 0, pretend = 0, frame = 464
 513              		@ frame_needed = 0, uses_anonymous_args = 0
 111:src/main.cpp  ****     hw.Init();
 514              		.loc 6 111 5 view .LVU123
 110:src/main.cpp  ****     hw.Init();
 515              		.loc 6 110 1 is_stmt 0 view .LVU124
 516 0000 2DE9F04F 		push	{r4, r5, r6, r7, r8, r9, r10, fp, lr}
 517              		.cfi_def_cfa_offset 36
 518              		.cfi_offset 4, -36
 519              		.cfi_offset 5, -32
 520              		.cfi_offset 6, -28
 521              		.cfi_offset 7, -24
 522              		.cfi_offset 8, -20
 523              		.cfi_offset 9, -16
 524              		.cfi_offset 10, -12
 525              		.cfi_offset 11, -8
 526              		.cfi_offset 14, -4
 527              		.loc 6 111 12 view .LVU125
 528 0004 0021     		movs	r1, #0
 529 0006 3348     		ldr	r0, .L457
 110:src/main.cpp  ****     hw.Init();
 530              		.loc 6 110 1 view .LVU126
 531 0008 2DED0E8B 		vpush.64	{d8, d9, d10, d11, d12, d13, d14}
 532              		.cfi_def_cfa_offset 92
 533              		.cfi_offset 80, -92
 534              		.cfi_offset 81, -88
 535              		.cfi_offset 82, -84
 536              		.cfi_offset 83, -80
 537              		.cfi_offset 84, -76
 538              		.cfi_offset 85, -72
 539              		.cfi_offset 86, -68
 540              		.cfi_offset 87, -64
 541              		.cfi_offset 88, -60
 542              		.cfi_offset 89, -56
 543              		.cfi_offset 90, -52
 544              		.cfi_offset 91, -48
 545              		.cfi_offset 92, -44
 546              		.cfi_offset 93, -40
 547 000c F9B0     		sub	sp, sp, #484
 548              		.cfi_def_cfa_offset 576
 549              		.loc 6 111 12 view .LVU127
 550 000e FFF7FEFF 		bl	_ZN5daisy9DaisySeed4InitEb
 551              	.LVL37:
 112:src/main.cpp  ****     hw.SetAudioBlockSize(4);
 552              		.loc 6 112 5 is_stmt 1 view .LVU128
 553              		.loc 6 112 25 is_stmt 0 view .LVU129
 554 0012 0421     		movs	r1, #4
 555 0014 2F48     		ldr	r0, .L457
 556 0016 FFF7FEFF 		bl	_ZN5daisy9DaisySeed17SetAudioBlockSizeEj
 557              	.LVL38:
 113:src/main.cpp  **** 
ARM GAS  /tmp/claude-502/cc09dAcL.s 			page 21


 114:src/main.cpp  ****     // ‚îÄ‚îÄ Persisted voice (QSPI flash) ‚îÄ‚îÄ‚îÄ‚îÄ‚îÄ‚îÄ‚îÄ‚îÄ‚îÄ‚îÄ‚îÄ‚îÄ‚îÄ‚îÄ‚îÄ‚îÄ‚îÄ‚îÄ‚î
 115:src/main.cpp  ****     // Restore the last selected voice across power cycles. First boot writes the
 116:src/main.cpp  ****     // current g_voice_idx as the factory default.
 117:src/main.cpp  ****     PersistentStorage<PersistSettings> storage(hw.qspi);
 558              		.loc 6 117 5 is_stmt 1 view .LVU130
 559              	.LBB513:
 560              	.LBI513:
 561              		.file 7 "/Users/reza.kalfane/Workspaces/Daisy/DaisyExamples/libDaisy/src/util/PersistentStorage.h"
   1:/Users/reza.kalfane/Workspaces/Daisy/DaisyExamples/libDaisy/src/util/PersistentStorage.h **** #pragma once
   2:/Users/reza.kalfane/Workspaces/Daisy/DaisyExamples/libDaisy/src/util/PersistentStorage.h **** 
   3:/Users/reza.kalfane/Workspaces/Daisy/DaisyExamples/libDaisy/src/util/PersistentStorage.h **** #include "daisy_core.h"
   4:/Users/reza.kalfane/Workspaces/Daisy/DaisyExamples/libDaisy/src/util/PersistentStorage.h **** #include "per/qspi.h"
   5:/Users/reza.kalfane/Workspaces/Daisy/DaisyExamples/libDaisy/src/util/PersistentStorage.h **** #include "sys/dma.h"
   6:/Users/reza.kalfane/Workspaces/Daisy/DaisyExamples/libDaisy/src/util/PersistentStorage.h **** 
   7:/Users/reza.kalfane/Workspaces/Daisy/DaisyExamples/libDaisy/src/util/PersistentStorage.h **** namespace daisy
   8:/Users/reza.kalfane/Workspaces/Daisy/DaisyExamples/libDaisy/src/util/PersistentStorage.h **** {
   9:/Users/reza.kalfane/Workspaces/Daisy/DaisyExamples/libDaisy/src/util/PersistentStorage.h **** /** @brief Non Volatile storage class for persistent settings on an external flash device.
  10:/Users/reza.kalfane/Workspaces/Daisy/DaisyExamples/libDaisy/src/util/PersistentStorage.h ****  *  @author shensley
  11:/Users/reza.kalfane/Workspaces/Daisy/DaisyExamples/libDaisy/src/util/PersistentStorage.h ****  * 
  12:/Users/reza.kalfane/Workspaces/Daisy/DaisyExamples/libDaisy/src/util/PersistentStorage.h ****  *  Storage occupied by the struct will be one word larger than 
  13:/Users/reza.kalfane/Workspaces/Daisy/DaisyExamples/libDaisy/src/util/PersistentStorage.h ****  *  the SettingStruct used. The extra word is used to store the
  14:/Users/reza.kalfane/Workspaces/Daisy/DaisyExamples/libDaisy/src/util/PersistentStorage.h ****  *  state of the data, and whether it's been overwritten or not.
  15:/Users/reza.kalfane/Workspaces/Daisy/DaisyExamples/libDaisy/src/util/PersistentStorage.h ****  * 
  16:/Users/reza.kalfane/Workspaces/Daisy/DaisyExamples/libDaisy/src/util/PersistentStorage.h ****  *  \todo - Make Save() non-blocking
  17:/Users/reza.kalfane/Workspaces/Daisy/DaisyExamples/libDaisy/src/util/PersistentStorage.h ****  *  \todo - Add wear leveling
  18:/Users/reza.kalfane/Workspaces/Daisy/DaisyExamples/libDaisy/src/util/PersistentStorage.h ****  * 
  19:/Users/reza.kalfane/Workspaces/Daisy/DaisyExamples/libDaisy/src/util/PersistentStorage.h ****  **/
  20:/Users/reza.kalfane/Workspaces/Daisy/DaisyExamples/libDaisy/src/util/PersistentStorage.h **** template <typename SettingStruct>
  21:/Users/reza.kalfane/Workspaces/Daisy/DaisyExamples/libDaisy/src/util/PersistentStorage.h **** class PersistentStorage
  22:/Users/reza.kalfane/Workspaces/Daisy/DaisyExamples/libDaisy/src/util/PersistentStorage.h **** {
  23:/Users/reza.kalfane/Workspaces/Daisy/DaisyExamples/libDaisy/src/util/PersistentStorage.h ****   public:
  24:/Users/reza.kalfane/Workspaces/Daisy/DaisyExamples/libDaisy/src/util/PersistentStorage.h ****     /** State of the storage. 
  25:/Users/reza.kalfane/Workspaces/Daisy/DaisyExamples/libDaisy/src/util/PersistentStorage.h ****      *  When created, prior to initialiation, the state will be Unknown
  26:/Users/reza.kalfane/Workspaces/Daisy/DaisyExamples/libDaisy/src/util/PersistentStorage.h ****      *  
  27:/Users/reza.kalfane/Workspaces/Daisy/DaisyExamples/libDaisy/src/util/PersistentStorage.h ****      *  During initialization, the state will be changed to either FACTORY,
  28:/Users/reza.kalfane/Workspaces/Daisy/DaisyExamples/libDaisy/src/util/PersistentStorage.h ****      *  or USER. 
  29:/Users/reza.kalfane/Workspaces/Daisy/DaisyExamples/libDaisy/src/util/PersistentStorage.h ****      * 
  30:/Users/reza.kalfane/Workspaces/Daisy/DaisyExamples/libDaisy/src/util/PersistentStorage.h ****      *  If this is the first time these settings are being written to the
  31:/Users/reza.kalfane/Workspaces/Daisy/DaisyExamples/libDaisy/src/util/PersistentStorage.h ****      *  target address, the defaults will be written to that location,
  32:/Users/reza.kalfane/Workspaces/Daisy/DaisyExamples/libDaisy/src/util/PersistentStorage.h ****      *  and the state will be set to FACTORY.
  33:/Users/reza.kalfane/Workspaces/Daisy/DaisyExamples/libDaisy/src/util/PersistentStorage.h ****      * 
  34:/Users/reza.kalfane/Workspaces/Daisy/DaisyExamples/libDaisy/src/util/PersistentStorage.h ****      *  Once the first user-trigger save has been made, the state will be 
  35:/Users/reza.kalfane/Workspaces/Daisy/DaisyExamples/libDaisy/src/util/PersistentStorage.h ****      *  updated to USER to indicate that the defaults have overwritten.
  36:/Users/reza.kalfane/Workspaces/Daisy/DaisyExamples/libDaisy/src/util/PersistentStorage.h ****      */
  37:/Users/reza.kalfane/Workspaces/Daisy/DaisyExamples/libDaisy/src/util/PersistentStorage.h ****     enum class State
  38:/Users/reza.kalfane/Workspaces/Daisy/DaisyExamples/libDaisy/src/util/PersistentStorage.h ****     {
  39:/Users/reza.kalfane/Workspaces/Daisy/DaisyExamples/libDaisy/src/util/PersistentStorage.h ****         UNKNOWN = 0,
  40:/Users/reza.kalfane/Workspaces/Daisy/DaisyExamples/libDaisy/src/util/PersistentStorage.h ****         FACTORY = 1,
  41:/Users/reza.kalfane/Workspaces/Daisy/DaisyExamples/libDaisy/src/util/PersistentStorage.h ****         USER    = 2,
  42:/Users/reza.kalfane/Workspaces/Daisy/DaisyExamples/libDaisy/src/util/PersistentStorage.h ****     };
  43:/Users/reza.kalfane/Workspaces/Daisy/DaisyExamples/libDaisy/src/util/PersistentStorage.h **** 
  44:/Users/reza.kalfane/Workspaces/Daisy/DaisyExamples/libDaisy/src/util/PersistentStorage.h ****     /** Constructor for storage class 
  45:/Users/reza.kalfane/Workspaces/Daisy/DaisyExamples/libDaisy/src/util/PersistentStorage.h ****      *  \param qspi reference to the hardware qspi peripheral.
  46:/Users/reza.kalfane/Workspaces/Daisy/DaisyExamples/libDaisy/src/util/PersistentStorage.h ****      */
  47:/Users/reza.kalfane/Workspaces/Daisy/DaisyExamples/libDaisy/src/util/PersistentStorage.h ****     PersistentStorage(QSPIHandle &qspi)
 562              		.loc 7 47 5 view .LVU131
 563              		.loc 7 47 5 is_stmt 0 view .LVU132
ARM GAS  /tmp/claude-502/cc09dAcL.s 			page 22


 564              	.LBE513:
 118:src/main.cpp  ****     storage.Init(PersistSettings{ g_voice_idx });
 565              		.loc 6 118 5 is_stmt 1 view .LVU133
 566              		.loc 6 118 18 is_stmt 0 view .LVU134
 567 001a 2F4B     		ldr	r3, .L457+4
 568              	.LBB514:
 569              	.LBB515:
  48:/Users/reza.kalfane/Workspaces/Daisy/DaisyExamples/libDaisy/src/util/PersistentStorage.h ****     : qspi_(qspi),
  49:/Users/reza.kalfane/Workspaces/Daisy/DaisyExamples/libDaisy/src/util/PersistentStorage.h ****       address_offset_(0),
  50:/Users/reza.kalfane/Workspaces/Daisy/DaisyExamples/libDaisy/src/util/PersistentStorage.h ****       default_settings_(),
  51:/Users/reza.kalfane/Workspaces/Daisy/DaisyExamples/libDaisy/src/util/PersistentStorage.h ****       settings_(),
  52:/Users/reza.kalfane/Workspaces/Daisy/DaisyExamples/libDaisy/src/util/PersistentStorage.h ****       state_(State::UNKNOWN)
  53:/Users/reza.kalfane/Workspaces/Daisy/DaisyExamples/libDaisy/src/util/PersistentStorage.h ****     {
  54:/Users/reza.kalfane/Workspaces/Daisy/DaisyExamples/libDaisy/src/util/PersistentStorage.h ****     }
  55:/Users/reza.kalfane/Workspaces/Daisy/DaisyExamples/libDaisy/src/util/PersistentStorage.h **** 
  56:/Users/reza.kalfane/Workspaces/Daisy/DaisyExamples/libDaisy/src/util/PersistentStorage.h ****     /** Initialize Storage class
  57:/Users/reza.kalfane/Workspaces/Daisy/DaisyExamples/libDaisy/src/util/PersistentStorage.h ****      *
  58:/Users/reza.kalfane/Workspaces/Daisy/DaisyExamples/libDaisy/src/util/PersistentStorage.h ****      *  The values in this class will be stored as the default
  59:/Users/reza.kalfane/Workspaces/Daisy/DaisyExamples/libDaisy/src/util/PersistentStorage.h ****      *  for restoration to 'factory' settings.
  60:/Users/reza.kalfane/Workspaces/Daisy/DaisyExamples/libDaisy/src/util/PersistentStorage.h ****      *
  61:/Users/reza.kalfane/Workspaces/Daisy/DaisyExamples/libDaisy/src/util/PersistentStorage.h ****      *  \param defaults should be a setting structure containing the default values.
  62:/Users/reza.kalfane/Workspaces/Daisy/DaisyExamples/libDaisy/src/util/PersistentStorage.h ****      *      this will be updated to contain the stored data.
  63:/Users/reza.kalfane/Workspaces/Daisy/DaisyExamples/libDaisy/src/util/PersistentStorage.h ****      *  \param address_offset offset for location on the QSPI chip (offset to base address of devic
  64:/Users/reza.kalfane/Workspaces/Daisy/DaisyExamples/libDaisy/src/util/PersistentStorage.h ****      *      This defaults to the first address on the chip, and will be masked to the nearest multi
  65:/Users/reza.kalfane/Workspaces/Daisy/DaisyExamples/libDaisy/src/util/PersistentStorage.h ****      **/
  66:/Users/reza.kalfane/Workspaces/Daisy/DaisyExamples/libDaisy/src/util/PersistentStorage.h ****     void Init(const SettingStruct &defaults, uint32_t address_offset = 0)
  67:/Users/reza.kalfane/Workspaces/Daisy/DaisyExamples/libDaisy/src/util/PersistentStorage.h ****     {
  68:/Users/reza.kalfane/Workspaces/Daisy/DaisyExamples/libDaisy/src/util/PersistentStorage.h ****         default_settings_ = defaults;
  69:/Users/reza.kalfane/Workspaces/Daisy/DaisyExamples/libDaisy/src/util/PersistentStorage.h ****         settings_         = defaults;
  70:/Users/reza.kalfane/Workspaces/Daisy/DaisyExamples/libDaisy/src/util/PersistentStorage.h ****         address_offset_   = address_offset & (uint32_t)(~0xff);
  71:/Users/reza.kalfane/Workspaces/Daisy/DaisyExamples/libDaisy/src/util/PersistentStorage.h ****         auto storage_data
  72:/Users/reza.kalfane/Workspaces/Daisy/DaisyExamples/libDaisy/src/util/PersistentStorage.h ****             = reinterpret_cast<SaveStruct *>(qspi_.GetData(address_offset_));
 570              		.loc 7 72 59 view .LVU135
 571 001c 0021     		movs	r1, #0
 572 001e 2D48     		ldr	r0, .L457
 573              	.LBE515:
 574              	.LBE514:
 575              		.loc 6 118 18 view .LVU136
 576 0020 1C68     		ldr	r4, [r3]
 577              	.LVL39:
 578              	.LBB525:
 579              	.LBI514:
  66:/Users/reza.kalfane/Workspaces/Daisy/DaisyExamples/libDaisy/src/util/PersistentStorage.h ****     {
 580              		.loc 7 66 10 is_stmt 1 view .LVU137
 581              	.LBB522:
 582              		.loc 7 72 59 is_stmt 0 view .LVU138
 583 0022 FFF7FEFF 		bl	_ZN5daisy10QSPIHandle7GetDataEm
 584              	.LVL40:
  73:/Users/reza.kalfane/Workspaces/Daisy/DaisyExamples/libDaisy/src/util/PersistentStorage.h **** 
  74:/Users/reza.kalfane/Workspaces/Daisy/DaisyExamples/libDaisy/src/util/PersistentStorage.h ****         // check to see if the state is already in use.
  75:/Users/reza.kalfane/Workspaces/Daisy/DaisyExamples/libDaisy/src/util/PersistentStorage.h ****         State cur_state = storage_data->storage_state;
  76:/Users/reza.kalfane/Workspaces/Daisy/DaisyExamples/libDaisy/src/util/PersistentStorage.h ****         if(cur_state != State::FACTORY && cur_state != State::USER)
 585              		.loc 7 76 40 view .LVU139
 586 0026 0368     		ldr	r3, [r0]
 587 0028 013B     		subs	r3, r3, #1
 588              		.loc 7 76 9 view .LVU140
 589 002a 012B     		cmp	r3, #1
ARM GAS  /tmp/claude-502/cc09dAcL.s 			page 23


 590 002c 01F2B784 		bhi	.L426
  77:/Users/reza.kalfane/Workspaces/Daisy/DaisyExamples/libDaisy/src/util/PersistentStorage.h ****         {
  78:/Users/reza.kalfane/Workspaces/Daisy/DaisyExamples/libDaisy/src/util/PersistentStorage.h ****             // Initialize the Data store State::FACTORY, and the DefaultSettings
  79:/Users/reza.kalfane/Workspaces/Daisy/DaisyExamples/libDaisy/src/util/PersistentStorage.h ****             state_ = State::FACTORY;
  80:/Users/reza.kalfane/Workspaces/Daisy/DaisyExamples/libDaisy/src/util/PersistentStorage.h ****             StoreSettingsIfChanged();
  81:/Users/reza.kalfane/Workspaces/Daisy/DaisyExamples/libDaisy/src/util/PersistentStorage.h ****         }
  82:/Users/reza.kalfane/Workspaces/Daisy/DaisyExamples/libDaisy/src/util/PersistentStorage.h ****         else
  83:/Users/reza.kalfane/Workspaces/Daisy/DaisyExamples/libDaisy/src/util/PersistentStorage.h ****         {
  84:/Users/reza.kalfane/Workspaces/Daisy/DaisyExamples/libDaisy/src/util/PersistentStorage.h ****             state_    = cur_state;
  85:/Users/reza.kalfane/Workspaces/Daisy/DaisyExamples/libDaisy/src/util/PersistentStorage.h ****             settings_ = storage_data->user_data;
 591              		.loc 7 85 13 view .LVU141
 592 0030 4468     		ldr	r4, [r0, #4]
 593              	.LVL41:
 594              	.L422:
 595              		.loc 7 85 13 view .LVU142
 596 0032 64AB     		add	r3, sp, #400
 597 0034 0EEE103A 		vmov	s28, r3	@ int
 598              	.L46:
 599              	.LVL42:
 600              		.loc 7 85 13 view .LVU143
 601              	.LBE522:
 602              	.LBE525:
 119:src/main.cpp  ****     {
 603              		.loc 6 119 5 is_stmt 1 view .LVU144
 604              	.LBB526:
 120:src/main.cpp  ****         int32_t v = storage.GetSettings().voice_idx;
 605              		.loc 6 120 9 view .LVU145
 121:src/main.cpp  ****         if(v >= 0 && v < NUM_VOICES) g_voice_idx = v;
 606              		.loc 6 121 9 view .LVU146
 607 0038 0C2C     		cmp	r4, #12
 608 003a 01D8     		bhi	.L47
 609              		.loc 6 121 38 discriminator 1 view .LVU147
 610              		.loc 6 121 50 is_stmt 0 discriminator 1 view .LVU148
 611 003c 264B     		ldr	r3, .L457+4
 612 003e 1C60     		str	r4, [r3]
 613              	.L47:
 614              		.loc 6 121 50 discriminator 1 view .LVU149
 615              	.LBE526:
 122:src/main.cpp  ****     }
 123:src/main.cpp  ****     g_active_voice = (g_voice_idx == MULTI_IDX) ? MULTI_ZONES[0] : g_voice_idx;
 616              		.loc 6 123 5 is_stmt 1 view .LVU150
 617              		.loc 6 123 35 is_stmt 0 view .LVU151
 618 0040 254A     		ldr	r2, .L457+4
 619 0042 1368     		ldr	r3, [r2]
 620              		.loc 6 123 49 view .LVU152
 621 0044 0C2B     		cmp	r3, #12
 622 0046 01F0DD84 		beq	.L247
 623              		.loc 6 123 49 discriminator 2 view .LVU153
 624 004a 1368     		ldr	r3, [r2]
 625              	.L48:
 626              		.loc 6 123 20 discriminator 4 view .LVU154
 627 004c 234A     		ldr	r2, .L457+8
 124:src/main.cpp  **** 
 125:src/main.cpp  ****     // Power-on grace period so the lid can be closed before baseline capture.
 126:src/main.cpp  ****     System::Delay(5000);
 628              		.loc 6 126 18 discriminator 4 view .LVU155
 629 004e 41F28830 		movw	r0, #5000
ARM GAS  /tmp/claude-502/cc09dAcL.s 			page 24


 123:src/main.cpp  **** 
 630              		.loc 6 123 20 discriminator 4 view .LVU156
 631 0052 1360     		str	r3, [r2]
 632              		.loc 6 126 5 is_stmt 1 discriminator 4 view .LVU157
 633              		.loc 6 126 18 is_stmt 0 discriminator 4 view .LVU158
 634 0054 FFF7FEFF 		bl	_ZN5daisy6System5DelayEm
 635              	.LVL43:
 127:src/main.cpp  **** 
 128:src/main.cpp  ****     // ‚îÄ‚îÄ I2C pins + MPR121 init BEFORE audio starts ‚îÄ‚îÄ‚îÄ‚îÄ‚îÄ‚îÄ‚îÄ‚îÄ‚îÄ‚îÄ‚îÄ‚îÄ‚îÄ‚îÄ
 129:src/main.cpp  ****     // The audio ISR firing during bit-bang I2C corrupts I2C timing.
 130:src/main.cpp  ****     // Do all sensor work first, then start the audio engine.
 131:src/main.cpp  ****     mpr_idle_pins();
 636              		.loc 6 131 5 is_stmt 1 discriminator 4 view .LVU159
 637              		.loc 6 131 18 is_stmt 0 discriminator 4 view .LVU160
 638 0058 FFF7FEFF 		bl	_Z13mpr_idle_pinsv
 639              	.LVL44:
 132:src/main.cpp  **** 
 133:src/main.cpp  ****     uint16_t baseline[N_CH];
 640              		.loc 6 133 5 is_stmt 1 discriminator 4 view .LVU161
 134:src/main.cpp  ****     if(mpr_init())
 641              		.loc 6 134 5 discriminator 4 view .LVU162
 642              		.loc 6 134 16 is_stmt 0 discriminator 4 view .LVU163
 643 005c FFF7FEFF 		bl	_Z8mpr_initv
 644              	.LVL45:
 135:src/main.cpp  ****     {
 136:src/main.cpp  ****         System::Delay(300);
 137:src/main.cpp  ****         capture_baseline(baseline);
 645              		.loc 6 137 25 discriminator 4 view .LVU164
 646 0060 31AB     		add	r3, sp, #196
 134:src/main.cpp  ****     if(mpr_init())
 647              		.loc 6 134 5 discriminator 4 view .LVU165
 648 0062 0028     		cmp	r0, #0
 649 0064 41F0C384 		bne	.L396
 650 0068 0D93     		str	r3, [sp, #52]
 651              	.LVL46:
 652              	.L49:
 138:src/main.cpp  ****     }
 139:src/main.cpp  ****     // If MPR121 fails we still start audio so the problem is audible (silence)
 140:src/main.cpp  **** 
 141:src/main.cpp  ****     // ‚îÄ‚îÄ DAC LEDs (pin 30 = DAC1, pin 31 = DAC2) + PWM LED (A0 = pin 22) ‚îÄ‚îÄ‚îÄ‚îÄ‚îÄ‚îÄ
 142:src/main.cpp  ****     DacHandle::Config dac_cfg;
 653              		.loc 6 142 5 is_stmt 1 view .LVU166
 143:src/main.cpp  ****     dac_cfg.bitdepth   = DacHandle::BitDepth::BITS_12;
 654              		.loc 6 143 5 view .LVU167
 144:src/main.cpp  ****     dac_cfg.buff_state = DacHandle::BufferState::ENABLED;
 655              		.loc 6 144 24 is_stmt 0 view .LVU168
 656 006a 0024     		movs	r4, #0
 143:src/main.cpp  ****     dac_cfg.bitdepth   = DacHandle::BitDepth::BITS_12;
 657              		.loc 6 143 24 view .LVU169
 658 006c 0125     		movs	r5, #1
 145:src/main.cpp  ****     dac_cfg.mode       = DacHandle::Mode::POLLING;
 146:src/main.cpp  ****     dac_cfg.chn        = DacHandle::Channel::BOTH;
 659              		.loc 6 146 24 view .LVU170
 660 006e 0226     		movs	r6, #2
 147:src/main.cpp  ****     hw.dac.Init(dac_cfg);
 661              		.loc 6 147 16 view .LVU171
 662 0070 2CA9     		add	r1, sp, #176
ARM GAS  /tmp/claude-502/cc09dAcL.s 			page 25


 663 0072 1B48     		ldr	r0, .L457+12
 143:src/main.cpp  ****     dac_cfg.buff_state = DacHandle::BufferState::ENABLED;
 664              		.loc 6 143 24 view .LVU172
 665 0074 2F95     		str	r5, [sp, #188]
 144:src/main.cpp  ****     dac_cfg.mode       = DacHandle::Mode::POLLING;
 666              		.loc 6 144 5 is_stmt 1 view .LVU173
 145:src/main.cpp  ****     dac_cfg.chn        = DacHandle::Channel::BOTH;
 667              		.loc 6 145 5 view .LVU174
 146:src/main.cpp  ****     hw.dac.Init(dac_cfg);
 668              		.loc 6 146 5 view .LVU175
 146:src/main.cpp  ****     hw.dac.Init(dac_cfg);
 669              		.loc 6 146 24 is_stmt 0 view .LVU176
 670 0076 2D96     		str	r6, [sp, #180]
 671              		.loc 6 147 5 is_stmt 1 view .LVU177
 144:src/main.cpp  ****     dac_cfg.mode       = DacHandle::Mode::POLLING;
 672              		.loc 6 144 24 is_stmt 0 view .LVU178
 673 0078 3094     		str	r4, [sp, #192]
 145:src/main.cpp  ****     dac_cfg.chn        = DacHandle::Channel::BOTH;
 674              		.loc 6 145 24 view .LVU179
 675 007a 2E94     		str	r4, [sp, #184]
 676              		.loc 6 147 16 view .LVU180
 677 007c FFF7FEFF 		bl	_ZN5daisy9DacHandle4InitERKNS0_6ConfigE
 678              	.LVL47:
 148:src/main.cpp  ****     hw.dac.WriteValue(DacHandle::Channel::BOTH, 0);
 679              		.loc 6 148 5 is_stmt 1 view .LVU181
 680              		.loc 6 148 22 is_stmt 0 view .LVU182
 681 0080 3146     		mov	r1, r6
 682 0082 2246     		mov	r2, r4
 683 0084 1648     		ldr	r0, .L457+12
 684 0086 FFF7FEFF 		bl	_ZN5daisy9DacHandle10WriteValueENS0_7ChannelEt
 685              	.LVL48:
 149:src/main.cpp  **** 
 150:src/main.cpp  ****     led3.Init(seed::A0, GPIO::Mode::OUTPUT, GPIO::Pull::NOPULL);
 686              		.loc 6 150 5 is_stmt 1 view .LVU183
 687              		.loc 6 150 14 is_stmt 0 view .LVU184
 688 008a 164B     		ldr	r3, .L457+16
 689 008c 2A46     		mov	r2, r5
 690 008e 1648     		ldr	r0, .L457+20
 691 0090 1968     		ldr	r1, [r3]
 692 0092 2346     		mov	r3, r4
 693 0094 0094     		str	r4, [sp]
 694 0096 FFF7FEFF 		bl	_ZN5daisy4GPIO4InitENS_3PinENS0_4ModeENS0_4PullENS0_5SpeedE
 695              	.LVL49:
 151:src/main.cpp  ****     led3.Write(false);
 696              		.loc 6 151 5 is_stmt 1 view .LVU185
 697              		.loc 6 151 15 is_stmt 0 view .LVU186
 698 009a 2146     		mov	r1, r4
 699 009c 1248     		ldr	r0, .L457+20
 700 009e FFF7FEFF 		bl	_ZN5daisy4GPIO5WriteEb
 701              	.LVL50:
 152:src/main.cpp  **** 
 153:src/main.cpp  ****     // ‚îÄ‚îÄ FSR (A1 / ADC1) ‚îÄ‚îÄ‚îÄ‚îÄ‚îÄ‚îÄ‚îÄ‚îÄ‚îÄ‚îÄ‚îÄ‚îÄ‚îÄ‚îÄ‚îÄ‚îÄ‚îÄ‚îÄ‚îÄ‚îÄ‚îÄ‚îÄ‚îÄ
 154:src/main.cpp  ****     // Wired so unpressed reads ~max (3.3V). Press pulls ADC down. Fixed
 155:src/main.cpp  ****     // thresholds: raw ‚â§ FSR_MIN ‚Üí 0%, raw ‚â• FSR_MAX ‚Üí 100%, linear between.
 156:src/main.cpp  ****     AdcChannelConfig fsr_cfg;
 702              		.loc 6 156 5 is_stmt 1 view .LVU187
 157:src/main.cpp  ****     fsr_cfg.InitSingle(seed::A1);
ARM GAS  /tmp/claude-502/cc09dAcL.s 			page 26


 703              		.loc 6 157 5 view .LVU188
 704              		.loc 6 157 23 is_stmt 0 view .LVU189
 705 00a2 0323     		movs	r3, #3
 706 00a4 8DF86040 		strb	r4, [sp, #96]
 707 00a8 3246     		mov	r2, r6
 708 00aa 8DF86130 		strb	r3, [sp, #97]
 709 00ae 27A8     		add	r0, sp, #156
 710 00b0 1899     		ldr	r1, [sp, #96]
 711 00b2 FFF7FEFF 		bl	_ZN5daisy16AdcChannelConfig10InitSingleE12dsy_gpio_pinNS0_15ConversionSpeedE
 712              	.LVL51:
 158:src/main.cpp  ****     hw.adc.Init(&fsr_cfg, 1);
 713              		.loc 6 158 5 is_stmt 1 view .LVU190
 714              		.loc 6 158 16 is_stmt 0 view .LVU191
 715 00b6 2A46     		mov	r2, r5
 716 00b8 27A9     		add	r1, sp, #156
 717 00ba 0423     		movs	r3, #4
 718 00bc 0B48     		ldr	r0, .L457+24
 719              	.LBB527:
 720              	.LBB528:
 721              	.LBB529:
 159:src/main.cpp  ****     hw.adc.Start();
 160:src/main.cpp  **** 
 161:src/main.cpp  ****     constexpr uint16_t FSR_MIN       = 8000;
 162:src/main.cpp  ****     constexpr float    FSR_DEADZONE  = 0.10f;  // top 10% of travel = full volume (no change)
 163:src/main.cpp  ****     uint16_t           fsr_max       = 55000;
 164:src/main.cpp  ****     // Volume stays 100% until pressure passes the deadzone (raw drops below
 165:src/main.cpp  ****     // fsr_dead), then ramps linearly to 0% at FSR_MIN.
 166:src/main.cpp  ****     uint16_t           fsr_dead       = (uint16_t)(fsr_max - FSR_DEADZONE * (fsr_max - FSR_MIN));
 167:src/main.cpp  ****     float              fsr_active_inv = 1.0f / (float)(fsr_dead - FSR_MIN);
 168:src/main.cpp  **** 
 169:src/main.cpp  ****     auto commit_fsr_avg = [&](uint32_t acc, int n) {
 170:src/main.cpp  ****         if(n == 0) return;
 171:src/main.cpp  ****         uint16_t avg = (uint16_t)(acc / n);
 172:src/main.cpp  ****         // Sanity floor ‚Äî without enough headroom over FSR_MIN the volume curve
 173:src/main.cpp  ****         // becomes hyper-sensitive to noise.
 174:src/main.cpp  ****         if(avg < FSR_MIN + 500) avg = FSR_MIN + 500;
 175:src/main.cpp  ****         fsr_max        = avg;
 176:src/main.cpp  ****         fsr_dead       = (uint16_t)(fsr_max - FSR_DEADZONE * (fsr_max - FSR_MIN));
 177:src/main.cpp  ****         fsr_active_inv = 1.0f / (float)(fsr_dead - FSR_MIN);
 178:src/main.cpp  ****     };
 179:src/main.cpp  **** 
 180:src/main.cpp  ****     // Startup calibration: 2 s silent FSR average ‚Üí fsr_max.
 181:src/main.cpp  ****     auto calibrate_fsr_silent = [&]() {
 182:src/main.cpp  ****         uint32_t start = System::GetNow();
 183:src/main.cpp  ****         uint32_t acc = 0; int n = 0;
 722              		.loc 6 183 18 view .LVU192
 723 00be 2546     		mov	r5, r4
 724              	.LBE529:
 725              	.LBE528:
 726              	.LBE527:
 158:src/main.cpp  ****     hw.adc.Init(&fsr_cfg, 1);
 727              		.loc 6 158 16 view .LVU193
 728 00c0 FFF7FEFF 		bl	_ZN5daisy9AdcHandle4InitEPNS_16AdcChannelConfigEjNS0_12OverSamplingE
 729              	.LVL52:
 159:src/main.cpp  ****     hw.adc.Start();
 730              		.loc 6 159 5 is_stmt 1 view .LVU194
 159:src/main.cpp  ****     hw.adc.Start();
ARM GAS  /tmp/claude-502/cc09dAcL.s 			page 27


 731              		.loc 6 159 17 is_stmt 0 view .LVU195
 732 00c4 0948     		ldr	r0, .L457+24
 733 00c6 FFF7FEFF 		bl	_ZN5daisy9AdcHandle5StartEv
 734              	.LVL53:
 161:src/main.cpp  ****     constexpr float    FSR_DEADZONE  = 0.10f;  // top 10% of travel = full volume (no change)
 735              		.loc 6 161 5 is_stmt 1 view .LVU196
 162:src/main.cpp  ****     uint16_t           fsr_max       = 55000;
 736              		.loc 6 162 5 view .LVU197
 163:src/main.cpp  ****     // Volume stays 100% until pressure passes the deadzone (raw drops below
 737              		.loc 6 163 5 view .LVU198
 166:src/main.cpp  ****     float              fsr_active_inv = 1.0f / (float)(fsr_dead - FSR_MIN);
 738              		.loc 6 166 5 view .LVU199
 167:src/main.cpp  **** 
 739              		.loc 6 167 5 view .LVU200
 169:src/main.cpp  ****         if(n == 0) return;
 740              		.loc 6 169 5 view .LVU201
 181:src/main.cpp  ****         uint32_t start = System::GetNow();
 741              		.loc 6 181 5 view .LVU202
 184:src/main.cpp  ****         while(System::GetNow() - start < 2000) {
 185:src/main.cpp  ****             acc += hw.adc.Get(0);
 186:src/main.cpp  ****             n++;
 187:src/main.cpp  ****             System::Delay(10);
 188:src/main.cpp  ****         }
 189:src/main.cpp  ****         commit_fsr_avg(acc, n);
 190:src/main.cpp  ****     };
 191:src/main.cpp  **** 
 192:src/main.cpp  ****     // Idle behaviour: sweep a virtual position 0‚Üí1000‚Üí0 through the same
 193:src/main.cpp  ****     // LED-tent math as the pitch mapping (LED2=pos 0, LED1=middle, LED3=pos 1),
 194:src/main.cpp  ****     // recalibrate fsr_max during the first 2 s, then keep sweeping until any
 195:src/main.cpp  ****     // electrode crosses TOUCH_THRESHOLD.
 196:src/main.cpp  ****     auto idle_chase_and_calibrate = [&]() {
 742              		.loc 6 196 5 view .LVU203
 197:src/main.cpp  ****         uint32_t start = System::GetNow();
 198:src/main.cpp  ****         uint32_t acc = 0; int n = 0;
 199:src/main.cpp  ****         bool     calibrated = false;
 200:src/main.cpp  ****         constexpr uint32_t SWEEP_PERIOD_MS = 12000;  // one 0‚Üí1‚Üí0 cycle
 201:src/main.cpp  ****         constexpr float    TAU             = 6.2831853f;
 202:src/main.cpp  ****         uint16_t scan[N_CH];
 203:src/main.cpp  **** 
 204:src/main.cpp  ****         while(true) {
 205:src/main.cpp  ****             uint32_t elapsed = System::GetNow() - start;
 206:src/main.cpp  **** 
 207:src/main.cpp  ****             // Sinusoidal position 0‚Üí1‚Üí0 over SWEEP_PERIOD_MS ‚Äî eases at the
 208:src/main.cpp  ****             // endpoints so the reversal is gentle instead of a triangle kink.
 209:src/main.cpp  ****             float phase = (float)(elapsed % SWEEP_PERIOD_MS) / (float)SWEEP_PERIOD_MS;
 210:src/main.cpp  ****             float p01   = 0.5f * (1.0f - cosf(phase * TAU));
 211:src/main.cpp  **** 
 212:src/main.cpp  ****             // Same tent + gamma-0.25 math as the pitch LED mapping.
 213:src/main.cpp  ****             float l1_raw = 1.0f - 2.0f * p01;                 if(l1_raw < 0) l1_raw = 0;
 214:src/main.cpp  ****             float l3_raw = 2.0f * p01 - 1.0f;                 if(l3_raw < 0) l3_raw = 0;
 215:src/main.cpp  ****             float l2_raw = 1.0f - 2.0f * fabsf(p01 - 0.5f);   if(l2_raw < 0) l2_raw = 0;
 216:src/main.cpp  ****             float led1   = sqrtf(sqrtf(l2_raw));              // middle (DAC1)
 217:src/main.cpp  ****             float led2   = sqrtf(sqrtf(l1_raw));              // pos 0  (DAC2)
 218:src/main.cpp  ****             float led3   = sqrtf(sqrtf(l3_raw)) * LED3_INTENSITY; // pos 1 (PWM A0)
 219:src/main.cpp  ****             hw.dac.WriteValue(DacHandle::Channel::ONE, (uint16_t)(led1 * LED1_MAX));
 220:src/main.cpp  ****             hw.dac.WriteValue(DacHandle::Channel::TWO, (uint16_t)(led2 * LED2_MAX));
 221:src/main.cpp  ****             g_led3_duty = led3;
ARM GAS  /tmp/claude-502/cc09dAcL.s 			page 28


 222:src/main.cpp  **** 
 223:src/main.cpp  ****             // FSR calibration window: first 2 s only.
 224:src/main.cpp  ****             if(!calibrated) {
 225:src/main.cpp  ****                 acc += hw.adc.Get(0);
 226:src/main.cpp  ****                 n++;
 227:src/main.cpp  ****                 if(elapsed >= 2000) {
 228:src/main.cpp  ****                     commit_fsr_avg(acc, n);
 229:src/main.cpp  ****                     calibrated = true;
 230:src/main.cpp  ****                 }
 231:src/main.cpp  ****             }
 232:src/main.cpp  **** 
 233:src/main.cpp  ****             // Exit on any touch.
 234:src/main.cpp  ****             read_electrodes(scan);
 235:src/main.cpp  ****             int32_t max_d = 0;
 236:src/main.cpp  ****             for(int i = 0; i < N_CH; i++) {
 237:src/main.cpp  ****                 int32_t d = (int32_t)baseline[i] - (int32_t)scan[i];
 238:src/main.cpp  ****                 if(d > max_d) max_d = d;
 239:src/main.cpp  ****             }
 240:src/main.cpp  ****             if(max_d >= TOUCH_THRESHOLD) break;
 241:src/main.cpp  **** 
 242:src/main.cpp  ****             System::Delay(10);
 243:src/main.cpp  ****         }
 244:src/main.cpp  **** 
 245:src/main.cpp  ****         // Clean handoff back to the main loop's LED writer.
 246:src/main.cpp  ****         hw.dac.WriteValue(DacHandle::Channel::ONE, 0);
 247:src/main.cpp  ****         hw.dac.WriteValue(DacHandle::Channel::TWO, 0);
 248:src/main.cpp  ****         g_led3_duty = 0.0f;
 249:src/main.cpp  ****     };
 250:src/main.cpp  **** 
 251:src/main.cpp  ****     calibrate_fsr_silent();
 743              		.loc 6 251 5 view .LVU204
 744              	.LBB538:
 745              	.LBI527:
 181:src/main.cpp  ****         uint32_t start = System::GetNow();
 746              		.loc 6 181 33 view .LVU205
 747              	.LBB537:
 748              	.LBB536:
 182:src/main.cpp  ****         uint32_t acc = 0; int n = 0;
 749              		.loc 6 182 9 view .LVU206
 182:src/main.cpp  ****         uint32_t acc = 0; int n = 0;
 750              		.loc 6 182 40 is_stmt 0 view .LVU207
 751 00ca FFF7FEFF 		bl	_ZN5daisy6System6GetNowEv
 752              	.LVL54:
 753 00ce 0646     		mov	r6, r0
 754              	.LVL55:
 183:src/main.cpp  ****         while(System::GetNow() - start < 2000) {
 755              		.loc 6 183 9 is_stmt 1 view .LVU208
 183:src/main.cpp  ****         while(System::GetNow() - start < 2000) {
 756              		.loc 6 183 27 view .LVU209
 183:src/main.cpp  ****         while(System::GetNow() - start < 2000) {
 757              		.loc 6 183 27 is_stmt 0 view .LVU210
 758 00d0 16E0     		b	.L51
 759              	.L458:
 760 00d2 00BF     		.align	2
 761              	.L457:
 762 00d4 00000000 		.word	.LANCHOR1
 763 00d8 00000000 		.word	.LANCHOR2
ARM GAS  /tmp/claude-502/cc09dAcL.s 			page 29


 764 00dc 00000000 		.word	.LANCHOR3
 765 00e0 20000000 		.word	.LANCHOR1+32
 766 00e4 00000000 		.word	.LANCHOR4
 767 00e8 00000000 		.word	.LANCHOR5
 768 00ec 18000000 		.word	.LANCHOR1+24
 769              	.LVL56:
 770              	.L427:
 185:src/main.cpp  ****             n++;
 771              		.loc 6 185 30 view .LVU211
 772 00f0 FFF7FEFF 		bl	_ZNK5daisy9AdcHandle3GetEh
 773              	.LVL57:
 774 00f4 0346     		mov	r3, r0
 187:src/main.cpp  ****         }
 775              		.loc 6 187 26 view .LVU212
 776 00f6 0A20     		movs	r0, #10
 186:src/main.cpp  ****             System::Delay(10);
 777              		.loc 6 186 14 view .LVU213
 778 00f8 0134     		adds	r4, r4, #1
 779              	.LVL58:
 185:src/main.cpp  ****             n++;
 780              		.loc 6 185 17 view .LVU214
 781 00fa 1D44     		add	r5, r5, r3
 782              	.LVL59:
 186:src/main.cpp  ****             System::Delay(10);
 783              		.loc 6 186 13 is_stmt 1 view .LVU215
 187:src/main.cpp  ****         }
 784              		.loc 6 187 13 view .LVU216
 187:src/main.cpp  ****         }
 785              		.loc 6 187 26 is_stmt 0 view .LVU217
 786 00fc FFF7FEFF 		bl	_ZN5daisy6System5DelayEm
 787              	.LVL60:
 788              	.L51:
 184:src/main.cpp  ****             acc += hw.adc.Get(0);
 789              		.loc 6 184 9 is_stmt 1 view .LVU218
 184:src/main.cpp  ****             acc += hw.adc.Get(0);
 790              		.loc 6 184 40 view .LVU219
 184:src/main.cpp  ****             acc += hw.adc.Get(0);
 791              		.loc 6 184 29 is_stmt 0 view .LVU220
 792 0100 FFF7FEFF 		bl	_ZN5daisy6System6GetNowEv
 793              	.LVL61:
 185:src/main.cpp  ****             n++;
 794              		.loc 6 185 13 is_stmt 1 view .LVU221
 184:src/main.cpp  ****             acc += hw.adc.Get(0);
 795              		.loc 6 184 29 is_stmt 0 view .LVU222
 796 0104 0346     		mov	r3, r0
 185:src/main.cpp  ****             n++;
 797              		.loc 6 185 30 view .LVU223
 798 0106 0021     		movs	r1, #0
 799 0108 9348     		ldr	r0, .L459
 184:src/main.cpp  ****             acc += hw.adc.Get(0);
 800              		.loc 6 184 32 view .LVU224
 801 010a 9B1B     		subs	r3, r3, r6
 184:src/main.cpp  ****             acc += hw.adc.Get(0);
 802              		.loc 6 184 40 view .LVU225
 803 010c B3F5FA6F 		cmp	r3, #2000
 804 0110 EED3     		bcc	.L427
 189:src/main.cpp  ****     };
ARM GAS  /tmp/claude-502/cc09dAcL.s 			page 30


 805              		.loc 6 189 9 is_stmt 1 view .LVU226
 806              	.LVL62:
 807              	.LBB530:
 808              	.LBI530:
 169:src/main.cpp  ****         if(n == 0) return;
 809              		.loc 6 169 27 view .LVU227
 810              	.LBB531:
 811              	.LBB532:
 170:src/main.cpp  ****         uint16_t avg = (uint16_t)(acc / n);
 812              		.loc 6 170 9 view .LVU228
 813 0112 002C     		cmp	r4, #0
 814 0114 01F06184 		beq	.L248
 815              	.LVL63:
 170:src/main.cpp  ****         uint16_t avg = (uint16_t)(acc / n);
 816              		.loc 6 170 9 is_stmt 0 view .LVU229
 817              	.LBE532:
 818              	.LBB533:
 819              	.LBI533:
 169:src/main.cpp  ****         if(n == 0) return;
 820              		.loc 6 169 27 is_stmt 1 view .LVU230
 821              	.LBB534:
 822              	.LBB535:
 171:src/main.cpp  ****         // Sanity floor ‚Äî without enough headroom over FSR_MIN the volume curve
 823              		.loc 6 171 9 view .LVU231
 824 0118 42F23412 		movw	r2, #8500
 176:src/main.cpp  ****         fsr_active_inv = 1.0f / (float)(fsr_dead - FSR_MIN);
 825              		.loc 6 176 45 is_stmt 0 view .LVU232
 826 011c 9FED8F6A 		vldr.32	s12, .L459+4
 177:src/main.cpp  ****     };
 827              		.loc 6 177 31 view .LVU233
 828 0120 F7EE006A 		vmov.f32	s13, #1.0e+0
 171:src/main.cpp  ****         // Sanity floor ‚Äî without enough headroom over FSR_MIN the volume curve
 829              		.loc 6 171 39 view .LVU234
 830 0124 B5FBF4F3 		udiv	r3, r5, r4
 171:src/main.cpp  ****         // Sanity floor ‚Äî without enough headroom over FSR_MIN the volume curve
 831              		.loc 6 171 18 view .LVU235
 832 0128 9BB2     		uxth	r3, r3
 833              	.LVL64:
 174:src/main.cpp  ****         fsr_max        = avg;
 834              		.loc 6 174 9 is_stmt 1 view .LVU236
 835 012a 9342     		cmp	r3, r2
 836 012c 38BF     		it	cc
 837 012e 1346     		movcc	r3, r2
 838              	.LVL65:
 176:src/main.cpp  ****         fsr_active_inv = 1.0f / (float)(fsr_dead - FSR_MIN);
 839              		.loc 6 176 45 is_stmt 0 view .LVU237
 840 0130 07EE903A 		vmov	s15, r3	@ int
 841 0134 1793     		str	r3, [sp, #92]
 842              	.LVL66:
 175:src/main.cpp  ****         fsr_dead       = (uint16_t)(fsr_max - FSR_DEADZONE * (fsr_max - FSR_MIN));
 843              		.loc 6 175 9 is_stmt 1 view .LVU238
 176:src/main.cpp  ****         fsr_active_inv = 1.0f / (float)(fsr_dead - FSR_MIN);
 844              		.loc 6 176 9 view .LVU239
 176:src/main.cpp  ****         fsr_active_inv = 1.0f / (float)(fsr_dead - FSR_MIN);
 845              		.loc 6 176 71 is_stmt 0 view .LVU240
 846 0136 A3F5FA53 		sub	r3, r3, #8000
 847              	.LVL67:
ARM GAS  /tmp/claude-502/cc09dAcL.s 			page 31


 176:src/main.cpp  ****         fsr_active_inv = 1.0f / (float)(fsr_dead - FSR_MIN);
 848              		.loc 6 176 45 view .LVU241
 849 013a F8EEE77A 		vcvt.f32.s32	s15, s15
 850              	.LVL68:
 176:src/main.cpp  ****         fsr_active_inv = 1.0f / (float)(fsr_dead - FSR_MIN);
 851              		.loc 6 176 71 view .LVU242
 852 013e 07EE103A 		vmov	s14, r3	@ int
 176:src/main.cpp  ****         fsr_active_inv = 1.0f / (float)(fsr_dead - FSR_MIN);
 853              		.loc 6 176 60 view .LVU243
 854 0142 B8EEC77A 		vcvt.f32.s32	s14, s14
 176:src/main.cpp  ****         fsr_active_inv = 1.0f / (float)(fsr_dead - FSR_MIN);
 855              		.loc 6 176 45 view .LVU244
 856 0146 E7EE467A 		vfms.f32	s15, s14, s12
 176:src/main.cpp  ****         fsr_active_inv = 1.0f / (float)(fsr_dead - FSR_MIN);
 857              		.loc 6 176 26 view .LVU245
 858 014a FCEEE77A 		vcvt.u32.f32	s15, s15
 859 014e 17EE903A 		vmov	r3, s15	@ int
 860 0152 9BB2     		uxth	r3, r3
 861 0154 1093     		str	r3, [sp, #64]
 862              	.LVL69:
 177:src/main.cpp  ****     };
 863              		.loc 6 177 9 is_stmt 1 view .LVU246
 177:src/main.cpp  ****     };
 864              		.loc 6 177 50 is_stmt 0 view .LVU247
 865 0156 A3F5FA53 		sub	r3, r3, #8000
 866              	.LVL70:
 177:src/main.cpp  ****     };
 867              		.loc 6 177 50 view .LVU248
 868 015a 07EE903A 		vmov	s15, r3	@ int
 177:src/main.cpp  ****     };
 869              		.loc 6 177 33 view .LVU249
 870 015e F8EEE77A 		vcvt.f32.s32	s15, s15
 177:src/main.cpp  ****     };
 871              		.loc 6 177 31 view .LVU250
 872 0162 C6EEA7AA 		vdiv.f32	s21, s13, s15
 873              	.LVL71:
 874              	.L52:
 177:src/main.cpp  ****     };
 875              		.loc 6 177 31 view .LVU251
 876              	.LBE535:
 877              	.LBE534:
 878              	.LBE533:
 879              	.LBE531:
 880              	.LBE530:
 881              	.LBE536:
 882              	.LBE537:
 883              	.LBE538:
 252:src/main.cpp  **** 
 253:src/main.cpp  ****     // Boot-voice snapshot for the startup banner / initial targets. The main
 254:src/main.cpp  ****     // loop rebinds its own `VOICE` each frame so it always reflects the current
 255:src/main.cpp  ****     // voice index (which the FSR gesture can change live).
 256:src/main.cpp  ****     const Voice& VOICE = VOICES[g_voice_idx];
 884              		.loc 6 256 5 is_stmt 1 view .LVU252
 885              		.loc 6 256 33 is_stmt 0 view .LVU253
 886 0166 7E4F     		ldr	r7, .L459+8
 257:src/main.cpp  **** 
 258:src/main.cpp  ****     // ‚îÄ‚îÄ Start audio ‚îÄ‚îÄ‚îÄ‚îÄ‚îÄ‚îÄ‚îÄ‚îÄ‚îÄ‚îÄ‚îÄ‚îÄ‚îÄ‚îÄ‚îÄ‚îÄ‚îÄ‚îÄ‚îÄ‚îÄ‚îÄ‚îÄ‚îÄ‚îÄ‚
ARM GAS  /tmp/claude-502/cc09dAcL.s 			page 32


 259:src/main.cpp  ****     // Set initial targets before callback fires (voice-relative starting pitch)
 260:src/main.cpp  ****     g_target_freq   = VOICE.freq_low * 2.0f;
 261:src/main.cpp  ****     g_target_cutoff = 100.0f;
 262:src/main.cpp  ****     g_amp_target    = 0.0f;
 887              		.loc 6 262 21 view .LVU254
 888 0168 0025     		movs	r5, #0
 260:src/main.cpp  ****     g_target_cutoff = 100.0f;
 889              		.loc 6 260 29 view .LVU255
 890 016a 7E4B     		ldr	r3, .L459+12
 256:src/main.cpp  **** 
 891              		.loc 6 256 33 view .LVU256
 892 016c 3C68     		ldr	r4, [r7]
 893              	.LVL72:
 260:src/main.cpp  ****     g_target_cutoff = 100.0f;
 894              		.loc 6 260 5 is_stmt 1 view .LVU257
 260:src/main.cpp  ****     g_target_cutoff = 100.0f;
 895              		.loc 6 260 29 is_stmt 0 view .LVU258
 896 016e 1A46     		mov	r2, r3
 897 0170 8C23     		movs	r3, #140
 260:src/main.cpp  ****     g_target_cutoff = 100.0f;
 898              		.loc 6 260 21 view .LVU259
 899 0172 7D49     		ldr	r1, .L459+16
 260:src/main.cpp  ****     g_target_cutoff = 100.0f;
 900              		.loc 6 260 29 view .LVU260
 901 0174 03FB0423 		mla	r3, r3, r4, r2
 902              		.loc 6 262 21 view .LVU261
 903 0178 7C4E     		ldr	r6, .L459+20
 263:src/main.cpp  ****     hw.StartAudio(AudioCallback);
 904              		.loc 6 263 18 view .LVU262
 905 017a 7D48     		ldr	r0, .L459+24
 260:src/main.cpp  ****     g_target_cutoff = 100.0f;
 906              		.loc 6 260 29 view .LVU263
 907 017c 93ED018A 		vldr.32	s16, [r3, #4]
 261:src/main.cpp  ****     g_amp_target    = 0.0f;
 908              		.loc 6 261 21 view .LVU264
 909 0180 7C4B     		ldr	r3, .L459+28
 260:src/main.cpp  ****     g_target_cutoff = 100.0f;
 910              		.loc 6 260 38 view .LVU265
 911 0182 78EE087A 		vadd.f32	s15, s16, s16
 260:src/main.cpp  ****     g_target_cutoff = 100.0f;
 912              		.loc 6 260 29 view .LVU266
 913 0186 0592     		str	r2, [sp, #20]
 260:src/main.cpp  ****     g_target_cutoff = 100.0f;
 914              		.loc 6 260 21 view .LVU267
 915 0188 C1ED007A 		vstr.32	s15, [r1]
 261:src/main.cpp  ****     g_amp_target    = 0.0f;
 916              		.loc 6 261 5 is_stmt 1 view .LVU268
 261:src/main.cpp  ****     g_amp_target    = 0.0f;
 917              		.loc 6 261 21 is_stmt 0 view .LVU269
 918 018c 7A49     		ldr	r1, .L459+32
 919 018e 0B60     		str	r3, [r1]	@ float
 262:src/main.cpp  ****     hw.StartAudio(AudioCallback);
 920              		.loc 6 262 5 is_stmt 1 view .LVU270
 921              		.loc 6 263 18 is_stmt 0 view .LVU271
 922 0190 7A49     		ldr	r1, .L459+36
 262:src/main.cpp  ****     hw.StartAudio(AudioCallback);
 923              		.loc 6 262 21 view .LVU272
ARM GAS  /tmp/claude-502/cc09dAcL.s 			page 33


 924 0192 3560     		str	r5, [r6]	@ float
 925              		.loc 6 263 5 is_stmt 1 view .LVU273
 926              		.loc 6 263 18 is_stmt 0 view .LVU274
 927 0194 FFF7FEFF 		bl	_ZN5daisy9DaisySeed10StartAudioEPFvPKPKfPPfjE
 928              	.LVL73:
 264:src/main.cpp  **** 
 265:src/main.cpp  ****     // Boot beep ‚Äî 200ms tone so you can confirm headphone audio is working
 266:src/main.cpp  ****     g_amp_target = 0.4f;
 929              		.loc 6 266 5 is_stmt 1 view .LVU275
 930              		.loc 6 266 18 is_stmt 0 view .LVU276
 931 0198 794B     		ldr	r3, .L459+40
 267:src/main.cpp  ****     System::Delay(200);
 932              		.loc 6 267 18 view .LVU277
 933 019a C820     		movs	r0, #200
 266:src/main.cpp  ****     System::Delay(200);
 934              		.loc 6 266 18 view .LVU278
 935 019c 3360     		str	r3, [r6]	@ float
 936              		.loc 6 267 5 is_stmt 1 view .LVU279
 937              		.loc 6 267 18 is_stmt 0 view .LVU280
 938 019e FFF7FEFF 		bl	_ZN5daisy6System5DelayEm
 939              	.LVL74:
 268:src/main.cpp  ****     g_amp_target = 0.0f;
 940              		.loc 6 268 5 is_stmt 1 view .LVU281
 269:src/main.cpp  ****     System::Delay(50);
 941              		.loc 6 269 18 is_stmt 0 view .LVU282
 942 01a2 3220     		movs	r0, #50
 268:src/main.cpp  ****     g_amp_target = 0.0f;
 943              		.loc 6 268 18 view .LVU283
 944 01a4 3560     		str	r5, [r6]	@ float
 945              		.loc 6 269 5 is_stmt 1 view .LVU284
 946              		.loc 6 269 18 is_stmt 0 view .LVU285
 947 01a6 FFF7FEFF 		bl	_ZN5daisy6System5DelayEm
 948              	.LVL75:
 270:src/main.cpp  **** 
 271:src/main.cpp  ****     // ‚îÄ‚îÄ USB serial (blocks until host connects) ‚îÄ‚îÄ‚îÄ‚îÄ‚îÄ‚îÄ‚îÄ‚îÄ‚îÄ‚îÄ‚îÄ‚îÄ‚îÄ‚îÄ‚îÄ
 272:src/main.cpp  ****     hw.StartLog(false); // false = don't wait for serial monitor
 949              		.loc 6 272 5 is_stmt 1 view .LVU286
 950              	.LBB539:
 951              	.LBI539:
  23:/Users/reza.kalfane/Workspaces/Daisy/DaisyExamples/libDaisy/src/daisy_seed.h **** 
  24:/Users/reza.kalfane/Workspaces/Daisy/DaisyExamples/libDaisy/src/daisy_seed.h ****     /** This function used to provide a pre-initialization configuraiton 
  25:/Users/reza.kalfane/Workspaces/Daisy/DaisyExamples/libDaisy/src/daisy_seed.h ****      *  it has since been deprecated, and does nothing.
  26:/Users/reza.kalfane/Workspaces/Daisy/DaisyExamples/libDaisy/src/daisy_seed.h ****      */
  27:/Users/reza.kalfane/Workspaces/Daisy/DaisyExamples/libDaisy/src/daisy_seed.h ****     void Configure();
  28:/Users/reza.kalfane/Workspaces/Daisy/DaisyExamples/libDaisy/src/daisy_seed.h **** 
  29:/Users/reza.kalfane/Workspaces/Daisy/DaisyExamples/libDaisy/src/daisy_seed.h ****     /** 
  30:/Users/reza.kalfane/Workspaces/Daisy/DaisyExamples/libDaisy/src/daisy_seed.h ****     Initializes the Daisy Seed and the following peripherals:
  31:/Users/reza.kalfane/Workspaces/Daisy/DaisyExamples/libDaisy/src/daisy_seed.h ****     SDRAM, QSPI, 24-bit 48kHz Audio via AK4556, Internal USB,
  32:/Users/reza.kalfane/Workspaces/Daisy/DaisyExamples/libDaisy/src/daisy_seed.h ****     as well as the built-in LED and Testpoint.
  33:/Users/reza.kalfane/Workspaces/Daisy/DaisyExamples/libDaisy/src/daisy_seed.h **** 
  34:/Users/reza.kalfane/Workspaces/Daisy/DaisyExamples/libDaisy/src/daisy_seed.h ****     ADCs, DACs, and other special peripherals (such as I2C, SPI, etc.)
  35:/Users/reza.kalfane/Workspaces/Daisy/DaisyExamples/libDaisy/src/daisy_seed.h ****     can be initialized using their specific initializers within libdaisy
  36:/Users/reza.kalfane/Workspaces/Daisy/DaisyExamples/libDaisy/src/daisy_seed.h ****     for a specific application.
  37:/Users/reza.kalfane/Workspaces/Daisy/DaisyExamples/libDaisy/src/daisy_seed.h ****     */
  38:/Users/reza.kalfane/Workspaces/Daisy/DaisyExamples/libDaisy/src/daisy_seed.h ****     void Init(bool boost = false);
  39:/Users/reza.kalfane/Workspaces/Daisy/DaisyExamples/libDaisy/src/daisy_seed.h **** 
  40:/Users/reza.kalfane/Workspaces/Daisy/DaisyExamples/libDaisy/src/daisy_seed.h ****     /** 
ARM GAS  /tmp/claude-502/cc09dAcL.s 			page 34


  41:/Users/reza.kalfane/Workspaces/Daisy/DaisyExamples/libDaisy/src/daisy_seed.h ****     Deinitializes all peripherals automatically handled by `Init`.
  42:/Users/reza.kalfane/Workspaces/Daisy/DaisyExamples/libDaisy/src/daisy_seed.h ****     */
  43:/Users/reza.kalfane/Workspaces/Daisy/DaisyExamples/libDaisy/src/daisy_seed.h ****     void DeInit();
  44:/Users/reza.kalfane/Workspaces/Daisy/DaisyExamples/libDaisy/src/daisy_seed.h **** 
  45:/Users/reza.kalfane/Workspaces/Daisy/DaisyExamples/libDaisy/src/daisy_seed.h ****     /** 
  46:/Users/reza.kalfane/Workspaces/Daisy/DaisyExamples/libDaisy/src/daisy_seed.h ****     Wait some ms before going on.
  47:/Users/reza.kalfane/Workspaces/Daisy/DaisyExamples/libDaisy/src/daisy_seed.h ****     \param del Delay time in ms.
  48:/Users/reza.kalfane/Workspaces/Daisy/DaisyExamples/libDaisy/src/daisy_seed.h ****     */
  49:/Users/reza.kalfane/Workspaces/Daisy/DaisyExamples/libDaisy/src/daisy_seed.h ****     void DelayMs(size_t del);
  50:/Users/reza.kalfane/Workspaces/Daisy/DaisyExamples/libDaisy/src/daisy_seed.h **** 
  51:/Users/reza.kalfane/Workspaces/Daisy/DaisyExamples/libDaisy/src/daisy_seed.h ****     /** 
  52:/Users/reza.kalfane/Workspaces/Daisy/DaisyExamples/libDaisy/src/daisy_seed.h ****     Returns the gpio_pin corresponding to the index 0-31.
  53:/Users/reza.kalfane/Workspaces/Daisy/DaisyExamples/libDaisy/src/daisy_seed.h ****     For the given GPIO on the Daisy Seed (labeled 1-32 in docs).
  54:/Users/reza.kalfane/Workspaces/Daisy/DaisyExamples/libDaisy/src/daisy_seed.h ****     */
  55:/Users/reza.kalfane/Workspaces/Daisy/DaisyExamples/libDaisy/src/daisy_seed.h ****     static dsy_gpio_pin GetPin(uint8_t pin_idx);
  56:/Users/reza.kalfane/Workspaces/Daisy/DaisyExamples/libDaisy/src/daisy_seed.h **** 
  57:/Users/reza.kalfane/Workspaces/Daisy/DaisyExamples/libDaisy/src/daisy_seed.h ****     /** Begins the audio for the seeds builtin audio.
  58:/Users/reza.kalfane/Workspaces/Daisy/DaisyExamples/libDaisy/src/daisy_seed.h ****     the specified callback will get called whenever
  59:/Users/reza.kalfane/Workspaces/Daisy/DaisyExamples/libDaisy/src/daisy_seed.h ****     new data is ready to be prepared.
  60:/Users/reza.kalfane/Workspaces/Daisy/DaisyExamples/libDaisy/src/daisy_seed.h ****     */
  61:/Users/reza.kalfane/Workspaces/Daisy/DaisyExamples/libDaisy/src/daisy_seed.h ****     void StartAudio(AudioHandle::InterleavingAudioCallback cb);
  62:/Users/reza.kalfane/Workspaces/Daisy/DaisyExamples/libDaisy/src/daisy_seed.h **** 
  63:/Users/reza.kalfane/Workspaces/Daisy/DaisyExamples/libDaisy/src/daisy_seed.h ****     /** Begins the audio for the seeds builtin audio.
  64:/Users/reza.kalfane/Workspaces/Daisy/DaisyExamples/libDaisy/src/daisy_seed.h ****     the specified callback will get called whenever
  65:/Users/reza.kalfane/Workspaces/Daisy/DaisyExamples/libDaisy/src/daisy_seed.h ****     new data is ready to be prepared.
  66:/Users/reza.kalfane/Workspaces/Daisy/DaisyExamples/libDaisy/src/daisy_seed.h ****     This will use the newer non-interleaved callback.
  67:/Users/reza.kalfane/Workspaces/Daisy/DaisyExamples/libDaisy/src/daisy_seed.h ****     */
  68:/Users/reza.kalfane/Workspaces/Daisy/DaisyExamples/libDaisy/src/daisy_seed.h ****     void StartAudio(AudioHandle::AudioCallback cb);
  69:/Users/reza.kalfane/Workspaces/Daisy/DaisyExamples/libDaisy/src/daisy_seed.h **** 
  70:/Users/reza.kalfane/Workspaces/Daisy/DaisyExamples/libDaisy/src/daisy_seed.h ****     /** Changes to a new interleaved callback
  71:/Users/reza.kalfane/Workspaces/Daisy/DaisyExamples/libDaisy/src/daisy_seed.h ****      */
  72:/Users/reza.kalfane/Workspaces/Daisy/DaisyExamples/libDaisy/src/daisy_seed.h ****     void ChangeAudioCallback(AudioHandle::InterleavingAudioCallback cb);
  73:/Users/reza.kalfane/Workspaces/Daisy/DaisyExamples/libDaisy/src/daisy_seed.h **** 
  74:/Users/reza.kalfane/Workspaces/Daisy/DaisyExamples/libDaisy/src/daisy_seed.h ****     /** Changes to a new multichannel callback
  75:/Users/reza.kalfane/Workspaces/Daisy/DaisyExamples/libDaisy/src/daisy_seed.h ****      */
  76:/Users/reza.kalfane/Workspaces/Daisy/DaisyExamples/libDaisy/src/daisy_seed.h ****     void ChangeAudioCallback(AudioHandle::AudioCallback cb);
  77:/Users/reza.kalfane/Workspaces/Daisy/DaisyExamples/libDaisy/src/daisy_seed.h **** 
  78:/Users/reza.kalfane/Workspaces/Daisy/DaisyExamples/libDaisy/src/daisy_seed.h ****     /** Stops the audio if it is running. */
  79:/Users/reza.kalfane/Workspaces/Daisy/DaisyExamples/libDaisy/src/daisy_seed.h ****     void StopAudio();
  80:/Users/reza.kalfane/Workspaces/Daisy/DaisyExamples/libDaisy/src/daisy_seed.h **** 
  81:/Users/reza.kalfane/Workspaces/Daisy/DaisyExamples/libDaisy/src/daisy_seed.h ****     /** Updates the Audio Sample Rate, and reinitializes.
  82:/Users/reza.kalfane/Workspaces/Daisy/DaisyExamples/libDaisy/src/daisy_seed.h ****      ** Audio must be stopped for this to work.
  83:/Users/reza.kalfane/Workspaces/Daisy/DaisyExamples/libDaisy/src/daisy_seed.h ****      */
  84:/Users/reza.kalfane/Workspaces/Daisy/DaisyExamples/libDaisy/src/daisy_seed.h ****     void SetAudioSampleRate(SaiHandle::Config::SampleRate samplerate);
  85:/Users/reza.kalfane/Workspaces/Daisy/DaisyExamples/libDaisy/src/daisy_seed.h **** 
  86:/Users/reza.kalfane/Workspaces/Daisy/DaisyExamples/libDaisy/src/daisy_seed.h ****     /** Returns the audio sample rate in Hz as a floating point number.
  87:/Users/reza.kalfane/Workspaces/Daisy/DaisyExamples/libDaisy/src/daisy_seed.h ****      */
  88:/Users/reza.kalfane/Workspaces/Daisy/DaisyExamples/libDaisy/src/daisy_seed.h ****     float AudioSampleRate();
  89:/Users/reza.kalfane/Workspaces/Daisy/DaisyExamples/libDaisy/src/daisy_seed.h **** 
  90:/Users/reza.kalfane/Workspaces/Daisy/DaisyExamples/libDaisy/src/daisy_seed.h ****     /** Sets the number of samples processed per channel by the audio callback.
  91:/Users/reza.kalfane/Workspaces/Daisy/DaisyExamples/libDaisy/src/daisy_seed.h ****      */
  92:/Users/reza.kalfane/Workspaces/Daisy/DaisyExamples/libDaisy/src/daisy_seed.h ****     void SetAudioBlockSize(size_t blocksize);
  93:/Users/reza.kalfane/Workspaces/Daisy/DaisyExamples/libDaisy/src/daisy_seed.h **** 
  94:/Users/reza.kalfane/Workspaces/Daisy/DaisyExamples/libDaisy/src/daisy_seed.h ****     /** Returns the number of samples per channel in a block of audio. */
  95:/Users/reza.kalfane/Workspaces/Daisy/DaisyExamples/libDaisy/src/daisy_seed.h ****     size_t AudioBlockSize();
  96:/Users/reza.kalfane/Workspaces/Daisy/DaisyExamples/libDaisy/src/daisy_seed.h **** 
  97:/Users/reza.kalfane/Workspaces/Daisy/DaisyExamples/libDaisy/src/daisy_seed.h ****     /** Returns the rate in Hz that the Audio callback is called */
ARM GAS  /tmp/claude-502/cc09dAcL.s 			page 35


  98:/Users/reza.kalfane/Workspaces/Daisy/DaisyExamples/libDaisy/src/daisy_seed.h ****     float AudioCallbackRate() const;
  99:/Users/reza.kalfane/Workspaces/Daisy/DaisyExamples/libDaisy/src/daisy_seed.h **** 
 100:/Users/reza.kalfane/Workspaces/Daisy/DaisyExamples/libDaisy/src/daisy_seed.h ****     /** Returns the SAI Handle for the Daisy Seed 
 101:/Users/reza.kalfane/Workspaces/Daisy/DaisyExamples/libDaisy/src/daisy_seed.h ****      *  This can be useful when adding a secondary codec,
 102:/Users/reza.kalfane/Workspaces/Daisy/DaisyExamples/libDaisy/src/daisy_seed.h ****      *  the result of this function can be passed to the audio reinit 
 103:/Users/reza.kalfane/Workspaces/Daisy/DaisyExamples/libDaisy/src/daisy_seed.h ****      *  with an SAI2 configuration
 104:/Users/reza.kalfane/Workspaces/Daisy/DaisyExamples/libDaisy/src/daisy_seed.h ****      */
 105:/Users/reza.kalfane/Workspaces/Daisy/DaisyExamples/libDaisy/src/daisy_seed.h ****     const SaiHandle& AudioSaiHandle() const;
 106:/Users/reza.kalfane/Workspaces/Daisy/DaisyExamples/libDaisy/src/daisy_seed.h **** 
 107:/Users/reza.kalfane/Workspaces/Daisy/DaisyExamples/libDaisy/src/daisy_seed.h ****     /** Sets the state of the built in LED
 108:/Users/reza.kalfane/Workspaces/Daisy/DaisyExamples/libDaisy/src/daisy_seed.h ****      */
 109:/Users/reza.kalfane/Workspaces/Daisy/DaisyExamples/libDaisy/src/daisy_seed.h ****     void SetLed(bool state);
 110:/Users/reza.kalfane/Workspaces/Daisy/DaisyExamples/libDaisy/src/daisy_seed.h **** 
 111:/Users/reza.kalfane/Workspaces/Daisy/DaisyExamples/libDaisy/src/daisy_seed.h ****     /** Sets the state of the test point near pin 10
 112:/Users/reza.kalfane/Workspaces/Daisy/DaisyExamples/libDaisy/src/daisy_seed.h ****      */
 113:/Users/reza.kalfane/Workspaces/Daisy/DaisyExamples/libDaisy/src/daisy_seed.h ****     void SetTestPoint(bool state);
 114:/Users/reza.kalfane/Workspaces/Daisy/DaisyExamples/libDaisy/src/daisy_seed.h **** 
 115:/Users/reza.kalfane/Workspaces/Daisy/DaisyExamples/libDaisy/src/daisy_seed.h ****     /** Print formatted debug log message
 116:/Users/reza.kalfane/Workspaces/Daisy/DaisyExamples/libDaisy/src/daisy_seed.h ****      */
 117:/Users/reza.kalfane/Workspaces/Daisy/DaisyExamples/libDaisy/src/daisy_seed.h ****     template <typename... VA>
 118:/Users/reza.kalfane/Workspaces/Daisy/DaisyExamples/libDaisy/src/daisy_seed.h ****     static void Print(const char* format, VA... va)
 119:/Users/reza.kalfane/Workspaces/Daisy/DaisyExamples/libDaisy/src/daisy_seed.h ****     {
 120:/Users/reza.kalfane/Workspaces/Daisy/DaisyExamples/libDaisy/src/daisy_seed.h ****         Log::Print(format, va...);
 121:/Users/reza.kalfane/Workspaces/Daisy/DaisyExamples/libDaisy/src/daisy_seed.h ****     }
 122:/Users/reza.kalfane/Workspaces/Daisy/DaisyExamples/libDaisy/src/daisy_seed.h **** 
 123:/Users/reza.kalfane/Workspaces/Daisy/DaisyExamples/libDaisy/src/daisy_seed.h ****     /** Print formatted debug log message with automatic line termination
 124:/Users/reza.kalfane/Workspaces/Daisy/DaisyExamples/libDaisy/src/daisy_seed.h ****     */
 125:/Users/reza.kalfane/Workspaces/Daisy/DaisyExamples/libDaisy/src/daisy_seed.h ****     template <typename... VA>
 126:/Users/reza.kalfane/Workspaces/Daisy/DaisyExamples/libDaisy/src/daisy_seed.h ****     static void PrintLine(const char* format, VA... va)
 127:/Users/reza.kalfane/Workspaces/Daisy/DaisyExamples/libDaisy/src/daisy_seed.h ****     {
 128:/Users/reza.kalfane/Workspaces/Daisy/DaisyExamples/libDaisy/src/daisy_seed.h ****         Log::PrintLine(format, va...);
 129:/Users/reza.kalfane/Workspaces/Daisy/DaisyExamples/libDaisy/src/daisy_seed.h ****     }
 130:/Users/reza.kalfane/Workspaces/Daisy/DaisyExamples/libDaisy/src/daisy_seed.h **** 
 131:/Users/reza.kalfane/Workspaces/Daisy/DaisyExamples/libDaisy/src/daisy_seed.h ****     /** Start the logging session. Optionally wait for terminal connection before proceeding.
 132:/Users/reza.kalfane/Workspaces/Daisy/DaisyExamples/libDaisy/src/daisy_seed.h ****     */
 133:/Users/reza.kalfane/Workspaces/Daisy/DaisyExamples/libDaisy/src/daisy_seed.h ****     static void StartLog(bool wait_for_pc = false)
 952              		.loc 1 133 17 view .LVU287
 953              	.LBB540:
 134:/Users/reza.kalfane/Workspaces/Daisy/DaisyExamples/libDaisy/src/daisy_seed.h ****     {
 135:/Users/reza.kalfane/Workspaces/Daisy/DaisyExamples/libDaisy/src/daisy_seed.h ****         Log::StartLog(wait_for_pc);
 954              		.loc 1 135 9 view .LVU288
 955              		.loc 1 135 22 is_stmt 0 view .LVU289
 956 01aa 0020     		movs	r0, #0
 957 01ac FFF7FEFF 		bl	_ZN5daisy6LoggerILNS_17LoggerDestinationE1EE8StartLogEb
 958              	.LVL76:
 959              		.loc 1 135 22 view .LVU290
 960              	.LBE540:
 961              	.LBE539:
 273:src/main.cpp  **** 
 274:src/main.cpp  ****     hw.PrintLine("Glass Moog Synth");
 962              		.loc 6 274 5 is_stmt 1 view .LVU291
 963              	.LBB541:
 964              	.LBI541:
 126:/Users/reza.kalfane/Workspaces/Daisy/DaisyExamples/libDaisy/src/daisy_seed.h ****     {
 965              		.loc 1 126 17 view .LVU292
 966              	.LBB542:
 128:/Users/reza.kalfane/Workspaces/Daisy/DaisyExamples/libDaisy/src/daisy_seed.h ****     }
ARM GAS  /tmp/claude-502/cc09dAcL.s 			page 36


 967              		.loc 1 128 23 is_stmt 0 view .LVU293
 968 01b0 7448     		ldr	r0, .L459+44
 969 01b2 FFF7FEFF 		bl	_ZN5daisy6LoggerILNS_17LoggerDestinationE1EE9PrintLineEPKcz
 970              	.LVL77:
 128:/Users/reza.kalfane/Workspaces/Daisy/DaisyExamples/libDaisy/src/daisy_seed.h ****     }
 971              		.loc 1 128 23 view .LVU294
 972              	.LBE542:
 973              	.LBE541:
 275:src/main.cpp  ****     hw.PrintLine("================");
 974              		.loc 6 275 5 is_stmt 1 view .LVU295
 975              	.LBB543:
 976              	.LBI543:
 126:/Users/reza.kalfane/Workspaces/Daisy/DaisyExamples/libDaisy/src/daisy_seed.h ****     {
 977              		.loc 1 126 17 view .LVU296
 978              	.LBB544:
 128:/Users/reza.kalfane/Workspaces/Daisy/DaisyExamples/libDaisy/src/daisy_seed.h ****     }
 979              		.loc 1 128 23 is_stmt 0 view .LVU297
 980 01b6 7448     		ldr	r0, .L459+48
 981 01b8 FFF7FEFF 		bl	_ZN5daisy6LoggerILNS_17LoggerDestinationE1EE9PrintLineEPKcz
 982              	.LVL78:
 128:/Users/reza.kalfane/Workspaces/Daisy/DaisyExamples/libDaisy/src/daisy_seed.h ****     }
 983              		.loc 1 128 23 view .LVU298
 984              	.LBE544:
 985              	.LBE543:
 276:src/main.cpp  ****     hw.PrintLine("Voice %d/%d: %s  (%d-%dHz)",
 986              		.loc 6 276 5 is_stmt 1 view .LVU299
 987              		.loc 6 276 17 is_stmt 0 view .LVU300
 988 01bc 3B68     		ldr	r3, [r7]
 989              	.LVL79:
 990              	.LBB545:
 991              	.LBI545:
 992              		.file 8 "src/voice.h"
   1:src/voice.h   **** #pragma once
   2:src/voice.h   **** // The voice model: the Voice struct, all presets, the VOICES[] bank, the
   3:src/voice.h   **** // Drums MultiVoice config, and the FSR-cycle helpers.
   4:src/voice.h   **** #include <cstdint>
   5:src/voice.h   **** #include "dsp.h"   // Waveform
   6:src/voice.h   **** 
   7:src/voice.h   **** struct Voice {
   8:src/voice.h   ****     const char* name;
   9:src/voice.h   **** 
  10:src/voice.h   ****     // Pitch range. Finger-1 position 0‚Äì1000 maps exponentially across this.
  11:src/voice.h   ****     float freq_low;
  12:src/voice.h   ****     float freq_high;
  13:src/voice.h   ****     float log_freq_ratio;   // = ln(freq_high / freq_low), precomputed (logf isn't constexpr)
  14:src/voice.h   **** 
  15:src/voice.h   ****     // Oscillator stack. Each oscillator's pitch = fundamental * ratio, and each
  16:src/voice.h   ****     // has its own waveform. Set a level to 0 to silence an oscillator.
  17:src/voice.h   ****     float osc1_ratio, osc1_level;  Waveform osc1_wave;   // primary
  18:src/voice.h   ****     float osc2_ratio, osc2_level;  Waveform osc2_wave;   // second osc (see osc2_detune)
  19:src/voice.h   ****     float sub_ratio,  sub_level;   Waveform sub_wave;    // weight below
  20:src/voice.h   ****     float oct_ratio,  oct_level;   Waveform oct_wave;    // shimmer / chord top
  21:src/voice.h   ****     bool  osc2_detune;              // true  ‚Üí finger-2 detune controls osc2 pitch (lead)
  22:src/voice.h   ****                                     // false ‚Üí osc2 stays at osc2_ratio (e.g. a fixed 5th)
  23:src/voice.h   **** 
  24:src/voice.h   ****     // Filter character. Base cutoff = freq * cutoff_mult; pressure opens it
  25:src/voice.h   ****     // by up to cutoff_oct_max octaves on top.
ARM GAS  /tmp/claude-502/cc09dAcL.s 			page 37


  26:src/voice.h   ****     float cutoff_mult;
  27:src/voice.h   ****     float cutoff_oct_max;
  28:src/voice.h   ****     float resonance;
  29:src/voice.h   **** 
  30:src/voice.h   ****     // Drive ‚Äî pressure-controlled waveshaper gain added on top of 1.0.
  31:src/voice.h   ****     float drive_max;
  32:src/voice.h   **** 
  33:src/voice.h   ****     // ‚îÄ‚îÄ Extras (appended so existing field order stays stable) ‚îÄ‚îÄ‚îÄ‚îÄ‚îÄ‚îÄ‚îÄ‚îÄ‚îÄ‚îÄ
  34:src/voice.h   ****     float noise_level;     // white noise mixed into the oscillator stack (0 = none)
  35:src/voice.h   ****     float keytrack;        // 0..1 ‚Äî how much the cutoff follows pitch (1 = full)
  36:src/voice.h   ****     float ringmod_ratio;   // ring-mod carrier pitch ratio (1.0 = unison; non-int = bell/metallic)
  37:src/voice.h   ****     float ringmod_max;     // max ring-mod wet from finger-2 pressure
  38:src/voice.h   ****     float fold_max;        // max wavefold amount from finger-2 pressure
  39:src/voice.h   ****     float attack_ms;       // amp envelope attack time
  40:src/voice.h   ****     float release_ms;      // amp envelope + filter-close release time
  41:src/voice.h   ****     float glide_ms;        // portamento (pitch glide) time
  42:src/voice.h   **** 
  43:src/voice.h   ****     // Pitch envelope ‚Äî a fast downward pitch sweep at note onset (kick "boom",
  44:src/voice.h   ****     // zap, tom thump). Left at 0 (the default for voices that omit them) = off.
  45:src/voice.h   ****     float pitch_env_oct;   // octaves the pitch starts ABOVE the note at onset (0 = none)
  46:src/voice.h   ****     float pitch_env_ms;    // time the pitch sweep takes to settle to the note
  47:src/voice.h   **** 
  48:src/voice.h   ****     // Noise tone: 0 = full white noise ("shhh"), 1 = high-passed/bright ("tsss",
  49:src/voice.h   ****     // for hi-hats/cymbals). Default 0 leaves the noise white. See NOISE_HP_COEF.
  50:src/voice.h   ****     float noise_hp;
  51:src/voice.h   **** 
  52:src/voice.h   ****     // FSR-gesture cycling: true = skip this voice in the cycle (still reachable
  53:src/voice.h   ****     // as the boot voice or via the Drums MultiVoice). Default false = in cycle.
  54:src/voice.h   ****     // The raw drums set this so the gesture cycles instruments + Drums only.
  55:src/voice.h   ****     bool no_cycle;
  56:src/voice.h   **** 
  57:src/voice.h   ****     // Velocity sensitivity 0..1: how much the onset hit strength (peak pressure
  58:src/voice.h   ****     // in the first few ms) scales loudness. 0 = fixed loudness (default ‚Äî the
  59:src/voice.h   ****     // sustained instruments); ~0.85 on drums for accents/ghost notes. Loudness
  60:src/voice.h   ****     // floor = (1 - vel_sens), so soft taps stay audible.
  61:src/voice.h   ****     float vel_sens;
  62:src/voice.h   **** 
  63:src/voice.h   ****     // Re-attack speed on hold: minimum ms between bounce-retriggers (the cap on
  64:src/voice.h   ****     // how fast a held finger can repeat by pulsing pressure). SMALLER = faster
  65:src/voice.h   ****     // repeats allowed; LARGER = slower. 0 = off (only a full lift + re-tap
  66:src/voice.h   ****     // retriggers). A full lift always retriggers regardless. Default 0 keeps the
  67:src/voice.h   ****     // melodic voices free of accidental re-articulation; drums set a value.
  68:src/voice.h   ****     float retrig_ms;
  69:src/voice.h   **** 
  70:src/voice.h   ****     // Pitch quantize: true = snap finger-1 to the nearest chromatic note on
  71:src/voice.h   ****     // touch-down, then bend freely while sliding (see QUANTIZE in main.cpp).
  72:src/voice.h   ****     // false = fully continuous pitch. Default false; only the Organ sets it.
  73:src/voice.h   ****     bool quantize;
  74:src/voice.h   **** };
  75:src/voice.h   **** 
  76:src/voice.h   **** // Perfect-fifth frequency ratio = 2^(7/12).
  77:src/voice.h   **** static constexpr float RATIO_FIFTH = 1.49831f;
  78:src/voice.h   **** 
  79:src/voice.h   **** // ‚îÄ‚îÄ Voice 0: the original glass-Moog lead ‚îÄ‚îÄ‚îÄ‚îÄ‚îÄ‚îÄ‚îÄ‚îÄ‚îÄ‚îÄ‚îÄ‚îÄ‚îÄ‚îÄ‚îÄ‚îÄ‚îÄ
  80:src/voice.h   **** //   F1 pos‚Üípitch, F1 prs‚Üícutoff+vibrato; F2 pos‚Üídetune, F2 prs‚Üíwavefold+ringmod.
  81:src/voice.h   **** static constexpr Voice VOICE_LEAD = {
  82:src/voice.h   ****     "Lead",
ARM GAS  /tmp/claude-502/cc09dAcL.s 			page 38


  83:src/voice.h   ****     50.0f, 300.0f, 1.79176f,   // 50‚Äì300 Hz, ln(6)
  84:src/voice.h   ****     1.0f, 0.50f, WAVE_TRI,   // osc1  ‚Äî root
  85:src/voice.h   ****     1.0f, 0.22f, WAVE_TRI,   // osc2  ‚Äî detune-controlled, ratio is just the base
  86:src/voice.h   ****     0.5f, 0.18f, WAVE_TRI,   // sub   ‚Äî one octave below
  87:src/voice.h   ****     2.0f, 0.15f, WAVE_TRI,   // oct   ‚Äî one octave above
  88:src/voice.h   ****     true,          // osc2 follows finger-2 detune
  89:src/voice.h   ****     0.3f, 12.0f, 0.75f,
  90:src/voice.h   ****     2.5f,
  91:src/voice.h   ****     // noise, keytrack, rm_ratio, rm_max, fold_max, attack, release, glide (ms)
  92:src/voice.h   ****     0.0f, 1.0f, 1.0f, 0.15f, 0.18f, 4.0f, 400.0f, 40.0f
  93:src/voice.h   **** };
  94:src/voice.h   **** 
  95:src/voice.h   **** // ‚îÄ‚îÄ Voice 1: round & dark power-chord bass (root + 5th + octave + sub) ‚îÄ‚îÄ‚îÄ‚îÄ‚îÄ‚îÄ‚îÄ‚
  96:src/voice.h   **** //   Same touch mappings, but osc2 is a fixed perfect fifth instead of a detune,
  97:src/voice.h   **** //   so every note sounds as a power chord. Lower range, gentler filter, less
  98:src/voice.h   **** //   drive ‚Üí deep and round rather than bright and screaming.
  99:src/voice.h   **** static constexpr Voice VOICE_BASS = {
 100:src/voice.h   ****     "Bass",
 101:src/voice.h   ****     40.0f, 160.0f, 1.38629f,   // 40‚Äì160 Hz, ln(4) ‚Äî sits under the lead
 102:src/voice.h   ****     1.0f,        0.45f, WAVE_TRI,   // osc1  ‚Äî root
 103:src/voice.h   ****     RATIO_FIFTH, 0.30f, WAVE_TRI,   // osc2  ‚Äî fixed perfect fifth (the power chord)
 104:src/voice.h   ****     0.5f,        0.34f, WAVE_TRI,   // sub   ‚Äî extra weight for a round bottom
 105:src/voice.h   ****     2.0f,        0.20f, WAVE_TRI,   // oct   ‚Äî top of the power chord
 106:src/voice.h   ****     false,                // osc2 is a fixed fifth, not finger-2 detune
 107:src/voice.h   ****     0.25f, 7.0f, 0.50f,   // darker: lower base cutoff, gentler sweep, less resonance
 108:src/voice.h   ****     1.0f,                 // less drive ‚Äî keep it clean and round
 109:src/voice.h   ****     // noise, keytrack, rm_ratio, rm_max, fold_max, attack, release, glide (ms)
 110:src/voice.h   ****     0.0f, 1.0f, 1.0f, 0.12f, 0.12f, 6.0f, 300.0f, 25.0f
 111:src/voice.h   **** };
 112:src/voice.h   **** 
 113:src/voice.h   **** // ‚îÄ‚îÄ Voice 2: open power-chord bass ‚îÄ‚îÄ‚îÄ‚îÄ‚îÄ‚îÄ‚îÄ‚îÄ‚îÄ‚îÄ‚îÄ‚îÄ‚îÄ‚îÄ‚îÄ‚îÄ‚îÄ‚îÄ‚îÄ‚
 114:src/voice.h   **** //   Same chord stack as VOICE_BASS, but the filter starts brighter and sweeps
 115:src/voice.h   **** //   much further with pressure ‚Äî light touch is still warm, hard press opens it
 116:src/voice.h   **** //   wide. A touch more resonance and drive for presence as it opens.
 117:src/voice.h   **** static constexpr Voice VOICE_BASS_OPEN = {
 118:src/voice.h   ****     "OpenBass",
 119:src/voice.h   ****     40.0f, 180.0f, 1.50408f,   // 40‚Äì180 Hz, ln(4.5) ‚Äî a little more reach up top
 120:src/voice.h   ****     1.0f,        0.45f, WAVE_TRI,   // osc1  ‚Äî root
 121:src/voice.h   ****     RATIO_FIFTH, 0.30f, WAVE_TRI,   // osc2  ‚Äî fixed perfect fifth (the power chord)
 122:src/voice.h   ****     0.5f,        0.30f, WAVE_TRI,   // sub   ‚Äî slightly less so the openness reads
 123:src/voice.h   ****     2.0f,        0.22f, WAVE_TRI,   // oct   ‚Äî top of the power chord
 124:src/voice.h   ****     false,                // osc2 is a fixed fifth, not finger-2 detune
 125:src/voice.h   ****     0.5f, 10.0f, 0.65f,   // brighter base + wider pressure sweep + more resonance
 126:src/voice.h   ****     1.8f,                 // more drive ‚Äî grit comes in as you press
 127:src/voice.h   ****     // noise, keytrack, rm_ratio, rm_max, fold_max, attack, release, glide (ms)
 128:src/voice.h   ****     0.0f, 1.0f, 1.0f, 0.15f, 0.15f, 5.0f, 350.0f, 25.0f
 129:src/voice.h   **** };
 130:src/voice.h   **** 
 131:src/voice.h   **** // ‚îÄ‚îÄ Voice 3: rich power-chord bass with mixed waveforms + huge filter sweep ‚îÄ‚îÄ‚îÄ‚îÄ
 132:src/voice.h   **** //   Mixed shapes for body: saw root (harmonic-rich), square fifth (hollow), a
 133:src/voice.h   **** //   clean sine sub (tight low end), saw octave on top. Starts dark, then
 134:src/voice.h   **** //   pressure opens the cutoff dramatically (13 octaves) with high resonance ‚Äî
 135:src/voice.h   **** //   a vocal, acid-style "wow" as you press harder.
 136:src/voice.h   **** static constexpr Voice VOICE_BASS_RICH = {
 137:src/voice.h   ****     "RichBass",
 138:src/voice.h   ****     40.0f, 160.0f, 1.38629f,   // 40‚Äì160 Hz, ln(4)
 139:src/voice.h   ****     1.0f,        0.40f, WAVE_SAW,    // osc1  ‚Äî saw root (rich harmonics)
ARM GAS  /tmp/claude-502/cc09dAcL.s 			page 39


 140:src/voice.h   ****     RATIO_FIFTH, 0.26f, WAVE_SQUARE, // osc2  ‚Äî square fifth (hollow contrast)
 141:src/voice.h   ****     0.5f,        0.32f, WAVE_SINE,   // sub   ‚Äî clean sine for a tight low end
 142:src/voice.h   ****     2.0f,        0.18f, WAVE_SAW,    // oct   ‚Äî saw top of the power chord
 143:src/voice.h   ****     false,                // osc2 is a fixed fifth, not finger-2 detune
 144:src/voice.h   ****     0.2f, 13.0f, 0.82f,   // dark base + enormous pressure sweep + high resonance
 145:src/voice.h   ****     2.2f,                 // generous drive ‚Äî grit blooms with pressure
 146:src/voice.h   ****     // noise, keytrack, rm_ratio, rm_max, fold_max, attack, release, glide (ms)
 147:src/voice.h   ****     0.0f, 1.0f, 1.0f, 0.20f, 0.20f, 3.0f, 250.0f, 18.0f   // snappy + fast acid glide
 148:src/voice.h   **** };
 149:src/voice.h   **** 
 150:src/voice.h   **** // ‚îÄ‚îÄ Voice 4: clean sine organ / flute (a melodic, non-bass departure) ‚îÄ‚îÄ‚îÄ‚îÄ‚îÄ‚îÄ‚îÄ‚î
 151:src/voice.h   **** //   Pure sine oscillators stacked like organ drawbars: octave-down body, root,
 152:src/voice.h   **** //   octave-up air, plus a second osc tuned a hair sharp (1.005√ó) for a slow,
 153:src/voice.h   **** //   warm chorus shimmer instead of a chord. Higher register than the basses, a
 154:src/voice.h   **** //   mostly-open clean filter, and just a touch of drive so pressure adds gentle
 155:src/voice.h   **** //   harmonic warmth. Sines never alias, so it stays smooth all the way up.
 156:src/voice.h   **** static constexpr Voice VOICE_ORGAN = {
 157:src/voice.h   ****     "Organ",
 158:src/voice.h   ****     65.0f, 520.0f, 2.07944f,   // 65‚Äì520 Hz, ln(8) ‚Äî a melodic keyboard register
 159:src/voice.h   ****     1.0f,    0.45f, WAVE_SINE,  // osc1  ‚Äî root (8')
 160:src/voice.h   ****     1.005f,  0.40f, WAVE_SINE,  // osc2  ‚Äî slightly sharp unison ‚Üí slow chorus shimmer
 161:src/voice.h   ****     0.5f,    0.30f, WAVE_SINE,  // sub   ‚Äî octave-down body (16')
 162:src/voice.h   ****     2.0f,    0.28f, WAVE_SINE,  // oct   ‚Äî octave-up air (4')
 163:src/voice.h   ****     false,                      // osc2 is a fixed chorus detune, not finger-2 detune
 164:src/voice.h   ****     2.0f, 5.0f, 0.20f,          // mostly-open clean filter, gentle pressure lift, low res
 165:src/voice.h   ****     0.8f,                       // light drive ‚Äî pressure adds subtle warmth, stays pure
 166:src/voice.h   ****     // noise, keytrack, rm_ratio, rm_max, fold_max, attack, release, glide (ms)
 167:src/voice.h   ****     0.03f, 1.0f, 1.0f, 0.05f, 0.0f, 8.0f, 120.0f, 8.0f,  // breath chiff, fast on/off, no glide
 168:src/voice.h   ****     // pitch_env_oct, pitch_env_ms, noise_hp, no_cycle, vel_sens, retrig_ms (defaults)
 169:src/voice.h   ****     0.0f, 0.0f, 0.0f, false, 0.0f, 0.0f,
 170:src/voice.h   ****     true         // quantize ‚Äî snap to chromatic notes on touch-down (organ/keyboard feel)
 171:src/voice.h   **** };
 172:src/voice.h   **** 
 173:src/voice.h   **** // ‚îÄ‚îÄ Voice 5: screaming aggressive lead ‚îÄ‚îÄ‚îÄ‚îÄ‚îÄ‚îÄ‚îÄ‚îÄ‚îÄ‚îÄ‚îÄ‚îÄ‚îÄ‚îÄ‚îÄ‚îÄ‚îÄ‚îÄ
 174:src/voice.h   **** //   Detuned sawtooth stack (root + a hair-sharp twin + octave) for a thick,
 175:src/voice.h   **** //   buzzing supersaw bite, pushed up into a cutting register. Heavy drive and a
 176:src/voice.h   **** //   very high filter resonance make the cutoff whistle and scream as pressure
 177:src/voice.h   **** //   sweeps it wide open. Finger-2 pressure piles on ring-mod + wavefold for
 178:src/voice.h   **** //   extra snarl. Loud and nasty ‚Äî the output soft-clip keeps it from blowing up.
 179:src/voice.h   **** static constexpr Voice VOICE_SCREAM = {
 180:src/voice.h   ****     "Scream",
 181:src/voice.h   ****     90.0f, 720.0f, 2.07944f,   // 90‚Äì720 Hz, ln(8) ‚Äî high, cutting register
 182:src/voice.h   ****     1.0f,    0.42f, WAVE_SAW,   // osc1  ‚Äî saw root
 183:src/voice.h   ****     1.008f,  0.38f, WAVE_SAW,   // osc2  ‚Äî slightly sharp twin ‚Üí thick beating buzz
 184:src/voice.h   ****     0.5f,    0.20f, WAVE_SAW,   // sub   ‚Äî a little weight underneath
 185:src/voice.h   ****     2.0f,    0.30f, WAVE_SAW,   // oct   ‚Äî octave up for bright, cutting scream
 186:src/voice.h   ****     false,                      // osc2 is a fixed detune, not finger-2 controlled
 187:src/voice.h   ****     3.0f, 11.0f, 0.90f,         // bright base + wide sweep + near-self-osc resonance
 188:src/voice.h   ****     4.0f,                       // heavy drive ‚Äî saturated and aggressive
 189:src/voice.h   ****     // noise, keytrack, rm_ratio, rm_max, fold_max, attack, release, glide (ms)
 190:src/voice.h   ****     0.05f, 1.0f, 2.5f, 0.40f, 0.30f, 2.0f, 200.0f, 35.0f // hiss + inharmonic metallic ring-mod
 191:src/voice.h   **** };
 192:src/voice.h   **** 
 193:src/voice.h   **** // ‚îÄ‚îÄ Voice 6: very closed, dark sub bass ‚îÄ‚îÄ‚îÄ‚îÄ‚îÄ‚îÄ‚îÄ‚îÄ‚îÄ‚îÄ‚îÄ‚îÄ‚îÄ‚îÄ‚îÄ‚îÄ‚îÄ‚î
 194:src/voice.h   **** //   The opposite of the scream: a deep, muffled power-chord bass. A clean sine
 195:src/voice.h   **** //   sub carries the weight under a mellow triangle root; the fifth and octave
 196:src/voice.h   **** //   are dialed right back. The filter sits down around the fundamental and only
ARM GAS  /tmp/claude-502/cc09dAcL.s 			page 40


 197:src/voice.h   **** //   creeps open a couple of octaves at full pressure, so it stays dark and
 198:src/voice.h   **** //   muted ‚Äî felt more than heard. Low resonance, almost no drive.
 199:src/voice.h   **** static constexpr Voice VOICE_BASS_CLOSED = {
 200:src/voice.h   ****     "ClosedBass",
 201:src/voice.h   ****     35.0f, 140.0f, 1.38629f,   // 35‚Äì140 Hz, ln(4) ‚Äî deep
 202:src/voice.h   ****     1.0f,        0.42f, WAVE_TRI,    // osc1  ‚Äî mellow triangle root
 203:src/voice.h   ****     RATIO_FIFTH, 0.18f, WAVE_TRI,    // osc2  ‚Äî fifth, dialed back
 204:src/voice.h   ****     0.5f,        0.44f, WAVE_SINE,   // sub   ‚Äî clean sine carries the weight
 205:src/voice.h   ****     2.0f,        0.10f, WAVE_TRI,    // oct   ‚Äî barely there, keep it dark
 206:src/voice.h   ****     false,                      // osc2 is a fixed fifth, not finger-2 detune
 207:src/voice.h   ****     1.0f, 2.0f, 0.30f,          // cutoff sits near the fundamental, tiny sweep, low res
 208:src/voice.h   ****     0.5f,                       // minimal drive ‚Äî stays clean and round
 209:src/voice.h   ****     // noise, keytrack, rm_ratio, rm_max, fold_max, attack, release, glide (ms)
 210:src/voice.h   ****     0.0f, 0.6f, 1.0f, 0.0f, 0.0f, 10.0f, 500.0f, 30.0f   // soft, long tail, less keytrack, clean
 211:src/voice.h   **** };
 212:src/voice.h   **** 
 213:src/voice.h   **** // ‚îÄ‚îÄ Voice 7: warm ensemble pad ‚îÄ‚îÄ‚îÄ‚îÄ‚îÄ‚îÄ‚îÄ‚îÄ‚îÄ‚îÄ‚îÄ‚îÄ‚îÄ‚îÄ‚îÄ‚îÄ‚îÄ‚îÄ‚îÄ‚îÄ‚î
 214:src/voice.h   **** //   A lush, evolving pad. Two saws a hair apart (1.006√ó) give an ensemble/chorus
 215:src/voice.h   **** //   width, a soft triangle sub adds body, an airy sine octave sits on top. A
 216:src/voice.h   **** //   moderate, low-resonance filter keeps it warm rather than bright. The pad
 217:src/voice.h   **** //   character comes from the envelope: a slow ~500 ms swell in and a long ~2 s
 218:src/voice.h   **** //   tail, so notes bloom and linger. A whisper of noise adds air.
 219:src/voice.h   **** static constexpr Voice VOICE_PAD = {
 220:src/voice.h   ****     "Pad",
 221:src/voice.h   ****     70.0f, 560.0f, 2.07944f,   // 70‚Äì560 Hz, ln(8) ‚Äî mid melodic register
 222:src/voice.h   ****     1.0f,    0.32f, WAVE_SAW,   // osc1  ‚Äî saw root
 223:src/voice.h   ****     1.006f,  0.30f, WAVE_SAW,   // osc2  ‚Äî detuned saw ‚Üí lush ensemble width
 224:src/voice.h   ****     0.5f,    0.22f, WAVE_TRI,   // sub   ‚Äî soft triangle body
 225:src/voice.h   ****     2.0f,    0.18f, WAVE_SINE,  // oct   ‚Äî airy sine top
 226:src/voice.h   ****     false,                      // osc2 is a fixed chorus detune, not finger-2
 227:src/voice.h   ****     1.2f, 3.0f, 0.20f,          // warm & closed: low base cutoff, gentle sweep, low res
 228:src/voice.h   ****     0.6f,                       // gentle drive ‚Äî stays smooth
 229:src/voice.h   ****     // noise, keytrack, rm_ratio, rm_max, fold_max, attack, release, glide (ms)
 230:src/voice.h   ****     0.015f, 1.0f, 1.0f, 0.0f, 0.08f, 2200.0f, 2000.0f, 80.0f   // long swell, long tail
 231:src/voice.h   **** };
 232:src/voice.h   **** 
 233:src/voice.h   **** // ‚îÄ‚îÄ Voice 8: tom / percussion (noise-driven) ‚îÄ‚îÄ‚îÄ‚îÄ‚îÄ‚îÄ‚îÄ‚îÄ‚îÄ‚îÄ‚îÄ‚îÄ‚îÄ‚îÄ‚îÄ‚îÄ
 234:src/voice.h   **** //   A drum, not a sustained note ‚Äî PLAY IT BY TAPPING the glass. Noise over two
 235:src/voice.h   **** //   low sine modes (body + an inharmonic 1.6√ó ring) and a little sub thump. An
 236:src/voice.h   **** //   instant attack and a short ~150 ms release make each tap a percussive hit.
 237:src/voice.h   **** //   A closed, dark filter keeps it round and muffled (tom, not bright snare);
 238:src/voice.h   **** //   harder presses open it a touch. Finger-1 position tunes the drum.
 239:src/voice.h   **** static constexpr Voice VOICE_TOM = {
 240:src/voice.h   ****     "Tom",
 241:src/voice.h   ****     40.0f, 400.0f, 2.30259f,    // 40‚Äì400 Hz, ln(10) ‚Äî finger-1 tunes from kick/tom up
 242:src/voice.h   ****     1.0f,    0.22f, WAVE_SINE,   // osc1  ‚Äî body (lower mode)
 243:src/voice.h   ****     1.6f,    0.15f, WAVE_SINE,   // osc2  ‚Äî upper mode (inharmonic ring)
 244:src/voice.h   ****     0.5f,    0.10f, WAVE_SINE,   // sub   ‚Äî a little thump
 245:src/voice.h   ****     2.0f,    0.0f,  WAVE_SINE,   // oct   ‚Äî off
 246:src/voice.h   ****     false,                       // osc2 is a fixed ratio, not finger-2 detune
 247:src/voice.h   ****     3.0f, 3.0f, 0.30f,           // tom ‚Äî low 1-pole cutoff for a dark, round body
 248:src/voice.h   ****     1.5f,                        // drive ‚Äî snap and saturation on hard hits
 249:src/voice.h   ****     // noise, keytrack, rm_ratio, rm_max, fold_max, attack, release, glide (ms)
 250:src/voice.h   ****     0.70f, 0.3f, 1.0f, 0.0f, 0.10f, 1.0f, 150.0f, 5.0f,  // noise-dominant, instant hit, short tail
 251:src/voice.h   ****     // pitch_env_oct, pitch_env_ms ‚Äî tom "boww": start 1 oct up, drop in 80 ms
 252:src/voice.h   ****     1.0f, 80.0f,
 253:src/voice.h   ****     0.0f,        // noise_hp
ARM GAS  /tmp/claude-502/cc09dAcL.s 			page 41


 254:src/voice.h   ****     true,        // no_cycle ‚Äî reached via the Drums MultiVoice, not the gesture
 255:src/voice.h   ****     0.85f,       // vel_sens ‚Äî dynamic taps
 256:src/voice.h   ****     400.0f       // retrig_ms ‚Äî dedupe strike + cap repeat rate
 257:src/voice.h   **** };
 258:src/voice.h   **** 
 259:src/voice.h   **** // ‚îÄ‚îÄ Voice 9: kick drum (noise-driven) ‚îÄ‚îÄ‚îÄ‚îÄ‚îÄ‚îÄ‚îÄ‚îÄ‚îÄ‚îÄ‚îÄ‚îÄ‚îÄ‚îÄ‚îÄ‚îÄ‚îÄ‚îÄ‚
 260:src/voice.h   **** //   A deep, punchy thud ‚Äî PLAY IT BY TAPPING. A low sine body with a sub-octave
 261:src/voice.h   **** //   for weight and a quiet octave "click" for beater attack; a whisper of noise
 262:src/voice.h   **** //   adds beater texture. Very closed dark filter + a little drive keep it round
 263:src/voice.h   **** //   and punchy. Instant attack, short tail. Finger-1 position tunes the kick.
 264:src/voice.h   **** //   A pitch envelope (start 2 oct up, drop in 45 ms) gives the classic "boom".
 265:src/voice.h   **** static constexpr Voice VOICE_KICK = {
 266:src/voice.h   ****     "Kick",
 267:src/voice.h   ****     30.0f, 80.0f, 0.98083f,     // 30‚Äì80 Hz, ln(2.67) ‚Äî deep, position tunes the kick
 268:src/voice.h   ****     1.0f,    0.55f, WAVE_SINE,   // osc1  ‚Äî deep sine body
 269:src/voice.h   ****     2.0f,    0.10f, WAVE_SINE,   // osc2  ‚Äî octave "click" for attack punch
 270:src/voice.h   ****     0.5f,    0.15f, WAVE_SINE,   // sub   ‚Äî sub-octave rumble
 271:src/voice.h   ****     2.0f,    0.0f,  WAVE_SINE,   // oct   ‚Äî off
 272:src/voice.h   ****     false,                       // osc2 is a fixed ratio, not finger-2 detune
 273:src/voice.h   ****     3.0f, 2.0f, 0.20f,           // very closed/dark ‚Äî round; tiny pressure sweep
 274:src/voice.h   ****     1.8f,                        // drive ‚Äî punch and saturation
 275:src/voice.h   ****     // noise, keytrack, rm_ratio, rm_max, fold_max, attack, release, glide (ms)
 276:src/voice.h   ****     0.08f, 0.5f, 1.0f, 0.0f, 0.0f, 1.0f, 160.0f, 5.0f,  // soft beater click, instant, short
 277:src/voice.h   ****     // pitch_env_oct, pitch_env_ms ‚Äî the kick "boom": start 2 oct up, drop in 45 ms
 278:src/voice.h   ****     2.0f, 45.0f,
 279:src/voice.h   ****     0.0f,        // noise_hp
 280:src/voice.h   ****     true,        // no_cycle ‚Äî reached via the Drums MultiVoice
 281:src/voice.h   ****     0.85f,       // vel_sens ‚Äî dynamic taps
 282:src/voice.h   ****     400.0f        // retrig_ms ‚Äî dedupe strike + cap repeat rate
 283:src/voice.h   **** };
 284:src/voice.h   **** 
 285:src/voice.h   **** // ‚îÄ‚îÄ Voice 10: snare (noise-driven) ‚îÄ‚îÄ‚îÄ‚îÄ‚îÄ‚îÄ‚îÄ‚îÄ‚îÄ‚îÄ‚îÄ‚îÄ‚îÄ‚îÄ‚îÄ‚îÄ‚îÄ‚îÄ‚îÄ‚
 286:src/voice.h   **** //   The bright, noisy cousin of the Tom ‚Äî PLAY IT BY TAPPING. Broadband noise
 287:src/voice.h   **** //   (the "wires" rattle) dominates over two tonal modes (body + a 1.8√ó ring); a
 288:src/voice.h   **** //   wide-open filter keeps it crisp and cracking. Instant attack, short tail,
 289:src/voice.h   **** //   and a quick subtle pitch snap (0.7 oct in 30 ms) for the hit. Harder presses
 290:src/voice.h   **** //   open it further. Finger-1 position tunes the drum.
 291:src/voice.h   **** static constexpr Voice VOICE_SNARE = {
 292:src/voice.h   ****     "Snare",
 293:src/voice.h   ****     150.0f, 500.0f, 1.20397f,   // 150‚Äì500 Hz, ln(3.33) ‚Äî snare tuning range
 294:src/voice.h   ****     1.0f,    0.15f, WAVE_SINE,   // osc1  ‚Äî body (lower mode)
 295:src/voice.h   ****     1.8f,    0.12f, WAVE_TRI,    // osc2  ‚Äî upper mode/ring (triangle = more harmonics)
 296:src/voice.h   ****     0.5f,    0.05f, WAVE_SINE,   // sub   ‚Äî slight body weight
 297:src/voice.h   ****     2.0f,    0.0f,  WAVE_SINE,   // oct   ‚Äî off
 298:src/voice.h   ****     false,                       // osc2 is a fixed ratio, not finger-2 detune
 299:src/voice.h   ****     18.0f, 4.0f, 0.30f,          // wide open & bright ‚Äî the noise rattle cracks through
 300:src/voice.h   ****     1.5f,                        // drive ‚Äî snap
 301:src/voice.h   ****     // noise, keytrack, rm_ratio, rm_max, fold_max, attack, release, glide (ms)
 302:src/voice.h   ****     0.72f, 0.3f, 1.0f, 0.0f, 0.10f, 1.0f, 140.0f, 5.0f,  // noise-dominant rattle (trimmed ~15%)
 303:src/voice.h   ****     // pitch_env_oct, pitch_env_ms ‚Äî quick subtle snap
 304:src/voice.h   ****     0.7f, 30.0f,
 305:src/voice.h   ****     0.0f,        // noise_hp
 306:src/voice.h   ****     true,        // no_cycle ‚Äî reached via the Drums MultiVoice
 307:src/voice.h   ****     0.85f,       // vel_sens ‚Äî dynamic taps
 308:src/voice.h   ****     400.0f       // retrig_ms ‚Äî dedupe strike + cap repeat rate
 309:src/voice.h   **** };
 310:src/voice.h   **** 
ARM GAS  /tmp/claude-502/cc09dAcL.s 			page 42


 311:src/voice.h   **** // ‚îÄ‚îÄ Voice 11: hi-hat (noise-driven) ‚îÄ‚îÄ‚îÄ‚îÄ‚îÄ‚îÄ‚îÄ‚îÄ‚îÄ‚îÄ‚îÄ‚îÄ‚îÄ‚îÄ‚îÄ‚îÄ‚îÄ‚îÄ‚îÄ
 312:src/voice.h   **** //   A crisp "tss" ‚Äî PLAY IT BY TAPPING. Almost pure high-frequency noise through
 313:src/voice.h   **** //   a wide-open filter, with three inharmonic square partials for metallic edge
 314:src/voice.h   **** //   and no low end. Instant attack and a very short ~55 ms tail = a tight closed
 315:src/voice.h   **** //   hat. Finger-1 position tunes the metallic pitch. (Raise release_ms for an
 316:src/voice.h   **** //   open-hat feel.)
 317:src/voice.h   **** static constexpr Voice VOICE_HIHAT = {
 318:src/voice.h   ****     "HiHat",
 319:src/voice.h   ****     4000.0f, 11000.0f, 1.01160f, // 4000‚Äì11000 Hz, ln(2.75) ‚Äî metallic edge pitch
 320:src/voice.h   ****     1.0f,    0.10f, WAVE_SQUARE,  // osc1  ‚Äî quiet metallic edge (the tss noise leads)
 321:src/voice.h   ****     1.68f,   0.08f, WAVE_SQUARE,  // osc2  ‚Äî inharmonic metallic partial
 322:src/voice.h   ****     0.5f,    0.0f,  WAVE_SINE,    // sub   ‚Äî off (no low end on a hat)
 323:src/voice.h   ****     2.0f,    0.06f, WAVE_SQUARE,  // oct   ‚Äî high partial (2.0√ó keeps it under Nyquist)
 324:src/voice.h   ****     false,                        // osc2 is a fixed ratio, not finger-2 detune
 325:src/voice.h   ****     25.0f, 2.0f, 0.20f,           // wide open
 326:src/voice.h   ****     1.2f,                         // light drive
 327:src/voice.h   ****     // noise, keytrack, rm_ratio, rm_max, fold_max, attack, release, glide (ms)
 328:src/voice.h   ****     0.80f, 0.2f, 1.0f, 0.0f, 0.05f, 1.0f, 160.0f, 3.0f, // noise-led, instant, sizzly tail
 329:src/voice.h   ****     // pitch_env_oct, pitch_env_ms, noise_hp ‚Äî high-passed bright "tsss"
 330:src/voice.h   ****     0.0f, 0.0f, 1.0f,
 331:src/voice.h   ****     true,        // no_cycle ‚Äî reached via the Drums MultiVoice
 332:src/voice.h   ****     0.85f,       // vel_sens ‚Äî dynamic taps
 333:src/voice.h   ****     400.0f        // retrig_ms ‚Äî dedupe strike + cap repeat rate
 334:src/voice.h   **** };
 335:src/voice.h   **** 
 336:src/voice.h   **** // ‚îÄ‚îÄ Voice 12: MultiVoice "Drums" ‚îÄ‚îÄ‚îÄ‚îÄ‚îÄ‚îÄ‚îÄ‚îÄ‚îÄ‚îÄ‚îÄ‚îÄ‚îÄ‚îÄ‚îÄ‚îÄ‚îÄ‚îÄ‚îÄ‚îÄ
 337:src/voice.h   **** //   A meta-voice: when selected, the slider splits into 4 equal zones, each
 338:src/voice.h   **** //   triggering one drum on tap, with the fine position snapping the pitch to an
 339:src/voice.h   **** //   interval (see MULTI_* below). This struct is just a placeholder so it lives
 340:src/voice.h   **** //   in the bank / FSR cycle and shows "Drums" in the header ‚Äî the actual audio
 341:src/voice.h   **** //   per tap comes from the zone's real drum voice (g_active_voice). Kick-like so
 342:src/voice.h   **** //   it's harmless if briefly active before the first tap.
 343:src/voice.h   **** static constexpr Voice VOICE_DRUMS = {
 344:src/voice.h   ****     "Drums",
 345:src/voice.h   ****     30.0f, 80.0f, 0.98083f,
 346:src/voice.h   ****     1.0f, 0.55f, WAVE_SINE,  1.0f, 0.0f, WAVE_SINE,
 347:src/voice.h   ****     0.5f, 0.0f,  WAVE_SINE,  2.0f, 0.0f, WAVE_SINE,
 348:src/voice.h   ****     false,
 349:src/voice.h   ****     3.0f, 2.0f, 0.20f,
 350:src/voice.h   ****     1.0f,
 351:src/voice.h   ****     0.0f, 0.5f, 1.0f, 0.0f, 0.0f, 1.0f, 160.0f, 5.0f,
 352:src/voice.h   ****     0.0f, 0.0f, 0.0f
 353:src/voice.h   **** };
 354:src/voice.h   **** 
 355:src/voice.h   **** // ‚îÄ‚îÄ Voice bank ‚îÄ‚îÄ‚îÄ‚îÄ‚îÄ‚îÄ‚îÄ‚îÄ‚îÄ‚îÄ‚îÄ‚îÄ‚îÄ‚îÄ‚îÄ‚îÄ‚îÄ‚îÄ‚îÄ‚îÄ‚îÄ‚îÄ‚îÄ‚îÄ‚îÄ‚îÄ
 356:src/voice.h   **** // All voices, in cycle order. Holding the FSR pressed steps through these live
 357:src/voice.h   **** // (see the voice-switch gesture in the main loop). Edit the order here to taste.
 358:src/voice.h   **** static constexpr Voice VOICES[] = {
 359:src/voice.h   ****     VOICE_LEAD,
 360:src/voice.h   ****     VOICE_BASS,
 361:src/voice.h   ****     VOICE_BASS_OPEN,
 362:src/voice.h   ****     VOICE_BASS_RICH,
 363:src/voice.h   ****     VOICE_ORGAN,
 364:src/voice.h   ****     VOICE_SCREAM,
 365:src/voice.h   ****     VOICE_BASS_CLOSED,
 366:src/voice.h   ****     VOICE_PAD,
 367:src/voice.h   ****     VOICE_TOM,
ARM GAS  /tmp/claude-502/cc09dAcL.s 			page 43


 368:src/voice.h   ****     VOICE_KICK,
 369:src/voice.h   ****     VOICE_SNARE,
 370:src/voice.h   ****     VOICE_HIHAT,
 371:src/voice.h   ****     VOICE_DRUMS,   // MultiVoice ‚Äî must stay last (MULTI_IDX = NUM_VOICES-1)
 372:src/voice.h   **** };
 373:src/voice.h   **** static constexpr int NUM_VOICES = (int)(sizeof(VOICES) / sizeof(VOICES[0]));
 374:src/voice.h   **** 
 375:src/voice.h   **** // ‚îÄ‚îÄ MultiVoice "Drums" config ‚îÄ‚îÄ‚îÄ‚îÄ‚îÄ‚îÄ‚îÄ‚îÄ‚îÄ‚îÄ‚îÄ‚îÄ‚îÄ‚îÄ‚îÄ‚îÄ‚îÄ‚îÄ‚îÄ‚îÄ‚îÄ
 376:src/voice.h   **** // MULTI_IDX is the bank slot of VOICE_DRUMS (kept last). When that voice is
 377:src/voice.h   **** // selected, the slider splits into 4 equal zones mapped to these drum voices
 378:src/voice.h   **** // (left‚Üíright), and the fine position within a zone snaps the pitch to one of
 379:src/voice.h   **** // MULTI_INTERVALS above the drum's base pitch (freq_low).
 380:src/voice.h   **** static constexpr int   MULTI_IDX        = NUM_VOICES - 1;
 381:src/voice.h   **** static constexpr int   MULTI_ZONES[4]   = { 9, 10, 8, 11 };  // Kick, Snare, Tom, HiHat (bank indic
 382:src/voice.h   **** static constexpr float MULTI_INTERVALS[] = { 1.0f, 1.33484f, 1.49831f, 2.0f }; // root, 4th, 5th, o
 383:src/voice.h   **** static constexpr int   MULTI_NINTERVALS = (int)(sizeof(MULTI_INTERVALS) / sizeof(MULTI_INTERVALS[0]
 384:src/voice.h   **** 
 385:src/voice.h   **** // Drums: when true, every tap is treated as full (100%) pressure ‚Äî consistent
 386:src/voice.h   **** // hits regardless of how hard the glass reads. Set false for velocity dynamics
 387:src/voice.h   **** // (uses the drum's vel_sens). Drums only.
 388:src/voice.h   **** static constexpr bool  FIX_DRUM = true;
 389:src/voice.h   **** 
 390:src/voice.h   **** // ‚îÄ‚îÄ Voice cycling ‚îÄ‚îÄ‚îÄ‚îÄ‚îÄ‚îÄ‚îÄ‚îÄ‚îÄ‚îÄ‚îÄ‚îÄ‚îÄ‚îÄ‚îÄ‚îÄ‚îÄ‚îÄ‚îÄ‚îÄ‚îÄ‚îÄ‚îÄ‚îÄ‚îÄ
 391:src/voice.h   **** // Voices with no_cycle = true are skipped by the FSR-hold gesture. These helpers
 392:src/voice.h   **** // give the count of cyclable voices and the 1-based position of an index among
 393:src/voice.h   **** // them (used for the LED flash count and the serial display).
 394:src/voice.h   **** static int cycle_total(){
 395:src/voice.h   ****     int n = 0;
 396:src/voice.h   ****     for(int i = 0; i < NUM_VOICES; i++) if(!VOICES[i].no_cycle) n++;
 397:src/voice.h   ****     return n;
 398:src/voice.h   **** }
 399:src/voice.h   **** static int cycle_pos(int idx){
 993              		.loc 8 399 12 is_stmt 1 view .LVU301
 994              	.LBB546:
 995              	.LBB547:
 400:src/voice.h   ****     int p = 0;
 401:src/voice.h   ****     for(int i = 0; i <= idx && i < NUM_VOICES; i++) if(!VOICES[i].no_cycle) p++;
 996              		.loc 8 401 29 view .LVU302
 997 01be 0C2B     		cmp	r3, #12
 998 01c0 1D46     		mov	r5, r3
 999 01c2 A8BF     		it	ge
 1000 01c4 0C25     		movge	r5, #12
 1001 01c6 002B     		cmp	r3, #0
 1002 01c8 C1F22884 		blt	.L249
 1003              		.loc 8 401 13 is_stmt 0 view .LVU303
 1004 01cc 0023     		movs	r3, #0
 1005              	.LVL80:
 1006              		.loc 8 401 13 view .LVU304
 1007 01ce 059A     		ldr	r2, [sp, #20]
 1008              	.LBE547:
 400:src/voice.h   ****     int p = 0;
 1009              		.loc 8 400 9 view .LVU305
 1010 01d0 1946     		mov	r1, r3
 1011              	.LVL81:
 1012              	.L55:
 1013              	.LBB548:
 1014              		.loc 8 401 53 is_stmt 1 view .LVU306
ARM GAS  /tmp/claude-502/cc09dAcL.s 			page 44


 1015              		.loc 8 401 77 view .LVU307
 1016              		.loc 8 401 53 is_stmt 0 view .LVU308
 1017 01d2 92F87C00 		ldrb	r0, [r2, #124]	@ zero_extendqisi2
 1018              		.loc 8 401 5 view .LVU309
 1019 01d6 0133     		adds	r3, r3, #1
 1020              	.LVL82:
 1021              		.loc 8 401 29 view .LVU310
 1022 01d8 8C32     		adds	r2, r2, #140
 1023              		.loc 8 401 53 view .LVU311
 1024 01da 00B9     		cbnz	r0, .L54
 1025              		.loc 8 401 78 view .LVU312
 1026 01dc 0131     		adds	r1, r1, #1
 1027              	.LVL83:
 1028              	.L54:
 1029              		.loc 8 401 5 is_stmt 1 view .LVU313
 1030              		.loc 8 401 29 view .LVU314
 1031 01de AB42     		cmp	r3, r5
 1032 01e0 F7DD     		ble	.L55
 1033              	.LVL84:
 1034              	.L53:
 1035              		.loc 8 401 29 is_stmt 0 view .LVU315
 1036              	.LBE548:
 400:src/voice.h   ****     int p = 0;
 1037              		.loc 8 400 9 view .LVU316
 1038 01e2 604B     		ldr	r3, .L459+12
 1039              	.LBE546:
 1040              	.LBE545:
 1041              	.LBB551:
 1042              	.LBB552:
 395:src/voice.h   ****     for(int i = 0; i < NUM_VOICES; i++) if(!VOICES[i].no_cycle) n++;
 1043              		.loc 8 395 9 view .LVU317
 1044 01e4 0022     		movs	r2, #0
 1045              	.LBE552:
 1046              	.LBE551:
 1047              	.LBB555:
 1048              	.LBB549:
 400:src/voice.h   ****     int p = 0;
 1049              		.loc 8 400 9 view .LVU318
 1050 01e6 0593     		str	r3, [sp, #20]
 1051              	.L57:
 1052              	.LVL85:
 400:src/voice.h   ****     int p = 0;
 1053              		.loc 8 400 9 view .LVU319
 1054              	.LBE549:
 1055              	.LBE555:
 1056              	.LBB556:
 1057              	.LBB554:
 1058              	.LBB553:
 396:src/voice.h   ****     return n;
 1059              		.loc 8 396 41 is_stmt 1 view .LVU320
 396:src/voice.h   ****     return n;
 1060              		.loc 8 396 65 view .LVU321
 396:src/voice.h   ****     return n;
 1061              		.loc 8 396 41 is_stmt 0 view .LVU322
 1062 01e8 93F87C00 		ldrb	r0, [r3, #124]	@ zero_extendqisi2
 396:src/voice.h   ****     return n;
 1063              		.loc 8 396 22 view .LVU323
ARM GAS  /tmp/claude-502/cc09dAcL.s 			page 45


 1064 01ec 8C33     		adds	r3, r3, #140
 396:src/voice.h   ****     return n;
 1065              		.loc 8 396 41 view .LVU324
 1066 01ee 00B9     		cbnz	r0, .L56
 396:src/voice.h   ****     return n;
 1067              		.loc 8 396 66 view .LVU325
 1068 01f0 0132     		adds	r2, r2, #1
 1069              	.LVL86:
 1070              	.L56:
 396:src/voice.h   ****     return n;
 1071              		.loc 8 396 5 is_stmt 1 view .LVU326
 396:src/voice.h   ****     return n;
 1072              		.loc 8 396 22 view .LVU327
 1073 01f2 6648     		ldr	r0, .L459+52
 1074 01f4 9842     		cmp	r0, r3
 1075 01f6 F7D1     		bne	.L57
 396:src/voice.h   ****     return n;
 1076              		.loc 8 396 22 is_stmt 0 view .LVU328
 1077              	.LBE553:
 397:src/voice.h   **** }
 1078              		.loc 8 397 5 is_stmt 1 view .LVU329
 1079              	.LVL87:
 397:src/voice.h   **** }
 1080              		.loc 8 397 5 is_stmt 0 view .LVU330
 1081              	.LBE554:
 1082              	.LBE556:
 1083              	.LBB557:
 1084              	.LBI557:
 126:/Users/reza.kalfane/Workspaces/Daisy/DaisyExamples/libDaisy/src/daisy_seed.h ****     {
 1085              		.loc 1 126 17 is_stmt 1 view .LVU331
 1086              	.LBE557:
 277:src/main.cpp  ****                  cycle_pos(g_voice_idx), cycle_total(),
 278:src/main.cpp  ****                  VOICE.name, (int)VOICE.freq_low, (int)VOICE.freq_high);
 1087              		.loc 6 278 24 is_stmt 0 view .LVU332
 1088 01f8 8C23     		movs	r3, #140
 1089 01fa 0598     		ldr	r0, [sp, #20]
 276:src/main.cpp  ****                  cycle_pos(g_voice_idx), cycle_total(),
 1090              		.loc 6 276 17 view .LVU333
 1091 01fc BDEEC88A 		vcvt.s32.f32	s16, s16
 1092              	.LVL88:
 1093              		.loc 6 278 24 view .LVU334
 1094 0200 04FB03F3 		mul	r3, r4, r3
 1095              	.LVL89:
 1096              		.loc 6 278 24 view .LVU335
 1097 0204 C418     		adds	r4, r0, r3
 1098              	.LVL90:
 1099              	.LBB561:
 1100              	.LBB558:
 128:/Users/reza.kalfane/Workspaces/Daisy/DaisyExamples/libDaisy/src/daisy_seed.h ****     }
 1101              		.loc 1 128 23 view .LVU336
 1102 0206 8DED008A 		vstr.32	s16, [sp]	@ int
 1103 020a C358     		ldr	r3, [r0, r3]
 1104              	.LBE558:
 1105              	.LBE561:
 276:src/main.cpp  ****                  cycle_pos(g_voice_idx), cycle_total(),
 1106              		.loc 6 276 17 view .LVU337
 1107 020c D4ED027A 		vldr.32	s15, [r4, #8]
ARM GAS  /tmp/claude-502/cc09dAcL.s 			page 46


 1108              	.LBB562:
 1109              	.LBB559:
 128:/Users/reza.kalfane/Workspaces/Daisy/DaisyExamples/libDaisy/src/daisy_seed.h ****     }
 1110              		.loc 1 128 23 view .LVU338
 1111 0210 5F48     		ldr	r0, .L459+56
 1112              	.LBE559:
 1113              	.LBE562:
 276:src/main.cpp  ****                  cycle_pos(g_voice_idx), cycle_total(),
 1114              		.loc 6 276 17 view .LVU339
 1115 0212 FDEEE77A 		vcvt.s32.f32	s15, s15
 1116              	.LBB563:
 1117              	.LBB560:
 128:/Users/reza.kalfane/Workspaces/Daisy/DaisyExamples/libDaisy/src/daisy_seed.h ****     }
 1118              		.loc 1 128 23 view .LVU340
 1119 0216 CDED017A 		vstr.32	s15, [sp, #4]	@ int
 1120 021a FFF7FEFF 		bl	_ZN5daisy6LoggerILNS_17LoggerDestinationE1EE9PrintLineEPKcz
 1121              	.LVL91:
 128:/Users/reza.kalfane/Workspaces/Daisy/DaisyExamples/libDaisy/src/daisy_seed.h ****     }
 1122              		.loc 1 128 23 view .LVU341
 1123              	.LBE560:
 1124              	.LBE563:
 279:src/main.cpp  ****     hw.PrintLine("F1 pos=pitch  F1 prs=cutoff+vibrato");
 1125              		.loc 6 279 5 is_stmt 1 view .LVU342
 1126              	.LBB564:
 1127              	.LBI564:
 126:/Users/reza.kalfane/Workspaces/Daisy/DaisyExamples/libDaisy/src/daisy_seed.h ****     {
 1128              		.loc 1 126 17 view .LVU343
 1129              	.LBB565:
 128:/Users/reza.kalfane/Workspaces/Daisy/DaisyExamples/libDaisy/src/daisy_seed.h ****     }
 1130              		.loc 1 128 23 is_stmt 0 view .LVU344
 1131 021e 5D48     		ldr	r0, .L459+60
 1132 0220 FFF7FEFF 		bl	_ZN5daisy6LoggerILNS_17LoggerDestinationE1EE9PrintLineEPKcz
 1133              	.LVL92:
 128:/Users/reza.kalfane/Workspaces/Daisy/DaisyExamples/libDaisy/src/daisy_seed.h ****     }
 1134              		.loc 1 128 23 view .LVU345
 1135              	.LBE565:
 1136              	.LBE564:
 280:src/main.cpp  ****     if(VOICE.osc2_detune)
 1137              		.loc 6 280 5 is_stmt 1 view .LVU346
 1138 0224 94F83D30 		ldrb	r3, [r4, #61]	@ zero_extendqisi2
 1139 0228 002B     		cmp	r3, #0
 1140 022a 01F0B383 		beq	.L58
 281:src/main.cpp  ****         hw.PrintLine("F2 pos=detune F2 prs=wavefold+ringmod");
 1141              		.loc 6 281 9 view .LVU347
 1142              	.LVL93:
 1143              	.LBB566:
 1144              	.LBI566:
 126:/Users/reza.kalfane/Workspaces/Daisy/DaisyExamples/libDaisy/src/daisy_seed.h ****     {
 1145              		.loc 1 126 17 view .LVU348
 1146              	.LBB567:
 128:/Users/reza.kalfane/Workspaces/Daisy/DaisyExamples/libDaisy/src/daisy_seed.h ****     }
 1147              		.loc 1 128 23 is_stmt 0 view .LVU349
 1148 022e 5A48     		ldr	r0, .L459+64
 1149 0230 FFF7FEFF 		bl	_ZN5daisy6LoggerILNS_17LoggerDestinationE1EE9PrintLineEPKcz
 1150              	.LVL94:
 1151              	.L59:
 128:/Users/reza.kalfane/Workspaces/Daisy/DaisyExamples/libDaisy/src/daisy_seed.h ****     }
ARM GAS  /tmp/claude-502/cc09dAcL.s 			page 47


 1152              		.loc 1 128 23 view .LVU350
 1153              	.LBE567:
 1154              	.LBE566:
 282:src/main.cpp  ****     else
 283:src/main.cpp  ****         hw.PrintLine("F2 prs=wavefold+ringmod (osc2=fixed)");
 284:src/main.cpp  ****     hw.PrintLine("Hold FSR pressed 3s to change voice (then every 2s)");
 1155              		.loc 6 284 5 is_stmt 1 view .LVU351
 1156              	.LBB568:
 1157              	.LBI568:
 126:/Users/reza.kalfane/Workspaces/Daisy/DaisyExamples/libDaisy/src/daisy_seed.h ****     {
 1158              		.loc 1 126 17 view .LVU352
 1159              	.LBB569:
 128:/Users/reza.kalfane/Workspaces/Daisy/DaisyExamples/libDaisy/src/daisy_seed.h ****     }
 1160              		.loc 1 128 23 is_stmt 0 view .LVU353
 1161 0234 5948     		ldr	r0, .L459+68
 1162 0236 FFF7FEFF 		bl	_ZN5daisy6LoggerILNS_17LoggerDestinationE1EE9PrintLineEPKcz
 1163              	.LVL95:
 128:/Users/reza.kalfane/Workspaces/Daisy/DaisyExamples/libDaisy/src/daisy_seed.h ****     }
 1164              		.loc 1 128 23 view .LVU354
 1165              	.LBE569:
 1166              	.LBE568:
 285:src/main.cpp  ****     hw.PrintLine("MPR121 OK ‚Äî baseline captured");
 1167              		.loc 6 285 5 is_stmt 1 view .LVU355
 1168              	.LBB570:
 1169              	.LBI570:
 126:/Users/reza.kalfane/Workspaces/Daisy/DaisyExamples/libDaisy/src/daisy_seed.h ****     {
 1170              		.loc 1 126 17 view .LVU356
 1171              	.LBB571:
 128:/Users/reza.kalfane/Workspaces/Daisy/DaisyExamples/libDaisy/src/daisy_seed.h ****     }
 1172              		.loc 1 128 23 is_stmt 0 view .LVU357
 1173 023a 5948     		ldr	r0, .L459+72
 1174 023c FFF7FEFF 		bl	_ZN5daisy6LoggerILNS_17LoggerDestinationE1EE9PrintLineEPKcz
 1175              	.LVL96:
 128:/Users/reza.kalfane/Workspaces/Daisy/DaisyExamples/libDaisy/src/daisy_seed.h ****     }
 1176              		.loc 1 128 23 view .LVU358
 1177              	.LBE571:
 1178              	.LBE570:
 286:src/main.cpp  ****     hw.PrintLine("Ready.\n");
 1179              		.loc 6 286 5 is_stmt 1 view .LVU359
 1180              	.LBB572:
 1181              	.LBI572:
 126:/Users/reza.kalfane/Workspaces/Daisy/DaisyExamples/libDaisy/src/daisy_seed.h ****     {
 1182              		.loc 1 126 17 view .LVU360
 1183              	.LBB573:
 128:/Users/reza.kalfane/Workspaces/Daisy/DaisyExamples/libDaisy/src/daisy_seed.h ****     }
 1184              		.loc 1 128 23 is_stmt 0 view .LVU361
 1185 0240 5848     		ldr	r0, .L459+76
 1186 0242 FFF7FEFF 		bl	_ZN5daisy6LoggerILNS_17LoggerDestinationE1EE9PrintLineEPKcz
 1187              	.LVL97:
 128:/Users/reza.kalfane/Workspaces/Daisy/DaisyExamples/libDaisy/src/daisy_seed.h ****     }
 1188              		.loc 1 128 23 view .LVU362
 1189              	.LBE573:
 1190              	.LBE572:
 287:src/main.cpp  **** 
 288:src/main.cpp  ****     uint16_t data[N_CH];
 1191              		.loc 6 288 5 is_stmt 1 view .LVU363
 289:src/main.cpp  ****     int32_t  delta[N_CH];
ARM GAS  /tmp/claude-502/cc09dAcL.s 			page 48


 1192              		.loc 6 289 5 view .LVU364
 290:src/main.cpp  ****     char     bar[32], pos_bar[52];
 1193              		.loc 6 290 5 view .LVU365
 291:src/main.cpp  ****     Finger   raw[MAX_FINGERS];
 1194              		.loc 6 291 5 view .LVU366
 292:src/main.cpp  **** 
 293:src/main.cpp  ****     uint32_t idle_since      = System::GetNow();
 1195              		.loc 6 293 5 view .LVU367
 1196              		.loc 6 293 46 is_stmt 0 view .LVU368
 1197 0246 FFF7FEFF 		bl	_ZN5daisy6System6GetNowEv
 1198              	.LVL98:
 1199 024a 0A90     		str	r0, [sp, #40]
 1200              	.LVL99:
 294:src/main.cpp  ****     uint32_t last_touch_ms   = System::GetNow();
 1201              		.loc 6 294 5 is_stmt 1 view .LVU369
 1202              		.loc 6 294 46 is_stmt 0 view .LVU370
 1203 024c FFF7FEFF 		bl	_ZN5daisy6System6GetNowEv
 1204              	.LVL100:
 1205              		.loc 6 294 46 view .LVU371
 1206 0250 0B90     		str	r0, [sp, #44]
 1207              	.LVL101:
 295:src/main.cpp  ****     bool     f1_was_on       = false;
 1208              		.loc 6 295 5 is_stmt 1 view .LVU372
 296:src/main.cpp  ****     uint32_t f1_last_seen_ms = 0;
 1209              		.loc 6 296 5 view .LVU373
 297:src/main.cpp  ****     static constexpr uint32_t F1_REQUANTIZE_MS = 200; // re-quantize only after this long off
 1210              		.loc 6 297 5 view .LVU374
 298:src/main.cpp  ****     float    f1_midi_base    = 60.0f; // last quantized note
 1211              		.loc 6 298 5 view .LVU375
 299:src/main.cpp  ****     bool     f1_sliding      = false; // true after first touch settles
 1212              		.loc 6 299 5 view .LVU376
 300:src/main.cpp  **** 
 301:src/main.cpp  ****     // Control loop runs as fast as the sensor allows (~150-200 Hz) for tight
 302:src/main.cpp  ****     // timing; the serial display is throttled to a readable rate independently.
 303:src/main.cpp  ****     static constexpr uint32_t PRINT_INTERVAL_MS = 120;  // ~8 display refreshes/sec
 1213              		.loc 6 303 5 view .LVU377
 304:src/main.cpp  ****     static constexpr uint32_t CONTROL_DELAY_MS  = 3;    // small cap so we don't hammer I2C
 1214              		.loc 6 304 5 view .LVU378
 305:src/main.cpp  ****     uint32_t last_print_ms = System::GetNow();
 1215              		.loc 6 305 5 view .LVU379
 1216              		.loc 6 305 44 is_stmt 0 view .LVU380
 1217 0252 FFF7FEFF 		bl	_ZN5daisy6System6GetNowEv
 1218              	.LVL102:
 306:src/main.cpp  **** 
 307:src/main.cpp  ****     // Velocity: capture peak pressure over a short window at each tap onset, then
 308:src/main.cpp  ****     // hold it for the note. Scales loudness by the voice's vel_sens.
 309:src/main.cpp  ****     static constexpr uint32_t VEL_WINDOW_MS = 0;   // latch velocity on the onset frame ‚Äî snappie
 310:src/main.cpp  ****     float    vel         = 1.0f;   // latched hit velocity 0..1
 311:src/main.cpp  ****     float    vel_peak    = 0.0f;   // running peak pressure during the window
 312:src/main.cpp  ****     uint32_t vel_start   = 0;      // window start
 313:src/main.cpp  ****     bool     vel_active  = false;  // capturing
 314:src/main.cpp  **** 
 315:src/main.cpp  ****     // Smoothed LED brightness state (0..1), slewed toward per-frame targets.
 316:src/main.cpp  ****     // LED1 = DAC1 (pos 0 end), LED2 = DAC2 (middle), LED3 = PWM A0 (pos 1000 end).
 317:src/main.cpp  ****     float s_led1 = 0.0f, s_led2 = 0.0f, s_led3 = 0.0f;
 318:src/main.cpp  **** 
 319:src/main.cpp  ****     // FSR voice-switch gesture state.
ARM GAS  /tmp/claude-502/cc09dAcL.s 			page 49


 320:src/main.cpp  ****     uint32_t fsr_hold_start  = 0;   // when the current press began (0 = released)
 321:src/main.cpp  ****     uint32_t fsr_next_switch = 0;   // timestamp of the next allowed switch
 322:src/main.cpp  **** 
 323:src/main.cpp  ****     // Flash all three LEDs `count` times to confirm a voice change (count = voice
 324:src/main.cpp  ****     // number). Blocks the touch loop briefly ‚Äî fine, we're mid-gesture and silent.
 325:src/main.cpp  ****     auto flash_voice_leds = [&](int count){
 326:src/main.cpp  ****         for(int f = 0; f < count; f++){
 327:src/main.cpp  ****             hw.dac.WriteValue(DacHandle::Channel::ONE, (uint16_t)LED1_MAX);
 328:src/main.cpp  ****             hw.dac.WriteValue(DacHandle::Channel::TWO, (uint16_t)LED2_MAX);
 329:src/main.cpp  ****             g_led3_duty = LED3_INTENSITY;
 330:src/main.cpp  ****             System::Delay(110);
 331:src/main.cpp  ****             hw.dac.WriteValue(DacHandle::Channel::ONE, 0);
 332:src/main.cpp  ****             hw.dac.WriteValue(DacHandle::Channel::TWO, 0);
 333:src/main.cpp  ****             g_led3_duty = 0.0f;
 334:src/main.cpp  ****             System::Delay(140);
 335:src/main.cpp  ****         }
 336:src/main.cpp  ****     };
 337:src/main.cpp  **** 
 338:src/main.cpp  ****     // Startup: flash the LEDs to announce the boot/restored voice (its cycle
 339:src/main.cpp  ****     // position) ‚Äî same gesture as a live voice switch.
 340:src/main.cpp  ****     flash_voice_leds(cycle_pos(g_voice_idx));
 1219              		.loc 6 340 21 view .LVU381
 1220 0256 424B     		ldr	r3, .L459+8
 305:src/main.cpp  ****     uint32_t last_print_ms = System::GetNow();
 1221              		.loc 6 305 44 view .LVU382
 1222 0258 0F90     		str	r0, [sp, #60]
 1223              	.LVL103:
 309:src/main.cpp  ****     float    vel         = 1.0f;   // latched hit velocity 0..1
 1224              		.loc 6 309 5 is_stmt 1 view .LVU383
 310:src/main.cpp  ****     float    vel_peak    = 0.0f;   // running peak pressure during the window
 1225              		.loc 6 310 5 view .LVU384
 311:src/main.cpp  ****     uint32_t vel_start   = 0;      // window start
 1226              		.loc 6 311 5 view .LVU385
 312:src/main.cpp  ****     bool     vel_active  = false;  // capturing
 1227              		.loc 6 312 5 view .LVU386
 313:src/main.cpp  **** 
 1228              		.loc 6 313 5 view .LVU387
 317:src/main.cpp  **** 
 1229              		.loc 6 317 5 view .LVU388
 320:src/main.cpp  ****     uint32_t fsr_next_switch = 0;   // timestamp of the next allowed switch
 1230              		.loc 6 320 5 view .LVU389
 321:src/main.cpp  **** 
 1231              		.loc 6 321 5 view .LVU390
 325:src/main.cpp  ****         for(int f = 0; f < count; f++){
 1232              		.loc 6 325 5 view .LVU391
 1233              		.loc 6 340 5 view .LVU392
 1234              		.loc 6 340 21 is_stmt 0 view .LVU393
 1235 025a 1B68     		ldr	r3, [r3]
 1236              	.LVL104:
 1237              	.LBB574:
 1238              	.LBI574:
 399:src/voice.h   ****     int p = 0;
 1239              		.loc 8 399 12 is_stmt 1 view .LVU394
 1240              	.LBB575:
 1241              	.LBB576:
 1242              		.loc 8 401 29 view .LVU395
 1243 025c 0C2B     		cmp	r3, #12
ARM GAS  /tmp/claude-502/cc09dAcL.s 			page 50


 1244 025e 1846     		mov	r0, r3
 1245              	.LVL105:
 1246              		.loc 8 401 29 is_stmt 0 view .LVU396
 1247 0260 A8BF     		it	ge
 1248 0262 0C20     		movge	r0, #12
 1249 0264 002B     		cmp	r3, #0
 1250 0266 C1F2D583 		blt	.L423
 1251              		.loc 8 401 13 view .LVU397
 1252 026a 0023     		movs	r3, #0
 1253              	.LVL106:
 1254              		.loc 8 401 29 view .LVU398
 1255 026c 3D4A     		ldr	r2, .L459+12
 1256              	.LBE576:
 400:src/voice.h   ****     for(int i = 0; i <= idx && i < NUM_VOICES; i++) if(!VOICES[i].no_cycle) p++;
 1257              		.loc 8 400 9 view .LVU399
 1258 026e 1D46     		mov	r5, r3
 1259              	.LVL107:
 1260              	.L60:
 1261              	.LBB577:
 1262              		.loc 8 401 53 is_stmt 1 view .LVU400
 1263              		.loc 8 401 77 view .LVU401
 1264              		.loc 8 401 53 is_stmt 0 view .LVU402
 1265 0270 92F87C10 		ldrb	r1, [r2, #124]	@ zero_extendqisi2
 1266              		.loc 8 401 5 view .LVU403
 1267 0274 0133     		adds	r3, r3, #1
 1268              	.LVL108:
 1269              		.loc 8 401 29 view .LVU404
 1270 0276 8C32     		adds	r2, r2, #140
 1271              		.loc 8 401 53 view .LVU405
 1272 0278 01B9     		cbnz	r1, .L64
 1273              		.loc 8 401 78 view .LVU406
 1274 027a 0135     		adds	r5, r5, #1
 1275              	.LVL109:
 1276              	.L64:
 1277              		.loc 8 401 5 is_stmt 1 view .LVU407
 1278              		.loc 8 401 29 view .LVU408
 1279 027c 8342     		cmp	r3, r0
 1280 027e F7DD     		ble	.L60
 1281              	.LVL110:
 1282              		.loc 8 401 29 is_stmt 0 view .LVU409
 1283              	.LBE577:
 1284              	.LBE575:
 1285              	.LBE574:
 1286              	.LBB578:
 1287              	.LBB579:
 326:src/main.cpp  ****             hw.dac.WriteValue(DacHandle::Channel::ONE, (uint16_t)LED1_MAX);
 1288              		.loc 6 326 26 is_stmt 1 view .LVU410
 1289 0280 002D     		cmp	r5, #0
 1290 0282 01F0C783 		beq	.L423
 1291 0286 484E     		ldr	r6, .L459+80
 326:src/main.cpp  ****             hw.dac.WriteValue(DacHandle::Channel::ONE, (uint16_t)LED1_MAX);
 1292              		.loc 6 326 17 is_stmt 0 view .LVU411
 1293 0288 0024     		movs	r4, #0
 1294 028a 0C96     		str	r6, [sp, #48]
 1295              	.LVL111:
 1296              	.L63:
 327:src/main.cpp  ****             hw.dac.WriteValue(DacHandle::Channel::TWO, (uint16_t)LED2_MAX);
ARM GAS  /tmp/claude-502/cc09dAcL.s 			page 51


 1297              		.loc 6 327 13 is_stmt 1 view .LVU412
 327:src/main.cpp  ****             hw.dac.WriteValue(DacHandle::Channel::TWO, (uint16_t)LED2_MAX);
 1298              		.loc 6 327 30 is_stmt 0 view .LVU413
 1299 028c 40F6FF72 		movw	r2, #4095
 1300 0290 0021     		movs	r1, #0
 1301 0292 4648     		ldr	r0, .L459+84
 326:src/main.cpp  ****             hw.dac.WriteValue(DacHandle::Channel::ONE, (uint16_t)LED1_MAX);
 1302              		.loc 6 326 9 view .LVU414
 1303 0294 0134     		adds	r4, r4, #1
 1304              	.LVL112:
 327:src/main.cpp  ****             hw.dac.WriteValue(DacHandle::Channel::TWO, (uint16_t)LED2_MAX);
 1305              		.loc 6 327 30 view .LVU415
 1306 0296 FFF7FEFF 		bl	_ZN5daisy9DacHandle10WriteValueENS0_7ChannelEt
 1307              	.LVL113:
 328:src/main.cpp  ****             g_led3_duty = LED3_INTENSITY;
 1308              		.loc 6 328 13 is_stmt 1 view .LVU416
 328:src/main.cpp  ****             g_led3_duty = LED3_INTENSITY;
 1309              		.loc 6 328 30 is_stmt 0 view .LVU417
 1310 029a 40F6FF72 		movw	r2, #4095
 1311 029e 0121     		movs	r1, #1
 1312 02a0 4248     		ldr	r0, .L459+84
 1313 02a2 FFF7FEFF 		bl	_ZN5daisy9DacHandle10WriteValueENS0_7ChannelEt
 1314              	.LVL114:
 329:src/main.cpp  ****             System::Delay(110);
 1315              		.loc 6 329 13 is_stmt 1 view .LVU418
 329:src/main.cpp  ****             System::Delay(110);
 1316              		.loc 6 329 25 is_stmt 0 view .LVU419
 1317 02a6 424B     		ldr	r3, .L459+88
 330:src/main.cpp  ****             hw.dac.WriteValue(DacHandle::Channel::ONE, 0);
 1318              		.loc 6 330 26 view .LVU420
 1319 02a8 6E20     		movs	r0, #110
 329:src/main.cpp  ****             System::Delay(110);
 1320              		.loc 6 329 25 view .LVU421
 1321 02aa 3360     		str	r3, [r6]	@ float
 330:src/main.cpp  ****             hw.dac.WriteValue(DacHandle::Channel::ONE, 0);
 1322              		.loc 6 330 13 is_stmt 1 view .LVU422
 330:src/main.cpp  ****             hw.dac.WriteValue(DacHandle::Channel::ONE, 0);
 1323              		.loc 6 330 26 is_stmt 0 view .LVU423
 1324 02ac FFF7FEFF 		bl	_ZN5daisy6System5DelayEm
 1325              	.LVL115:
 331:src/main.cpp  ****             hw.dac.WriteValue(DacHandle::Channel::TWO, 0);
 1326              		.loc 6 331 13 is_stmt 1 view .LVU424
 331:src/main.cpp  ****             hw.dac.WriteValue(DacHandle::Channel::TWO, 0);
 1327              		.loc 6 331 30 is_stmt 0 view .LVU425
 1328 02b0 0022     		movs	r2, #0
 1329 02b2 3E48     		ldr	r0, .L459+84
 1330 02b4 1146     		mov	r1, r2
 1331 02b6 FFF7FEFF 		bl	_ZN5daisy9DacHandle10WriteValueENS0_7ChannelEt
 1332              	.LVL116:
 332:src/main.cpp  ****             g_led3_duty = 0.0f;
 1333              		.loc 6 332 13 is_stmt 1 view .LVU426
 332:src/main.cpp  ****             g_led3_duty = 0.0f;
 1334              		.loc 6 332 30 is_stmt 0 view .LVU427
 1335 02ba 0022     		movs	r2, #0
 1336 02bc 0121     		movs	r1, #1
 1337 02be 3B48     		ldr	r0, .L459+84
 1338 02c0 FFF7FEFF 		bl	_ZN5daisy9DacHandle10WriteValueENS0_7ChannelEt
ARM GAS  /tmp/claude-502/cc09dAcL.s 			page 52


 1339              	.LVL117:
 333:src/main.cpp  ****             System::Delay(140);
 1340              		.loc 6 333 13 is_stmt 1 view .LVU428
 333:src/main.cpp  ****             System::Delay(140);
 1341              		.loc 6 333 25 is_stmt 0 view .LVU429
 1342 02c4 0023     		movs	r3, #0
 334:src/main.cpp  ****         }
 1343              		.loc 6 334 26 view .LVU430
 1344 02c6 8C20     		movs	r0, #140
 333:src/main.cpp  ****             System::Delay(140);
 1345              		.loc 6 333 25 view .LVU431
 1346 02c8 3360     		str	r3, [r6]	@ float
 334:src/main.cpp  ****         }
 1347              		.loc 6 334 13 is_stmt 1 view .LVU432
 334:src/main.cpp  ****         }
 1348              		.loc 6 334 26 is_stmt 0 view .LVU433
 1349 02ca FFF7FEFF 		bl	_ZN5daisy6System5DelayEm
 1350              	.LVL118:
 326:src/main.cpp  ****             hw.dac.WriteValue(DacHandle::Channel::ONE, (uint16_t)LED1_MAX);
 1351              		.loc 6 326 9 is_stmt 1 view .LVU434
 326:src/main.cpp  ****             hw.dac.WriteValue(DacHandle::Channel::ONE, (uint16_t)LED1_MAX);
 1352              		.loc 6 326 26 view .LVU435
 1353 02ce A542     		cmp	r5, r4
 1354 02d0 DCD1     		bne	.L63
 1355              	.LVL119:
 1356              	.L62:
 326:src/main.cpp  ****             hw.dac.WriteValue(DacHandle::Channel::ONE, (uint16_t)LED1_MAX);
 1357              		.loc 6 326 26 is_stmt 0 view .LVU436
 1358              	.LBE579:
 1359              	.LBE578:
 341:src/main.cpp  **** 
 342:src/main.cpp  ****     // ‚îÄ‚îÄ Polyphonic Drums state ‚îÄ‚îÄ‚îÄ‚îÄ‚îÄ‚îÄ‚îÄ‚îÄ‚îÄ‚îÄ‚îÄ‚îÄ‚îÄ‚îÄ‚îÄ‚îÄ‚îÄ‚îÄ‚îÄ‚îÄ‚î
 343:src/main.cpp  ****     bool     hit_was_alive[MAX_FINGERS] = {};   // debounced-alive, previous frame
 1360              		.loc 6 343 5 is_stmt 1 view .LVU437
 317:src/main.cpp  **** 
 1361              		.loc 6 317 41 is_stmt 0 view .LVU438
 1362 02d2 DFED388A 		vldr.32	s17, .L459+92
 310:src/main.cpp  ****     float    vel_peak    = 0.0f;   // running peak pressure during the window
 1363              		.loc 6 310 14 view .LVU439
 1364 02d6 B7EE00AA 		vmov.f32	s20, #1.0e+0
 1365              		.loc 6 343 14 view .LVU440
 1366 02da 0023     		movs	r3, #0
 1367 02dc DFF8DC90 		ldr	r9, .L459+100
 317:src/main.cpp  **** 
 1368              		.loc 6 317 26 view .LVU441
 1369 02e0 F0EE689A 		vmov.f32	s19, s17
 1370 02e4 0DF1DC0B 		add	fp, sp, #220
 317:src/main.cpp  **** 
 1371              		.loc 6 317 11 view .LVU442
 1372 02e8 B0EE689A 		vmov.f32	s18, s17
 1373 02ec DDF814A0 		ldr	r10, [sp, #20]
 321:src/main.cpp  **** 
 1374              		.loc 6 321 14 view .LVU443
 1375 02f0 1693     		str	r3, [sp, #88]
 1376              		.loc 6 343 14 view .LVU444
 1377 02f2 1993     		str	r3, [sp, #100]
 344:src/main.cpp  ****     uint32_t hit_last_alive[MAX_FINGERS]= {};   // last RAW-alive time (for lift debounce)
ARM GAS  /tmp/claude-502/cc09dAcL.s 			page 53


 1378              		.loc 6 344 5 is_stmt 1 view .LVU445
 345:src/main.cpp  ****     float    prs_sm[MAX_FINGERS]        = {};   // lightly-smoothed pressure
 1379              		.loc 6 345 5 view .LVU446
 346:src/main.cpp  ****     uint32_t last_retrig[MAX_FINGERS]   = {};   // last held re-attack time (refractory)
 1380              		.loc 6 346 5 view .LVU447
 320:src/main.cpp  ****     uint32_t fsr_next_switch = 0;   // timestamp of the next allowed switch
 1381              		.loc 6 320 14 is_stmt 0 view .LVU448
 1382 02f4 1193     		str	r3, [sp, #68]
 296:src/main.cpp  ****     static constexpr uint32_t F1_REQUANTIZE_MS = 200; // re-quantize only after this long off
 1383              		.loc 6 296 14 view .LVU449
 1384 02f6 1593     		str	r3, [sp, #84]
 295:src/main.cpp  ****     uint32_t f1_last_seen_ms = 0;
 1385              		.loc 6 295 14 view .LVU450
 1386 02f8 0893     		str	r3, [sp, #32]
 344:src/main.cpp  ****     float    prs_sm[MAX_FINGERS]        = {};   // lightly-smoothed pressure
 1387              		.loc 6 344 14 view .LVU451
 1388 02fa CDE91B33 		strd	r3, r3, [sp, #108]
 1389 02fe CDE91D33 		strd	r3, r3, [sp, #116]
 345:src/main.cpp  ****     uint32_t last_retrig[MAX_FINGERS]   = {};   // last held re-attack time (refractory)
 1390              		.loc 6 345 14 view .LVU452
 1391 0302 CDE91F33 		strd	r3, r3, [sp, #124]
 1392 0306 CDE92133 		strd	r3, r3, [sp, #132]
 1393              		.loc 6 346 14 view .LVU453
 1394 030a CDE92333 		strd	r3, r3, [sp, #140]
 1395 030e CDE92533 		strd	r3, r3, [sp, #148]
 1396              	.LVL120:
 1397              	.L61:
 347:src/main.cpp  ****     // Genuine taps (a real lift + re-tap) retrigger with NO limit. A tracker
 348:src/main.cpp  ****     // dropout shorter than TAP_GAP_MS is treated as a flicker ‚Äî the note keeps
 349:src/main.cpp  ****     // holding, no spurious retrigger. While HELD, a sharp pressure rise
 350:src/main.cpp  ****     // re-attacks but is rate-limited by the voice's retrig_ms.
 351:src/main.cpp  ****     static constexpr uint32_t TAP_GAP_MS  = 40;    // min off-time to count as a real lift
 1398              		.loc 6 351 5 is_stmt 1 view .LVU454
 352:src/main.cpp  ****     static constexpr float    PRS_SMOOTH  = 0.5f;  // light smoothing (preserve the attack edge)
 1399              		.loc 6 352 5 view .LVU455
 353:src/main.cpp  ****     static constexpr float    RISE_THRESH = 18.0f; // % pressure rise/frame = a held re-attack
 1400              		.loc 6 353 5 view .LVU456
 354:src/main.cpp  **** 
 355:src/main.cpp  ****     // Trigger drum slot `s` from a tap at (pos, pressure): zone ‚Üí drum, fine
 356:src/main.cpp  ****     // position ‚Üí interval pitch, pressure ‚Üí velocity (loudness/brightness/drive).
 357:src/main.cpp  ****     auto trigger_drum = [&](int s, int32_t pos, int32_t pressure){
 1401              		.loc 6 357 5 view .LVU457
 358:src/main.cpp  ****         float p    = clampf((float)pos / 1000.0f, 0.0f, 1.0f);
 359:src/main.cpp  ****         int   zone = (int)(p * 4.0f); if(zone > 3) zone = 3;
 360:src/main.cpp  ****         int   vidx = MULTI_ZONES[zone];
 361:src/main.cpp  ****         const Voice& V = VOICES[vidx];
 362:src/main.cpp  ****         float subp = p * 4.0f - (float)zone;
 363:src/main.cpp  ****         int   step = (int)(subp * (float)MULTI_NINTERVALS);
 364:src/main.cpp  ****         if(step >= MULTI_NINTERVALS) step = MULTI_NINTERVALS - 1;
 365:src/main.cpp  ****         float freq = V.freq_low * MULTI_INTERVALS[step];
 366:src/main.cpp  ****         float v    = FIX_DRUM ? 1.0f : clampf((float)pressure / 100.0f, 0.0f, 1.0f);
 367:src/main.cpp  ****         float amp  = 0.72f * ((1.0f - V.vel_sens) + V.vel_sens * v);
 368:src/main.cpp  ****         // Cutoff from velocity, same curve as the mono path.
 369:src/main.cpp  ****         float cutoff_oct = V.cutoff_oct_max * smootherstep_f(v);
 370:src/main.cpp  ****         float oa = cutoff_oct * 0.6931f;
 371:src/main.cpp  ****         float om = 1.0f + oa*(1.0f + oa*(0.5f + oa*(0.1667f + oa*0.0417f)));
 372:src/main.cpp  ****         float tf = (V.keytrack >= 0.999f) ? freq
ARM GAS  /tmp/claude-502/cc09dAcL.s 			page 54


 373:src/main.cpp  ****                    : V.freq_low * powf(freq / V.freq_low, V.keytrack);
 374:src/main.cpp  ****         float cutoff = clampf(tf * V.cutoff_mult * om, 20.0f, 18000.0f);
 375:src/main.cpp  ****         float drive  = 1.0f + smoothstep_f(v) * V.drive_max;
 376:src/main.cpp  ****         drum_trigger(g_hits[s], vidx, freq, amp, cutoff, drive, hw.AudioSampleRate());
 377:src/main.cpp  ****         g_active_voice = vidx;   // header shows the last-hit drum
 378:src/main.cpp  ****     };
 379:src/main.cpp  **** 
 380:src/main.cpp  ****     while(true)
 1402              		.loc 6 380 5 view .LVU458
 1403              	.LBB580:
 381:src/main.cpp  ****     {
 382:src/main.cpp  ****         // ‚îÄ‚îÄ FSR ‚Üí master volume ‚îÄ‚îÄ‚îÄ‚îÄ‚îÄ‚îÄ‚îÄ‚îÄ‚îÄ‚îÄ‚îÄ‚îÄ‚îÄ‚îÄ‚îÄ‚îÄ‚îÄ‚îÄ‚îÄ‚î
 383:src/main.cpp  ****         // Full volume through the deadzone (light pressure), then ramps to 0 as
 384:src/main.cpp  ****         // pressure increases down to FSR_MIN.
 385:src/main.cpp  ****         uint16_t fsr_raw = hw.adc.Get(0);
 1404              		.loc 6 385 9 view .LVU459
 1405              		.loc 6 385 38 is_stmt 0 view .LVU460
 1406 0312 0021     		movs	r1, #0
 1407 0314 1048     		ldr	r0, .L459
 1408 0316 FFF7FEFF 		bl	_ZNK5daisy9AdcHandle3GetEh
 1409              	.LVL121:
 386:src/main.cpp  ****         float    vol;
 1410              		.loc 6 386 9 is_stmt 1 view .LVU461
 387:src/main.cpp  ****         if(fsr_raw >= fsr_dead)     vol = 1.0f;
 1411              		.loc 6 387 9 view .LVU462
 1412 031a 109B     		ldr	r3, [sp, #64]
 1413 031c 9842     		cmp	r0, r3
 1414 031e 80F0E885 		bcs	.L66
 388:src/main.cpp  ****         else if(fsr_raw <= FSR_MIN) vol = 0.0f;
 1415              		.loc 6 388 14 view .LVU463
 1416 0322 B0F5FA5F 		cmp	r0, #8000
 1417 0326 40F24687 		bls	.L67
 389:src/main.cpp  ****         else                        vol = (float)(fsr_raw - FSR_MIN) * fsr_active_inv;
 1418              		.loc 6 389 37 view .LVU464
 1419              		.loc 6 389 59 is_stmt 0 view .LVU465
 1420 032a A0F5FA50 		sub	r0, r0, #8000
 1421              	.LVL122:
 390:src/main.cpp  ****         g_master_vol = vol;
 1422              		.loc 6 390 22 view .LVU466
 1423 032e 224B     		ldr	r3, .L459+96
 389:src/main.cpp  ****         else                        vol = (float)(fsr_raw - FSR_MIN) * fsr_active_inv;
 1424              		.loc 6 389 43 view .LVU467
 1425 0330 07EE900A 		vmov	s15, r0	@ int
 1426 0334 B8EEE78A 		vcvt.f32.s32	s16, s15
 389:src/main.cpp  ****         else                        vol = (float)(fsr_raw - FSR_MIN) * fsr_active_inv;
 1427              		.loc 6 389 41 view .LVU468
 1428 0338 28EE2A8A 		vmul.f32	s16, s16, s21
 1429              	.LVL123:
 1430              		.loc 6 390 9 is_stmt 1 view .LVU469
 1431              		.loc 6 390 22 is_stmt 0 view .LVU470
 1432 033c 83ED008A 		vstr.32	s16, [r3]
 391:src/main.cpp  **** 
 392:src/main.cpp  ****         // ‚îÄ‚îÄ FSR-hold voice-switch gesture ‚îÄ‚îÄ‚îÄ‚îÄ‚îÄ‚îÄ‚îÄ‚îÄ‚îÄ‚îÄ‚îÄ‚îÄ‚îÄ‚îÄ‚îÄ‚îÄ‚îÄ
 393:src/main.cpp  ****         // Pressing the FSR to (near) silence and holding cycles the voice: first
 394:src/main.cpp  ****         // advance after 3 s, then every 2 s while still held. LEDs flash the new
 395:src/main.cpp  ****         // voice number. Releasing re-arms the 3 s wait.
 396:src/main.cpp  ****         bool fsr_pressed = (fsr_raw <= FSR_MIN);   // "low value" = at the mute floor
ARM GAS  /tmp/claude-502/cc09dAcL.s 			page 55


 1433              		.loc 6 396 9 is_stmt 1 view .LVU471
 1434              	.LVL124:
 397:src/main.cpp  ****         if(!fsr_pressed){
 1435              		.loc 6 397 9 view .LVU472
 1436              	.LBB581:
 398:src/main.cpp  ****             fsr_hold_start = 0;                    // released ‚Üí disarm
 1437              		.loc 6 398 28 is_stmt 0 view .LVU473
 1438 0340 0023     		movs	r3, #0
 1439 0342 1193     		str	r3, [sp, #68]
 1440              	.LVL125:
 1441              	.L68:
 1442              		.loc 6 398 28 view .LVU474
 1443              	.LBE581:
 399:src/main.cpp  ****         } else {
 400:src/main.cpp  ****             uint32_t now = System::GetNow();
 401:src/main.cpp  ****             if(fsr_hold_start == 0){
 402:src/main.cpp  ****                 fsr_hold_start  = now;
 403:src/main.cpp  ****                 fsr_next_switch = now + VOICE_SWITCH_FIRST_MS;
 404:src/main.cpp  ****             }
 405:src/main.cpp  ****             // Holding the FSR means no glass touch ‚Äî freeze the idle/rebaseline
 406:src/main.cpp  ****             // timers so they don't fire mid-gesture.
 407:src/main.cpp  ****             idle_since    = now;
 408:src/main.cpp  ****             last_touch_ms = now;
 409:src/main.cpp  ****             if((int32_t)(now - fsr_next_switch) >= 0){
 410:src/main.cpp  ****                 g_voice_idx = cycle_next(g_voice_idx);         // skip no_cycle voices
 411:src/main.cpp  ****                 int pos = cycle_pos(g_voice_idx);
 412:src/main.cpp  ****                 hw.PrintLine("[voice %d/%d] %s",
 413:src/main.cpp  ****                              pos, cycle_total(), VOICES[g_voice_idx].name);
 414:src/main.cpp  ****                 // Persist the new selection (only erases/writes QSPI if changed).
 415:src/main.cpp  ****                 storage.GetSettings().voice_idx = g_voice_idx;
 416:src/main.cpp  ****                 storage.Save();
 417:src/main.cpp  ****                 flash_voice_leds(pos);                         // count = position in the cycle
 418:src/main.cpp  ****                 fsr_next_switch = System::GetNow() + VOICE_SWITCH_REPEAT_MS; // re-time after flash
 419:src/main.cpp  ****             }
 420:src/main.cpp  ****         }
 421:src/main.cpp  **** 
 422:src/main.cpp  ****         read_electrodes(data);
 1444              		.loc 6 422 9 is_stmt 1 view .LVU475
 1445              		.loc 6 422 24 is_stmt 0 view .LVU476
 1446 0344 5846     		mov	r0, fp
 423:src/main.cpp  **** 
 424:src/main.cpp  ****         int32_t max_delta=1;
 1447              		.loc 6 424 17 view .LVU477
 1448 0346 0124     		movs	r4, #1
 422:src/main.cpp  **** 
 1449              		.loc 6 422 24 view .LVU478
 1450 0348 FFF7FEFF 		bl	_Z15read_electrodesPt
 1451              	.LVL126:
 1452              		.loc 6 424 9 is_stmt 1 view .LVU479
 425:src/main.cpp  ****         for(int i=0;i<N_CH;i++){
 1453              		.loc 6 425 9 view .LVU480
 1454              	.LBB623:
 1455              		.loc 6 425 22 view .LVU481
 1456 034c 4BAB     		add	r3, sp, #300
 1457 034e 5846     		mov	r0, fp
 1458              	.LBE623:
 422:src/main.cpp  **** 
ARM GAS  /tmp/claude-502/cc09dAcL.s 			page 56


 1459              		.loc 6 422 24 is_stmt 0 view .LVU482
 1460 0350 0D9A     		ldr	r2, [sp, #52]
 1461 0352 1946     		mov	r1, r3
 1462 0354 1393     		str	r3, [sp, #76]
 1463 0356 3BE0     		b	.L83
 1464              	.L460:
 1465              		.align	2
 1466              	.L459:
 1467 0358 18000000 		.word	.LANCHOR1+24
 1468 035c CDCCCC3D 		.word	1036831949
 1469 0360 00000000 		.word	.LANCHOR2
 1470 0364 00000000 		.word	.LANCHOR6
 1471 0368 00000000 		.word	g_target_freq
 1472 036c 00000000 		.word	g_amp_target
 1473 0370 00000000 		.word	.LANCHOR1
 1474 0374 0000C842 		.word	1120403456
 1475 0378 00000000 		.word	g_target_cutoff
 1476 037c 00000000 		.word	_Z13AudioCallbackPKPKfPPfj
 1477 0380 CDCCCC3E 		.word	1053609165
 1478 0384 00000000 		.word	.LC0
 1479 0388 14000000 		.word	.LC1
 1480 038c 1C070000 		.word	.LANCHOR6+1820
 1481 0390 28000000 		.word	.LC2
 1482 0394 44000000 		.word	.LC3
 1483 0398 68000000 		.word	.LC4
 1484 039c B8000000 		.word	.LC6
 1485 03a0 EC000000 		.word	.LC7
 1486 03a4 0C010000 		.word	.LC8
 1487 03a8 00000000 		.word	g_led3_duty
 1488 03ac 20000000 		.word	.LANCHOR1+32
 1489 03b0 CDCC4C3D 		.word	1028443341
 1490 03b4 00000000 		.word	0
 1491 03b8 00000000 		.word	g_master_vol
 1492 03bc 00000000 		.word	tracked
 1493              	.LVL127:
 1494              	.L429:
 422:src/main.cpp  **** 
 1495              		.loc 6 422 24 view .LVU483
 1496 03c0 9C42     		cmp	r4, r3
 1497              	.LBB624:
 426:src/main.cpp  ****             delta[i]=(int32_t)baseline[i]-(int32_t)data[i];
 1498              		.loc 6 426 21 view .LVU484
 1499 03c2 0B60     		str	r3, [r1]
 427:src/main.cpp  ****             if(delta[i]<0)delta[i]=0;
 428:src/main.cpp  ****             if(delta[i]>max_delta)max_delta=delta[i];
 1500              		.loc 6 428 13 is_stmt 1 view .LVU485
 425:src/main.cpp  ****             delta[i]=(int32_t)baseline[i]-(int32_t)data[i];
 1501              		.loc 6 425 22 is_stmt 0 view .LVU486
 1502 03c4 01F10401 		add	r1, r1, #4
 1503 03c8 B8BF     		it	lt
 1504 03ca 1C46     		movlt	r4, r3
 1505              	.LVL128:
 425:src/main.cpp  ****             delta[i]=(int32_t)baseline[i]-(int32_t)data[i];
 1506              		.loc 6 425 9 is_stmt 1 view .LVU487
 425:src/main.cpp  ****             delta[i]=(int32_t)baseline[i]-(int32_t)data[i];
 1507              		.loc 6 425 22 view .LVU488
 1508 03cc 9345     		cmp	fp, r2
ARM GAS  /tmp/claude-502/cc09dAcL.s 			page 57


 1509 03ce 0ED0     		beq	.L428
 1510              	.LVL129:
 1511              	.L83:
 426:src/main.cpp  ****             delta[i]=(int32_t)baseline[i]-(int32_t)data[i];
 1512              		.loc 6 426 13 view .LVU489
 427:src/main.cpp  ****             if(delta[i]<0)delta[i]=0;
 1513              		.loc 6 427 13 view .LVU490
 427:src/main.cpp  ****             if(delta[i]<0)delta[i]=0;
 1514              		.loc 6 427 27 view .LVU491
 426:src/main.cpp  ****             delta[i]=(int32_t)baseline[i]-(int32_t)data[i];
 1515              		.loc 6 426 41 is_stmt 0 view .LVU492
 1516 03d0 32F8023B 		ldrh	r3, [r2], #2
 427:src/main.cpp  ****             if(delta[i]<0)delta[i]=0;
 1517              		.loc 6 427 35 view .LVU493
 1518 03d4 0026     		movs	r6, #0
 426:src/main.cpp  ****             delta[i]=(int32_t)baseline[i]-(int32_t)data[i];
 1519              		.loc 6 426 58 view .LVU494
 1520 03d6 30F8025B 		ldrh	r5, [r0], #2
 427:src/main.cpp  ****             if(delta[i]<0)delta[i]=0;
 1521              		.loc 6 427 13 view .LVU495
 1522 03da 5B1B     		subs	r3, r3, r5
 1523 03dc F0D5     		bpl	.L429
 1524 03de 3346     		mov	r3, r6
 427:src/main.cpp  ****             if(delta[i]<0)delta[i]=0;
 1525              		.loc 6 427 35 discriminator 1 view .LVU496
 1526 03e0 0E60     		str	r6, [r1]
 1527              		.loc 6 428 13 is_stmt 1 discriminator 1 view .LVU497
 425:src/main.cpp  ****             delta[i]=(int32_t)baseline[i]-(int32_t)data[i];
 1528              		.loc 6 425 22 is_stmt 0 discriminator 1 view .LVU498
 1529 03e2 0431     		adds	r1, r1, #4
 1530 03e4 9C42     		cmp	r4, r3
 1531 03e6 B8BF     		it	lt
 1532 03e8 1C46     		movlt	r4, r3
 1533              	.LVL130:
 425:src/main.cpp  ****             delta[i]=(int32_t)baseline[i]-(int32_t)data[i];
 1534              		.loc 6 425 9 is_stmt 1 discriminator 1 view .LVU499
 425:src/main.cpp  ****             delta[i]=(int32_t)baseline[i]-(int32_t)data[i];
 1535              		.loc 6 425 22 discriminator 1 view .LVU500
 1536 03ea 9345     		cmp	fp, r2
 1537 03ec F0D1     		bne	.L83
 1538              	.L428:
 425:src/main.cpp  ****             delta[i]=(int32_t)baseline[i]-(int32_t)data[i];
 1539              		.loc 6 425 22 is_stmt 0 discriminator 1 view .LVU501
 1540              	.LBE624:
 429:src/main.cpp  ****         }
 430:src/main.cpp  **** 
 431:src/main.cpp  ****         int n_raw=detect_raw(delta,raw,MAX_FINGERS);
 1541              		.loc 6 431 9 is_stmt 1 view .LVU502
 1542              		.loc 6 431 29 is_stmt 0 view .LVU503
 1543 03ee 0422     		movs	r2, #4
 1544 03f0 1EEE101A 		vmov	r1, s28	@ int
 1545 03f4 4BA8     		add	r0, sp, #300
 1546 03f6 FFF7FEFF 		bl	_Z10detect_rawPlP6Fingeri
 1547              	.LVL131:
 432:src/main.cpp  ****         bool touching=(n_raw>0);
 1548              		.loc 6 432 9 is_stmt 1 view .LVU504
 433:src/main.cpp  **** 
ARM GAS  /tmp/claude-502/cc09dAcL.s 			page 58


 434:src/main.cpp  ****         // ‚îÄ‚îÄ Auto-rebaseline ‚îÄ‚îÄ‚îÄ‚îÄ‚îÄ‚îÄ‚îÄ‚îÄ‚îÄ‚îÄ‚îÄ‚îÄ‚îÄ‚îÄ‚îÄ‚îÄ‚îÄ‚îÄ‚îÄ‚îÄ‚îÄ‚î
 435:src/main.cpp  ****         if(touching){
 1549              		.loc 6 435 9 view .LVU505
 1550 03fa 061E     		subs	r6, r0, #0
 1551 03fc 40F3A885 		ble	.L84
 436:src/main.cpp  ****             idle_since=System::GetNow();
 1552              		.loc 6 436 13 view .LVU506
 1553              		.loc 6 436 38 is_stmt 0 view .LVU507
 1554 0400 FFF7FEFF 		bl	_ZN5daisy6System6GetNowEv
 1555              	.LVL132:
 1556              		.loc 6 436 38 view .LVU508
 1557 0404 0A90     		str	r0, [sp, #40]
 1558              	.LVL133:
 437:src/main.cpp  ****         } else {
 438:src/main.cpp  ****             if(System::GetNow()-idle_since>=REBASELINE_IDLE_MS){
 439:src/main.cpp  ****                 tracked[0].alive=tracked[1].alive=false;
 440:src/main.cpp  ****                 capture_baseline(baseline);
 441:src/main.cpp  ****                 hw.PrintLine("[rebaseline]");
 442:src/main.cpp  ****                 idle_since=System::GetNow();
 443:src/main.cpp  ****             }
 444:src/main.cpp  ****         }
 445:src/main.cpp  **** 
 446:src/main.cpp  ****         // ‚îÄ‚îÄ 5 s idle ‚Üí chase + FSR recalibration, loops until touch ‚îÄ‚îÄ‚îÄ‚îÄ‚îÄ‚îÄ‚îÄ‚î
 447:src/main.cpp  ****         if(touching){
 1559              		.loc 6 447 9 is_stmt 1 view .LVU509
 448:src/main.cpp  ****             last_touch_ms = System::GetNow();
 1560              		.loc 6 448 13 view .LVU510
 1561              		.loc 6 448 43 is_stmt 0 view .LVU511
 1562 0406 FFF7FEFF 		bl	_ZN5daisy6System6GetNowEv
 1563              	.LVL134:
 1564              		.loc 6 448 43 view .LVU512
 1565 040a 0B90     		str	r0, [sp, #44]
 1566              	.LVL135:
 1567              	.L85:
 449:src/main.cpp  ****         } else if(System::GetNow() - last_touch_ms >= 5000){
 450:src/main.cpp  ****             idle_chase_and_calibrate();
 451:src/main.cpp  ****             last_touch_ms = System::GetNow();
 452:src/main.cpp  ****             idle_since    = System::GetNow();
 453:src/main.cpp  ****             hw.PrintLine("[fsr recal] fsr_max=%d", (int)fsr_max);
 454:src/main.cpp  ****         }
 455:src/main.cpp  **** 
 456:src/main.cpp  ****         update_tracked(raw,n_raw);
 1568              		.loc 6 456 9 is_stmt 1 view .LVU513
 1569              		.loc 6 456 23 is_stmt 0 view .LVU514
 1570 040c 3146     		mov	r1, r6
 1571 040e 1EEE100A 		vmov	r0, s28	@ int
 1572 0412 FFF7FEFF 		bl	_Z14update_trackedP6Fingeri
 1573              	.LVL136:
 457:src/main.cpp  **** 
 458:src/main.cpp  ****         // ‚îÄ‚îÄ Finger 1 ‚Üí Pitch + Filter cutoff + Vibrato ‚îÄ‚îÄ‚îÄ‚îÄ‚îÄ‚îÄ‚îÄ‚îÄ‚îÄ‚îÄ‚îÄ‚îÄ
 459:src/main.cpp  ****         bool f1_on = tracked[0].alive;
 1574              		.loc 6 459 9 is_stmt 1 view .LVU515
 1575              		.loc 6 459 14 is_stmt 0 view .LVU516
 1576 0416 99F80030 		ldrb	r3, [r9]	@ zero_extendqisi2
 1577 041a 0793     		str	r3, [sp, #28]
 1578              	.LVL137:
 460:src/main.cpp  ****         if(f1_on) f1_last_seen_ms = System::GetNow();
ARM GAS  /tmp/claude-502/cc09dAcL.s 			page 59


 1579              		.loc 6 460 9 is_stmt 1 view .LVU517
 1580 041c 002B     		cmp	r3, #0
 1581 041e 40F0A786 		bne	.L430
 1582              	.LVL138:
 1583              	.L114:
 461:src/main.cpp  ****         bool f1_fresh = !f1_was_on && (System::GetNow() - f1_last_seen_ms >= F1_REQUANTIZE_MS);
 1584              		.loc 6 461 9 view .LVU518
 1585              		.loc 6 461 36 is_stmt 0 view .LVU519
 1586 0422 089B     		ldr	r3, [sp, #32]
 1587 0424 002B     		cmp	r3, #0
 1588 0426 00F09886 		beq	.L431
 1589 042a 0023     		movs	r3, #0
 1590 042c 0E93     		str	r3, [sp, #56]
 1591              	.L115:
 1592              	.LVL139:
 462:src/main.cpp  **** 
 463:src/main.cpp  ****         // ‚îÄ‚îÄ MultiVoice routing ‚îÄ‚îÄ‚îÄ‚îÄ‚îÄ‚îÄ‚îÄ‚îÄ‚îÄ‚îÄ‚îÄ‚îÄ‚îÄ‚îÄ‚îÄ‚îÄ‚îÄ‚îÄ‚îÄ‚îÄ‚î
 464:src/main.cpp  ****         // Drums mode is polyphonic: each of up to 4 fingers drives its own drum
 465:src/main.cpp  ****         // slot ‚Äî a fresh touch triggers the zone's drum (pitch from the fine
 466:src/main.cpp  ****         // position), lifting it releases that slot. The mono engine is held
 467:src/main.cpp  ****         // silent. Other voices stay monophonic and use the finger-1 path below.
 468:src/main.cpp  ****         bool multi = (g_voice_idx == MULTI_IDX);
 1593              		.loc 6 468 9 is_stmt 1 discriminator 6 view .LVU520
 1594              		.loc 6 468 35 is_stmt 0 discriminator 6 view .LVU521
 1595 042e D84A     		ldr	r2, .L461
 1596 0430 1368     		ldr	r3, [r2]
 469:src/main.cpp  ****         if(!multi) g_active_voice = g_voice_idx;
 1597              		.loc 6 469 9 discriminator 6 view .LVU522
 1598 0432 0C2B     		cmp	r3, #12
 468:src/main.cpp  ****         if(!multi) g_active_voice = g_voice_idx;
 1599              		.loc 6 468 35 discriminator 6 view .LVU523
 1600 0434 0693     		str	r3, [sp, #24]
 1601              	.LVL140:
 1602              		.loc 6 469 9 is_stmt 1 discriminator 6 view .LVU524
 1603 0436 02D0     		beq	.L116
 1604              		.loc 6 469 20 discriminator 1 view .LVU525
 1605              		.loc 6 469 35 is_stmt 0 discriminator 1 view .LVU526
 1606 0438 1368     		ldr	r3, [r2]
 1607              	.LVL141:
 1608              		.loc 6 469 35 discriminator 1 view .LVU527
 1609 043a D64A     		ldr	r2, .L461+4
 1610 043c 1360     		str	r3, [r2]
 1611              	.L116:
 470:src/main.cpp  **** 
 471:src/main.cpp  ****         // ‚îÄ‚îÄ Re-attack detector (all fingers, with lift debounce) ‚îÄ‚îÄ‚îÄ‚îÄ‚îÄ‚îÄ‚îÄ‚îÄ‚îÄ‚
 472:src/main.cpp  ****         // deb_alive[] = alive after debouncing brief dropouts. A debounced
 473:src/main.cpp  ****         // rising edge is a genuine tap (fires with NO limit); a sharp pressure
 474:src/main.cpp  ****         // rise while held re-attacks (rate-limited by retrig_ms).
 475:src/main.cpp  ****         bool     reatk[MAX_FINGERS] = {};
 1612              		.loc 6 475 9 is_stmt 1 view .LVU528
 1613              		.loc 6 475 18 is_stmt 0 view .LVU529
 1614 043e 0023     		movs	r3, #0
 1615 0440 D54F     		ldr	r7, .L461+8
 1616 0442 1FAE     		add	r6, sp, #124
 1617              	.LVL142:
 1618              		.loc 6 475 18 view .LVU530
 1619 0444 19AD     		add	r5, sp, #100
ARM GAS  /tmp/claude-502/cc09dAcL.s 			page 60


 1620 0446 1A93     		str	r3, [sp, #104]
 476:src/main.cpp  ****         bool     deb_alive[MAX_FINGERS] = {};
 1621              		.loc 6 476 9 is_stmt 1 view .LVU531
 477:src/main.cpp  ****         uint32_t now_ms = System::GetNow();
 1622              		.loc 6 477 41 is_stmt 0 view .LVU532
 1623 0448 B946     		mov	r9, r7
 476:src/main.cpp  ****         bool     deb_alive[MAX_FINGERS] = {};
 1624              		.loc 6 476 18 view .LVU533
 1625 044a 3D93     		str	r3, [sp, #244]
 1626              		.loc 6 477 9 is_stmt 1 view .LVU534
 1627 044c 1497     		str	r7, [sp, #80]
 1628              		.loc 6 477 41 is_stmt 0 view .LVU535
 1629 044e FFF7FEFF 		bl	_ZN5daisy6System6GetNowEv
 1630              	.LVL143:
 478:src/main.cpp  ****         for(int i = 0; i < MAX_FINGERS; i++){
 1631              		.loc 6 478 9 is_stmt 1 view .LVU536
 1632              	.LBB625:
 1633              		.loc 6 478 26 view .LVU537
 1634 0452 1AAB     		add	r3, sp, #104
 1635 0454 3DA9     		add	r1, sp, #244
 1636 0456 0DF18C0C 		add	ip, sp, #140
 1637 045a 1BAA     		add	r2, sp, #108
 1638              	.LBE625:
 477:src/main.cpp  ****         uint32_t now_ms = System::GetNow();
 1639              		.loc 6 477 41 is_stmt 0 view .LVU538
 1640 045c 9E46     		mov	lr, r3
 1641 045e 1293     		str	r3, [sp, #72]
 1642 0460 3B46     		mov	r3, r7
 1643 0462 0994     		str	r4, [sp, #36]
 1644 0464 0590     		str	r0, [sp, #20]
 1645              	.LVL144:
 1646              	.L128:
 1647              	.LBB651:
 1648              	.LBB626:
 479:src/main.cpp  ****             bool raw = tracked[i].alive;
 1649              		.loc 6 479 13 is_stmt 1 view .LVU539
 1650              		.loc 6 479 18 is_stmt 0 view .LVU540
 1651 0466 1878     		ldrb	r0, [r3]	@ zero_extendqisi2
 1652              	.LVL145:
 480:src/main.cpp  ****             if(raw) hit_last_alive[i] = now_ms;
 1653              		.loc 6 480 13 is_stmt 1 view .LVU541
 1654 0468 0028     		cmp	r0, #0
 1655 046a 00F0BE84 		beq	.L117
 1656              		.loc 6 480 21 discriminator 1 view .LVU542
 1657              		.loc 6 480 39 is_stmt 0 discriminator 1 view .LVU543
 1658 046e 059C     		ldr	r4, [sp, #20]
 1659 0470 1460     		str	r4, [r2]
 481:src/main.cpp  ****             // Bridge sub-TAP_GAP_MS dropouts so a flicker isn't seen as a lift.
 482:src/main.cpp  ****             bool deb = raw || (int32_t)(now_ms - hit_last_alive[i]) < (int32_t)TAP_GAP_MS;
 1660              		.loc 6 482 13 is_stmt 1 discriminator 1 view .LVU544
 1661              	.LVL146:
 483:src/main.cpp  ****             deb_alive[i] = deb;
 1662              		.loc 6 483 13 discriminator 1 view .LVU545
 1663              		.loc 6 483 26 is_stmt 0 discriminator 1 view .LVU546
 1664 0472 0124     		movs	r4, #1
 1665 0474 0C70     		strb	r4, [r1]
 484:src/main.cpp  ****             if(!deb) continue;                              // truly lifted
ARM GAS  /tmp/claude-502/cc09dAcL.s 			page 61


 1666              		.loc 6 484 13 is_stmt 1 discriminator 1 view .LVU547
 485:src/main.cpp  **** 
 486:src/main.cpp  ****             int vidx;
 1667              		.loc 6 486 13 discriminator 1 view .LVU548
 487:src/main.cpp  ****             if(multi){
 1668              		.loc 6 487 13 discriminator 1 view .LVU549
 1669              	.LBB627:
 1670 0476 069C     		ldr	r4, [sp, #24]
 1671 0478 0C2C     		cmp	r4, #12
 1672 047a 00F0C184 		beq	.L432
 1673              	.L120:
 488:src/main.cpp  ****                 int z = (int)(clampf((float)tracked[i].pos/1000.0f,0.0f,1.0f) * 4.0f);
 489:src/main.cpp  ****                 if(z > 3) z = 3; vidx = MULTI_ZONES[z];
 490:src/main.cpp  ****             } else vidx = g_active_voice;
 1674              		.loc 6 490 20 view .LVU550
 1675              		.loc 6 490 25 is_stmt 0 view .LVU551
 1676 047e C54C     		ldr	r4, .L461+4
 1677              	.LBE627:
 491:src/main.cpp  ****             float rms = VOICES[vidx].retrig_ms;
 1678              		.loc 6 491 19 view .LVU552
 1679 0480 4FF08C08 		mov	r8, #140
 1680              	.LBB637:
 490:src/main.cpp  ****             float rms = VOICES[vidx].retrig_ms;
 1681              		.loc 6 490 25 view .LVU553
 1682 0484 2468     		ldr	r4, [r4]
 1683              	.LVL147:
 490:src/main.cpp  ****             float rms = VOICES[vidx].retrig_ms;
 1684              		.loc 6 490 25 view .LVU554
 1685              	.LBE637:
 1686              		.loc 6 491 19 view .LVU555
 1687 0486 08FB04A4 		mla	r4, r8, r4, r10
 1688              	.LVL148:
 1689              		.loc 6 491 19 view .LVU556
 1690 048a 94ED217A 		vldr.32	s14, [r4, #132]
 1691              	.L122:
 1692              		.loc 6 491 13 is_stmt 1 view .LVU557
 1693              	.LVL149:
 492:src/main.cpp  ****             float prs = (float)tracked[i].pressure;
 1694              		.loc 6 492 13 view .LVU558
 1695              		.loc 6 492 19 is_stmt 0 view .LVU559
 1696 048e D3ED027A 		vldr.32	s15, [r3, #8]	@ int
 1697              	.LBB638:
 493:src/main.cpp  **** 
 494:src/main.cpp  ****             if(!hit_was_alive[i]){
 1698              		.loc 6 494 13 view .LVU560
 1699 0492 2C78     		ldrb	r4, [r5]	@ zero_extendqisi2
 1700              	.LBE638:
 492:src/main.cpp  ****             float prs = (float)tracked[i].pressure;
 1701              		.loc 6 492 19 view .LVU561
 1702 0494 F8EEE77A 		vcvt.f32.s32	s15, s15
 1703              	.LVL150:
 1704              		.loc 6 494 13 is_stmt 1 view .LVU562
 1705              	.LBB641:
 1706 0498 002C     		cmp	r4, #0
 1707 049a 40F0DF84 		bne	.L123
 1708              	.L443:
 495:src/main.cpp  ****                 // Genuine new tap (after a real lift) ‚Äî fire immediately, no cap.
ARM GAS  /tmp/claude-502/cc09dAcL.s 			page 62


 496:src/main.cpp  ****                 prs_sm[i] = prs; reatk[i] = true; last_retrig[i] = now_ms;
 1709              		.loc 6 496 17 view .LVU563
 1710              		.loc 6 496 66 is_stmt 0 view .LVU564
 1711 049e 0598     		ldr	r0, [sp, #20]
 1712              	.LVL151:
 1713              		.loc 6 496 27 view .LVU565
 1714 04a0 C6ED007A 		vstr.32	s15, [r6]
 1715              		.loc 6 496 34 is_stmt 1 view .LVU566
 1716              		.loc 6 496 66 is_stmt 0 view .LVU567
 1717 04a4 CCF80000 		str	r0, [ip]
 1718              		.loc 6 496 43 view .LVU568
 1719 04a8 0120     		movs	r0, #1
 1720 04aa 8EF80000 		strb	r0, [lr]
 1721              		.loc 6 496 51 is_stmt 1 view .LVU569
 1722              	.LVL152:
 1723              	.L119:
 1724              		.loc 6 496 51 is_stmt 0 view .LVU570
 1725              	.LBE641:
 1726              	.LBE626:
 478:src/main.cpp  ****             bool raw = tracked[i].alive;
 1727              		.loc 6 478 9 is_stmt 1 discriminator 2 view .LVU571
 478:src/main.cpp  ****             bool raw = tracked[i].alive;
 1728              		.loc 6 478 26 discriminator 2 view .LVU572
 1729 04ae 1433     		adds	r3, r3, #20
 1730 04b0 BA48     		ldr	r0, .L461+12
 1731 04b2 0131     		adds	r1, r1, #1
 1732              	.LVL153:
 478:src/main.cpp  ****             bool raw = tracked[i].alive;
 1733              		.loc 6 478 26 is_stmt 0 discriminator 2 view .LVU573
 1734 04b4 0436     		adds	r6, r6, #4
 1735 04b6 9842     		cmp	r0, r3
 1736 04b8 0EF1010E 		add	lr, lr, #1
 1737 04bc 0CF1040C 		add	ip, ip, #4
 1738 04c0 05F10105 		add	r5, r5, #1
 1739 04c4 02F10402 		add	r2, r2, #4
 1740 04c8 CDD1     		bne	.L128
 1741              	.LBE651:
 1742              	.LBB652:
 497:src/main.cpp  ****             } else if(raw){
 498:src/main.cpp  ****                 // Held: re-attack on a sharp pressure rise, capped by retrig_ms.
 499:src/main.cpp  ****                 float prev = prs_sm[i];
 500:src/main.cpp  ****                 prs_sm[i] = prev*PRS_SMOOTH + prs*(1.0f - PRS_SMOOTH);
 501:src/main.cpp  ****                 if(rms > 0.0f && (prs_sm[i] - prev) > RISE_THRESH
 502:src/main.cpp  ****                    && (int32_t)(now_ms - last_retrig[i]) >= (int32_t)rms){
 503:src/main.cpp  ****                     reatk[i] = true; last_retrig[i] = now_ms;
 504:src/main.cpp  ****                 }
 505:src/main.cpp  ****             }
 506:src/main.cpp  ****         }
 507:src/main.cpp  **** 
 508:src/main.cpp  ****         if(multi){
 1743              		.loc 6 508 9 view .LVU574
 1744 04ca 069B     		ldr	r3, [sp, #24]
 1745 04cc 099C     		ldr	r4, [sp, #36]
 1746              	.LBE652:
 1747              		.loc 6 508 9 is_stmt 1 view .LVU575
 1748              	.LBB698:
 1749 04ce 0C2B     		cmp	r3, #12
ARM GAS  /tmp/claude-502/cc09dAcL.s 			page 63


 1750 04d0 00F0C587 		beq	.L433
 509:src/main.cpp  ****             // Poly drums: each finger drives its own slot.
 510:src/main.cpp  ****             for(int i = 0; i < POLY; i++){
 511:src/main.cpp  ****                 if(reatk[i])                                  trigger_drum(i, tracked[i].pos, track
 512:src/main.cpp  ****                 else if(!deb_alive[i] && hit_was_alive[i])    g_hits[i].gate = false;  // lifted ‚Ü
 513:src/main.cpp  ****             }
 514:src/main.cpp  ****             g_amp_target = 0.0f;   // mono engine silent; the poly drums play in the callback
 515:src/main.cpp  ****         } else {
 516:src/main.cpp  ****             // Mono: a re-attack mid-note re-articulates it (initial touch is
 517:src/main.cpp  ****             // handled by the amp gate below).
 518:src/main.cpp  ****             if(reatk[0] && hit_was_alive[0]) g_retrig = true;
 1751              		.loc 6 518 13 view .LVU576
 1752 04d4 9DF86830 		ldrb	r3, [sp, #104]	@ zero_extendqisi2
 1753 04d8 2BB1     		cbz	r3, .L138
 1754              		.loc 6 518 25 is_stmt 0 discriminator 1 view .LVU577
 1755 04da 9DF86430 		ldrb	r3, [sp, #100]	@ zero_extendqisi2
 1756 04de 13B1     		cbz	r3, .L138
 1757              		.loc 6 518 46 is_stmt 1 discriminator 2 view .LVU578
 1758              		.loc 6 518 55 is_stmt 0 discriminator 2 view .LVU579
 1759 04e0 0123     		movs	r3, #1
 1760 04e2 AF4A     		ldr	r2, .L461+16
 1761 04e4 1370     		strb	r3, [r2]
 1762              	.L138:
 1763              	.LVL154:
 1764              		.loc 6 518 55 discriminator 2 view .LVU580
 1765              	.LBE698:
 1766              	.LBB699:
 519:src/main.cpp  ****         }
 520:src/main.cpp  **** 
 521:src/main.cpp  ****         for(int i = 0; i < MAX_FINGERS; i++) hit_was_alive[i] = deb_alive[i];
 1767              		.loc 6 521 26 is_stmt 1 view .LVU581
 1768              		.loc 6 521 46 view .LVU582
 1769              		.loc 6 521 63 is_stmt 0 view .LVU583
 1770 04e6 9DF8F430 		ldrb	r3, [sp, #244]	@ zero_extendqisi2
 1771 04ea 8DF86430 		strb	r3, [sp, #100]
 1772              		.loc 6 521 9 is_stmt 1 view .LVU584
 1773              	.LVL155:
 1774              		.loc 6 521 26 view .LVU585
 1775              		.loc 6 521 46 view .LVU586
 1776              		.loc 6 521 63 is_stmt 0 view .LVU587
 1777 04ee 9DF8F530 		ldrb	r3, [sp, #245]	@ zero_extendqisi2
 1778 04f2 8DF86530 		strb	r3, [sp, #101]
 1779              		.loc 6 521 9 is_stmt 1 view .LVU588
 1780              	.LVL156:
 1781              		.loc 6 521 26 view .LVU589
 1782              		.loc 6 521 46 view .LVU590
 1783              		.loc 6 521 63 is_stmt 0 view .LVU591
 1784 04f6 9DF8F630 		ldrb	r3, [sp, #246]	@ zero_extendqisi2
 1785 04fa 8DF86630 		strb	r3, [sp, #102]
 1786              		.loc 6 521 9 is_stmt 1 view .LVU592
 1787              	.LVL157:
 1788              		.loc 6 521 26 view .LVU593
 1789              		.loc 6 521 46 view .LVU594
 1790              		.loc 6 521 63 is_stmt 0 view .LVU595
 1791 04fe 9DF8F730 		ldrb	r3, [sp, #247]	@ zero_extendqisi2
 1792 0502 8DF86730 		strb	r3, [sp, #103]
 1793              		.loc 6 521 9 is_stmt 1 view .LVU596
ARM GAS  /tmp/claude-502/cc09dAcL.s 			page 64


 1794              	.LVL158:
 1795              		.loc 6 521 26 view .LVU597
 1796              	.LBE699:
 522:src/main.cpp  **** 
 523:src/main.cpp  ****         // Bind the active voice (last-hit drum in MultiVoice mode) for finger-2 / header.
 524:src/main.cpp  ****         const Voice& VOICE = VOICES[g_active_voice];
 1797              		.loc 6 524 9 view .LVU598
 1798              		.loc 6 524 37 is_stmt 0 view .LVU599
 1799 0506 A34B     		ldr	r3, .L461+4
 1800 0508 1D68     		ldr	r5, [r3]
 1801              	.LVL159:
 525:src/main.cpp  **** 
 526:src/main.cpp  ****         if(f1_on && !multi)
 1802              		.loc 6 526 9 is_stmt 1 view .LVU600
 1803              	.LBB700:
 1804 050a 079B     		ldr	r3, [sp, #28]
 1805 050c 002B     		cmp	r3, #0
 1806 050e 00F03486 		beq	.L434
 1807              	.LBB701:
 527:src/main.cpp  ****         {
 528:src/main.cpp  ****             float pos01 = clampf((float)tracked[0].pos / 1000.0f, 0.0f, 1.0f);
 1808              		.loc 6 528 13 view .LVU601
 1809              		.loc 6 528 34 is_stmt 0 view .LVU602
 1810 0512 D9ED017A 		vldr.32	s15, [r9, #4]	@ int
 1811              		.loc 6 528 33 view .LVU603
 1812 0516 DFEDA36A 		vldr.32	s13, .L461+20
 1813              		.loc 6 528 34 view .LVU604
 1814 051a F8EEE77A 		vcvt.f32.s32	s15, s15
 1815              		.loc 6 528 33 view .LVU605
 1816 051e 87EEA67A 		vdiv.f32	s14, s15, s13
 1817              	.LVL160:
 1818              	.LBB702:
 1819              	.LBI702:
 1820              		.file 9 "src/dsp.h"
   1:src/dsp.h     **** #pragma once
   2:src/dsp.h     **** // Pure DSP/math primitives ‚Äî no hardware, no global state (except moog()
   3:src/dsp.h     **** // which lives in the engine). Header-only & inline for the audio hot path.
   4:src/dsp.h     **** #include <math.h>
   5:src/dsp.h     **** 
   6:src/dsp.h     **** // Oscillator shape ‚Äî set per oscillator, so one voice can mix (e.g. saw root +
   7:src/dsp.h     **** // square fifth + sine sub). SQUARE and SAW are naive (not band-limited) ‚Äî they
   8:src/dsp.h     **** // alias at high pitch, but on a low bass voice that just reads as rich harmonics
   9:src/dsp.h     **** // for the filter to chew.
  10:src/dsp.h     **** enum Waveform { WAVE_TRI, WAVE_SINE, WAVE_SQUARE, WAVE_SAW };
  11:src/dsp.h     **** 
  12:src/dsp.h     **** static inline float clampf(float v,float lo,float hi){
 1821              		.loc 9 12 21 is_stmt 1 view .LVU606
 1822              	.LBB703:
  13:src/dsp.h     ****     return v<lo?lo:v>hi?hi:v;
 1823              		.loc 9 13 5 view .LVU607
 1824              		.loc 9 13 16 is_stmt 0 view .LVU608
 1825 0522 B5EEC07A 		vcmpe.f32	s14, #0
 1826 0526 F1EE10FA 		vmrs	APSR_nzcv, FPSCR
 1827 052a 00F19886 		bmi	.L265
 1828              		.loc 9 13 24 view .LVU609
 1829 052e F7EE007A 		vmov.f32	s15, #1.0e+0
 1830 0532 B4EE677A 		vcmp.f32	s14, s15
ARM GAS  /tmp/claude-502/cc09dAcL.s 			page 65


 1831 0536 F1EE10FA 		vmrs	APSR_nzcv, FPSCR
 1832 053a 37FE877A 		vselgt.f32	s14, s15, s14
 1833              	.LVL161:
 1834              	.L139:
 1835              		.loc 9 13 24 view .LVU610
 1836              	.LBE703:
 1837              	.LBE702:
 529:src/main.cpp  ****             float prs01 = clampf((float)tracked[0].pressure / 100.0f, 0.0f, 1.0f); // hard clamp
 1838              		.loc 6 529 13 is_stmt 1 view .LVU611
 1839              		.loc 6 529 34 is_stmt 0 view .LVU612
 1840 053e D9ED027A 		vldr.32	s15, [r9, #8]	@ int
 1841              		.loc 6 529 33 view .LVU613
 1842 0542 DFEDA86A 		vldr.32	s13, .L461+84
 1843              		.loc 6 529 34 view .LVU614
 1844 0546 F8EEE77A 		vcvt.f32.s32	s15, s15
 1845              		.loc 6 529 33 view .LVU615
 1846 054a C7EEA6BA 		vdiv.f32	s23, s15, s13
 1847              	.LVL162:
 1848              	.LBB705:
 1849              	.LBI705:
  12:src/dsp.h     ****     return v<lo?lo:v>hi?hi:v;
 1850              		.loc 9 12 21 is_stmt 1 view .LVU616
 1851              	.LBB706:
 1852              		.loc 9 13 5 view .LVU617
 1853              		.loc 9 13 16 is_stmt 0 view .LVU618
 1854 054e F5EEC0BA 		vcmpe.f32	s23, #0
 1855 0552 F1EE10FA 		vmrs	APSR_nzcv, FPSCR
 1856 0556 00F17E86 		bmi	.L267
 1857              		.loc 9 13 24 view .LVU619
 1858 055a F7EE007A 		vmov.f32	s15, #1.0e+0
 1859 055e F4EE67BA 		vcmp.f32	s23, s15
 1860 0562 F1EE10FA 		vmrs	APSR_nzcv, FPSCR
 1861 0566 77FEABBA 		vselgt.f32	s23, s15, s23
 1862              	.LVL163:
 1863              	.L140:
 1864              		.loc 9 13 24 view .LVU620
 1865              	.LBE706:
 1866              	.LBE705:
 530:src/main.cpp  **** 
 531:src/main.cpp  ****             // ‚îÄ‚îÄ Direct exponential frequency mapping across the voice range ‚îÄ‚îÄ
 532:src/main.cpp  ****             // freq = freq_low * (freq_high/freq_low)^pos01
 533:src/main.cpp  ****             //      = freq_low * e^(pos01 * log_freq_ratio)
 534:src/main.cpp  ****             float earg = pos01 * VOICE.log_freq_ratio;
 1867              		.loc 6 534 13 is_stmt 1 view .LVU621
 1868              		.loc 6 534 40 is_stmt 0 view .LVU622
 1869 056a 8C23     		movs	r3, #140
 535:src/main.cpp  ****             float ex   = 1.0f + earg*(1.0f + earg*(0.5f + earg*0.1667f));
 1870              		.loc 6 535 57 view .LVU623
 1871 056c F6EE006A 		vmov.f32	s13, #5.0e-1
 1872 0570 9FED8D6A 		vldr.32	s12, .L461+24
 1873              		.loc 6 535 44 view .LVU624
 1874 0574 F7EE007A 		vmov.f32	s15, #1.0e+0
 534:src/main.cpp  ****             float ex   = 1.0f + earg*(1.0f + earg*(0.5f + earg*0.1667f));
 1875              		.loc 6 534 40 view .LVU625
 1876 0578 03FB05A3 		mla	r3, r3, r5, r10
 534:src/main.cpp  ****             float ex   = 1.0f + earg*(1.0f + earg*(0.5f + earg*0.1667f));
 1877              		.loc 6 534 19 view .LVU626
ARM GAS  /tmp/claude-502/cc09dAcL.s 			page 66


 1878 057c D3ED035A 		vldr.32	s11, [r3, #12]
 536:src/main.cpp  ****             float freq_continuous = clampf(VOICE.freq_low * ex, VOICE.freq_low, VOICE.freq_high);
 1879              		.loc 6 536 50 view .LVU627
 1880 0580 93ED01BA 		vldr.32	s22, [r3, #4]
 534:src/main.cpp  ****             float ex   = 1.0f + earg*(1.0f + earg*(0.5f + earg*0.1667f));
 1881              		.loc 6 534 19 view .LVU628
 1882 0584 27EE257A 		vmul.f32	s14, s14, s11
 1883              	.LVL164:
 535:src/main.cpp  ****             float ex   = 1.0f + earg*(1.0f + earg*(0.5f + earg*0.1667f));
 1884              		.loc 6 535 13 is_stmt 1 view .LVU629
 1885              		.loc 6 536 87 is_stmt 0 view .LVU630
 1886 0588 93ED02CA 		vldr.32	s24, [r3, #8]
 535:src/main.cpp  ****             float ex   = 1.0f + earg*(1.0f + earg*(0.5f + earg*0.1667f));
 1887              		.loc 6 535 57 view .LVU631
 1888 058c E7EE066A 		vfma.f32	s13, s14, s12
 535:src/main.cpp  ****             float ex   = 1.0f + earg*(1.0f + earg*(0.5f + earg*0.1667f));
 1889              		.loc 6 535 44 view .LVU632
 1890 0590 B0EE676A 		vmov.f32	s12, s15
 1891 0594 A6EE876A 		vfma.f32	s12, s13, s14
 535:src/main.cpp  ****             float ex   = 1.0f + earg*(1.0f + earg*(0.5f + earg*0.1667f));
 1892              		.loc 6 535 19 view .LVU633
 1893 0598 E6EE077A 		vfma.f32	s15, s12, s14
 1894              	.LVL165:
 1895              		.loc 6 536 13 is_stmt 1 view .LVU634
 1896              		.loc 6 536 43 is_stmt 0 view .LVU635
 1897 059c 6BEE277A 		vmul.f32	s15, s22, s15
 1898              	.LVL166:
 1899              	.LBB708:
 1900              	.LBI708:
  12:src/dsp.h     ****     return v<lo?lo:v>hi?hi:v;
 1901              		.loc 9 12 21 is_stmt 1 view .LVU636
 1902              	.LBB709:
 1903              		.loc 9 13 5 view .LVU637
 1904              		.loc 9 13 16 is_stmt 0 view .LVU638
 1905 05a0 B4EEE7BA 		vcmpe.f32	s22, s15
 1906 05a4 F1EE10FA 		vmrs	APSR_nzcv, FPSCR
 1907 05a8 00F35D86 		bgt	.L269
 1908              		.loc 9 13 24 view .LVU639
 1909 05ac F4EE4C7A 		vcmp.f32	s15, s24
 1910 05b0 F1EE10FA 		vmrs	APSR_nzcv, FPSCR
 1911 05b4 7CFE277A 		vselgt.f32	s15, s24, s15
 1912              	.LVL167:
 1913              	.L141:
 1914              		.loc 9 13 24 view .LVU640
 1915              	.LBE709:
 1916              	.LBE708:
 537:src/main.cpp  **** 
 538:src/main.cpp  ****             // Convert to MIDI for quantizer: midi = 69 + 12*log2(freq/440)
 539:src/main.cpp  ****             // log2(x) = ln(x)/ln(2); ln approx via y=(x-1)/(x+1) series
 540:src/main.cpp  ****             float freq_ratio = freq_continuous / 440.0f;
 1917              		.loc 6 540 13 is_stmt 1 view .LVU641
 541:src/main.cpp  ****             float y = (freq_ratio - 1.0f) / (freq_ratio + 1.0f);
 1918              		.loc 6 541 13 view .LVU642
 542:src/main.cpp  ****             float y2 = y*y;
 1919              		.loc 6 542 13 view .LVU643
 543:src/main.cpp  ****             float ln_ratio = 2.0f*y*(1.0f + y2*(0.3333f + y2*0.2f));
 1920              		.loc 6 543 13 view .LVU644
ARM GAS  /tmp/claude-502/cc09dAcL.s 			page 67


 544:src/main.cpp  ****             float midi_raw = 69.0f + 17.3123f * ln_ratio; // 17.3123 = 12/ln(2)
 1921              		.loc 6 544 13 view .LVU645
 545:src/main.cpp  **** 
 546:src/main.cpp  ****             float freq; // final frequency to use
 1922              		.loc 6 546 13 view .LVU646
 547:src/main.cpp  **** 
 548:src/main.cpp  ****             if(QUANTIZE_ENABLED && VOICE.quantize && f1_fresh)
 1923              		.loc 6 548 13 view .LVU647
 1924              	.LBB711:
 1925              		.loc 6 548 42 is_stmt 0 view .LVU648
 1926 05b8 8C23     		movs	r3, #140
 1927 05ba 03FB05A3 		mla	r3, r3, r5, r10
 1928              		.loc 6 548 51 view .LVU649
 1929 05be 93F88830 		ldrb	r3, [r3, #136]	@ zero_extendqisi2
 1930 05c2 1BB1     		cbz	r3, .L142
 1931 05c4 0E9B     		ldr	r3, [sp, #56]
 1932 05c6 002B     		cmp	r3, #0
 1933 05c8 41F0AC80 		bne	.L435
 1934              	.LVL168:
 1935              	.L142:
 1936              		.loc 6 548 51 view .LVU650
 1937              	.LBE711:
 549:src/main.cpp  ****             {
 550:src/main.cpp  ****                 // Touch-down: snap to nearest chromatic note
 551:src/main.cpp  ****                 f1_midi_base = quantize_midi(midi_raw);
 552:src/main.cpp  ****                 // Convert quantized MIDI back to Hz
 553:src/main.cpp  ****                 float qe = (f1_midi_base - 69.0f) * 0.05776f;
 554:src/main.cpp  ****                 freq = clampf(440.0f*(1.0f+qe*(1.0f+qe*(0.5f+qe*0.1667f))), VOICE.freq_low, VOICE.f
 555:src/main.cpp  ****                 f1_sliding = false;
 556:src/main.cpp  ****             }
 557:src/main.cpp  ****             else
 558:src/main.cpp  ****             {
 559:src/main.cpp  ****                 // Sliding or quantize disabled: follow continuous frequency directly
 560:src/main.cpp  ****                 f1_midi_base = f1_midi_base*0.88f + midi_raw*0.12f;
 561:src/main.cpp  ****                 freq = freq_continuous;
 562:src/main.cpp  ****                 f1_sliding = true;
 563:src/main.cpp  ****             }
 564:src/main.cpp  ****             freq = clampf(freq, VOICE.freq_low, VOICE.freq_high);
 1938              		.loc 6 564 13 is_stmt 1 view .LVU651
 1939              	.LBB721:
 1940              	.LBI721:
  12:src/dsp.h     ****     return v<lo?lo:v>hi?hi:v;
 1941              		.loc 9 12 21 view .LVU652
 1942              	.LBB722:
 1943              		.loc 9 13 5 view .LVU653
 1944              		.loc 9 13 16 is_stmt 0 view .LVU654
 1945 05cc B4EEE7BA 		vcmpe.f32	s22, s15
 1946 05d0 F1EE10FA 		vmrs	APSR_nzcv, FPSCR
 1947 05d4 40F31E86 		ble	.L143
 1948              	.LBE722:
 1949              	.LBE721:
 1950              	.LBB726:
 1951              	.LBB727:
 565:src/main.cpp  **** 
 566:src/main.cpp  ****             // Cutoff: base tracks 2√ó pitch, pressure opens it up
 567:src/main.cpp  ****             // Light press = 1√ó pitch (dark, Moog-like tracking)
 568:src/main.cpp  ****             // Hard press = up to 12000 Hz (wide open)
ARM GAS  /tmp/claude-502/cc09dAcL.s 			page 68


 569:src/main.cpp  ****             // ‚îÄ‚îÄ Moog-style exponential cutoff ‚îÄ‚îÄ‚îÄ‚îÄ‚îÄ‚îÄ‚îÄ‚îÄ‚îÄ‚îÄ‚îÄ‚îÄ‚îÄ‚îÄ‚îÄ‚î
 570:src/main.cpp  ****             // At zero pressure: cutoff = 0.5x pitch (below fundamental, very dark)
 571:src/main.cpp  ****             // At full pressure: cutoff = 0.5x * 2^(6*prs) ‚Äî exponential opening
 572:src/main.cpp  ****             // 6 octaves of sweep = factor of 64x, so fully open = 32x pitch
 573:src/main.cpp  ****             // This gives the classic Moog "closed ‚Üí wah ‚Üí bright" feel.
 574:src/main.cpp  ****             // Power-3 on pressure so the bottom half stays dark and controlled.
 575:src/main.cpp  ****             // ‚îÄ‚îÄ Smootherstep pressure curves (6x‚Åµ - 15x‚Å¥ + 10x¬≥) ‚îÄ‚îÄ‚îÄ‚îÄ‚îÄ‚îÄ‚îÄ‚î
 576:src/main.cpp  ****             // Starts slow, steep in the middle, eases gently at the top.
 577:src/main.cpp  ****             // Much more playable than power curves ‚Äî feels like a real knob.
 578:src/main.cpp  ****             auto smoothstep = [](float x) -> float {
 579:src/main.cpp  ****                 x = x<0?0:x>1?1:x;
 580:src/main.cpp  ****                 return x*x*(3.0f - 2.0f*x);
 581:src/main.cpp  ****             };
 582:src/main.cpp  ****             auto smootherstep = [](float x) -> float {
 583:src/main.cpp  ****                 x = x<0?0:x>1?1:x;
 1952              		.loc 6 583 24 view .LVU655
 1953 05d8 F5EEC0BA 		vcmpe.f32	s23, #0
 1954              	.LBE727:
 1955              	.LBE726:
 1956              	.LBB731:
 1957              	.LBB723:
 1958              		.loc 9 13 16 view .LVU656
 1959 05dc B0EE4BCA 		vmov.f32	s24, s22
 1960              	.LVL169:
 1961              		.loc 9 13 16 view .LVU657
 1962              	.LBE723:
 1963              	.LBE731:
 578:src/main.cpp  ****                 x = x<0?0:x>1?1:x;
 1964              		.loc 6 578 13 is_stmt 1 view .LVU658
 582:src/main.cpp  ****                 x = x<0?0:x>1?1:x;
 1965              		.loc 6 582 13 view .LVU659
 584:src/main.cpp  ****                 return x*x*x*(x*(x*6.0f - 15.0f) + 10.0f);
 585:src/main.cpp  ****             };
 586:src/main.cpp  **** 
 587:src/main.cpp  ****             // Cutoff: smootherstep ‚Äî very dark at low, dramatic in mid, eases at top.
 588:src/main.cpp  ****             // Base cutoff and sweep depth are voice-defined.
 589:src/main.cpp  ****             float prs_cut  = smootherstep(prs01);
 1966              		.loc 6 589 13 view .LVU660
 1967              	.LBB732:
 1968              	.LBI726:
 582:src/main.cpp  ****                 x = x<0?0:x>1?1:x;
 1969              		.loc 6 582 33 view .LVU661
 1970              	.LBB728:
 583:src/main.cpp  ****                 return x*x*x*(x*(x*6.0f - 15.0f) + 10.0f);
 1971              		.loc 6 583 17 view .LVU662
 583:src/main.cpp  ****                 return x*x*x*(x*(x*6.0f - 15.0f) + 10.0f);
 1972              		.loc 6 583 24 is_stmt 0 view .LVU663
 1973 05e0 F1EE10FA 		vmrs	APSR_nzcv, FPSCR
 1974 05e4 00F12386 		bmi	.L274
 1975              	.LVL170:
 1976              	.L448:
 583:src/main.cpp  ****                 return x*x*x*(x*(x*6.0f - 15.0f) + 10.0f);
 1977              		.loc 6 583 30 view .LVU664
 1978 05e8 F7EE007A 		vmov.f32	s15, #1.0e+0
 1979 05ec F4EEE7BA 		vcmpe.f32	s23, s15
 1980 05f0 F1EE10FA 		vmrs	APSR_nzcv, FPSCR
 1981 05f4 0FDC     		bgt	.L145
ARM GAS  /tmp/claude-502/cc09dAcL.s 			page 69


 584:src/main.cpp  ****                 return x*x*x*(x*(x*6.0f - 15.0f) + 10.0f);
 1982              		.loc 6 584 41 view .LVU665
 1983 05f6 B1EE086A 		vmov.f32	s12, #6.0e+0
 1984 05fa FAEE0E6A 		vmov.f32	s13, #-1.5e+1
 584:src/main.cpp  ****                 return x*x*x*(x*(x*6.0f - 15.0f) + 10.0f);
 1985              		.loc 6 584 50 view .LVU666
 1986 05fe F2EE047A 		vmov.f32	s15, #1.0e+1
 584:src/main.cpp  ****                 return x*x*x*(x*(x*6.0f - 15.0f) + 10.0f);
 1987              		.loc 6 584 25 view .LVU667
 1988 0602 2BEEAB7A 		vmul.f32	s14, s23, s23
 584:src/main.cpp  ****                 return x*x*x*(x*(x*6.0f - 15.0f) + 10.0f);
 1989              		.loc 6 584 41 view .LVU668
 1990 0606 EBEE866A 		vfma.f32	s13, s23, s12
 584:src/main.cpp  ****                 return x*x*x*(x*(x*6.0f - 15.0f) + 10.0f);
 1991              		.loc 6 584 27 view .LVU669
 1992 060a 27EE2B7A 		vmul.f32	s14, s14, s23
 584:src/main.cpp  ****                 return x*x*x*(x*(x*6.0f - 15.0f) + 10.0f);
 1993              		.loc 6 584 50 view .LVU670
 1994 060e EBEEA67A 		vfma.f32	s15, s23, s13
 584:src/main.cpp  ****                 return x*x*x*(x*(x*6.0f - 15.0f) + 10.0f);
 1995              		.loc 6 584 57 view .LVU671
 1996 0612 67EE277A 		vmul.f32	s15, s14, s15
 1997              	.L145:
 1998              	.LVL171:
 584:src/main.cpp  ****                 return x*x*x*(x*(x*6.0f - 15.0f) + 10.0f);
 1999              		.loc 6 584 17 is_stmt 1 view .LVU672
 584:src/main.cpp  ****                 return x*x*x*(x*(x*6.0f - 15.0f) + 10.0f);
 2000              		.loc 6 584 17 is_stmt 0 view .LVU673
 2001              	.LBE728:
 2002              	.LBE732:
 590:src/main.cpp  ****             float cutoff_oct = VOICE.cutoff_oct_max * prs_cut;
 2003              		.loc 6 590 13 is_stmt 1 view .LVU674
 591:src/main.cpp  ****             float oct_arg  = cutoff_oct * 0.6931f;
 2004              		.loc 6 591 13 view .LVU675
 590:src/main.cpp  ****             float cutoff_oct = VOICE.cutoff_oct_max * prs_cut;
 2005              		.loc 6 590 38 is_stmt 0 view .LVU676
 2006 0616 8C23     		movs	r3, #140
 2007              		.loc 6 591 19 view .LVU677
 2008 0618 DFED644A 		vldr.32	s9, .L461+28
 592:src/main.cpp  ****             float oct_mult = 1.0f + oct_arg*(1.0f + oct_arg*(0.5f + oct_arg*(0.1667f + oct_arg*0.04
 2009              		.loc 6 592 86 view .LVU678
 2010 061c 9FED645A 		vldr.32	s10, .L461+32
 2011              		.loc 6 592 67 view .LVU679
 2012 0620 F6EE006A 		vmov.f32	s13, #5.0e-1
 590:src/main.cpp  ****             float cutoff_oct = VOICE.cutoff_oct_max * prs_cut;
 2013              		.loc 6 590 38 view .LVU680
 2014 0624 03FB05A3 		mla	r3, r3, r5, r10
 2015              		.loc 6 592 86 view .LVU681
 2016 0628 9FED5F6A 		vldr.32	s12, .L461+24
 2017              		.loc 6 592 51 view .LVU682
 2018 062c B7EE007A 		vmov.f32	s14, #1.0e+0
 593:src/main.cpp  ****             // Keytracking: how much the cutoff base follows pitch. keytrack=1 is
 594:src/main.cpp  ****             // full tracking (cutoff ‚àù freq); <1 holds the cutoff lower as pitch
 595:src/main.cpp  ****             // rises, for a more consistent tone across the range. (constexpr ‚Üí
 596:src/main.cpp  ****             // the common keytrack=1 case folds to no powf.)
 597:src/main.cpp  ****             float track_freq = (VOICE.keytrack >= 0.999f)
 598:src/main.cpp  ****                 ? freq
ARM GAS  /tmp/claude-502/cc09dAcL.s 			page 70


 2019              		.loc 6 598 17 view .LVU683
 2020 0630 DFED605A 		vldr.32	s11, .L461+36
 590:src/main.cpp  ****             float oct_arg  = cutoff_oct * 0.6931f;
 2021              		.loc 6 590 19 view .LVU684
 2022 0634 93ED114A 		vldr.32	s8, [r3, #68]
 597:src/main.cpp  ****                 ? freq
 2023              		.loc 6 597 39 view .LVU685
 2024 0638 D3ED150A 		vldr.32	s1, [r3, #84]
 590:src/main.cpp  ****             float oct_arg  = cutoff_oct * 0.6931f;
 2025              		.loc 6 590 19 view .LVU686
 2026 063c 67EE847A 		vmul.f32	s15, s15, s8
 2027              	.LVL172:
 2028              		.loc 6 598 17 view .LVU687
 2029 0640 F4EEE50A 		vcmpe.f32	s1, s11
 591:src/main.cpp  ****             float oct_mult = 1.0f + oct_arg*(1.0f + oct_arg*(0.5f + oct_arg*(0.1667f + oct_arg*0.04
 2030              		.loc 6 591 19 view .LVU688
 2031 0644 67EEA47A 		vmul.f32	s15, s15, s9
 2032              	.LVL173:
 592:src/main.cpp  ****             // Keytracking: how much the cutoff base follows pitch. keytrack=1 is
 2033              		.loc 6 592 13 is_stmt 1 view .LVU689
 2034              		.loc 6 598 17 is_stmt 0 view .LVU690
 2035 0648 F1EE10FA 		vmrs	APSR_nzcv, FPSCR
 592:src/main.cpp  ****             // Keytracking: how much the cutoff base follows pitch. keytrack=1 is
 2036              		.loc 6 592 86 view .LVU691
 2037 064c A7EE856A 		vfma.f32	s12, s15, s10
 592:src/main.cpp  ****             // Keytracking: how much the cutoff base follows pitch. keytrack=1 is
 2038              		.loc 6 592 67 view .LVU692
 2039 0650 E6EE276A 		vfma.f32	s13, s12, s15
 592:src/main.cpp  ****             // Keytracking: how much the cutoff base follows pitch. keytrack=1 is
 2040              		.loc 6 592 51 view .LVU693
 2041 0654 B0EE476A 		vmov.f32	s12, s14
 2042 0658 A6EEA76A 		vfma.f32	s12, s13, s15
 592:src/main.cpp  ****             // Keytracking: how much the cutoff base follows pitch. keytrack=1 is
 2043              		.loc 6 592 19 view .LVU694
 2044 065c A6EE277A 		vfma.f32	s14, s12, s15
 2045 0660 F0EE47CA 		vmov.f32	s25, s14
 2046              	.LVL174:
 597:src/main.cpp  ****                 ? freq
 2047              		.loc 6 597 13 is_stmt 1 view .LVU695
 2048              		.loc 6 598 17 is_stmt 0 view .LVU696
 2049 0664 C0F2F386 		blt	.L436
 2050 0668 B0EE4CBA 		vmov.f32	s22, s24
 2051              	.LVL175:
 2052              	.L146:
 599:src/main.cpp  ****                 : VOICE.freq_low * powf(freq / VOICE.freq_low, VOICE.keytrack);
 600:src/main.cpp  ****             float cutoff   = clampf(track_freq * VOICE.cutoff_mult * oct_mult, 20.0f, 18000.0f);
 2053              		.loc 6 600 13 is_stmt 1 view .LVU697
 2054              		.loc 6 600 56 is_stmt 0 view .LVU698
 2055 066c 8C23     		movs	r3, #140
 2056              	.LBB733:
 2057              	.LBB734:
 2058              		.loc 9 13 16 view .LVU699
 2059 066e F3EE047A 		vmov.f32	s15, #2.0e+1
 2060              	.LBE734:
 2061              	.LBE733:
 2062              		.loc 6 600 56 view .LVU700
 2063 0672 03FB05A3 		mla	r3, r3, r5, r10
ARM GAS  /tmp/claude-502/cc09dAcL.s 			page 71


 2064              		.loc 6 600 48 view .LVU701
 2065 0676 93ED107A 		vldr.32	s14, [r3, #64]
 2066 067a 2BEE07BA 		vmul.f32	s22, s22, s14
 2067              	.LVL176:
 2068              		.loc 6 600 36 view .LVU702
 2069 067e 2BEE2CBA 		vmul.f32	s22, s22, s25
 2070              	.LVL177:
 2071              	.LBB737:
 2072              	.LBI733:
  12:src/dsp.h     ****     return v<lo?lo:v>hi?hi:v;
 2073              		.loc 9 12 21 is_stmt 1 view .LVU703
 2074              	.LBB735:
 2075              		.loc 9 13 5 view .LVU704
 2076              		.loc 9 13 16 is_stmt 0 view .LVU705
 2077 0682 B4EEE7BA 		vcmpe.f32	s22, s15
 2078 0686 F1EE10FA 		vmrs	APSR_nzcv, FPSCR
 2079 068a 00F1E085 		bmi	.L277
 2080              		.loc 9 13 24 view .LVU706
 2081 068e DFED4A7A 		vldr.32	s15, .L461+40
 2082 0692 B4EE67BA 		vcmp.f32	s22, s15
 2083 0696 F1EE10FA 		vmrs	APSR_nzcv, FPSCR
 2084 069a 37FE8BBA 		vselgt.f32	s22, s15, s22
 2085              	.LVL178:
 2086              	.L147:
 2087              		.loc 9 13 24 view .LVU707
 2088              	.LBE735:
 2089              	.LBE737:
 601:src/main.cpp  **** 
 602:src/main.cpp  ****             // Vibrato: smoothstep, only activates above 60% pressure
 603:src/main.cpp  ****             float vib_in = clampf((prs01 - 0.6f) / 0.4f, 0.0f, 1.0f);
 2090              		.loc 6 603 13 is_stmt 1 view .LVU708
 2091              		.loc 6 603 42 is_stmt 0 view .LVU709
 2092 069e DFED477A 		vldr.32	s15, .L461+44
 2093              		.loc 6 603 34 view .LVU710
 2094 06a2 DFED476A 		vldr.32	s13, .L461+48
 2095              		.loc 6 603 42 view .LVU711
 2096 06a6 7BEEE77A 		vsub.f32	s15, s23, s15
 2097              		.loc 6 603 34 view .LVU712
 2098 06aa 87EEA67A 		vdiv.f32	s14, s15, s13
 2099              	.LVL179:
 2100              	.LBB738:
 2101              	.LBI738:
  12:src/dsp.h     ****     return v<lo?lo:v>hi?hi:v;
 2102              		.loc 9 12 21 is_stmt 1 view .LVU713
 2103              	.LBB739:
 2104              		.loc 9 13 5 view .LVU714
 2105              		.loc 9 13 16 is_stmt 0 view .LVU715
 2106 06ae B5EEC07A 		vcmpe.f32	s14, #0
 2107 06b2 F1EE10FA 		vmrs	APSR_nzcv, FPSCR
 2108 06b6 00F1BE85 		bmi	.L279
 2109              		.loc 9 13 24 view .LVU716
 2110 06ba F7EE007A 		vmov.f32	s15, #1.0e+0
 2111 06be B4EEE77A 		vcmpe.f32	s14, s15
 2112 06c2 F1EE10FA 		vmrs	APSR_nzcv, FPSCR
 2113 06c6 01F3A180 		bgt	.L280
 2114              	.LVL180:
 2115              		.loc 9 13 24 view .LVU717
ARM GAS  /tmp/claude-502/cc09dAcL.s 			page 72


 2116              	.LBE739:
 2117              	.LBE738:
 604:src/main.cpp  ****             float vib    = smoothstep(vib_in) * 0.8f;
 2118              		.loc 6 604 13 is_stmt 1 view .LVU718
 2119              	.LBB742:
 2120              	.LBI742:
 578:src/main.cpp  ****                 x = x<0?0:x>1?1:x;
 2121              		.loc 6 578 31 view .LVU719
 2122              	.LBB743:
 579:src/main.cpp  ****                 return x*x*(3.0f - 2.0f*x);
 2123              		.loc 6 579 17 view .LVU720
 580:src/main.cpp  ****             };
 2124              		.loc 6 580 34 is_stmt 0 view .LVU721
 2125 06ca B0EE006A 		vmov.f32	s12, #2.0e+0
 2126              	.LBE743:
 2127              	.LBE742:
 2128              		.loc 6 604 49 view .LVU722
 2129 06ce DFED3D6A 		vldr.32	s13, .L461+52
 2130              	.LBB747:
 2131              	.LBB744:
 580:src/main.cpp  ****             };
 2132              		.loc 6 580 34 view .LVU723
 2133 06d2 F0EE087A 		vmov.f32	s15, #3.0e+0
 580:src/main.cpp  ****             };
 2134              		.loc 6 580 25 view .LVU724
 2135 06d6 27EE07DA 		vmul.f32	s26, s14, s14
 580:src/main.cpp  ****             };
 2136              		.loc 6 580 34 view .LVU725
 2137 06da E7EE467A 		vfms.f32	s15, s14, s12
 580:src/main.cpp  ****             };
 2138              		.loc 6 580 42 view .LVU726
 2139 06de 2DEE27DA 		vmul.f32	s26, s26, s15
 2140              	.LBE744:
 2141              	.LBE747:
 2142              		.loc 6 604 49 view .LVU727
 2143 06e2 2DEE26DA 		vmul.f32	s26, s26, s13
 2144              	.LVL181:
 2145              	.L148:
 2146              	.LBB748:
 2147              	.LBB745:
 580:src/main.cpp  ****             };
 2148              		.loc 6 580 17 is_stmt 1 view .LVU728
 580:src/main.cpp  ****             };
 2149              		.loc 6 580 17 is_stmt 0 view .LVU729
 2150              	.LBE745:
 2151              	.LBE748:
 605:src/main.cpp  **** 
 606:src/main.cpp  ****             // Drive: smoothstep ‚Äî clean at low, progressively warmer (voice-defined max)
 607:src/main.cpp  ****             float drive = 1.0f + smoothstep(prs01) * VOICE.drive_max;
 2152              		.loc 6 607 13 is_stmt 1 view .LVU730
 2153              	.LBB749:
 2154              	.LBI749:
 578:src/main.cpp  ****                 x = x<0?0:x>1?1:x;
 2155              		.loc 6 578 31 view .LVU731
 2156              	.LBB750:
 579:src/main.cpp  ****                 return x*x*(3.0f - 2.0f*x);
 2157              		.loc 6 579 17 view .LVU732
ARM GAS  /tmp/claude-502/cc09dAcL.s 			page 73


 579:src/main.cpp  ****                 return x*x*(3.0f - 2.0f*x);
 2158              		.loc 6 579 24 is_stmt 0 view .LVU733
 2159 06e6 F5EEC0BA 		vcmpe.f32	s23, #0
 2160 06ea F1EE10FA 		vmrs	APSR_nzcv, FPSCR
 2161 06ee 00F1AA85 		bmi	.L281
 2162              	.L449:
 579:src/main.cpp  ****                 return x*x*(3.0f - 2.0f*x);
 2163              		.loc 6 579 30 view .LVU734
 2164 06f2 F7EE007A 		vmov.f32	s15, #1.0e+0
 2165 06f6 F4EEE7BA 		vcmpe.f32	s23, s15
 2166 06fa F1EE10FA 		vmrs	APSR_nzcv, FPSCR
 2167 06fe 09DC     		bgt	.L149
 580:src/main.cpp  ****             };
 2168              		.loc 6 580 34 view .LVU735
 2169 0700 F0EE006A 		vmov.f32	s13, #2.0e+0
 2170 0704 B0EE087A 		vmov.f32	s14, #3.0e+0
 580:src/main.cpp  ****             };
 2171              		.loc 6 580 25 view .LVU736
 2172 0708 6BEEAB7A 		vmul.f32	s15, s23, s23
 580:src/main.cpp  ****             };
 2173              		.loc 6 580 34 view .LVU737
 2174 070c ABEEE67A 		vfms.f32	s14, s23, s13
 580:src/main.cpp  ****             };
 2175              		.loc 6 580 42 view .LVU738
 2176 0710 67EE877A 		vmul.f32	s15, s15, s14
 2177              	.L149:
 2178              	.LVL182:
 580:src/main.cpp  ****             };
 2179              		.loc 6 580 17 is_stmt 1 view .LVU739
 2180              	.LBE750:
 2181              	.LBE749:
 2182              		.loc 6 607 60 is_stmt 0 view .LVU740
 2183 0714 8C23     		movs	r3, #140
 2184 0716 F7EE00CA 		vmov.f32	s25, #1.0e+0
 2185              	.LVL183:
 2186              		.loc 6 607 60 view .LVU741
 2187 071a 03FB05A3 		mla	r3, r3, r5, r10
 2188 071e 93ED137A 		vldr.32	s14, [r3, #76]
 608:src/main.cpp  **** 
 609:src/main.cpp  ****             // ‚îÄ‚îÄ Velocity ‚Üí loudness ‚îÄ‚îÄ‚îÄ‚îÄ‚îÄ‚îÄ‚îÄ‚îÄ‚îÄ‚îÄ‚îÄ‚îÄ‚îÄ‚îÄ‚îÄ‚îÄ‚îÄ‚îÄ‚
 610:src/main.cpp  ****             // Capture peak pressure for a short window at onset, then hold it.
 611:src/main.cpp  ****             if(!f1_was_on){ vel_active = true; vel_peak = prs01; vel_start = System::GetNow(); }
 2189              		.loc 6 611 13 view .LVU742
 2190 0722 089B     		ldr	r3, [sp, #32]
 607:src/main.cpp  **** 
 2191              		.loc 6 607 60 view .LVU743
 2192 0724 E7EE27CA 		vfma.f32	s25, s14, s15
 2193              	.LVL184:
 2194              		.loc 6 611 13 is_stmt 1 view .LVU744
 2195 0728 2BB9     		cbnz	r3, .L235
 2196              		.loc 6 611 29 discriminator 1 view .LVU745
 2197              	.LVL185:
 2198              		.loc 6 611 48 discriminator 1 view .LVU746
 2199              		.loc 6 611 66 discriminator 1 view .LVU747
 612:src/main.cpp  ****             if(vel_active){
 613:src/main.cpp  ****                 if(prs01 > vel_peak) vel_peak = prs01;
 614:src/main.cpp  ****                 if(System::GetNow() - vel_start >= VEL_WINDOW_MS) vel_active = false;
ARM GAS  /tmp/claude-502/cc09dAcL.s 			page 74


 615:src/main.cpp  ****                 vel = vel_peak;
 2200              		.loc 6 615 21 is_stmt 0 discriminator 1 view .LVU748
 2201 072a B0EE6BAA 		vmov.f32	s20, s23
 2202              	.LVL186:
 611:src/main.cpp  ****             if(vel_active){
 2203              		.loc 6 611 92 discriminator 1 view .LVU749
 2204 072e FFF7FEFF 		bl	_ZN5daisy6System6GetNowEv
 2205              	.LVL187:
 612:src/main.cpp  ****             if(vel_active){
 2206              		.loc 6 612 13 is_stmt 1 discriminator 1 view .LVU750
 613:src/main.cpp  ****                 if(System::GetNow() - vel_start >= VEL_WINDOW_MS) vel_active = false;
 2207              		.loc 6 613 17 discriminator 1 view .LVU751
 614:src/main.cpp  ****                 vel = vel_peak;
 2208              		.loc 6 614 17 discriminator 1 view .LVU752
 614:src/main.cpp  ****                 vel = vel_peak;
 2209              		.loc 6 614 34 is_stmt 0 discriminator 1 view .LVU753
 2210 0732 FFF7FEFF 		bl	_ZN5daisy6System6GetNowEv
 2211              	.LVL188:
 614:src/main.cpp  ****                 vel = vel_peak;
 2212              		.loc 6 614 67 is_stmt 1 discriminator 1 view .LVU754
 2213              		.loc 6 615 17 discriminator 1 view .LVU755
 2214              	.L235:
 616:src/main.cpp  ****             }
 617:src/main.cpp  ****             float vel_scale = (1.0f - VOICE.vel_sens) + VOICE.vel_sens * vel;
 2215              		.loc 6 617 13 view .LVU756
 618:src/main.cpp  **** 
 619:src/main.cpp  ****             g_target_freq    = freq;
 2216              		.loc 6 619 30 is_stmt 0 view .LVU757
 2217 0736 244B     		ldr	r3, .L461+56
 617:src/main.cpp  **** 
 2218              		.loc 6 617 37 view .LVU758
 2219 0738 F7EE007A 		vmov.f32	s15, #1.0e+0
 620:src/main.cpp  ****             g_target_cutoff  = cutoff;
 621:src/main.cpp  ****             g_vibrato_depth  = vib;
 622:src/main.cpp  ****             g_target_drive   = drive;
 623:src/main.cpp  ****             g_finger_on      = true;
 624:src/main.cpp  ****             g_amp_target     = 0.72f * vel_scale;
 2220              		.loc 6 624 38 view .LVU759
 2221 073c DFED236A 		vldr.32	s13, .L461+60
 619:src/main.cpp  ****             g_target_cutoff  = cutoff;
 2222              		.loc 6 619 30 view .LVU760
 2223 0740 83ED00CA 		vstr.32	s24, [r3]
 620:src/main.cpp  ****             g_target_cutoff  = cutoff;
 2224              		.loc 6 620 30 view .LVU761
 2225 0744 224B     		ldr	r3, .L461+64
 623:src/main.cpp  ****             g_amp_target     = 0.72f * vel_scale;
 2226              		.loc 6 623 30 view .LVU762
 2227 0746 234A     		ldr	r2, .L461+68
 620:src/main.cpp  ****             g_target_cutoff  = cutoff;
 2228              		.loc 6 620 30 view .LVU763
 2229 0748 83ED00BA 		vstr.32	s22, [r3]
 621:src/main.cpp  ****             g_target_drive   = drive;
 2230              		.loc 6 621 30 view .LVU764
 2231 074c 224B     		ldr	r3, .L461+72
 2232 074e 83ED00DA 		vstr.32	s26, [r3]
 622:src/main.cpp  ****             g_finger_on      = true;
 2233              		.loc 6 622 30 view .LVU765
ARM GAS  /tmp/claude-502/cc09dAcL.s 			page 75


 2234 0752 224B     		ldr	r3, .L461+76
 2235 0754 C3ED00CA 		vstr.32	s25, [r3]
 617:src/main.cpp  **** 
 2236              		.loc 6 617 45 view .LVU766
 2237 0758 8C23     		movs	r3, #140
 2238 075a 03FB05A3 		mla	r3, r3, r5, r10
 2239 075e 93ED207A 		vldr.32	s14, [r3, #128]
 623:src/main.cpp  ****             g_amp_target     = 0.72f * vel_scale;
 2240              		.loc 6 623 30 view .LVU767
 2241 0762 0123     		movs	r3, #1
 617:src/main.cpp  **** 
 2242              		.loc 6 617 37 view .LVU768
 2243 0764 77EEC77A 		vsub.f32	s15, s15, s14
 623:src/main.cpp  ****             g_amp_target     = 0.72f * vel_scale;
 2244              		.loc 6 623 30 view .LVU769
 2245 0768 1370     		strb	r3, [r2]
 2246              		.loc 6 624 30 view .LVU770
 2247 076a 1D4B     		ldr	r3, .L461+80
 617:src/main.cpp  **** 
 2248              		.loc 6 617 19 view .LVU771
 2249 076c E7EE0A7A 		vfma.f32	s15, s14, s20
 2250              	.LVL189:
 619:src/main.cpp  ****             g_target_cutoff  = cutoff;
 2251              		.loc 6 619 13 is_stmt 1 view .LVU772
 620:src/main.cpp  ****             g_vibrato_depth  = vib;
 2252              		.loc 6 620 13 view .LVU773
 621:src/main.cpp  ****             g_target_drive   = drive;
 2253              		.loc 6 621 13 view .LVU774
 622:src/main.cpp  ****             g_finger_on      = true;
 2254              		.loc 6 622 13 view .LVU775
 623:src/main.cpp  ****             g_amp_target     = 0.72f * vel_scale;
 2255              		.loc 6 623 13 view .LVU776
 2256              		.loc 6 624 13 view .LVU777
 2257              		.loc 6 624 38 is_stmt 0 view .LVU778
 2258 0770 67EEA67A 		vmul.f32	s15, s15, s13
 2259              	.LVL190:
 2260              		.loc 6 624 30 view .LVU779
 2261 0774 C3ED007A 		vstr.32	s15, [r3]
 2262              		.loc 6 624 30 view .LVU780
 2263              	.LBE701:
 2264              	.LBE700:
 625:src/main.cpp  **** 
 626:src/main.cpp  ****         }
 627:src/main.cpp  ****         else if(!multi)
 628:src/main.cpp  ****         {
 629:src/main.cpp  ****             // Finger lifted: gate off, reset slide state
 630:src/main.cpp  ****             f1_sliding = false;
 631:src/main.cpp  ****             g_finger_on  = false;
 632:src/main.cpp  ****             g_amp_target = 0.0f;
 633:src/main.cpp  ****             // Do NOT reset cutoff here ‚Äî let it close with the amplitude
 634:src/main.cpp  ****             // in the audio callback to avoid discontinuity clicks
 635:src/main.cpp  ****         }
 636:src/main.cpp  **** 
 637:src/main.cpp  ****         // ‚îÄ‚îÄ LED targets + slew ‚îÄ‚îÄ‚îÄ‚îÄ‚îÄ‚îÄ‚îÄ‚îÄ‚îÄ‚îÄ‚îÄ‚îÄ‚îÄ‚îÄ‚îÄ‚îÄ‚îÄ‚îÄ‚îÄ‚îÄ‚î
 638:src/main.cpp  ****         // Three-LED position indicator. Linear "tents" hand off cleanly:
 639:src/main.cpp  ****         //   LED1 (DAC1, middle)       ‚Üí 1 - 2*|p - 0.5|
 640:src/main.cpp  ****         //   LED2 (DAC2, pos 0 end)    ‚Üí max(0, 1 - 2*p)
ARM GAS  /tmp/claude-502/cc09dAcL.s 			page 76


 641:src/main.cpp  ****         //   LED3 (PWM A0, pos 1 end)  ‚Üí max(0, 2*p - 1)
 642:src/main.cpp  ****         // Fourth-root curve (gamma=0.25) keeps each LED above its forward-voltage
 643:src/main.cpp  ****         // floor at the handoff points (50% raw ‚Üí ~84% drive). Pressure adds a
 644:src/main.cpp  ****         // subtle ~75%‚Üí100% intensity scale.
 645:src/main.cpp  ****         float led1_target = 0.0f, led2_target = 0.0f, led3_target = 0.0f;
 2265              		.loc 6 645 9 is_stmt 1 view .LVU781
 2266              	.LVL191:
 646:src/main.cpp  ****         if(f1_on) {
 2267              		.loc 6 646 9 view .LVU782
 2268              	.L136:
 2269              	.LBB775:
 2270              	.LBB776:
 647:src/main.cpp  ****             float p01      = clampf((float)tracked[0].pos / 1000.0f, 0.0f, 1.0f);
 2271              		.loc 6 647 13 view .LVU783
 2272              		.loc 6 647 37 is_stmt 0 view .LVU784
 2273 0778 D9ED017A 		vldr.32	s15, [r9, #4]	@ int
 2274              		.loc 6 647 36 view .LVU785
 2275 077c DFED096A 		vldr.32	s13, .L461+20
 2276              		.loc 6 647 37 view .LVU786
 2277 0780 F8EEE77A 		vcvt.f32.s32	s15, s15
 2278              		.loc 6 647 36 view .LVU787
 2279 0784 87EEA67A 		vdiv.f32	s14, s15, s13
 2280              	.LVL192:
 2281              	.LBB777:
 2282              	.LBI777:
  12:src/dsp.h     ****     return v<lo?lo:v>hi?hi:v;
 2283              		.loc 9 12 21 is_stmt 1 view .LVU788
 2284              	.LBB778:
 2285              		.loc 9 13 5 view .LVU789
 2286              		.loc 9 13 16 is_stmt 0 view .LVU790
 2287 0788 B5EEC07A 		vcmpe.f32	s14, #0
 2288 078c 32E0     		b	.L462
 2289              	.L463:
 2290 078e 00BF     		.align	2
 2291              	.L461:
 2292 0790 00000000 		.word	.LANCHOR2
 2293 0794 00000000 		.word	.LANCHOR3
 2294 0798 00000000 		.word	tracked
 2295 079c 50000000 		.word	tracked+80
 2296 07a0 00000000 		.word	g_retrig
 2297 07a4 00007A44 		.word	1148846080
 2298 07a8 68B32A3E 		.word	1042985832
 2299 07ac 006F313F 		.word	1060204288
 2300 07b0 9FCD2A3D 		.word	1026215327
 2301 07b4 77BE7F3F 		.word	1065336439
 2302 07b8 00A08C46 		.word	1183621120
 2303 07bc 9A99193F 		.word	1058642330
 2304 07c0 CDCCCC3E 		.word	1053609165
 2305 07c4 CDCC4C3F 		.word	1061997773
 2306 07c8 00000000 		.word	g_target_freq
 2307 07cc EC51383F 		.word	1060655596
 2308 07d0 00000000 		.word	g_target_cutoff
 2309 07d4 00000000 		.word	g_finger_on
 2310 07d8 00000000 		.word	g_vibrato_depth
 2311 07dc 00000000 		.word	g_target_drive
 2312 07e0 00000000 		.word	g_amp_target
 2313 07e4 0000C842 		.word	1120403456
ARM GAS  /tmp/claude-502/cc09dAcL.s 			page 77


 2314 07e8 00000000 		.word	0
 2315 07ec CDCC4C3D 		.word	1028443341
 2316 07f0 00F07F45 		.word	1166012416
 2317              	.L462:
 2318 07f4 F1EE10FA 		vmrs	APSR_nzcv, FPSCR
 2319 07f8 00F1F284 		bmi	.L150
 2320              		.loc 9 13 24 view .LVU791
 2321 07fc F7EE007A 		vmov.f32	s15, #1.0e+0
 2322 0800 B4EEE77A 		vcmpe.f32	s14, s15
 2323 0804 F1EE10FA 		vmrs	APSR_nzcv, FPSCR
 2324 0808 00F3EE87 		bgt	.L151
 2325              	.LVL193:
 2326              		.loc 9 13 24 view .LVU792
 2327              	.LBE778:
 2328              	.LBE777:
 648:src/main.cpp  ****             float pr01     = clampf((float)tracked[0].pressure / 100.0f, 0.0f, 1.0f);
 2329              		.loc 6 648 13 is_stmt 1 view .LVU793
 2330              		.loc 6 648 37 is_stmt 0 view .LVU794
 2331 080c D9ED026A 		vldr.32	s13, [r9, #8]	@ int
 2332              		.loc 6 648 36 view .LVU795
 2333 0810 5FED0C5A 		vldr.32	s11, .L461+84
 2334              		.loc 6 648 37 view .LVU796
 2335 0814 B8EEE66A 		vcvt.f32.s32	s12, s13
 2336              		.loc 6 648 36 view .LVU797
 2337 0818 C6EE256A 		vdiv.f32	s13, s12, s11
 2338              	.LVL194:
 2339              	.LBB779:
 2340              	.LBI779:
  12:src/dsp.h     ****     return v<lo?lo:v>hi?hi:v;
 2341              		.loc 9 12 21 is_stmt 1 view .LVU798
 2342              	.LBB780:
 2343              		.loc 9 13 5 view .LVU799
 2344              		.loc 9 13 16 is_stmt 0 view .LVU800
 2345 081c F5EEC06A 		vcmpe.f32	s13, #0
 2346 0820 F1EE10FA 		vmrs	APSR_nzcv, FPSCR
 2347 0824 41F13D80 		bpl	.L404
 2348              	.LBE780:
 2349              	.LBE779:
 649:src/main.cpp  ****             float prs_mult = 0.75f + 0.25f * pr01;
 650:src/main.cpp  ****             float l1_raw   = 1.0f - 2.0f * p01;                 if(l1_raw < 0) l1_raw = 0;
 651:src/main.cpp  ****             float l3_raw   = 2.0f * p01 - 1.0f;                 if(l3_raw < 0) l3_raw = 0;
 652:src/main.cpp  ****             float l2_raw   = 1.0f - 2.0f * fabsf(p01 - 0.5f);   if(l2_raw < 0) l2_raw = 0;
 2350              		.loc 6 652 54 view .LVU801
 2351 0828 F6EE006A 		vmov.f32	s13, #5.0e-1
 2352              	.LVL195:
 650:src/main.cpp  ****             float l3_raw   = 2.0f * p01 - 1.0f;                 if(l3_raw < 0) l3_raw = 0;
 2353              		.loc 6 650 19 view .LVU802
 2354 082c B0EE006A 		vmov.f32	s12, #2.0e+0
 2355              	.LVL196:
 651:src/main.cpp  ****             float l2_raw   = 1.0f - 2.0f * fabsf(p01 - 0.5f);   if(l2_raw < 0) l2_raw = 0;
 2356              		.loc 6 651 19 view .LVU803
 2357 0830 FFEE00CA 		vmov.f32	s25, #-1.0e+0
 2358              		.loc 6 652 19 view .LVU804
 2359 0834 B6EE08CA 		vmov.f32	s24, #7.5e-1
 2360              	.L425:
 2361              		.loc 6 652 54 view .LVU805
 2362 0838 77EE666A 		vsub.f32	s13, s14, s13
ARM GAS  /tmp/claude-502/cc09dAcL.s 			page 78


 650:src/main.cpp  ****             float l3_raw   = 2.0f * p01 - 1.0f;                 if(l3_raw < 0) l3_raw = 0;
 2363              		.loc 6 650 19 view .LVU806
 2364 083c F0EE67BA 		vmov.f32	s23, s15
 651:src/main.cpp  ****             float l2_raw   = 1.0f - 2.0f * fabsf(p01 - 0.5f);   if(l2_raw < 0) l2_raw = 0;
 2365              		.loc 6 651 19 view .LVU807
 2366 0840 E7EE06CA 		vfma.f32	s25, s14, s12
 2367              		.loc 6 652 49 view .LVU808
 2368 0844 F0EEE66A 		vabs.f32	s13, s13
 650:src/main.cpp  ****             float l3_raw   = 2.0f * p01 - 1.0f;                 if(l3_raw < 0) l3_raw = 0;
 2369              		.loc 6 650 19 view .LVU809
 2370 0848 E7EE46BA 		vfms.f32	s23, s14, s12
 2371              		.loc 6 652 19 view .LVU810
 2372 084c E6EEC67A 		vfms.f32	s15, s13, s12
 2373 0850 B0EE677A 		vmov.f32	s14, s15
 2374              	.LVL197:
 2375              	.L154:
 649:src/main.cpp  ****             float prs_mult = 0.75f + 0.25f * pr01;
 2376              		.loc 6 649 13 is_stmt 1 view .LVU811
 650:src/main.cpp  ****             float l3_raw   = 2.0f * p01 - 1.0f;                 if(l3_raw < 0) l3_raw = 0;
 2377              		.loc 6 650 13 view .LVU812
 650:src/main.cpp  ****             float l3_raw   = 2.0f * p01 - 1.0f;                 if(l3_raw < 0) l3_raw = 0;
 2378              		.loc 6 650 65 view .LVU813
 2379 0854 F5EEC0BA 		vcmpe.f32	s23, #0
 2380 0858 F1EE10FA 		vmrs	APSR_nzcv, FPSCR
 651:src/main.cpp  ****             float l2_raw   = 1.0f - 2.0f * fabsf(p01 - 0.5f);   if(l2_raw < 0) l2_raw = 0;
 2381              		.loc 6 651 65 is_stmt 0 view .LVU814
 2382 085c F5EEC0CA 		vcmpe.f32	s25, #0
 650:src/main.cpp  ****             float l3_raw   = 2.0f * p01 - 1.0f;                 if(l3_raw < 0) l3_raw = 0;
 2383              		.loc 6 650 87 view .LVU815
 2384 0860 48BF     		it	mi
 2385 0862 5FED1FBA 		vldrmi.32	s23, .L461+88
 2386              	.LVL198:
 651:src/main.cpp  ****             float l2_raw   = 1.0f - 2.0f * fabsf(p01 - 0.5f);   if(l2_raw < 0) l2_raw = 0;
 2387              		.loc 6 651 13 is_stmt 1 view .LVU816
 651:src/main.cpp  ****             float l2_raw   = 1.0f - 2.0f * fabsf(p01 - 0.5f);   if(l2_raw < 0) l2_raw = 0;
 2388              		.loc 6 651 65 view .LVU817
 2389 0866 F1EE10FA 		vmrs	APSR_nzcv, FPSCR
 2390              		.loc 6 652 65 is_stmt 0 view .LVU818
 2391 086a B5EEC07A 		vcmpe.f32	s14, #0
 651:src/main.cpp  ****             float l2_raw   = 1.0f - 2.0f * fabsf(p01 - 0.5f);   if(l2_raw < 0) l2_raw = 0;
 2392              		.loc 6 651 87 view .LVU819
 2393 086e 48BF     		it	mi
 2394 0870 5FED23CA 		vldrmi.32	s25, .L461+88
 2395              	.LVL199:
 2396              		.loc 6 652 13 is_stmt 1 view .LVU820
 2397              		.loc 6 652 65 view .LVU821
 2398 0874 F1EE10FA 		vmrs	APSR_nzcv, FPSCR
 2399 0878 41F18080 		bpl	.L437
 2400              		.loc 6 652 87 is_stmt 0 view .LVU822
 2401 087c 1FED267A 		vldr.32	s14, .L461+88
 2402              	.L161:
 2403              	.LVL200:
 653:src/main.cpp  ****             led1_target    = sqrtf(sqrtf(l2_raw)) * prs_mult;  // middle tent
 2404              		.loc 6 653 35 view .LVU823
 2405 0880 B1EEC70A 		vsqrt.f32	s0, s14
 2406              	.LVL201:
 2407              	.L164:
ARM GAS  /tmp/claude-502/cc09dAcL.s 			page 79


 2408              		.loc 6 653 35 view .LVU824
 2409 0884 B5EE400A 		vcmp.f32	s0, #0
 2410 0888 F1EE10FA 		vmrs	APSR_nzcv, FPSCR
 2411 088c 01F14681 		bmi	.L407
 2412 0890 B1EEC07A 		vsqrt.f32	s14, s0
 2413              	.L167:
 2414 0894 F5EE40BA 		vcmp.f32	s23, #0
 2415              		.loc 6 653 28 view .LVU825
 2416 0898 2CEE07BA 		vmul.f32	s22, s24, s14
 2417              	.LVL202:
 654:src/main.cpp  ****             led2_target    = sqrtf(sqrtf(l1_raw)) * prs_mult;  // pos 0 ramp
 2418              		.loc 6 654 13 is_stmt 1 view .LVU826
 2419 089c F1EE10FA 		vmrs	APSR_nzcv, FPSCR
 2420 08a0 01F13681 		bmi	.L408
 2421              		.loc 6 654 35 is_stmt 0 view .LVU827
 2422 08a4 B1EEEB0A 		vsqrt.f32	s0, s23
 2423              	.L170:
 2424 08a8 B5EE400A 		vcmp.f32	s0, #0
 2425 08ac F1EE10FA 		vmrs	APSR_nzcv, FPSCR
 2426 08b0 01F12881 		bmi	.L409
 2427 08b4 F1EEC06A 		vsqrt.f32	s13, s0
 2428              	.L173:
 2429 08b8 F5EE40CA 		vcmp.f32	s25, #0
 2430              		.loc 6 654 28 view .LVU828
 2431 08bc 6CEE26BA 		vmul.f32	s23, s24, s13
 2432              	.LVL203:
 655:src/main.cpp  ****             led3_target    = sqrtf(sqrtf(l3_raw)) * prs_mult * LED3_INTENSITY;
 2433              		.loc 6 655 13 is_stmt 1 view .LVU829
 2434 08c0 F1EE10FA 		vmrs	APSR_nzcv, FPSCR
 2435 08c4 01F10481 		bmi	.L410
 2436              		.loc 6 655 35 is_stmt 0 view .LVU830
 2437 08c8 B1EEEC0A 		vsqrt.f32	s0, s25
 2438              	.L176:
 2439              		.loc 6 655 35 view .LVU831
 2440 08cc B5EE400A 		vcmp.f32	s0, #0
 2441 08d0 F1EE10FA 		vmrs	APSR_nzcv, FPSCR
 2442 08d4 01F12881 		bmi	.L411
 2443 08d8 F1EEC07A 		vsqrt.f32	s15, s0
 2444              	.L179:
 2445              	.LBE776:
 2446              	.LBE775:
 461:src/main.cpp  **** 
 2447              		.loc 6 461 25 view .LVU832
 2448 08dc 089B     		ldr	r3, [sp, #32]
 2449              	.LBB803:
 2450              	.LBB793:
 2451              		.loc 6 655 28 view .LVU833
 2452 08de 1FED3D7A 		vldr.32	s14, .L461+92
 2453              	.LBE793:
 2454              	.LBE803:
 461:src/main.cpp  **** 
 2455              		.loc 6 461 25 view .LVU834
 2456 08e2 83F00103 		eor	r3, r3, #1
 2457              	.LBB804:
 2458              	.LBB794:
 2459              		.loc 6 655 51 view .LVU835
 2460 08e6 6CEE277A 		vmul.f32	s15, s24, s15
ARM GAS  /tmp/claude-502/cc09dAcL.s 			page 80


 2461              	.LBE794:
 2462              	.LBE804:
 2463              	.LBB805:
 656:src/main.cpp  ****         }
 657:src/main.cpp  ****         // Snap on touch onset so the LEDs respond instantly to the initial touch;
 658:src/main.cpp  ****         // smooth during sustained touch and on lift-off.
 659:src/main.cpp  ****         if(f1_on && !f1_was_on) {
 2464              		.loc 6 659 9 view .LVU836
 2465 08ea DBB2     		uxtb	r3, r3
 2466              	.LBE805:
 2467              	.LBB810:
 2468              	.LBB795:
 655:src/main.cpp  ****         }
 2469              		.loc 6 655 28 view .LVU837
 2470 08ec 67EE877A 		vmul.f32	s15, s15, s14
 2471              	.LVL204:
 655:src/main.cpp  ****         }
 2472              		.loc 6 655 28 view .LVU838
 2473              	.LBE795:
 2474              	.LBE810:
 2475              		.loc 6 659 9 is_stmt 1 view .LVU839
 2476              	.LBB811:
 2477 08f0 002B     		cmp	r3, #0
 2478 08f2 00F0DE84 		beq	.L328
 2479 08f6 079B     		ldr	r3, [sp, #28]
 2480 08f8 002B     		cmp	r3, #0
 2481 08fa 00F0DA84 		beq	.L328
 2482              	.LBE811:
 2483              	.LBB812:
 2484              	.LBB796:
 655:src/main.cpp  ****         }
 2485              		.loc 6 655 28 is_stmt 0 view .LVU840
 2486 08fe F0EE678A 		vmov.f32	s17, s15
 2487              	.LVL205:
 654:src/main.cpp  ****             led3_target    = sqrtf(sqrtf(l3_raw)) * prs_mult * LED3_INTENSITY;
 2488              		.loc 6 654 28 view .LVU841
 2489 0902 F0EE6B9A 		vmov.f32	s19, s23
 2490              	.LVL206:
 653:src/main.cpp  ****             led2_target    = sqrtf(sqrtf(l1_raw)) * prs_mult;  // pos 0 ramp
 2491              		.loc 6 653 28 view .LVU842
 2492 0906 B0EE4B9A 		vmov.f32	s18, s22
 2493              	.LVL207:
 2494              	.L180:
 653:src/main.cpp  ****             led2_target    = sqrtf(sqrtf(l1_raw)) * prs_mult;  // pos 0 ramp
 2495              		.loc 6 653 28 view .LVU843
 2496              	.LBE796:
 2497              	.LBE812:
 660:src/main.cpp  ****             s_led1 = led1_target;
 661:src/main.cpp  ****             s_led2 = led2_target;
 662:src/main.cpp  ****             s_led3 = led3_target;
 663:src/main.cpp  ****         } else {
 664:src/main.cpp  ****             float smooth3 = f1_on ? LED_SMOOTH : LED3_RELEASE_SMOOTH;
 665:src/main.cpp  ****             s_led1 = s_led1 * LED_SMOOTH + led1_target * (1.0f - LED_SMOOTH);
 666:src/main.cpp  ****             s_led2 = s_led2 * LED_SMOOTH + led2_target * (1.0f - LED_SMOOTH);
 667:src/main.cpp  ****             s_led3 = s_led3 * smooth3   + led3_target * (1.0f - smooth3);
 668:src/main.cpp  ****         }
 669:src/main.cpp  ****         hw.dac.WriteValue(DacHandle::Channel::ONE, (uint16_t)(s_led1 * LED1_MAX));
ARM GAS  /tmp/claude-502/cc09dAcL.s 			page 81


 2498              		.loc 6 669 9 is_stmt 1 view .LVU844
 2499              		.loc 6 669 70 is_stmt 0 view .LVU845
 2500 090a 1FED47BA 		vldr.32	s22, .L461+96
 2501              		.loc 6 669 26 view .LVU846
 2502 090e 0021     		movs	r1, #0
 2503 0910 D448     		ldr	r0, .L464
 2504              		.loc 6 669 70 view .LVU847
 2505 0912 69EE0B7A 		vmul.f32	s15, s18, s22
 2506              		.loc 6 669 26 view .LVU848
 2507 0916 FCEEE77A 		vcvt.u32.f32	s15, s15
 2508 091a 17EE903A 		vmov	r3, s15	@ int
 2509 091e 9AB2     		uxth	r2, r3
 2510 0920 FFF7FEFF 		bl	_ZN5daisy9DacHandle10WriteValueENS0_7ChannelEt
 2511              	.LVL208:
 670:src/main.cpp  ****         hw.dac.WriteValue(DacHandle::Channel::TWO, (uint16_t)(s_led2 * LED2_MAX));
 2512              		.loc 6 670 9 is_stmt 1 view .LVU849
 2513              		.loc 6 670 70 is_stmt 0 view .LVU850
 2514 0924 29EE8BBA 		vmul.f32	s22, s19, s22
 2515              		.loc 6 670 26 view .LVU851
 2516 0928 0121     		movs	r1, #1
 2517 092a CE48     		ldr	r0, .L464
 2518 092c BCEECBBA 		vcvt.u32.f32	s22, s22
 2519 0930 1BEE103A 		vmov	r3, s22	@ int
 2520 0934 9AB2     		uxth	r2, r3
 2521 0936 FFF7FEFF 		bl	_ZN5daisy9DacHandle10WriteValueENS0_7ChannelEt
 2522              	.LVL209:
 671:src/main.cpp  ****         g_led3_duty = s_led3;  // audio callback sigma-delta's this onto A0
 2523              		.loc 6 671 9 is_stmt 1 view .LVU852
 2524              		.loc 6 671 21 is_stmt 0 view .LVU853
 2525 093a 0C9B     		ldr	r3, [sp, #48]
 2526 093c C3ED008A 		vstr.32	s17, [r3]
 672:src/main.cpp  **** 
 673:src/main.cpp  ****         f1_was_on = f1_on;
 2527              		.loc 6 673 9 is_stmt 1 view .LVU854
 2528              	.LVL210:
 674:src/main.cpp  **** 
 675:src/main.cpp  ****         // ‚îÄ‚îÄ Finger 2 ‚Üí Detune + Bitcrush + Ring mod (mono voices only) ‚îÄ‚îÄ‚îÄ‚îÄ‚îÄ‚îÄ‚î
 676:src/main.cpp  ****         if(tracked[1].alive && !multi)
 2529              		.loc 6 676 9 view .LVU855
 2530              	.LBB813:
 2531              		.loc 6 676 29 is_stmt 0 view .LVU856
 2532 0940 99F81430 		ldrb	r3, [r9, #20]	@ zero_extendqisi2
 2533 0944 002B     		cmp	r3, #0
 2534 0946 00F0BF82 		beq	.L182
 2535 094a 069B     		ldr	r3, [sp, #24]
 2536 094c 0C2B     		cmp	r3, #12
 2537 094e 00F0BB82 		beq	.L182
 2538              	.LBB814:
 677:src/main.cpp  ****         {
 678:src/main.cpp  ****             float pos01 = clampf((float)tracked[1].pos / 1000.0f, 0.0f, 1.0f);
 2539              		.loc 6 678 13 is_stmt 1 view .LVU857
 2540              		.loc 6 678 34 is_stmt 0 view .LVU858
 2541 0952 D9ED067A 		vldr.32	s15, [r9, #24]	@ int
 2542              		.loc 6 678 33 view .LVU859
 2543 0956 DFEDC46A 		vldr.32	s13, .L464+4
 2544              		.loc 6 678 34 view .LVU860
 2545 095a F8EEE77A 		vcvt.f32.s32	s15, s15
ARM GAS  /tmp/claude-502/cc09dAcL.s 			page 82


 2546              		.loc 6 678 33 view .LVU861
 2547 095e 87EEA67A 		vdiv.f32	s14, s15, s13
 2548              	.LVL211:
 2549              	.LBB815:
 2550              	.LBI815:
  12:src/dsp.h     ****     return v<lo?lo:v>hi?hi:v;
 2551              		.loc 9 12 21 is_stmt 1 view .LVU862
 2552              	.LBB816:
 2553              		.loc 9 13 5 view .LVU863
 2554              		.loc 9 13 16 is_stmt 0 view .LVU864
 2555 0962 B5EEC07A 		vcmpe.f32	s14, #0
 2556 0966 F1EE10FA 		vmrs	APSR_nzcv, FPSCR
 2557 096a 00F16885 		bmi	.L285
 2558              		.loc 9 13 24 view .LVU865
 2559 096e F7EE007A 		vmov.f32	s15, #1.0e+0
 2560 0972 B4EEE77A 		vcmpe.f32	s14, s15
 2561 0976 F1EE10FA 		vmrs	APSR_nzcv, FPSCR
 2562 097a 00F37687 		bgt	.L286
 2563              	.LBE816:
 2564              	.LBE815:
 679:src/main.cpp  ****             float prs01 = clampf((float)tracked[1].pressure / 100.0f, 0.0f, 1.0f); // hard clamp
 680:src/main.cpp  **** 
 681:src/main.cpp  ****             // Detune: finger 2 position maps to ¬±7 semitones (¬±1 fifth)
 682:src/main.cpp  ****             // Centre (pos=0.5) = no detune, left = flat, right = sharp
 683:src/main.cpp  ****             float detune_pos  = (pos01 - 0.5f) * 3.0f;  // ¬±1.5 semitones raw
 2565              		.loc 6 683 40 view .LVU866
 2566 097e F6EE007A 		vmov.f32	s15, #5.0e-1
 2567              		.loc 6 683 19 view .LVU867
 2568 0982 F0EE085A 		vmov.f32	s11, #3.0e+0
 2569              		.loc 6 683 40 view .LVU868
 2570 0986 37EE677A 		vsub.f32	s14, s14, s15
 2571              	.LVL212:
 2572              		.loc 6 683 19 view .LVU869
 2573 098a 67EE255A 		vmul.f32	s11, s14, s11
 2574              	.L183:
 2575              	.LVL213:
 679:src/main.cpp  ****             float prs01 = clampf((float)tracked[1].pressure / 100.0f, 0.0f, 1.0f); // hard clamp
 2576              		.loc 6 679 13 is_stmt 1 view .LVU870
 679:src/main.cpp  ****             float prs01 = clampf((float)tracked[1].pressure / 100.0f, 0.0f, 1.0f); // hard clamp
 2577              		.loc 6 679 34 is_stmt 0 view .LVU871
 2578 098e D9ED077A 		vldr.32	s15, [r9, #28]	@ int
 679:src/main.cpp  ****             float prs01 = clampf((float)tracked[1].pressure / 100.0f, 0.0f, 1.0f); // hard clamp
 2579              		.loc 6 679 33 view .LVU872
 2580 0992 DFEDB66A 		vldr.32	s13, .L464+8
 679:src/main.cpp  ****             float prs01 = clampf((float)tracked[1].pressure / 100.0f, 0.0f, 1.0f); // hard clamp
 2581              		.loc 6 679 34 view .LVU873
 2582 0996 B8EEE77A 		vcvt.f32.s32	s14, s15
 679:src/main.cpp  ****             float prs01 = clampf((float)tracked[1].pressure / 100.0f, 0.0f, 1.0f); // hard clamp
 2583              		.loc 6 679 33 view .LVU874
 2584 099a C7EE267A 		vdiv.f32	s15, s14, s13
 2585              	.LVL214:
 2586              	.LBB820:
 2587              	.LBI820:
  12:src/dsp.h     ****     return v<lo?lo:v>hi?hi:v;
 2588              		.loc 9 12 21 is_stmt 1 view .LVU875
 2589              	.LBB821:
 2590              		.loc 9 13 5 view .LVU876
ARM GAS  /tmp/claude-502/cc09dAcL.s 			page 83


 2591              		.loc 9 13 16 is_stmt 0 view .LVU877
 2592 099e F5EEC07A 		vcmpe.f32	s15, #0
 2593 09a2 F1EE10FA 		vmrs	APSR_nzcv, FPSCR
 2594 09a6 00F14E85 		bmi	.L287
 2595              		.loc 9 13 24 view .LVU878
 2596 09aa B7EE006A 		vmov.f32	s12, #1.0e+0
 2597 09ae F4EEC67A 		vcmpe.f32	s15, s12
 2598 09b2 F1EE10FA 		vmrs	APSR_nzcv, FPSCR
 2599 09b6 40F35A84 		ble	.L438
 2600              	.LVL215:
 2601              		.loc 9 13 24 view .LVU879
 2602 09ba F0EE467A 		vmov.f32	s15, s12
 2603              	.LVL216:
 2604              	.L184:
 2605              		.loc 9 13 24 view .LVU880
 2606              	.LBE821:
 2607              	.LBE820:
 2608              		.loc 6 683 13 is_stmt 1 view .LVU881
 684:src/main.cpp  **** 
 685:src/main.cpp  ****             // Wavefold: smootherstep ‚Äî barely there until deliberate pressure
 686:src/main.cpp  ****             auto smootherstep2 = [](float x) -> float {
 2609              		.loc 6 686 13 view .LVU882
 687:src/main.cpp  ****                 x = x<0?0:x>1?1:x;
 688:src/main.cpp  ****                 return x*x*x*(x*(x*6.0f - 15.0f) + 10.0f);
 689:src/main.cpp  ****             };
 690:src/main.cpp  ****             // Apply smootherstep twice and cap at 0.20 ‚Äî effect only arrives
 691:src/main.cpp  ****             // with real deliberate pressure, stays subtle even at max
 692:src/main.cpp  ****             float ss2 = smootherstep2(prs01);
 2610              		.loc 6 692 13 view .LVU883
 2611              	.LBB823:
 2612              	.LBI823:
 582:src/main.cpp  ****                 x = x<0?0:x>1?1:x;
 2613              		.loc 6 582 33 view .LVU884
 2614              	.LBB824:
 583:src/main.cpp  ****                 return x*x*x*(x*(x*6.0f - 15.0f) + 10.0f);
 2615              		.loc 6 583 17 view .LVU885
 584:src/main.cpp  ****             };
 2616              		.loc 6 584 17 view .LVU886
 584:src/main.cpp  ****             };
 2617              		.loc 6 584 17 is_stmt 0 view .LVU887
 2618              	.LBE824:
 2619              	.LBE823:
 693:src/main.cpp  ****             float ss3 = smootherstep2(ss2);   // triple smootherstep ‚Äî very lazy
 2620              		.loc 6 693 13 is_stmt 1 view .LVU888
 2621              	.LBB831:
 2622              	.LBI831:
 582:src/main.cpp  ****                 x = x<0?0:x>1?1:x;
 2623              		.loc 6 582 33 view .LVU889
 2624              	.LBB832:
 583:src/main.cpp  ****                 return x*x*x*(x*(x*6.0f - 15.0f) + 10.0f);
 2625              		.loc 6 583 17 view .LVU890
 583:src/main.cpp  ****                 return x*x*x*(x*(x*6.0f - 15.0f) + 10.0f);
 2626              		.loc 6 583 17 is_stmt 0 view .LVU891
 2627              	.LBE832:
 2628              	.LBE831:
 2629              	.LBB836:
 2630              	.LBB817:
ARM GAS  /tmp/claude-502/cc09dAcL.s 			page 84


 2631 09be B0EE677A 		vmov.f32	s14, s15
 2632              	.L246:
 2633              	.LVL217:
 583:src/main.cpp  ****                 return x*x*x*(x*(x*6.0f - 15.0f) + 10.0f);
 2634              		.loc 6 583 17 view .LVU892
 2635              	.LBE817:
 2636              	.LBE836:
 2637              	.LBB837:
 2638              	.LBB833:
 584:src/main.cpp  ****             };
 2639              		.loc 6 584 17 is_stmt 1 view .LVU893
 584:src/main.cpp  ****             };
 2640              		.loc 6 584 41 is_stmt 0 view .LVU894
 2641 09c2 BAEE0E5A 		vmov.f32	s10, #-1.5e+1
 2642 09c6 F1EE084A 		vmov.f32	s9, #6.0e+0
 584:src/main.cpp  ****             };
 2643              		.loc 6 584 50 view .LVU895
 2644 09ca B2EE046A 		vmov.f32	s12, #1.0e+1
 584:src/main.cpp  ****             };
 2645              		.loc 6 584 41 view .LVU896
 2646 09ce F0EE453A 		vmov.f32	s7, s10
 584:src/main.cpp  ****             };
 2647              		.loc 6 584 25 view .LVU897
 2648 09d2 67EE076A 		vmul.f32	s13, s14, s14
 584:src/main.cpp  ****             };
 2649              		.loc 6 584 50 view .LVU898
 2650 09d6 B0EE464A 		vmov.f32	s8, s12
 584:src/main.cpp  ****             };
 2651              		.loc 6 584 41 view .LVU899
 2652 09da E7EE243A 		vfma.f32	s7, s14, s9
 584:src/main.cpp  ****             };
 2653              		.loc 6 584 27 view .LVU900
 2654 09de 66EE876A 		vmul.f32	s13, s13, s14
 584:src/main.cpp  ****             };
 2655              		.loc 6 584 50 view .LVU901
 2656 09e2 A7EE234A 		vfma.f32	s8, s14, s7
 584:src/main.cpp  ****             };
 2657              		.loc 6 584 57 view .LVU902
 2658 09e6 66EE846A 		vmul.f32	s13, s13, s8
 2659              	.LVL218:
 584:src/main.cpp  ****             };
 2660              		.loc 6 584 57 view .LVU903
 2661              	.LBE833:
 2662              	.LBE837:
 694:src/main.cpp  ****             float bc  = smootherstep2(ss3) * VOICE.fold_max; // ceiling is voice-defined
 2663              		.loc 6 694 13 is_stmt 1 view .LVU904
 2664              	.LBB838:
 2665              	.LBI838:
 582:src/main.cpp  ****                 x = x<0?0:x>1?1:x;
 2666              		.loc 6 582 33 view .LVU905
 2667              	.LBB839:
 583:src/main.cpp  ****                 return x*x*x*(x*(x*6.0f - 15.0f) + 10.0f);
 2668              		.loc 6 583 17 view .LVU906
 583:src/main.cpp  ****                 return x*x*x*(x*(x*6.0f - 15.0f) + 10.0f);
 2669              		.loc 6 583 24 is_stmt 0 view .LVU907
 2670 09ea F5EEC06A 		vcmpe.f32	s13, #0
 2671 09ee F1EE10FA 		vmrs	APSR_nzcv, FPSCR
ARM GAS  /tmp/claude-502/cc09dAcL.s 			page 85


 2672 09f2 40F10F87 		bpl	.L412
 2673              	.LBE839:
 2674              	.LBE838:
 695:src/main.cpp  **** 
 696:src/main.cpp  ****             // Detune: smoothstep on position offset from centre
 697:src/main.cpp  ****             auto smoothstep2 = [](float x) -> float {
 698:src/main.cpp  ****                 x = x<0?0:x>1?1:x;
 699:src/main.cpp  ****                 return x*x*(3.0f - 2.0f*x);
 700:src/main.cpp  ****             };
 701:src/main.cpp  ****             // Detune amount scales with pressure via smoothstep ‚Äî no detune at low pressure
 702:src/main.cpp  ****             float det_prs = smoothstep2(prs01);
 703:src/main.cpp  **** 
 704:src/main.cpp  ****             // Ring mod: smoothstep, only above 85% pressure (ceiling voice-defined)
 705:src/main.cpp  ****             float rm_in = clampf((prs01 - 0.85f) / 0.15f, 0.0f, 1.0f);
 2675              		.loc 6 705 41 view .LVU908
 2676 09f6 DFED9E6A 		vldr.32	s13, .L464+12
 2677              	.LVL219:
 2678              		.loc 6 705 33 view .LVU909
 2679 09fa 9FED9E6A 		vldr.32	s12, .L464+16
 2680              		.loc 6 705 41 view .LVU910
 2681 09fe 77EEE66A 		vsub.f32	s13, s15, s13
 2682              		.loc 6 705 33 view .LVU911
 2683 0a02 9FED9D7A 		vldr.32	s14, .L464+20
 2684              	.LVL220:
 2685              		.loc 6 705 33 view .LVU912
 2686 0a06 86EE864A 		vdiv.f32	s8, s13, s12
 2687              	.L188:
 2688              	.LBB847:
 2689              	.LBB840:
 584:src/main.cpp  ****             };
 2690              		.loc 6 584 17 is_stmt 1 view .LVU913
 2691              	.LBE840:
 2692              	.LBE847:
 2693              	.LBB848:
 2694              	.LBB849:
 698:src/main.cpp  ****                 return x*x*(3.0f - 2.0f*x);
 2695              		.loc 6 698 24 is_stmt 0 view .LVU914
 2696 0a0a 9FED9B6A 		vldr.32	s12, .L464+20
 2697              	.LBE849:
 2698              	.LBE848:
 694:src/main.cpp  **** 
 2699              		.loc 6 694 52 view .LVU915
 2700 0a0e 8C23     		movs	r3, #140
 2701 0a10 03FB05A3 		mla	r3, r3, r5, r10
 2702              	.LBB854:
 2703              	.LBB850:
 698:src/main.cpp  ****                 return x*x*(3.0f - 2.0f*x);
 2704              		.loc 6 698 24 view .LVU916
 2705 0a14 F4EEC67A 		vcmpe.f32	s15, s12
 2706              	.LBE850:
 2707              	.LBE854:
 694:src/main.cpp  **** 
 2708              		.loc 6 694 52 view .LVU917
 2709 0a18 D3ED186A 		vldr.32	s13, [r3, #96]
 2710 0a1c 27EE267A 		vmul.f32	s14, s14, s13
 2711              	.LVL221:
 697:src/main.cpp  ****                 x = x<0?0:x>1?1:x;
ARM GAS  /tmp/claude-502/cc09dAcL.s 			page 86


 2712              		.loc 6 697 13 is_stmt 1 view .LVU918
 702:src/main.cpp  **** 
 2713              		.loc 6 702 13 view .LVU919
 2714              	.LBB855:
 2715              	.LBI848:
 697:src/main.cpp  ****                 x = x<0?0:x>1?1:x;
 2716              		.loc 6 697 32 view .LVU920
 2717              	.LBB851:
 698:src/main.cpp  ****                 return x*x*(3.0f - 2.0f*x);
 2718              		.loc 6 698 17 view .LVU921
 698:src/main.cpp  ****                 return x*x*(3.0f - 2.0f*x);
 2719              		.loc 6 698 24 is_stmt 0 view .LVU922
 2720 0a20 F1EE10FA 		vmrs	APSR_nzcv, FPSCR
 2721 0a24 00F17A86 		bmi	.L439
 698:src/main.cpp  ****                 return x*x*(3.0f - 2.0f*x);
 2722              		.loc 6 698 30 view .LVU923
 2723 0a28 F7EE006A 		vmov.f32	s13, #1.0e+0
 2724 0a2c F4EEE67A 		vcmpe.f32	s15, s13
 2725 0a30 F1EE10FA 		vmrs	APSR_nzcv, FPSCR
 2726 0a34 0BDC     		bgt	.L193
 699:src/main.cpp  ****             };
 2727              		.loc 6 699 34 view .LVU924
 2728 0a36 B0EE005A 		vmov.f32	s10, #2.0e+0
 2729 0a3a B0EE086A 		vmov.f32	s12, #3.0e+0
 2730              	.LBE851:
 2731              	.LBE855:
 2732              	.LBB856:
 2733              	.LBB825:
 584:src/main.cpp  ****             };
 2734              		.loc 6 584 25 view .LVU925
 2735 0a3e 67EEA76A 		vmul.f32	s13, s15, s15
 2736              	.LBE825:
 2737              	.LBE856:
 2738              	.LBB857:
 2739              	.LBB852:
 699:src/main.cpp  ****             };
 2740              		.loc 6 699 34 view .LVU926
 2741 0a42 A7EEC56A 		vfms.f32	s12, s15, s10
 699:src/main.cpp  ****             };
 2742              		.loc 6 699 42 view .LVU927
 2743 0a46 66EE867A 		vmul.f32	s15, s13, s12
 2744              	.LBE852:
 2745              	.LBE857:
 706:src/main.cpp  ****             float rm    = smoothstep2(rm_in) * VOICE.ringmod_max;
 707:src/main.cpp  **** 
 708:src/main.cpp  ****             g_target_detune = detune_pos * det_prs; // pressure gates detune amount
 2746              		.loc 6 708 42 view .LVU928
 2747 0a4a 65EEA75A 		vmul.f32	s11, s11, s15
 2748              	.L193:
 2749              	.LBB858:
 2750              	.LBB853:
 699:src/main.cpp  ****             };
 2751              		.loc 6 699 17 is_stmt 1 view .LVU929
 2752              	.LVL222:
 699:src/main.cpp  ****             };
 2753              		.loc 6 699 17 is_stmt 0 view .LVU930
 2754              	.LBE853:
ARM GAS  /tmp/claude-502/cc09dAcL.s 			page 87


 2755              	.LBE858:
 705:src/main.cpp  ****             float rm    = smoothstep2(rm_in) * VOICE.ringmod_max;
 2756              		.loc 6 705 13 is_stmt 1 view .LVU931
 2757              	.LBB859:
 2758              	.LBI859:
  12:src/dsp.h     ****     return v<lo?lo:v>hi?hi:v;
 2759              		.loc 9 12 21 view .LVU932
 2760              	.LBB860:
 2761              		.loc 9 13 5 view .LVU933
 2762              		.loc 9 13 16 is_stmt 0 view .LVU934
 2763 0a4e B5EEC04A 		vcmpe.f32	s8, #0
 2764 0a52 F1EE10FA 		vmrs	APSR_nzcv, FPSCR
 2765 0a56 00F13784 		bmi	.L291
 2766              		.loc 9 13 24 view .LVU935
 2767 0a5a F7EE007A 		vmov.f32	s15, #1.0e+0
 2768 0a5e B4EEE74A 		vcmpe.f32	s8, s15
 2769 0a62 F1EE10FA 		vmrs	APSR_nzcv, FPSCR
 2770 0a66 09DC     		bgt	.L194
 2771              	.LVL223:
 2772              		.loc 9 13 24 view .LVU936
 2773              	.LBE860:
 2774              	.LBE859:
 706:src/main.cpp  **** 
 2775              		.loc 6 706 13 is_stmt 1 view .LVU937
 2776              	.LBB862:
 2777              	.LBI862:
 697:src/main.cpp  ****                 x = x<0?0:x>1?1:x;
 2778              		.loc 6 697 32 view .LVU938
 2779              	.LBB863:
 698:src/main.cpp  ****                 return x*x*(3.0f - 2.0f*x);
 2780              		.loc 6 698 17 view .LVU939
 699:src/main.cpp  ****             };
 2781              		.loc 6 699 34 is_stmt 0 view .LVU940
 2782 0a68 B0EE006A 		vmov.f32	s12, #2.0e+0
 2783 0a6c F0EE086A 		vmov.f32	s13, #3.0e+0
 699:src/main.cpp  ****             };
 2784              		.loc 6 699 25 view .LVU941
 2785 0a70 64EE047A 		vmul.f32	s15, s8, s8
 699:src/main.cpp  ****             };
 2786              		.loc 6 699 34 view .LVU942
 2787 0a74 E4EE466A 		vfms.f32	s13, s8, s12
 699:src/main.cpp  ****             };
 2788              		.loc 6 699 42 view .LVU943
 2789 0a78 67EEA67A 		vmul.f32	s15, s15, s13
 2790              	.LVL224:
 2791              	.L194:
 699:src/main.cpp  ****             };
 2792              		.loc 6 699 17 is_stmt 1 view .LVU944
 2793              	.LBE863:
 2794              	.LBE862:
 2795              		.loc 6 708 29 is_stmt 0 view .LVU945
 2796 0a7c 7F4B     		ldr	r3, .L464+24
 2797 0a7e C3ED005A 		vstr.32	s11, [r3]
 709:src/main.cpp  ****             g_bitcrush      = bc;
 2798              		.loc 6 709 29 view .LVU946
 2799 0a82 7F4B     		ldr	r3, .L464+28
 2800 0a84 83ED007A 		vstr.32	s14, [r3]
ARM GAS  /tmp/claude-502/cc09dAcL.s 			page 88


 706:src/main.cpp  **** 
 2801              		.loc 6 706 54 view .LVU947
 2802 0a88 8C23     		movs	r3, #140
 2803 0a8a 03FB05A3 		mla	r3, r3, r5, r10
 2804 0a8e 93ED177A 		vldr.32	s14, [r3, #92]
 2805              	.LVL225:
 710:src/main.cpp  ****             g_ringmod       = rm;
 2806              		.loc 6 710 29 view .LVU948
 2807 0a92 7C4B     		ldr	r3, .L464+32
 706:src/main.cpp  **** 
 2808              		.loc 6 706 54 view .LVU949
 2809 0a94 67EE877A 		vmul.f32	s15, s15, s14
 2810              	.LVL226:
 708:src/main.cpp  ****             g_bitcrush      = bc;
 2811              		.loc 6 708 13 is_stmt 1 view .LVU950
 709:src/main.cpp  ****             g_ringmod       = rm;
 2812              		.loc 6 709 13 view .LVU951
 2813              		.loc 6 710 13 view .LVU952
 2814              		.loc 6 710 29 is_stmt 0 view .LVU953
 2815 0a98 C3ED007A 		vstr.32	s15, [r3]
 2816              	.LVL227:
 2817              		.loc 6 710 29 view .LVU954
 2818              	.LBE814:
 2819              	.LBE813:
 711:src/main.cpp  ****         }
 712:src/main.cpp  ****         else
 713:src/main.cpp  ****         {
 714:src/main.cpp  ****             // No second finger: return detune to zero, clear effects
 715:src/main.cpp  ****             g_target_detune = 0.0f;
 716:src/main.cpp  ****             g_bitcrush      = 0.0f;
 717:src/main.cpp  ****             g_ringmod       = 0.0f;
 718:src/main.cpp  ****         }
 719:src/main.cpp  **** 
 720:src/main.cpp  ****         // ‚îÄ‚îÄ Serial display (throttled; the control loop above runs much faster) ‚îÄ
 721:src/main.cpp  ****         if(System::GetNow() - last_print_ms < PRINT_INTERVAL_MS){
 2820              		.loc 6 721 9 is_stmt 1 view .LVU955
 2821              		.loc 6 721 26 is_stmt 0 view .LVU956
 2822 0a9c FFF7FEFF 		bl	_ZN5daisy6System6GetNowEv
 2823              	.LVL228:
 2824              		.loc 6 721 29 view .LVU957
 2825 0aa0 0F9B     		ldr	r3, [sp, #60]
 2826 0aa2 C01A     		subs	r0, r0, r3
 2827              		.loc 6 721 9 view .LVU958
 2828 0aa4 7728     		cmp	r0, #119
 2829 0aa6 40F21D82 		bls	.L424
 2830              	.LVL229:
 2831              	.L196:
 722:src/main.cpp  ****             System::Delay(CONTROL_DELAY_MS);
 723:src/main.cpp  ****             continue;
 724:src/main.cpp  ****         }
 725:src/main.cpp  ****         last_print_ms = System::GetNow();
 2832              		.loc 6 725 9 is_stmt 1 view .LVU959
 2833              		.loc 6 725 39 is_stmt 0 view .LVU960
 2834 0aaa FFF7FEFF 		bl	_ZN5daisy6System6GetNowEv
 2835              	.LVL230:
 726:src/main.cpp  **** 
 727:src/main.cpp  ****         if(g_voice_idx == MULTI_IDX)
ARM GAS  /tmp/claude-502/cc09dAcL.s 			page 89


 2836              		.loc 6 727 24 view .LVU961
 2837 0aae 764B     		ldr	r3, .L464+36
 725:src/main.cpp  **** 
 2838              		.loc 6 725 39 view .LVU962
 2839 0ab0 0F90     		str	r0, [sp, #60]
 2840              	.LVL231:
 2841              		.loc 6 727 9 is_stmt 1 view .LVU963
 2842              		.loc 6 727 24 is_stmt 0 view .LVU964
 2843 0ab2 1B68     		ldr	r3, [r3]
 2844              		.loc 6 727 9 view .LVU965
 2845 0ab4 0C2B     		cmp	r3, #12
 728:src/main.cpp  ****             hw.PrintLine("VOICE %d/%d  Drums [Kick|Snare|Tom|Hat]  -> %s",
 2846              		.loc 6 728 25 view .LVU966
 2847 0ab6 744B     		ldr	r3, .L464+36
 2848 0ab8 1B68     		ldr	r3, [r3]
 2849              	.LVL232:
 2850              	.LBB888:
 2851              	.LBI888:
 399:src/voice.h   ****     int p = 0;
 2852              		.loc 8 399 12 is_stmt 1 view .LVU967
 2853              	.LBB889:
 400:src/voice.h   ****     for(int i = 0; i <= idx && i < NUM_VOICES; i++) if(!VOICES[i].no_cycle) p++;
 2854              		.loc 8 400 5 view .LVU968
 2855              		.loc 8 401 5 view .LVU969
 2856              	.LBB890:
 2857              		.loc 8 401 29 view .LVU970
 2858 0aba 1E46     		mov	r6, r3
 2859              	.LBE890:
 2860              	.LBE889:
 2861              	.LBE888:
 727:src/main.cpp  ****             hw.PrintLine("VOICE %d/%d  Drums [Kick|Snare|Tom|Hat]  -> %s",
 2862              		.loc 6 727 9 is_stmt 0 view .LVU971
 2863 0abc 00F01487 		beq	.L440
 729:src/main.cpp  ****                 cycle_pos(g_voice_idx), cycle_total(), VOICE.name);
 730:src/main.cpp  ****         else
 731:src/main.cpp  ****             hw.PrintLine("VOICE %d/%d  %s  (%d-%dHz)",
 2864              		.loc 6 731 13 is_stmt 1 view .LVU972
 2865 0ac0 0C2B     		cmp	r3, #12
 2866              	.LBB893:
 2867              	.LBB894:
 400:src/voice.h   ****     for(int i = 0; i <= idx && i < NUM_VOICES; i++) if(!VOICES[i].no_cycle) p++;
 2868              		.loc 8 400 9 is_stmt 0 view .LVU973
 2869 0ac2 4FF00001 		mov	r1, #0
 2870 0ac6 A8BF     		it	ge
 2871 0ac8 0C26     		movge	r6, #12
 2872              	.LBB895:
 2873              		.loc 8 401 29 view .LVU974
 2874 0aca 002B     		cmp	r3, #0
 2875 0acc 09DB     		blt	.L205
 2876 0ace 6F4A     		ldr	r2, .L464+40
 2877              		.loc 8 401 13 view .LVU975
 2878 0ad0 0B46     		mov	r3, r1
 2879              	.LVL233:
 2880              	.L207:
 2881              		.loc 8 401 53 is_stmt 1 view .LVU976
 2882              		.loc 8 401 77 view .LVU977
 2883              		.loc 8 401 53 is_stmt 0 view .LVU978
ARM GAS  /tmp/claude-502/cc09dAcL.s 			page 90


 2884 0ad2 92F87C00 		ldrb	r0, [r2, #124]	@ zero_extendqisi2
 2885              		.loc 8 401 5 view .LVU979
 2886 0ad6 0133     		adds	r3, r3, #1
 2887              	.LVL234:
 2888              		.loc 8 401 29 view .LVU980
 2889 0ad8 8C32     		adds	r2, r2, #140
 2890              		.loc 8 401 53 view .LVU981
 2891 0ada 00B9     		cbnz	r0, .L206
 2892              		.loc 8 401 78 view .LVU982
 2893 0adc 0131     		adds	r1, r1, #1
 2894              	.LVL235:
 2895              	.L206:
 2896              		.loc 8 401 5 is_stmt 1 view .LVU983
 2897              		.loc 8 401 29 view .LVU984
 2898 0ade B342     		cmp	r3, r6
 2899 0ae0 F7DD     		ble	.L207
 2900              	.LVL236:
 2901              	.L205:
 2902              		.loc 8 401 29 is_stmt 0 view .LVU985
 2903              	.LBE895:
 400:src/voice.h   ****     for(int i = 0; i <= idx && i < NUM_VOICES; i++) if(!VOICES[i].no_cycle) p++;
 2904              		.loc 8 400 9 view .LVU986
 2905 0ae2 6A4B     		ldr	r3, .L464+40
 2906              	.LBE894:
 2907              	.LBE893:
 2908              	.LBB896:
 2909              	.LBB897:
 395:src/voice.h   ****     for(int i = 0; i < NUM_VOICES; i++) if(!VOICES[i].no_cycle) n++;
 2910              		.loc 8 395 9 view .LVU987
 2911 0ae4 0022     		movs	r2, #0
 2912              	.L209:
 2913              	.LVL237:
 2914              	.LBB898:
 396:src/voice.h   ****     return n;
 2915              		.loc 8 396 41 is_stmt 1 view .LVU988
 396:src/voice.h   ****     return n;
 2916              		.loc 8 396 65 view .LVU989
 396:src/voice.h   ****     return n;
 2917              		.loc 8 396 41 is_stmt 0 view .LVU990
 2918 0ae6 93F87C00 		ldrb	r0, [r3, #124]	@ zero_extendqisi2
 396:src/voice.h   ****     return n;
 2919              		.loc 8 396 22 view .LVU991
 2920 0aea 8C33     		adds	r3, r3, #140
 396:src/voice.h   ****     return n;
 2921              		.loc 8 396 41 view .LVU992
 2922 0aec 00B9     		cbnz	r0, .L208
 396:src/voice.h   ****     return n;
 2923              		.loc 8 396 66 view .LVU993
 2924 0aee 0132     		adds	r2, r2, #1
 2925              	.LVL238:
 2926              	.L208:
 396:src/voice.h   ****     return n;
 2927              		.loc 8 396 5 is_stmt 1 view .LVU994
 396:src/voice.h   ****     return n;
 2928              		.loc 8 396 22 view .LVU995
 2929 0af0 6748     		ldr	r0, .L464+44
 2930 0af2 9842     		cmp	r0, r3
ARM GAS  /tmp/claude-502/cc09dAcL.s 			page 91


 2931 0af4 F7D1     		bne	.L209
 396:src/voice.h   ****     return n;
 2932              		.loc 8 396 22 is_stmt 0 view .LVU996
 2933              	.LBE898:
 397:src/voice.h   **** }
 2934              		.loc 8 397 5 is_stmt 1 view .LVU997
 2935              	.LVL239:
 397:src/voice.h   **** }
 2936              		.loc 8 397 5 is_stmt 0 view .LVU998
 2937              	.LBE897:
 2938              	.LBE896:
 2939              	.LBB899:
 2940              	.LBI899:
 126:/Users/reza.kalfane/Workspaces/Daisy/DaisyExamples/libDaisy/src/daisy_seed.h ****     {
 2941              		.loc 1 126 17 is_stmt 1 view .LVU999
 2942              	.LBE899:
 732:src/main.cpp  ****                 cycle_pos(g_voice_idx), cycle_total(), VOICE.name,
 2943              		.loc 6 732 62 is_stmt 0 view .LVU1000
 2944 0af6 8C23     		movs	r3, #140
 2945              	.LBB903:
 2946              	.LBB900:
 128:/Users/reza.kalfane/Workspaces/Daisy/DaisyExamples/libDaisy/src/daisy_seed.h ****     }
 2947              		.loc 1 128 23 view .LVU1001
 2948 0af8 6648     		ldr	r0, .L464+48
 2949              	.LBE900:
 2950              	.LBE903:
 2951              		.loc 6 732 62 view .LVU1002
 2952 0afa 03FB05F5 		mul	r5, r3, r5
 2953              	.LVL240:
 2954              		.loc 6 732 62 view .LVU1003
 2955 0afe 0AEB0506 		add	r6, r10, r5
 2956              	.LBB904:
 2957              	.LBB901:
 128:/Users/reza.kalfane/Workspaces/Daisy/DaisyExamples/libDaisy/src/daisy_seed.h ****     }
 2958              		.loc 1 128 23 view .LVU1004
 2959 0b02 5AF80530 		ldr	r3, [r10, r5]
 2960              	.LBE901:
 2961              	.LBE904:
 731:src/main.cpp  ****                 cycle_pos(g_voice_idx), cycle_total(), VOICE.name,
 2962              		.loc 6 731 25 view .LVU1005
 2963 0b06 96ED027A 		vldr.32	s14, [r6, #8]
 2964 0b0a D6ED017A 		vldr.32	s15, [r6, #4]
 2965 0b0e BDEEC77A 		vcvt.s32.f32	s14, s14
 2966 0b12 FDEEE77A 		vcvt.s32.f32	s15, s15
 2967              	.LBB905:
 2968              	.LBB902:
 128:/Users/reza.kalfane/Workspaces/Daisy/DaisyExamples/libDaisy/src/daisy_seed.h ****     }
 2969              		.loc 1 128 23 view .LVU1006
 2970 0b16 8DED017A 		vstr.32	s14, [sp, #4]	@ int
 2971 0b1a CDED007A 		vstr.32	s15, [sp]	@ int
 2972 0b1e FFF7FEFF 		bl	_ZN5daisy6LoggerILNS_17LoggerDestinationE1EE9PrintLineEPKcz
 2973              	.LVL241:
 2974              	.L204:
 128:/Users/reza.kalfane/Workspaces/Daisy/DaisyExamples/libDaisy/src/daisy_seed.h ****     }
 2975              		.loc 1 128 23 view .LVU1007
 2976              	.LBE902:
 2977              	.LBE905:
ARM GAS  /tmp/claude-502/cc09dAcL.s 			page 92


 733:src/main.cpp  ****                 (int)VOICE.freq_low, (int)VOICE.freq_high);
 734:src/main.cpp  ****         hw.PrintLine(" CH | DELTA | BAR");
 2978              		.loc 6 734 9 is_stmt 1 view .LVU1008
 2979              	.LBB906:
 2980              	.LBI906:
 126:/Users/reza.kalfane/Workspaces/Daisy/DaisyExamples/libDaisy/src/daisy_seed.h ****     {
 2981              		.loc 1 126 17 view .LVU1009
 2982              	.LBB907:
 128:/Users/reza.kalfane/Workspaces/Daisy/DaisyExamples/libDaisy/src/daisy_seed.h ****     }
 2983              		.loc 1 128 23 is_stmt 0 view .LVU1010
 2984 0b22 5D48     		ldr	r0, .L464+52
 2985              	.LBE907:
 2986              	.LBE906:
 2987              	.LBB909:
 2988              	.LBB910:
 2989              	.LBB911:
 2990              	.LBB912:
  88:src/main.cpp  ****     if(n>w)n=w;
 2991              		.loc 6 88 42 view .LVU1011
 2992 0b24 4FEA6408 		asr	r8, r4, #1
 2993              	.LBE912:
 2994              	.LBE911:
 2995              	.LBE910:
 2996              	.LBE909:
 2997              	.LBB931:
 2998              	.LBB908:
 128:/Users/reza.kalfane/Workspaces/Daisy/DaisyExamples/libDaisy/src/daisy_seed.h ****     }
 2999              		.loc 1 128 23 view .LVU1012
 3000 0b28 FFF7FEFF 		bl	_ZN5daisy6LoggerILNS_17LoggerDestinationE1EE9PrintLineEPKcz
 3001              	.LVL242:
 128:/Users/reza.kalfane/Workspaces/Daisy/DaisyExamples/libDaisy/src/daisy_seed.h ****     }
 3002              		.loc 1 128 23 view .LVU1013
 3003              	.LBE908:
 3004              	.LBE931:
 735:src/main.cpp  ****         hw.PrintLine("----+-------+--------------------");
 3005              		.loc 6 735 9 is_stmt 1 view .LVU1014
 3006              	.LBB932:
 3007              	.LBI932:
 126:/Users/reza.kalfane/Workspaces/Daisy/DaisyExamples/libDaisy/src/daisy_seed.h ****     {
 3008              		.loc 1 126 17 view .LVU1015
 3009              	.LBB933:
 128:/Users/reza.kalfane/Workspaces/Daisy/DaisyExamples/libDaisy/src/daisy_seed.h ****     }
 3010              		.loc 1 128 23 is_stmt 0 view .LVU1016
 3011 0b2c 5B48     		ldr	r0, .L464+56
 3012 0b2e FFF7FEFF 		bl	_ZN5daisy6LoggerILNS_17LoggerDestinationE1EE9PrintLineEPKcz
 3013              	.LVL243:
 128:/Users/reza.kalfane/Workspaces/Daisy/DaisyExamples/libDaisy/src/daisy_seed.h ****     }
 3014              		.loc 1 128 23 view .LVU1017
 3015              	.LBE933:
 3016              	.LBE932:
 736:src/main.cpp  ****         for(int i=0;i<N_CH;i++){
 3017              		.loc 6 736 9 is_stmt 1 view .LVU1018
 3018              	.LBB935:
 3019              		.loc 6 736 22 view .LVU1019
 3020              		.loc 6 736 17 is_stmt 0 view .LVU1020
 3021 0b32 0026     		movs	r6, #0
 3022              	.LBE935:
ARM GAS  /tmp/claude-502/cc09dAcL.s 			page 93


 3023              	.LBB936:
 3024              	.LBB934:
 128:/Users/reza.kalfane/Workspaces/Daisy/DaisyExamples/libDaisy/src/daisy_seed.h ****     }
 3025              		.loc 1 128 23 view .LVU1021
 3026 0b34 CDF814A0 		str	r10, [sp, #20]
 3027 0b38 DDF84CA0 		ldr	r10, [sp, #76]
 3028              	.LVL244:
 3029              	.L216:
 128:/Users/reza.kalfane/Workspaces/Daisy/DaisyExamples/libDaisy/src/daisy_seed.h ****     }
 3030              		.loc 1 128 23 view .LVU1022
 3031              	.LBE934:
 3032              	.LBE936:
 3033              	.LBB937:
 3034              	.LBB928:
 737:src/main.cpp  ****             make_bar(bar,delta[i],max_delta,20);
 3035              		.loc 6 737 13 is_stmt 1 view .LVU1023
 3036              		.loc 6 737 21 is_stmt 0 view .LVU1024
 3037 0b3c 5AF8042B 		ldr	r2, [r10], #4
 3038              	.LVL245:
 3039              	.LBB917:
 3040              	.LBI911:
  86:src/main.cpp  **** {
 3041              		.loc 6 86 6 is_stmt 1 view .LVU1025
 3042              	.LBB915:
  88:src/main.cpp  ****     if(n>w)n=w;
 3043              		.loc 6 88 5 view .LVU1026
  88:src/main.cpp  ****     if(n>w)n=w;
 3044              		.loc 6 88 25 is_stmt 0 view .LVU1027
 3045 0b40 002A     		cmp	r2, #0
 3046 0b42 40F31C85 		ble	.L295
  88:src/main.cpp  ****     if(n>w)n=w;
 3047              		.loc 6 88 36 view .LVU1028
 3048 0b46 02EB8200 		add	r0, r2, r2, lsl #2
  88:src/main.cpp  ****     if(n>w)n=w;
 3049              		.loc 6 88 38 view .LVU1029
 3050 0b4a 08EB8000 		add	r0, r8, r0, lsl #2
  88:src/main.cpp  ****     if(n>w)n=w;
 3051              		.loc 6 88 25 view .LVU1030
 3052 0b4e B0FBF4F0 		udiv	r0, r0, r4
 3053 0b52 1428     		cmp	r0, #20
 3054 0b54 A8BF     		it	ge
 3055 0b56 1420     		movge	r0, #20
 3056              	.L210:
  89:src/main.cpp  ****     out[0]='[';
 3057              		.loc 6 89 5 is_stmt 1 view .LVU1031
  90:src/main.cpp  ****     for(int i=0;i<w;i++)out[1+i]=(i<n)?'#':' ';
 3058              		.loc 6 90 5 view .LVU1032
  90:src/main.cpp  ****     for(int i=0;i<w;i++)out[1+i]=(i<n)?'#':' ';
 3059              		.loc 6 90 11 is_stmt 0 view .LVU1033
 3060 0b58 5B23     		movs	r3, #91
 3061 0b5a 0DF20D17 		addw	r7, sp, #269
 3062 0b5e 43A9     		add	r1, sp, #268
 3063              	.LVL246:
  90:src/main.cpp  ****     for(int i=0;i<w;i++)out[1+i]=(i<n)?'#':' ';
 3064              		.loc 6 90 11 view .LVU1034
 3065 0b60 8DF80C31 		strb	r3, [sp, #268]
  91:src/main.cpp  ****     out[1+w]=']';out[2+w]='\0';
ARM GAS  /tmp/claude-502/cc09dAcL.s 			page 94


 3066              		.loc 6 91 5 is_stmt 1 view .LVU1035
 3067              	.LVL247:
 3068              	.LBB913:
  91:src/main.cpp  ****     out[1+w]=']';out[2+w]='\0';
 3069              		.loc 6 91 18 view .LVU1036
 3070              	.LBE913:
  90:src/main.cpp  ****     for(int i=0;i<w;i++)out[1+i]=(i<n)?'#':' ';
 3071              		.loc 6 90 11 is_stmt 0 view .LVU1037
 3072 0b64 3B46     		mov	r3, r7
 3073 0b66 CD43     		mvns	r5, r1
 3074              	.LVL248:
 3075              	.L212:
 3076              	.LBB914:
  91:src/main.cpp  ****     out[1+w]=']';out[2+w]='\0';
 3077              		.loc 6 91 25 is_stmt 1 view .LVU1038
  91:src/main.cpp  ****     out[1+w]=']';out[2+w]='\0';
 3078              		.loc 6 91 39 is_stmt 0 view .LVU1039
 3079 0b68 E918     		adds	r1, r5, r3
 3080 0b6a 8142     		cmp	r1, r0
 3081 0b6c ACBF     		ite	ge
 3082 0b6e 2021     		movge	r1, #32
 3083 0b70 2321     		movlt	r1, #35
  91:src/main.cpp  ****     out[1+w]=']';out[2+w]='\0';
 3084              		.loc 6 91 33 view .LVU1040
 3085 0b72 03F8011B 		strb	r1, [r3], #1
 3086              	.LVL249:
  91:src/main.cpp  ****     out[1+w]=']';out[2+w]='\0';
 3087              		.loc 6 91 5 is_stmt 1 view .LVU1041
  91:src/main.cpp  ****     out[1+w]=']';out[2+w]='\0';
 3088              		.loc 6 91 18 view .LVU1042
 3089 0b76 0DF22111 		addw	r1, sp, #289
 3090 0b7a 9942     		cmp	r1, r3
 3091 0b7c F4D1     		bne	.L212
 3092              	.LBE914:
  92:src/main.cpp  **** }
 3093              		.loc 6 92 5 view .LVU1043
  92:src/main.cpp  **** }
 3094              		.loc 6 92 13 is_stmt 0 view .LVU1044
 3095 0b7e 5D23     		movs	r3, #93
 3096              	.LVL250:
  92:src/main.cpp  **** }
 3097              		.loc 6 92 13 view .LVU1045
 3098 0b80 8DF82131 		strb	r3, [sp, #289]
  92:src/main.cpp  **** }
 3099              		.loc 6 92 18 is_stmt 1 view .LVU1046
  92:src/main.cpp  **** }
 3100              		.loc 6 92 26 is_stmt 0 view .LVU1047
 3101 0b84 0023     		movs	r3, #0
 3102 0b86 8DF82231 		strb	r3, [sp, #290]
 3103              	.LVL251:
  92:src/main.cpp  **** }
 3104              		.loc 6 92 26 view .LVU1048
 3105              	.LBE915:
 3106              	.LBE917:
 3107              	.LBB918:
 738:src/main.cpp  ****             char mk=' ';
 739:src/main.cpp  ****             for(int s=0;s<2;s++)
ARM GAS  /tmp/claude-502/cc09dAcL.s 			page 95


 3108              		.loc 6 739 26 is_stmt 1 view .LVU1049
 740:src/main.cpp  ****                 if(tracked[s].alive&&i==tracked[s].peak_ch)mk=(char)('1'+s);
 3109              		.loc 6 740 17 view .LVU1050
 3110 0b8a 99F80030 		ldrb	r3, [r9]	@ zero_extendqisi2
 3111 0b8e 002B     		cmp	r3, #0
 3112 0b90 00F0F284 		beq	.L297
 3113              		.loc 6 740 36 is_stmt 0 view .LVU1051
 3114 0b94 D9F80C30 		ldr	r3, [r9, #12]
 3115              	.LBE918:
 738:src/main.cpp  ****             char mk=' ';
 3116              		.loc 6 738 18 view .LVU1052
 3117 0b98 B342     		cmp	r3, r6
 3118 0b9a 0CBF     		ite	eq
 3119 0b9c 3123     		moveq	r3, #49
 3120 0b9e 2023     		movne	r3, #32
 3121              	.L213:
 3122              	.LVL252:
 3123              	.LBB919:
 739:src/main.cpp  ****                 if(tracked[s].alive&&i==tracked[s].peak_ch)mk=(char)('1'+s);
 3124              		.loc 6 739 13 is_stmt 1 view .LVU1053
 739:src/main.cpp  ****                 if(tracked[s].alive&&i==tracked[s].peak_ch)mk=(char)('1'+s);
 3125              		.loc 6 739 26 view .LVU1054
 3126              		.loc 6 740 17 view .LVU1055
 3127 0ba0 99F81410 		ldrb	r1, [r9, #20]	@ zero_extendqisi2
 3128 0ba4 21B1     		cbz	r1, .L215
 3129              		.loc 6 740 36 is_stmt 0 view .LVU1056
 3130 0ba6 D9F82010 		ldr	r1, [r9, #32]
 3131              	.LBE919:
 3132              	.LBB920:
 3133              	.LBB921:
 128:/Users/reza.kalfane/Workspaces/Daisy/DaisyExamples/libDaisy/src/daisy_seed.h ****     }
 3134              		.loc 1 128 23 view .LVU1057
 3135 0baa B142     		cmp	r1, r6
 3136 0bac 08BF     		it	eq
 3137 0bae 3223     		moveq	r3, #50
 3138              	.LVL253:
 3139              	.L215:
 128:/Users/reza.kalfane/Workspaces/Daisy/DaisyExamples/libDaisy/src/daisy_seed.h ****     }
 3140              		.loc 1 128 23 view .LVU1058
 3141              	.LBE921:
 3142              	.LBE920:
 3143              	.LBB924:
 739:src/main.cpp  ****                 if(tracked[s].alive&&i==tracked[s].peak_ch)mk=(char)('1'+s);
 3144              		.loc 6 739 13 is_stmt 1 view .LVU1059
 739:src/main.cpp  ****                 if(tracked[s].alive&&i==tracked[s].peak_ch)mk=(char)('1'+s);
 3145              		.loc 6 739 26 view .LVU1060
 3146              	.LBE924:
 741:src/main.cpp  ****             hw.PrintLine(" %2d | %5d | %s %c",i,(int)delta[i],bar,mk);
 3147              		.loc 6 741 13 view .LVU1061
 3148              	.LBB925:
 3149              	.LBI920:
 126:/Users/reza.kalfane/Workspaces/Daisy/DaisyExamples/libDaisy/src/daisy_seed.h ****     {
 3150              		.loc 1 126 17 view .LVU1062
 3151              	.LBB922:
 128:/Users/reza.kalfane/Workspaces/Daisy/DaisyExamples/libDaisy/src/daisy_seed.h ****     }
 3152              		.loc 1 128 23 is_stmt 0 view .LVU1063
 3153 0bb0 3146     		mov	r1, r6
ARM GAS  /tmp/claude-502/cc09dAcL.s 			page 96


 3154              	.LBE922:
 3155              	.LBE925:
 3156              	.LBE928:
 736:src/main.cpp  ****             make_bar(bar,delta[i],max_delta,20);
 3157              		.loc 6 736 9 view .LVU1064
 3158 0bb2 0136     		adds	r6, r6, #1
 3159              	.LVL254:
 3160              	.LBB929:
 3161              	.LBB926:
 3162              	.LBB923:
 128:/Users/reza.kalfane/Workspaces/Daisy/DaisyExamples/libDaisy/src/daisy_seed.h ****     }
 3163              		.loc 1 128 23 view .LVU1065
 3164 0bb4 0093     		str	r3, [sp]
 3165 0bb6 43AB     		add	r3, sp, #268
 3166              	.LVL255:
 128:/Users/reza.kalfane/Workspaces/Daisy/DaisyExamples/libDaisy/src/daisy_seed.h ****     }
 3167              		.loc 1 128 23 view .LVU1066
 3168 0bb8 3948     		ldr	r0, .L464+60
 3169 0bba FFF7FEFF 		bl	_ZN5daisy6LoggerILNS_17LoggerDestinationE1EE9PrintLineEPKcz
 3170              	.LVL256:
 128:/Users/reza.kalfane/Workspaces/Daisy/DaisyExamples/libDaisy/src/daisy_seed.h ****     }
 3171              		.loc 1 128 23 view .LVU1067
 3172              	.LBE923:
 3173              	.LBE926:
 3174              	.LBE929:
 736:src/main.cpp  ****             make_bar(bar,delta[i],max_delta,20);
 3175              		.loc 6 736 9 is_stmt 1 view .LVU1068
 736:src/main.cpp  ****             make_bar(bar,delta[i],max_delta,20);
 3176              		.loc 6 736 22 view .LVU1069
 3177 0bbe 0C2E     		cmp	r6, #12
 3178 0bc0 BCD1     		bne	.L216
 3179              	.LBE937:
 3180              	.LBB938:
 3181              	.LBB939:
  97:src/main.cpp  ****     for(int i=0;i<w;i++)out[1+i]='-';
 3182              		.loc 6 97 11 is_stmt 0 view .LVU1070
 3183 0bc2 7C24     		movs	r4, #124
 3184              	.LBB940:
  98:src/main.cpp  ****     out[1+w]='|';out[2+w]='\0';
 3185              		.loc 6 98 33 view .LVU1071
 3186 0bc4 2822     		movs	r2, #40
 3187 0bc6 2D21     		movs	r1, #45
 3188 0bc8 0DF25D10 		addw	r0, sp, #349
 3189              	.LBE940:
  97:src/main.cpp  ****     for(int i=0;i<w;i++)out[1+i]='-';
 3190              		.loc 6 97 11 view .LVU1072
 3191 0bcc 8DF85C41 		strb	r4, [sp, #348]
  99:src/main.cpp  ****     for(int slot=0;slot<MAX_FINGERS;slot++){
 3192              		.loc 6 99 26 view .LVU1073
 3193 0bd0 A846     		mov	r8, r5
  97:src/main.cpp  ****     for(int i=0;i<w;i++)out[1+i]='-';
 3194              		.loc 6 97 11 view .LVU1074
 3195 0bd2 DDF814A0 		ldr	r10, [sp, #20]
 3196              	.LBE939:
 3197              	.LBE938:
 742:src/main.cpp  ****         }
 743:src/main.cpp  **** 
ARM GAS  /tmp/claude-502/cc09dAcL.s 			page 97


 744:src/main.cpp  ****         make_pos_bar(pos_bar,40);
 3198              		.loc 6 744 9 is_stmt 1 view .LVU1075
 3199              	.LVL257:
 3200              	.LBB945:
 3201              	.LBI938:
  95:src/main.cpp  **** {
 3202              		.loc 6 95 6 view .LVU1076
 3203              	.LBB944:
  97:src/main.cpp  ****     for(int i=0;i<w;i++)out[1+i]='-';
 3204              		.loc 6 97 5 view .LVU1077
  98:src/main.cpp  ****     out[1+w]='|';out[2+w]='\0';
 3205              		.loc 6 98 5 view .LVU1078
 3206              	.LBB941:
  98:src/main.cpp  ****     out[1+w]='|';out[2+w]='\0';
 3207              		.loc 6 98 18 view .LVU1079
  98:src/main.cpp  ****     out[1+w]='|';out[2+w]='\0';
 3208              		.loc 6 98 33 is_stmt 0 view .LVU1080
 3209 0bd6 FFF7FEFF 		bl	memset
 3210              	.LVL258:
  98:src/main.cpp  ****     out[1+w]='|';out[2+w]='\0';
 3211              		.loc 6 98 33 view .LVU1081
 3212              	.LBE941:
  99:src/main.cpp  ****     for(int slot=0;slot<MAX_FINGERS;slot++){
 3213              		.loc 6 99 5 is_stmt 1 view .LVU1082
  99:src/main.cpp  ****     for(int slot=0;slot<MAX_FINGERS;slot++){
 3214              		.loc 6 99 26 is_stmt 0 view .LVU1083
 3215 0bda 324E     		ldr	r6, .L464+64
 3216              	.LVL259:
  99:src/main.cpp  ****     for(int slot=0;slot<MAX_FINGERS;slot++){
 3217              		.loc 6 99 26 view .LVU1084
 3218 0bdc 0023     		movs	r3, #0
  99:src/main.cpp  ****     for(int slot=0;slot<MAX_FINGERS;slot++){
 3219              		.loc 6 99 13 view .LVU1085
 3220 0bde 8DF88541 		strb	r4, [sp, #389]
  99:src/main.cpp  ****     for(int slot=0;slot<MAX_FINGERS;slot++){
 3221              		.loc 6 99 18 is_stmt 1 view .LVU1086
  99:src/main.cpp  ****     for(int slot=0;slot<MAX_FINGERS;slot++){
 3222              		.loc 6 99 26 is_stmt 0 view .LVU1087
 3223 0be2 3124     		movs	r4, #49
 3224 0be4 8DF88631 		strb	r3, [sp, #390]
 100:src/main.cpp  ****         if(!tracked[slot].alive)continue;
 3225              		.loc 6 100 5 is_stmt 1 view .LVU1088
 3226              	.LVL260:
 3227              	.LBB942:
 100:src/main.cpp  ****         if(!tracked[slot].alive)continue;
 3228              		.loc 6 100 24 view .LVU1089
 3229              	.L219:
 3230              	.LBB943:
 101:src/main.cpp  ****         int p=(int)(((int64_t)tracked[slot].pos*(w-1)+500)/1000);
 3231              		.loc 6 101 9 view .LVU1090
 102:src/main.cpp  ****         if(p<0)p=0;if(p>=w)p=w-1;
 3232              		.loc 6 102 9 view .LVU1091
 101:src/main.cpp  ****         int p=(int)(((int64_t)tracked[slot].pos*(w-1)+500)/1000);
 3233              		.loc 6 101 9 is_stmt 0 view .LVU1092
 3234 0be8 96F800E0 		ldrb	lr, [r6]	@ zero_extendqisi2
 102:src/main.cpp  ****         if(p<0)p=0;if(p>=w)p=w-1;
 3235              		.loc 6 102 54 view .LVU1093
ARM GAS  /tmp/claude-502/cc09dAcL.s 			page 98


 3236 0bec 4FF0270C 		mov	ip, #39
 3237 0bf0 4FF4FA70 		mov	r0, #500
 3238 0bf4 0021     		movs	r1, #0
 102:src/main.cpp  ****         if(p<0)p=0;if(p>=w)p=w-1;
 3239              		.loc 6 102 59 view .LVU1094
 3240 0bf6 4FF47A72 		mov	r2, #1000
 3241 0bfa 0023     		movs	r3, #0
 101:src/main.cpp  ****         int p=(int)(((int64_t)tracked[slot].pos*(w-1)+500)/1000);
 3242              		.loc 6 101 9 view .LVU1095
 3243 0bfc BEF1000F 		cmp	lr, #0
 3244 0c00 10D0     		beq	.L217
 102:src/main.cpp  ****         if(p<0)p=0;if(p>=w)p=w-1;
 3245              		.loc 6 102 59 view .LVU1096
 3246 0c02 7568     		ldr	r5, [r6, #4]
 3247 0c04 C5FB0C01 		smlal	r0, r1, r5, ip
 3248 0c08 FFF7FEFF 		bl	__aeabi_ldivmod
 3249              	.LVL261:
 103:src/main.cpp  ****         out[1+p]=(char)('1'+slot);
 3250              		.loc 6 103 20 view .LVU1097
 3251 0c0c 2728     		cmp	r0, #39
 104:src/main.cpp  ****     }
 3252              		.loc 6 104 14 view .LVU1098
 3253 0c0e 20EAE070 		bic	r0, r0, r0, asr #31
 3254 0c12 4FF02803 		mov	r3, #40
 103:src/main.cpp  ****         out[1+p]=(char)('1'+slot);
 3255              		.loc 6 103 9 is_stmt 1 view .LVU1099
 103:src/main.cpp  ****         out[1+p]=(char)('1'+slot);
 3256              		.loc 6 103 20 view .LVU1100
 104:src/main.cpp  ****     }
 3257              		.loc 6 104 14 is_stmt 0 view .LVU1101
 3258 0c16 D8BF     		it	le
 3259 0c18 431C     		addle	r3, r0, #1
 104:src/main.cpp  ****     }
 3260              		.loc 6 104 9 is_stmt 1 view .LVU1102
 104:src/main.cpp  ****     }
 3261              		.loc 6 104 17 is_stmt 0 view .LVU1103
 3262 0c1a 03F5F073 		add	r3, r3, #480
 3263 0c1e 6B44     		add	r3, sp, r3
 3264 0c20 03F8844C 		strb	r4, [r3, #-132]
 3265              	.L217:
 3266              	.LBE943:
 100:src/main.cpp  ****         if(!tracked[slot].alive)continue;
 3267              		.loc 6 100 5 is_stmt 1 view .LVU1104
 100:src/main.cpp  ****         if(!tracked[slot].alive)continue;
 3268              		.loc 6 100 24 view .LVU1105
 3269 0c24 0134     		adds	r4, r4, #1
 3270 0c26 1436     		adds	r6, r6, #20
 3271 0c28 E4B2     		uxtb	r4, r4
 3272 0c2a 352C     		cmp	r4, #53
 3273 0c2c DCD1     		bne	.L219
 3274              	.LBE942:
 3275              	.LBE944:
 3276              	.LBE945:
 3277              	.LBB946:
 3278              	.LBB947:
 128:/Users/reza.kalfane/Workspaces/Daisy/DaisyExamples/libDaisy/src/daisy_seed.h ****     }
 3279              		.loc 1 128 23 is_stmt 0 view .LVU1106
ARM GAS  /tmp/claude-502/cc09dAcL.s 			page 99


 3280 0c2e 57A9     		add	r1, sp, #348
 3281              	.LVL262:
 128:/Users/reza.kalfane/Workspaces/Daisy/DaisyExamples/libDaisy/src/daisy_seed.h ****     }
 3282              		.loc 1 128 23 view .LVU1107
 3283 0c30 1D48     		ldr	r0, .L464+68
 3284 0c32 FFF7FEFF 		bl	_ZN5daisy6LoggerILNS_17LoggerDestinationE1EE9PrintLineEPKcz
 3285              	.LVL263:
 128:/Users/reza.kalfane/Workspaces/Daisy/DaisyExamples/libDaisy/src/daisy_seed.h ****     }
 3286              		.loc 1 128 23 view .LVU1108
 3287 0c36 4546     		mov	r5, r8
 3288              	.LVL264:
 128:/Users/reza.kalfane/Workspaces/Daisy/DaisyExamples/libDaisy/src/daisy_seed.h ****     }
 3289              		.loc 1 128 23 view .LVU1109
 3290              	.LBE947:
 3291              	.LBE946:
 745:src/main.cpp  ****         hw.PrintLine("\nPOS  %s",pos_bar);
 3292              		.loc 6 745 9 is_stmt 1 view .LVU1110
 3293              	.LBB949:
 3294              	.LBI946:
 126:/Users/reza.kalfane/Workspaces/Daisy/DaisyExamples/libDaisy/src/daisy_seed.h ****     {
 3295              		.loc 1 126 17 view .LVU1111
 126:/Users/reza.kalfane/Workspaces/Daisy/DaisyExamples/libDaisy/src/daisy_seed.h ****     {
 3296              		.loc 1 126 17 is_stmt 0 view .LVU1112
 3297              	.LBE949:
 746:src/main.cpp  **** 
 747:src/main.cpp  ****         // Always print both finger rows ‚Äî inactive shows dashes so line count is stable
 748:src/main.cpp  ****         for(int slot=0;slot<2;slot++){
 3298              		.loc 6 748 9 is_stmt 1 view .LVU1113
 3299              	.LBB950:
 3300              		.loc 6 748 28 view .LVU1114
 3301 0c38 DDF85080 		ldr	r8, [sp, #80]
 3302              	.LBE950:
 3303              	.LBB965:
 3304              	.LBB948:
 128:/Users/reza.kalfane/Workspaces/Daisy/DaisyExamples/libDaisy/src/daisy_seed.h ****     }
 3305              		.loc 1 128 23 is_stmt 0 view .LVU1115
 3306 0c3c 0126     		movs	r6, #1
 3307              	.LVL265:
 128:/Users/reza.kalfane/Workspaces/Daisy/DaisyExamples/libDaisy/src/daisy_seed.h ****     }
 3308              		.loc 1 128 23 view .LVU1116
 3309              	.LBE948:
 3310              	.LBE965:
 3311              	.LBB966:
 749:src/main.cpp  ****             if(tracked[slot].alive){
 3312              		.loc 6 749 13 is_stmt 1 view .LVU1117
 3313 0c3e 0DF21D14 		addw	r4, sp, #285
 3314 0c42 98F80030 		ldrb	r3, [r8]	@ zero_extendqisi2
 3315 0c46 002B     		cmp	r3, #0
 3316 0c48 00F0A284 		beq	.L220
 3317              	.LVL266:
 3318              	.L454:
 750:src/main.cpp  ****                 make_bar(bar,tracked[slot].pressure,100,16);
 3319              		.loc 6 750 17 view .LVU1118
 3320              		.loc 6 750 25 is_stmt 0 view .LVU1119
 3321 0c4c D8F80830 		ldr	r3, [r8, #8]
 3322              	.LVL267:
 3323              	.LBB951:
ARM GAS  /tmp/claude-502/cc09dAcL.s 			page 100


 3324              	.LBI951:
  86:src/main.cpp  **** {
 3325              		.loc 6 86 6 is_stmt 1 view .LVU1120
 3326              	.LBB952:
  88:src/main.cpp  ****     if(n>w)n=w;
 3327              		.loc 6 88 5 view .LVU1121
  88:src/main.cpp  ****     if(n>w)n=w;
 3328              		.loc 6 88 25 is_stmt 0 view .LVU1122
 3329 0c50 002B     		cmp	r3, #0
 3330 0c52 40F30E86 		ble	.L301
  88:src/main.cpp  ****     if(n>w)n=w;
 3331              		.loc 6 88 36 view .LVU1123
 3332 0c56 1801     		lsls	r0, r3, #4
  88:src/main.cpp  ****     if(n>w)n=w;
 3333              		.loc 6 88 25 view .LVU1124
 3334 0c58 144A     		ldr	r2, .L464+72
  88:src/main.cpp  ****     if(n>w)n=w;
 3335              		.loc 6 88 38 view .LVU1125
 3336 0c5a 3230     		adds	r0, r0, #50
  88:src/main.cpp  ****     if(n>w)n=w;
 3337              		.loc 6 88 25 view .LVU1126
 3338 0c5c A2FB0020 		umull	r2, r0, r2, r0
 3339 0c60 26E0     		b	.L465
 3340              	.L466:
 3341 0c62 00BF     		.align	2
 3342              	.L464:
 3343 0c64 20000000 		.word	.LANCHOR1+32
 3344 0c68 00007A44 		.word	1148846080
 3345 0c6c 0000C842 		.word	1120403456
 3346 0c70 9A99593F 		.word	1062836634
 3347 0c74 9A99193E 		.word	1041865114
 3348 0c78 00000000 		.word	0
 3349 0c7c 00000000 		.word	g_target_detune
 3350 0c80 00000000 		.word	g_bitcrush
 3351 0c84 00000000 		.word	g_ringmod
 3352 0c88 00000000 		.word	.LANCHOR2
 3353 0c8c 00000000 		.word	.LANCHOR6
 3354 0c90 1C070000 		.word	.LANCHOR6+1820
 3355 0c94 80010000 		.word	.LC13
 3356 0c98 9C010000 		.word	.LC14
 3357 0c9c B0010000 		.word	.LC15
 3358 0ca0 D4010000 		.word	.LC16
 3359 0ca4 00000000 		.word	tracked
 3360 0ca8 E8010000 		.word	.LC17
 3361 0cac 1F85EB51 		.word	1374389535
 3362              	.L465:
 3363 0cb0 4009     		lsrs	r0, r0, #5
 3364 0cb2 1028     		cmp	r0, #16
 3365 0cb4 A8BF     		it	ge
 3366 0cb6 1020     		movge	r0, #16
 3367              	.L221:
  89:src/main.cpp  ****     out[0]='[';
 3368              		.loc 6 89 5 is_stmt 1 view .LVU1127
  90:src/main.cpp  ****     for(int i=0;i<w;i++)out[1+i]=(i<n)?'#':' ';
 3369              		.loc 6 90 5 view .LVU1128
  90:src/main.cpp  ****     for(int i=0;i<w;i++)out[1+i]=(i<n)?'#':' ';
 3370              		.loc 6 90 11 is_stmt 0 view .LVU1129
ARM GAS  /tmp/claude-502/cc09dAcL.s 			page 101


 3371 0cb8 5B22     		movs	r2, #91
 3372 0cba 8DF80C21 		strb	r2, [sp, #268]
  91:src/main.cpp  ****     out[1+w]=']';out[2+w]='\0';
 3373              		.loc 6 91 5 is_stmt 1 view .LVU1130
 3374              	.LVL268:
 3375              	.LBB953:
  91:src/main.cpp  ****     out[1+w]=']';out[2+w]='\0';
 3376              		.loc 6 91 18 view .LVU1131
 3377              	.LBE953:
  90:src/main.cpp  ****     for(int i=0;i<w;i++)out[1+i]=(i<n)?'#':' ';
 3378              		.loc 6 90 11 is_stmt 0 view .LVU1132
 3379 0cbe 0DF20D12 		addw	r2, sp, #269
 3380              	.LVL269:
 3381              	.L223:
 3382              	.LBB954:
  91:src/main.cpp  ****     out[1+w]=']';out[2+w]='\0';
 3383              		.loc 6 91 25 is_stmt 1 view .LVU1133
  91:src/main.cpp  ****     out[1+w]=']';out[2+w]='\0';
 3384              		.loc 6 91 39 is_stmt 0 view .LVU1134
 3385 0cc2 A918     		adds	r1, r5, r2
 3386 0cc4 8142     		cmp	r1, r0
 3387 0cc6 ACBF     		ite	ge
 3388 0cc8 2021     		movge	r1, #32
 3389 0cca 2321     		movlt	r1, #35
  91:src/main.cpp  ****     out[1+w]=']';out[2+w]='\0';
 3390              		.loc 6 91 33 view .LVU1135
 3391 0ccc 02F8011B 		strb	r1, [r2], #1
 3392              	.LVL270:
  91:src/main.cpp  ****     out[1+w]=']';out[2+w]='\0';
 3393              		.loc 6 91 5 is_stmt 1 view .LVU1136
  91:src/main.cpp  ****     out[1+w]=']';out[2+w]='\0';
 3394              		.loc 6 91 18 view .LVU1137
 3395 0cd0 9442     		cmp	r4, r2
 3396 0cd2 F6D1     		bne	.L223
 3397              	.LBE954:
  92:src/main.cpp  **** }
 3398              		.loc 6 92 5 view .LVU1138
 3399              	.LBE952:
 3400              	.LBE951:
 3401              	.LBB957:
 3402              	.LBB958:
 128:/Users/reza.kalfane/Workspaces/Daisy/DaisyExamples/libDaisy/src/daisy_seed.h ****     }
 3403              		.loc 1 128 23 is_stmt 0 view .LVU1139
 3404 0cd4 43AA     		add	r2, sp, #268
 3405              	.LVL271:
 128:/Users/reza.kalfane/Workspaces/Daisy/DaisyExamples/libDaisy/src/daisy_seed.h ****     }
 3406              		.loc 1 128 23 view .LVU1140
 3407 0cd6 3146     		mov	r1, r6
 3408 0cd8 8C48     		ldr	r0, .L467
 3409 0cda 0092     		str	r2, [sp]
 3410              	.LBE958:
 3411              	.LBE957:
 3412              	.LBB960:
 3413              	.LBB955:
  92:src/main.cpp  **** }
 3414              		.loc 6 92 13 view .LVU1141
 3415 0cdc 5D22     		movs	r2, #93
ARM GAS  /tmp/claude-502/cc09dAcL.s 			page 102


 3416              	.LVL272:
  92:src/main.cpp  **** }
 3417              		.loc 6 92 13 view .LVU1142
 3418 0cde 8DF81D21 		strb	r2, [sp, #285]
  92:src/main.cpp  **** }
 3419              		.loc 6 92 18 is_stmt 1 view .LVU1143
  92:src/main.cpp  **** }
 3420              		.loc 6 92 26 is_stmt 0 view .LVU1144
 3421 0ce2 0022     		movs	r2, #0
 3422 0ce4 8DF81E21 		strb	r2, [sp, #286]
 3423              	.LVL273:
  92:src/main.cpp  **** }
 3424              		.loc 6 92 26 view .LVU1145
 3425              	.LBE955:
 3426              	.LBE960:
 751:src/main.cpp  ****                 hw.PrintLine("  %d  pos:%4d  prs:%3d%%  %s",
 3427              		.loc 6 751 17 is_stmt 1 view .LVU1146
 3428              	.LBB961:
 3429              	.LBI957:
 126:/Users/reza.kalfane/Workspaces/Daisy/DaisyExamples/libDaisy/src/daisy_seed.h ****     {
 3430              		.loc 1 126 17 view .LVU1147
 3431              	.LBB959:
 128:/Users/reza.kalfane/Workspaces/Daisy/DaisyExamples/libDaisy/src/daisy_seed.h ****     }
 3432              		.loc 1 128 23 is_stmt 0 view .LVU1148
 3433 0ce8 D8F80420 		ldr	r2, [r8, #4]
 3434 0cec FFF7FEFF 		bl	_ZN5daisy6LoggerILNS_17LoggerDestinationE1EE9PrintLineEPKcz
 3435              	.LVL274:
 3436              	.L224:
 128:/Users/reza.kalfane/Workspaces/Daisy/DaisyExamples/libDaisy/src/daisy_seed.h ****     }
 3437              		.loc 1 128 23 view .LVU1149
 3438              	.LBE959:
 3439              	.LBE961:
 748:src/main.cpp  ****             if(tracked[slot].alive){
 3440              		.loc 6 748 9 is_stmt 1 discriminator 2 view .LVU1150
 748:src/main.cpp  ****             if(tracked[slot].alive){
 3441              		.loc 6 748 28 discriminator 2 view .LVU1151
 3442 0cf0 022E     		cmp	r6, #2
 3443 0cf2 08F11408 		add	r8, r8, #20
 3444 0cf6 40F04584 		bne	.L303
 3445              	.LBE966:
 752:src/main.cpp  ****                     slot+1,(int)tracked[slot].pos,(int)tracked[slot].pressure,bar);
 753:src/main.cpp  ****             } else {
 754:src/main.cpp  ****                 hw.PrintLine("  %d  pos: ---  prs: --%%  [                ]",slot+1);
 755:src/main.cpp  ****             }
 756:src/main.cpp  ****         }
 757:src/main.cpp  **** 
 758:src/main.cpp  ****         // FSR (master-volume) pressure: unpressed = 0%, pressed to mute = 100%.
 759:src/main.cpp  ****         int fsr_pct = (int)((1.0f - vol) * 100.0f + 0.5f);
 3446              		.loc 6 759 9 view .LVU1152
 3447              		.loc 6 759 35 is_stmt 0 view .LVU1153
 3448 0cfa B7EE007A 		vmov.f32	s14, #1.0e+0
 3449              		.loc 6 759 51 view .LVU1154
 3450 0cfe DFED846A 		vldr.32	s13, .L467+4
 3451 0d02 F6EE007A 		vmov.f32	s15, #5.0e-1
 3452              		.loc 6 759 35 view .LVU1155
 3453 0d06 37EE488A 		vsub.f32	s16, s14, s16
 3454              		.loc 6 759 51 view .LVU1156
ARM GAS  /tmp/claude-502/cc09dAcL.s 			page 103


 3455 0d0a E8EE267A 		vfma.f32	s15, s16, s13
 3456              		.loc 6 759 13 view .LVU1157
 3457 0d0e FDEEE77A 		vcvt.s32.f32	s15, s15
 3458 0d12 17EE903A 		vmov	r3, s15	@ int
 3459              	.LVL275:
 760:src/main.cpp  ****         if(fsr_pct < 0) fsr_pct = 0; else if(fsr_pct > 100) fsr_pct = 100;
 3460              		.loc 6 760 9 is_stmt 1 view .LVU1158
 3461 0d16 17EE901A 		vmov	r1, s15	@ int
 3462 0d1a 642B     		cmp	r3, #100
 3463 0d1c A8BF     		it	ge
 3464 0d1e 6421     		movge	r1, #100
 3465              	.LBB967:
 3466              	.LBB968:
  88:src/main.cpp  ****     if(n>w)n=w;
 3467              		.loc 6 88 25 is_stmt 0 view .LVU1159
 3468 0d20 002B     		cmp	r3, #0
 3469 0d22 21EAE171 		bic	r1, r1, r1, asr #31
 3470              	.LVL276:
  88:src/main.cpp  ****     if(n>w)n=w;
 3471              		.loc 6 88 25 view .LVU1160
 3472              	.LBE968:
 3473              	.LBE967:
 761:src/main.cpp  ****         make_bar(bar, fsr_pct, 100, 16);
 3474              		.loc 6 761 9 is_stmt 1 view .LVU1161
 3475              	.LBB973:
 3476              	.LBI967:
  86:src/main.cpp  **** {
 3477              		.loc 6 86 6 view .LVU1162
 3478              	.LBB970:
  88:src/main.cpp  ****     if(n>w)n=w;
 3479              		.loc 6 88 5 view .LVU1163
  88:src/main.cpp  ****     if(n>w)n=w;
 3480              		.loc 6 88 25 is_stmt 0 view .LVU1164
 3481 0d26 40F3A785 		ble	.L304
  88:src/main.cpp  ****     if(n>w)n=w;
 3482              		.loc 6 88 36 view .LVU1165
 3483 0d2a 0A01     		lsls	r2, r1, #4
  88:src/main.cpp  ****     if(n>w)n=w;
 3484              		.loc 6 88 25 view .LVU1166
 3485 0d2c 794B     		ldr	r3, .L467+8
  88:src/main.cpp  ****     if(n>w)n=w;
 3486              		.loc 6 88 38 view .LVU1167
 3487 0d2e 3232     		adds	r2, r2, #50
  88:src/main.cpp  ****     if(n>w)n=w;
 3488              		.loc 6 88 25 view .LVU1168
 3489 0d30 A3FB0232 		umull	r3, r2, r3, r2
 3490 0d34 5209     		lsrs	r2, r2, #5
 3491              	.L226:
 3492              	.LVL277:
  89:src/main.cpp  ****     out[0]='[';
 3493              		.loc 6 89 5 is_stmt 1 view .LVU1169
  90:src/main.cpp  ****     for(int i=0;i<w;i++)out[1+i]=(i<n)?'#':' ';
 3494              		.loc 6 90 5 view .LVU1170
  90:src/main.cpp  ****     for(int i=0;i<w;i++)out[1+i]=(i<n)?'#':' ';
 3495              		.loc 6 90 11 is_stmt 0 view .LVU1171
 3496 0d36 5B23     		movs	r3, #91
 3497 0d38 8DF80C31 		strb	r3, [sp, #268]
ARM GAS  /tmp/claude-502/cc09dAcL.s 			page 104


  91:src/main.cpp  ****     out[1+w]=']';out[2+w]='\0';
 3498              		.loc 6 91 5 is_stmt 1 view .LVU1172
 3499              	.LVL278:
 3500              	.LBB969:
  91:src/main.cpp  ****     out[1+w]=']';out[2+w]='\0';
 3501              		.loc 6 91 18 view .LVU1173
 3502              	.L228:
  91:src/main.cpp  ****     out[1+w]=']';out[2+w]='\0';
 3503              		.loc 6 91 25 view .LVU1174
  91:src/main.cpp  ****     out[1+w]=']';out[2+w]='\0';
 3504              		.loc 6 91 39 is_stmt 0 view .LVU1175
 3505 0d3c 7B19     		adds	r3, r7, r5
 3506 0d3e 9A42     		cmp	r2, r3
 3507 0d40 D4BF     		ite	le
 3508 0d42 2023     		movle	r3, #32
 3509 0d44 2323     		movgt	r3, #35
  91:src/main.cpp  ****     out[1+w]=']';out[2+w]='\0';
 3510              		.loc 6 91 33 view .LVU1176
 3511 0d46 07F8013B 		strb	r3, [r7], #1
 3512              	.LVL279:
  91:src/main.cpp  ****     out[1+w]=']';out[2+w]='\0';
 3513              		.loc 6 91 5 is_stmt 1 view .LVU1177
  91:src/main.cpp  ****     out[1+w]=']';out[2+w]='\0';
 3514              		.loc 6 91 18 view .LVU1178
 3515 0d4a BC42     		cmp	r4, r7
 3516 0d4c F6D1     		bne	.L228
 3517              	.LBE969:
  92:src/main.cpp  **** }
 3518              		.loc 6 92 5 view .LVU1179
  92:src/main.cpp  **** }
 3519              		.loc 6 92 13 is_stmt 0 view .LVU1180
 3520 0d4e 5D23     		movs	r3, #93
 3521              	.LBE970:
 3522              	.LBE973:
 3523              	.LBB974:
 3524              	.LBB975:
 128:/Users/reza.kalfane/Workspaces/Daisy/DaisyExamples/libDaisy/src/daisy_seed.h ****     }
 3525              		.loc 1 128 23 view .LVU1181
 3526 0d50 43AA     		add	r2, sp, #268
 3527              	.LVL280:
 128:/Users/reza.kalfane/Workspaces/Daisy/DaisyExamples/libDaisy/src/daisy_seed.h ****     }
 3528              		.loc 1 128 23 view .LVU1182
 3529 0d52 7148     		ldr	r0, .L467+12
 3530              	.LBE975:
 3531              	.LBE974:
 3532              	.LBB977:
 3533              	.LBB971:
  92:src/main.cpp  **** }
 3534              		.loc 6 92 13 view .LVU1183
 3535 0d54 8DF81D31 		strb	r3, [sp, #285]
  92:src/main.cpp  **** }
 3536              		.loc 6 92 18 is_stmt 1 view .LVU1184
  92:src/main.cpp  **** }
 3537              		.loc 6 92 26 is_stmt 0 view .LVU1185
 3538 0d58 0023     		movs	r3, #0
 3539 0d5a 8DF81E31 		strb	r3, [sp, #286]
 3540              	.LVL281:
ARM GAS  /tmp/claude-502/cc09dAcL.s 			page 105


  92:src/main.cpp  **** }
 3541              		.loc 6 92 26 view .LVU1186
 3542              	.LBE971:
 3543              	.LBE977:
 762:src/main.cpp  ****         hw.PrintLine(" FSR pressure  %3d%%  %s", fsr_pct, bar);
 3544              		.loc 6 762 9 is_stmt 1 view .LVU1187
 3545              	.LBB978:
 3546              	.LBI974:
 126:/Users/reza.kalfane/Workspaces/Daisy/DaisyExamples/libDaisy/src/daisy_seed.h ****     {
 3547              		.loc 1 126 17 view .LVU1188
 3548              	.LBB976:
 128:/Users/reza.kalfane/Workspaces/Daisy/DaisyExamples/libDaisy/src/daisy_seed.h ****     }
 3549              		.loc 1 128 23 is_stmt 0 view .LVU1189
 3550 0d5e FFF7FEFF 		bl	_ZN5daisy6LoggerILNS_17LoggerDestinationE1EE9PrintLineEPKcz
 3551              	.LVL282:
 128:/Users/reza.kalfane/Workspaces/Daisy/DaisyExamples/libDaisy/src/daisy_seed.h ****     }
 3552              		.loc 1 128 23 view .LVU1190
 3553              	.LBE976:
 3554              	.LBE978:
 763:src/main.cpp  **** 
 764:src/main.cpp  ****         // Audio param display ‚Äî fixed width, always same line count
 765:src/main.cpp  ****         int freq_i  = (int)g_target_freq;
 3555              		.loc 6 765 9 is_stmt 1 view .LVU1191
 3556              		.loc 6 765 23 is_stmt 0 view .LVU1192
 3557 0d62 6E4B     		ldr	r3, .L467+16
 766:src/main.cpp  ****         int cut_i   = (int)g_target_cutoff;
 767:src/main.cpp  ****         int det_i10 = (int)(g_target_detune*10);
 3558              		.loc 6 767 44 view .LVU1193
 3559 0d64 F2EE044A 		vmov.f32	s9, #1.0e+1
 768:src/main.cpp  ****         int bc_i    = (int)(g_bitcrush*100);
 3560              		.loc 6 768 39 view .LVU1194
 3561 0d68 9FED695A 		vldr.32	s10, .L467+4
 3562              	.LVL283:
 765:src/main.cpp  ****         int cut_i   = (int)g_target_cutoff;
 3563              		.loc 6 765 23 view .LVU1195
 3564 0d6c D3ED006A 		vldr.32	s13, [r3]
 766:src/main.cpp  ****         int cut_i   = (int)g_target_cutoff;
 3565              		.loc 6 766 23 view .LVU1196
 3566 0d70 6B4B     		ldr	r3, .L467+20
 765:src/main.cpp  ****         int cut_i   = (int)g_target_cutoff;
 3567              		.loc 6 765 28 view .LVU1197
 3568 0d72 FDEEE66A 		vcvt.s32.f32	s13, s13
 766:src/main.cpp  ****         int cut_i   = (int)g_target_cutoff;
 3569              		.loc 6 766 23 view .LVU1198
 3570 0d76 93ED006A 		vldr.32	s12, [r3]
 767:src/main.cpp  ****         int bc_i    = (int)(g_bitcrush*100);
 3571              		.loc 6 767 29 view .LVU1199
 3572 0d7a 6A4B     		ldr	r3, .L467+24
 765:src/main.cpp  ****         int cut_i   = (int)g_target_cutoff;
 3573              		.loc 6 765 28 view .LVU1200
 3574 0d7c 16EE901A 		vmov	r1, s13	@ int
 3575              	.LVL284:
 766:src/main.cpp  ****         int det_i10 = (int)(g_target_detune*10);
 3576              		.loc 6 766 9 is_stmt 1 view .LVU1201
 766:src/main.cpp  ****         int det_i10 = (int)(g_target_detune*10);
 3577              		.loc 6 766 28 is_stmt 0 view .LVU1202
 3578 0d80 FDEEC66A 		vcvt.s32.f32	s13, s12
ARM GAS  /tmp/claude-502/cc09dAcL.s 			page 106


 767:src/main.cpp  ****         int bc_i    = (int)(g_bitcrush*100);
 3579              		.loc 6 767 29 view .LVU1203
 3580 0d84 D3ED005A 		vldr.32	s11, [r3]
 3581              		.loc 6 768 29 view .LVU1204
 3582 0d88 674B     		ldr	r3, .L467+28
 767:src/main.cpp  ****         int bc_i    = (int)(g_bitcrush*100);
 3583              		.loc 6 767 44 view .LVU1205
 3584 0d8a 65EEA45A 		vmul.f32	s11, s11, s9
 766:src/main.cpp  ****         int det_i10 = (int)(g_target_detune*10);
 3585              		.loc 6 766 28 view .LVU1206
 3586 0d8e 16EE902A 		vmov	r2, s13	@ int
 3587              	.LVL285:
 767:src/main.cpp  ****         int bc_i    = (int)(g_bitcrush*100);
 3588              		.loc 6 767 9 is_stmt 1 view .LVU1207
 3589              		.loc 6 768 29 is_stmt 0 view .LVU1208
 3590 0d92 D3ED007A 		vldr.32	s15, [r3]
 769:src/main.cpp  ****         int vib_i   = (int)(g_vibrato_depth*100);
 3591              		.loc 6 769 29 view .LVU1209
 3592 0d96 654B     		ldr	r3, .L467+32
 767:src/main.cpp  ****         int bc_i    = (int)(g_bitcrush*100);
 3593              		.loc 6 767 47 view .LVU1210
 3594 0d98 FDEEE56A 		vcvt.s32.f32	s13, s11
 3595              		.loc 6 769 29 view .LVU1211
 3596 0d9c 93ED007A 		vldr.32	s14, [r3]
 768:src/main.cpp  ****         int vib_i   = (int)(g_vibrato_depth*100);
 3597              		.loc 6 768 39 view .LVU1212
 3598 0da0 67EE857A 		vmul.f32	s15, s15, s10
 767:src/main.cpp  ****         int bc_i    = (int)(g_bitcrush*100);
 3599              		.loc 6 767 47 view .LVU1213
 3600 0da4 16EE900A 		vmov	r0, s13	@ int
 3601              	.LVL286:
 768:src/main.cpp  ****         int vib_i   = (int)(g_vibrato_depth*100);
 3602              		.loc 6 768 9 is_stmt 1 view .LVU1214
 3603              		.loc 6 769 44 is_stmt 0 view .LVU1215
 3604 0da8 27EE057A 		vmul.f32	s14, s14, s10
 768:src/main.cpp  ****         int vib_i   = (int)(g_vibrato_depth*100);
 3605              		.loc 6 768 43 view .LVU1216
 3606 0dac FDEEE77A 		vcvt.s32.f32	s15, s15
 3607              	.LVL287:
 3608              		.loc 6 769 9 is_stmt 1 view .LVU1217
 770:src/main.cpp  ****         hw.PrintLine("  freq:%4dHz  cut:%5dHz  det:%c%d.%ds  fx:%2d%%  vib:%2d%%",
 3609              		.loc 6 770 21 is_stmt 0 view .LVU1218
 3610 0db0 0028     		cmp	r0, #0
 769:src/main.cpp  ****         hw.PrintLine("  freq:%4dHz  cut:%5dHz  det:%c%d.%ds  fx:%2d%%  vib:%2d%%",
 3611              		.loc 6 769 48 view .LVU1219
 3612 0db2 BDEEC77A 		vcvt.s32.f32	s14, s14
 3613              	.LVL288:
 3614              		.loc 6 770 9 is_stmt 1 view .LVU1220
 3615              		.loc 6 770 21 is_stmt 0 view .LVU1221
 3616 0db6 C0F26285 		blt	.L441
 3617 0dba 5D4B     		ldr	r3, .L467+36
 3618 0dbc C517     		asrs	r5, r0, #31
 3619 0dbe 83FB0043 		smull	r4, r3, r3, r0
 3620 0dc2 C5EBA305 		rsb	r5, r5, r3, asr #2
 3621 0dc6 2B23     		movs	r3, #43
 3622 0dc8 05EB8504 		add	r4, r5, r5, lsl #2
 3623 0dcc A0EB4404 		sub	r4, r0, r4, lsl #1
ARM GAS  /tmp/claude-502/cc09dAcL.s 			page 107


 3624              	.LVL289:
 3625              	.L231:
 3626              	.LBB979:
 3627              	.LBI979:
 126:/Users/reza.kalfane/Workspaces/Daisy/DaisyExamples/libDaisy/src/daisy_seed.h ****     {
 3628              		.loc 1 126 17 is_stmt 1 discriminator 12 view .LVU1222
 3629              	.LBB980:
 128:/Users/reza.kalfane/Workspaces/Daisy/DaisyExamples/libDaisy/src/daisy_seed.h ****     }
 3630              		.loc 1 128 23 is_stmt 0 discriminator 12 view .LVU1223
 3631 0dd0 5848     		ldr	r0, .L467+40
 3632 0dd2 8DED037A 		vstr.32	s14, [sp, #12]	@ int
 3633 0dd6 CDED027A 		vstr.32	s15, [sp, #8]	@ int
 3634 0dda CDE90054 		strd	r5, r4, [sp]
 3635 0dde FFF7FEFF 		bl	_ZN5daisy6LoggerILNS_17LoggerDestinationE1EE9PrintLineEPKcz
 3636              	.LVL290:
 128:/Users/reza.kalfane/Workspaces/Daisy/DaisyExamples/libDaisy/src/daisy_seed.h ****     }
 3637              		.loc 1 128 23 discriminator 12 view .LVU1224
 3638              	.LBE980:
 3639              	.LBE979:
 771:src/main.cpp  ****             freq_i, cut_i,
 772:src/main.cpp  ****             det_i10<0?'-':'+',
 773:src/main.cpp  ****             det_i10<0?(-det_i10)/10:det_i10/10,
 774:src/main.cpp  ****             det_i10<0?(-det_i10)%10:det_i10%10,
 775:src/main.cpp  ****             bc_i, vib_i);
 776:src/main.cpp  ****         hw.PrintLine("--------------------------------------------");
 3640              		.loc 6 776 9 is_stmt 1 discriminator 12 view .LVU1225
 3641              	.LBB981:
 3642              	.LBI981:
 126:/Users/reza.kalfane/Workspaces/Daisy/DaisyExamples/libDaisy/src/daisy_seed.h ****     {
 3643              		.loc 1 126 17 discriminator 12 view .LVU1226
 3644              	.LBB982:
 128:/Users/reza.kalfane/Workspaces/Daisy/DaisyExamples/libDaisy/src/daisy_seed.h ****     }
 3645              		.loc 1 128 23 is_stmt 0 discriminator 12 view .LVU1227
 3646 0de2 5548     		ldr	r0, .L467+44
 3647 0de4 FFF7FEFF 		bl	_ZN5daisy6LoggerILNS_17LoggerDestinationE1EE9PrintLineEPKcz
 3648              	.LVL291:
 3649 0de8 7CE0     		b	.L424
 3650              	.LVL292:
 3651              	.L117:
 128:/Users/reza.kalfane/Workspaces/Daisy/DaisyExamples/libDaisy/src/daisy_seed.h ****     }
 3652              		.loc 1 128 23 discriminator 12 view .LVU1228
 3653              	.LBE982:
 3654              	.LBE981:
 3655              	.LBB983:
 3656              	.LBB649:
 482:src/main.cpp  ****             deb_alive[i] = deb;
 3657              		.loc 6 482 13 is_stmt 1 view .LVU1229
 482:src/main.cpp  ****             deb_alive[i] = deb;
 3658              		.loc 6 482 48 is_stmt 0 view .LVU1230
 3659 0dea 1468     		ldr	r4, [r2]
 3660 0dec 059F     		ldr	r7, [sp, #20]
 3661 0dee 3C1B     		subs	r4, r7, r4
 482:src/main.cpp  ****             deb_alive[i] = deb;
 3662              		.loc 6 482 28 view .LVU1231
 3663 0df0 272C     		cmp	r4, #39
 3664 0df2 62DC     		bgt	.L442
 3665              	.LVL293:
ARM GAS  /tmp/claude-502/cc09dAcL.s 			page 108


 483:src/main.cpp  ****             if(!deb) continue;                              // truly lifted
 3666              		.loc 6 483 13 is_stmt 1 view .LVU1232
 483:src/main.cpp  ****             if(!deb) continue;                              // truly lifted
 3667              		.loc 6 483 26 is_stmt 0 view .LVU1233
 3668 0df4 0124     		movs	r4, #1
 3669 0df6 0C70     		strb	r4, [r1]
 484:src/main.cpp  **** 
 3670              		.loc 6 484 13 is_stmt 1 view .LVU1234
 486:src/main.cpp  ****             if(multi){
 3671              		.loc 6 486 13 view .LVU1235
 487:src/main.cpp  ****                 int z = (int)(clampf((float)tracked[i].pos/1000.0f,0.0f,1.0f) * 4.0f);
 3672              		.loc 6 487 13 view .LVU1236
 3673              	.LBB642:
 3674 0df8 069C     		ldr	r4, [sp, #24]
 3675 0dfa 0C2C     		cmp	r4, #12
 3676 0dfc 7FF43FAB 		bne	.L120
 3677              	.L432:
 3678              	.LBB628:
 488:src/main.cpp  ****                 if(z > 3) z = 3; vidx = MULTI_ZONES[z];
 3679              		.loc 6 488 17 view .LVU1237
 488:src/main.cpp  ****                 if(z > 3) z = 3; vidx = MULTI_ZONES[z];
 3680              		.loc 6 488 38 is_stmt 0 view .LVU1238
 3681 0e00 D3ED017A 		vldr.32	s15, [r3, #4]	@ int
 488:src/main.cpp  ****                 if(z > 3) z = 3; vidx = MULTI_ZONES[z];
 3682              		.loc 6 488 37 view .LVU1239
 3683 0e04 DFED4D6A 		vldr.32	s13, .L467+48
 488:src/main.cpp  ****                 if(z > 3) z = 3; vidx = MULTI_ZONES[z];
 3684              		.loc 6 488 38 view .LVU1240
 3685 0e08 F8EEE77A 		vcvt.f32.s32	s15, s15
 488:src/main.cpp  ****                 if(z > 3) z = 3; vidx = MULTI_ZONES[z];
 3686              		.loc 6 488 37 view .LVU1241
 3687 0e0c 87EEA67A 		vdiv.f32	s14, s15, s13
 3688              	.LVL294:
 3689              	.LBB629:
 3690              	.LBI629:
  12:src/dsp.h     ****     return v<lo?lo:v>hi?hi:v;
 3691              		.loc 9 12 21 is_stmt 1 view .LVU1242
 3692              	.LBB630:
 3693              		.loc 9 13 5 view .LVU1243
 3694              		.loc 9 13 16 is_stmt 0 view .LVU1244
 3695 0e10 B5EEC07A 		vcmpe.f32	s14, #0
 3696 0e14 F1EE10FA 		vmrs	APSR_nzcv, FPSCR
 3697 0e18 52D4     		bmi	.L259
 3698              		.loc 9 13 24 view .LVU1245
 3699 0e1a F7EE007A 		vmov.f32	s15, #1.0e+0
 3700 0e1e B4EEE77A 		vcmpe.f32	s14, s15
 3701 0e22 F1EE10FA 		vmrs	APSR_nzcv, FPSCR
 3702 0e26 4BDC     		bgt	.L259
 3703              	.LBE630:
 3704              	.LBE629:
 488:src/main.cpp  ****                 if(z > 3) z = 3; vidx = MULTI_ZONES[z];
 3705              		.loc 6 488 85 view .LVU1246
 3706 0e28 F0EE477A 		vmov.f32	s15, s14
 3707              	.LBE628:
 3708              	.LBE642:
 491:src/main.cpp  ****             float prs = (float)tracked[i].pressure;
 3709              		.loc 6 491 19 view .LVU1247
ARM GAS  /tmp/claude-502/cc09dAcL.s 			page 109


 3710 0e2c 444F     		ldr	r7, .L467+52
 3711 0e2e 4FF08C08 		mov	r8, #140
 3712              	.LBB643:
 3713              	.LBB633:
 488:src/main.cpp  ****                 if(z > 3) z = 3; vidx = MULTI_ZONES[z];
 3714              		.loc 6 488 85 view .LVU1248
 3715 0e32 FEEECF7A 		vcvt.s32.f32	s15, s15, #2
 3716 0e36 17EE904A 		vmov	r4, s15	@ int
 3717              	.LBE633:
 3718              	.LBE643:
 492:src/main.cpp  **** 
 3719              		.loc 6 492 19 view .LVU1249
 3720 0e3a D3ED027A 		vldr.32	s15, [r3, #8]	@ int
 3721              	.LBB644:
 3722              	.LBB634:
 489:src/main.cpp  ****             } else vidx = g_active_voice;
 3723              		.loc 6 489 39 view .LVU1250
 3724 0e3e 032C     		cmp	r4, #3
 3725              	.LBE634:
 3726              	.LBE644:
 492:src/main.cpp  **** 
 3727              		.loc 6 492 19 view .LVU1251
 3728 0e40 F8EEE77A 		vcvt.f32.s32	s15, s15
 3729              	.LBB645:
 3730              	.LBB635:
 489:src/main.cpp  ****             } else vidx = g_active_voice;
 3731              		.loc 6 489 39 view .LVU1252
 3732 0e44 A8BF     		it	ge
 3733 0e46 0324     		movge	r4, #3
 3734              	.LBE635:
 3735              	.LBE645:
 491:src/main.cpp  ****             float prs = (float)tracked[i].pressure;
 3736              		.loc 6 491 19 view .LVU1253
 3737 0e48 57F82440 		ldr	r4, [r7, r4, lsl #2]
 3738 0e4c 08FB04A4 		mla	r4, r8, r4, r10
 3739 0e50 94ED217A 		vldr.32	s14, [r4, #132]
 3740              	.LVL295:
 491:src/main.cpp  ****             float prs = (float)tracked[i].pressure;
 3741              		.loc 6 491 13 is_stmt 1 view .LVU1254
 492:src/main.cpp  **** 
 3742              		.loc 6 492 13 view .LVU1255
 494:src/main.cpp  ****                 // Genuine new tap (after a real lift) ‚Äî fire immediately, no cap.
 3743              		.loc 6 494 13 view .LVU1256
 3744              	.LBB646:
 3745 0e54 2C78     		ldrb	r4, [r5]	@ zero_extendqisi2
 3746 0e56 002C     		cmp	r4, #0
 3747 0e58 3FF421AB 		beq	.L443
 3748              	.LVL296:
 3749              	.L123:
 494:src/main.cpp  ****                 // Genuine new tap (after a real lift) ‚Äî fire immediately, no cap.
 3750              		.loc 6 494 13 is_stmt 0 view .LVU1257
 3751              	.LBE646:
 3752              	.LBE649:
 3753              	.LBE983:
 3754              	.LBE580:
 497:src/main.cpp  ****                 // Held: re-attack on a sharp pressure rise, capped by retrig_ms.
 3755              		.loc 6 497 20 is_stmt 1 view .LVU1258
ARM GAS  /tmp/claude-502/cc09dAcL.s 			page 110


 3756              	.LBB1074:
 3757              	.LBB984:
 3758              	.LBB650:
 3759              	.LBB647:
 3760              	.LBB639:
 3761 0e5c 0028     		cmp	r0, #0
 3762 0e5e 3FF426AB 		beq	.L119
 3763              	.LBB640:
 499:src/main.cpp  ****                 prs_sm[i] = prev*PRS_SMOOTH + prs*(1.0f - PRS_SMOOTH);
 3764              		.loc 6 499 17 view .LVU1259
 500:src/main.cpp  ****                 if(rms > 0.0f && (prs_sm[i] - prev) > RISE_THRESH
 3765              		.loc 6 500 50 is_stmt 0 view .LVU1260
 3766 0e62 F6EE006A 		vmov.f32	s13, #5.0e-1
 499:src/main.cpp  ****                 prs_sm[i] = prev*PRS_SMOOTH + prs*(1.0f - PRS_SMOOTH);
 3767              		.loc 6 499 23 view .LVU1261
 3768 0e66 96ED006A 		vldr.32	s12, [r6]
 3769              	.LVL297:
 500:src/main.cpp  ****                 if(rms > 0.0f && (prs_sm[i] - prev) > RISE_THRESH
 3770              		.loc 6 500 17 is_stmt 1 view .LVU1262
 501:src/main.cpp  ****                    && (int32_t)(now_ms - last_retrig[i]) >= (int32_t)rms){
 3771              		.loc 6 501 17 is_stmt 0 view .LVU1263
 3772 0e6a B5EEC07A 		vcmpe.f32	s14, #0
 500:src/main.cpp  ****                 if(rms > 0.0f && (prs_sm[i] - prev) > RISE_THRESH
 3773              		.loc 6 500 50 view .LVU1264
 3774 0e6e 67EEA67A 		vmul.f32	s15, s15, s13
 3775              	.LVL298:
 501:src/main.cpp  ****                    && (int32_t)(now_ms - last_retrig[i]) >= (int32_t)rms){
 3776              		.loc 6 501 17 view .LVU1265
 3777 0e72 F1EE10FA 		vmrs	APSR_nzcv, FPSCR
 500:src/main.cpp  ****                 if(rms > 0.0f && (prs_sm[i] - prev) > RISE_THRESH
 3778              		.loc 6 500 45 view .LVU1266
 3779 0e76 E6EE267A 		vfma.f32	s15, s12, s13
 500:src/main.cpp  ****                 if(rms > 0.0f && (prs_sm[i] - prev) > RISE_THRESH
 3780              		.loc 6 500 27 view .LVU1267
 3781 0e7a C6ED007A 		vstr.32	s15, [r6]
 501:src/main.cpp  ****                    && (int32_t)(now_ms - last_retrig[i]) >= (int32_t)rms){
 3782              		.loc 6 501 17 is_stmt 1 view .LVU1268
 3783 0e7e 7FF716AB 		ble	.L119
 501:src/main.cpp  ****                    && (int32_t)(now_ms - last_retrig[i]) >= (int32_t)rms){
 3784              		.loc 6 501 45 is_stmt 0 discriminator 1 view .LVU1269
 3785 0e82 77EEC67A 		vsub.f32	s15, s15, s12
 501:src/main.cpp  ****                    && (int32_t)(now_ms - last_retrig[i]) >= (int32_t)rms){
 3786              		.loc 6 501 31 discriminator 1 view .LVU1270
 3787 0e86 F3EE026A 		vmov.f32	s13, #1.8e+1
 3788 0e8a F4EEE67A 		vcmpe.f32	s15, s13
 3789 0e8e F1EE10FA 		vmrs	APSR_nzcv, FPSCR
 3790 0e92 7FF70CAB 		ble	.L119
 502:src/main.cpp  ****                     reatk[i] = true; last_retrig[i] = now_ms;
 3791              		.loc 6 502 61 view .LVU1271
 3792 0e96 BDEEC77A 		vcvt.s32.f32	s14, s14
 502:src/main.cpp  ****                     reatk[i] = true; last_retrig[i] = now_ms;
 3793              		.loc 6 502 40 view .LVU1272
 3794 0e9a DCF80000 		ldr	r0, [ip]
 3795              	.LVL299:
 502:src/main.cpp  ****                     reatk[i] = true; last_retrig[i] = now_ms;
 3796              		.loc 6 502 40 view .LVU1273
 3797 0e9e 059F     		ldr	r7, [sp, #20]
ARM GAS  /tmp/claude-502/cc09dAcL.s 			page 111


 502:src/main.cpp  ****                     reatk[i] = true; last_retrig[i] = now_ms;
 3798              		.loc 6 502 20 view .LVU1274
 3799 0ea0 17EE104A 		vmov	r4, s14	@ int
 502:src/main.cpp  ****                     reatk[i] = true; last_retrig[i] = now_ms;
 3800              		.loc 6 502 40 view .LVU1275
 3801 0ea4 381A     		subs	r0, r7, r0
 502:src/main.cpp  ****                     reatk[i] = true; last_retrig[i] = now_ms;
 3802              		.loc 6 502 20 view .LVU1276
 3803 0ea6 A042     		cmp	r0, r4
 3804 0ea8 FFF601AB 		blt	.L119
 503:src/main.cpp  ****                 }
 3805              		.loc 6 503 21 is_stmt 1 view .LVU1277
 503:src/main.cpp  ****                 }
 3806              		.loc 6 503 30 is_stmt 0 view .LVU1278
 3807 0eac 0120     		movs	r0, #1
 503:src/main.cpp  ****                 }
 3808              		.loc 6 503 53 view .LVU1279
 3809 0eae CCF80070 		str	r7, [ip]
 503:src/main.cpp  ****                 }
 3810              		.loc 6 503 30 view .LVU1280
 3811 0eb2 8EF80000 		strb	r0, [lr]
 503:src/main.cpp  ****                 }
 3812              		.loc 6 503 38 is_stmt 1 view .LVU1281
 3813 0eb6 FFF7FABA 		b	.L119
 3814              	.LVL300:
 3815              	.L442:
 503:src/main.cpp  ****                 }
 3816              		.loc 6 503 38 is_stmt 0 view .LVU1282
 3817              	.LBE640:
 3818              	.LBE639:
 3819              	.LBE647:
 483:src/main.cpp  ****             if(!deb) continue;                              // truly lifted
 3820              		.loc 6 483 13 is_stmt 1 view .LVU1283
 483:src/main.cpp  ****             if(!deb) continue;                              // truly lifted
 3821              		.loc 6 483 26 is_stmt 0 view .LVU1284
 3822 0eba 0870     		strb	r0, [r1]
 484:src/main.cpp  **** 
 3823              		.loc 6 484 13 is_stmt 1 view .LVU1285
 3824 0ebc FFF7F7BA 		b	.L119
 3825              	.LVL301:
 3826              	.L259:
 3827              	.LBB648:
 3828              	.LBB636:
 3829              	.LBB632:
 3830              	.LBB631:
 484:src/main.cpp  **** 
 3831              		.loc 6 484 13 is_stmt 0 view .LVU1286
 3832 0ec0 9FED207A 		vldr.32	s14, .L467+56
 3833              	.LVL302:
 484:src/main.cpp  **** 
 3834              		.loc 6 484 13 view .LVU1287
 3835              	.LBE631:
 3836              	.LBE632:
 489:src/main.cpp  ****             } else vidx = g_active_voice;
 3837              		.loc 6 489 17 is_stmt 1 view .LVU1288
 489:src/main.cpp  ****             } else vidx = g_active_voice;
 3838              		.loc 6 489 34 view .LVU1289
ARM GAS  /tmp/claude-502/cc09dAcL.s 			page 112


 489:src/main.cpp  ****             } else vidx = g_active_voice;
 3839              		.loc 6 489 34 is_stmt 0 view .LVU1290
 3840 0ec4 FFF7E3BA 		b	.L122
 3841              	.LVL303:
 3842              	.L182:
 489:src/main.cpp  ****             } else vidx = g_active_voice;
 3843              		.loc 6 489 34 view .LVU1291
 3844              	.LBE636:
 3845              	.LBE648:
 3846              	.LBE650:
 3847              	.LBE984:
 3848              	.LBB985:
 715:src/main.cpp  ****             g_bitcrush      = 0.0f;
 3849              		.loc 6 715 13 is_stmt 1 view .LVU1292
 715:src/main.cpp  ****             g_bitcrush      = 0.0f;
 3850              		.loc 6 715 29 is_stmt 0 view .LVU1293
 3851 0ec8 0023     		movs	r3, #0
 3852 0eca 164A     		ldr	r2, .L467+24
 3853 0ecc 1360     		str	r3, [r2]	@ float
 716:src/main.cpp  ****             g_ringmod       = 0.0f;
 3854              		.loc 6 716 13 is_stmt 1 view .LVU1294
 716:src/main.cpp  ****             g_ringmod       = 0.0f;
 3855              		.loc 6 716 29 is_stmt 0 view .LVU1295
 3856 0ece 164A     		ldr	r2, .L467+28
 3857 0ed0 1360     		str	r3, [r2]	@ float
 717:src/main.cpp  ****         }
 3858              		.loc 6 717 13 is_stmt 1 view .LVU1296
 3859              	.LBE985:
 721:src/main.cpp  ****             System::Delay(CONTROL_DELAY_MS);
 3860              		.loc 6 721 9 view .LVU1297
 3861              	.LBB986:
 717:src/main.cpp  ****         }
 3862              		.loc 6 717 29 is_stmt 0 view .LVU1298
 3863 0ed2 1D4A     		ldr	r2, .L467+60
 3864 0ed4 1360     		str	r3, [r2]	@ float
 3865              	.LBE986:
 721:src/main.cpp  ****             System::Delay(CONTROL_DELAY_MS);
 3866              		.loc 6 721 26 view .LVU1299
 3867 0ed6 FFF7FEFF 		bl	_ZN5daisy6System6GetNowEv
 3868              	.LVL304:
 721:src/main.cpp  ****             System::Delay(CONTROL_DELAY_MS);
 3869              		.loc 6 721 29 view .LVU1300
 3870 0eda 0F9B     		ldr	r3, [sp, #60]
 3871 0edc C01A     		subs	r0, r0, r3
 721:src/main.cpp  ****             System::Delay(CONTROL_DELAY_MS);
 3872              		.loc 6 721 9 view .LVU1301
 3873 0ede 7728     		cmp	r0, #119
 3874 0ee0 3FF6E3AD 		bhi	.L196
 3875              	.L424:
 777:src/main.cpp  **** 
 778:src/main.cpp  ****         System::Delay(CONTROL_DELAY_MS);
 3876              		.loc 6 778 9 is_stmt 1 discriminator 12 view .LVU1302
 3877              		.loc 6 778 22 is_stmt 0 discriminator 12 view .LVU1303
 3878 0ee4 0320     		movs	r0, #3
 3879 0ee6 FFF7FEFF 		bl	_ZN5daisy6System5DelayEm
 3880              	.LVL305:
 459:src/main.cpp  ****         if(f1_on) f1_last_seen_ms = System::GetNow();
ARM GAS  /tmp/claude-502/cc09dAcL.s 			page 113


 3881              		.loc 6 459 14 discriminator 12 view .LVU1304
 3882 0eea 079B     		ldr	r3, [sp, #28]
 3883 0eec 0893     		str	r3, [sp, #32]
 3884 0eee FFF710BA 		b	.L61
 3885              	.LVL306:
 3886              	.L66:
 390:src/main.cpp  **** 
 3887              		.loc 6 390 9 is_stmt 1 view .LVU1305
 390:src/main.cpp  **** 
 3888              		.loc 6 390 22 is_stmt 0 view .LVU1306
 3889 0ef2 B7EE008A 		vmov.f32	s16, #1.0e+0
 3890 0ef6 154B     		ldr	r3, .L467+64
 3891              	.LBB987:
 397:src/main.cpp  ****             fsr_hold_start = 0;                    // released ‚Üí disarm
 3892              		.loc 6 397 9 view .LVU1307
 3893 0ef8 B0F5FA5F 		cmp	r0, #8000
 3894              	.LBE987:
 390:src/main.cpp  **** 
 3895              		.loc 6 390 22 view .LVU1308
 3896 0efc 83ED008A 		vstr.32	s16, [r3]
 396:src/main.cpp  ****         if(!fsr_pressed){
 3897              		.loc 6 396 9 is_stmt 1 view .LVU1309
 3898              	.LVL307:
 397:src/main.cpp  ****             fsr_hold_start = 0;                    // released ‚Üí disarm
 3899              		.loc 6 397 9 view .LVU1310
 3900              	.LBB988:
 3901 0f00 40F26081 		bls	.L244
 398:src/main.cpp  ****         } else {
 3902              		.loc 6 398 28 is_stmt 0 view .LVU1311
 3903 0f04 0023     		movs	r3, #0
 3904 0f06 1193     		str	r3, [sp, #68]
 3905              	.LVL308:
 398:src/main.cpp  ****         } else {
 3906              		.loc 6 398 28 view .LVU1312
 3907 0f08 FFF71CBA 		b	.L68
 3908              	.L468:
 3909              		.align	2
 3910              	.L467:
 3911 0f0c F4010000 		.word	.LC18
 3912 0f10 0000C842 		.word	1120403456
 3913 0f14 1F85EB51 		.word	1374389535
 3914 0f18 44020000 		.word	.LC20
 3915 0f1c 00000000 		.word	g_target_freq
 3916 0f20 00000000 		.word	g_target_cutoff
 3917 0f24 00000000 		.word	g_target_detune
 3918 0f28 00000000 		.word	g_bitcrush
 3919 0f2c 00000000 		.word	g_vibrato_depth
 3920 0f30 67666666 		.word	1717986919
 3921 0f34 60020000 		.word	.LC21
 3922 0f38 9C020000 		.word	.LC22
 3923 0f3c 00007A44 		.word	1148846080
 3924 0f40 00000000 		.word	.LANCHOR7
 3925 0f44 0000C843 		.word	1137180672
 3926 0f48 00000000 		.word	g_ringmod
 3927 0f4c 00000000 		.word	g_master_vol
 3928              	.LVL309:
 3929              	.L84:
ARM GAS  /tmp/claude-502/cc09dAcL.s 			page 114


 398:src/main.cpp  ****         } else {
 3930              		.loc 6 398 28 view .LVU1313
 3931              	.LBE988:
 438:src/main.cpp  ****                 tracked[0].alive=tracked[1].alive=false;
 3932              		.loc 6 438 13 is_stmt 1 view .LVU1314
 438:src/main.cpp  ****                 tracked[0].alive=tracked[1].alive=false;
 3933              		.loc 6 438 30 is_stmt 0 view .LVU1315
 3934 0f50 FFF7FEFF 		bl	_ZN5daisy6System6GetNowEv
 3935              	.LVL310:
 438:src/main.cpp  ****                 tracked[0].alive=tracked[1].alive=false;
 3936              		.loc 6 438 32 view .LVU1316
 3937 0f54 0A9B     		ldr	r3, [sp, #40]
 3938 0f56 C01A     		subs	r0, r0, r3
 438:src/main.cpp  ****                 tracked[0].alive=tracked[1].alive=false;
 3939              		.loc 6 438 13 view .LVU1317
 3940 0f58 B0F5FA6F 		cmp	r0, #2000
 3941 0f5c 80F0B083 		bcs	.L444
 3942              	.L86:
 447:src/main.cpp  ****             last_touch_ms = System::GetNow();
 3943              		.loc 6 447 9 is_stmt 1 view .LVU1318
 449:src/main.cpp  ****             idle_chase_and_calibrate();
 3944              		.loc 6 449 16 view .LVU1319
 449:src/main.cpp  ****             idle_chase_and_calibrate();
 3945              		.loc 6 449 33 is_stmt 0 view .LVU1320
 3946 0f60 FFF7FEFF 		bl	_ZN5daisy6System6GetNowEv
 3947              	.LVL311:
 449:src/main.cpp  ****             idle_chase_and_calibrate();
 3948              		.loc 6 449 36 view .LVU1321
 3949 0f64 0B9B     		ldr	r3, [sp, #44]
 3950 0f66 C01A     		subs	r0, r0, r3
 449:src/main.cpp  ****             idle_chase_and_calibrate();
 3951              		.loc 6 449 16 view .LVU1322
 3952 0f68 41F28733 		movw	r3, #4999
 3953 0f6c 9842     		cmp	r0, r3
 3954 0f6e 7FF64DAA 		bls	.L85
 450:src/main.cpp  ****             last_touch_ms = System::GetNow();
 3955              		.loc 6 450 13 is_stmt 1 view .LVU1323
 3956              	.LVL312:
 3957              	.LBB989:
 3958              	.LBI989:
 196:src/main.cpp  ****         uint32_t start = System::GetNow();
 3959              		.loc 6 196 37 view .LVU1324
 3960              	.LBB990:
 3961              	.LBB991:
 197:src/main.cpp  ****         uint32_t acc = 0; int n = 0;
 3962              		.loc 6 197 9 view .LVU1325
 199:src/main.cpp  ****         constexpr uint32_t SWEEP_PERIOD_MS = 12000;  // one 0‚Üí1‚Üí0 cycle
 3963              		.loc 6 199 18 is_stmt 0 view .LVU1326
 3964 0f72 0027     		movs	r7, #0
 197:src/main.cpp  ****         uint32_t acc = 0; int n = 0;
 3965              		.loc 6 197 40 view .LVU1327
 3966 0f74 FFF7FEFF 		bl	_ZN5daisy6System6GetNowEv
 3967              	.LVL313:
 198:src/main.cpp  ****         bool     calibrated = false;
 3968              		.loc 6 198 18 view .LVU1328
 3969 0f78 0DEE106A 		vmov	s26, r6	@ int
 3970 0f7c CDF81890 		str	r9, [sp, #24]
ARM GAS  /tmp/claude-502/cc09dAcL.s 			page 115


 3971 0f80 CDF81CA0 		str	r10, [sp, #28]
 197:src/main.cpp  ****         uint32_t acc = 0; int n = 0;
 3972              		.loc 6 197 40 view .LVU1329
 3973 0f84 8046     		mov	r8, r0
 3974              	.LVL314:
 198:src/main.cpp  ****         bool     calibrated = false;
 3975              		.loc 6 198 9 is_stmt 1 view .LVU1330
 198:src/main.cpp  ****         bool     calibrated = false;
 3976              		.loc 6 198 27 view .LVU1331
 199:src/main.cpp  ****         constexpr uint32_t SWEEP_PERIOD_MS = 12000;  // one 0‚Üí1‚Üí0 cycle
 3977              		.loc 6 199 9 view .LVU1332
 200:src/main.cpp  ****         constexpr float    TAU             = 6.2831853f;
 3978              		.loc 6 200 9 view .LVU1333
 201:src/main.cpp  ****         uint16_t scan[N_CH];
 3979              		.loc 6 201 9 view .LVU1334
 198:src/main.cpp  ****         bool     calibrated = false;
 3980              		.loc 6 198 18 is_stmt 0 view .LVU1335
 3981 0f86 3E46     		mov	r6, r7
 3982              	.LVL315:
 198:src/main.cpp  ****         bool     calibrated = false;
 3983              		.loc 6 198 18 view .LVU1336
 3984 0f88 BA46     		mov	r10, r7
 3985 0f8a 0594     		str	r4, [sp, #20]
 3986 0f8c DDE90C95 		ldrd	r9, r5, [sp, #48]
 3987              	.LVL316:
 3988              	.L113:
 202:src/main.cpp  **** 
 3989              		.loc 6 202 9 is_stmt 1 view .LVU1337
 204:src/main.cpp  ****             uint32_t elapsed = System::GetNow() - start;
 3990              		.loc 6 204 9 view .LVU1338
 3991              	.LBB992:
 205:src/main.cpp  **** 
 3992              		.loc 6 205 13 view .LVU1339
 205:src/main.cpp  **** 
 3993              		.loc 6 205 46 is_stmt 0 view .LVU1340
 3994 0f90 FFF7FEFF 		bl	_ZN5daisy6System6GetNowEv
 3995              	.LVL317:
 209:src/main.cpp  ****             float p01   = 0.5f * (1.0f - cosf(phase * TAU));
 3996              		.loc 6 209 43 view .LVU1341
 3997 0f94 CE4B     		ldr	r3, .L469
 205:src/main.cpp  **** 
 3998              		.loc 6 205 51 view .LVU1342
 3999 0f96 A0EB0804 		sub	r4, r0, r8
 4000              	.LVL318:
 209:src/main.cpp  ****             float p01   = 0.5f * (1.0f - cosf(phase * TAU));
 4001              		.loc 6 209 13 is_stmt 1 view .LVU1343
 210:src/main.cpp  **** 
 4002              		.loc 6 210 13 view .LVU1344
 209:src/main.cpp  ****             float p01   = 0.5f * (1.0f - cosf(phase * TAU));
 4003              		.loc 6 209 19 is_stmt 0 view .LVU1345
 4004 0f9a DFEDCE6A 		vldr.32	s13, .L469+4
 210:src/main.cpp  **** 
 4005              		.loc 6 210 46 view .LVU1346
 4006 0f9e 9FEDCE7A 		vldr.32	s14, .L469+8
 210:src/main.cpp  **** 
 4007              		.loc 6 210 40 view .LVU1347
 4008 0fa2 F7EE00BA 		vmov.f32	s23, #1.0e+0
ARM GAS  /tmp/claude-502/cc09dAcL.s 			page 116


 209:src/main.cpp  ****             float p01   = 0.5f * (1.0f - cosf(phase * TAU));
 4009              		.loc 6 209 43 view .LVU1348
 4010 0fa6 A3FB0423 		umull	r2, r3, r3, r4
 4011 0faa 42F6E062 		movw	r2, #12000
 4012 0fae 1B0A     		lsrs	r3, r3, #8
 4013 0fb0 02FB1343 		mls	r3, r2, r3, r4
 209:src/main.cpp  ****             float p01   = 0.5f * (1.0f - cosf(phase * TAU));
 4014              		.loc 6 209 27 view .LVU1349
 4015 0fb4 07EE903A 		vmov	s15, r3	@ int
 4016 0fb8 F8EEE77A 		vcvt.f32.s32	s15, s15
 209:src/main.cpp  ****             float p01   = 0.5f * (1.0f - cosf(phase * TAU));
 4017              		.loc 6 209 19 view .LVU1350
 4018 0fbc 87EEA60A 		vdiv.f32	s0, s15, s13
 210:src/main.cpp  **** 
 4019              		.loc 6 210 46 view .LVU1351
 4020 0fc0 20EE070A 		vmul.f32	s0, s0, s14
 4021 0fc4 FFF7FEFF 		bl	cosf
 4022              	.LVL319:
 210:src/main.cpp  **** 
 4023              		.loc 6 210 19 view .LVU1352
 4024 0fc8 F6EE007A 		vmov.f32	s15, #5.0e-1
 210:src/main.cpp  **** 
 4025              		.loc 6 210 40 view .LVU1353
 4026 0fcc 3BEEC00A 		vsub.f32	s0, s23, s0
 215:src/main.cpp  ****             float led1   = sqrtf(sqrtf(l2_raw));              // middle (DAC1)
 4027              		.loc 6 215 19 view .LVU1354
 4028 0fd0 F0EE006A 		vmov.f32	s13, #2.0e+0
 4029 0fd4 B7EE007A 		vmov.f32	s14, #1.0e+0
 210:src/main.cpp  **** 
 4030              		.loc 6 210 19 view .LVU1355
 4031 0fd8 20EE270A 		vmul.f32	s0, s0, s15
 4032              	.LVL320:
 213:src/main.cpp  ****             float l3_raw = 2.0f * p01 - 1.0f;                 if(l3_raw < 0) l3_raw = 0;
 4033              		.loc 6 213 13 is_stmt 1 view .LVU1356
 214:src/main.cpp  ****             float l2_raw = 1.0f - 2.0f * fabsf(p01 - 0.5f);   if(l2_raw < 0) l2_raw = 0;
 4034              		.loc 6 214 19 is_stmt 0 view .LVU1357
 4035 0fdc F7EE007A 		vmov.f32	s15, #1.0e+0
 213:src/main.cpp  ****             float l3_raw = 2.0f * p01 - 1.0f;                 if(l3_raw < 0) l3_raw = 0;
 4036              		.loc 6 213 40 view .LVU1358
 4037 0fe0 30EE00BA 		vadd.f32	s22, s0, s0
 213:src/main.cpp  ****             float l3_raw = 2.0f * p01 - 1.0f;                 if(l3_raw < 0) l3_raw = 0;
 4038              		.loc 6 213 19 view .LVU1359
 4039 0fe4 7BEECBBA 		vsub.f32	s23, s23, s22
 4040              	.LVL321:
 213:src/main.cpp  ****             float l3_raw = 2.0f * p01 - 1.0f;                 if(l3_raw < 0) l3_raw = 0;
 4041              		.loc 6 213 63 is_stmt 1 view .LVU1360
 214:src/main.cpp  ****             float l2_raw = 1.0f - 2.0f * fabsf(p01 - 0.5f);   if(l2_raw < 0) l2_raw = 0;
 4042              		.loc 6 214 19 is_stmt 0 view .LVU1361
 4043 0fe8 3BEE67BA 		vsub.f32	s22, s22, s15
 215:src/main.cpp  ****             float led1   = sqrtf(sqrtf(l2_raw));              // middle (DAC1)
 4044              		.loc 6 215 52 view .LVU1362
 4045 0fec F6EE007A 		vmov.f32	s15, #5.0e-1
 213:src/main.cpp  ****             float l3_raw = 2.0f * p01 - 1.0f;                 if(l3_raw < 0) l3_raw = 0;
 4046              		.loc 6 213 63 view .LVU1363
 4047 0ff0 F5EEC0BA 		vcmpe.f32	s23, #0
 215:src/main.cpp  ****             float led1   = sqrtf(sqrtf(l2_raw));              // middle (DAC1)
 4048              		.loc 6 215 52 view .LVU1364
ARM GAS  /tmp/claude-502/cc09dAcL.s 			page 117


 4049 0ff4 30EE670A 		vsub.f32	s0, s0, s15
 4050              	.LVL322:
 213:src/main.cpp  ****             float l3_raw = 2.0f * p01 - 1.0f;                 if(l3_raw < 0) l3_raw = 0;
 4051              		.loc 6 213 63 view .LVU1365
 4052 0ff8 F1EE10FA 		vmrs	APSR_nzcv, FPSCR
 214:src/main.cpp  ****             float l2_raw = 1.0f - 2.0f * fabsf(p01 - 0.5f);   if(l2_raw < 0) l2_raw = 0;
 4053              		.loc 6 214 63 view .LVU1366
 4054 0ffc B5EEC0BA 		vcmpe.f32	s22, #0
 215:src/main.cpp  ****             float led1   = sqrtf(sqrtf(l2_raw));              // middle (DAC1)
 4055              		.loc 6 215 47 view .LVU1367
 4056 1000 F0EEC07A 		vabs.f32	s15, s0
 213:src/main.cpp  ****             float l3_raw = 2.0f * p01 - 1.0f;                 if(l3_raw < 0) l3_raw = 0;
 4057              		.loc 6 213 85 view .LVU1368
 4058 1004 48BF     		it	mi
 4059 1006 DFEDB5BA 		vldrmi.32	s23, .L469+12
 4060              	.LVL323:
 214:src/main.cpp  ****             float l2_raw = 1.0f - 2.0f * fabsf(p01 - 0.5f);   if(l2_raw < 0) l2_raw = 0;
 4061              		.loc 6 214 13 is_stmt 1 view .LVU1369
 214:src/main.cpp  ****             float l2_raw = 1.0f - 2.0f * fabsf(p01 - 0.5f);   if(l2_raw < 0) l2_raw = 0;
 4062              		.loc 6 214 63 view .LVU1370
 4063 100a F1EE10FA 		vmrs	APSR_nzcv, FPSCR
 215:src/main.cpp  ****             float led1   = sqrtf(sqrtf(l2_raw));              // middle (DAC1)
 4064              		.loc 6 215 19 is_stmt 0 view .LVU1371
 4065 100e A7EEE67A 		vfms.f32	s14, s15, s13
 214:src/main.cpp  ****             float l2_raw = 1.0f - 2.0f * fabsf(p01 - 0.5f);   if(l2_raw < 0) l2_raw = 0;
 4066              		.loc 6 214 85 view .LVU1372
 4067 1012 48BF     		it	mi
 4068 1014 9FEDB1BA 		vldrmi.32	s22, .L469+12
 4069              	.LVL324:
 215:src/main.cpp  ****             float led1   = sqrtf(sqrtf(l2_raw));              // middle (DAC1)
 4070              		.loc 6 215 13 is_stmt 1 view .LVU1373
 215:src/main.cpp  ****             float led1   = sqrtf(sqrtf(l2_raw));              // middle (DAC1)
 4071              		.loc 6 215 63 view .LVU1374
 4072 1018 B5EEC07A 		vcmpe.f32	s14, #0
 4073 101c F1EE10FA 		vmrs	APSR_nzcv, FPSCR
 4074 1020 65D4     		bmi	.L256
 216:src/main.cpp  ****             float led2   = sqrtf(sqrtf(l1_raw));              // pos 0  (DAC2)
 4075              		.loc 6 216 13 view .LVU1375
 4076 1022 B5EE407A 		vcmp.f32	s14, #0
 4077 1026 F1EE10FA 		vmrs	APSR_nzcv, FPSCR
 4078 102a 00F14585 		bmi	.L445
 4079              	.LVL325:
 4080              	.L91:
 216:src/main.cpp  ****             float led2   = sqrtf(sqrtf(l1_raw));              // pos 0  (DAC2)
 4081              		.loc 6 216 33 is_stmt 0 view .LVU1376
 4082 102e B1EEC70A 		vsqrt.f32	s0, s14
 4083              	.LVL326:
 4084              	.L94:
 216:src/main.cpp  ****             float led2   = sqrtf(sqrtf(l1_raw));              // pos 0  (DAC2)
 4085              		.loc 6 216 33 view .LVU1377
 4086 1032 B5EE400A 		vcmp.f32	s0, #0
 4087 1036 F1EE10FA 		vmrs	APSR_nzcv, FPSCR
 4088 103a 00F1F284 		bmi	.L399
 4089 103e B1EEC0CA 		vsqrt.f32	s24, s0
 4090              	.L97:
 217:src/main.cpp  ****             float led3   = sqrtf(sqrtf(l3_raw)) * LED3_INTENSITY; // pos 1 (PWM A0)
 4091              		.loc 6 217 13 is_stmt 1 view .LVU1378
ARM GAS  /tmp/claude-502/cc09dAcL.s 			page 118


 4092 1042 F5EE40BA 		vcmp.f32	s23, #0
 4093 1046 F1EE10FA 		vmrs	APSR_nzcv, FPSCR
 4094 104a 00F1F084 		bmi	.L400
 217:src/main.cpp  ****             float led3   = sqrtf(sqrtf(l3_raw)) * LED3_INTENSITY; // pos 1 (PWM A0)
 4095              		.loc 6 217 33 is_stmt 0 view .LVU1379
 4096 104e B1EEEB0A 		vsqrt.f32	s0, s23
 4097              	.L100:
 4098 1052 B5EE400A 		vcmp.f32	s0, #0
 4099 1056 F1EE10FA 		vmrs	APSR_nzcv, FPSCR
 4100 105a 00F12185 		bmi	.L401
 4101 105e F1EEC0BA 		vsqrt.f32	s23, s0
 4102              	.LVL327:
 4103              	.L103:
 218:src/main.cpp  ****             hw.dac.WriteValue(DacHandle::Channel::ONE, (uint16_t)(led1 * LED1_MAX));
 4104              		.loc 6 218 13 is_stmt 1 view .LVU1380
 4105 1062 B5EE40BA 		vcmp.f32	s22, #0
 4106 1066 F1EE10FA 		vmrs	APSR_nzcv, FPSCR
 4107 106a 00F11F85 		bmi	.L402
 218:src/main.cpp  ****             hw.dac.WriteValue(DacHandle::Channel::ONE, (uint16_t)(led1 * LED1_MAX));
 4108              		.loc 6 218 33 is_stmt 0 view .LVU1381
 4109 106e B1EECB0A 		vsqrt.f32	s0, s22
 4110              	.L106:
 4111 1072 B5EE400A 		vcmp.f32	s0, #0
 4112 1076 F1EE10FA 		vmrs	APSR_nzcv, FPSCR
 4113 107a 00F12385 		bmi	.L403
 4114 107e B1EEC07A 		vsqrt.f32	s14, s0
 4115              	.L109:
 219:src/main.cpp  ****             hw.dac.WriteValue(DacHandle::Channel::TWO, (uint16_t)(led2 * LED2_MAX));
 4116              		.loc 6 219 72 view .LVU1382
 4117 1082 DFED97CA 		vldr.32	s25, .L469+16
 219:src/main.cpp  ****             hw.dac.WriteValue(DacHandle::Channel::TWO, (uint16_t)(led2 * LED2_MAX));
 4118              		.loc 6 219 30 view .LVU1383
 4119 1086 0021     		movs	r1, #0
 218:src/main.cpp  ****             hw.dac.WriteValue(DacHandle::Channel::ONE, (uint16_t)(led1 * LED1_MAX));
 4120              		.loc 6 218 51 view .LVU1384
 4121 1088 9FED96BA 		vldr.32	s22, .L469+20
 4122              	.LVL328:
 219:src/main.cpp  ****             hw.dac.WriteValue(DacHandle::Channel::TWO, (uint16_t)(led2 * LED2_MAX));
 4123              		.loc 6 219 30 view .LVU1385
 4124 108c 9648     		ldr	r0, .L469+24
 219:src/main.cpp  ****             hw.dac.WriteValue(DacHandle::Channel::TWO, (uint16_t)(led2 * LED2_MAX));
 4125              		.loc 6 219 72 view .LVU1386
 4126 108e 2CEE2CCA 		vmul.f32	s24, s24, s25
 218:src/main.cpp  ****             hw.dac.WriteValue(DacHandle::Channel::ONE, (uint16_t)(led1 * LED1_MAX));
 4127              		.loc 6 218 51 view .LVU1387
 4128 1092 27EE0BBA 		vmul.f32	s22, s14, s22
 4129              	.LVL329:
 219:src/main.cpp  ****             hw.dac.WriteValue(DacHandle::Channel::TWO, (uint16_t)(led2 * LED2_MAX));
 4130              		.loc 6 219 13 is_stmt 1 view .LVU1388
 219:src/main.cpp  ****             hw.dac.WriteValue(DacHandle::Channel::TWO, (uint16_t)(led2 * LED2_MAX));
 4131              		.loc 6 219 30 is_stmt 0 view .LVU1389
 4132 1096 BCEECCCA 		vcvt.u32.f32	s24, s24
 4133 109a 1CEE103A 		vmov	r3, s24	@ int
 4134 109e 9AB2     		uxth	r2, r3
 4135 10a0 FFF7FEFF 		bl	_ZN5daisy9DacHandle10WriteValueENS0_7ChannelEt
 4136              	.LVL330:
 220:src/main.cpp  ****             g_led3_duty = led3;
ARM GAS  /tmp/claude-502/cc09dAcL.s 			page 119


 4137              		.loc 6 220 13 is_stmt 1 view .LVU1390
 220:src/main.cpp  ****             g_led3_duty = led3;
 4138              		.loc 6 220 72 is_stmt 0 view .LVU1391
 4139 10a4 6BEEAC7A 		vmul.f32	s15, s23, s25
 220:src/main.cpp  ****             g_led3_duty = led3;
 4140              		.loc 6 220 30 view .LVU1392
 4141 10a8 0121     		movs	r1, #1
 4142 10aa 8F48     		ldr	r0, .L469+24
 4143 10ac FCEEE77A 		vcvt.u32.f32	s15, s15
 4144 10b0 17EE903A 		vmov	r3, s15	@ int
 4145 10b4 9AB2     		uxth	r2, r3
 4146 10b6 FFF7FEFF 		bl	_ZN5daisy9DacHandle10WriteValueENS0_7ChannelEt
 4147              	.LVL331:
 221:src/main.cpp  **** 
 4148              		.loc 6 221 13 is_stmt 1 view .LVU1393
 221:src/main.cpp  **** 
 4149              		.loc 6 221 25 is_stmt 0 view .LVU1394
 4150 10ba 89ED00BA 		vstr.32	s22, [r9]
 224:src/main.cpp  ****                 acc += hw.adc.Get(0);
 4151              		.loc 6 224 13 is_stmt 1 view .LVU1395
 4152 10be CFB1     		cbz	r7, .L446
 4153              	.LVL332:
 4154              	.L110:
 234:src/main.cpp  ****             int32_t max_d = 0;
 4155              		.loc 6 234 13 view .LVU1396
 234:src/main.cpp  ****             int32_t max_d = 0;
 4156              		.loc 6 234 28 is_stmt 0 view .LVU1397
 4157 10c0 3DA8     		add	r0, sp, #244
 4158 10c2 FFF7FEFF 		bl	_Z15read_electrodesPt
 4159              	.LVL333:
 235:src/main.cpp  ****             for(int i = 0; i < N_CH; i++) {
 4160              		.loc 6 235 13 is_stmt 1 view .LVU1398
 236:src/main.cpp  ****                 int32_t d = (int32_t)baseline[i] - (int32_t)scan[i];
 4161              		.loc 6 236 13 view .LVU1399
 4162              	.LBB993:
 236:src/main.cpp  ****                 int32_t d = (int32_t)baseline[i] - (int32_t)scan[i];
 4163              		.loc 6 236 30 view .LVU1400
 4164 10c6 3DA8     		add	r0, sp, #244
 4165              	.LBE993:
 234:src/main.cpp  ****             int32_t max_d = 0;
 4166              		.loc 6 234 28 is_stmt 0 view .LVU1401
 4167 10c8 2A46     		mov	r2, r5
 235:src/main.cpp  ****             for(int i = 0; i < N_CH; i++) {
 4168              		.loc 6 235 21 view .LVU1402
 4169 10ca 0021     		movs	r1, #0
 4170              	.LVL334:
 4171              	.L111:
 4172              	.LBB995:
 4173              	.LBB994:
 237:src/main.cpp  ****                 if(d > max_d) max_d = d;
 4174              		.loc 6 237 17 is_stmt 1 view .LVU1403
 237:src/main.cpp  ****                 if(d > max_d) max_d = d;
 4175              		.loc 6 237 48 is_stmt 0 view .LVU1404
 4176 10cc 32F8023B 		ldrh	r3, [r2], #2
 237:src/main.cpp  ****                 if(d > max_d) max_d = d;
 4177              		.loc 6 237 67 view .LVU1405
 4178 10d0 30F8024B 		ldrh	r4, [r0], #2
ARM GAS  /tmp/claude-502/cc09dAcL.s 			page 120


 4179              	.LVL335:
 238:src/main.cpp  ****             }
 4180              		.loc 6 238 17 is_stmt 1 view .LVU1406
 237:src/main.cpp  ****                 if(d > max_d) max_d = d;
 4181              		.loc 6 237 25 is_stmt 0 view .LVU1407
 4182 10d4 1B1B     		subs	r3, r3, r4
 4183              	.LVL336:
 237:src/main.cpp  ****                 if(d > max_d) max_d = d;
 4184              		.loc 6 237 25 view .LVU1408
 4185 10d6 9942     		cmp	r1, r3
 4186 10d8 B8BF     		it	lt
 4187 10da 1946     		movlt	r1, r3
 4188              	.LVL337:
 237:src/main.cpp  ****                 if(d > max_d) max_d = d;
 4189              		.loc 6 237 25 view .LVU1409
 4190              	.LBE994:
 236:src/main.cpp  ****                 int32_t d = (int32_t)baseline[i] - (int32_t)scan[i];
 4191              		.loc 6 236 13 is_stmt 1 view .LVU1410
 236:src/main.cpp  ****                 int32_t d = (int32_t)baseline[i] - (int32_t)scan[i];
 4192              		.loc 6 236 30 view .LVU1411
 4193 10dc 9345     		cmp	fp, r2
 4194 10de F5D1     		bne	.L111
 4195              	.LBE995:
 240:src/main.cpp  **** 
 4196              		.loc 6 240 13 view .LVU1412
 4197 10e0 0929     		cmp	r1, #9
 4198 10e2 00F3FC82 		bgt	.L112
 242:src/main.cpp  ****         }
 4199              		.loc 6 242 13 view .LVU1413
 242:src/main.cpp  ****         }
 4200              		.loc 6 242 26 is_stmt 0 view .LVU1414
 4201 10e6 0A20     		movs	r0, #10
 4202 10e8 FFF7FEFF 		bl	_ZN5daisy6System5DelayEm
 4203              	.LVL338:
 242:src/main.cpp  ****         }
 4204              		.loc 6 242 26 view .LVU1415
 4205              	.LBE992:
 204:src/main.cpp  ****             uint32_t elapsed = System::GetNow() - start;
 4206              		.loc 6 204 9 is_stmt 1 view .LVU1416
 243:src/main.cpp  **** 
 4207              		.loc 6 243 9 is_stmt 0 view .LVU1417
 4208 10ec 50E7     		b	.L113
 4209              	.LVL339:
 4210              	.L256:
 4211              	.LBB1007:
 215:src/main.cpp  ****             float led1   = sqrtf(sqrtf(l2_raw));              // middle (DAC1)
 4212              		.loc 6 215 85 view .LVU1418
 4213 10ee 9FED7B7A 		vldr.32	s14, .L469+12
 4214              	.LVL340:
 215:src/main.cpp  ****             float led1   = sqrtf(sqrtf(l2_raw));              // middle (DAC1)
 4215              		.loc 6 215 85 view .LVU1419
 4216 10f2 9CE7     		b	.L91
 4217              	.LVL341:
 4218              	.L446:
 225:src/main.cpp  ****                 n++;
 4219              		.loc 6 225 17 is_stmt 1 view .LVU1420
 225:src/main.cpp  ****                 n++;
ARM GAS  /tmp/claude-502/cc09dAcL.s 			page 121


 4220              		.loc 6 225 34 is_stmt 0 view .LVU1421
 4221 10f4 3946     		mov	r1, r7
 4222 10f6 7D48     		ldr	r0, .L469+28
 4223 10f8 FFF7FEFF 		bl	_ZNK5daisy9AdcHandle3GetEh
 4224              	.LVL342:
 227:src/main.cpp  ****                     commit_fsr_avg(acc, n);
 4225              		.loc 6 227 17 view .LVU1422
 4226 10fc B4F5FA6F 		cmp	r4, #2000
 226:src/main.cpp  ****                 if(elapsed >= 2000) {
 4227              		.loc 6 226 18 view .LVU1423
 4228 1100 06F10106 		add	r6, r6, #1
 4229              	.LVL343:
 225:src/main.cpp  ****                 n++;
 4230              		.loc 6 225 21 view .LVU1424
 4231 1104 8244     		add	r10, r10, r0
 4232              	.LVL344:
 226:src/main.cpp  ****                 if(elapsed >= 2000) {
 4233              		.loc 6 226 17 is_stmt 1 view .LVU1425
 227:src/main.cpp  ****                     commit_fsr_avg(acc, n);
 4234              		.loc 6 227 17 view .LVU1426
 4235 1106 DBD3     		bcc	.L110
 228:src/main.cpp  ****                     calibrated = true;
 4236              		.loc 6 228 21 view .LVU1427
 4237              	.LVL345:
 4238              	.LBB996:
 4239              	.LBI996:
 169:src/main.cpp  ****         if(n == 0) return;
 4240              		.loc 6 169 27 view .LVU1428
 4241              	.LBE996:
 4242              	.LBE1007:
 4243              	.LBE991:
 4244              	.LBE990:
 4245              	.LBE989:
 4246              	.LBE1074:
 170:src/main.cpp  ****         uint16_t avg = (uint16_t)(acc / n);
 4247              		.loc 6 170 9 view .LVU1429
 4248              	.LBB1075:
 4249              	.LBB1016:
 4250              	.LBB1013:
 4251              	.LBB1010:
 4252              	.LBB1008:
 4253              	.LBB1005:
 4254              	.LBB997:
 4255              	.LBB998:
 4256              	.LBI998:
 169:src/main.cpp  ****         if(n == 0) return;
 4257              		.loc 6 169 27 view .LVU1430
 4258              	.LBB999:
 4259              	.LBB1000:
 171:src/main.cpp  ****         // Sanity floor ‚Äî without enough headroom over FSR_MIN the volume curve
 4260              		.loc 6 171 9 view .LVU1431
 4261 1108 42F23412 		movw	r2, #8500
 176:src/main.cpp  ****         fsr_active_inv = 1.0f / (float)(fsr_dead - FSR_MIN);
 4262              		.loc 6 176 45 is_stmt 0 view .LVU1432
 4263 110c 9FED786A 		vldr.32	s12, .L469+32
 177:src/main.cpp  ****     };
 4264              		.loc 6 177 31 view .LVU1433
ARM GAS  /tmp/claude-502/cc09dAcL.s 			page 122


 4265 1110 F7EE006A 		vmov.f32	s13, #1.0e+0
 177:src/main.cpp  ****     };
 4266              		.loc 6 177 31 view .LVU1434
 4267              	.LBE1000:
 4268              	.LBE999:
 4269              	.LBE998:
 4270              	.LBE997:
 4271              	.LBE1005:
 229:src/main.cpp  ****                 }
 4272              		.loc 6 229 32 view .LVU1435
 4273 1114 0127     		movs	r7, #1
 4274              	.LVL346:
 4275              	.LBB1006:
 4276              	.LBB1004:
 4277              	.LBB1003:
 4278              	.LBB1002:
 4279              	.LBB1001:
 171:src/main.cpp  ****         // Sanity floor ‚Äî without enough headroom over FSR_MIN the volume curve
 4280              		.loc 6 171 39 view .LVU1436
 4281 1116 BAFBF6F3 		udiv	r3, r10, r6
 171:src/main.cpp  ****         // Sanity floor ‚Äî without enough headroom over FSR_MIN the volume curve
 4282              		.loc 6 171 18 view .LVU1437
 4283 111a 9BB2     		uxth	r3, r3
 4284              	.LVL347:
 174:src/main.cpp  ****         fsr_max        = avg;
 4285              		.loc 6 174 9 is_stmt 1 view .LVU1438
 4286 111c 9342     		cmp	r3, r2
 4287 111e 38BF     		it	cc
 4288 1120 1346     		movcc	r3, r2
 4289              	.LVL348:
 176:src/main.cpp  ****         fsr_active_inv = 1.0f / (float)(fsr_dead - FSR_MIN);
 4290              		.loc 6 176 45 is_stmt 0 view .LVU1439
 4291 1122 07EE903A 		vmov	s15, r3	@ int
 4292 1126 1793     		str	r3, [sp, #92]
 4293              	.LVL349:
 175:src/main.cpp  ****         fsr_dead       = (uint16_t)(fsr_max - FSR_DEADZONE * (fsr_max - FSR_MIN));
 4294              		.loc 6 175 9 is_stmt 1 view .LVU1440
 176:src/main.cpp  ****         fsr_active_inv = 1.0f / (float)(fsr_dead - FSR_MIN);
 4295              		.loc 6 176 9 view .LVU1441
 176:src/main.cpp  ****         fsr_active_inv = 1.0f / (float)(fsr_dead - FSR_MIN);
 4296              		.loc 6 176 71 is_stmt 0 view .LVU1442
 4297 1128 A3F5FA53 		sub	r3, r3, #8000
 4298              	.LVL350:
 176:src/main.cpp  ****         fsr_active_inv = 1.0f / (float)(fsr_dead - FSR_MIN);
 4299              		.loc 6 176 45 view .LVU1443
 4300 112c F8EEE77A 		vcvt.f32.s32	s15, s15
 4301              	.LVL351:
 176:src/main.cpp  ****         fsr_active_inv = 1.0f / (float)(fsr_dead - FSR_MIN);
 4302              		.loc 6 176 71 view .LVU1444
 4303 1130 07EE103A 		vmov	s14, r3	@ int
 176:src/main.cpp  ****         fsr_active_inv = 1.0f / (float)(fsr_dead - FSR_MIN);
 4304              		.loc 6 176 60 view .LVU1445
 4305 1134 B8EEC77A 		vcvt.f32.s32	s14, s14
 176:src/main.cpp  ****         fsr_active_inv = 1.0f / (float)(fsr_dead - FSR_MIN);
 4306              		.loc 6 176 45 view .LVU1446
 4307 1138 E7EE467A 		vfms.f32	s15, s14, s12
 176:src/main.cpp  ****         fsr_active_inv = 1.0f / (float)(fsr_dead - FSR_MIN);
ARM GAS  /tmp/claude-502/cc09dAcL.s 			page 123


 4308              		.loc 6 176 26 view .LVU1447
 4309 113c FCEEE77A 		vcvt.u32.f32	s15, s15
 4310 1140 17EE903A 		vmov	r3, s15	@ int
 4311 1144 9BB2     		uxth	r3, r3
 4312 1146 1093     		str	r3, [sp, #64]
 4313              	.LVL352:
 177:src/main.cpp  ****     };
 4314              		.loc 6 177 9 is_stmt 1 view .LVU1448
 177:src/main.cpp  ****     };
 4315              		.loc 6 177 50 is_stmt 0 view .LVU1449
 4316 1148 A3F5FA53 		sub	r3, r3, #8000
 4317              	.LVL353:
 177:src/main.cpp  ****     };
 4318              		.loc 6 177 50 view .LVU1450
 4319 114c 07EE903A 		vmov	s15, r3	@ int
 177:src/main.cpp  ****     };
 4320              		.loc 6 177 33 view .LVU1451
 4321 1150 F8EEE77A 		vcvt.f32.s32	s15, s15
 177:src/main.cpp  ****     };
 4322              		.loc 6 177 31 view .LVU1452
 4323 1154 C6EEA7AA 		vdiv.f32	s21, s13, s15
 4324              	.LVL354:
 177:src/main.cpp  ****     };
 4325              		.loc 6 177 31 view .LVU1453
 4326 1158 B2E7     		b	.L110
 4327              	.LVL355:
 4328              	.L431:
 177:src/main.cpp  ****     };
 4329              		.loc 6 177 31 view .LVU1454
 4330              	.LBE1001:
 4331              	.LBE1002:
 4332              	.LBE1003:
 4333              	.LBE1004:
 4334              	.LBE1006:
 4335              	.LBE1008:
 4336              	.LBE1010:
 4337              	.LBE1013:
 4338              	.LBE1016:
 461:src/main.cpp  **** 
 4339              		.loc 6 461 54 discriminator 1 view .LVU1455
 4340 115a FFF7FEFF 		bl	_ZN5daisy6System6GetNowEv
 4341              	.LVL356:
 461:src/main.cpp  **** 
 4342              		.loc 6 461 57 discriminator 1 view .LVU1456
 4343 115e 159B     		ldr	r3, [sp, #84]
 4344 1160 C01A     		subs	r0, r0, r3
 461:src/main.cpp  **** 
 4345              		.loc 6 461 36 discriminator 1 view .LVU1457
 4346 1162 C728     		cmp	r0, #199
 4347 1164 94BF     		ite	ls
 4348 1166 0023     		movls	r3, #0
 4349 1168 0123     		movhi	r3, #1
 4350 116a 0E93     		str	r3, [sp, #56]
 4351 116c FFF75FB9 		b	.L115
 4352              	.LVL357:
 4353              	.L430:
 460:src/main.cpp  ****         bool f1_fresh = !f1_was_on && (System::GetNow() - f1_last_seen_ms >= F1_REQUANTIZE_MS);
ARM GAS  /tmp/claude-502/cc09dAcL.s 			page 124


 4354              		.loc 6 460 19 is_stmt 1 discriminator 1 view .LVU1458
 460:src/main.cpp  ****         bool f1_fresh = !f1_was_on && (System::GetNow() - f1_last_seen_ms >= F1_REQUANTIZE_MS);
 4355              		.loc 6 460 51 is_stmt 0 discriminator 1 view .LVU1459
 4356 1170 FFF7FEFF 		bl	_ZN5daisy6System6GetNowEv
 4357              	.LVL358:
 460:src/main.cpp  ****         bool f1_fresh = !f1_was_on && (System::GetNow() - f1_last_seen_ms >= F1_REQUANTIZE_MS);
 4358              		.loc 6 460 51 discriminator 1 view .LVU1460
 4359 1174 1590     		str	r0, [sp, #84]
 4360              	.LVL359:
 460:src/main.cpp  ****         bool f1_fresh = !f1_was_on && (System::GetNow() - f1_last_seen_ms >= F1_REQUANTIZE_MS);
 4361              		.loc 6 460 51 discriminator 1 view .LVU1461
 4362 1176 FFF754B9 		b	.L114
 4363              	.LVL360:
 4364              	.L434:
 4365              	.LBB1017:
 630:src/main.cpp  ****             g_finger_on  = false;
 4366              		.loc 6 630 13 is_stmt 1 view .LVU1462
 631:src/main.cpp  ****             g_amp_target = 0.0f;
 4367              		.loc 6 631 13 view .LVU1463
 632:src/main.cpp  ****             // Do NOT reset cutoff here ‚Äî let it close with the amplitude
 4368              		.loc 6 632 26 is_stmt 0 view .LVU1464
 4369 117a 9FED587A 		vldr.32	s14, .L469+12
 631:src/main.cpp  ****             g_amp_target = 0.0f;
 4370              		.loc 6 631 26 view .LVU1465
 4371 117e 5D4B     		ldr	r3, .L469+36
 4372 1180 079A     		ldr	r2, [sp, #28]
 632:src/main.cpp  ****             // Do NOT reset cutoff here ‚Äî let it close with the amplitude
 4373              		.loc 6 632 26 view .LVU1466
 4374 1182 F0EE477A 		vmov.f32	s15, s14
 4375 1186 F0EE476A 		vmov.f32	s13, s14
 4376              	.LBE1017:
 4377              	.LBB1018:
 4378              	.LBB806:
 664:src/main.cpp  ****             s_led1 = s_led1 * LED_SMOOTH + led1_target * (1.0f - LED_SMOOTH);
 4379              		.loc 6 664 35 view .LVU1467
 4380 118a DFED595A 		vldr.32	s11, .L469+32
 4381              	.LBE806:
 4382              	.LBE1018:
 4383              	.LBB1019:
 631:src/main.cpp  ****             g_amp_target = 0.0f;
 4384              		.loc 6 631 26 view .LVU1468
 4385 118e 1A70     		strb	r2, [r3]
 632:src/main.cpp  ****             // Do NOT reset cutoff here ‚Äî let it close with the amplitude
 4386              		.loc 6 632 13 is_stmt 1 view .LVU1469
 632:src/main.cpp  ****             // Do NOT reset cutoff here ‚Äî let it close with the amplitude
 4387              		.loc 6 632 26 is_stmt 0 view .LVU1470
 4388 1190 594B     		ldr	r3, .L469+40
 4389 1192 83ED007A 		vstr.32	s14, [r3]
 4390              	.LVL361:
 632:src/main.cpp  ****             // Do NOT reset cutoff here ‚Äî let it close with the amplitude
 4391              		.loc 6 632 26 view .LVU1471
 4392              	.LBE1019:
 645:src/main.cpp  ****         if(f1_on) {
 4393              		.loc 6 645 9 is_stmt 1 view .LVU1472
 646:src/main.cpp  ****             float p01      = clampf((float)tracked[0].pos / 1000.0f, 0.0f, 1.0f);
 4394              		.loc 6 646 9 view .LVU1473
 4395              	.L137:
ARM GAS  /tmp/claude-502/cc09dAcL.s 			page 125


 4396              	.LBB1020:
 4397              	.LBB807:
 665:src/main.cpp  ****             s_led2 = s_led2 * LED_SMOOTH + led2_target * (1.0f - LED_SMOOTH);
 4398              		.loc 6 665 13 discriminator 4 view .LVU1474
 665:src/main.cpp  ****             s_led2 = s_led2 * LED_SMOOTH + led2_target * (1.0f - LED_SMOOTH);
 4399              		.loc 6 665 20 is_stmt 0 discriminator 4 view .LVU1475
 4400 1196 9FED596A 		vldr.32	s12, .L469+44
 667:src/main.cpp  ****         }
 4401              		.loc 6 667 20 discriminator 4 view .LVU1476
 4402 119a E8EEA57A 		vfma.f32	s15, s17, s11
 665:src/main.cpp  ****             s_led2 = s_led2 * LED_SMOOTH + led2_target * (1.0f - LED_SMOOTH);
 4403              		.loc 6 665 20 discriminator 4 view .LVU1477
 4404 119e A9EE067A 		vfma.f32	s14, s18, s12
 666:src/main.cpp  ****             s_led3 = s_led3 * smooth3   + led3_target * (1.0f - smooth3);
 4405              		.loc 6 666 20 discriminator 4 view .LVU1478
 4406 11a2 E9EE866A 		vfma.f32	s13, s19, s12
 667:src/main.cpp  ****         }
 4407              		.loc 6 667 20 discriminator 4 view .LVU1479
 4408 11a6 F0EE678A 		vmov.f32	s17, s15
 4409              	.LVL362:
 665:src/main.cpp  ****             s_led2 = s_led2 * LED_SMOOTH + led2_target * (1.0f - LED_SMOOTH);
 4410              		.loc 6 665 20 discriminator 4 view .LVU1480
 4411 11aa B0EE479A 		vmov.f32	s18, s14
 4412              	.LVL363:
 666:src/main.cpp  ****             s_led3 = s_led3 * smooth3   + led3_target * (1.0f - smooth3);
 4413              		.loc 6 666 13 is_stmt 1 discriminator 4 view .LVU1481
 666:src/main.cpp  ****             s_led3 = s_led3 * smooth3   + led3_target * (1.0f - smooth3);
 4414              		.loc 6 666 20 is_stmt 0 discriminator 4 view .LVU1482
 4415 11ae F0EE669A 		vmov.f32	s19, s13
 4416              	.LVL364:
 667:src/main.cpp  ****         }
 4417              		.loc 6 667 13 is_stmt 1 discriminator 4 view .LVU1483
 667:src/main.cpp  ****         }
 4418              		.loc 6 667 13 is_stmt 0 discriminator 4 view .LVU1484
 4419 11b2 FFF7AABB 		b	.L180
 4420              	.LVL365:
 4421              	.L67:
 667:src/main.cpp  ****         }
 4422              		.loc 6 667 13 discriminator 4 view .LVU1485
 4423              	.LBE807:
 4424              	.LBE1020:
 390:src/main.cpp  **** 
 4425              		.loc 6 390 9 is_stmt 1 view .LVU1486
 390:src/main.cpp  **** 
 4426              		.loc 6 390 22 is_stmt 0 view .LVU1487
 4427 11b6 DFED497A 		vldr.32	s15, .L469+12
 4428 11ba 514B     		ldr	r3, .L469+48
 388:src/main.cpp  ****         else                        vol = (float)(fsr_raw - FSR_MIN) * fsr_active_inv;
 4429              		.loc 6 388 41 view .LVU1488
 4430 11bc B0EE678A 		vmov.f32	s16, s15
 390:src/main.cpp  **** 
 4431              		.loc 6 390 22 view .LVU1489
 4432 11c0 C3ED007A 		vstr.32	s15, [r3]
 396:src/main.cpp  ****         if(!fsr_pressed){
 4433              		.loc 6 396 9 is_stmt 1 view .LVU1490
 4434              	.LVL366:
 397:src/main.cpp  ****             fsr_hold_start = 0;                    // released ‚Üí disarm
ARM GAS  /tmp/claude-502/cc09dAcL.s 			page 126


 4435              		.loc 6 397 9 view .LVU1491
 4436              	.L244:
 4437              	.LBB1021:
 4438              	.LBB582:
 400:src/main.cpp  ****             if(fsr_hold_start == 0){
 4439              		.loc 6 400 13 view .LVU1492
 400:src/main.cpp  ****             if(fsr_hold_start == 0){
 4440              		.loc 6 400 42 is_stmt 0 view .LVU1493
 4441 11c4 FFF7FEFF 		bl	_ZN5daisy6System6GetNowEv
 4442              	.LVL367:
 401:src/main.cpp  ****                 fsr_hold_start  = now;
 4443              		.loc 6 401 13 view .LVU1494
 4444 11c8 119B     		ldr	r3, [sp, #68]
 400:src/main.cpp  ****             if(fsr_hold_start == 0){
 4445              		.loc 6 400 42 view .LVU1495
 4446 11ca 0A90     		str	r0, [sp, #40]
 4447              	.LVL368:
 401:src/main.cpp  ****                 fsr_hold_start  = now;
 4448              		.loc 6 401 13 is_stmt 1 view .LVU1496
 4449 11cc 002B     		cmp	r3, #0
 4450 11ce 40F0A180 		bne	.L69
 402:src/main.cpp  ****                 fsr_next_switch = now + VOICE_SWITCH_FIRST_MS;
 4451              		.loc 6 402 17 view .LVU1497
 4452              	.LVL369:
 403:src/main.cpp  ****             }
 4453              		.loc 6 403 17 view .LVU1498
 403:src/main.cpp  ****             }
 4454              		.loc 6 403 33 is_stmt 0 view .LVU1499
 4455 11d2 00F6B832 		addw	r2, r0, #3000
 402:src/main.cpp  ****                 fsr_next_switch = now + VOICE_SWITCH_FIRST_MS;
 4456              		.loc 6 402 33 view .LVU1500
 4457 11d6 1190     		str	r0, [sp, #68]
 408:src/main.cpp  ****             if((int32_t)(now - fsr_next_switch) >= 0){
 4458              		.loc 6 408 27 view .LVU1501
 4459 11d8 0B90     		str	r0, [sp, #44]
 4460              	.LVL370:
 403:src/main.cpp  ****             }
 4461              		.loc 6 403 33 view .LVU1502
 4462 11da 1692     		str	r2, [sp, #88]
 4463              	.LVL371:
 407:src/main.cpp  ****             last_touch_ms = now;
 4464              		.loc 6 407 13 is_stmt 1 view .LVU1503
 408:src/main.cpp  ****             if((int32_t)(now - fsr_next_switch) >= 0){
 4465              		.loc 6 408 13 view .LVU1504
 409:src/main.cpp  ****                 g_voice_idx = cycle_next(g_voice_idx);         // skip no_cycle voices
 4466              		.loc 6 409 13 view .LVU1505
 4467 11dc FFF7B2B8 		b	.L68
 4468              	.LVL372:
 4469              	.L150:
 409:src/main.cpp  ****                 g_voice_idx = cycle_next(g_voice_idx);         // skip no_cycle voices
 4470              		.loc 6 409 13 is_stmt 0 view .LVU1506
 4471              	.LBE582:
 4472              	.LBE1021:
 4473              	.LBB1022:
 4474              	.LBB797:
 648:src/main.cpp  ****             float prs_mult = 0.75f + 0.25f * pr01;
 4475              		.loc 6 648 13 is_stmt 1 view .LVU1507
ARM GAS  /tmp/claude-502/cc09dAcL.s 			page 127


 648:src/main.cpp  ****             float prs_mult = 0.75f + 0.25f * pr01;
 4476              		.loc 6 648 37 is_stmt 0 view .LVU1508
 4477 11e0 D9ED027A 		vldr.32	s15, [r9, #8]	@ int
 648:src/main.cpp  ****             float prs_mult = 0.75f + 0.25f * pr01;
 4478              		.loc 6 648 36 view .LVU1509
 4479 11e4 9FED477A 		vldr.32	s14, .L469+52
 648:src/main.cpp  ****             float prs_mult = 0.75f + 0.25f * pr01;
 4480              		.loc 6 648 37 view .LVU1510
 4481 11e8 F8EEE77A 		vcvt.f32.s32	s15, s15
 648:src/main.cpp  ****             float prs_mult = 0.75f + 0.25f * pr01;
 4482              		.loc 6 648 36 view .LVU1511
 4483 11ec C7EE876A 		vdiv.f32	s13, s15, s14
 4484              	.LVL373:
 4485              	.LBB787:
  12:src/dsp.h     ****     return v<lo?lo:v>hi?hi:v;
 4486              		.loc 9 12 21 is_stmt 1 view .LVU1512
 4487              	.LBB781:
 4488              		.loc 9 13 5 view .LVU1513
 4489              		.loc 9 13 16 is_stmt 0 view .LVU1514
 4490 11f0 F5EEC06A 		vcmpe.f32	s13, #0
 4491 11f4 F1EE10FA 		vmrs	APSR_nzcv, FPSCR
 4492 11f8 40F1E182 		bpl	.L447
 4493              	.LBE781:
 4494              	.LBE787:
 650:src/main.cpp  ****             float l3_raw   = 2.0f * p01 - 1.0f;                 if(l3_raw < 0) l3_raw = 0;
 4495              		.loc 6 650 19 view .LVU1515
 4496 11fc F7EE00BA 		vmov.f32	s23, #1.0e+0
 651:src/main.cpp  ****             float l2_raw   = 1.0f - 2.0f * fabsf(p01 - 0.5f);   if(l2_raw < 0) l2_raw = 0;
 4497              		.loc 6 651 87 view .LVU1516
 4498 1200 DFED36CA 		vldr.32	s25, .L469+12
 4499              	.LVL374:
 4500              	.L232:
 652:src/main.cpp  ****             led1_target    = sqrtf(sqrtf(l2_raw)) * prs_mult;  // middle tent
 4501              		.loc 6 652 13 is_stmt 1 view .LVU1517
 652:src/main.cpp  ****             led1_target    = sqrtf(sqrtf(l2_raw)) * prs_mult;  // middle tent
 4502              		.loc 6 652 65 view .LVU1518
 652:src/main.cpp  ****             led1_target    = sqrtf(sqrtf(l2_raw)) * prs_mult;  // middle tent
 4503              		.loc 6 652 87 is_stmt 0 view .LVU1519
 4504 1204 B6EE08CA 		vmov.f32	s24, #7.5e-1
 4505 1208 9FED347A 		vldr.32	s14, .L469+12
 4506 120c FFF738BB 		b	.L161
 4507              	.LVL375:
 4508              	.L271:
 652:src/main.cpp  ****             led1_target    = sqrtf(sqrtf(l2_raw)) * prs_mult;  // middle tent
 4509              		.loc 6 652 87 view .LVU1520
 4510              	.LBE797:
 4511              	.LBE1022:
 4512              	.LBB1023:
 4513              	.LBB771:
 4514              	.LBB753:
 4515              	.LBB712:
 4516              	.LBB713:
 4517              	.LBB714:
 4518              		.loc 9 13 16 view .LVU1521
 4519 1210 F0EE4B7A 		vmov.f32	s15, s22
 4520              	.LVL376:
 4521              	.L143:
ARM GAS  /tmp/claude-502/cc09dAcL.s 			page 128


 4522              		.loc 9 13 16 view .LVU1522
 4523              	.LBE714:
 4524              	.LBE713:
 4525              	.LBE712:
 4526              	.LBE753:
 4527              	.LBB754:
 4528              	.LBB724:
 4529              		.loc 9 13 24 view .LVU1523
 4530 1214 B4EEE7CA 		vcmpe.f32	s24, s15
 4531 1218 F1EE10FA 		vmrs	APSR_nzcv, FPSCR
 4532              	.LBE724:
 4533              	.LBE754:
 4534              	.LBB755:
 4535              	.LBB729:
 583:src/main.cpp  ****                 return x*x*x*(x*(x*6.0f - 15.0f) + 10.0f);
 4536              		.loc 6 583 24 view .LVU1524
 4537 121c F5EEC0BA 		vcmpe.f32	s23, #0
 4538              	.LBE729:
 4539              	.LBE755:
 4540              	.LBB756:
 4541              	.LBB725:
 4542              		.loc 9 13 24 view .LVU1525
 4543 1220 58BF     		it	pl
 4544 1222 B0EE67CA 		vmovpl.f32	s24, s15
 4545              	.LVL377:
 4546              		.loc 9 13 24 view .LVU1526
 4547              	.LBE725:
 4548              	.LBE756:
 578:src/main.cpp  ****                 x = x<0?0:x>1?1:x;
 4549              		.loc 6 578 13 is_stmt 1 view .LVU1527
 582:src/main.cpp  ****                 x = x<0?0:x>1?1:x;
 4550              		.loc 6 582 13 view .LVU1528
 589:src/main.cpp  ****             float cutoff_oct = VOICE.cutoff_oct_max * prs_cut;
 4551              		.loc 6 589 13 view .LVU1529
 4552              	.LBB757:
 582:src/main.cpp  ****                 x = x<0?0:x>1?1:x;
 4553              		.loc 6 582 33 view .LVU1530
 4554              	.LBB730:
 583:src/main.cpp  ****                 return x*x*x*(x*(x*6.0f - 15.0f) + 10.0f);
 4555              		.loc 6 583 17 view .LVU1531
 583:src/main.cpp  ****                 return x*x*x*(x*(x*6.0f - 15.0f) + 10.0f);
 4556              		.loc 6 583 24 is_stmt 0 view .LVU1532
 4557 1226 F1EE10FA 		vmrs	APSR_nzcv, FPSCR
 4558 122a 7FF5DDA9 		bpl	.L448
 4559              	.L274:
 583:src/main.cpp  ****                 return x*x*x*(x*(x*6.0f - 15.0f) + 10.0f);
 4560              		.loc 6 583 24 view .LVU1533
 4561 122e DFED2B7A 		vldr.32	s15, .L469+12
 4562 1232 FFF7F0B9 		b	.L145
 4563              	.LVL378:
 4564              	.L279:
 583:src/main.cpp  ****                 return x*x*x*(x*(x*6.0f - 15.0f) + 10.0f);
 4565              		.loc 6 583 24 view .LVU1534
 4566              	.LBE730:
 4567              	.LBE757:
 4568              	.LBB758:
 4569              	.LBB751:
ARM GAS  /tmp/claude-502/cc09dAcL.s 			page 129


 579:src/main.cpp  ****                 return x*x*(3.0f - 2.0f*x);
 4570              		.loc 6 579 24 view .LVU1535
 4571 1236 F5EEC0BA 		vcmpe.f32	s23, #0
 4572              	.LBE751:
 4573              	.LBE758:
 4574              	.LBB759:
 4575              	.LBB740:
 4576 123a 9FED28DA 		vldr.32	s26, .L469+12
 4577              	.LVL379:
 579:src/main.cpp  ****                 return x*x*(3.0f - 2.0f*x);
 4578              		.loc 6 579 24 view .LVU1536
 4579              	.LBE740:
 4580              	.LBE759:
 4581              	.LBB760:
 4582              	.LBB746:
 580:src/main.cpp  ****             };
 4583              		.loc 6 580 17 is_stmt 1 view .LVU1537
 580:src/main.cpp  ****             };
 4584              		.loc 6 580 17 is_stmt 0 view .LVU1538
 4585              	.LBE746:
 4586              	.LBE760:
 607:src/main.cpp  **** 
 4587              		.loc 6 607 13 is_stmt 1 view .LVU1539
 4588              	.LBB761:
 578:src/main.cpp  ****                 x = x<0?0:x>1?1:x;
 4589              		.loc 6 578 31 view .LVU1540
 4590              	.LBB752:
 579:src/main.cpp  ****                 return x*x*(3.0f - 2.0f*x);
 4591              		.loc 6 579 17 view .LVU1541
 579:src/main.cpp  ****                 return x*x*(3.0f - 2.0f*x);
 4592              		.loc 6 579 24 is_stmt 0 view .LVU1542
 4593 123e F1EE10FA 		vmrs	APSR_nzcv, FPSCR
 4594 1242 7FF556AA 		bpl	.L449
 4595              	.L281:
 579:src/main.cpp  ****                 return x*x*(3.0f - 2.0f*x);
 4596              		.loc 6 579 24 view .LVU1543
 4597 1246 DFED257A 		vldr.32	s15, .L469+12
 4598 124a FFF763BA 		b	.L149
 4599              	.LVL380:
 4600              	.L277:
 579:src/main.cpp  ****                 return x*x*(3.0f - 2.0f*x);
 4601              		.loc 6 579 24 view .LVU1544
 4602              	.LBE752:
 4603              	.LBE761:
 4604              	.LBB762:
 4605              	.LBB736:
 4606              		.loc 9 13 16 view .LVU1545
 4607 124e B0EE67BA 		vmov.f32	s22, s15
 4608              	.LVL381:
 4609              		.loc 9 13 16 view .LVU1546
 4610 1252 FFF724BA 		b	.L147
 4611              	.LVL382:
 4612              	.L267:
 4613              		.loc 9 13 16 view .LVU1547
 4614              	.LBE736:
 4615              	.LBE762:
 4616              	.LBB763:
ARM GAS  /tmp/claude-502/cc09dAcL.s 			page 130


 4617              	.LBB707:
 4618 1256 DFED21BA 		vldr.32	s23, .L469+12
 4619              	.LVL383:
 4620              		.loc 9 13 16 view .LVU1548
 4621 125a FFF786B9 		b	.L140
 4622              	.LVL384:
 4623              	.L265:
 4624              		.loc 9 13 16 view .LVU1549
 4625              	.LBE707:
 4626              	.LBE763:
 4627              	.LBB764:
 4628              	.LBB704:
 4629 125e 9FED1F7A 		vldr.32	s14, .L469+12
 4630              	.LVL385:
 4631              		.loc 9 13 16 view .LVU1550
 4632 1262 FFF76CB9 		b	.L139
 4633              	.LVL386:
 4634              	.L269:
 4635              		.loc 9 13 16 view .LVU1551
 4636              	.LBE704:
 4637              	.LBE764:
 4638              	.LBB765:
 4639              	.LBB710:
 4640 1266 F0EE4B7A 		vmov.f32	s15, s22
 4641              	.LVL387:
 4642              		.loc 9 13 16 view .LVU1552
 4643 126a FFF7A5B9 		b	.L141
 4644              	.LVL388:
 4645              	.L438:
 4646              		.loc 9 13 16 view .LVU1553
 4647              	.LBE710:
 4648              	.LBE765:
 4649              	.LBE771:
 4650              	.LBE1023:
 4651              	.LBB1024:
 4652              	.LBB881:
 683:src/main.cpp  **** 
 4653              		.loc 6 683 13 is_stmt 1 view .LVU1554
 686:src/main.cpp  ****                 x = x<0?0:x>1?1:x;
 4654              		.loc 6 686 13 view .LVU1555
 692:src/main.cpp  ****             float ss3 = smootherstep2(ss2);   // triple smootherstep ‚Äî very lazy
 4655              		.loc 6 692 13 view .LVU1556
 4656              	.LBB864:
 582:src/main.cpp  ****                 x = x<0?0:x>1?1:x;
 4657              		.loc 6 582 33 view .LVU1557
 4658              	.LBB826:
 583:src/main.cpp  ****                 return x*x*x*(x*(x*6.0f - 15.0f) + 10.0f);
 4659              		.loc 6 583 17 view .LVU1558
 584:src/main.cpp  ****             };
 4660              		.loc 6 584 41 is_stmt 0 view .LVU1559
 4661 126e B1EE084A 		vmov.f32	s8, #6.0e+0
 4662              	.LBE826:
 4663              	.LBE864:
 705:src/main.cpp  ****             float rm    = smoothstep2(rm_in) * VOICE.ringmod_max;
 4664              		.loc 6 705 41 view .LVU1560
 4665 1272 DFED254A 		vldr.32	s9, .L469+56
 4666              	.LBB865:
ARM GAS  /tmp/claude-502/cc09dAcL.s 			page 131


 4667              	.LBB827:
 584:src/main.cpp  ****             };
 4668              		.loc 6 584 41 view .LVU1561
 4669 1276 BAEE0E5A 		vmov.f32	s10, #-1.5e+1
 4670              	.LBE827:
 4671              	.LBE865:
 705:src/main.cpp  ****             float rm    = smoothstep2(rm_in) * VOICE.ringmod_max;
 4672              		.loc 6 705 33 view .LVU1562
 4673 127a DFED243A 		vldr.32	s7, .L469+60
 4674              	.LBB866:
 4675              	.LBB828:
 584:src/main.cpp  ****             };
 4676              		.loc 6 584 50 view .LVU1563
 4677 127e B2EE047A 		vmov.f32	s14, #1.0e+1
 584:src/main.cpp  ****             };
 4678              		.loc 6 584 25 view .LVU1564
 4679 1282 67EEA76A 		vmul.f32	s13, s15, s15
 584:src/main.cpp  ****             };
 4680              		.loc 6 584 41 view .LVU1565
 4681 1286 A7EE845A 		vfma.f32	s10, s15, s8
 4682              	.LBE828:
 4683              	.LBE866:
 705:src/main.cpp  ****             float rm    = smoothstep2(rm_in) * VOICE.ringmod_max;
 4684              		.loc 6 705 41 view .LVU1566
 4685 128a 77EEE44A 		vsub.f32	s9, s15, s9
 4686              	.LBB867:
 4687              	.LBB829:
 584:src/main.cpp  ****             };
 4688              		.loc 6 584 27 view .LVU1567
 4689 128e 66EEA76A 		vmul.f32	s13, s13, s15
 4690              	.LBE829:
 4691              	.LBE867:
 705:src/main.cpp  ****             float rm    = smoothstep2(rm_in) * VOICE.ringmod_max;
 4692              		.loc 6 705 33 view .LVU1568
 4693 1292 84EEA34A 		vdiv.f32	s8, s9, s7
 4694              	.LBB868:
 4695              	.LBB830:
 584:src/main.cpp  ****             };
 4696              		.loc 6 584 50 view .LVU1569
 4697 1296 A7EE857A 		vfma.f32	s14, s15, s10
 584:src/main.cpp  ****             };
 4698              		.loc 6 584 57 view .LVU1570
 4699 129a 26EE877A 		vmul.f32	s14, s13, s14
 584:src/main.cpp  ****             };
 4700              		.loc 6 584 17 is_stmt 1 view .LVU1571
 4701              	.LVL389:
 584:src/main.cpp  ****             };
 4702              		.loc 6 584 17 is_stmt 0 view .LVU1572
 4703              	.LBE830:
 4704              	.LBE868:
 693:src/main.cpp  ****             float bc  = smootherstep2(ss3) * VOICE.fold_max; // ceiling is voice-defined
 4705              		.loc 6 693 13 is_stmt 1 view .LVU1573
 4706              	.LBB869:
 582:src/main.cpp  ****                 x = x<0?0:x>1?1:x;
 4707              		.loc 6 582 33 view .LVU1574
 4708              	.LBB834:
 583:src/main.cpp  ****                 return x*x*x*(x*(x*6.0f - 15.0f) + 10.0f);
ARM GAS  /tmp/claude-502/cc09dAcL.s 			page 132


 4709              		.loc 6 583 17 view .LVU1575
 583:src/main.cpp  ****                 return x*x*x*(x*(x*6.0f - 15.0f) + 10.0f);
 4710              		.loc 6 583 24 is_stmt 0 view .LVU1576
 4711 129e B5EEC07A 		vcmpe.f32	s14, #0
 4712 12a2 F1EE10FA 		vmrs	APSR_nzcv, FPSCR
 4713 12a6 40F1C782 		bpl	.L450
 4714 12aa 9FED0C7A 		vldr.32	s14, .L469+12
 4715 12ae FFF7ACBB 		b	.L188
 4716              	.LVL390:
 4717              	.L328:
 583:src/main.cpp  ****                 return x*x*x*(x*(x*6.0f - 15.0f) + 10.0f);
 4718              		.loc 6 583 24 view .LVU1577
 4719              	.LBE834:
 4720              	.LBE869:
 4721              	.LBE881:
 4722              	.LBE1024:
 4723              	.LBB1025:
 4724              	.LBB808:
 665:src/main.cpp  ****             s_led2 = s_led2 * LED_SMOOTH + led2_target * (1.0f - LED_SMOOTH);
 4725              		.loc 6 665 56 view .LVU1578
 4726 12b2 9FED176A 		vldr.32	s12, .L469+64
 664:src/main.cpp  ****             s_led1 = s_led1 * LED_SMOOTH + led1_target * (1.0f - LED_SMOOTH);
 4727              		.loc 6 664 35 view .LVU1579
 4728 12b6 DFED115A 		vldr.32	s11, .L469+44
 665:src/main.cpp  ****             s_led2 = s_led2 * LED_SMOOTH + led2_target * (1.0f - LED_SMOOTH);
 4729              		.loc 6 665 56 view .LVU1580
 4730 12ba 2BEE067A 		vmul.f32	s14, s22, s12
 666:src/main.cpp  ****             s_led3 = s_led3 * smooth3   + led3_target * (1.0f - smooth3);
 4731              		.loc 6 666 56 view .LVU1581
 4732 12be 6BEE866A 		vmul.f32	s13, s23, s12
 667:src/main.cpp  ****         }
 4733              		.loc 6 667 55 view .LVU1582
 4734 12c2 67EE867A 		vmul.f32	s15, s15, s12
 4735              	.LVL391:
 667:src/main.cpp  ****         }
 4736              		.loc 6 667 55 view .LVU1583
 4737 12c6 66E7     		b	.L137
 4738              	.LVL392:
 4739              	.L291:
 667:src/main.cpp  ****         }
 4740              		.loc 6 667 55 view .LVU1584
 4741              	.LBE808:
 4742              	.LBE1025:
 4743              	.LBB1026:
 4744              	.LBB882:
 4745              	.LBB870:
 4746              	.LBB861:
 4747 12c8 DFED047A 		vldr.32	s15, .L469+12
 4748 12cc FFF7D6BB 		b	.L194
 4749              	.L470:
 4750              		.align	2
 4751              	.L469:
 4752 12d0 F1197605 		.word	91625969
 4753 12d4 00803B46 		.word	1178304512
 4754 12d8 DB0FC940 		.word	1086918619
 4755 12dc 00000000 		.word	0
 4756 12e0 00F07F45 		.word	1166012416
ARM GAS  /tmp/claude-502/cc09dAcL.s 			page 133


 4757 12e4 CDCC4C3D 		.word	1028443341
 4758 12e8 20000000 		.word	.LANCHOR1+32
 4759 12ec 18000000 		.word	.LANCHOR1+24
 4760 12f0 CDCCCC3D 		.word	1036831949
 4761 12f4 00000000 		.word	g_finger_on
 4762 12f8 00000000 		.word	g_amp_target
 4763 12fc 6666E63E 		.word	1055286886
 4764 1300 00000000 		.word	g_master_vol
 4765 1304 0000C842 		.word	1120403456
 4766 1308 9A99593F 		.word	1062836634
 4767 130c 9A99193E 		.word	1041865114
 4768 1310 CDCC0C3F 		.word	1057803469
 4769              	.LVL393:
 4770              	.L69:
 667:src/main.cpp  ****         }
 4771              		.loc 6 667 55 view .LVU1585
 4772              	.LBE861:
 4773              	.LBE870:
 4774              	.LBE882:
 4775              	.LBE1026:
 4776              	.LBB1027:
 4777              	.LBB621:
 407:src/main.cpp  ****             last_touch_ms = now;
 4778              		.loc 6 407 13 is_stmt 1 view .LVU1586
 408:src/main.cpp  ****             if((int32_t)(now - fsr_next_switch) >= 0){
 4779              		.loc 6 408 13 view .LVU1587
 409:src/main.cpp  ****                 g_voice_idx = cycle_next(g_voice_idx);         // skip no_cycle voices
 4780              		.loc 6 409 13 view .LVU1588
 4781              	.LBB583:
 409:src/main.cpp  ****                 g_voice_idx = cycle_next(g_voice_idx);         // skip no_cycle voices
 4782              		.loc 6 409 30 is_stmt 0 view .LVU1589
 4783 1314 0A9B     		ldr	r3, [sp, #40]
 4784 1316 169A     		ldr	r2, [sp, #88]
 4785 1318 9B1A     		subs	r3, r3, r2
 409:src/main.cpp  ****                 g_voice_idx = cycle_next(g_voice_idx);         // skip no_cycle voices
 4786              		.loc 6 409 13 view .LVU1590
 4787 131a 002B     		cmp	r3, #0
 4788 131c C0F20983 		blt	.L252
 4789              	.LBB584:
 410:src/main.cpp  ****                 int pos = cycle_pos(g_voice_idx);
 4790              		.loc 6 410 17 is_stmt 1 view .LVU1591
 410:src/main.cpp  ****                 int pos = cycle_pos(g_voice_idx);
 4791              		.loc 6 410 41 is_stmt 0 view .LVU1592
 4792 1320 CB4B     		ldr	r3, .L471
 4793 1322 1C68     		ldr	r4, [r3]
 4794              	.LVL394:
 4795              	.LBB585:
 4796              	.LBI585:
 402:src/voice.h   ****     return p;
 403:src/voice.h   **** }
 404:src/voice.h   **** // Next cyclable voice index after `idx` (wraps). Falls back to idx if none.
 405:src/voice.h   **** static int cycle_next(int idx){
 4797              		.loc 8 405 12 is_stmt 1 view .LVU1593
 4798              	.LBB586:
 406:src/voice.h   ****     for(int step = 1; step <= NUM_VOICES; step++){
 4799              		.loc 8 406 5 view .LVU1594
 4800              	.LBB587:
ARM GAS  /tmp/claude-502/cc09dAcL.s 			page 134


 4801              		.loc 8 406 28 view .LVU1595
 4802 1324 611C     		adds	r1, r4, #1
 4803 1326 04F10E00 		add	r0, r4, #14
 4804              	.LVL395:
 4805              	.L71:
 4806              	.LBB588:
 407:src/voice.h   ****         int n = (idx + step) % NUM_VOICES;
 4807              		.loc 8 407 9 view .LVU1596
 4808              	.LBE588:
 406:src/voice.h   ****     for(int step = 1; step <= NUM_VOICES; step++){
 4809              		.loc 8 406 5 view .LVU1597
 406:src/voice.h   ****     for(int step = 1; step <= NUM_VOICES; step++){
 4810              		.loc 8 406 28 view .LVU1598
 4811              	.LBB589:
 4812              		.loc 8 407 13 is_stmt 0 view .LVU1599
 4813 132a CA4D     		ldr	r5, .L471+4
 4814 132c CB17     		asrs	r3, r1, #31
 408:src/voice.h   ****         if(!VOICES[n].no_cycle) return n;
 4815              		.loc 8 408 23 view .LVU1600
 4816 132e 8C22     		movs	r2, #140
 407:src/voice.h   ****         int n = (idx + step) % NUM_VOICES;
 4817              		.loc 8 407 13 view .LVU1601
 4818 1330 85FB0165 		smull	r6, r5, r5, r1
 4819 1334 C3EBA503 		rsb	r3, r3, r5, asr #2
 4820 1338 03EB4305 		add	r5, r3, r3, lsl #1
 4821 133c 03EB8503 		add	r3, r3, r5, lsl #2
 4822 1340 CB1A     		subs	r3, r1, r3
 4823              	.LVL396:
 4824              		.loc 8 408 9 is_stmt 1 view .LVU1602
 4825              	.LBE589:
 406:src/voice.h   ****     for(int step = 1; step <= NUM_VOICES; step++){
 4826              		.loc 8 406 28 is_stmt 0 view .LVU1603
 4827 1342 0131     		adds	r1, r1, #1
 4828              	.LBB590:
 4829              		.loc 8 408 23 view .LVU1604
 4830 1344 02FB03A2 		mla	r2, r2, r3, r10
 4831              		.loc 8 408 9 view .LVU1605
 4832 1348 92F87C20 		ldrb	r2, [r2, #124]	@ zero_extendqisi2
 4833 134c 002A     		cmp	r2, #0
 4834 134e 00F0F482 		beq	.L253
 4835              	.LBE590:
 406:src/voice.h   ****     for(int step = 1; step <= NUM_VOICES; step++){
 4836              		.loc 8 406 28 view .LVU1606
 4837 1352 8842     		cmp	r0, r1
 4838 1354 E9D1     		bne	.L71
 4839              	.LVL397:
 4840              	.L70:
 406:src/voice.h   ****     for(int step = 1; step <= NUM_VOICES; step++){
 4841              		.loc 8 406 28 view .LVU1607
 4842              	.LBE587:
 4843              	.LBE586:
 4844              	.LBE585:
 410:src/main.cpp  ****                 int pos = cycle_pos(g_voice_idx);
 4845              		.loc 6 410 29 view .LVU1608
 4846 1356 BE4B     		ldr	r3, .L471
 4847 1358 1C60     		str	r4, [r3]
 411:src/main.cpp  ****                 hw.PrintLine("[voice %d/%d] %s",
ARM GAS  /tmp/claude-502/cc09dAcL.s 			page 135


 4848              		.loc 6 411 17 is_stmt 1 view .LVU1609
 4849              	.LBB594:
 4850              	.LBB595:
 400:src/voice.h   ****     for(int i = 0; i <= idx && i < NUM_VOICES; i++) if(!VOICES[i].no_cycle) p++;
 4851              		.loc 8 400 9 is_stmt 0 view .LVU1610
 4852 135a 0024     		movs	r4, #0
 4853              	.LBE595:
 4854              	.LBE594:
 411:src/main.cpp  ****                 hw.PrintLine("[voice %d/%d] %s",
 4855              		.loc 6 411 36 view .LVU1611
 4856 135c 1B68     		ldr	r3, [r3]
 4857              	.LVL398:
 4858              	.LBB598:
 4859              	.LBI594:
 399:src/voice.h   ****     int p = 0;
 4860              		.loc 8 399 12 is_stmt 1 view .LVU1612
 4861              	.LBB597:
 4862              	.LBB596:
 401:src/voice.h   ****     return p;
 4863              		.loc 8 401 29 view .LVU1613
 4864 135e 0C2B     		cmp	r3, #12
 4865 1360 1846     		mov	r0, r3
 4866 1362 A8BF     		it	ge
 4867 1364 0C20     		movge	r0, #12
 4868 1366 002B     		cmp	r3, #0
 4869 1368 09DB     		blt	.L72
 4870 136a BB4A     		ldr	r2, .L471+8
 401:src/voice.h   ****     return p;
 4871              		.loc 8 401 13 is_stmt 0 view .LVU1614
 4872 136c 2346     		mov	r3, r4
 4873              	.LVL399:
 4874              	.L74:
 401:src/voice.h   ****     return p;
 4875              		.loc 8 401 53 is_stmt 1 view .LVU1615
 401:src/voice.h   ****     return p;
 4876              		.loc 8 401 77 view .LVU1616
 401:src/voice.h   ****     return p;
 4877              		.loc 8 401 53 is_stmt 0 view .LVU1617
 4878 136e 92F87C10 		ldrb	r1, [r2, #124]	@ zero_extendqisi2
 401:src/voice.h   ****     return p;
 4879              		.loc 8 401 5 view .LVU1618
 4880 1372 0133     		adds	r3, r3, #1
 4881              	.LVL400:
 401:src/voice.h   ****     return p;
 4882              		.loc 8 401 29 view .LVU1619
 4883 1374 8C32     		adds	r2, r2, #140
 401:src/voice.h   ****     return p;
 4884              		.loc 8 401 53 view .LVU1620
 4885 1376 01B9     		cbnz	r1, .L73
 401:src/voice.h   ****     return p;
 4886              		.loc 8 401 78 view .LVU1621
 4887 1378 0134     		adds	r4, r4, #1
 4888              	.LVL401:
 4889              	.L73:
 401:src/voice.h   ****     return p;
 4890              		.loc 8 401 5 is_stmt 1 view .LVU1622
 401:src/voice.h   ****     return p;
ARM GAS  /tmp/claude-502/cc09dAcL.s 			page 136


 4891              		.loc 8 401 29 view .LVU1623
 4892 137a 8342     		cmp	r3, r0
 4893 137c F7DD     		ble	.L74
 4894              	.LVL402:
 4895              	.L72:
 401:src/voice.h   ****     return p;
 4896              		.loc 8 401 29 is_stmt 0 view .LVU1624
 4897              	.LBE596:
 400:src/voice.h   ****     for(int i = 0; i <= idx && i < NUM_VOICES; i++) if(!VOICES[i].no_cycle) p++;
 4898              		.loc 8 400 9 view .LVU1625
 4899 137e B64B     		ldr	r3, .L471+8
 4900              	.LBE597:
 4901              	.LBE598:
 4902              	.LBB599:
 4903              	.LBB600:
 395:src/voice.h   ****     for(int i = 0; i < NUM_VOICES; i++) if(!VOICES[i].no_cycle) n++;
 4904              		.loc 8 395 9 view .LVU1626
 4905 1380 0022     		movs	r2, #0
 4906              	.L76:
 4907              	.LVL403:
 4908              	.LBB601:
 396:src/voice.h   ****     return n;
 4909              		.loc 8 396 41 is_stmt 1 view .LVU1627
 396:src/voice.h   ****     return n;
 4910              		.loc 8 396 65 view .LVU1628
 396:src/voice.h   ****     return n;
 4911              		.loc 8 396 41 is_stmt 0 view .LVU1629
 4912 1382 93F87C10 		ldrb	r1, [r3, #124]	@ zero_extendqisi2
 396:src/voice.h   ****     return n;
 4913              		.loc 8 396 22 view .LVU1630
 4914 1386 8C33     		adds	r3, r3, #140
 396:src/voice.h   ****     return n;
 4915              		.loc 8 396 41 view .LVU1631
 4916 1388 01B9     		cbnz	r1, .L75
 396:src/voice.h   ****     return n;
 4917              		.loc 8 396 66 view .LVU1632
 4918 138a 0132     		adds	r2, r2, #1
 4919              	.LVL404:
 4920              	.L75:
 396:src/voice.h   ****     return n;
 4921              		.loc 8 396 5 is_stmt 1 view .LVU1633
 396:src/voice.h   ****     return n;
 4922              		.loc 8 396 22 view .LVU1634
 4923 138c B349     		ldr	r1, .L471+12
 4924 138e 9942     		cmp	r1, r3
 4925 1390 F7D1     		bne	.L76
 396:src/voice.h   ****     return n;
 4926              		.loc 8 396 22 is_stmt 0 view .LVU1635
 4927              	.LBE601:
 397:src/voice.h   **** }
 4928              		.loc 8 397 5 is_stmt 1 view .LVU1636
 4929              	.LVL405:
 397:src/voice.h   **** }
 4930              		.loc 8 397 5 is_stmt 0 view .LVU1637
 4931              	.LBE600:
 4932              	.LBE599:
 413:src/main.cpp  ****                 // Persist the new selection (only erases/writes QSPI if changed).
ARM GAS  /tmp/claude-502/cc09dAcL.s 			page 137


 4933              		.loc 6 413 57 view .LVU1638
 4934 1392 AF4D     		ldr	r5, .L471
 413:src/main.cpp  ****                 // Persist the new selection (only erases/writes QSPI if changed).
 4935              		.loc 6 413 70 view .LVU1639
 4936 1394 8C21     		movs	r1, #140
 4937              	.LBB602:
 4938              	.LBB603:
 128:/Users/reza.kalfane/Workspaces/Daisy/DaisyExamples/libDaisy/src/daisy_seed.h ****     }
 4939              		.loc 1 128 23 view .LVU1640
 4940 1396 B248     		ldr	r0, .L471+16
 4941              	.LBE603:
 4942              	.LBE602:
 413:src/main.cpp  ****                 // Persist the new selection (only erases/writes QSPI if changed).
 4943              		.loc 6 413 57 view .LVU1641
 4944 1398 2B68     		ldr	r3, [r5]
 4945              	.LVL406:
 4946              	.LBB605:
 4947              	.LBI602:
 126:/Users/reza.kalfane/Workspaces/Daisy/DaisyExamples/libDaisy/src/daisy_seed.h ****     {
 4948              		.loc 1 126 17 is_stmt 1 view .LVU1642
 4949              	.LBE605:
 413:src/main.cpp  ****                 // Persist the new selection (only erases/writes QSPI if changed).
 4950              		.loc 6 413 70 is_stmt 0 view .LVU1643
 4951 139a 01FB03F3 		mul	r3, r1, r3
 4952              	.LVL407:
 4953              	.LBB606:
 4954              	.LBB604:
 128:/Users/reza.kalfane/Workspaces/Daisy/DaisyExamples/libDaisy/src/daisy_seed.h ****     }
 4955              		.loc 1 128 23 view .LVU1644
 4956 139e 2146     		mov	r1, r4
 4957 13a0 5AF80330 		ldr	r3, [r10, r3]
 4958 13a4 FFF7FEFF 		bl	_ZN5daisy6LoggerILNS_17LoggerDestinationE1EE9PrintLineEPKcz
 4959              	.LVL408:
 128:/Users/reza.kalfane/Workspaces/Daisy/DaisyExamples/libDaisy/src/daisy_seed.h ****     }
 4960              		.loc 1 128 23 view .LVU1645
 4961              	.LBE604:
 4962              	.LBE606:
 415:src/main.cpp  ****                 storage.Save();
 4963              		.loc 6 415 17 is_stmt 1 view .LVU1646
 415:src/main.cpp  ****                 storage.Save();
 4964              		.loc 6 415 49 is_stmt 0 view .LVU1647
 4965 13a8 2E68     		ldr	r6, [r5]
 4966              	.LVL409:
 416:src/main.cpp  ****                 flash_voice_leds(pos);                         // count = position in the cycle
 4967              		.loc 6 416 17 is_stmt 1 view .LVU1648
 4968              	.LBB607:
 4969              	.LBI607:
  86:/Users/reza.kalfane/Workspaces/Daisy/DaisyExamples/libDaisy/src/util/PersistentStorage.h ****         }
  87:/Users/reza.kalfane/Workspaces/Daisy/DaisyExamples/libDaisy/src/util/PersistentStorage.h ****     }
  88:/Users/reza.kalfane/Workspaces/Daisy/DaisyExamples/libDaisy/src/util/PersistentStorage.h **** 
  89:/Users/reza.kalfane/Workspaces/Daisy/DaisyExamples/libDaisy/src/util/PersistentStorage.h ****     /** Returns the state of the Persistent Data */
  90:/Users/reza.kalfane/Workspaces/Daisy/DaisyExamples/libDaisy/src/util/PersistentStorage.h ****     State GetState() const { return state_; }
  91:/Users/reza.kalfane/Workspaces/Daisy/DaisyExamples/libDaisy/src/util/PersistentStorage.h **** 
  92:/Users/reza.kalfane/Workspaces/Daisy/DaisyExamples/libDaisy/src/util/PersistentStorage.h ****     /** Returns a reference to the setting struct */
  93:/Users/reza.kalfane/Workspaces/Daisy/DaisyExamples/libDaisy/src/util/PersistentStorage.h ****     SettingStruct &GetSettings() { return settings_; }
  94:/Users/reza.kalfane/Workspaces/Daisy/DaisyExamples/libDaisy/src/util/PersistentStorage.h **** 
  95:/Users/reza.kalfane/Workspaces/Daisy/DaisyExamples/libDaisy/src/util/PersistentStorage.h ****     /** Performs the save operation, storing the storage */
ARM GAS  /tmp/claude-502/cc09dAcL.s 			page 138


  96:/Users/reza.kalfane/Workspaces/Daisy/DaisyExamples/libDaisy/src/util/PersistentStorage.h ****     void Save()
 4970              		.loc 7 96 10 view .LVU1649
 4971              	.LBB608:
 4972              	.LBI608:
  97:/Users/reza.kalfane/Workspaces/Daisy/DaisyExamples/libDaisy/src/util/PersistentStorage.h ****     {
  98:/Users/reza.kalfane/Workspaces/Daisy/DaisyExamples/libDaisy/src/util/PersistentStorage.h ****         state_ = State::USER;
  99:/Users/reza.kalfane/Workspaces/Daisy/DaisyExamples/libDaisy/src/util/PersistentStorage.h ****         StoreSettingsIfChanged();
 100:/Users/reza.kalfane/Workspaces/Daisy/DaisyExamples/libDaisy/src/util/PersistentStorage.h ****     }
 101:/Users/reza.kalfane/Workspaces/Daisy/DaisyExamples/libDaisy/src/util/PersistentStorage.h **** 
 102:/Users/reza.kalfane/Workspaces/Daisy/DaisyExamples/libDaisy/src/util/PersistentStorage.h ****     /** Restores the settings stored in the QSPI */
 103:/Users/reza.kalfane/Workspaces/Daisy/DaisyExamples/libDaisy/src/util/PersistentStorage.h ****     void RestoreDefaults()
 104:/Users/reza.kalfane/Workspaces/Daisy/DaisyExamples/libDaisy/src/util/PersistentStorage.h ****     {
 105:/Users/reza.kalfane/Workspaces/Daisy/DaisyExamples/libDaisy/src/util/PersistentStorage.h ****         settings_ = default_settings_;
 106:/Users/reza.kalfane/Workspaces/Daisy/DaisyExamples/libDaisy/src/util/PersistentStorage.h ****         state_    = State::FACTORY;
 107:/Users/reza.kalfane/Workspaces/Daisy/DaisyExamples/libDaisy/src/util/PersistentStorage.h ****         StoreSettingsIfChanged();
 108:/Users/reza.kalfane/Workspaces/Daisy/DaisyExamples/libDaisy/src/util/PersistentStorage.h ****     }
 109:/Users/reza.kalfane/Workspaces/Daisy/DaisyExamples/libDaisy/src/util/PersistentStorage.h **** 
 110:/Users/reza.kalfane/Workspaces/Daisy/DaisyExamples/libDaisy/src/util/PersistentStorage.h ****   private:
 111:/Users/reza.kalfane/Workspaces/Daisy/DaisyExamples/libDaisy/src/util/PersistentStorage.h ****     struct SaveStruct
 112:/Users/reza.kalfane/Workspaces/Daisy/DaisyExamples/libDaisy/src/util/PersistentStorage.h ****     {
 113:/Users/reza.kalfane/Workspaces/Daisy/DaisyExamples/libDaisy/src/util/PersistentStorage.h ****         State         storage_state;
 114:/Users/reza.kalfane/Workspaces/Daisy/DaisyExamples/libDaisy/src/util/PersistentStorage.h ****         SettingStruct user_data;
 115:/Users/reza.kalfane/Workspaces/Daisy/DaisyExamples/libDaisy/src/util/PersistentStorage.h ****     };
 116:/Users/reza.kalfane/Workspaces/Daisy/DaisyExamples/libDaisy/src/util/PersistentStorage.h **** 
 117:/Users/reza.kalfane/Workspaces/Daisy/DaisyExamples/libDaisy/src/util/PersistentStorage.h ****     void StoreSettingsIfChanged()
 4973              		.loc 7 117 10 view .LVU1650
 4974              	.LBB609:
 118:/Users/reza.kalfane/Workspaces/Daisy/DaisyExamples/libDaisy/src/util/PersistentStorage.h ****     {
 119:/Users/reza.kalfane/Workspaces/Daisy/DaisyExamples/libDaisy/src/util/PersistentStorage.h ****         SaveStruct s;
 120:/Users/reza.kalfane/Workspaces/Daisy/DaisyExamples/libDaisy/src/util/PersistentStorage.h ****         s.storage_state = state_;
 4975              		.loc 7 120 25 is_stmt 0 view .LVU1651
 4976 13aa 0223     		movs	r3, #2
 121:/Users/reza.kalfane/Workspaces/Daisy/DaisyExamples/libDaisy/src/util/PersistentStorage.h ****         s.user_data     = settings_;
 122:/Users/reza.kalfane/Workspaces/Daisy/DaisyExamples/libDaisy/src/util/PersistentStorage.h **** 
 123:/Users/reza.kalfane/Workspaces/Daisy/DaisyExamples/libDaisy/src/util/PersistentStorage.h ****         void *data_ptr = qspi_.GetData(address_offset_);
 4977              		.loc 7 123 39 view .LVU1652
 4978 13ac 0021     		movs	r1, #0
 4979 13ae AD48     		ldr	r0, .L471+20
 121:/Users/reza.kalfane/Workspaces/Daisy/DaisyExamples/libDaisy/src/util/PersistentStorage.h ****         s.user_data     = settings_;
 4980              		.loc 7 121 9 view .LVU1653
 4981 13b0 3E96     		str	r6, [sp, #248]
 120:/Users/reza.kalfane/Workspaces/Daisy/DaisyExamples/libDaisy/src/util/PersistentStorage.h ****         s.user_data     = settings_;
 4982              		.loc 7 120 25 view .LVU1654
 4983 13b2 3D93     		str	r3, [sp, #244]
 4984              		.loc 7 123 39 view .LVU1655
 4985 13b4 FFF7FEFF 		bl	_ZN5daisy10QSPIHandle7GetDataEm
 4986              	.LVL410:
 4987 13b8 0546     		mov	r5, r0
 4988              	.LVL411:
 124:/Users/reza.kalfane/Workspaces/Daisy/DaisyExamples/libDaisy/src/util/PersistentStorage.h **** 
 125:/Users/reza.kalfane/Workspaces/Daisy/DaisyExamples/libDaisy/src/util/PersistentStorage.h **** #if !UNIT_TEST
 126:/Users/reza.kalfane/Workspaces/Daisy/DaisyExamples/libDaisy/src/util/PersistentStorage.h ****         // Caching behavior is different when running programs outside internal flash
 127:/Users/reza.kalfane/Workspaces/Daisy/DaisyExamples/libDaisy/src/util/PersistentStorage.h ****         // so we need to explicitly invalidate the QSPI mapped memory to ensure we are
 128:/Users/reza.kalfane/Workspaces/Daisy/DaisyExamples/libDaisy/src/util/PersistentStorage.h ****         // comparing the local settings with the most recently persisted settings.
 129:/Users/reza.kalfane/Workspaces/Daisy/DaisyExamples/libDaisy/src/util/PersistentStorage.h ****         if(System::GetProgramMemoryRegion()
 4989              		.loc 7 129 42 view .LVU1656
 4990 13ba FFF7FEFF 		bl	_ZN5daisy6System22GetProgramMemoryRegionEv
ARM GAS  /tmp/claude-502/cc09dAcL.s 			page 139


 4991              	.LVL412:
 4992              		.loc 7 129 9 view .LVU1657
 4993 13be 0028     		cmp	r0, #0
 4994 13c0 40F0BD82 		bne	.L451
 4995              	.L77:
 4996              	.LVL413:
 4997              	.LBB610:
 4998              	.LBI610:
  42:src/main.cpp  **** };
 4999              		.loc 6 42 10 is_stmt 1 view .LVU1658
 5000              	.LBB611:
  42:src/main.cpp  **** };
 5001              		.loc 6 42 55 view .LVU1659
  42:src/main.cpp  **** };
 5002              		.loc 6 42 55 is_stmt 0 view .LVU1660
 5003              	.LBE611:
 5004              	.LBE610:
 130:/Users/reza.kalfane/Workspaces/Daisy/DaisyExamples/libDaisy/src/util/PersistentStorage.h ****            != System::MemoryRegion::INTERNAL_FLASH)
 131:/Users/reza.kalfane/Workspaces/Daisy/DaisyExamples/libDaisy/src/util/PersistentStorage.h ****         {
 132:/Users/reza.kalfane/Workspaces/Daisy/DaisyExamples/libDaisy/src/util/PersistentStorage.h ****             dsy_dma_invalidate_cache_for_buffer((uint8_t *)data_ptr, sizeof(s));
 133:/Users/reza.kalfane/Workspaces/Daisy/DaisyExamples/libDaisy/src/util/PersistentStorage.h ****         }
 134:/Users/reza.kalfane/Workspaces/Daisy/DaisyExamples/libDaisy/src/util/PersistentStorage.h **** #endif
 135:/Users/reza.kalfane/Workspaces/Daisy/DaisyExamples/libDaisy/src/util/PersistentStorage.h **** 
 136:/Users/reza.kalfane/Workspaces/Daisy/DaisyExamples/libDaisy/src/util/PersistentStorage.h ****         // Only actually save if the new data is different
 137:/Users/reza.kalfane/Workspaces/Daisy/DaisyExamples/libDaisy/src/util/PersistentStorage.h ****         // Use the `==operator` in custom SettingStruct to fine tune
 138:/Users/reza.kalfane/Workspaces/Daisy/DaisyExamples/libDaisy/src/util/PersistentStorage.h ****         // what may or may not trigger the erase/save.
 139:/Users/reza.kalfane/Workspaces/Daisy/DaisyExamples/libDaisy/src/util/PersistentStorage.h ****         auto storage_data = reinterpret_cast<SaveStruct *>(data_ptr);
 140:/Users/reza.kalfane/Workspaces/Daisy/DaisyExamples/libDaisy/src/util/PersistentStorage.h ****         if(settings_ != storage_data->user_data)
 5005              		.loc 7 140 9 view .LVU1661
 5006 13c4 6B68     		ldr	r3, [r5, #4]
 5007 13c6 9E42     		cmp	r6, r3
 5008 13c8 0AD0     		beq	.L78
 141:/Users/reza.kalfane/Workspaces/Daisy/DaisyExamples/libDaisy/src/util/PersistentStorage.h ****         {
 142:/Users/reza.kalfane/Workspaces/Daisy/DaisyExamples/libDaisy/src/util/PersistentStorage.h ****             qspi_.Erase(address_offset_, address_offset_ + sizeof(s));
 5009              		.loc 7 142 24 view .LVU1662
 5010 13ca 0822     		movs	r2, #8
 5011 13cc 0021     		movs	r1, #0
 5012 13ce A548     		ldr	r0, .L471+20
 5013 13d0 FFF7FEFF 		bl	_ZN5daisy10QSPIHandle5EraseEmm
 5014              	.LVL414:
 143:/Users/reza.kalfane/Workspaces/Daisy/DaisyExamples/libDaisy/src/util/PersistentStorage.h ****             qspi_.Write(address_offset_, sizeof(s), (uint8_t *)&s);
 5015              		.loc 7 143 24 view .LVU1663
 5016 13d4 3DAB     		add	r3, sp, #244
 5017 13d6 0822     		movs	r2, #8
 5018 13d8 0021     		movs	r1, #0
 5019 13da A248     		ldr	r0, .L471+20
 5020 13dc FFF7FEFF 		bl	_ZN5daisy10QSPIHandle5WriteEmmPh
 5021              	.LVL415:
 5022              	.L78:
 5023              		.loc 7 143 24 view .LVU1664
 5024              	.LBE609:
 5025              	.LBE608:
 5026              	.LBE607:
 5027              	.LBB614:
 5028              	.LBB615:
 326:src/main.cpp  ****             hw.dac.WriteValue(DacHandle::Channel::ONE, (uint16_t)LED1_MAX);
 5029              		.loc 6 326 26 is_stmt 1 view .LVU1665
ARM GAS  /tmp/claude-502/cc09dAcL.s 			page 140


 5030 13e0 24B3     		cbz	r4, .L80
 326:src/main.cpp  ****             hw.dac.WriteValue(DacHandle::Channel::ONE, (uint16_t)LED1_MAX);
 5031              		.loc 6 326 17 is_stmt 0 view .LVU1666
 5032 13e2 0025     		movs	r5, #0
 5033              	.LVL416:
 326:src/main.cpp  ****             hw.dac.WriteValue(DacHandle::Channel::ONE, (uint16_t)LED1_MAX);
 5034              		.loc 6 326 17 view .LVU1667
 5035 13e4 0C9E     		ldr	r6, [sp, #48]
 5036              	.LVL417:
 5037              	.L79:
 327:src/main.cpp  ****             hw.dac.WriteValue(DacHandle::Channel::TWO, (uint16_t)LED2_MAX);
 5038              		.loc 6 327 13 is_stmt 1 view .LVU1668
 327:src/main.cpp  ****             hw.dac.WriteValue(DacHandle::Channel::TWO, (uint16_t)LED2_MAX);
 5039              		.loc 6 327 30 is_stmt 0 view .LVU1669
 5040 13e6 40F6FF72 		movw	r2, #4095
 5041 13ea 0021     		movs	r1, #0
 5042 13ec 9E48     		ldr	r0, .L471+24
 326:src/main.cpp  ****             hw.dac.WriteValue(DacHandle::Channel::ONE, (uint16_t)LED1_MAX);
 5043              		.loc 6 326 9 view .LVU1670
 5044 13ee 0135     		adds	r5, r5, #1
 5045              	.LVL418:
 327:src/main.cpp  ****             hw.dac.WriteValue(DacHandle::Channel::TWO, (uint16_t)LED2_MAX);
 5046              		.loc 6 327 30 view .LVU1671
 5047 13f0 FFF7FEFF 		bl	_ZN5daisy9DacHandle10WriteValueENS0_7ChannelEt
 5048              	.LVL419:
 328:src/main.cpp  ****             g_led3_duty = LED3_INTENSITY;
 5049              		.loc 6 328 13 is_stmt 1 view .LVU1672
 328:src/main.cpp  ****             g_led3_duty = LED3_INTENSITY;
 5050              		.loc 6 328 30 is_stmt 0 view .LVU1673
 5051 13f4 40F6FF72 		movw	r2, #4095
 5052 13f8 0121     		movs	r1, #1
 5053 13fa 9B48     		ldr	r0, .L471+24
 5054 13fc FFF7FEFF 		bl	_ZN5daisy9DacHandle10WriteValueENS0_7ChannelEt
 5055              	.LVL420:
 329:src/main.cpp  ****             System::Delay(110);
 5056              		.loc 6 329 13 is_stmt 1 view .LVU1674
 329:src/main.cpp  ****             System::Delay(110);
 5057              		.loc 6 329 25 is_stmt 0 view .LVU1675
 5058 1400 9A4B     		ldr	r3, .L471+28
 330:src/main.cpp  ****             hw.dac.WriteValue(DacHandle::Channel::ONE, 0);
 5059              		.loc 6 330 26 view .LVU1676
 5060 1402 6E20     		movs	r0, #110
 329:src/main.cpp  ****             System::Delay(110);
 5061              		.loc 6 329 25 view .LVU1677
 5062 1404 3360     		str	r3, [r6]	@ float
 330:src/main.cpp  ****             hw.dac.WriteValue(DacHandle::Channel::ONE, 0);
 5063              		.loc 6 330 13 is_stmt 1 view .LVU1678
 330:src/main.cpp  ****             hw.dac.WriteValue(DacHandle::Channel::ONE, 0);
 5064              		.loc 6 330 26 is_stmt 0 view .LVU1679
 5065 1406 FFF7FEFF 		bl	_ZN5daisy6System5DelayEm
 5066              	.LVL421:
 331:src/main.cpp  ****             hw.dac.WriteValue(DacHandle::Channel::TWO, 0);
 5067              		.loc 6 331 13 is_stmt 1 view .LVU1680
 331:src/main.cpp  ****             hw.dac.WriteValue(DacHandle::Channel::TWO, 0);
 5068              		.loc 6 331 30 is_stmt 0 view .LVU1681
 5069 140a 0022     		movs	r2, #0
 5070 140c 9648     		ldr	r0, .L471+24
ARM GAS  /tmp/claude-502/cc09dAcL.s 			page 141


 5071 140e 1146     		mov	r1, r2
 5072 1410 FFF7FEFF 		bl	_ZN5daisy9DacHandle10WriteValueENS0_7ChannelEt
 5073              	.LVL422:
 332:src/main.cpp  ****             g_led3_duty = 0.0f;
 5074              		.loc 6 332 13 is_stmt 1 view .LVU1682
 332:src/main.cpp  ****             g_led3_duty = 0.0f;
 5075              		.loc 6 332 30 is_stmt 0 view .LVU1683
 5076 1414 0022     		movs	r2, #0
 5077 1416 0121     		movs	r1, #1
 5078 1418 9348     		ldr	r0, .L471+24
 5079 141a FFF7FEFF 		bl	_ZN5daisy9DacHandle10WriteValueENS0_7ChannelEt
 5080              	.LVL423:
 333:src/main.cpp  ****             System::Delay(140);
 5081              		.loc 6 333 13 is_stmt 1 view .LVU1684
 333:src/main.cpp  ****             System::Delay(140);
 5082              		.loc 6 333 25 is_stmt 0 view .LVU1685
 5083 141e 0023     		movs	r3, #0
 334:src/main.cpp  ****         }
 5084              		.loc 6 334 26 view .LVU1686
 5085 1420 8C20     		movs	r0, #140
 333:src/main.cpp  ****             System::Delay(140);
 5086              		.loc 6 333 25 view .LVU1687
 5087 1422 3360     		str	r3, [r6]	@ float
 334:src/main.cpp  ****         }
 5088              		.loc 6 334 13 is_stmt 1 view .LVU1688
 334:src/main.cpp  ****         }
 5089              		.loc 6 334 26 is_stmt 0 view .LVU1689
 5090 1424 FFF7FEFF 		bl	_ZN5daisy6System5DelayEm
 5091              	.LVL424:
 326:src/main.cpp  ****             hw.dac.WriteValue(DacHandle::Channel::ONE, (uint16_t)LED1_MAX);
 5092              		.loc 6 326 9 is_stmt 1 view .LVU1690
 326:src/main.cpp  ****             hw.dac.WriteValue(DacHandle::Channel::ONE, (uint16_t)LED1_MAX);
 5093              		.loc 6 326 26 view .LVU1691
 5094 1428 AC42     		cmp	r4, r5
 5095 142a DCD1     		bne	.L79
 5096              	.LVL425:
 5097              	.L80:
 326:src/main.cpp  ****             hw.dac.WriteValue(DacHandle::Channel::ONE, (uint16_t)LED1_MAX);
 5098              		.loc 6 326 26 is_stmt 0 view .LVU1692
 5099              	.LBE615:
 5100              	.LBE614:
 418:src/main.cpp  ****             }
 5101              		.loc 6 418 17 is_stmt 1 view .LVU1693
 418:src/main.cpp  ****             }
 5102              		.loc 6 418 49 is_stmt 0 view .LVU1694
 5103 142c FFF7FEFF 		bl	_ZN5daisy6System6GetNowEv
 5104              	.LVL426:
 418:src/main.cpp  ****             }
 5105              		.loc 6 418 33 view .LVU1695
 5106 1430 00F5FA63 		add	r3, r0, #2000
 5107 1434 1693     		str	r3, [sp, #88]
 5108              	.LVL427:
 418:src/main.cpp  ****             }
 5109              		.loc 6 418 33 view .LVU1696
 5110              	.LBE584:
 5111              	.LBE583:
 408:src/main.cpp  ****             if((int32_t)(now - fsr_next_switch) >= 0){
ARM GAS  /tmp/claude-502/cc09dAcL.s 			page 142


 5112              		.loc 6 408 27 view .LVU1697
 5113 1436 0A9B     		ldr	r3, [sp, #40]
 5114              	.LVL428:
 408:src/main.cpp  ****             if((int32_t)(now - fsr_next_switch) >= 0){
 5115              		.loc 6 408 27 view .LVU1698
 5116 1438 0B93     		str	r3, [sp, #44]
 5117              	.LBB619:
 5118 143a FEF783BF 		b	.L68
 5119              	.LVL429:
 5120              	.L285:
 408:src/main.cpp  ****             if((int32_t)(now - fsr_next_switch) >= 0){
 5121              		.loc 6 408 27 view .LVU1699
 5122              	.LBE619:
 5123              	.LBE621:
 5124              	.LBE1027:
 5125              	.LBB1028:
 5126              	.LBB883:
 5127              	.LBB871:
 5128              	.LBB818:
 5129 143e FFEE085A 		vmov.f32	s11, #-1.5e+0
 5130 1442 FFF7A4BA 		b	.L183
 5131              	.LVL430:
 5132              	.L287:
 408:src/main.cpp  ****             if((int32_t)(now - fsr_next_switch) >= 0){
 5133              		.loc 6 408 27 view .LVU1700
 5134              	.LBE818:
 5135              	.LBE871:
 5136              	.LBB872:
 5137              	.LBB822:
 5138              		.loc 9 13 16 view .LVU1701
 5139 1446 DFED8A7A 		vldr.32	s15, .L471+32
 5140 144a FFF7B8BA 		b	.L184
 5141              	.LVL431:
 5142              	.L436:
 5143              		.loc 9 13 16 view .LVU1702
 5144              	.LBE822:
 5145              	.LBE872:
 5146              	.LBE883:
 5147              	.LBE1028:
 5148              	.LBB1029:
 5149              	.LBB772:
 599:src/main.cpp  ****             float cutoff   = clampf(track_freq * VOICE.cutoff_mult * oct_mult, 20.0f, 18000.0f);
 5150              		.loc 6 599 40 discriminator 2 view .LVU1703
 5151 144e 8CEE0B0A 		vdiv.f32	s0, s24, s22
 5152 1452 FFF7FEFF 		bl	powf
 5153              	.LVL432:
 598:src/main.cpp  ****                 : VOICE.freq_low * powf(freq / VOICE.freq_low, VOICE.keytrack);
 5154              		.loc 6 598 17 discriminator 2 view .LVU1704
 5155 1456 2BEE00BA 		vmul.f32	s22, s22, s0
 5156 145a FFF707B9 		b	.L146
 5157              	.LVL433:
 5158              	.L433:
 598:src/main.cpp  ****                 : VOICE.freq_low * powf(freq / VOICE.freq_low, VOICE.keytrack);
 5159              		.loc 6 598 17 discriminator 2 view .LVU1705
 5160 145e 854E     		ldr	r6, .L471+36
 5161              	.LBE772:
 5162              	.LBE1029:
ARM GAS  /tmp/claude-502/cc09dAcL.s 			page 143


 5163              	.LBB1030:
 508:src/main.cpp  ****             // Poly drums: each finger drives its own slot.
 5164              		.loc 6 508 9 view .LVU1706
 5165 1460 A0F15007 		sub	r7, r0, #80
 5166              	.LBB653:
 5167              	.LBB654:
 510:src/main.cpp  ****                 if(reatk[i])                                  trigger_drum(i, tracked[i].pos, track
 5168              		.loc 6 510 21 view .LVU1707
 5169 1464 0025     		movs	r5, #0
 5170 1466 DDF84880 		ldr	r8, [sp, #72]
 5171 146a 0594     		str	r4, [sp, #20]
 5172              	.LVL434:
 5173              	.L135:
 511:src/main.cpp  ****                 else if(!deb_alive[i] && hit_was_alive[i])    g_hits[i].gate = false;  // lifted ‚Ü
 5174              		.loc 6 511 17 is_stmt 1 view .LVU1708
 511:src/main.cpp  ****                 else if(!deb_alive[i] && hit_was_alive[i])    g_hits[i].gate = false;  // lifted ‚Ü
 5175              		.loc 6 511 27 is_stmt 0 view .LVU1709
 5176 146c 18F8013B 		ldrb	r3, [r8], #1	@ zero_extendqisi2
 511:src/main.cpp  ****                 else if(!deb_alive[i] && hit_was_alive[i])    g_hits[i].gate = false;  // lifted ‚Ü
 5177              		.loc 6 511 17 view .LVU1710
 5178 1470 73BB     		cbnz	r3, .L452
 512:src/main.cpp  ****             }
 5179              		.loc 6 512 22 is_stmt 1 view .LVU1711
 5180 1472 3DAB     		add	r3, sp, #244
 5181 1474 5B5D     		ldrb	r3, [r3, r5]	@ zero_extendqisi2
 5182 1476 1BB9     		cbnz	r3, .L134
 512:src/main.cpp  ****             }
 5183              		.loc 6 512 39 is_stmt 0 discriminator 1 view .LVU1712
 5184 1478 19AA     		add	r2, sp, #100
 5185 147a 525D     		ldrb	r2, [r2, r5]	@ zero_extendqisi2
 5186 147c 02B1     		cbz	r2, .L134
 512:src/main.cpp  ****             }
 5187              		.loc 6 512 63 is_stmt 1 discriminator 2 view .LVU1713
 512:src/main.cpp  ****             }
 5188              		.loc 6 512 78 is_stmt 0 discriminator 2 view .LVU1714
 5189 147e 7370     		strb	r3, [r6, #1]
 5190              	.L134:
 510:src/main.cpp  ****                 if(reatk[i])                                  trigger_drum(i, tracked[i].pos, track
 5191              		.loc 6 510 13 is_stmt 1 discriminator 2 view .LVU1715
 5192 1480 0135     		adds	r5, r5, #1
 5193              	.LVL435:
 510:src/main.cpp  ****                 if(reatk[i])                                  trigger_drum(i, tracked[i].pos, track
 5194              		.loc 6 510 30 discriminator 2 view .LVU1716
 5195 1482 4C36     		adds	r6, r6, #76
 5196 1484 1437     		adds	r7, r7, #20
 5197 1486 042D     		cmp	r5, #4
 5198 1488 F0D1     		bne	.L135
 5199              	.LBE654:
 514:src/main.cpp  ****         } else {
 5200              		.loc 6 514 13 view .LVU1717
 514:src/main.cpp  ****         } else {
 5201              		.loc 6 514 26 is_stmt 0 view .LVU1718
 5202 148a 7B4B     		ldr	r3, .L471+40
 5203 148c DFED787A 		vldr.32	s15, .L471+32
 5204 1490 059C     		ldr	r4, [sp, #20]
 5205 1492 C3ED007A 		vstr.32	s15, [r3]
 5206              	.LVL436:
ARM GAS  /tmp/claude-502/cc09dAcL.s 			page 144


 514:src/main.cpp  ****         } else {
 5207              		.loc 6 514 26 view .LVU1719
 5208              	.LBE653:
 5209              	.LBE1030:
 5210              	.LBB1031:
 521:src/main.cpp  **** 
 5211              		.loc 6 521 26 is_stmt 1 view .LVU1720
 521:src/main.cpp  **** 
 5212              		.loc 6 521 46 view .LVU1721
 521:src/main.cpp  **** 
 5213              		.loc 6 521 63 is_stmt 0 view .LVU1722
 5214 1496 9DF8F430 		ldrb	r3, [sp, #244]	@ zero_extendqisi2
 5215 149a 8DF86430 		strb	r3, [sp, #100]
 521:src/main.cpp  **** 
 5216              		.loc 6 521 9 is_stmt 1 view .LVU1723
 5217              	.LVL437:
 521:src/main.cpp  **** 
 5218              		.loc 6 521 26 view .LVU1724
 521:src/main.cpp  **** 
 5219              		.loc 6 521 46 view .LVU1725
 521:src/main.cpp  **** 
 5220              		.loc 6 521 63 is_stmt 0 view .LVU1726
 5221 149e 9DF8F530 		ldrb	r3, [sp, #245]	@ zero_extendqisi2
 5222 14a2 8DF86530 		strb	r3, [sp, #101]
 521:src/main.cpp  **** 
 5223              		.loc 6 521 9 is_stmt 1 view .LVU1727
 5224              	.LVL438:
 521:src/main.cpp  **** 
 5225              		.loc 6 521 26 view .LVU1728
 521:src/main.cpp  **** 
 5226              		.loc 6 521 46 view .LVU1729
 521:src/main.cpp  **** 
 5227              		.loc 6 521 63 is_stmt 0 view .LVU1730
 5228 14a6 9DF8F630 		ldrb	r3, [sp, #246]	@ zero_extendqisi2
 5229 14aa 8DF86630 		strb	r3, [sp, #102]
 521:src/main.cpp  **** 
 5230              		.loc 6 521 9 is_stmt 1 view .LVU1731
 5231              	.LVL439:
 521:src/main.cpp  **** 
 5232              		.loc 6 521 26 view .LVU1732
 521:src/main.cpp  **** 
 5233              		.loc 6 521 46 view .LVU1733
 521:src/main.cpp  **** 
 5234              		.loc 6 521 63 is_stmt 0 view .LVU1734
 5235 14ae 9DF8F730 		ldrb	r3, [sp, #247]	@ zero_extendqisi2
 5236 14b2 8DF86730 		strb	r3, [sp, #103]
 521:src/main.cpp  **** 
 5237              		.loc 6 521 9 is_stmt 1 view .LVU1735
 5238              	.LVL440:
 521:src/main.cpp  **** 
 5239              		.loc 6 521 26 view .LVU1736
 5240              	.LBE1031:
 524:src/main.cpp  **** 
 5241              		.loc 6 524 9 view .LVU1737
 524:src/main.cpp  **** 
 5242              		.loc 6 524 37 is_stmt 0 view .LVU1738
 5243 14b6 714B     		ldr	r3, .L471+44
ARM GAS  /tmp/claude-502/cc09dAcL.s 			page 145


 5244 14b8 1D68     		ldr	r5, [r3]
 5245              	.LVL441:
 526:src/main.cpp  ****         {
 5246              		.loc 6 526 9 is_stmt 1 view .LVU1739
 645:src/main.cpp  ****         if(f1_on) {
 5247              		.loc 6 645 9 view .LVU1740
 646:src/main.cpp  ****             float p01      = clampf((float)tracked[0].pos / 1000.0f, 0.0f, 1.0f);
 5248              		.loc 6 646 9 view .LVU1741
 5249              	.LBB1032:
 5250 14ba 079B     		ldr	r3, [sp, #28]
 5251 14bc 002B     		cmp	r3, #0
 5252 14be 7FF45BA9 		bne	.L136
 5253 14c2 F0EE676A 		vmov.f32	s13, s15
 5254              	.LBE1032:
 5255              	.LBB1033:
 5256              	.LBB809:
 664:src/main.cpp  ****             s_led1 = s_led1 * LED_SMOOTH + led1_target * (1.0f - LED_SMOOTH);
 5257              		.loc 6 664 35 is_stmt 0 view .LVU1742
 5258 14c6 DFED6E5A 		vldr.32	s11, .L471+48
 5259              	.LBE809:
 5260              	.LBE1033:
 5261              	.LBB1034:
 5262 14ca B0EE677A 		vmov.f32	s14, s15
 5263 14ce 62E6     		b	.L137
 5264              	.LVL442:
 5265              	.L452:
 664:src/main.cpp  ****             s_led1 = s_led1 * LED_SMOOTH + led1_target * (1.0f - LED_SMOOTH);
 5266              		.loc 6 664 35 view .LVU1743
 5267              	.LBE1034:
 5268              	.LBB1035:
 5269              	.LBB692:
 5270              	.LBB686:
 511:src/main.cpp  ****                 else if(!deb_alive[i] && hit_was_alive[i])    g_hits[i].gate = false;  // lifted ‚Ü
 5271              		.loc 6 511 63 is_stmt 1 discriminator 1 view .LVU1744
 5272              	.LBB655:
 5273              	.LBI655:
 357:src/main.cpp  ****         float p    = clampf((float)pos / 1000.0f, 0.0f, 1.0f);
 5274              		.loc 6 357 25 discriminator 1 view .LVU1745
 5275              	.LBB656:
 5276              	.LBB657:
 358:src/main.cpp  ****         int   zone = (int)(p * 4.0f); if(zone > 3) zone = 3;
 5277              		.loc 6 358 9 discriminator 1 view .LVU1746
 358:src/main.cpp  ****         int   zone = (int)(p * 4.0f); if(zone > 3) zone = 3;
 5278              		.loc 6 358 29 is_stmt 0 discriminator 1 view .LVU1747
 5279 14d0 D7ED017A 		vldr.32	s15, [r7, #4]	@ int
 358:src/main.cpp  ****         int   zone = (int)(p * 4.0f); if(zone > 3) zone = 3;
 5280              		.loc 6 358 28 discriminator 1 view .LVU1748
 5281 14d4 DFED6B6A 		vldr.32	s13, .L471+52
 358:src/main.cpp  ****         int   zone = (int)(p * 4.0f); if(zone > 3) zone = 3;
 5282              		.loc 6 358 29 discriminator 1 view .LVU1749
 5283 14d8 B8EEE77A 		vcvt.f32.s32	s14, s15
 358:src/main.cpp  ****         int   zone = (int)(p * 4.0f); if(zone > 3) zone = 3;
 5284              		.loc 6 358 28 discriminator 1 view .LVU1750
 5285 14dc C7EE267A 		vdiv.f32	s15, s14, s13
 5286              	.LVL443:
 5287              	.LBB658:
 5288              	.LBI658:
ARM GAS  /tmp/claude-502/cc09dAcL.s 			page 146


  12:src/dsp.h     ****     return v<lo?lo:v>hi?hi:v;
 5289              		.loc 9 12 21 is_stmt 1 discriminator 1 view .LVU1751
 5290              	.LBB659:
 5291              		.loc 9 13 5 discriminator 1 view .LVU1752
 5292              		.loc 9 13 16 is_stmt 0 discriminator 1 view .LVU1753
 5293 14e0 F5EEC07A 		vcmpe.f32	s15, #0
 5294 14e4 F1EE10FA 		vmrs	APSR_nzcv, FPSCR
 5295 14e8 00F1B081 		bmi	.L260
 5296              		.loc 9 13 24 view .LVU1754
 5297 14ec B7EE00BA 		vmov.f32	s22, #1.0e+0
 5298 14f0 F4EECB7A 		vcmpe.f32	s15, s22
 5299 14f4 F1EE10FA 		vmrs	APSR_nzcv, FPSCR
 5300 14f8 50DD     		ble	.L453
 5301 14fa B3EE09DA 		vmov.f32	s26, #2.5e+1
 5302 14fe 9FED62CA 		vldr.32	s24, .L471+56
 5303 1502 DFED620A 		vldr.32	s1, .L471+60
 5304 1506 0B24     		movs	r4, #11
 5305 1508 DFED61CA 		vldr.32	s25, .L471+64
 5306 150c DFED61DA 		vldr.32	s27, .L471+68
 5307              	.L131:
 5308              	.LVL444:
 5309              		.loc 9 13 24 view .LVU1755
 5310              	.LBE659:
 5311              	.LBE658:
 359:src/main.cpp  ****         int   vidx = MULTI_ZONES[zone];
 5312              		.loc 6 359 9 is_stmt 1 view .LVU1756
 359:src/main.cpp  ****         int   vidx = MULTI_ZONES[zone];
 5313              		.loc 6 359 39 view .LVU1757
 360:src/main.cpp  ****         const Voice& V = VOICES[vidx];
 5314              		.loc 6 360 9 view .LVU1758
 361:src/main.cpp  ****         float subp = p * 4.0f - (float)zone;
 5315              		.loc 6 361 9 view .LVU1759
 362:src/main.cpp  ****         int   step = (int)(subp * (float)MULTI_NINTERVALS);
 5316              		.loc 6 362 9 view .LVU1760
 363:src/main.cpp  ****         if(step >= MULTI_NINTERVALS) step = MULTI_NINTERVALS - 1;
 5317              		.loc 6 363 9 view .LVU1761
 364:src/main.cpp  ****         float freq = V.freq_low * MULTI_INTERVALS[step];
 5318              		.loc 6 364 9 view .LVU1762
 365:src/main.cpp  ****         float v    = FIX_DRUM ? 1.0f : clampf((float)pressure / 100.0f, 0.0f, 1.0f);
 5319              		.loc 6 365 9 view .LVU1763
 366:src/main.cpp  ****         float amp  = 0.72f * ((1.0f - V.vel_sens) + V.vel_sens * v);
 5320              		.loc 6 366 9 view .LVU1764
 367:src/main.cpp  ****         // Cutoff from velocity, same curve as the mono path.
 5321              		.loc 6 367 9 view .LVU1765
 369:src/main.cpp  ****         float oa = cutoff_oct * 0.6931f;
 5322              		.loc 6 369 9 view .LVU1766
 369:src/main.cpp  ****         float oa = cutoff_oct * 0.6931f;
 5323              		.loc 6 369 9 is_stmt 0 view .LVU1767
 5324              	.LBE657:
 5325              	.LBE656:
 5326              	.LBE655:
 5327              	.LBE686:
 5328              	.LBE692:
 5329              	.LBE1035:
 5330              	.LBE1075:
  14:src/dsp.h     **** }
  15:src/dsp.h     **** static inline float smoothstep_f(float x){
ARM GAS  /tmp/claude-502/cc09dAcL.s 			page 147


  16:src/dsp.h     ****     x = x<0?0:x>1?1:x; return x*x*(3.0f - 2.0f*x);
  17:src/dsp.h     **** }
  18:src/dsp.h     **** static inline float smootherstep_f(float x){
  19:src/dsp.h     ****     x = x<0?0:x>1?1:x; return x*x*x*(x*(x*6.0f - 15.0f) + 10.0f);
 5331              		.loc 9 19 5 is_stmt 1 view .LVU1768
 5332              		.loc 9 19 24 view .LVU1769
 5333              	.LBB1076:
 5334              	.LBB1036:
 5335              	.LBB693:
 5336              	.LBB687:
 5337              	.LBB680:
 5338              	.LBB674:
 5339              	.LBB668:
 370:src/main.cpp  ****         float om = 1.0f + oa*(1.0f + oa*(0.5f + oa*(0.1667f + oa*0.0417f)));
 5340              		.loc 6 370 9 view .LVU1770
 371:src/main.cpp  ****         float tf = (V.keytrack >= 0.999f) ? freq
 5341              		.loc 6 371 9 view .LVU1771
 372:src/main.cpp  ****                    : V.freq_low * powf(freq / V.freq_low, V.keytrack);
 5342              		.loc 6 372 9 view .LVU1772
 5343              	.LBE668:
 5344              	.LBE674:
 5345              	.LBE680:
 510:src/main.cpp  ****                 if(reatk[i])                                  trigger_drum(i, tracked[i].pos, track
 5346              		.loc 6 510 21 is_stmt 0 view .LVU1773
 5347 1510 9FED61BA 		vldr.32	s22, .L471+72
 5348 1514 DFED61BA 		vldr.32	s23, .L471+76
 5349              	.L245:
 5350              	.LBB681:
 5351              	.LBB675:
 5352              	.LBB669:
 373:src/main.cpp  ****         float cutoff = clampf(tf * V.cutoff_mult * om, 20.0f, 18000.0f);
 5353              		.loc 6 373 39 view .LVU1774
 5354 1518 8CEEAD0A 		vdiv.f32	s0, s25, s27
 5355 151c FFF7FEFF 		bl	powf
 5356              	.LVL445:
 372:src/main.cpp  ****                    : V.freq_low * powf(freq / V.freq_low, V.keytrack);
 5357              		.loc 6 372 43 view .LVU1775
 5358 1520 20EE2D0A 		vmul.f32	s0, s0, s27
 5359              	.L132:
 5360              	.LVL446:
 374:src/main.cpp  ****         float drive  = 1.0f + smoothstep_f(v) * V.drive_max;
 5361              		.loc 6 374 9 is_stmt 1 view .LVU1776
 374:src/main.cpp  ****         float drive  = 1.0f + smoothstep_f(v) * V.drive_max;
 5362              		.loc 6 374 34 is_stmt 0 view .LVU1777
 5363 1524 20EE0D0A 		vmul.f32	s0, s0, s26
 5364              	.LVL447:
 5365              	.LBB661:
 5366              	.LBB662:
  13:src/dsp.h     **** }
 5367              		.loc 9 13 16 view .LVU1778
 5368 1528 F3EE047A 		vmov.f32	s15, #2.0e+1
 5369              	.LBE662:
 5370              	.LBE661:
 374:src/main.cpp  ****         float drive  = 1.0f + smoothstep_f(v) * V.drive_max;
 5371              		.loc 6 374 30 view .LVU1779
 5372 152c 20EE0BBA 		vmul.f32	s22, s0, s22
 5373              	.LVL448:
ARM GAS  /tmp/claude-502/cc09dAcL.s 			page 148


 5374              	.LBB665:
 5375              	.LBI661:
  12:src/dsp.h     ****     return v<lo?lo:v>hi?hi:v;
 5376              		.loc 9 12 21 is_stmt 1 view .LVU1780
 5377              	.LBB663:
  13:src/dsp.h     **** }
 5378              		.loc 9 13 5 view .LVU1781
  13:src/dsp.h     **** }
 5379              		.loc 9 13 16 is_stmt 0 view .LVU1782
 5380 1530 B4EEE7BA 		vcmpe.f32	s22, s15
 5381 1534 F1EE10FA 		vmrs	APSR_nzcv, FPSCR
 5382 1538 00F19481 		bmi	.L263
  13:src/dsp.h     **** }
 5383              		.loc 9 13 24 view .LVU1783
 5384 153c DFED587A 		vldr.32	s15, .L471+80
 5385 1540 B4EE67BA 		vcmp.f32	s22, s15
 5386 1544 F1EE10FA 		vmrs	APSR_nzcv, FPSCR
 5387 1548 37FE8BBA 		vselgt.f32	s22, s15, s22
 5388              	.LVL449:
 5389              	.L133:
  13:src/dsp.h     **** }
 5390              		.loc 9 13 24 view .LVU1784
 5391              	.LBE663:
 5392              	.LBE665:
 375:src/main.cpp  ****         drum_trigger(g_hits[s], vidx, freq, amp, cutoff, drive, hw.AudioSampleRate());
 5393              		.loc 6 375 9 is_stmt 1 view .LVU1785
 375:src/main.cpp  ****         drum_trigger(g_hits[s], vidx, freq, amp, cutoff, drive, hw.AudioSampleRate());
 5394              		.loc 6 375 9 is_stmt 0 view .LVU1786
 5395              	.LBE669:
 5396              	.LBE675:
 5397              	.LBE681:
 5398              	.LBE687:
 5399              	.LBE693:
 5400              	.LBE1036:
 5401              	.LBE1076:
  16:src/dsp.h     **** }
 5402              		.loc 9 16 5 is_stmt 1 view .LVU1787
  16:src/dsp.h     **** }
 5403              		.loc 9 16 24 view .LVU1788
 5404              	.LBB1077:
 5405              	.LBB1037:
 5406              	.LBB694:
 5407              	.LBB688:
 5408              	.LBB682:
 5409              	.LBB676:
 5410              	.LBB670:
 376:src/main.cpp  ****         g_active_voice = vidx;   // header shows the last-hit drum
 5411              		.loc 6 376 9 view .LVU1789
 376:src/main.cpp  ****         g_active_voice = vidx;   // header shows the last-hit drum
 5412              		.loc 6 376 21 is_stmt 0 view .LVU1790
 5413 154c 4548     		ldr	r0, .L471+20
 5414 154e FFF7FEFF 		bl	_ZN5daisy9DaisySeed15AudioSampleRateEv
 5415              	.LVL450:
 375:src/main.cpp  ****         drum_trigger(g_hits[s], vidx, freq, amp, cutoff, drive, hw.AudioSampleRate());
 5416              		.loc 6 375 51 view .LVU1791
 5417 1552 F7EE001A 		vmov.f32	s3, #1.0e+0
 376:src/main.cpp  ****         g_active_voice = vidx;   // header shows the last-hit drum
ARM GAS  /tmp/claude-502/cc09dAcL.s 			page 149


 5418              		.loc 6 376 21 view .LVU1792
 5419 1556 B0EE402A 		vmov.f32	s4, s0
 5420 155a 2146     		mov	r1, r4
 5421 155c F0EE6B0A 		vmov.f32	s1, s23
 5422 1560 3046     		mov	r0, r6
 5423 1562 B0EE4B1A 		vmov.f32	s2, s22
 5424 1566 B0EE6C0A 		vmov.f32	s0, s25
 5425 156a 7CEE211A 		vadd.f32	s3, s24, s3
 5426              	.LVL451:
 376:src/main.cpp  ****         g_active_voice = vidx;   // header shows the last-hit drum
 5427              		.loc 6 376 21 view .LVU1793
 5428 156e FFF7FEFF 		bl	_Z12drum_triggerR7DrumHitifffff
 5429              	.LVL452:
 377:src/main.cpp  ****     };
 5430              		.loc 6 377 9 is_stmt 1 view .LVU1794
 377:src/main.cpp  ****     };
 5431              		.loc 6 377 24 is_stmt 0 view .LVU1795
 5432 1572 424B     		ldr	r3, .L471+44
 5433 1574 1C60     		str	r4, [r3]
 5434              	.LBE670:
 378:src/main.cpp  **** 
 5435              		.loc 6 378 5 view .LVU1796
 5436 1576 83E7     		b	.L134
 5437              	.LVL453:
 5438              	.L297:
 378:src/main.cpp  **** 
 5439              		.loc 6 378 5 view .LVU1797
 5440              	.LBE676:
 5441              	.LBE682:
 5442              	.LBE688:
 5443              	.LBE694:
 5444              	.LBE1037:
 5445              	.LBB1038:
 5446              	.LBB930:
 738:src/main.cpp  ****             for(int s=0;s<2;s++)
 5447              		.loc 6 738 18 view .LVU1798
 5448 1578 2023     		movs	r3, #32
 5449 157a FFF711BB 		b	.L213
 5450              	.LVL454:
 5451              	.L295:
 5452              	.LBB927:
 5453              	.LBB916:
 738:src/main.cpp  ****             for(int s=0;s<2;s++)
 5454              		.loc 6 738 18 view .LVU1799
 5455 157e 0020     		movs	r0, #0
 5456 1580 FFF7EABA 		b	.L210
 5457              	.LVL455:
 5458              	.L303:
 738:src/main.cpp  ****             for(int s=0;s<2;s++)
 5459              		.loc 6 738 18 view .LVU1800
 5460              	.LBE916:
 5461              	.LBE927:
 5462              	.LBE930:
 5463              	.LBE1038:
 5464              	.LBB1039:
 749:src/main.cpp  ****                 make_bar(bar,tracked[slot].pressure,100,16);
 5465              		.loc 6 749 13 view .LVU1801
ARM GAS  /tmp/claude-502/cc09dAcL.s 			page 150


 5466 1584 98F80030 		ldrb	r3, [r8]	@ zero_extendqisi2
 5467 1588 0226     		movs	r6, #2
 5468              	.LVL456:
 749:src/main.cpp  ****                 make_bar(bar,tracked[slot].pressure,100,16);
 5469              		.loc 6 749 13 is_stmt 1 view .LVU1802
 5470 158a 002B     		cmp	r3, #0
 5471 158c 7FF45EAB 		bne	.L454
 5472              	.LVL457:
 5473              	.L220:
 754:src/main.cpp  ****             }
 5474              		.loc 6 754 17 view .LVU1803
 5475              	.LBB962:
 5476              	.LBI962:
 126:/Users/reza.kalfane/Workspaces/Daisy/DaisyExamples/libDaisy/src/daisy_seed.h ****     {
 5477              		.loc 1 126 17 view .LVU1804
 5478              	.LBB963:
 128:/Users/reza.kalfane/Workspaces/Daisy/DaisyExamples/libDaisy/src/daisy_seed.h ****     }
 5479              		.loc 1 128 23 is_stmt 0 view .LVU1805
 5480 1590 3146     		mov	r1, r6
 5481 1592 4448     		ldr	r0, .L471+84
 5482 1594 FFF7FEFF 		bl	_ZN5daisy6LoggerILNS_17LoggerDestinationE1EE9PrintLineEPKcz
 5483              	.LVL458:
 129:/Users/reza.kalfane/Workspaces/Daisy/DaisyExamples/libDaisy/src/daisy_seed.h **** 
 5484              		.loc 1 129 5 view .LVU1806
 5485 1598 FFF7AABB 		b	.L224
 5486              	.LVL459:
 5487              	.L453:
 129:/Users/reza.kalfane/Workspaces/Daisy/DaisyExamples/libDaisy/src/daisy_seed.h **** 
 5488              		.loc 1 129 5 view .LVU1807
 5489              	.LBE963:
 5490              	.LBE962:
 5491              	.LBE1039:
 5492              	.LBB1040:
 5493              	.LBB695:
 5494              	.LBB689:
 5495              	.LBB683:
 5496              	.LBB677:
 5497              	.LBB671:
 359:src/main.cpp  ****         int   vidx = MULTI_ZONES[zone];
 5498              		.loc 6 359 30 view .LVU1808
 5499 159c B1EE007A 		vmov.f32	s14, #4.0e+0
 360:src/main.cpp  ****         const Voice& V = VOICES[vidx];
 5500              		.loc 6 360 15 view .LVU1809
 5501 15a0 4149     		ldr	r1, .L471+88
 365:src/main.cpp  ****         float v    = FIX_DRUM ? 1.0f : clampf((float)pressure / 100.0f, 0.0f, 1.0f);
 5502              		.loc 6 365 24 view .LVU1810
 5503 15a2 8C23     		movs	r3, #140
 370:src/main.cpp  ****         float om = 1.0f + oa*(1.0f + oa*(0.5f + oa*(0.1667f + oa*0.0417f)));
 5504              		.loc 6 370 15 view .LVU1811
 5505 15a4 DFED413A 		vldr.32	s7, .L471+92
 371:src/main.cpp  ****         float tf = (V.keytrack >= 0.999f) ? freq
 5506              		.loc 6 371 61 view .LVU1812
 5507 15a8 9FED414A 		vldr.32	s8, .L471+96
 371:src/main.cpp  ****         float tf = (V.keytrack >= 0.999f) ? freq
 5508              		.loc 6 371 47 view .LVU1813
 5509 15ac F6EE006A 		vmov.f32	s13, #5.0e-1
 359:src/main.cpp  ****         int   vidx = MULTI_ZONES[zone];
ARM GAS  /tmp/claude-502/cc09dAcL.s 			page 151


 5510              		.loc 6 359 30 view .LVU1814
 5511 15b0 67EE877A 		vmul.f32	s15, s15, s14
 5512              	.LVL460:
 371:src/main.cpp  ****         float tf = (V.keytrack >= 0.999f) ? freq
 5513              		.loc 6 371 61 view .LVU1815
 5514 15b4 9FED3F6A 		vldr.32	s12, .L471+100
 372:src/main.cpp  ****                    : V.freq_low * powf(freq / V.freq_low, V.keytrack);
 5515              		.loc 6 372 43 view .LVU1816
 5516 15b8 9FED3F5A 		vldr.32	s10, .L471+104
 367:src/main.cpp  ****         // Cutoff from velocity, same curve as the mono path.
 5517              		.loc 6 367 15 view .LVU1817
 5518 15bc DFED374A 		vldr.32	s9, .L471+76
 359:src/main.cpp  ****         int   vidx = MULTI_ZONES[zone];
 5519              		.loc 6 359 15 view .LVU1818
 5520 15c0 BDEEE77A 		vcvt.s32.f32	s14, s15
 5521 15c4 17EE102A 		vmov	r2, s14	@ int
 5522 15c8 032A     		cmp	r2, #3
 5523 15ca A8BF     		it	ge
 5524 15cc 0322     		movge	r2, #3
 362:src/main.cpp  ****         int   step = (int)(subp * (float)MULTI_NINTERVALS);
 5525              		.loc 6 362 33 view .LVU1819
 5526 15ce 07EE102A 		vmov	s14, r2	@ int
 360:src/main.cpp  ****         const Voice& V = VOICES[vidx];
 5527              		.loc 6 360 15 view .LVU1820
 5528 15d2 51F82240 		ldr	r4, [r1, r2, lsl #2]
 365:src/main.cpp  ****         float v    = FIX_DRUM ? 1.0f : clampf((float)pressure / 100.0f, 0.0f, 1.0f);
 5529              		.loc 6 365 55 view .LVU1821
 5530 15d6 394A     		ldr	r2, .L471+108
 362:src/main.cpp  ****         int   step = (int)(subp * (float)MULTI_NINTERVALS);
 5531              		.loc 6 362 33 view .LVU1822
 5532 15d8 B8EEC77A 		vcvt.f32.s32	s14, s14
 365:src/main.cpp  ****         float v    = FIX_DRUM ? 1.0f : clampf((float)pressure / 100.0f, 0.0f, 1.0f);
 5533              		.loc 6 365 24 view .LVU1823
 5534 15dc 03FB04A3 		mla	r3, r3, r4, r10
 367:src/main.cpp  ****         // Cutoff from velocity, same curve as the mono path.
 5535              		.loc 6 367 41 view .LVU1824
 5536 15e0 D3ED205A 		vldr.32	s11, [r3, #128]
 362:src/main.cpp  ****         int   step = (int)(subp * (float)MULTI_NINTERVALS);
 5537              		.loc 6 362 15 view .LVU1825
 5538 15e4 77EEC77A 		vsub.f32	s15, s15, s14
 370:src/main.cpp  ****         float om = 1.0f + oa*(1.0f + oa*(0.5f + oa*(0.1667f + oa*0.0417f)));
 5539              		.loc 6 370 15 view .LVU1826
 5540 15e8 93ED117A 		vldr.32	s14, [r3, #68]
 367:src/main.cpp  ****         // Cutoff from velocity, same curve as the mono path.
 5541              		.loc 6 367 37 view .LVU1827
 5542 15ec 7BEE65BA 		vsub.f32	s23, s22, s11
 365:src/main.cpp  ****         float v    = FIX_DRUM ? 1.0f : clampf((float)pressure / 100.0f, 0.0f, 1.0f);
 5543              		.loc 6 365 24 view .LVU1828
 5544 15f0 D3ED01DA 		vldr.32	s27, [r3, #4]
 370:src/main.cpp  ****         float om = 1.0f + oa*(1.0f + oa*(0.5f + oa*(0.1667f + oa*0.0417f)));
 5545              		.loc 6 370 15 view .LVU1829
 5546 15f4 27EE237A 		vmul.f32	s14, s14, s7
 372:src/main.cpp  ****                    : V.freq_low * powf(freq / V.freq_low, V.keytrack);
 5547              		.loc 6 372 23 view .LVU1830
 5548 15f8 D3ED150A 		vldr.32	s1, [r3, #84]
 374:src/main.cpp  ****         float drive  = 1.0f + smoothstep_f(v) * V.drive_max;
 5549              		.loc 6 374 38 view .LVU1831
ARM GAS  /tmp/claude-502/cc09dAcL.s 			page 152


 5550 15fc 93ED10DA 		vldr.32	s26, [r3, #64]
 375:src/main.cpp  ****         drum_trigger(g_hits[s], vidx, freq, amp, cutoff, drive, hw.AudioSampleRate());
 5551              		.loc 6 375 51 view .LVU1832
 5552 1600 93ED13CA 		vldr.32	s24, [r3, #76]
 5553              	.LVL461:
 359:src/main.cpp  ****         int   vidx = MULTI_ZONES[zone];
 5554              		.loc 6 359 9 is_stmt 1 view .LVU1833
 359:src/main.cpp  ****         int   vidx = MULTI_ZONES[zone];
 5555              		.loc 6 359 39 view .LVU1834
 360:src/main.cpp  ****         const Voice& V = VOICES[vidx];
 5556              		.loc 6 360 9 view .LVU1835
 361:src/main.cpp  ****         float subp = p * 4.0f - (float)zone;
 5557              		.loc 6 361 9 view .LVU1836
 362:src/main.cpp  ****         int   step = (int)(subp * (float)MULTI_NINTERVALS);
 5558              		.loc 6 362 9 view .LVU1837
 363:src/main.cpp  ****         if(step >= MULTI_NINTERVALS) step = MULTI_NINTERVALS - 1;
 5559              		.loc 6 363 9 view .LVU1838
 364:src/main.cpp  ****         float freq = V.freq_low * MULTI_INTERVALS[step];
 5560              		.loc 6 364 9 view .LVU1839
 365:src/main.cpp  ****         float v    = FIX_DRUM ? 1.0f : clampf((float)pressure / 100.0f, 0.0f, 1.0f);
 5561              		.loc 6 365 9 view .LVU1840
 366:src/main.cpp  ****         float amp  = 0.72f * ((1.0f - V.vel_sens) + V.vel_sens * v);
 5562              		.loc 6 366 9 view .LVU1841
 367:src/main.cpp  ****         // Cutoff from velocity, same curve as the mono path.
 5563              		.loc 6 367 9 view .LVU1842
 369:src/main.cpp  ****         float oa = cutoff_oct * 0.6931f;
 5564              		.loc 6 369 9 view .LVU1843
 369:src/main.cpp  ****         float oa = cutoff_oct * 0.6931f;
 5565              		.loc 6 369 9 is_stmt 0 view .LVU1844
 5566              	.LBE671:
 5567              	.LBE677:
 5568              	.LBE683:
 5569              	.LBE689:
 5570              	.LBE695:
 5571              	.LBE1040:
 5572              	.LBE1077:
 5573              		.loc 9 19 5 is_stmt 1 view .LVU1845
 5574              		.loc 9 19 24 view .LVU1846
 5575              	.LBB1078:
 5576              	.LBB1041:
 5577              	.LBB696:
 5578              	.LBB690:
 5579              	.LBB684:
 5580              	.LBB678:
 5581              	.LBB672:
 370:src/main.cpp  ****         float om = 1.0f + oa*(1.0f + oa*(0.5f + oa*(0.1667f + oa*0.0417f)));
 5582              		.loc 6 370 9 view .LVU1847
 371:src/main.cpp  ****         float tf = (V.keytrack >= 0.999f) ? freq
 5583              		.loc 6 371 9 view .LVU1848
 372:src/main.cpp  ****                    : V.freq_low * powf(freq / V.freq_low, V.keytrack);
 5584              		.loc 6 372 9 view .LVU1849
 372:src/main.cpp  ****                    : V.freq_low * powf(freq / V.freq_low, V.keytrack);
 5585              		.loc 6 372 43 is_stmt 0 view .LVU1850
 5586 1604 F4EEC50A 		vcmpe.f32	s1, s10
 371:src/main.cpp  ****         float tf = (V.keytrack >= 0.999f) ? freq
 5587              		.loc 6 371 61 view .LVU1851
 5588 1608 A7EE046A 		vfma.f32	s12, s14, s8
ARM GAS  /tmp/claude-502/cc09dAcL.s 			page 153


 367:src/main.cpp  ****         // Cutoff from velocity, same curve as the mono path.
 5589              		.loc 6 367 51 view .LVU1852
 5590 160c 7BEEA5BA 		vadd.f32	s23, s23, s11
 367:src/main.cpp  ****         // Cutoff from velocity, same curve as the mono path.
 5591              		.loc 6 367 15 view .LVU1853
 5592 1610 6BEEA4BA 		vmul.f32	s23, s23, s9
 371:src/main.cpp  ****         float tf = (V.keytrack >= 0.999f) ? freq
 5593              		.loc 6 371 47 view .LVU1854
 5594 1614 E7EE066A 		vfma.f32	s13, s14, s12
 371:src/main.cpp  ****         float tf = (V.keytrack >= 0.999f) ? freq
 5595              		.loc 6 371 36 view .LVU1855
 5596 1618 B0EE4B6A 		vmov.f32	s12, s22
 5597 161c A7EE266A 		vfma.f32	s12, s14, s13
 371:src/main.cpp  ****         float tf = (V.keytrack >= 0.999f) ? freq
 5598              		.loc 6 371 15 view .LVU1856
 5599 1620 A7EE06BA 		vfma.f32	s22, s14, s12
 363:src/main.cpp  ****         if(step >= MULTI_NINTERVALS) step = MULTI_NINTERVALS - 1;
 5600              		.loc 6 363 15 view .LVU1857
 5601 1624 B0EE677A 		vmov.f32	s14, s15
 5602 1628 BEEECF7A 		vcvt.s32.f32	s14, s14, #2
 5603 162c 17EE103A 		vmov	r3, s14	@ int
 365:src/main.cpp  ****         float v    = FIX_DRUM ? 1.0f : clampf((float)pressure / 100.0f, 0.0f, 1.0f);
 5604              		.loc 6 365 55 view .LVU1858
 5605 1630 032B     		cmp	r3, #3
 5606 1632 A8BF     		it	ge
 5607 1634 0323     		movge	r3, #3
 372:src/main.cpp  ****                    : V.freq_low * powf(freq / V.freq_low, V.keytrack);
 5608              		.loc 6 372 43 view .LVU1859
 5609 1636 F1EE10FA 		vmrs	APSR_nzcv, FPSCR
 365:src/main.cpp  ****         float v    = FIX_DRUM ? 1.0f : clampf((float)pressure / 100.0f, 0.0f, 1.0f);
 5610              		.loc 6 365 55 view .LVU1860
 5611 163a 02EB8303 		add	r3, r2, r3, lsl #2
 365:src/main.cpp  ****         float v    = FIX_DRUM ? 1.0f : clampf((float)pressure / 100.0f, 0.0f, 1.0f);
 5612              		.loc 6 365 15 view .LVU1861
 5613 163e 93ED000A 		vldr.32	s0, [r3]
 5614 1642 2DEE800A 		vmul.f32	s0, s27, s0
 5615 1646 F0EE40CA 		vmov.f32	s25, s0
 372:src/main.cpp  ****                    : V.freq_low * powf(freq / V.freq_low, V.keytrack);
 5616              		.loc 6 372 43 view .LVU1862
 5617 164a BFF66BAF 		bge	.L132
 5618 164e 63E7     		b	.L245
 5619              	.L472:
 5620              		.align	2
 5621              	.L471:
 5622 1650 00000000 		.word	.LANCHOR2
 5623 1654 4FECC44E 		.word	1321528399
 5624 1658 00000000 		.word	.LANCHOR6
 5625 165c 1C070000 		.word	.LANCHOR6+1820
 5626 1660 14010000 		.word	.LC9
 5627 1664 00000000 		.word	.LANCHOR1
 5628 1668 20000000 		.word	.LANCHOR1+32
 5629 166c CDCC4C3D 		.word	1028443341
 5630 1670 00000000 		.word	0
 5631 1674 00000000 		.word	g_hits
 5632 1678 00000000 		.word	g_amp_target
 5633 167c 00000000 		.word	.LANCHOR3
 5634 1680 CDCCCC3D 		.word	1036831949
ARM GAS  /tmp/claude-502/cc09dAcL.s 			page 154


 5635 1684 00007A44 		.word	1148846080
 5636 1688 9A99993F 		.word	1067030938
 5637 168c CDCC4C3E 		.word	1045220557
 5638 1690 0000FA45 		.word	1174011904
 5639 1694 00007A45 		.word	1165623296
 5640 1698 827A7C40 		.word	1081899650
 5641 169c EC51383F 		.word	1060655596
 5642 16a0 00A08C46 		.word	1183621120
 5643 16a4 14020000 		.word	.LC19
 5644 16a8 00000000 		.word	.LANCHOR7
 5645 16ac 006F313F 		.word	1060204288
 5646 16b0 9FCD2A3D 		.word	1026215327
 5647 16b4 68B32A3E 		.word	1042985832
 5648 16b8 77BE7F3F 		.word	1065336439
 5649 16bc 00000000 		.word	.LANCHOR8
 5650              	.LVL462:
 5651              	.L444:
 372:src/main.cpp  ****                    : V.freq_low * powf(freq / V.freq_low, V.keytrack);
 5652              		.loc 6 372 43 view .LVU1863
 5653              	.LBE672:
 5654              	.LBE678:
 5655              	.LBE684:
 5656              	.LBE690:
 5657              	.LBE696:
 5658              	.LBE1041:
 439:src/main.cpp  ****                 capture_baseline(baseline);
 5659              		.loc 6 439 17 is_stmt 1 view .LVU1864
 439:src/main.cpp  ****                 capture_baseline(baseline);
 5660              		.loc 6 439 50 is_stmt 0 view .LVU1865
 5661 16c0 0023     		movs	r3, #0
 440:src/main.cpp  ****                 hw.PrintLine("[rebaseline]");
 5662              		.loc 6 440 33 view .LVU1866
 5663 16c2 0D98     		ldr	r0, [sp, #52]
 439:src/main.cpp  ****                 capture_baseline(baseline);
 5664              		.loc 6 439 50 view .LVU1867
 5665 16c4 89F81430 		strb	r3, [r9, #20]
 439:src/main.cpp  ****                 capture_baseline(baseline);
 5666              		.loc 6 439 33 view .LVU1868
 5667 16c8 89F80030 		strb	r3, [r9]
 440:src/main.cpp  ****                 hw.PrintLine("[rebaseline]");
 5668              		.loc 6 440 17 is_stmt 1 view .LVU1869
 440:src/main.cpp  ****                 hw.PrintLine("[rebaseline]");
 5669              		.loc 6 440 33 is_stmt 0 view .LVU1870
 5670 16cc FFF7FEFF 		bl	_Z16capture_baselinePt
 5671              	.LVL463:
 441:src/main.cpp  ****                 idle_since=System::GetNow();
 5672              		.loc 6 441 17 is_stmt 1 view .LVU1871
 5673              	.LBB1042:
 5674              	.LBI1042:
 126:/Users/reza.kalfane/Workspaces/Daisy/DaisyExamples/libDaisy/src/daisy_seed.h ****     {
 5675              		.loc 1 126 17 view .LVU1872
 5676              	.LBB1043:
 128:/Users/reza.kalfane/Workspaces/Daisy/DaisyExamples/libDaisy/src/daisy_seed.h ****     }
 5677              		.loc 1 128 23 is_stmt 0 view .LVU1873
 5678 16d0 DA48     		ldr	r0, .L473
 5679 16d2 FFF7FEFF 		bl	_ZN5daisy6LoggerILNS_17LoggerDestinationE1EE9PrintLineEPKcz
 5680              	.LVL464:
ARM GAS  /tmp/claude-502/cc09dAcL.s 			page 155


 128:/Users/reza.kalfane/Workspaces/Daisy/DaisyExamples/libDaisy/src/daisy_seed.h ****     }
 5681              		.loc 1 128 23 view .LVU1874
 5682              	.LBE1043:
 5683              	.LBE1042:
 442:src/main.cpp  ****             }
 5684              		.loc 6 442 17 is_stmt 1 view .LVU1875
 442:src/main.cpp  ****             }
 5685              		.loc 6 442 42 is_stmt 0 view .LVU1876
 5686 16d6 FFF7FEFF 		bl	_ZN5daisy6System6GetNowEv
 5687              	.LVL465:
 5688 16da 0A90     		str	r0, [sp, #40]
 5689              	.LVL466:
 442:src/main.cpp  ****             }
 5690              		.loc 6 442 42 view .LVU1877
 5691 16dc 40E4     		b	.L86
 5692              	.LVL467:
 5693              	.L112:
 5694              	.LBB1044:
 5695              	.LBB1014:
 5696              	.LBB1011:
 246:src/main.cpp  ****         hw.dac.WriteValue(DacHandle::Channel::TWO, 0);
 5697              		.loc 6 246 26 view .LVU1878
 5698 16de 0022     		movs	r2, #0
 5699              	.LVL468:
 246:src/main.cpp  ****         hw.dac.WriteValue(DacHandle::Channel::TWO, 0);
 5700              		.loc 6 246 26 view .LVU1879
 5701 16e0 D748     		ldr	r0, .L473+4
 5702 16e2 DDF81CA0 		ldr	r10, [sp, #28]
 5703              	.LVL469:
 246:src/main.cpp  ****         hw.dac.WriteValue(DacHandle::Channel::TWO, 0);
 5704              		.loc 6 246 9 is_stmt 1 view .LVU1880
 246:src/main.cpp  ****         hw.dac.WriteValue(DacHandle::Channel::TWO, 0);
 5705              		.loc 6 246 26 is_stmt 0 view .LVU1881
 5706 16e6 1DEE106A 		vmov	r6, s26	@ int
 5707              	.LVL470:
 246:src/main.cpp  ****         hw.dac.WriteValue(DacHandle::Channel::TWO, 0);
 5708              		.loc 6 246 26 view .LVU1882
 5709 16ea 1146     		mov	r1, r2
 5710              	.LVL471:
 246:src/main.cpp  ****         hw.dac.WriteValue(DacHandle::Channel::TWO, 0);
 5711              		.loc 6 246 26 view .LVU1883
 5712 16ec DDE90549 		ldrd	r4, r9, [sp, #20]
 5713 16f0 FFF7FEFF 		bl	_ZN5daisy9DacHandle10WriteValueENS0_7ChannelEt
 5714              	.LVL472:
 247:src/main.cpp  ****         g_led3_duty = 0.0f;
 5715              		.loc 6 247 9 is_stmt 1 view .LVU1884
 247:src/main.cpp  ****         g_led3_duty = 0.0f;
 5716              		.loc 6 247 26 is_stmt 0 view .LVU1885
 5717 16f4 0121     		movs	r1, #1
 5718 16f6 0022     		movs	r2, #0
 5719 16f8 D148     		ldr	r0, .L473+4
 5720 16fa FFF7FEFF 		bl	_ZN5daisy9DacHandle10WriteValueENS0_7ChannelEt
 5721              	.LVL473:
 248:src/main.cpp  ****     };
 5722              		.loc 6 248 9 is_stmt 1 view .LVU1886
 248:src/main.cpp  ****     };
 5723              		.loc 6 248 21 is_stmt 0 view .LVU1887
ARM GAS  /tmp/claude-502/cc09dAcL.s 			page 156


 5724 16fe 0023     		movs	r3, #0
 5725 1700 0C9A     		ldr	r2, [sp, #48]
 5726 1702 1360     		str	r3, [r2]	@ float
 5727              	.LVL474:
 248:src/main.cpp  ****     };
 5728              		.loc 6 248 21 view .LVU1888
 5729              	.LBE1011:
 5730              	.LBE1014:
 5731              	.LBE1044:
 451:src/main.cpp  ****             idle_since    = System::GetNow();
 5732              		.loc 6 451 13 is_stmt 1 view .LVU1889
 451:src/main.cpp  ****             idle_since    = System::GetNow();
 5733              		.loc 6 451 43 is_stmt 0 view .LVU1890
 5734 1704 FFF7FEFF 		bl	_ZN5daisy6System6GetNowEv
 5735              	.LVL475:
 5736 1708 0B90     		str	r0, [sp, #44]
 5737              	.LVL476:
 452:src/main.cpp  ****             hw.PrintLine("[fsr recal] fsr_max=%d", (int)fsr_max);
 5738              		.loc 6 452 13 is_stmt 1 view .LVU1891
 452:src/main.cpp  ****             hw.PrintLine("[fsr recal] fsr_max=%d", (int)fsr_max);
 5739              		.loc 6 452 43 is_stmt 0 view .LVU1892
 5740 170a FFF7FEFF 		bl	_ZN5daisy6System6GetNowEv
 5741              	.LVL477:
 5742              	.LBB1045:
 5743              	.LBB1046:
 128:/Users/reza.kalfane/Workspaces/Daisy/DaisyExamples/libDaisy/src/daisy_seed.h ****     }
 5744              		.loc 1 128 23 view .LVU1893
 5745 170e 1799     		ldr	r1, [sp, #92]
 5746              	.LBE1046:
 5747              	.LBE1045:
 452:src/main.cpp  ****             hw.PrintLine("[fsr recal] fsr_max=%d", (int)fsr_max);
 5748              		.loc 6 452 43 view .LVU1894
 5749 1710 0A90     		str	r0, [sp, #40]
 5750              	.LVL478:
 453:src/main.cpp  ****         }
 5751              		.loc 6 453 13 is_stmt 1 view .LVU1895
 5752              	.LBB1048:
 5753              	.LBI1045:
 126:/Users/reza.kalfane/Workspaces/Daisy/DaisyExamples/libDaisy/src/daisy_seed.h ****     {
 5754              		.loc 1 126 17 view .LVU1896
 5755              	.LBB1047:
 128:/Users/reza.kalfane/Workspaces/Daisy/DaisyExamples/libDaisy/src/daisy_seed.h ****     }
 5756              		.loc 1 128 23 is_stmt 0 view .LVU1897
 5757 1712 CC48     		ldr	r0, .L473+8
 5758              	.LVL479:
 128:/Users/reza.kalfane/Workspaces/Daisy/DaisyExamples/libDaisy/src/daisy_seed.h ****     }
 5759              		.loc 1 128 23 view .LVU1898
 5760 1714 FFF7FEFF 		bl	_ZN5daisy6LoggerILNS_17LoggerDestinationE1EE9PrintLineEPKcz
 5761              	.LVL480:
 129:/Users/reza.kalfane/Workspaces/Daisy/DaisyExamples/libDaisy/src/daisy_seed.h **** 
 5762              		.loc 1 129 5 view .LVU1899
 5763 1718 FEF778BE 		b	.L85
 5764              	.LVL481:
 5765              	.L439:
 129:/Users/reza.kalfane/Workspaces/Daisy/DaisyExamples/libDaisy/src/daisy_seed.h **** 
 5766              		.loc 1 129 5 view .LVU1900
 5767              	.LBE1047:
ARM GAS  /tmp/claude-502/cc09dAcL.s 			page 157


 5768              	.LBE1048:
 5769              	.LBB1049:
 5770              	.LBB884:
 708:src/main.cpp  ****             g_bitcrush      = bc;
 5771              		.loc 6 708 42 view .LVU1901
 5772 171c 65EE865A 		vmul.f32	s11, s11, s12
 5773 1720 FFF795B9 		b	.L193
 5774              	.LVL482:
 5775              	.L435:
 708:src/main.cpp  ****             g_bitcrush      = bc;
 5776              		.loc 6 708 42 view .LVU1902
 5777              	.LBE884:
 5778              	.LBE1049:
 5779              	.LBB1050:
 5780              	.LBB773:
 540:src/main.cpp  ****             float y = (freq_ratio - 1.0f) / (freq_ratio + 1.0f);
 5781              		.loc 6 540 19 view .LVU1903
 5782 1724 DFEDC84A 		vldr.32	s9, .L473+12
 541:src/main.cpp  ****             float y2 = y*y;
 5783              		.loc 6 541 35 view .LVU1904
 5784 1728 B7EE005A 		vmov.f32	s10, #1.0e+0
 5785              	.LVL483:
 543:src/main.cpp  ****             float midi_raw = 69.0f + 17.3123f * ln_ratio; // 17.3123 = 12/ln(2)
 5786              		.loc 6 543 57 view .LVU1905
 5787 172c DFEDC76A 		vldr.32	s13, .L473+16
 540:src/main.cpp  ****             float y = (freq_ratio - 1.0f) / (freq_ratio + 1.0f);
 5788              		.loc 6 540 19 view .LVU1906
 5789 1730 87EEA47A 		vdiv.f32	s14, s15, s9
 5790              	.LVL484:
 543:src/main.cpp  ****             float midi_raw = 69.0f + 17.3123f * ln_ratio; // 17.3123 = 12/ln(2)
 5791              		.loc 6 543 57 view .LVU1907
 5792 1734 DFEDC63A 		vldr.32	s7, .L473+20
 544:src/main.cpp  **** 
 5793              		.loc 6 544 19 view .LVU1908
 5794 1738 9FEDC66A 		vldr.32	s12, .L473+24
 544:src/main.cpp  **** 
 5795              		.loc 6 544 19 view .LVU1909
 5796 173c 9FEDC64A 		vldr.32	s8, .L473+28
 5797              	.LBB766:
 5798              	.LBB717:
 551:src/main.cpp  ****                 // Convert quantized MIDI back to Hz
 5799              		.loc 6 551 45 view .LVU1910
 5800 1740 B0EE460A 		vmov.f32	s0, s12
 5801              	.LBE717:
 5802              	.LBE766:
 541:src/main.cpp  ****             float y2 = y*y;
 5803              		.loc 6 541 35 view .LVU1911
 5804 1744 77EE455A 		vsub.f32	s11, s14, s10
 541:src/main.cpp  ****             float y2 = y*y;
 5805              		.loc 6 541 57 view .LVU1912
 5806 1748 37EE057A 		vadd.f32	s14, s14, s10
 541:src/main.cpp  ****             float y2 = y*y;
 5807              		.loc 6 541 19 view .LVU1913
 5808 174c C5EE877A 		vdiv.f32	s15, s11, s14
 5809              	.LVL485:
 543:src/main.cpp  ****             float midi_raw = 69.0f + 17.3123f * ln_ratio; // 17.3123 = 12/ln(2)
 5810              		.loc 6 543 57 view .LVU1914
ARM GAS  /tmp/claude-502/cc09dAcL.s 			page 158


 5811 1750 B0EE667A 		vmov.f32	s14, s13
 543:src/main.cpp  ****             float midi_raw = 69.0f + 17.3123f * ln_ratio; // 17.3123 = 12/ln(2)
 5812              		.loc 6 543 43 view .LVU1915
 5813 1754 F0EE456A 		vmov.f32	s13, s10
 542:src/main.cpp  ****             float ln_ratio = 2.0f*y*(1.0f + y2*(0.3333f + y2*0.2f));
 5814              		.loc 6 542 19 view .LVU1916
 5815 1758 67EEA75A 		vmul.f32	s11, s15, s15
 5816              	.LBB767:
 5817              	.LBB718:
 551:src/main.cpp  ****                 // Convert quantized MIDI back to Hz
 5818              		.loc 6 551 17 is_stmt 1 view .LVU1917
 5819              	.LBE718:
 5820              	.LBE767:
 543:src/main.cpp  ****             float midi_raw = 69.0f + 17.3123f * ln_ratio; // 17.3123 = 12/ln(2)
 5821              		.loc 6 543 34 is_stmt 0 view .LVU1918
 5822 175c 77EEA77A 		vadd.f32	s15, s15, s15
 543:src/main.cpp  ****             float midi_raw = 69.0f + 17.3123f * ln_ratio; // 17.3123 = 12/ln(2)
 5823              		.loc 6 543 57 view .LVU1919
 5824 1760 A5EEA37A 		vfma.f32	s14, s11, s7
 543:src/main.cpp  ****             float midi_raw = 69.0f + 17.3123f * ln_ratio; // 17.3123 = 12/ln(2)
 5825              		.loc 6 543 43 view .LVU1920
 5826 1764 E7EE256A 		vfma.f32	s13, s14, s11
 5827              	.LBB768:
 5828              	.LBB719:
 553:src/main.cpp  ****                 freq = clampf(440.0f*(1.0f+qe*(1.0f+qe*(0.5f+qe*0.1667f))), VOICE.freq_low, VOICE.f
 5829              		.loc 6 553 23 view .LVU1921
 5830 1768 9FEDBC7A 		vldr.32	s14, .L473+32
 5831              	.LBE719:
 5832              	.LBE768:
 543:src/main.cpp  ****             float midi_raw = 69.0f + 17.3123f * ln_ratio; // 17.3123 = 12/ln(2)
 5833              		.loc 6 543 19 view .LVU1922
 5834 176c 67EEA67A 		vmul.f32	s15, s15, s13
 5835              	.LBB769:
 5836              	.LBB720:
 554:src/main.cpp  ****                 f1_sliding = false;
 5837              		.loc 6 554 61 view .LVU1923
 5838 1770 F6EE006A 		vmov.f32	s13, #5.0e-1
 551:src/main.cpp  ****                 // Convert quantized MIDI back to Hz
 5839              		.loc 6 551 45 view .LVU1924
 5840 1774 A7EE840A 		vfma.f32	s0, s15, s8
 5841 1778 FFF7FEFF 		bl	_Z13quantize_midif
 5842              	.LVL486:
 553:src/main.cpp  ****                 freq = clampf(440.0f*(1.0f+qe*(1.0f+qe*(0.5f+qe*0.1667f))), VOICE.freq_low, VOICE.f
 5843              		.loc 6 553 17 is_stmt 1 view .LVU1925
 553:src/main.cpp  ****                 freq = clampf(440.0f*(1.0f+qe*(1.0f+qe*(0.5f+qe*0.1667f))), VOICE.freq_low, VOICE.f
 5844              		.loc 6 553 42 is_stmt 0 view .LVU1926
 5845 177c 30EE460A 		vsub.f32	s0, s0, s12
 5846              	.LVL487:
 554:src/main.cpp  ****                 f1_sliding = false;
 5847              		.loc 6 554 61 view .LVU1927
 5848 1780 DFEDB77A 		vldr.32	s15, .L473+36
 554:src/main.cpp  ****                 f1_sliding = false;
 5849              		.loc 6 554 52 view .LVU1928
 5850 1784 B0EE456A 		vmov.f32	s12, s10
 553:src/main.cpp  ****                 freq = clampf(440.0f*(1.0f+qe*(1.0f+qe*(0.5f+qe*0.1667f))), VOICE.freq_low, VOICE.f
 5851              		.loc 6 553 23 view .LVU1929
 5852 1788 20EE077A 		vmul.f32	s14, s0, s14
ARM GAS  /tmp/claude-502/cc09dAcL.s 			page 159


 5853              	.LVL488:
 554:src/main.cpp  ****                 f1_sliding = false;
 5854              		.loc 6 554 17 is_stmt 1 view .LVU1930
 554:src/main.cpp  ****                 f1_sliding = false;
 5855              		.loc 6 554 61 is_stmt 0 view .LVU1931
 5856 178c E7EE276A 		vfma.f32	s13, s14, s15
 554:src/main.cpp  ****                 f1_sliding = false;
 5857              		.loc 6 554 43 view .LVU1932
 5858 1790 F0EE457A 		vmov.f32	s15, s10
 554:src/main.cpp  ****                 f1_sliding = false;
 5859              		.loc 6 554 52 view .LVU1933
 5860 1794 A6EE876A 		vfma.f32	s12, s13, s14
 554:src/main.cpp  ****                 f1_sliding = false;
 5861              		.loc 6 554 43 view .LVU1934
 5862 1798 E6EE077A 		vfma.f32	s15, s12, s14
 554:src/main.cpp  ****                 f1_sliding = false;
 5863              		.loc 6 554 30 view .LVU1935
 5864 179c 67EEA47A 		vmul.f32	s15, s15, s9
 5865              	.LVL489:
 5866              	.LBB716:
 5867              	.LBI713:
  12:src/dsp.h     ****     return v<lo?lo:v>hi?hi:v;
 5868              		.loc 9 12 21 is_stmt 1 view .LVU1936
 5869              	.LBB715:
  13:src/dsp.h     **** }
 5870              		.loc 9 13 5 view .LVU1937
  13:src/dsp.h     **** }
 5871              		.loc 9 13 16 is_stmt 0 view .LVU1938
 5872 17a0 B4EEE7BA 		vcmpe.f32	s22, s15
 5873 17a4 F1EE10FA 		vmrs	APSR_nzcv, FPSCR
 5874 17a8 3FF732AD 		bgt	.L271
  13:src/dsp.h     **** }
 5875              		.loc 9 13 24 view .LVU1939
 5876 17ac B4EE67CA 		vcmp.f32	s24, s15
 5877 17b0 F1EE10FA 		vmrs	APSR_nzcv, FPSCR
 5878 17b4 48BF     		it	mi
 5879 17b6 F0EE4C7A 		vmovmi.f32	s15, s24
 5880              	.LVL490:
  13:src/dsp.h     **** }
 5881              		.loc 9 13 24 view .LVU1940
 5882 17ba FEF707BF 		b	.L142
 5883              	.LVL491:
 5884              	.L447:
  13:src/dsp.h     **** }
 5885              		.loc 9 13 24 view .LVU1941
 5886              	.LBE715:
 5887              	.LBE716:
 5888              	.LBE720:
 5889              	.LBE769:
 5890              	.LBE773:
 5891              	.LBE1050:
 5892              	.LBB1051:
 5893              	.LBB798:
 5894              	.LBB788:
 5895              	.LBB782:
 5896 17be F7EE00BA 		vmov.f32	s23, #1.0e+0
 5897 17c2 F4EEEB6A 		vcmpe.f32	s13, s23
ARM GAS  /tmp/claude-502/cc09dAcL.s 			page 160


 5898 17c6 F1EE10FA 		vmrs	APSR_nzcv, FPSCR
 5899 17ca 79DC     		bgt	.L308
 5900 17cc FFEE00CA 		vmov.f32	s25, #-1.0e+0
 5901 17d0 9FEDA47A 		vldr.32	s14, .L473+40
 5902              	.LVL492:
 5903              	.L243:
  13:src/dsp.h     **** }
 5904              		.loc 9 13 24 view .LVU1942
 5905              	.LBE782:
 5906              	.LBE788:
 649:src/main.cpp  ****             float l1_raw   = 1.0f - 2.0f * p01;                 if(l1_raw < 0) l1_raw = 0;
 5907              		.loc 6 649 19 view .LVU1943
 5908 17d4 B5EE006A 		vmov.f32	s12, #2.5e-1
 5909 17d8 F6EE087A 		vmov.f32	s15, #7.5e-1
 5910 17dc E6EE867A 		vfma.f32	s15, s13, s12
 5911 17e0 B0EE67CA 		vmov.f32	s24, s15
 5912 17e4 FFF736B8 		b	.L154
 5913              	.LVL493:
 5914              	.L151:
 648:src/main.cpp  ****             float prs_mult = 0.75f + 0.25f * pr01;
 5915              		.loc 6 648 13 is_stmt 1 view .LVU1944
 648:src/main.cpp  ****             float prs_mult = 0.75f + 0.25f * pr01;
 5916              		.loc 6 648 37 is_stmt 0 view .LVU1945
 5917 17e8 99ED027A 		vldr.32	s14, [r9, #8]	@ int
 648:src/main.cpp  ****             float prs_mult = 0.75f + 0.25f * pr01;
 5918              		.loc 6 648 36 view .LVU1946
 5919 17ec 9FED9E6A 		vldr.32	s12, .L473+44
 648:src/main.cpp  ****             float prs_mult = 0.75f + 0.25f * pr01;
 5920              		.loc 6 648 37 view .LVU1947
 5921 17f0 B8EEC77A 		vcvt.f32.s32	s14, s14
 648:src/main.cpp  ****             float prs_mult = 0.75f + 0.25f * pr01;
 5922              		.loc 6 648 36 view .LVU1948
 5923 17f4 C7EE066A 		vdiv.f32	s13, s14, s12
 5924              	.LVL494:
 5925              	.LBB789:
  12:src/dsp.h     ****     return v<lo?lo:v>hi?hi:v;
 5926              		.loc 9 12 21 is_stmt 1 view .LVU1949
 5927              	.LBB783:
  13:src/dsp.h     **** }
 5928              		.loc 9 13 5 view .LVU1950
  13:src/dsp.h     **** }
 5929              		.loc 9 13 16 is_stmt 0 view .LVU1951
 5930 17f8 F5EEC06A 		vcmpe.f32	s13, #0
 5931 17fc F1EE10FA 		vmrs	APSR_nzcv, FPSCR
 5932 1800 66D5     		bpl	.L455
 5933              	.LBE783:
 5934              	.LBE789:
 651:src/main.cpp  ****             float l2_raw   = 1.0f - 2.0f * fabsf(p01 - 0.5f);   if(l2_raw < 0) l2_raw = 0;
 5935              		.loc 6 651 19 view .LVU1952
 5936 1802 F0EE67CA 		vmov.f32	s25, s15
 650:src/main.cpp  ****             float l3_raw   = 2.0f * p01 - 1.0f;                 if(l3_raw < 0) l3_raw = 0;
 5937              		.loc 6 650 87 view .LVU1953
 5938 1806 DFED97BA 		vldr.32	s23, .L473+40
 5939 180a FBE4     		b	.L232
 5940              	.LVL495:
 5941              	.L280:
 650:src/main.cpp  ****             float l3_raw   = 2.0f * p01 - 1.0f;                 if(l3_raw < 0) l3_raw = 0;
ARM GAS  /tmp/claude-502/cc09dAcL.s 			page 161


 5942              		.loc 6 650 87 view .LVU1954
 5943              	.LBE798:
 5944              	.LBE1051:
 5945              	.LBB1052:
 5946              	.LBB774:
 5947              	.LBB770:
 5948              	.LBB741:
 5949 180c 9FED97DA 		vldr.32	s26, .L473+48
 5950 1810 FEF769BF 		b	.L148
 5951              	.LVL496:
 5952              	.L412:
 650:src/main.cpp  ****             float l3_raw   = 2.0f * p01 - 1.0f;                 if(l3_raw < 0) l3_raw = 0;
 5953              		.loc 6 650 87 view .LVU1955
 5954              	.LBE741:
 5955              	.LBE770:
 5956              	.LBE774:
 5957              	.LBE1052:
 5958              	.LBB1053:
 5959              	.LBB885:
 5960              	.LBB873:
 5961              	.LBB841:
 583:src/main.cpp  ****                 return x*x*x*(x*(x*6.0f - 15.0f) + 10.0f);
 5962              		.loc 6 583 30 view .LVU1956
 5963 1814 B7EE007A 		vmov.f32	s14, #1.0e+0
 5964 1818 F4EEC76A 		vcmpe.f32	s13, s14
 5965 181c F1EE10FA 		vmrs	APSR_nzcv, FPSCR
 5966 1820 40F35C81 		ble	.L413
 5967              	.LBE841:
 5968              	.LBE873:
 705:src/main.cpp  ****             float rm    = smoothstep2(rm_in) * VOICE.ringmod_max;
 5969              		.loc 6 705 41 view .LVU1957
 5970 1824 DFED9C6A 		vldr.32	s13, .L473+92
 5971              	.LVL497:
 705:src/main.cpp  ****             float rm    = smoothstep2(rm_in) * VOICE.ringmod_max;
 5972              		.loc 6 705 33 view .LVU1958
 5973 1828 9FED9C6A 		vldr.32	s12, .L473+96
 705:src/main.cpp  ****             float rm    = smoothstep2(rm_in) * VOICE.ringmod_max;
 5974              		.loc 6 705 41 view .LVU1959
 5975 182c 77EEE66A 		vsub.f32	s13, s15, s13
 705:src/main.cpp  ****             float rm    = smoothstep2(rm_in) * VOICE.ringmod_max;
 5976              		.loc 6 705 33 view .LVU1960
 5977 1830 86EE864A 		vdiv.f32	s8, s13, s12
 5978 1834 FFF7E9B8 		b	.L188
 5979              	.LVL498:
 5980              	.L450:
 5981              	.LBB874:
 5982              	.LBB835:
 583:src/main.cpp  ****                 return x*x*x*(x*(x*6.0f - 15.0f) + 10.0f);
 5983              		.loc 6 583 30 view .LVU1961
 5984 1838 B4EEC67A 		vcmpe.f32	s14, s12
 5985 183c F1EE10FA 		vmrs	APSR_nzcv, FPSCR
 5986 1840 7FF7BFA8 		ble	.L246
 5987 1844 B0EE467A 		vmov.f32	s14, s12
 5988              	.LVL499:
 584:src/main.cpp  ****             };
 5989              		.loc 6 584 17 is_stmt 1 view .LVU1962
 584:src/main.cpp  ****             };
ARM GAS  /tmp/claude-502/cc09dAcL.s 			page 162


 5990              		.loc 6 584 17 is_stmt 0 view .LVU1963
 5991              	.LBE835:
 5992              	.LBE874:
 694:src/main.cpp  **** 
 5993              		.loc 6 694 13 is_stmt 1 view .LVU1964
 5994              	.LBB875:
 582:src/main.cpp  ****                 x = x<0?0:x>1?1:x;
 5995              		.loc 6 582 33 view .LVU1965
 5996              	.LBB842:
 583:src/main.cpp  ****                 return x*x*x*(x*(x*6.0f - 15.0f) + 10.0f);
 5997              		.loc 6 583 17 view .LVU1966
 5998 1848 FFF7DFB8 		b	.L188
 5999              	.LVL500:
 6000              	.L260:
 583:src/main.cpp  ****                 return x*x*x*(x*(x*6.0f - 15.0f) + 10.0f);
 6001              		.loc 6 583 17 is_stmt 0 view .LVU1967
 6002              	.LBE842:
 6003              	.LBE875:
 6004              	.LBE885:
 6005              	.LBE1053:
 6006              	.LBB1054:
 6007              	.LBB697:
 6008              	.LBB691:
 6009              	.LBB685:
 6010              	.LBB679:
 6011              	.LBB673:
 6012              	.LBB666:
 6013              	.LBB660:
 6014 184c F3EE0ECA 		vmov.f32	s25, #3.0e+1
 6015 1850 9FED87CA 		vldr.32	s24, .L473+52
 6016 1854 B0EE08DA 		vmov.f32	s26, #3.0e+0
 6017 1858 0924     		movs	r4, #9
 6018 185a F6EE000A 		vmov.f32	s1, #5.0e-1
 6019 185e F0EE6CDA 		vmov.f32	s27, s25
 6020 1862 55E6     		b	.L131
 6021              	.LVL501:
 6022              	.L263:
 583:src/main.cpp  ****                 return x*x*x*(x*(x*6.0f - 15.0f) + 10.0f);
 6023              		.loc 6 583 17 view .LVU1968
 6024              	.LBE660:
 6025              	.LBE666:
 6026              	.LBB667:
 6027              	.LBB664:
  13:src/dsp.h     **** }
 6028              		.loc 9 13 16 view .LVU1969
 6029 1864 B0EE67BA 		vmov.f32	s22, s15
 6030              	.LVL502:
  13:src/dsp.h     **** }
 6031              		.loc 9 13 16 view .LVU1970
 6032 1868 70E6     		b	.L133
 6033              	.LVL503:
 6034              	.L286:
  13:src/dsp.h     **** }
 6035              		.loc 9 13 16 view .LVU1971
 6036              	.LBE664:
 6037              	.LBE667:
 6038              	.LBE673:
ARM GAS  /tmp/claude-502/cc09dAcL.s 			page 163


 6039              	.LBE679:
 6040              	.LBE685:
 6041              	.LBE691:
 6042              	.LBE697:
 6043              	.LBE1054:
 6044              	.LBB1055:
 6045              	.LBB886:
 6046              	.LBB876:
 6047              	.LBB819:
 6048 186a F7EE085A 		vmov.f32	s11, #1.5e+0
 6049 186e FFF78EB8 		b	.L183
 6050              	.LVL504:
 6051              	.L301:
  13:src/dsp.h     **** }
 6052              		.loc 9 13 16 view .LVU1972
 6053              	.LBE819:
 6054              	.LBE876:
 6055              	.LBE886:
 6056              	.LBE1055:
 6057              	.LBB1056:
 6058              	.LBB964:
 6059              	.LBB956:
 6060 1872 0020     		movs	r0, #0
 6061 1874 FFF720BA 		b	.L221
 6062              	.LVL505:
 6063              	.L304:
  13:src/dsp.h     **** }
 6064              		.loc 9 13 16 view .LVU1973
 6065              	.LBE956:
 6066              	.LBE964:
 6067              	.LBE1056:
 6068              	.LBB1057:
 6069              	.LBB972:
  88:src/main.cpp  ****     if(n>w)n=w;
 6070              		.loc 6 88 25 view .LVU1974
 6071 1878 0022     		movs	r2, #0
 6072 187a FFF75CBA 		b	.L226
 6073              	.LVL506:
 6074              	.L441:
  88:src/main.cpp  ****     if(n>w)n=w;
 6075              		.loc 6 88 25 view .LVU1975
 6076              	.LBE972:
 6077              	.LBE1057:
 774:src/main.cpp  ****             bc_i, vib_i);
 6078              		.loc 6 774 24 view .LVU1976
 6079 187e 4342     		rsbs	r3, r0, #0
 770:src/main.cpp  ****             freq_i, cut_i,
 6080              		.loc 6 770 21 view .LVU1977
 6081 1880 7C4C     		ldr	r4, .L473+56
 6082 1882 A4FB0354 		umull	r5, r4, r4, r3
 6083 1886 E408     		lsrs	r4, r4, #3
 6084 1888 04EB8404 		add	r4, r4, r4, lsl #2
 6085 188c A3EB4404 		sub	r4, r3, r4, lsl #1
 6086 1890 794B     		ldr	r3, .L473+60
 6087 1892 83FB0053 		smull	r5, r3, r3, r0
 6088 1896 C017     		asrs	r0, r0, #31
 6089              	.LVL507:
ARM GAS  /tmp/claude-502/cc09dAcL.s 			page 164


 770:src/main.cpp  ****             freq_i, cut_i,
 6090              		.loc 6 770 21 view .LVU1978
 6091 1898 A0EBA305 		sub	r5, r0, r3, asr #2
 6092 189c 2D23     		movs	r3, #45
 6093 189e FFF797BA 		b	.L231
 6094              	.LVL508:
 6095              	.L404:
 6096              	.LBB1058:
 6097              	.LBB799:
 6098              	.LBB790:
 6099              	.LBB784:
  13:src/dsp.h     **** }
 6100              		.loc 9 13 24 view .LVU1979
 6101 18a2 F4EEE76A 		vcmpe.f32	s13, s15
 6102 18a6 F1EE10FA 		vmrs	APSR_nzcv, FPSCR
 6103 18aa 4DDD     		ble	.L405
 6104              	.LBE784:
 6105              	.LBE790:
 652:src/main.cpp  ****             led1_target    = sqrtf(sqrtf(l2_raw)) * prs_mult;  // middle tent
 6106              		.loc 6 652 54 view .LVU1980
 6107 18ac F6EE006A 		vmov.f32	s13, #5.0e-1
 6108              	.LVL509:
 650:src/main.cpp  ****             float l3_raw   = 2.0f * p01 - 1.0f;                 if(l3_raw < 0) l3_raw = 0;
 6109              		.loc 6 650 19 view .LVU1981
 6110 18b0 B0EE006A 		vmov.f32	s12, #2.0e+0
 6111              	.LVL510:
 651:src/main.cpp  ****             float l2_raw   = 1.0f - 2.0f * fabsf(p01 - 0.5f);   if(l2_raw < 0) l2_raw = 0;
 6112              		.loc 6 651 19 view .LVU1982
 6113 18b4 FFEE00CA 		vmov.f32	s25, #-1.0e+0
 652:src/main.cpp  ****             led1_target    = sqrtf(sqrtf(l2_raw)) * prs_mult;  // middle tent
 6114              		.loc 6 652 19 view .LVU1983
 6115 18b8 B0EE67CA 		vmov.f32	s24, s15
 6116 18bc FEF7BCBF 		b	.L425
 6117              	.LVL511:
 6118              	.L308:
 651:src/main.cpp  ****             float l2_raw   = 1.0f - 2.0f * fabsf(p01 - 0.5f);   if(l2_raw < 0) l2_raw = 0;
 6119              		.loc 6 651 87 view .LVU1984
 6120 18c0 DFED68CA 		vldr.32	s25, .L473+40
 6121              	.LVL512:
 6122              	.L242:
 652:src/main.cpp  ****             led1_target    = sqrtf(sqrtf(l2_raw)) * prs_mult;  // middle tent
 6123              		.loc 6 652 13 is_stmt 1 view .LVU1985
 652:src/main.cpp  ****             led1_target    = sqrtf(sqrtf(l2_raw)) * prs_mult;  // middle tent
 6124              		.loc 6 652 65 view .LVU1986
 651:src/main.cpp  ****             float l2_raw   = 1.0f - 2.0f * fabsf(p01 - 0.5f);   if(l2_raw < 0) l2_raw = 0;
 6125              		.loc 6 651 87 is_stmt 0 view .LVU1987
 6126 18c4 B7EE00CA 		vmov.f32	s24, #1.0e+0
 6127 18c8 9FED667A 		vldr.32	s14, .L473+40
 6128 18cc FEF7D8BF 		b	.L161
 6129              	.LVL513:
 6130              	.L455:
 6131              	.LBB791:
 6132              	.LBB785:
  13:src/dsp.h     **** }
 6133              		.loc 9 13 24 view .LVU1988
 6134 18d0 F4EEE76A 		vcmpe.f32	s13, s15
 6135 18d4 F1EE10FA 		vmrs	APSR_nzcv, FPSCR
ARM GAS  /tmp/claude-502/cc09dAcL.s 			page 165


 6136 18d8 4BDC     		bgt	.L309
 6137 18da FFEE00BA 		vmov.f32	s23, #-1.0e+0
 6138 18de 9FED617A 		vldr.32	s14, .L473+40
 6139 18e2 F0EE67CA 		vmov.f32	s25, s15
 6140 18e6 75E7     		b	.L243
 6141              	.LVL514:
 6142              	.L440:
  13:src/dsp.h     **** }
 6143              		.loc 9 13 24 view .LVU1989
 6144              	.LBE785:
 6145              	.LBE791:
 6146              	.LBE799:
 6147              	.LBE1058:
 728:src/main.cpp  ****                 cycle_pos(g_voice_idx), cycle_total(), VOICE.name);
 6148              		.loc 6 728 13 is_stmt 1 view .LVU1990
 6149 18e8 0C2B     		cmp	r3, #12
 6150              	.LBB1059:
 6151              	.LBB892:
 400:src/voice.h   ****     for(int i = 0; i <= idx && i < NUM_VOICES; i++) if(!VOICES[i].no_cycle) p++;
 6152              		.loc 8 400 9 is_stmt 0 view .LVU1991
 6153 18ea 4FF00001 		mov	r1, #0
 6154 18ee A8BF     		it	ge
 6155 18f0 0C26     		movge	r6, #12
 6156              	.LBB891:
 401:src/voice.h   ****     return p;
 6157              		.loc 8 401 29 view .LVU1992
 6158 18f2 002B     		cmp	r3, #0
 6159 18f4 09DB     		blt	.L199
 6160 18f6 614A     		ldr	r2, .L473+64
 401:src/voice.h   ****     return p;
 6161              		.loc 8 401 13 view .LVU1993
 6162 18f8 0B46     		mov	r3, r1
 6163              	.LVL515:
 6164              	.L201:
 401:src/voice.h   ****     return p;
 6165              		.loc 8 401 53 is_stmt 1 view .LVU1994
 401:src/voice.h   ****     return p;
 6166              		.loc 8 401 77 view .LVU1995
 401:src/voice.h   ****     return p;
 6167              		.loc 8 401 53 is_stmt 0 view .LVU1996
 6168 18fa 92F87C00 		ldrb	r0, [r2, #124]	@ zero_extendqisi2
 401:src/voice.h   ****     return p;
 6169              		.loc 8 401 5 view .LVU1997
 6170 18fe 0133     		adds	r3, r3, #1
 6171              	.LVL516:
 401:src/voice.h   ****     return p;
 6172              		.loc 8 401 29 view .LVU1998
 6173 1900 8C32     		adds	r2, r2, #140
 401:src/voice.h   ****     return p;
 6174              		.loc 8 401 53 view .LVU1999
 6175 1902 00B9     		cbnz	r0, .L200
 401:src/voice.h   ****     return p;
 6176              		.loc 8 401 78 view .LVU2000
 6177 1904 0131     		adds	r1, r1, #1
 6178              	.LVL517:
 6179              	.L200:
 401:src/voice.h   ****     return p;
ARM GAS  /tmp/claude-502/cc09dAcL.s 			page 166


 6180              		.loc 8 401 5 is_stmt 1 view .LVU2001
 401:src/voice.h   ****     return p;
 6181              		.loc 8 401 29 view .LVU2002
 6182 1906 B342     		cmp	r3, r6
 6183 1908 F7DD     		ble	.L201
 6184              	.LVL518:
 6185              	.L199:
 401:src/voice.h   ****     return p;
 6186              		.loc 8 401 29 is_stmt 0 view .LVU2003
 6187              	.LBE891:
 400:src/voice.h   ****     for(int i = 0; i <= idx && i < NUM_VOICES; i++) if(!VOICES[i].no_cycle) p++;
 6188              		.loc 8 400 9 view .LVU2004
 6189 190a 5C4B     		ldr	r3, .L473+64
 6190              	.LBE892:
 6191              	.LBE1059:
 6192              	.LBB1060:
 6193              	.LBB1061:
 395:src/voice.h   ****     for(int i = 0; i < NUM_VOICES; i++) if(!VOICES[i].no_cycle) n++;
 6194              		.loc 8 395 9 view .LVU2005
 6195 190c 0022     		movs	r2, #0
 6196              	.L203:
 6197              	.LVL519:
 6198              	.LBB1062:
 396:src/voice.h   ****     return n;
 6199              		.loc 8 396 41 is_stmt 1 view .LVU2006
 396:src/voice.h   ****     return n;
 6200              		.loc 8 396 65 view .LVU2007
 396:src/voice.h   ****     return n;
 6201              		.loc 8 396 41 is_stmt 0 view .LVU2008
 6202 190e 93F87C00 		ldrb	r0, [r3, #124]	@ zero_extendqisi2
 396:src/voice.h   ****     return n;
 6203              		.loc 8 396 22 view .LVU2009
 6204 1912 8C33     		adds	r3, r3, #140
 396:src/voice.h   ****     return n;
 6205              		.loc 8 396 41 view .LVU2010
 6206 1914 00B9     		cbnz	r0, .L202
 396:src/voice.h   ****     return n;
 6207              		.loc 8 396 66 view .LVU2011
 6208 1916 0132     		adds	r2, r2, #1
 6209              	.LVL520:
 6210              	.L202:
 396:src/voice.h   ****     return n;
 6211              		.loc 8 396 5 is_stmt 1 view .LVU2012
 396:src/voice.h   ****     return n;
 6212              		.loc 8 396 22 view .LVU2013
 6213 1918 5948     		ldr	r0, .L473+68
 6214 191a 9842     		cmp	r0, r3
 6215 191c F7D1     		bne	.L203
 396:src/voice.h   ****     return n;
 6216              		.loc 8 396 22 is_stmt 0 view .LVU2014
 6217              	.LBE1062:
 397:src/voice.h   **** }
 6218              		.loc 8 397 5 is_stmt 1 view .LVU2015
 6219              	.LVL521:
 397:src/voice.h   **** }
 6220              		.loc 8 397 5 is_stmt 0 view .LVU2016
 6221              	.LBE1061:
ARM GAS  /tmp/claude-502/cc09dAcL.s 			page 167


 6222              	.LBE1060:
 6223              	.LBB1063:
 6224              	.LBI1063:
 126:/Users/reza.kalfane/Workspaces/Daisy/DaisyExamples/libDaisy/src/daisy_seed.h ****     {
 6225              		.loc 1 126 17 is_stmt 1 view .LVU2017
 6226              	.LBE1063:
 729:src/main.cpp  ****         else
 6227              		.loc 6 729 62 is_stmt 0 view .LVU2018
 6228 191e 8C23     		movs	r3, #140
 6229              	.LBB1066:
 6230              	.LBB1064:
 128:/Users/reza.kalfane/Workspaces/Daisy/DaisyExamples/libDaisy/src/daisy_seed.h ****     }
 6231              		.loc 1 128 23 view .LVU2019
 6232 1920 5848     		ldr	r0, .L473+72
 6233              	.LBE1064:
 6234              	.LBE1066:
 729:src/main.cpp  ****         else
 6235              		.loc 6 729 62 view .LVU2020
 6236 1922 03FB05F5 		mul	r5, r3, r5
 6237              	.LVL522:
 6238              	.LBB1067:
 6239              	.LBB1065:
 128:/Users/reza.kalfane/Workspaces/Daisy/DaisyExamples/libDaisy/src/daisy_seed.h ****     }
 6240              		.loc 1 128 23 view .LVU2021
 6241 1926 5AF80530 		ldr	r3, [r10, r5]
 6242 192a FFF7FEFF 		bl	_ZN5daisy6LoggerILNS_17LoggerDestinationE1EE9PrintLineEPKcz
 6243              	.LVL523:
 129:/Users/reza.kalfane/Workspaces/Daisy/DaisyExamples/libDaisy/src/daisy_seed.h **** 
 6244              		.loc 1 129 5 view .LVU2022
 6245 192e FFF7F8B8 		b	.L204
 6246              	.LVL524:
 6247              	.L252:
 129:/Users/reza.kalfane/Workspaces/Daisy/DaisyExamples/libDaisy/src/daisy_seed.h **** 
 6248              		.loc 1 129 5 view .LVU2023
 6249              	.LBE1065:
 6250              	.LBE1067:
 6251              	.LBB1068:
 6252              	.LBB622:
 408:src/main.cpp  ****             if((int32_t)(now - fsr_next_switch) >= 0){
 6253              		.loc 6 408 27 view .LVU2024
 6254 1932 0A9B     		ldr	r3, [sp, #40]
 6255 1934 0B93     		str	r3, [sp, #44]
 6256 1936 FEF705BD 		b	.L68
 6257              	.LVL525:
 6258              	.L253:
 6259              	.LBB620:
 6260              	.LBB618:
 6261              	.LBB616:
 6262              	.LBB593:
 6263              	.LBB592:
 6264              	.LBB591:
 407:src/voice.h   ****         if(!VOICES[n].no_cycle) return n;
 6265              		.loc 8 407 13 view .LVU2025
 6266 193a 1C46     		mov	r4, r3
 6267              	.LVL526:
 407:src/voice.h   ****         if(!VOICES[n].no_cycle) return n;
 6268              		.loc 8 407 13 view .LVU2026
ARM GAS  /tmp/claude-502/cc09dAcL.s 			page 168


 6269 193c 0BE5     		b	.L70
 6270              	.LVL527:
 6271              	.L451:
 407:src/voice.h   ****         if(!VOICES[n].no_cycle) return n;
 6272              		.loc 8 407 13 view .LVU2027
 6273              	.LBE591:
 6274              	.LBE592:
 6275              	.LBE593:
 6276              	.LBE616:
 6277              	.LBB617:
 6278              	.LBB613:
 6279              	.LBB612:
 132:/Users/reza.kalfane/Workspaces/Daisy/DaisyExamples/libDaisy/src/util/PersistentStorage.h ****         }
 6280              		.loc 7 132 48 view .LVU2028
 6281 193e 0821     		movs	r1, #8
 6282 1940 2846     		mov	r0, r5
 6283 1942 FFF7FEFF 		bl	dsy_dma_invalidate_cache_for_buffer
 6284              	.LVL528:
 6285 1946 3DE5     		b	.L77
 6286              	.LVL529:
 6287              	.L405:
 132:/Users/reza.kalfane/Workspaces/Daisy/DaisyExamples/libDaisy/src/util/PersistentStorage.h ****         }
 6288              		.loc 7 132 48 view .LVU2029
 6289              	.LBE612:
 6290              	.LBE613:
 6291              	.LBE617:
 6292              	.LBE618:
 6293              	.LBE620:
 6294              	.LBE622:
 6295              	.LBE1068:
 6296              	.LBB1069:
 6297              	.LBB800:
 652:src/main.cpp  ****             led1_target    = sqrtf(sqrtf(l2_raw)) * prs_mult;  // middle tent
 6298              		.loc 6 652 54 view .LVU2030
 6299 1948 B6EE006A 		vmov.f32	s12, #5.0e-1
 650:src/main.cpp  ****             float l3_raw   = 2.0f * p01 - 1.0f;                 if(l3_raw < 0) l3_raw = 0;
 6300              		.loc 6 650 19 view .LVU2031
 6301 194c F0EE005A 		vmov.f32	s11, #2.0e+0
 6302 1950 F0EE67BA 		vmov.f32	s23, s15
 652:src/main.cpp  ****             led1_target    = sqrtf(sqrtf(l2_raw)) * prs_mult;  // middle tent
 6303              		.loc 6 652 54 view .LVU2032
 6304 1954 37EE466A 		vsub.f32	s12, s14, s12
 651:src/main.cpp  ****             float l2_raw   = 1.0f - 2.0f * fabsf(p01 - 0.5f);   if(l2_raw < 0) l2_raw = 0;
 6305              		.loc 6 651 19 view .LVU2033
 6306 1958 FFEE00CA 		vmov.f32	s25, #-1.0e+0
 650:src/main.cpp  ****             float l3_raw   = 2.0f * p01 - 1.0f;                 if(l3_raw < 0) l3_raw = 0;
 6307              		.loc 6 650 19 view .LVU2034
 6308 195c E7EE65BA 		vfms.f32	s23, s14, s11
 652:src/main.cpp  ****             led1_target    = sqrtf(sqrtf(l2_raw)) * prs_mult;  // middle tent
 6309              		.loc 6 652 49 view .LVU2035
 6310 1960 B0EEC66A 		vabs.f32	s12, s12
 651:src/main.cpp  ****             float l2_raw   = 1.0f - 2.0f * fabsf(p01 - 0.5f);   if(l2_raw < 0) l2_raw = 0;
 6311              		.loc 6 651 19 view .LVU2036
 6312 1964 E7EE25CA 		vfma.f32	s25, s14, s11
 652:src/main.cpp  ****             led1_target    = sqrtf(sqrtf(l2_raw)) * prs_mult;  // middle tent
 6313              		.loc 6 652 19 view .LVU2037
 6314 1968 E6EE657A 		vfms.f32	s15, s12, s11
ARM GAS  /tmp/claude-502/cc09dAcL.s 			page 169


 6315 196c B0EE677A 		vmov.f32	s14, s15
 6316              	.LVL530:
 652:src/main.cpp  ****             led1_target    = sqrtf(sqrtf(l2_raw)) * prs_mult;  // middle tent
 6317              		.loc 6 652 19 view .LVU2038
 6318 1970 30E7     		b	.L243
 6319              	.LVL531:
 6320              	.L309:
 6321              	.LBB792:
 6322              	.LBB786:
  13:src/dsp.h     **** }
 6323              		.loc 9 13 24 view .LVU2039
 6324 1972 F0EE67CA 		vmov.f32	s25, s15
 6325              	.LBE786:
 6326              	.LBE792:
 650:src/main.cpp  ****             float l3_raw   = 2.0f * p01 - 1.0f;                 if(l3_raw < 0) l3_raw = 0;
 6327              		.loc 6 650 87 view .LVU2040
 6328 1976 DFED3BBA 		vldr.32	s23, .L473+40
 6329 197a A3E7     		b	.L242
 6330              	.LVL532:
 6331              	.L437:
 653:src/main.cpp  ****             led2_target    = sqrtf(sqrtf(l1_raw)) * prs_mult;  // pos 0 ramp
 6332              		.loc 6 653 13 is_stmt 1 view .LVU2041
 6333 197c B5EE407A 		vcmp.f32	s14, #0
 6334 1980 F1EE10FA 		vmrs	APSR_nzcv, FPSCR
 6335 1984 7EF57CAF 		bpl	.L161
 653:src/main.cpp  ****             led2_target    = sqrtf(sqrtf(l1_raw)) * prs_mult;  // pos 0 ramp
 6336              		.loc 6 653 35 is_stmt 0 view .LVU2042
 6337 1988 B0EE470A 		vmov.f32	s0, s14
 6338 198c FFF7FEFF 		bl	sqrtf
 6339              	.LVL533:
 6340 1990 FEF778BF 		b	.L164
 6341              	.LVL534:
 6342              	.L58:
 653:src/main.cpp  ****             led2_target    = sqrtf(sqrtf(l1_raw)) * prs_mult;  // pos 0 ramp
 6343              		.loc 6 653 35 view .LVU2043
 6344              	.LBE800:
 6345              	.LBE1069:
 6346              	.LBE1078:
 283:src/main.cpp  ****     hw.PrintLine("Hold FSR pressed 3s to change voice (then every 2s)");
 6347              		.loc 6 283 9 is_stmt 1 view .LVU2044
 6348              	.LBB1079:
 6349              	.LBI1079:
 126:/Users/reza.kalfane/Workspaces/Daisy/DaisyExamples/libDaisy/src/daisy_seed.h ****     {
 6350              		.loc 1 126 17 view .LVU2045
 6351              	.LBB1080:
 128:/Users/reza.kalfane/Workspaces/Daisy/DaisyExamples/libDaisy/src/daisy_seed.h ****     }
 6352              		.loc 1 128 23 is_stmt 0 view .LVU2046
 6353 1994 3C48     		ldr	r0, .L473+76
 6354 1996 FFF7FEFF 		bl	_ZN5daisy6LoggerILNS_17LoggerDestinationE1EE9PrintLineEPKcz
 6355              	.LVL535:
 129:/Users/reza.kalfane/Workspaces/Daisy/DaisyExamples/libDaisy/src/daisy_seed.h **** 
 6356              		.loc 1 129 5 view .LVU2047
 6357 199a FEF74BBC 		b	.L59
 6358              	.LVL536:
 6359              	.L426:
 129:/Users/reza.kalfane/Workspaces/Daisy/DaisyExamples/libDaisy/src/daisy_seed.h **** 
 6360              		.loc 1 129 5 view .LVU2048
ARM GAS  /tmp/claude-502/cc09dAcL.s 			page 170


 6361              	.LBE1080:
 6362              	.LBE1079:
 6363              	.LBB1081:
 6364              	.LBB523:
 6365              	.LBB516:
 6366              	.LBI516:
 117:/Users/reza.kalfane/Workspaces/Daisy/DaisyExamples/libDaisy/src/util/PersistentStorage.h ****     {
 6367              		.loc 7 117 10 is_stmt 1 view .LVU2049
 6368              	.LBB517:
 120:/Users/reza.kalfane/Workspaces/Daisy/DaisyExamples/libDaisy/src/util/PersistentStorage.h ****         s.user_data     = settings_;
 6369              		.loc 7 120 25 is_stmt 0 view .LVU2050
 6370 199e 0123     		movs	r3, #1
 123:/Users/reza.kalfane/Workspaces/Daisy/DaisyExamples/libDaisy/src/util/PersistentStorage.h **** 
 6371              		.loc 7 123 39 view .LVU2051
 6372 19a0 0021     		movs	r1, #0
 6373 19a2 3A48     		ldr	r0, .L473+80
 6374              	.LVL537:
 120:/Users/reza.kalfane/Workspaces/Daisy/DaisyExamples/libDaisy/src/util/PersistentStorage.h ****         s.user_data     = settings_;
 6375              		.loc 7 120 25 view .LVU2052
 6376 19a4 CDE96434 		strd	r3, r4, [sp, #400]
 123:/Users/reza.kalfane/Workspaces/Daisy/DaisyExamples/libDaisy/src/util/PersistentStorage.h **** 
 6377              		.loc 7 123 39 view .LVU2053
 6378 19a8 FFF7FEFF 		bl	_ZN5daisy10QSPIHandle7GetDataEm
 6379              	.LVL538:
 6380 19ac 0546     		mov	r5, r0
 6381              	.LVL539:
 129:/Users/reza.kalfane/Workspaces/Daisy/DaisyExamples/libDaisy/src/util/PersistentStorage.h ****            != System::MemoryRegion::INTERNAL_FLASH)
 6382              		.loc 7 129 42 view .LVU2054
 6383 19ae FFF7FEFF 		bl	_ZN5daisy6System22GetProgramMemoryRegionEv
 6384              	.LVL540:
 129:/Users/reza.kalfane/Workspaces/Daisy/DaisyExamples/libDaisy/src/util/PersistentStorage.h ****            != System::MemoryRegion::INTERNAL_FLASH)
 6385              		.loc 7 129 9 view .LVU2055
 6386 19b2 50BB     		cbnz	r0, .L456
 6387              	.L44:
 6388              	.LVL541:
 6389              	.LBB518:
 6390              	.LBI518:
  42:src/main.cpp  **** };
 6391              		.loc 6 42 10 is_stmt 1 view .LVU2056
 6392              	.LBB519:
  42:src/main.cpp  **** };
 6393              		.loc 6 42 55 view .LVU2057
  42:src/main.cpp  **** };
 6394              		.loc 6 42 55 is_stmt 0 view .LVU2058
 6395              	.LBE519:
 6396              	.LBE518:
 140:/Users/reza.kalfane/Workspaces/Daisy/DaisyExamples/libDaisy/src/util/PersistentStorage.h ****         {
 6397              		.loc 7 140 9 view .LVU2059
 6398 19b4 6B68     		ldr	r3, [r5, #4]
 6399 19b6 9C42     		cmp	r4, r3
 6400 19b8 3EF43BAB 		beq	.L422
 142:/Users/reza.kalfane/Workspaces/Daisy/DaisyExamples/libDaisy/src/util/PersistentStorage.h ****             qspi_.Write(address_offset_, sizeof(s), (uint8_t *)&s);
 6401              		.loc 7 142 24 view .LVU2060
 6402 19bc 0822     		movs	r2, #8
 6403 19be 0021     		movs	r1, #0
 6404 19c0 3248     		ldr	r0, .L473+80
 6405 19c2 FFF7FEFF 		bl	_ZN5daisy10QSPIHandle5EraseEmm
ARM GAS  /tmp/claude-502/cc09dAcL.s 			page 171


 6406              	.LVL542:
 6407              		.loc 7 143 24 view .LVU2061
 6408 19c6 64AB     		add	r3, sp, #400
 6409 19c8 0822     		movs	r2, #8
 6410 19ca 0021     		movs	r1, #0
 6411 19cc 2F48     		ldr	r0, .L473+80
 6412 19ce 0EEE103A 		vmov	s28, r3	@ int
 6413 19d2 FFF7FEFF 		bl	_ZN5daisy10QSPIHandle5WriteEmmPh
 6414              	.LVL543:
 144:/Users/reza.kalfane/Workspaces/Daisy/DaisyExamples/libDaisy/src/util/PersistentStorage.h ****         }
 145:/Users/reza.kalfane/Workspaces/Daisy/DaisyExamples/libDaisy/src/util/PersistentStorage.h ****     }
 6415              		.loc 7 145 5 view .LVU2062
 6416 19d6 FEF72FBB 		b	.L46
 6417              	.LVL544:
 6418              	.L248:
 6419              		.loc 7 145 5 view .LVU2063
 6420              	.LBE517:
 6421              	.LBE516:
 6422              	.LBE523:
 6423              	.LBE1081:
 166:src/main.cpp  ****     float              fsr_active_inv = 1.0f / (float)(fsr_dead - FSR_MIN);
 6424              		.loc 6 166 24 view .LVU2064
 6425 19da 4CF27C43 		movw	r3, #50300
 167:src/main.cpp  **** 
 6426              		.loc 6 167 24 view .LVU2065
 6427 19de DFED2CAA 		vldr.32	s21, .L473+84
 166:src/main.cpp  ****     float              fsr_active_inv = 1.0f / (float)(fsr_dead - FSR_MIN);
 6428              		.loc 6 166 24 view .LVU2066
 6429 19e2 1093     		str	r3, [sp, #64]
 163:src/main.cpp  ****     // Volume stays 100% until pressure passes the deadzone (raw drops below
 6430              		.loc 6 163 24 view .LVU2067
 6431 19e4 4DF2D863 		movw	r3, #55000
 6432 19e8 1793     		str	r3, [sp, #92]
 6433 19ea FEF7BCBB 		b	.L52
 6434              	.LVL545:
 6435              	.L396:
 136:src/main.cpp  ****         capture_baseline(baseline);
 6436              		.loc 6 136 9 is_stmt 1 view .LVU2068
 137:src/main.cpp  ****     }
 6437              		.loc 6 137 25 is_stmt 0 view .LVU2069
 6438 19ee 1C46     		mov	r4, r3
 6439              	.LVL546:
 136:src/main.cpp  ****         capture_baseline(baseline);
 6440              		.loc 6 136 22 view .LVU2070
 6441 19f0 4FF49670 		mov	r0, #300
 137:src/main.cpp  ****     }
 6442              		.loc 6 137 25 view .LVU2071
 6443 19f4 0D93     		str	r3, [sp, #52]
 136:src/main.cpp  ****         capture_baseline(baseline);
 6444              		.loc 6 136 22 view .LVU2072
 6445 19f6 FFF7FEFF 		bl	_ZN5daisy6System5DelayEm
 6446              	.LVL547:
 137:src/main.cpp  ****     }
 6447              		.loc 6 137 9 is_stmt 1 view .LVU2073
 137:src/main.cpp  ****     }
 6448              		.loc 6 137 25 is_stmt 0 view .LVU2074
 6449 19fa 2046     		mov	r0, r4
ARM GAS  /tmp/claude-502/cc09dAcL.s 			page 172


 6450 19fc FFF7FEFF 		bl	_Z16capture_baselinePt
 6451              	.LVL548:
 6452 1a00 FEF733BB 		b	.L49
 6453              	.LVL549:
 6454              	.L247:
 123:src/main.cpp  **** 
 6455              		.loc 6 123 49 view .LVU2075
 6456 1a04 0923     		movs	r3, #9
 6457 1a06 FEF721BB 		b	.L48
 6458              	.LVL550:
 6459              	.L456:
 6460              	.LBB1082:
 6461              	.LBB524:
 6462              	.LBB521:
 6463              	.LBB520:
 132:/Users/reza.kalfane/Workspaces/Daisy/DaisyExamples/libDaisy/src/util/PersistentStorage.h ****         }
 6464              		.loc 7 132 48 view .LVU2076
 6465 1a0a 0821     		movs	r1, #8
 6466 1a0c 2846     		mov	r0, r5
 6467 1a0e FFF7FEFF 		bl	dsy_dma_invalidate_cache_for_buffer
 6468              	.LVL551:
 6469 1a12 CFE7     		b	.L44
 6470              	.LVL552:
 6471              	.L423:
 132:/Users/reza.kalfane/Workspaces/Daisy/DaisyExamples/libDaisy/src/util/PersistentStorage.h ****         }
 6472              		.loc 7 132 48 view .LVU2077
 6473 1a14 1F4B     		ldr	r3, .L473+88
 6474 1a16 0C93     		str	r3, [sp, #48]
 6475 1a18 FEF75BBC 		b	.L62
 6476              	.LVL553:
 6477              	.L249:
 132:/Users/reza.kalfane/Workspaces/Daisy/DaisyExamples/libDaisy/src/util/PersistentStorage.h ****         }
 6478              		.loc 7 132 48 view .LVU2078
 6479              	.LBE520:
 6480              	.LBE521:
 6481              	.LBE524:
 6482              	.LBE1082:
 6483              	.LBB1083:
 6484              	.LBB550:
 400:src/voice.h   ****     for(int i = 0; i <= idx && i < NUM_VOICES; i++) if(!VOICES[i].no_cycle) p++;
 6485              		.loc 8 400 9 view .LVU2079
 6486 1a1c 0021     		movs	r1, #0
 6487 1a1e FEF7E0BB 		b	.L53
 6488              	.LVL554:
 6489              	.L399:
 400:src/voice.h   ****     for(int i = 0; i <= idx && i < NUM_VOICES; i++) if(!VOICES[i].no_cycle) p++;
 6490              		.loc 8 400 9 view .LVU2080
 6491              	.LBE550:
 6492              	.LBE1083:
 6493              	.LBB1084:
 6494              	.LBB1070:
 6495              	.LBB1015:
 6496              	.LBB1012:
 6497              	.LBB1009:
 216:src/main.cpp  ****             float led2   = sqrtf(sqrtf(l1_raw));              // pos 0  (DAC2)
 6498              		.loc 6 216 33 view .LVU2081
 6499 1a22 FFF7FEFF 		bl	sqrtf
ARM GAS  /tmp/claude-502/cc09dAcL.s 			page 173


 6500              	.LVL555:
 6501 1a26 B0EE40CA 		vmov.f32	s24, s0
 6502 1a2a FFF70ABB 		b	.L97
 6503              	.L400:
 217:src/main.cpp  ****             float led3   = sqrtf(sqrtf(l3_raw)) * LED3_INTENSITY; // pos 1 (PWM A0)
 6504              		.loc 6 217 33 view .LVU2082
 6505 1a2e B0EE6B0A 		vmov.f32	s0, s23
 6506 1a32 FFF7FEFF 		bl	sqrtf
 6507              	.LVL556:
 6508 1a36 FFF70CBB 		b	.L100
 6509              	.L474:
 6510 1a3a 00BF     		.align	2
 6511              	.L473:
 6512 1a3c 28010000 		.word	.LC10
 6513 1a40 20000000 		.word	.LANCHOR1+32
 6514 1a44 38010000 		.word	.LC11
 6515 1a48 0000DC43 		.word	1138491392
 6516 1a4c 4CA6AA3E 		.word	1051371084
 6517 1a50 CDCC4C3E 		.word	1045220557
 6518 1a54 00008A42 		.word	1116340224
 6519 1a58 977F8A41 		.word	1099595671
 6520 1a5c C0956C3D 		.word	1030526400
 6521 1a60 68B32A3E 		.word	1042985832
 6522 1a64 00000000 		.word	0
 6523 1a68 0000C842 		.word	1120403456
 6524 1a6c CDCC4C3F 		.word	1061997773
 6525 1a70 6666E63F 		.word	1072064102
 6526 1a74 CDCCCCCC 		.word	-858993459
 6527 1a78 67666666 		.word	1717986919
 6528 1a7c 00000000 		.word	.LANCHOR6
 6529 1a80 1C070000 		.word	.LANCHOR6+1820
 6530 1a84 50010000 		.word	.LC12
 6531 1a88 90000000 		.word	.LC5
 6532 1a8c 00000000 		.word	.LANCHOR1
 6533 1a90 EF4FC637 		.word	935743471
 6534 1a94 00000000 		.word	g_led3_duty
 6535 1a98 9A99593F 		.word	1062836634
 6536 1a9c 9A99193E 		.word	1041865114
 6537              	.L401:
 217:src/main.cpp  ****             float led3   = sqrtf(sqrtf(l3_raw)) * LED3_INTENSITY; // pos 1 (PWM A0)
 6538              		.loc 6 217 33 view .LVU2083
 6539 1aa0 FFF7FEFF 		bl	sqrtf
 6540              	.LVL557:
 6541 1aa4 F0EE40BA 		vmov.f32	s23, s0
 6542              	.LVL558:
 217:src/main.cpp  ****             float led3   = sqrtf(sqrtf(l3_raw)) * LED3_INTENSITY; // pos 1 (PWM A0)
 6543              		.loc 6 217 33 view .LVU2084
 6544 1aa8 FFF7DBBA 		b	.L103
 6545              	.L402:
 218:src/main.cpp  ****             hw.dac.WriteValue(DacHandle::Channel::ONE, (uint16_t)(led1 * LED1_MAX));
 6546              		.loc 6 218 33 view .LVU2085
 6547 1aac B0EE4B0A 		vmov.f32	s0, s22
 6548 1ab0 FFF7FEFF 		bl	sqrtf
 6549              	.LVL559:
 6550 1ab4 FFF7DDBA 		b	.L106
 6551              	.LVL560:
 6552              	.L445:
ARM GAS  /tmp/claude-502/cc09dAcL.s 			page 174


 216:src/main.cpp  ****             float led2   = sqrtf(sqrtf(l1_raw));              // pos 0  (DAC2)
 6553              		.loc 6 216 33 view .LVU2086
 6554 1ab8 B0EE470A 		vmov.f32	s0, s14
 6555 1abc FFF7FEFF 		bl	sqrtf
 6556              	.LVL561:
 216:src/main.cpp  ****             float led2   = sqrtf(sqrtf(l1_raw));              // pos 0  (DAC2)
 6557              		.loc 6 216 33 view .LVU2087
 6558 1ac0 FFF7B7BA 		b	.L94
 6559              	.LVL562:
 6560              	.L403:
 218:src/main.cpp  ****             hw.dac.WriteValue(DacHandle::Channel::ONE, (uint16_t)(led1 * LED1_MAX));
 6561              		.loc 6 218 33 view .LVU2088
 6562 1ac4 FFF7FEFF 		bl	sqrtf
 6563              	.LVL563:
 6564 1ac8 B0EE407A 		vmov.f32	s14, s0
 6565 1acc FFF7D9BA 		b	.L109
 6566              	.LVL564:
 6567              	.L410:
 218:src/main.cpp  ****             hw.dac.WriteValue(DacHandle::Channel::ONE, (uint16_t)(led1 * LED1_MAX));
 6568              		.loc 6 218 33 view .LVU2089
 6569              	.LBE1009:
 6570              	.LBE1012:
 6571              	.LBE1015:
 6572              	.LBE1070:
 6573              	.LBB1071:
 6574              	.LBB801:
 655:src/main.cpp  ****         }
 6575              		.loc 6 655 35 view .LVU2090
 6576 1ad0 B0EE6C0A 		vmov.f32	s0, s25
 6577 1ad4 FFF7FEFF 		bl	sqrtf
 6578              	.LVL565:
 6579 1ad8 FEF7F8BE 		b	.L176
 6580              	.LVL566:
 6581              	.L413:
 655:src/main.cpp  ****         }
 6582              		.loc 6 655 35 view .LVU2091
 6583              	.LBE801:
 6584              	.LBE1071:
 6585              	.LBB1072:
 6586              	.LBB887:
 6587              	.LBB877:
 6588              	.LBB843:
 584:src/main.cpp  ****             };
 6589              		.loc 6 584 41 view .LVU2092
 6590 1adc A6EEA45A 		vfma.f32	s10, s13, s9
 6591              	.LBE843:
 6592              	.LBE877:
 705:src/main.cpp  ****             float rm    = smoothstep2(rm_in) * VOICE.ringmod_max;
 6593              		.loc 6 705 41 view .LVU2093
 6594 1ae0 1FED134A 		vldr.32	s8, .L473+92
 6595              	.LBB878:
 6596              	.LBB844:
 584:src/main.cpp  ****             };
 6597              		.loc 6 584 25 view .LVU2094
 6598 1ae4 26EEA67A 		vmul.f32	s14, s13, s13
 6599              	.LBE844:
 6600              	.LBE878:
ARM GAS  /tmp/claude-502/cc09dAcL.s 			page 175


 705:src/main.cpp  ****             float rm    = smoothstep2(rm_in) * VOICE.ringmod_max;
 6601              		.loc 6 705 33 view .LVU2095
 6602 1ae8 5FED143A 		vldr.32	s7, .L473+96
 705:src/main.cpp  ****             float rm    = smoothstep2(rm_in) * VOICE.ringmod_max;
 6603              		.loc 6 705 41 view .LVU2096
 6604 1aec 77EEC44A 		vsub.f32	s9, s15, s8
 6605              	.LBB879:
 6606              	.LBB845:
 584:src/main.cpp  ****             };
 6607              		.loc 6 584 27 view .LVU2097
 6608 1af0 27EE267A 		vmul.f32	s14, s14, s13
 6609              	.LBE845:
 6610              	.LBE879:
 705:src/main.cpp  ****             float rm    = smoothstep2(rm_in) * VOICE.ringmod_max;
 6611              		.loc 6 705 33 view .LVU2098
 6612 1af4 84EEA34A 		vdiv.f32	s8, s9, s7
 6613              	.LBB880:
 6614              	.LBB846:
 584:src/main.cpp  ****             };
 6615              		.loc 6 584 50 view .LVU2099
 6616 1af8 A6EE856A 		vfma.f32	s12, s13, s10
 584:src/main.cpp  ****             };
 6617              		.loc 6 584 57 view .LVU2100
 6618 1afc 27EE067A 		vmul.f32	s14, s14, s12
 6619 1b00 FEF783BF 		b	.L188
 6620              	.LVL567:
 6621              	.L409:
 584:src/main.cpp  ****             };
 6622              		.loc 6 584 57 view .LVU2101
 6623              	.LBE846:
 6624              	.LBE880:
 6625              	.LBE887:
 6626              	.LBE1072:
 6627              	.LBB1073:
 6628              	.LBB802:
 654:src/main.cpp  ****             led3_target    = sqrtf(sqrtf(l3_raw)) * prs_mult * LED3_INTENSITY;
 6629              		.loc 6 654 35 view .LVU2102
 6630 1b04 FFF7FEFF 		bl	sqrtf
 6631              	.LVL568:
 6632 1b08 F0EE406A 		vmov.f32	s13, s0
 6633 1b0c FEF7D4BE 		b	.L173
 6634              	.L408:
 6635 1b10 B0EE6B0A 		vmov.f32	s0, s23
 6636 1b14 FFF7FEFF 		bl	sqrtf
 6637              	.LVL569:
 6638 1b18 FEF7C6BE 		b	.L170
 6639              	.LVL570:
 6640              	.L407:
 653:src/main.cpp  ****             led2_target    = sqrtf(sqrtf(l1_raw)) * prs_mult;  // pos 0 ramp
 6641              		.loc 6 653 35 view .LVU2103
 6642 1b1c FFF7FEFF 		bl	sqrtf
 6643              	.LVL571:
 6644 1b20 B0EE407A 		vmov.f32	s14, s0
 6645 1b24 FEF7B6BE 		b	.L167
 6646              	.LVL572:
 6647              	.L411:
 655:src/main.cpp  ****         }
ARM GAS  /tmp/claude-502/cc09dAcL.s 			page 176


 6648              		.loc 6 655 35 view .LVU2104
 6649 1b28 FFF7FEFF 		bl	sqrtf
 6650              	.LVL573:
 6651 1b2c F0EE407A 		vmov.f32	s15, s0
 6652 1b30 FEF7D4BE 		b	.L179
 6653              	.LBE802:
 6654              	.LBE1073:
 6655              	.LBE1084:
 6656              		.cfi_endproc
 6657              	.LFE2580:
 6659              		.section	.text.startup._GLOBAL__sub_I_g_voice_idx,"ax",%progbits
 6660              		.align	1
 6661              		.p2align 2,,3
 6662              		.syntax unified
 6663              		.thumb
 6664              		.thumb_func
 6666              	_GLOBAL__sub_I_g_voice_idx:
 6667              	.LFB2632:
 779:src/main.cpp  ****     }
 780:src/main.cpp  **** }
 6668              		.loc 6 780 1 is_stmt 1 view -0
 6669              		.cfi_startproc
 6670              		@ args = 0, pretend = 0, frame = 0
 6671              		@ frame_needed = 0, uses_anonymous_args = 0
 6672              	.LBB1114:
 6673              	.LBI1114:
 6674              		.loc 6 780 1 view .LVU2106
 6675              	.LVL574:
 6676              	.LBB1115:
 6677              	.LBB1116:
 6678              	.LBI1116:
  21:/Users/reza.kalfane/Workspaces/Daisy/DaisyExamples/libDaisy/src/daisy_seed.h ****     ~DaisySeed() {}
 6679              		.loc 1 21 5 view .LVU2107
 6680              	.LBB1117:
 6681              	.LBB1118:
 6682              	.LBI1118:
 6683              		.file 10 "/Users/reza.kalfane/Workspaces/Daisy/DaisyExamples/libDaisy/src/per/qspi.h"
   1:/Users/reza.kalfane/Workspaces/Daisy/DaisyExamples/libDaisy/src/per/qspi.h **** #ifndef DSY_QSPI
   2:/Users/reza.kalfane/Workspaces/Daisy/DaisyExamples/libDaisy/src/per/qspi.h **** #define DSY_QSPI /**< Macro */
   3:/Users/reza.kalfane/Workspaces/Daisy/DaisyExamples/libDaisy/src/per/qspi.h **** 
   4:/Users/reza.kalfane/Workspaces/Daisy/DaisyExamples/libDaisy/src/per/qspi.h **** #ifndef UNIT_TEST // for unit tests, a dummy implementation
   5:/Users/reza.kalfane/Workspaces/Daisy/DaisyExamples/libDaisy/src/per/qspi.h **** 
   6:/Users/reza.kalfane/Workspaces/Daisy/DaisyExamples/libDaisy/src/per/qspi.h **** #include <cstdint>
   7:/Users/reza.kalfane/Workspaces/Daisy/DaisyExamples/libDaisy/src/per/qspi.h **** #include "daisy_core.h" // Added for dsy_gpio_pin typedef
   8:/Users/reza.kalfane/Workspaces/Daisy/DaisyExamples/libDaisy/src/per/qspi.h **** 
   9:/Users/reza.kalfane/Workspaces/Daisy/DaisyExamples/libDaisy/src/per/qspi.h **** #define DSY_QSPI_TEXT       \
  10:/Users/reza.kalfane/Workspaces/Daisy/DaisyExamples/libDaisy/src/per/qspi.h ****     __attribute__((section( \
  11:/Users/reza.kalfane/Workspaces/Daisy/DaisyExamples/libDaisy/src/per/qspi.h ****         ".qspiflash_text"))) /**< used for reading memory in memory_mapped mode. */
  12:/Users/reza.kalfane/Workspaces/Daisy/DaisyExamples/libDaisy/src/per/qspi.h **** #define DSY_QSPI_DATA       \
  13:/Users/reza.kalfane/Workspaces/Daisy/DaisyExamples/libDaisy/src/per/qspi.h ****     __attribute__((section( \
  14:/Users/reza.kalfane/Workspaces/Daisy/DaisyExamples/libDaisy/src/per/qspi.h ****         ".qspiflash_data"))) /**< used for reading memory in memory_mapped mode. */
  15:/Users/reza.kalfane/Workspaces/Daisy/DaisyExamples/libDaisy/src/per/qspi.h **** #define DSY_QSPI_BSS        \
  16:/Users/reza.kalfane/Workspaces/Daisy/DaisyExamples/libDaisy/src/per/qspi.h ****     __attribute__((section( \
  17:/Users/reza.kalfane/Workspaces/Daisy/DaisyExamples/libDaisy/src/per/qspi.h ****         ".qspiflash_bss"))) /**< used for reading memory in memory_mapped mode. */
  18:/Users/reza.kalfane/Workspaces/Daisy/DaisyExamples/libDaisy/src/per/qspi.h **** 
  19:/Users/reza.kalfane/Workspaces/Daisy/DaisyExamples/libDaisy/src/per/qspi.h **** namespace daisy
  20:/Users/reza.kalfane/Workspaces/Daisy/DaisyExamples/libDaisy/src/per/qspi.h **** {
ARM GAS  /tmp/claude-502/cc09dAcL.s 			page 177


  21:/Users/reza.kalfane/Workspaces/Daisy/DaisyExamples/libDaisy/src/per/qspi.h **** /** @addtogroup serial
  22:/Users/reza.kalfane/Workspaces/Daisy/DaisyExamples/libDaisy/src/per/qspi.h **** @{
  23:/Users/reza.kalfane/Workspaces/Daisy/DaisyExamples/libDaisy/src/per/qspi.h **** */
  24:/Users/reza.kalfane/Workspaces/Daisy/DaisyExamples/libDaisy/src/per/qspi.h **** 
  25:/Users/reza.kalfane/Workspaces/Daisy/DaisyExamples/libDaisy/src/per/qspi.h **** /** 
  26:/Users/reza.kalfane/Workspaces/Daisy/DaisyExamples/libDaisy/src/per/qspi.h ****  Driver for QSPI peripheral to interface with external flash memory. \n 
  27:/Users/reza.kalfane/Workspaces/Daisy/DaisyExamples/libDaisy/src/per/qspi.h ****     Currently supported QSPI Devices: \n 
  28:/Users/reza.kalfane/Workspaces/Daisy/DaisyExamples/libDaisy/src/per/qspi.h ****     * IS25LP080D
  29:/Users/reza.kalfane/Workspaces/Daisy/DaisyExamples/libDaisy/src/per/qspi.h **** */
  30:/Users/reza.kalfane/Workspaces/Daisy/DaisyExamples/libDaisy/src/per/qspi.h **** class QSPIHandle
  31:/Users/reza.kalfane/Workspaces/Daisy/DaisyExamples/libDaisy/src/per/qspi.h **** {
  32:/Users/reza.kalfane/Workspaces/Daisy/DaisyExamples/libDaisy/src/per/qspi.h ****   public:
  33:/Users/reza.kalfane/Workspaces/Daisy/DaisyExamples/libDaisy/src/per/qspi.h ****     enum Result
  34:/Users/reza.kalfane/Workspaces/Daisy/DaisyExamples/libDaisy/src/per/qspi.h ****     {
  35:/Users/reza.kalfane/Workspaces/Daisy/DaisyExamples/libDaisy/src/per/qspi.h ****         OK = 0,
  36:/Users/reza.kalfane/Workspaces/Daisy/DaisyExamples/libDaisy/src/per/qspi.h ****         ERR
  37:/Users/reza.kalfane/Workspaces/Daisy/DaisyExamples/libDaisy/src/per/qspi.h ****     };
  38:/Users/reza.kalfane/Workspaces/Daisy/DaisyExamples/libDaisy/src/per/qspi.h **** 
  39:/Users/reza.kalfane/Workspaces/Daisy/DaisyExamples/libDaisy/src/per/qspi.h ****     /** Indicates the current status of the module. 
  40:/Users/reza.kalfane/Workspaces/Daisy/DaisyExamples/libDaisy/src/per/qspi.h ****          *  Warnings are indicated by a leading W.
  41:/Users/reza.kalfane/Workspaces/Daisy/DaisyExamples/libDaisy/src/per/qspi.h ****          *  Errors are indicated by a leading E and cause an immediate exit.
  42:/Users/reza.kalfane/Workspaces/Daisy/DaisyExamples/libDaisy/src/per/qspi.h ****          * 
  43:/Users/reza.kalfane/Workspaces/Daisy/DaisyExamples/libDaisy/src/per/qspi.h ****          *  \param GOOD - No errors have been reported.
  44:/Users/reza.kalfane/Workspaces/Daisy/DaisyExamples/libDaisy/src/per/qspi.h ****          *  \param E_HAL_ERROR - HAL code did not return HAL_OK.
  45:/Users/reza.kalfane/Workspaces/Daisy/DaisyExamples/libDaisy/src/per/qspi.h ****          *  \param E_SWITCHING_MODES - An error was encountered while switching QSPI peripheral mod
  46:/Users/reza.kalfane/Workspaces/Daisy/DaisyExamples/libDaisy/src/per/qspi.h ****          *  \param E_INVALID_MODE - QSPI should not be written to while the program is executing fr
  47:/Users/reza.kalfane/Workspaces/Daisy/DaisyExamples/libDaisy/src/per/qspi.h ****          */
  48:/Users/reza.kalfane/Workspaces/Daisy/DaisyExamples/libDaisy/src/per/qspi.h ****     enum Status
  49:/Users/reza.kalfane/Workspaces/Daisy/DaisyExamples/libDaisy/src/per/qspi.h ****     {
  50:/Users/reza.kalfane/Workspaces/Daisy/DaisyExamples/libDaisy/src/per/qspi.h ****         GOOD = 0,
  51:/Users/reza.kalfane/Workspaces/Daisy/DaisyExamples/libDaisy/src/per/qspi.h ****         E_HAL_ERROR,
  52:/Users/reza.kalfane/Workspaces/Daisy/DaisyExamples/libDaisy/src/per/qspi.h ****         E_SWITCHING_MODES,
  53:/Users/reza.kalfane/Workspaces/Daisy/DaisyExamples/libDaisy/src/per/qspi.h ****         E_INVALID_MODE,
  54:/Users/reza.kalfane/Workspaces/Daisy/DaisyExamples/libDaisy/src/per/qspi.h ****     };
  55:/Users/reza.kalfane/Workspaces/Daisy/DaisyExamples/libDaisy/src/per/qspi.h **** 
  56:/Users/reza.kalfane/Workspaces/Daisy/DaisyExamples/libDaisy/src/per/qspi.h ****     /** Configuration structure for interfacing with QSPI Driver */
  57:/Users/reza.kalfane/Workspaces/Daisy/DaisyExamples/libDaisy/src/per/qspi.h ****     struct Config
  58:/Users/reza.kalfane/Workspaces/Daisy/DaisyExamples/libDaisy/src/per/qspi.h ****     {
  59:/Users/reza.kalfane/Workspaces/Daisy/DaisyExamples/libDaisy/src/per/qspi.h ****         /** Flash Devices supported. (Both of these are more-or-less the same, just different sizes
  60:/Users/reza.kalfane/Workspaces/Daisy/DaisyExamples/libDaisy/src/per/qspi.h ****         enum Device
  61:/Users/reza.kalfane/Workspaces/Daisy/DaisyExamples/libDaisy/src/per/qspi.h ****         {
  62:/Users/reza.kalfane/Workspaces/Daisy/DaisyExamples/libDaisy/src/per/qspi.h ****             IS25LP080D,  /**< & */
  63:/Users/reza.kalfane/Workspaces/Daisy/DaisyExamples/libDaisy/src/per/qspi.h ****             IS25LP064A,  /**< & */
  64:/Users/reza.kalfane/Workspaces/Daisy/DaisyExamples/libDaisy/src/per/qspi.h ****             DEVICE_LAST, /**< & */
  65:/Users/reza.kalfane/Workspaces/Daisy/DaisyExamples/libDaisy/src/per/qspi.h ****         };
  66:/Users/reza.kalfane/Workspaces/Daisy/DaisyExamples/libDaisy/src/per/qspi.h **** 
  67:/Users/reza.kalfane/Workspaces/Daisy/DaisyExamples/libDaisy/src/per/qspi.h ****         /** 
  68:/Users/reza.kalfane/Workspaces/Daisy/DaisyExamples/libDaisy/src/per/qspi.h ****         Modes of operation.
  69:/Users/reza.kalfane/Workspaces/Daisy/DaisyExamples/libDaisy/src/per/qspi.h ****         Memory Mapped mode: QSPI configured so that the QSPI can be
  70:/Users/reza.kalfane/Workspaces/Daisy/DaisyExamples/libDaisy/src/per/qspi.h ****         read from starting address 0x90000000. Writing is not
  71:/Users/reza.kalfane/Workspaces/Daisy/DaisyExamples/libDaisy/src/per/qspi.h ****         possible in this mode. \n 
  72:/Users/reza.kalfane/Workspaces/Daisy/DaisyExamples/libDaisy/src/per/qspi.h ****         Indirect Polling mode: Device driver enabled. 
  73:/Users/reza.kalfane/Workspaces/Daisy/DaisyExamples/libDaisy/src/per/qspi.h ****         */
  74:/Users/reza.kalfane/Workspaces/Daisy/DaisyExamples/libDaisy/src/per/qspi.h ****         enum Mode
  75:/Users/reza.kalfane/Workspaces/Daisy/DaisyExamples/libDaisy/src/per/qspi.h ****         {
  76:/Users/reza.kalfane/Workspaces/Daisy/DaisyExamples/libDaisy/src/per/qspi.h ****             MEMORY_MAPPED,    /**< & */
  77:/Users/reza.kalfane/Workspaces/Daisy/DaisyExamples/libDaisy/src/per/qspi.h ****             INDIRECT_POLLING, /**< & */
ARM GAS  /tmp/claude-502/cc09dAcL.s 			page 178


  78:/Users/reza.kalfane/Workspaces/Daisy/DaisyExamples/libDaisy/src/per/qspi.h ****             MODE_LAST,
  79:/Users/reza.kalfane/Workspaces/Daisy/DaisyExamples/libDaisy/src/per/qspi.h ****         };
  80:/Users/reza.kalfane/Workspaces/Daisy/DaisyExamples/libDaisy/src/per/qspi.h **** 
  81:/Users/reza.kalfane/Workspaces/Daisy/DaisyExamples/libDaisy/src/per/qspi.h ****         //SCK,  CE# (active low)
  82:/Users/reza.kalfane/Workspaces/Daisy/DaisyExamples/libDaisy/src/per/qspi.h ****         struct
  83:/Users/reza.kalfane/Workspaces/Daisy/DaisyExamples/libDaisy/src/per/qspi.h ****         {
  84:/Users/reza.kalfane/Workspaces/Daisy/DaisyExamples/libDaisy/src/per/qspi.h ****             dsy_gpio_pin io0; /**< & */
  85:/Users/reza.kalfane/Workspaces/Daisy/DaisyExamples/libDaisy/src/per/qspi.h ****             dsy_gpio_pin io1; /**< & */
  86:/Users/reza.kalfane/Workspaces/Daisy/DaisyExamples/libDaisy/src/per/qspi.h ****             dsy_gpio_pin io2; /**< & */
  87:/Users/reza.kalfane/Workspaces/Daisy/DaisyExamples/libDaisy/src/per/qspi.h ****             dsy_gpio_pin io3; /**< & */
  88:/Users/reza.kalfane/Workspaces/Daisy/DaisyExamples/libDaisy/src/per/qspi.h ****             dsy_gpio_pin clk; /**< & */
  89:/Users/reza.kalfane/Workspaces/Daisy/DaisyExamples/libDaisy/src/per/qspi.h ****             dsy_gpio_pin ncs; /**< & */
  90:/Users/reza.kalfane/Workspaces/Daisy/DaisyExamples/libDaisy/src/per/qspi.h ****         } pin_config;
  91:/Users/reza.kalfane/Workspaces/Daisy/DaisyExamples/libDaisy/src/per/qspi.h **** 
  92:/Users/reza.kalfane/Workspaces/Daisy/DaisyExamples/libDaisy/src/per/qspi.h ****         Device device;
  93:/Users/reza.kalfane/Workspaces/Daisy/DaisyExamples/libDaisy/src/per/qspi.h ****         Mode   mode;
  94:/Users/reza.kalfane/Workspaces/Daisy/DaisyExamples/libDaisy/src/per/qspi.h ****     };
  95:/Users/reza.kalfane/Workspaces/Daisy/DaisyExamples/libDaisy/src/per/qspi.h **** 
  96:/Users/reza.kalfane/Workspaces/Daisy/DaisyExamples/libDaisy/src/per/qspi.h ****     /** 
  97:/Users/reza.kalfane/Workspaces/Daisy/DaisyExamples/libDaisy/src/per/qspi.h ****         Initializes QSPI peripheral, and Resets, and prepares memory for access.
  98:/Users/reza.kalfane/Workspaces/Daisy/DaisyExamples/libDaisy/src/per/qspi.h ****         \param config should be populated with the mode, device and pin_config before calling this 
  99:/Users/reza.kalfane/Workspaces/Daisy/DaisyExamples/libDaisy/src/per/qspi.h ****         \return Result::OK or Result::ERR
 100:/Users/reza.kalfane/Workspaces/Daisy/DaisyExamples/libDaisy/src/per/qspi.h ****         */
 101:/Users/reza.kalfane/Workspaces/Daisy/DaisyExamples/libDaisy/src/per/qspi.h ****     Result Init(const Config& config);
 102:/Users/reza.kalfane/Workspaces/Daisy/DaisyExamples/libDaisy/src/per/qspi.h **** 
 103:/Users/reza.kalfane/Workspaces/Daisy/DaisyExamples/libDaisy/src/per/qspi.h ****     /** Returns the current config. */
 104:/Users/reza.kalfane/Workspaces/Daisy/DaisyExamples/libDaisy/src/per/qspi.h ****     const Config& GetConfig() const;
 105:/Users/reza.kalfane/Workspaces/Daisy/DaisyExamples/libDaisy/src/per/qspi.h **** 
 106:/Users/reza.kalfane/Workspaces/Daisy/DaisyExamples/libDaisy/src/per/qspi.h ****     // Couldn't this just be called before anything else in init? That
 107:/Users/reza.kalfane/Workspaces/Daisy/DaisyExamples/libDaisy/src/per/qspi.h ****     // would make manually calling it unnecessary.
 108:/Users/reza.kalfane/Workspaces/Daisy/DaisyExamples/libDaisy/src/per/qspi.h ****     /** 
 109:/Users/reza.kalfane/Workspaces/Daisy/DaisyExamples/libDaisy/src/per/qspi.h ****         Deinitializes the peripheral
 110:/Users/reza.kalfane/Workspaces/Daisy/DaisyExamples/libDaisy/src/per/qspi.h ****         This should be called before reinitializing QSPI in a different mode.
 111:/Users/reza.kalfane/Workspaces/Daisy/DaisyExamples/libDaisy/src/per/qspi.h ****         \return Result::OK or Result::ERR
 112:/Users/reza.kalfane/Workspaces/Daisy/DaisyExamples/libDaisy/src/per/qspi.h ****         */
 113:/Users/reza.kalfane/Workspaces/Daisy/DaisyExamples/libDaisy/src/per/qspi.h ****     Result DeInit();
 114:/Users/reza.kalfane/Workspaces/Daisy/DaisyExamples/libDaisy/src/per/qspi.h **** 
 115:/Users/reza.kalfane/Workspaces/Daisy/DaisyExamples/libDaisy/src/per/qspi.h ****     /** 
 116:/Users/reza.kalfane/Workspaces/Daisy/DaisyExamples/libDaisy/src/per/qspi.h ****         Writes a single page to to the specified address on the QSPI chip.
 117:/Users/reza.kalfane/Workspaces/Daisy/DaisyExamples/libDaisy/src/per/qspi.h ****         For IS25LP*, page size is 256 bytes.
 118:/Users/reza.kalfane/Workspaces/Daisy/DaisyExamples/libDaisy/src/per/qspi.h ****         \param address Address to write to
 119:/Users/reza.kalfane/Workspaces/Daisy/DaisyExamples/libDaisy/src/per/qspi.h ****         \param size Buffer size
 120:/Users/reza.kalfane/Workspaces/Daisy/DaisyExamples/libDaisy/src/per/qspi.h ****         \param buffer Buffer to write
 121:/Users/reza.kalfane/Workspaces/Daisy/DaisyExamples/libDaisy/src/per/qspi.h ****         \return Result::OK or Result::ERR
 122:/Users/reza.kalfane/Workspaces/Daisy/DaisyExamples/libDaisy/src/per/qspi.h ****         */
 123:/Users/reza.kalfane/Workspaces/Daisy/DaisyExamples/libDaisy/src/per/qspi.h ****     Result WritePage(uint32_t address, uint32_t size, uint8_t* buffer);
 124:/Users/reza.kalfane/Workspaces/Daisy/DaisyExamples/libDaisy/src/per/qspi.h **** 
 125:/Users/reza.kalfane/Workspaces/Daisy/DaisyExamples/libDaisy/src/per/qspi.h ****     /** 
 126:/Users/reza.kalfane/Workspaces/Daisy/DaisyExamples/libDaisy/src/per/qspi.h ****         Writes data in buffer to to the QSPI. Starting at address to address+size 
 127:/Users/reza.kalfane/Workspaces/Daisy/DaisyExamples/libDaisy/src/per/qspi.h ****         \param address Address to write to
 128:/Users/reza.kalfane/Workspaces/Daisy/DaisyExamples/libDaisy/src/per/qspi.h ****         \param size Buffer size
 129:/Users/reza.kalfane/Workspaces/Daisy/DaisyExamples/libDaisy/src/per/qspi.h ****         \param buffer Buffer to write
 130:/Users/reza.kalfane/Workspaces/Daisy/DaisyExamples/libDaisy/src/per/qspi.h ****         \return Result::OK or Result::ERR
 131:/Users/reza.kalfane/Workspaces/Daisy/DaisyExamples/libDaisy/src/per/qspi.h ****         */
 132:/Users/reza.kalfane/Workspaces/Daisy/DaisyExamples/libDaisy/src/per/qspi.h ****     Result Write(uint32_t address, uint32_t size, uint8_t* buffer);
 133:/Users/reza.kalfane/Workspaces/Daisy/DaisyExamples/libDaisy/src/per/qspi.h **** 
 134:/Users/reza.kalfane/Workspaces/Daisy/DaisyExamples/libDaisy/src/per/qspi.h ****     /** 
ARM GAS  /tmp/claude-502/cc09dAcL.s 			page 179


 135:/Users/reza.kalfane/Workspaces/Daisy/DaisyExamples/libDaisy/src/per/qspi.h ****         Erases the area specified on the chip.
 136:/Users/reza.kalfane/Workspaces/Daisy/DaisyExamples/libDaisy/src/per/qspi.h ****         Erasures will happen by 4K, 32K or 64K increments.
 137:/Users/reza.kalfane/Workspaces/Daisy/DaisyExamples/libDaisy/src/per/qspi.h ****         Smallest erase possible is 4kB at a time. (on IS25LP*)
 138:/Users/reza.kalfane/Workspaces/Daisy/DaisyExamples/libDaisy/src/per/qspi.h ****         \param start_addr Address to begin erasing from
 139:/Users/reza.kalfane/Workspaces/Daisy/DaisyExamples/libDaisy/src/per/qspi.h ****         \param end_addr  Address to stop erasing at
 140:/Users/reza.kalfane/Workspaces/Daisy/DaisyExamples/libDaisy/src/per/qspi.h ****         \return Result::OK or Result::ERR
 141:/Users/reza.kalfane/Workspaces/Daisy/DaisyExamples/libDaisy/src/per/qspi.h ****         */
 142:/Users/reza.kalfane/Workspaces/Daisy/DaisyExamples/libDaisy/src/per/qspi.h ****     Result Erase(uint32_t start_addr, uint32_t end_addr);
 143:/Users/reza.kalfane/Workspaces/Daisy/DaisyExamples/libDaisy/src/per/qspi.h **** 
 144:/Users/reza.kalfane/Workspaces/Daisy/DaisyExamples/libDaisy/src/per/qspi.h ****     /**  
 145:/Users/reza.kalfane/Workspaces/Daisy/DaisyExamples/libDaisy/src/per/qspi.h ****          Erases a single sector of the chip.  
 146:/Users/reza.kalfane/Workspaces/Daisy/DaisyExamples/libDaisy/src/per/qspi.h ****         TODO: Document the size of this function. 
 147:/Users/reza.kalfane/Workspaces/Daisy/DaisyExamples/libDaisy/src/per/qspi.h ****         \param address Address of sector to erase
 148:/Users/reza.kalfane/Workspaces/Daisy/DaisyExamples/libDaisy/src/per/qspi.h ****         \return Result::OK or Result::ERR
 149:/Users/reza.kalfane/Workspaces/Daisy/DaisyExamples/libDaisy/src/per/qspi.h ****         */
 150:/Users/reza.kalfane/Workspaces/Daisy/DaisyExamples/libDaisy/src/per/qspi.h ****     Result EraseSector(uint32_t address);
 151:/Users/reza.kalfane/Workspaces/Daisy/DaisyExamples/libDaisy/src/per/qspi.h **** 
 152:/Users/reza.kalfane/Workspaces/Daisy/DaisyExamples/libDaisy/src/per/qspi.h ****     /** Returns the current class status. Useful for debugging.
 153:/Users/reza.kalfane/Workspaces/Daisy/DaisyExamples/libDaisy/src/per/qspi.h ****      *  \returns Status
 154:/Users/reza.kalfane/Workspaces/Daisy/DaisyExamples/libDaisy/src/per/qspi.h ****      */
 155:/Users/reza.kalfane/Workspaces/Daisy/DaisyExamples/libDaisy/src/per/qspi.h ****     Status GetStatus();
 156:/Users/reza.kalfane/Workspaces/Daisy/DaisyExamples/libDaisy/src/per/qspi.h **** 
 157:/Users/reza.kalfane/Workspaces/Daisy/DaisyExamples/libDaisy/src/per/qspi.h ****     /** Returns a pointer to the actual memory used 
 158:/Users/reza.kalfane/Workspaces/Daisy/DaisyExamples/libDaisy/src/per/qspi.h ****      *  The memory at this address is read-only
 159:/Users/reza.kalfane/Workspaces/Daisy/DaisyExamples/libDaisy/src/per/qspi.h ****      *  to write to it use the Write function.
 160:/Users/reza.kalfane/Workspaces/Daisy/DaisyExamples/libDaisy/src/per/qspi.h ****      * 
 161:/Users/reza.kalfane/Workspaces/Daisy/DaisyExamples/libDaisy/src/per/qspi.h ****      *  \param offset returns the pointer starting this 
 162:/Users/reza.kalfane/Workspaces/Daisy/DaisyExamples/libDaisy/src/per/qspi.h ****      *                many bytes into the memory
 163:/Users/reza.kalfane/Workspaces/Daisy/DaisyExamples/libDaisy/src/per/qspi.h ****     */
 164:/Users/reza.kalfane/Workspaces/Daisy/DaisyExamples/libDaisy/src/per/qspi.h ****     void* GetData(uint32_t offset = 0);
 165:/Users/reza.kalfane/Workspaces/Daisy/DaisyExamples/libDaisy/src/per/qspi.h **** 
 166:/Users/reza.kalfane/Workspaces/Daisy/DaisyExamples/libDaisy/src/per/qspi.h ****     QSPIHandle() : pimpl_(nullptr) {}
 6684              		.loc 10 166 5 view .LVU2108
 6685              	.LBE1118:
 6686              	.LBE1117:
 6687              	.LBE1116:
 6688              	.LBE1115:
 6689              	.LBE1114:
 6690              		.loc 6 780 1 is_stmt 0 view .LVU2109
 6691 0000 10B5     		push	{r4, lr}
 6692              		.cfi_def_cfa_offset 8
 6693              		.cfi_offset 4, -8
 6694              		.cfi_offset 14, -4
 6695              	.LBB1151:
 6696              	.LBB1150:
 6697              	.LBB1139:
 6698              	.LBB1137:
 6699              	.LBB1123:
 6700              	.LBB1119:
 6701              	.LBB1120:
 6702              		.loc 10 166 34 view .LVU2110
 6703 0002 0948     		ldr	r0, .L477
 6704 0004 0024     		movs	r4, #0
 6705              	.LBE1120:
 6706              	.LBE1119:
 6707              	.LBE1123:
 6708              	.LBE1137:
ARM GAS  /tmp/claude-502/cc09dAcL.s 			page 180


 6709              	.LBE1139:
  58:src/main.cpp  **** GPIO      led3;  // software-PWM LED on A0 (ADC0 / D15 / pin 22)
 6710              		.loc 6 58 11 view .LVU2111
 6711 0006 094A     		ldr	r2, .L477+4
 6712 0008 0949     		ldr	r1, .L477+8
 6713              	.LBB1140:
 6714              	.LBB1138:
 6715              	.LBB1124:
 6716              	.LBB1122:
 6717              	.LBB1121:
 6718              		.loc 10 166 34 view .LVU2112
 6719 000a 0460     		str	r4, [r0]
 6720              	.LVL575:
 6721              		.loc 10 166 34 view .LVU2113
 6722              	.LBE1121:
 6723              	.LBE1122:
 6724              	.LBE1124:
 6725              	.LBB1125:
 6726              	.LBI1125:
  95:/Users/reza.kalfane/Workspaces/Daisy/DaisyExamples/libDaisy/src/hid/audio.h ****     ~AudioHandle() {}
 6727              		.loc 5 95 5 is_stmt 1 view .LVU2114
 6728              	.LBB1126:
 6729              	.LBB1127:
  95:/Users/reza.kalfane/Workspaces/Daisy/DaisyExamples/libDaisy/src/hid/audio.h ****     ~AudioHandle() {}
 6730              		.loc 5 95 35 is_stmt 0 view .LVU2115
 6731 000c 4461     		str	r4, [r0, #20]
 6732              	.LVL576:
  95:/Users/reza.kalfane/Workspaces/Daisy/DaisyExamples/libDaisy/src/hid/audio.h ****     ~AudioHandle() {}
 6733              		.loc 5 95 35 view .LVU2116
 6734              	.LBE1127:
 6735              	.LBE1126:
 6736              	.LBE1125:
 6737              	.LBB1128:
 6738              	.LBI1128:
 109:/Users/reza.kalfane/Workspaces/Daisy/DaisyExamples/libDaisy/src/per/adc.h ****     ~AdcHandle() {}
 6739              		.loc 4 109 5 is_stmt 1 view .LVU2117
 109:/Users/reza.kalfane/Workspaces/Daisy/DaisyExamples/libDaisy/src/per/adc.h ****     ~AdcHandle() {}
 6740              		.loc 4 109 5 is_stmt 0 view .LVU2118
 6741              	.LBE1128:
 6742              	.LBB1129:
 6743              	.LBI1129:
 6744              		.file 11 "/Users/reza.kalfane/Workspaces/Daisy/DaisyExamples/libDaisy/src/per/dac.h"
   1:/Users/reza.kalfane/Workspaces/Daisy/DaisyExamples/libDaisy/src/per/dac.h **** #pragma once
   2:/Users/reza.kalfane/Workspaces/Daisy/DaisyExamples/libDaisy/src/per/dac.h **** #ifndef DSY_DAC_H
   3:/Users/reza.kalfane/Workspaces/Daisy/DaisyExamples/libDaisy/src/per/dac.h **** #define DSY_DAC_H
   4:/Users/reza.kalfane/Workspaces/Daisy/DaisyExamples/libDaisy/src/per/dac.h **** 
   5:/Users/reza.kalfane/Workspaces/Daisy/DaisyExamples/libDaisy/src/per/dac.h **** #include "daisy_core.h"
   6:/Users/reza.kalfane/Workspaces/Daisy/DaisyExamples/libDaisy/src/per/dac.h **** 
   7:/Users/reza.kalfane/Workspaces/Daisy/DaisyExamples/libDaisy/src/per/dac.h **** namespace daisy
   8:/Users/reza.kalfane/Workspaces/Daisy/DaisyExamples/libDaisy/src/per/dac.h **** {
   9:/Users/reza.kalfane/Workspaces/Daisy/DaisyExamples/libDaisy/src/per/dac.h **** /** @brief DAC handle for Built-in DAC Peripheral 
  10:/Users/reza.kalfane/Workspaces/Daisy/DaisyExamples/libDaisy/src/per/dac.h ****  *  @ingroup per_analog
  11:/Users/reza.kalfane/Workspaces/Daisy/DaisyExamples/libDaisy/src/per/dac.h ****  ** 
  12:/Users/reza.kalfane/Workspaces/Daisy/DaisyExamples/libDaisy/src/per/dac.h ****  ** For now only Normal Mode is supported,
  13:/Users/reza.kalfane/Workspaces/Daisy/DaisyExamples/libDaisy/src/per/dac.h ****  ** Sample and hold mode provides reduced power consumption, but requires a bit more setup.
  14:/Users/reza.kalfane/Workspaces/Daisy/DaisyExamples/libDaisy/src/per/dac.h ****  **
  15:/Users/reza.kalfane/Workspaces/Daisy/DaisyExamples/libDaisy/src/per/dac.h ****  ** For now connecting the DAC through other internal peripherals is also not supported.
ARM GAS  /tmp/claude-502/cc09dAcL.s 			page 181


  16:/Users/reza.kalfane/Workspaces/Daisy/DaisyExamples/libDaisy/src/per/dac.h ****  **
  17:/Users/reza.kalfane/Workspaces/Daisy/DaisyExamples/libDaisy/src/per/dac.h ****  ** Since the DAC channels have dedicated pins we don't need to pass in a pin config like with
  18:/Users/reza.kalfane/Workspaces/Daisy/DaisyExamples/libDaisy/src/per/dac.h ****  ** other modules. However, it is still important to not try to use the DAC pins for anything else.
  19:/Users/reza.kalfane/Workspaces/Daisy/DaisyExamples/libDaisy/src/per/dac.h ****  ** DAC Channel 1 is on PA4, and DAC Channel 2 is on PA5
  20:/Users/reza.kalfane/Workspaces/Daisy/DaisyExamples/libDaisy/src/per/dac.h ****  ***/
  21:/Users/reza.kalfane/Workspaces/Daisy/DaisyExamples/libDaisy/src/per/dac.h **** class DacHandle
  22:/Users/reza.kalfane/Workspaces/Daisy/DaisyExamples/libDaisy/src/per/dac.h **** {
  23:/Users/reza.kalfane/Workspaces/Daisy/DaisyExamples/libDaisy/src/per/dac.h ****   public:
  24:/Users/reza.kalfane/Workspaces/Daisy/DaisyExamples/libDaisy/src/per/dac.h ****     /** Return Values for the DacHandle class */
  25:/Users/reza.kalfane/Workspaces/Daisy/DaisyExamples/libDaisy/src/per/dac.h ****     enum class Result
  26:/Users/reza.kalfane/Workspaces/Daisy/DaisyExamples/libDaisy/src/per/dac.h ****     {
  27:/Users/reza.kalfane/Workspaces/Daisy/DaisyExamples/libDaisy/src/per/dac.h ****         OK,
  28:/Users/reza.kalfane/Workspaces/Daisy/DaisyExamples/libDaisy/src/per/dac.h ****         ERR,
  29:/Users/reza.kalfane/Workspaces/Daisy/DaisyExamples/libDaisy/src/per/dac.h ****     };
  30:/Users/reza.kalfane/Workspaces/Daisy/DaisyExamples/libDaisy/src/per/dac.h **** 
  31:/Users/reza.kalfane/Workspaces/Daisy/DaisyExamples/libDaisy/src/per/dac.h ****     /** Selects which channel(s) will be configured for use. */
  32:/Users/reza.kalfane/Workspaces/Daisy/DaisyExamples/libDaisy/src/per/dac.h ****     enum class Channel
  33:/Users/reza.kalfane/Workspaces/Daisy/DaisyExamples/libDaisy/src/per/dac.h ****     {
  34:/Users/reza.kalfane/Workspaces/Daisy/DaisyExamples/libDaisy/src/per/dac.h ****         ONE,
  35:/Users/reza.kalfane/Workspaces/Daisy/DaisyExamples/libDaisy/src/per/dac.h ****         TWO,
  36:/Users/reza.kalfane/Workspaces/Daisy/DaisyExamples/libDaisy/src/per/dac.h ****         BOTH,
  37:/Users/reza.kalfane/Workspaces/Daisy/DaisyExamples/libDaisy/src/per/dac.h ****     };
  38:/Users/reza.kalfane/Workspaces/Daisy/DaisyExamples/libDaisy/src/per/dac.h **** 
  39:/Users/reza.kalfane/Workspaces/Daisy/DaisyExamples/libDaisy/src/per/dac.h ****     /** Sets the Mode for the DAC channels.
  40:/Users/reza.kalfane/Workspaces/Daisy/DaisyExamples/libDaisy/src/per/dac.h ****      **
  41:/Users/reza.kalfane/Workspaces/Daisy/DaisyExamples/libDaisy/src/per/dac.h ****      ** Polling mode uses the blocking mode to transmit a single value at a time.
  42:/Users/reza.kalfane/Workspaces/Daisy/DaisyExamples/libDaisy/src/per/dac.h ****      **
  43:/Users/reza.kalfane/Workspaces/Daisy/DaisyExamples/libDaisy/src/per/dac.h ****      ** DMA mode uses a buffer, and periodically transmits it triggering a 
  44:/Users/reza.kalfane/Workspaces/Daisy/DaisyExamples/libDaisy/src/per/dac.h ****      ** callback to fill the buffer when it is ready for more samples.
  45:/Users/reza.kalfane/Workspaces/Daisy/DaisyExamples/libDaisy/src/per/dac.h ****      ***/
  46:/Users/reza.kalfane/Workspaces/Daisy/DaisyExamples/libDaisy/src/per/dac.h ****     enum class Mode
  47:/Users/reza.kalfane/Workspaces/Daisy/DaisyExamples/libDaisy/src/per/dac.h ****     {
  48:/Users/reza.kalfane/Workspaces/Daisy/DaisyExamples/libDaisy/src/per/dac.h ****         POLLING,
  49:/Users/reza.kalfane/Workspaces/Daisy/DaisyExamples/libDaisy/src/per/dac.h ****         DMA,
  50:/Users/reza.kalfane/Workspaces/Daisy/DaisyExamples/libDaisy/src/per/dac.h ****     };
  51:/Users/reza.kalfane/Workspaces/Daisy/DaisyExamples/libDaisy/src/per/dac.h **** 
  52:/Users/reza.kalfane/Workspaces/Daisy/DaisyExamples/libDaisy/src/per/dac.h ****     /** Sets the number of bits per sample transmitted out of the DAC.
  53:/Users/reza.kalfane/Workspaces/Daisy/DaisyExamples/libDaisy/src/per/dac.h ****      ** The output range will be: 0V - VDDA
  54:/Users/reza.kalfane/Workspaces/Daisy/DaisyExamples/libDaisy/src/per/dac.h ****      ** The resolution will be roughly: bitdepth / (VDDA - 0V) 
  55:/Users/reza.kalfane/Workspaces/Daisy/DaisyExamples/libDaisy/src/per/dac.h ****      ***/
  56:/Users/reza.kalfane/Workspaces/Daisy/DaisyExamples/libDaisy/src/per/dac.h ****     enum class BitDepth
  57:/Users/reza.kalfane/Workspaces/Daisy/DaisyExamples/libDaisy/src/per/dac.h ****     {
  58:/Users/reza.kalfane/Workspaces/Daisy/DaisyExamples/libDaisy/src/per/dac.h ****         BITS_8,
  59:/Users/reza.kalfane/Workspaces/Daisy/DaisyExamples/libDaisy/src/per/dac.h ****         BITS_12
  60:/Users/reza.kalfane/Workspaces/Daisy/DaisyExamples/libDaisy/src/per/dac.h ****     };
  61:/Users/reza.kalfane/Workspaces/Daisy/DaisyExamples/libDaisy/src/per/dac.h **** 
  62:/Users/reza.kalfane/Workspaces/Daisy/DaisyExamples/libDaisy/src/per/dac.h ****     /** Sets whether the DAC output is buffered for higher drive ability. */
  63:/Users/reza.kalfane/Workspaces/Daisy/DaisyExamples/libDaisy/src/per/dac.h ****     enum class BufferState
  64:/Users/reza.kalfane/Workspaces/Daisy/DaisyExamples/libDaisy/src/per/dac.h ****     {
  65:/Users/reza.kalfane/Workspaces/Daisy/DaisyExamples/libDaisy/src/per/dac.h ****         ENABLED,
  66:/Users/reza.kalfane/Workspaces/Daisy/DaisyExamples/libDaisy/src/per/dac.h ****         DISABLED,
  67:/Users/reza.kalfane/Workspaces/Daisy/DaisyExamples/libDaisy/src/per/dac.h ****     };
  68:/Users/reza.kalfane/Workspaces/Daisy/DaisyExamples/libDaisy/src/per/dac.h **** 
  69:/Users/reza.kalfane/Workspaces/Daisy/DaisyExamples/libDaisy/src/per/dac.h ****     /** Configuration structure for initializing the DAC structure. */
  70:/Users/reza.kalfane/Workspaces/Daisy/DaisyExamples/libDaisy/src/per/dac.h ****     struct Config
  71:/Users/reza.kalfane/Workspaces/Daisy/DaisyExamples/libDaisy/src/per/dac.h ****     {
  72:/Users/reza.kalfane/Workspaces/Daisy/DaisyExamples/libDaisy/src/per/dac.h ****         /** Target Samplerate in Hz used to configure the internal 
ARM GAS  /tmp/claude-502/cc09dAcL.s 			page 182


  73:/Users/reza.kalfane/Workspaces/Daisy/DaisyExamples/libDaisy/src/per/dac.h ****          ** timebase for DMA mode. Does nothing in POLLING mode.
  74:/Users/reza.kalfane/Workspaces/Daisy/DaisyExamples/libDaisy/src/per/dac.h ****          ** If the value is 0 at Init time this will default to 48000Hz 
  75:/Users/reza.kalfane/Workspaces/Daisy/DaisyExamples/libDaisy/src/per/dac.h ****          ** otherwise the driver will attempt meet the target.*/
  76:/Users/reza.kalfane/Workspaces/Daisy/DaisyExamples/libDaisy/src/per/dac.h ****         uint32_t target_samplerate;
  77:/Users/reza.kalfane/Workspaces/Daisy/DaisyExamples/libDaisy/src/per/dac.h **** 
  78:/Users/reza.kalfane/Workspaces/Daisy/DaisyExamples/libDaisy/src/per/dac.h ****         Channel     chn;
  79:/Users/reza.kalfane/Workspaces/Daisy/DaisyExamples/libDaisy/src/per/dac.h ****         Mode        mode;
  80:/Users/reza.kalfane/Workspaces/Daisy/DaisyExamples/libDaisy/src/per/dac.h ****         BitDepth    bitdepth;
  81:/Users/reza.kalfane/Workspaces/Daisy/DaisyExamples/libDaisy/src/per/dac.h ****         BufferState buff_state;
  82:/Users/reza.kalfane/Workspaces/Daisy/DaisyExamples/libDaisy/src/per/dac.h ****     };
  83:/Users/reza.kalfane/Workspaces/Daisy/DaisyExamples/libDaisy/src/per/dac.h **** 
  84:/Users/reza.kalfane/Workspaces/Daisy/DaisyExamples/libDaisy/src/per/dac.h ****     DacHandle() : pimpl_(nullptr) {}
 6745              		.loc 11 84 5 is_stmt 1 view .LVU2119
 6746              	.LBB1130:
 6747              	.LBB1131:
 6748              		.loc 11 84 33 is_stmt 0 view .LVU2120
 6749 000e 0462     		str	r4, [r0, #32]
 6750              	.LVL577:
 6751              		.loc 11 84 33 view .LVU2121
 6752              	.LBE1131:
 6753              	.LBE1130:
 6754              	.LBE1129:
 6755              	.LBB1132:
 6756              	.LBI1132:
  40:/Users/reza.kalfane/Workspaces/Daisy/DaisyExamples/libDaisy/src/hid/usb.h **** 
 6757              		.loc 3 40 5 is_stmt 1 view .LVU2122
  40:/Users/reza.kalfane/Workspaces/Daisy/DaisyExamples/libDaisy/src/hid/usb.h **** 
 6758              		.loc 3 40 5 is_stmt 0 view .LVU2123
 6759              	.LBE1132:
 6760              	.LBB1133:
 6761              	.LBI1133:
  96:/Users/reza.kalfane/Workspaces/Daisy/DaisyExamples/libDaisy/src/sys/system.h ****     ~System() {}
 6762              		.loc 2 96 5 is_stmt 1 view .LVU2124
  96:/Users/reza.kalfane/Workspaces/Daisy/DaisyExamples/libDaisy/src/sys/system.h ****     ~System() {}
 6763              		.loc 2 96 5 is_stmt 0 view .LVU2125
 6764              	.LBE1133:
 6765              	.LBB1134:
 6766              	.LBI1134:
 6767              		.file 12 "/Users/reza.kalfane/Workspaces/Daisy/DaisyExamples/libDaisy/src/per/sai.h"
   1:/Users/reza.kalfane/Workspaces/Daisy/DaisyExamples/libDaisy/src/per/sai.h **** #pragma once
   2:/Users/reza.kalfane/Workspaces/Daisy/DaisyExamples/libDaisy/src/per/sai.h **** #ifndef DSY_SAI_H
   3:/Users/reza.kalfane/Workspaces/Daisy/DaisyExamples/libDaisy/src/per/sai.h **** #define DSY_SAI_H
   4:/Users/reza.kalfane/Workspaces/Daisy/DaisyExamples/libDaisy/src/per/sai.h **** 
   5:/Users/reza.kalfane/Workspaces/Daisy/DaisyExamples/libDaisy/src/per/sai.h **** #include "daisy_core.h"
   6:/Users/reza.kalfane/Workspaces/Daisy/DaisyExamples/libDaisy/src/per/sai.h **** 
   7:/Users/reza.kalfane/Workspaces/Daisy/DaisyExamples/libDaisy/src/per/sai.h **** namespace daisy
   8:/Users/reza.kalfane/Workspaces/Daisy/DaisyExamples/libDaisy/src/per/sai.h **** {
   9:/Users/reza.kalfane/Workspaces/Daisy/DaisyExamples/libDaisy/src/per/sai.h **** /** 
  10:/Users/reza.kalfane/Workspaces/Daisy/DaisyExamples/libDaisy/src/per/sai.h ****  * Support for I2S Audio Protocol with different bit-depth, samplerate options
  11:/Users/reza.kalfane/Workspaces/Daisy/DaisyExamples/libDaisy/src/per/sai.h ****  * Allows for master or slave, as well as freedom of selecting direction, 
  12:/Users/reza.kalfane/Workspaces/Daisy/DaisyExamples/libDaisy/src/per/sai.h ****  * and other behavior for each peripheral, and block.
  13:/Users/reza.kalfane/Workspaces/Daisy/DaisyExamples/libDaisy/src/per/sai.h ****  * 
  14:/Users/reza.kalfane/Workspaces/Daisy/DaisyExamples/libDaisy/src/per/sai.h ****  * DMA Transfer commands must use buffers located within non-cached memory or use cache maintenance
  15:/Users/reza.kalfane/Workspaces/Daisy/DaisyExamples/libDaisy/src/per/sai.h ****  * To declare an unitialized global element in the DMA memory section:
  16:/Users/reza.kalfane/Workspaces/Daisy/DaisyExamples/libDaisy/src/per/sai.h ****  *    int32_t DSY_DMA_BUFFER_SECTOR my_buffer[96];
  17:/Users/reza.kalfane/Workspaces/Daisy/DaisyExamples/libDaisy/src/per/sai.h ****  *
  18:/Users/reza.kalfane/Workspaces/Daisy/DaisyExamples/libDaisy/src/per/sai.h ****  * Callback functions will be called once per half of the buffer. In the above example, 
ARM GAS  /tmp/claude-502/cc09dAcL.s 			page 183


  19:/Users/reza.kalfane/Workspaces/Daisy/DaisyExamples/libDaisy/src/per/sai.h ****  * the callback function would be called once for every 48 samples.
  20:/Users/reza.kalfane/Workspaces/Daisy/DaisyExamples/libDaisy/src/per/sai.h ****  * 
  21:/Users/reza.kalfane/Workspaces/Daisy/DaisyExamples/libDaisy/src/per/sai.h ****  * Use SAI Handle like this:
  22:/Users/reza.kalfane/Workspaces/Daisy/DaisyExamples/libDaisy/src/per/sai.h ****  * 
  23:/Users/reza.kalfane/Workspaces/Daisy/DaisyExamples/libDaisy/src/per/sai.h ****  *  SaiHandle::Config sai_config;
  24:/Users/reza.kalfane/Workspaces/Daisy/DaisyExamples/libDaisy/src/per/sai.h ****  *  sai_config.periph          = SaiHandle::Config::Peripheral::SAI_1;
  25:/Users/reza.kalfane/Workspaces/Daisy/DaisyExamples/libDaisy/src/per/sai.h ****  *  sai_config.sr              = SaiHandle::Config::SampleRate::SAI_48KHZ;
  26:/Users/reza.kalfane/Workspaces/Daisy/DaisyExamples/libDaisy/src/per/sai.h ****  *  sai_config.bit_depth       = SaiHandle::Config::BitDepth::SAI_24BIT;
  27:/Users/reza.kalfane/Workspaces/Daisy/DaisyExamples/libDaisy/src/per/sai.h ****  *  sai_config.a_sync          = SaiHandle::Config::Sync::MASTER;
  28:/Users/reza.kalfane/Workspaces/Daisy/DaisyExamples/libDaisy/src/per/sai.h ****  *  sai_config.b_sync          = SaiHandle::Config::Sync::SLAVE;
  29:/Users/reza.kalfane/Workspaces/Daisy/DaisyExamples/libDaisy/src/per/sai.h ****  *  sai_config.a_dir           = SaiHandle::Config::Direction::RECEIVE;
  30:/Users/reza.kalfane/Workspaces/Daisy/DaisyExamples/libDaisy/src/per/sai.h ****  *  sai_config.b_dir           = SaiHandle::Config::Direction::TRANSMIT;
  31:/Users/reza.kalfane/Workspaces/Daisy/DaisyExamples/libDaisy/src/per/sai.h ****  *  sai_config.pin_config.fs   = {DSY_GPIOE, 4};
  32:/Users/reza.kalfane/Workspaces/Daisy/DaisyExamples/libDaisy/src/per/sai.h ****  *  sai_config.pin_config.mclk = {DSY_GPIOE, 2};
  33:/Users/reza.kalfane/Workspaces/Daisy/DaisyExamples/libDaisy/src/per/sai.h ****  *  sai_config.pin_config.sck  = {DSY_GPIOE, 5};
  34:/Users/reza.kalfane/Workspaces/Daisy/DaisyExamples/libDaisy/src/per/sai.h ****  *  sai_config.pin_config.sa   = {DSY_GPIOE, 6};
  35:/Users/reza.kalfane/Workspaces/Daisy/DaisyExamples/libDaisy/src/per/sai.h ****  *  sai_config.pin_config.sb   = {DSY_GPIOE, 3};
  36:/Users/reza.kalfane/Workspaces/Daisy/DaisyExamples/libDaisy/src/per/sai.h ****  *  // Then Initialize
  37:/Users/reza.kalfane/Workspaces/Daisy/DaisyExamples/libDaisy/src/per/sai.h ****  *  SaiHandle sai;
  38:/Users/reza.kalfane/Workspaces/Daisy/DaisyExamples/libDaisy/src/per/sai.h ****  *  sai.Init(sai_config);
  39:/Users/reza.kalfane/Workspaces/Daisy/DaisyExamples/libDaisy/src/per/sai.h ****  *  // Now you can use it:
  40:/Users/reza.kalfane/Workspaces/Daisy/DaisyExamples/libDaisy/src/per/sai.h ****  *  sai.StartDma(. . .);
  41:/Users/reza.kalfane/Workspaces/Daisy/DaisyExamples/libDaisy/src/per/sai.h ****  */
  42:/Users/reza.kalfane/Workspaces/Daisy/DaisyExamples/libDaisy/src/per/sai.h **** class SaiHandle
  43:/Users/reza.kalfane/Workspaces/Daisy/DaisyExamples/libDaisy/src/per/sai.h **** {
  44:/Users/reza.kalfane/Workspaces/Daisy/DaisyExamples/libDaisy/src/per/sai.h ****   public:
  45:/Users/reza.kalfane/Workspaces/Daisy/DaisyExamples/libDaisy/src/per/sai.h ****     /** Contains settings for initialising an SAI Interface */
  46:/Users/reza.kalfane/Workspaces/Daisy/DaisyExamples/libDaisy/src/per/sai.h ****     struct Config
  47:/Users/reza.kalfane/Workspaces/Daisy/DaisyExamples/libDaisy/src/per/sai.h ****     {
  48:/Users/reza.kalfane/Workspaces/Daisy/DaisyExamples/libDaisy/src/per/sai.h ****         /** Specifies the internal peripheral to use (mapped to different hardware pins) */
  49:/Users/reza.kalfane/Workspaces/Daisy/DaisyExamples/libDaisy/src/per/sai.h ****         enum class Peripheral
  50:/Users/reza.kalfane/Workspaces/Daisy/DaisyExamples/libDaisy/src/per/sai.h ****         {
  51:/Users/reza.kalfane/Workspaces/Daisy/DaisyExamples/libDaisy/src/per/sai.h ****             SAI_1,
  52:/Users/reza.kalfane/Workspaces/Daisy/DaisyExamples/libDaisy/src/per/sai.h ****             SAI_2,
  53:/Users/reza.kalfane/Workspaces/Daisy/DaisyExamples/libDaisy/src/per/sai.h ****         };
  54:/Users/reza.kalfane/Workspaces/Daisy/DaisyExamples/libDaisy/src/per/sai.h **** 
  55:/Users/reza.kalfane/Workspaces/Daisy/DaisyExamples/libDaisy/src/per/sai.h ****         /** Rate at which samples will be streaming to/from the device. */
  56:/Users/reza.kalfane/Workspaces/Daisy/DaisyExamples/libDaisy/src/per/sai.h ****         enum class SampleRate
  57:/Users/reza.kalfane/Workspaces/Daisy/DaisyExamples/libDaisy/src/per/sai.h ****         {
  58:/Users/reza.kalfane/Workspaces/Daisy/DaisyExamples/libDaisy/src/per/sai.h ****             SAI_8KHZ,
  59:/Users/reza.kalfane/Workspaces/Daisy/DaisyExamples/libDaisy/src/per/sai.h ****             SAI_16KHZ,
  60:/Users/reza.kalfane/Workspaces/Daisy/DaisyExamples/libDaisy/src/per/sai.h ****             SAI_32KHZ,
  61:/Users/reza.kalfane/Workspaces/Daisy/DaisyExamples/libDaisy/src/per/sai.h ****             SAI_48KHZ,
  62:/Users/reza.kalfane/Workspaces/Daisy/DaisyExamples/libDaisy/src/per/sai.h ****             SAI_96KHZ,
  63:/Users/reza.kalfane/Workspaces/Daisy/DaisyExamples/libDaisy/src/per/sai.h ****         };
  64:/Users/reza.kalfane/Workspaces/Daisy/DaisyExamples/libDaisy/src/per/sai.h **** 
  65:/Users/reza.kalfane/Workspaces/Daisy/DaisyExamples/libDaisy/src/per/sai.h ****         /** Bit Depth that the hardware expects to be transferred to/from the device. */
  66:/Users/reza.kalfane/Workspaces/Daisy/DaisyExamples/libDaisy/src/per/sai.h ****         enum class BitDepth
  67:/Users/reza.kalfane/Workspaces/Daisy/DaisyExamples/libDaisy/src/per/sai.h ****         {
  68:/Users/reza.kalfane/Workspaces/Daisy/DaisyExamples/libDaisy/src/per/sai.h ****             SAI_16BIT,
  69:/Users/reza.kalfane/Workspaces/Daisy/DaisyExamples/libDaisy/src/per/sai.h ****             SAI_24BIT,
  70:/Users/reza.kalfane/Workspaces/Daisy/DaisyExamples/libDaisy/src/per/sai.h ****             SAI_32BIT,
  71:/Users/reza.kalfane/Workspaces/Daisy/DaisyExamples/libDaisy/src/per/sai.h ****         };
  72:/Users/reza.kalfane/Workspaces/Daisy/DaisyExamples/libDaisy/src/per/sai.h **** 
  73:/Users/reza.kalfane/Workspaces/Daisy/DaisyExamples/libDaisy/src/per/sai.h ****         /** Specifies whether a particular block is the master or the slave 
  74:/Users/reza.kalfane/Workspaces/Daisy/DaisyExamples/libDaisy/src/per/sai.h ****          ** If both are set to slave, no MCLK signal will be used, and it is
  75:/Users/reza.kalfane/Workspaces/Daisy/DaisyExamples/libDaisy/src/per/sai.h ****          ** expected that the codec will have its own xtal.
ARM GAS  /tmp/claude-502/cc09dAcL.s 			page 184


  76:/Users/reza.kalfane/Workspaces/Daisy/DaisyExamples/libDaisy/src/per/sai.h ****          */
  77:/Users/reza.kalfane/Workspaces/Daisy/DaisyExamples/libDaisy/src/per/sai.h ****         enum class Sync
  78:/Users/reza.kalfane/Workspaces/Daisy/DaisyExamples/libDaisy/src/per/sai.h ****         {
  79:/Users/reza.kalfane/Workspaces/Daisy/DaisyExamples/libDaisy/src/per/sai.h ****             MASTER,
  80:/Users/reza.kalfane/Workspaces/Daisy/DaisyExamples/libDaisy/src/per/sai.h ****             SLAVE,
  81:/Users/reza.kalfane/Workspaces/Daisy/DaisyExamples/libDaisy/src/per/sai.h ****         };
  82:/Users/reza.kalfane/Workspaces/Daisy/DaisyExamples/libDaisy/src/per/sai.h **** 
  83:/Users/reza.kalfane/Workspaces/Daisy/DaisyExamples/libDaisy/src/per/sai.h ****         /** Specifies the direction for each peripheral block. */
  84:/Users/reza.kalfane/Workspaces/Daisy/DaisyExamples/libDaisy/src/per/sai.h ****         enum class Direction
  85:/Users/reza.kalfane/Workspaces/Daisy/DaisyExamples/libDaisy/src/per/sai.h ****         {
  86:/Users/reza.kalfane/Workspaces/Daisy/DaisyExamples/libDaisy/src/per/sai.h ****             TRANSMIT,
  87:/Users/reza.kalfane/Workspaces/Daisy/DaisyExamples/libDaisy/src/per/sai.h ****             RECEIVE,
  88:/Users/reza.kalfane/Workspaces/Daisy/DaisyExamples/libDaisy/src/per/sai.h ****         };
  89:/Users/reza.kalfane/Workspaces/Daisy/DaisyExamples/libDaisy/src/per/sai.h **** 
  90:/Users/reza.kalfane/Workspaces/Daisy/DaisyExamples/libDaisy/src/per/sai.h ****         Peripheral periph;
  91:/Users/reza.kalfane/Workspaces/Daisy/DaisyExamples/libDaisy/src/per/sai.h ****         struct
  92:/Users/reza.kalfane/Workspaces/Daisy/DaisyExamples/libDaisy/src/per/sai.h ****         {
  93:/Users/reza.kalfane/Workspaces/Daisy/DaisyExamples/libDaisy/src/per/sai.h ****             dsy_gpio_pin mclk, fs, sck, sa, sb;
  94:/Users/reza.kalfane/Workspaces/Daisy/DaisyExamples/libDaisy/src/per/sai.h ****         } pin_config;
  95:/Users/reza.kalfane/Workspaces/Daisy/DaisyExamples/libDaisy/src/per/sai.h ****         SampleRate sr;
  96:/Users/reza.kalfane/Workspaces/Daisy/DaisyExamples/libDaisy/src/per/sai.h ****         BitDepth   bit_depth;
  97:/Users/reza.kalfane/Workspaces/Daisy/DaisyExamples/libDaisy/src/per/sai.h ****         Sync       a_sync, b_sync;
  98:/Users/reza.kalfane/Workspaces/Daisy/DaisyExamples/libDaisy/src/per/sai.h ****         Direction  a_dir, b_dir;
  99:/Users/reza.kalfane/Workspaces/Daisy/DaisyExamples/libDaisy/src/per/sai.h ****     };
 100:/Users/reza.kalfane/Workspaces/Daisy/DaisyExamples/libDaisy/src/per/sai.h **** 
 101:/Users/reza.kalfane/Workspaces/Daisy/DaisyExamples/libDaisy/src/per/sai.h ****     /** Return values for SAI functions */
 102:/Users/reza.kalfane/Workspaces/Daisy/DaisyExamples/libDaisy/src/per/sai.h ****     enum class Result
 103:/Users/reza.kalfane/Workspaces/Daisy/DaisyExamples/libDaisy/src/per/sai.h ****     {
 104:/Users/reza.kalfane/Workspaces/Daisy/DaisyExamples/libDaisy/src/per/sai.h ****         OK,
 105:/Users/reza.kalfane/Workspaces/Daisy/DaisyExamples/libDaisy/src/per/sai.h ****         ERR,
 106:/Users/reza.kalfane/Workspaces/Daisy/DaisyExamples/libDaisy/src/per/sai.h ****     };
 107:/Users/reza.kalfane/Workspaces/Daisy/DaisyExamples/libDaisy/src/per/sai.h **** 
 108:/Users/reza.kalfane/Workspaces/Daisy/DaisyExamples/libDaisy/src/per/sai.h ****     SaiHandle() : pimpl_(nullptr) {}
 6768              		.loc 12 108 5 is_stmt 1 view .LVU2126
 6769              	.LBB1135:
 6770              	.LBB1136:
 6771              		.loc 12 108 33 is_stmt 0 view .LVU2127
 6772 0010 C463     		str	r4, [r0, #60]
 6773              	.LVL578:
 6774              		.loc 12 108 33 view .LVU2128
 6775              	.LBE1136:
 6776              	.LBE1135:
 6777              	.LBE1134:
 6778              	.LBE1138:
 6779              	.LBE1140:
  58:src/main.cpp  **** GPIO      led3;  // software-PWM LED on A0 (ADC0 / D15 / pin 22)
 6780              		.loc 6 58 11 view .LVU2129
 6781 0012 FFF7FEFF 		bl	__aeabi_atexit
 6782              	.LVL579:
 6783              	.LBB1141:
 6784              	.LBI1141:
 6785              		.file 13 "/Users/reza.kalfane/Workspaces/Daisy/DaisyExamples/libDaisy/src/per/gpio.h"
   1:/Users/reza.kalfane/Workspaces/Daisy/DaisyExamples/libDaisy/src/per/gpio.h **** #pragma once
   2:/Users/reza.kalfane/Workspaces/Daisy/DaisyExamples/libDaisy/src/per/gpio.h **** #ifndef DSY_GPIO_H
   3:/Users/reza.kalfane/Workspaces/Daisy/DaisyExamples/libDaisy/src/per/gpio.h **** #define DSY_GPIO_H
   4:/Users/reza.kalfane/Workspaces/Daisy/DaisyExamples/libDaisy/src/per/gpio.h **** #include "daisy_core.h"
   5:/Users/reza.kalfane/Workspaces/Daisy/DaisyExamples/libDaisy/src/per/gpio.h **** 
ARM GAS  /tmp/claude-502/cc09dAcL.s 			page 185


   6:/Users/reza.kalfane/Workspaces/Daisy/DaisyExamples/libDaisy/src/per/gpio.h **** #ifdef __cplusplus
   7:/Users/reza.kalfane/Workspaces/Daisy/DaisyExamples/libDaisy/src/per/gpio.h **** 
   8:/Users/reza.kalfane/Workspaces/Daisy/DaisyExamples/libDaisy/src/per/gpio.h **** namespace daisy
   9:/Users/reza.kalfane/Workspaces/Daisy/DaisyExamples/libDaisy/src/per/gpio.h **** {
  10:/Users/reza.kalfane/Workspaces/Daisy/DaisyExamples/libDaisy/src/per/gpio.h **** /** @brief General Purpose I/O control 
  11:/Users/reza.kalfane/Workspaces/Daisy/DaisyExamples/libDaisy/src/per/gpio.h ****  *  @details peripheral control over a single GPIO
  12:/Users/reza.kalfane/Workspaces/Daisy/DaisyExamples/libDaisy/src/per/gpio.h ****  *  @ingroup peripheral
  13:/Users/reza.kalfane/Workspaces/Daisy/DaisyExamples/libDaisy/src/per/gpio.h ****  *   
  14:/Users/reza.kalfane/Workspaces/Daisy/DaisyExamples/libDaisy/src/per/gpio.h ****  *  Button Input (with internal Pullup resistor)
  15:/Users/reza.kalfane/Workspaces/Daisy/DaisyExamples/libDaisy/src/per/gpio.h ****  *  @include GPIO_Input.cpp 
  16:/Users/reza.kalfane/Workspaces/Daisy/DaisyExamples/libDaisy/src/per/gpio.h ****  * 
  17:/Users/reza.kalfane/Workspaces/Daisy/DaisyExamples/libDaisy/src/per/gpio.h ****  *  Output Example (perfect for blinking an LED)
  18:/Users/reza.kalfane/Workspaces/Daisy/DaisyExamples/libDaisy/src/per/gpio.h ****  *  @include GPIO_Output.cpp
  19:/Users/reza.kalfane/Workspaces/Daisy/DaisyExamples/libDaisy/src/per/gpio.h ****  * 
  20:/Users/reza.kalfane/Workspaces/Daisy/DaisyExamples/libDaisy/src/per/gpio.h **** */
  21:/Users/reza.kalfane/Workspaces/Daisy/DaisyExamples/libDaisy/src/per/gpio.h **** class GPIO
  22:/Users/reza.kalfane/Workspaces/Daisy/DaisyExamples/libDaisy/src/per/gpio.h **** {
  23:/Users/reza.kalfane/Workspaces/Daisy/DaisyExamples/libDaisy/src/per/gpio.h ****   public:
  24:/Users/reza.kalfane/Workspaces/Daisy/DaisyExamples/libDaisy/src/per/gpio.h ****     /** @brief Mode of operation for the specified GPIO */
  25:/Users/reza.kalfane/Workspaces/Daisy/DaisyExamples/libDaisy/src/per/gpio.h ****     enum class Mode
  26:/Users/reza.kalfane/Workspaces/Daisy/DaisyExamples/libDaisy/src/per/gpio.h ****     {
  27:/Users/reza.kalfane/Workspaces/Daisy/DaisyExamples/libDaisy/src/per/gpio.h ****         INPUT,     /**< Input for reading state of pin */
  28:/Users/reza.kalfane/Workspaces/Daisy/DaisyExamples/libDaisy/src/per/gpio.h ****         OUTPUT,    /**< Output w/ push-pull configuration */
  29:/Users/reza.kalfane/Workspaces/Daisy/DaisyExamples/libDaisy/src/per/gpio.h ****         OUTPUT_OD, /**< Output w/ open-drain configuration */
  30:/Users/reza.kalfane/Workspaces/Daisy/DaisyExamples/libDaisy/src/per/gpio.h ****         ANALOG,    /**< Analog for connection to ADC or DAC peripheral */
  31:/Users/reza.kalfane/Workspaces/Daisy/DaisyExamples/libDaisy/src/per/gpio.h ****     };
  32:/Users/reza.kalfane/Workspaces/Daisy/DaisyExamples/libDaisy/src/per/gpio.h **** 
  33:/Users/reza.kalfane/Workspaces/Daisy/DaisyExamples/libDaisy/src/per/gpio.h ****     /** @brief Configures whether an internal Pull up or Pull down resistor is used. 
  34:/Users/reza.kalfane/Workspaces/Daisy/DaisyExamples/libDaisy/src/per/gpio.h ****      *  
  35:/Users/reza.kalfane/Workspaces/Daisy/DaisyExamples/libDaisy/src/per/gpio.h ****      * Internal Pull up/down resistors are typically 40k ohms, and will be between
  36:/Users/reza.kalfane/Workspaces/Daisy/DaisyExamples/libDaisy/src/per/gpio.h ****      * 30k and 50k
  37:/Users/reza.kalfane/Workspaces/Daisy/DaisyExamples/libDaisy/src/per/gpio.h ****      * 
  38:/Users/reza.kalfane/Workspaces/Daisy/DaisyExamples/libDaisy/src/per/gpio.h ****      * When the Pin is configured in Analog mode, the pull up/down resistors are
  39:/Users/reza.kalfane/Workspaces/Daisy/DaisyExamples/libDaisy/src/per/gpio.h ****      * disabled by hardware. 
  40:/Users/reza.kalfane/Workspaces/Daisy/DaisyExamples/libDaisy/src/per/gpio.h ****      */
  41:/Users/reza.kalfane/Workspaces/Daisy/DaisyExamples/libDaisy/src/per/gpio.h ****     enum class Pull
  42:/Users/reza.kalfane/Workspaces/Daisy/DaisyExamples/libDaisy/src/per/gpio.h ****     {
  43:/Users/reza.kalfane/Workspaces/Daisy/DaisyExamples/libDaisy/src/per/gpio.h ****         NOPULL,   /**< No pull up resistor */
  44:/Users/reza.kalfane/Workspaces/Daisy/DaisyExamples/libDaisy/src/per/gpio.h ****         PULLUP,   /**< Internal pull up enabled */
  45:/Users/reza.kalfane/Workspaces/Daisy/DaisyExamples/libDaisy/src/per/gpio.h ****         PULLDOWN, /**< Internal pull down enabled*/
  46:/Users/reza.kalfane/Workspaces/Daisy/DaisyExamples/libDaisy/src/per/gpio.h ****     };
  47:/Users/reza.kalfane/Workspaces/Daisy/DaisyExamples/libDaisy/src/per/gpio.h **** 
  48:/Users/reza.kalfane/Workspaces/Daisy/DaisyExamples/libDaisy/src/per/gpio.h ****     /** @brief Output speed controls the drive strength, and slew rate of the pin */
  49:/Users/reza.kalfane/Workspaces/Daisy/DaisyExamples/libDaisy/src/per/gpio.h ****     enum class Speed
  50:/Users/reza.kalfane/Workspaces/Daisy/DaisyExamples/libDaisy/src/per/gpio.h ****     {
  51:/Users/reza.kalfane/Workspaces/Daisy/DaisyExamples/libDaisy/src/per/gpio.h ****         LOW,
  52:/Users/reza.kalfane/Workspaces/Daisy/DaisyExamples/libDaisy/src/per/gpio.h ****         MEDIUM,
  53:/Users/reza.kalfane/Workspaces/Daisy/DaisyExamples/libDaisy/src/per/gpio.h ****         HIGH,
  54:/Users/reza.kalfane/Workspaces/Daisy/DaisyExamples/libDaisy/src/per/gpio.h ****         VERY_HIGH,
  55:/Users/reza.kalfane/Workspaces/Daisy/DaisyExamples/libDaisy/src/per/gpio.h ****     };
  56:/Users/reza.kalfane/Workspaces/Daisy/DaisyExamples/libDaisy/src/per/gpio.h **** 
  57:/Users/reza.kalfane/Workspaces/Daisy/DaisyExamples/libDaisy/src/per/gpio.h ****     /** @brief Configuration for a given GPIO */
  58:/Users/reza.kalfane/Workspaces/Daisy/DaisyExamples/libDaisy/src/per/gpio.h ****     struct Config
  59:/Users/reza.kalfane/Workspaces/Daisy/DaisyExamples/libDaisy/src/per/gpio.h ****     {
  60:/Users/reza.kalfane/Workspaces/Daisy/DaisyExamples/libDaisy/src/per/gpio.h ****         Pin   pin;
  61:/Users/reza.kalfane/Workspaces/Daisy/DaisyExamples/libDaisy/src/per/gpio.h ****         Mode  mode;
  62:/Users/reza.kalfane/Workspaces/Daisy/DaisyExamples/libDaisy/src/per/gpio.h ****         Pull  pull;
ARM GAS  /tmp/claude-502/cc09dAcL.s 			page 186


  63:/Users/reza.kalfane/Workspaces/Daisy/DaisyExamples/libDaisy/src/per/gpio.h ****         Speed speed;
  64:/Users/reza.kalfane/Workspaces/Daisy/DaisyExamples/libDaisy/src/per/gpio.h **** 
  65:/Users/reza.kalfane/Workspaces/Daisy/DaisyExamples/libDaisy/src/per/gpio.h ****         /** Constructor with no arguments will prepare an invalid GPIO set as
  66:/Users/reza.kalfane/Workspaces/Daisy/DaisyExamples/libDaisy/src/per/gpio.h ****          *  an input, with no pullup. 
  67:/Users/reza.kalfane/Workspaces/Daisy/DaisyExamples/libDaisy/src/per/gpio.h ****          */
  68:/Users/reza.kalfane/Workspaces/Daisy/DaisyExamples/libDaisy/src/per/gpio.h ****         Config()
  69:/Users/reza.kalfane/Workspaces/Daisy/DaisyExamples/libDaisy/src/per/gpio.h ****         : pin(), mode(Mode::INPUT), pull(Pull::NOPULL), speed(Speed::LOW)
  70:/Users/reza.kalfane/Workspaces/Daisy/DaisyExamples/libDaisy/src/per/gpio.h ****         {
  71:/Users/reza.kalfane/Workspaces/Daisy/DaisyExamples/libDaisy/src/per/gpio.h ****         }
  72:/Users/reza.kalfane/Workspaces/Daisy/DaisyExamples/libDaisy/src/per/gpio.h ****     };
  73:/Users/reza.kalfane/Workspaces/Daisy/DaisyExamples/libDaisy/src/per/gpio.h **** 
  74:/Users/reza.kalfane/Workspaces/Daisy/DaisyExamples/libDaisy/src/per/gpio.h ****     GPIO() {}
 6786              		.loc 13 74 5 is_stmt 1 view .LVU2130
 6787              	.LBB1142:
 6788              	.LBB1143:
 6789              	.LBI1143:
  68:/Users/reza.kalfane/Workspaces/Daisy/DaisyExamples/libDaisy/src/per/gpio.h ****         : pin(), mode(Mode::INPUT), pull(Pull::NOPULL), speed(Speed::LOW)
 6790              		.loc 13 68 9 view .LVU2131
 6791              	.LBB1144:
 6792              	.LBB1145:
 6793              	.LBB1146:
 6794              	.LBI1146:
 6795              		.file 14 "/Users/reza.kalfane/Workspaces/Daisy/DaisyExamples/libDaisy/src/daisy_core.h"
   1:/Users/reza.kalfane/Workspaces/Daisy/DaisyExamples/libDaisy/src/daisy_core.h **** #pragma once
   2:/Users/reza.kalfane/Workspaces/Daisy/DaisyExamples/libDaisy/src/daisy_core.h **** #ifndef DSY_CORE_HW_H
   3:/Users/reza.kalfane/Workspaces/Daisy/DaisyExamples/libDaisy/src/daisy_core.h **** #define DSY_CORE_HW_H /**< & */
   4:/Users/reza.kalfane/Workspaces/Daisy/DaisyExamples/libDaisy/src/daisy_core.h **** #include <stdint.h>
   5:/Users/reza.kalfane/Workspaces/Daisy/DaisyExamples/libDaisy/src/daisy_core.h **** #include <stdlib.h>
   6:/Users/reza.kalfane/Workspaces/Daisy/DaisyExamples/libDaisy/src/daisy_core.h **** 
   7:/Users/reza.kalfane/Workspaces/Daisy/DaisyExamples/libDaisy/src/daisy_core.h **** #if defined(_MSC_VER)
   8:/Users/reza.kalfane/Workspaces/Daisy/DaisyExamples/libDaisy/src/daisy_core.h **** #define FORCE_INLINE __forceinline /**< & */
   9:/Users/reza.kalfane/Workspaces/Daisy/DaisyExamples/libDaisy/src/daisy_core.h **** #elif defined(__clang__)
  10:/Users/reza.kalfane/Workspaces/Daisy/DaisyExamples/libDaisy/src/daisy_core.h **** #define FORCE_INLINE inline __attribute__((always_inline)) /**< & */
  11:/Users/reza.kalfane/Workspaces/Daisy/DaisyExamples/libDaisy/src/daisy_core.h **** #pragma clang diagnostic ignored "-Wduplicate-decl-specifier"
  12:/Users/reza.kalfane/Workspaces/Daisy/DaisyExamples/libDaisy/src/daisy_core.h **** #elif defined(__GNUC__)
  13:/Users/reza.kalfane/Workspaces/Daisy/DaisyExamples/libDaisy/src/daisy_core.h **** #define FORCE_INLINE inline __attribute__((always_inline)) /**< & */
  14:/Users/reza.kalfane/Workspaces/Daisy/DaisyExamples/libDaisy/src/daisy_core.h **** #else
  15:/Users/reza.kalfane/Workspaces/Daisy/DaisyExamples/libDaisy/src/daisy_core.h **** #error unknown compiler
  16:/Users/reza.kalfane/Workspaces/Daisy/DaisyExamples/libDaisy/src/daisy_core.h **** #endif
  17:/Users/reza.kalfane/Workspaces/Daisy/DaisyExamples/libDaisy/src/daisy_core.h **** 
  18:/Users/reza.kalfane/Workspaces/Daisy/DaisyExamples/libDaisy/src/daisy_core.h **** /** @addtogroup utility
  19:/Users/reza.kalfane/Workspaces/Daisy/DaisyExamples/libDaisy/src/daisy_core.h ****     @{
  20:/Users/reza.kalfane/Workspaces/Daisy/DaisyExamples/libDaisy/src/daisy_core.h **** */
  21:/Users/reza.kalfane/Workspaces/Daisy/DaisyExamples/libDaisy/src/daisy_core.h **** 
  22:/Users/reza.kalfane/Workspaces/Daisy/DaisyExamples/libDaisy/src/daisy_core.h **** /** Macro for area of memory that is configured as cacheless
  23:/Users/reza.kalfane/Workspaces/Daisy/DaisyExamples/libDaisy/src/daisy_core.h **** This should be used primarily for DMA buffers, and the like.
  24:/Users/reza.kalfane/Workspaces/Daisy/DaisyExamples/libDaisy/src/daisy_core.h **** */
  25:/Users/reza.kalfane/Workspaces/Daisy/DaisyExamples/libDaisy/src/daisy_core.h **** #define DMA_BUFFER_MEM_SECTION __attribute__((section(".sram1_bss")))
  26:/Users/reza.kalfane/Workspaces/Daisy/DaisyExamples/libDaisy/src/daisy_core.h **** /** 
  27:/Users/reza.kalfane/Workspaces/Daisy/DaisyExamples/libDaisy/src/daisy_core.h **** THE DTCM RAM section is also non-cached. However, is not suitable 
  28:/Users/reza.kalfane/Workspaces/Daisy/DaisyExamples/libDaisy/src/daisy_core.h **** for DMA transfers. Performance is on par with internal SRAM w/ 
  29:/Users/reza.kalfane/Workspaces/Daisy/DaisyExamples/libDaisy/src/daisy_core.h **** cache enabled.
  30:/Users/reza.kalfane/Workspaces/Daisy/DaisyExamples/libDaisy/src/daisy_core.h **** */
  31:/Users/reza.kalfane/Workspaces/Daisy/DaisyExamples/libDaisy/src/daisy_core.h **** #define DTCM_MEM_SECTION __attribute__((section(".dtcmram_bss")))
  32:/Users/reza.kalfane/Workspaces/Daisy/DaisyExamples/libDaisy/src/daisy_core.h **** 
  33:/Users/reza.kalfane/Workspaces/Daisy/DaisyExamples/libDaisy/src/daisy_core.h **** #define FBIPMAX 0.999985f             /**< close to 1.0f-LSB at 16 bit */
  34:/Users/reza.kalfane/Workspaces/Daisy/DaisyExamples/libDaisy/src/daisy_core.h **** #define FBIPMIN (-FBIPMAX)            /**< - (1 - LSB) */
ARM GAS  /tmp/claude-502/cc09dAcL.s 			page 187


  35:/Users/reza.kalfane/Workspaces/Daisy/DaisyExamples/libDaisy/src/daisy_core.h **** #define U82F_SCALE 0.0078740f         /**< 1 / 127 */
  36:/Users/reza.kalfane/Workspaces/Daisy/DaisyExamples/libDaisy/src/daisy_core.h **** #define F2U8_SCALE 127.0f             /**< 128 - 1 */
  37:/Users/reza.kalfane/Workspaces/Daisy/DaisyExamples/libDaisy/src/daisy_core.h **** #define S82F_SCALE 0.0078125f         /**< 1 / (2**7) */
  38:/Users/reza.kalfane/Workspaces/Daisy/DaisyExamples/libDaisy/src/daisy_core.h **** #define F2S8_SCALE 127.0f             /**< (2 ** 7) - 1 */
  39:/Users/reza.kalfane/Workspaces/Daisy/DaisyExamples/libDaisy/src/daisy_core.h **** #define S162F_SCALE 3.0517578125e-05f /**< 1 / (2** 15) */
  40:/Users/reza.kalfane/Workspaces/Daisy/DaisyExamples/libDaisy/src/daisy_core.h **** #define F2S16_SCALE 32767.0f          /**< (2 ** 15) - 1 */
  41:/Users/reza.kalfane/Workspaces/Daisy/DaisyExamples/libDaisy/src/daisy_core.h **** #define F2S24_SCALE 8388608.0f        /**< 2 ** 23 */
  42:/Users/reza.kalfane/Workspaces/Daisy/DaisyExamples/libDaisy/src/daisy_core.h **** #define S242F_SCALE 1.192092896e-07f  /**< 1 / (2 ** 23) */
  43:/Users/reza.kalfane/Workspaces/Daisy/DaisyExamples/libDaisy/src/daisy_core.h **** #define S24SIGN 0x800000              /**< 2 ** 23 */
  44:/Users/reza.kalfane/Workspaces/Daisy/DaisyExamples/libDaisy/src/daisy_core.h **** #define S322F_SCALE 4.6566129e-10f    /**< 1 / (2** 31) */
  45:/Users/reza.kalfane/Workspaces/Daisy/DaisyExamples/libDaisy/src/daisy_core.h **** #define F2S32_SCALE 2147483647.f      /**< (2 ** 31) - 1 */
  46:/Users/reza.kalfane/Workspaces/Daisy/DaisyExamples/libDaisy/src/daisy_core.h **** 
  47:/Users/reza.kalfane/Workspaces/Daisy/DaisyExamples/libDaisy/src/daisy_core.h **** 
  48:/Users/reza.kalfane/Workspaces/Daisy/DaisyExamples/libDaisy/src/daisy_core.h **** /** shorthand macro for simplifying the reading of the left 
  49:/Users/reza.kalfane/Workspaces/Daisy/DaisyExamples/libDaisy/src/daisy_core.h ****  *  channel of a non-interleaved output buffer named out */
  50:/Users/reza.kalfane/Workspaces/Daisy/DaisyExamples/libDaisy/src/daisy_core.h **** #define OUT_L out[0]
  51:/Users/reza.kalfane/Workspaces/Daisy/DaisyExamples/libDaisy/src/daisy_core.h **** 
  52:/Users/reza.kalfane/Workspaces/Daisy/DaisyExamples/libDaisy/src/daisy_core.h **** /** shorthand macro for simplifying the reading of the right 
  53:/Users/reza.kalfane/Workspaces/Daisy/DaisyExamples/libDaisy/src/daisy_core.h ****  *  channel of a non-interleaved output buffer named out */
  54:/Users/reza.kalfane/Workspaces/Daisy/DaisyExamples/libDaisy/src/daisy_core.h **** #define OUT_R out[1]
  55:/Users/reza.kalfane/Workspaces/Daisy/DaisyExamples/libDaisy/src/daisy_core.h **** 
  56:/Users/reza.kalfane/Workspaces/Daisy/DaisyExamples/libDaisy/src/daisy_core.h **** /** shorthand macro for simplifying the reading of the left 
  57:/Users/reza.kalfane/Workspaces/Daisy/DaisyExamples/libDaisy/src/daisy_core.h ****  *  channel of a non-interleaved input buffer named in */
  58:/Users/reza.kalfane/Workspaces/Daisy/DaisyExamples/libDaisy/src/daisy_core.h **** #define IN_L in[0]
  59:/Users/reza.kalfane/Workspaces/Daisy/DaisyExamples/libDaisy/src/daisy_core.h **** 
  60:/Users/reza.kalfane/Workspaces/Daisy/DaisyExamples/libDaisy/src/daisy_core.h **** /** shorthand macro for simplifying the reading of the right 
  61:/Users/reza.kalfane/Workspaces/Daisy/DaisyExamples/libDaisy/src/daisy_core.h ****  *  channel of a non-interleaved input buffer named in */
  62:/Users/reza.kalfane/Workspaces/Daisy/DaisyExamples/libDaisy/src/daisy_core.h **** #define IN_R in[1]
  63:/Users/reza.kalfane/Workspaces/Daisy/DaisyExamples/libDaisy/src/daisy_core.h **** 
  64:/Users/reza.kalfane/Workspaces/Daisy/DaisyExamples/libDaisy/src/daisy_core.h **** /** 
  65:/Users/reza.kalfane/Workspaces/Daisy/DaisyExamples/libDaisy/src/daisy_core.h ****     Computes cube.
  66:/Users/reza.kalfane/Workspaces/Daisy/DaisyExamples/libDaisy/src/daisy_core.h ****     \param x Number to be cubed
  67:/Users/reza.kalfane/Workspaces/Daisy/DaisyExamples/libDaisy/src/daisy_core.h ****     \return x ^ 3
  68:/Users/reza.kalfane/Workspaces/Daisy/DaisyExamples/libDaisy/src/daisy_core.h **** */
  69:/Users/reza.kalfane/Workspaces/Daisy/DaisyExamples/libDaisy/src/daisy_core.h **** FORCE_INLINE float cube(float x)
  70:/Users/reza.kalfane/Workspaces/Daisy/DaisyExamples/libDaisy/src/daisy_core.h **** {
  71:/Users/reza.kalfane/Workspaces/Daisy/DaisyExamples/libDaisy/src/daisy_core.h ****     return (x * x) * x;
  72:/Users/reza.kalfane/Workspaces/Daisy/DaisyExamples/libDaisy/src/daisy_core.h **** }
  73:/Users/reza.kalfane/Workspaces/Daisy/DaisyExamples/libDaisy/src/daisy_core.h **** 
  74:/Users/reza.kalfane/Workspaces/Daisy/DaisyExamples/libDaisy/src/daisy_core.h **** /** 
  75:/Users/reza.kalfane/Workspaces/Daisy/DaisyExamples/libDaisy/src/daisy_core.h ****     Converts unsigned 8-bit to float
  76:/Users/reza.kalfane/Workspaces/Daisy/DaisyExamples/libDaisy/src/daisy_core.h ****     \param x Number to be scaled.
  77:/Users/reza.kalfane/Workspaces/Daisy/DaisyExamples/libDaisy/src/daisy_core.h ****     \return Scaled number.
  78:/Users/reza.kalfane/Workspaces/Daisy/DaisyExamples/libDaisy/src/daisy_core.h **** */
  79:/Users/reza.kalfane/Workspaces/Daisy/DaisyExamples/libDaisy/src/daisy_core.h **** FORCE_INLINE float u82f(uint8_t x)
  80:/Users/reza.kalfane/Workspaces/Daisy/DaisyExamples/libDaisy/src/daisy_core.h **** {
  81:/Users/reza.kalfane/Workspaces/Daisy/DaisyExamples/libDaisy/src/daisy_core.h ****     return ((float)x - 127.f) * U82F_SCALE;
  82:/Users/reza.kalfane/Workspaces/Daisy/DaisyExamples/libDaisy/src/daisy_core.h **** }
  83:/Users/reza.kalfane/Workspaces/Daisy/DaisyExamples/libDaisy/src/daisy_core.h **** 
  84:/Users/reza.kalfane/Workspaces/Daisy/DaisyExamples/libDaisy/src/daisy_core.h **** /**
  85:/Users/reza.kalfane/Workspaces/Daisy/DaisyExamples/libDaisy/src/daisy_core.h ****     Converts float to unsigned 8-bit
  86:/Users/reza.kalfane/Workspaces/Daisy/DaisyExamples/libDaisy/src/daisy_core.h **** */
  87:/Users/reza.kalfane/Workspaces/Daisy/DaisyExamples/libDaisy/src/daisy_core.h **** FORCE_INLINE uint8_t f2u8(float x)
  88:/Users/reza.kalfane/Workspaces/Daisy/DaisyExamples/libDaisy/src/daisy_core.h **** {
  89:/Users/reza.kalfane/Workspaces/Daisy/DaisyExamples/libDaisy/src/daisy_core.h ****     x = x <= FBIPMIN ? FBIPMIN : x;
  90:/Users/reza.kalfane/Workspaces/Daisy/DaisyExamples/libDaisy/src/daisy_core.h ****     x = x >= FBIPMAX ? FBIPMAX : x;
  91:/Users/reza.kalfane/Workspaces/Daisy/DaisyExamples/libDaisy/src/daisy_core.h ****     return (uint8_t)((x * F2U8_SCALE) + F2U8_SCALE);
ARM GAS  /tmp/claude-502/cc09dAcL.s 			page 188


  92:/Users/reza.kalfane/Workspaces/Daisy/DaisyExamples/libDaisy/src/daisy_core.h **** }
  93:/Users/reza.kalfane/Workspaces/Daisy/DaisyExamples/libDaisy/src/daisy_core.h **** 
  94:/Users/reza.kalfane/Workspaces/Daisy/DaisyExamples/libDaisy/src/daisy_core.h **** 
  95:/Users/reza.kalfane/Workspaces/Daisy/DaisyExamples/libDaisy/src/daisy_core.h **** /** 
  96:/Users/reza.kalfane/Workspaces/Daisy/DaisyExamples/libDaisy/src/daisy_core.h ****     Converts Signed 8-bit to float
  97:/Users/reza.kalfane/Workspaces/Daisy/DaisyExamples/libDaisy/src/daisy_core.h ****     \param x Number to be scaled.
  98:/Users/reza.kalfane/Workspaces/Daisy/DaisyExamples/libDaisy/src/daisy_core.h ****     \return Scaled number.
  99:/Users/reza.kalfane/Workspaces/Daisy/DaisyExamples/libDaisy/src/daisy_core.h **** */
 100:/Users/reza.kalfane/Workspaces/Daisy/DaisyExamples/libDaisy/src/daisy_core.h **** FORCE_INLINE float s82f(int8_t x)
 101:/Users/reza.kalfane/Workspaces/Daisy/DaisyExamples/libDaisy/src/daisy_core.h **** {
 102:/Users/reza.kalfane/Workspaces/Daisy/DaisyExamples/libDaisy/src/daisy_core.h ****     return (float)x * S82F_SCALE;
 103:/Users/reza.kalfane/Workspaces/Daisy/DaisyExamples/libDaisy/src/daisy_core.h **** }
 104:/Users/reza.kalfane/Workspaces/Daisy/DaisyExamples/libDaisy/src/daisy_core.h **** 
 105:/Users/reza.kalfane/Workspaces/Daisy/DaisyExamples/libDaisy/src/daisy_core.h **** /**
 106:/Users/reza.kalfane/Workspaces/Daisy/DaisyExamples/libDaisy/src/daisy_core.h ****     Converts float to Signed 8-bit
 107:/Users/reza.kalfane/Workspaces/Daisy/DaisyExamples/libDaisy/src/daisy_core.h **** */
 108:/Users/reza.kalfane/Workspaces/Daisy/DaisyExamples/libDaisy/src/daisy_core.h **** FORCE_INLINE int8_t f2s8(float x)
 109:/Users/reza.kalfane/Workspaces/Daisy/DaisyExamples/libDaisy/src/daisy_core.h **** {
 110:/Users/reza.kalfane/Workspaces/Daisy/DaisyExamples/libDaisy/src/daisy_core.h ****     x = x <= FBIPMIN ? FBIPMIN : x;
 111:/Users/reza.kalfane/Workspaces/Daisy/DaisyExamples/libDaisy/src/daisy_core.h ****     x = x >= FBIPMAX ? FBIPMAX : x;
 112:/Users/reza.kalfane/Workspaces/Daisy/DaisyExamples/libDaisy/src/daisy_core.h ****     return (int32_t)(x * F2S8_SCALE);
 113:/Users/reza.kalfane/Workspaces/Daisy/DaisyExamples/libDaisy/src/daisy_core.h **** }
 114:/Users/reza.kalfane/Workspaces/Daisy/DaisyExamples/libDaisy/src/daisy_core.h **** 
 115:/Users/reza.kalfane/Workspaces/Daisy/DaisyExamples/libDaisy/src/daisy_core.h **** /** 
 116:/Users/reza.kalfane/Workspaces/Daisy/DaisyExamples/libDaisy/src/daisy_core.h ****     Converts Signed 16-bit to float
 117:/Users/reza.kalfane/Workspaces/Daisy/DaisyExamples/libDaisy/src/daisy_core.h ****     \param x Number to be scaled.
 118:/Users/reza.kalfane/Workspaces/Daisy/DaisyExamples/libDaisy/src/daisy_core.h ****     \return Scaled number.
 119:/Users/reza.kalfane/Workspaces/Daisy/DaisyExamples/libDaisy/src/daisy_core.h **** */
 120:/Users/reza.kalfane/Workspaces/Daisy/DaisyExamples/libDaisy/src/daisy_core.h **** FORCE_INLINE float s162f(int16_t x)
 121:/Users/reza.kalfane/Workspaces/Daisy/DaisyExamples/libDaisy/src/daisy_core.h **** {
 122:/Users/reza.kalfane/Workspaces/Daisy/DaisyExamples/libDaisy/src/daisy_core.h ****     return (float)x * S162F_SCALE;
 123:/Users/reza.kalfane/Workspaces/Daisy/DaisyExamples/libDaisy/src/daisy_core.h **** }
 124:/Users/reza.kalfane/Workspaces/Daisy/DaisyExamples/libDaisy/src/daisy_core.h **** 
 125:/Users/reza.kalfane/Workspaces/Daisy/DaisyExamples/libDaisy/src/daisy_core.h **** /**
 126:/Users/reza.kalfane/Workspaces/Daisy/DaisyExamples/libDaisy/src/daisy_core.h ****     Converts float to Signed 16-bit
 127:/Users/reza.kalfane/Workspaces/Daisy/DaisyExamples/libDaisy/src/daisy_core.h **** */
 128:/Users/reza.kalfane/Workspaces/Daisy/DaisyExamples/libDaisy/src/daisy_core.h **** FORCE_INLINE int16_t f2s16(float x)
 129:/Users/reza.kalfane/Workspaces/Daisy/DaisyExamples/libDaisy/src/daisy_core.h **** {
 130:/Users/reza.kalfane/Workspaces/Daisy/DaisyExamples/libDaisy/src/daisy_core.h ****     x = x <= FBIPMIN ? FBIPMIN : x;
 131:/Users/reza.kalfane/Workspaces/Daisy/DaisyExamples/libDaisy/src/daisy_core.h ****     x = x >= FBIPMAX ? FBIPMAX : x;
 132:/Users/reza.kalfane/Workspaces/Daisy/DaisyExamples/libDaisy/src/daisy_core.h ****     return (int32_t)(x * F2S16_SCALE);
 133:/Users/reza.kalfane/Workspaces/Daisy/DaisyExamples/libDaisy/src/daisy_core.h **** }
 134:/Users/reza.kalfane/Workspaces/Daisy/DaisyExamples/libDaisy/src/daisy_core.h **** 
 135:/Users/reza.kalfane/Workspaces/Daisy/DaisyExamples/libDaisy/src/daisy_core.h **** /**
 136:/Users/reza.kalfane/Workspaces/Daisy/DaisyExamples/libDaisy/src/daisy_core.h ****     Converts Signed 24-bit to float
 137:/Users/reza.kalfane/Workspaces/Daisy/DaisyExamples/libDaisy/src/daisy_core.h ****  */
 138:/Users/reza.kalfane/Workspaces/Daisy/DaisyExamples/libDaisy/src/daisy_core.h **** FORCE_INLINE float s242f(int32_t x)
 139:/Users/reza.kalfane/Workspaces/Daisy/DaisyExamples/libDaisy/src/daisy_core.h **** {
 140:/Users/reza.kalfane/Workspaces/Daisy/DaisyExamples/libDaisy/src/daisy_core.h ****     x = (x ^ S24SIGN) - S24SIGN; //sign extend aka ((x<<8)>>8)
 141:/Users/reza.kalfane/Workspaces/Daisy/DaisyExamples/libDaisy/src/daisy_core.h ****     return (float)x * S242F_SCALE;
 142:/Users/reza.kalfane/Workspaces/Daisy/DaisyExamples/libDaisy/src/daisy_core.h **** }
 143:/Users/reza.kalfane/Workspaces/Daisy/DaisyExamples/libDaisy/src/daisy_core.h **** /**
 144:/Users/reza.kalfane/Workspaces/Daisy/DaisyExamples/libDaisy/src/daisy_core.h ****     Converts float to Signed 24-bit
 145:/Users/reza.kalfane/Workspaces/Daisy/DaisyExamples/libDaisy/src/daisy_core.h ****  */
 146:/Users/reza.kalfane/Workspaces/Daisy/DaisyExamples/libDaisy/src/daisy_core.h **** FORCE_INLINE int32_t f2s24(float x)
 147:/Users/reza.kalfane/Workspaces/Daisy/DaisyExamples/libDaisy/src/daisy_core.h **** {
 148:/Users/reza.kalfane/Workspaces/Daisy/DaisyExamples/libDaisy/src/daisy_core.h ****     x = x <= FBIPMIN ? FBIPMIN : x;
ARM GAS  /tmp/claude-502/cc09dAcL.s 			page 189


 149:/Users/reza.kalfane/Workspaces/Daisy/DaisyExamples/libDaisy/src/daisy_core.h ****     x = x >= FBIPMAX ? FBIPMAX : x;
 150:/Users/reza.kalfane/Workspaces/Daisy/DaisyExamples/libDaisy/src/daisy_core.h ****     return (int32_t)(x * F2S24_SCALE);
 151:/Users/reza.kalfane/Workspaces/Daisy/DaisyExamples/libDaisy/src/daisy_core.h **** }
 152:/Users/reza.kalfane/Workspaces/Daisy/DaisyExamples/libDaisy/src/daisy_core.h **** 
 153:/Users/reza.kalfane/Workspaces/Daisy/DaisyExamples/libDaisy/src/daisy_core.h **** /**
 154:/Users/reza.kalfane/Workspaces/Daisy/DaisyExamples/libDaisy/src/daisy_core.h ****     Converts Signed 32-bit to float
 155:/Users/reza.kalfane/Workspaces/Daisy/DaisyExamples/libDaisy/src/daisy_core.h ****  */
 156:/Users/reza.kalfane/Workspaces/Daisy/DaisyExamples/libDaisy/src/daisy_core.h **** FORCE_INLINE float s322f(int32_t x)
 157:/Users/reza.kalfane/Workspaces/Daisy/DaisyExamples/libDaisy/src/daisy_core.h **** {
 158:/Users/reza.kalfane/Workspaces/Daisy/DaisyExamples/libDaisy/src/daisy_core.h ****     return (float)x * S322F_SCALE;
 159:/Users/reza.kalfane/Workspaces/Daisy/DaisyExamples/libDaisy/src/daisy_core.h **** }
 160:/Users/reza.kalfane/Workspaces/Daisy/DaisyExamples/libDaisy/src/daisy_core.h **** /**
 161:/Users/reza.kalfane/Workspaces/Daisy/DaisyExamples/libDaisy/src/daisy_core.h ****     Converts float to Signed 24-bit
 162:/Users/reza.kalfane/Workspaces/Daisy/DaisyExamples/libDaisy/src/daisy_core.h ****  */
 163:/Users/reza.kalfane/Workspaces/Daisy/DaisyExamples/libDaisy/src/daisy_core.h **** FORCE_INLINE int32_t f2s32(float x)
 164:/Users/reza.kalfane/Workspaces/Daisy/DaisyExamples/libDaisy/src/daisy_core.h **** {
 165:/Users/reza.kalfane/Workspaces/Daisy/DaisyExamples/libDaisy/src/daisy_core.h ****     x = x <= FBIPMIN ? FBIPMIN : x;
 166:/Users/reza.kalfane/Workspaces/Daisy/DaisyExamples/libDaisy/src/daisy_core.h ****     x = x >= FBIPMAX ? FBIPMAX : x;
 167:/Users/reza.kalfane/Workspaces/Daisy/DaisyExamples/libDaisy/src/daisy_core.h ****     return (int32_t)(x * F2S32_SCALE);
 168:/Users/reza.kalfane/Workspaces/Daisy/DaisyExamples/libDaisy/src/daisy_core.h **** }
 169:/Users/reza.kalfane/Workspaces/Daisy/DaisyExamples/libDaisy/src/daisy_core.h **** 
 170:/Users/reza.kalfane/Workspaces/Daisy/DaisyExamples/libDaisy/src/daisy_core.h **** 
 171:/Users/reza.kalfane/Workspaces/Daisy/DaisyExamples/libDaisy/src/daisy_core.h **** /** Enums and a simple struct for defining a hardware pin on the MCU
 172:/Users/reza.kalfane/Workspaces/Daisy/DaisyExamples/libDaisy/src/daisy_core.h ****  *  These correlate with the stm32 datasheet, and are used to configure
 173:/Users/reza.kalfane/Workspaces/Daisy/DaisyExamples/libDaisy/src/daisy_core.h ****  *  the hardware.
 174:/Users/reza.kalfane/Workspaces/Daisy/DaisyExamples/libDaisy/src/daisy_core.h ****  * 
 175:/Users/reza.kalfane/Workspaces/Daisy/DaisyExamples/libDaisy/src/daisy_core.h ****  *  This along with the dsy_gpio_pin class should no longer be used.
 176:/Users/reza.kalfane/Workspaces/Daisy/DaisyExamples/libDaisy/src/daisy_core.h ****  *  They are available for backwards compatability. 
 177:/Users/reza.kalfane/Workspaces/Daisy/DaisyExamples/libDaisy/src/daisy_core.h ****  * 
 178:/Users/reza.kalfane/Workspaces/Daisy/DaisyExamples/libDaisy/src/daisy_core.h ****  *  Please use GPIOPort enum and the Pin struct instead.
 179:/Users/reza.kalfane/Workspaces/Daisy/DaisyExamples/libDaisy/src/daisy_core.h ****  */
 180:/Users/reza.kalfane/Workspaces/Daisy/DaisyExamples/libDaisy/src/daisy_core.h **** typedef enum
 181:/Users/reza.kalfane/Workspaces/Daisy/DaisyExamples/libDaisy/src/daisy_core.h **** {
 182:/Users/reza.kalfane/Workspaces/Daisy/DaisyExamples/libDaisy/src/daisy_core.h ****     DSY_GPIOA, /**< & */
 183:/Users/reza.kalfane/Workspaces/Daisy/DaisyExamples/libDaisy/src/daisy_core.h ****     DSY_GPIOB, /**< & */
 184:/Users/reza.kalfane/Workspaces/Daisy/DaisyExamples/libDaisy/src/daisy_core.h ****     DSY_GPIOC, /**< & */
 185:/Users/reza.kalfane/Workspaces/Daisy/DaisyExamples/libDaisy/src/daisy_core.h ****     DSY_GPIOD, /**< & */
 186:/Users/reza.kalfane/Workspaces/Daisy/DaisyExamples/libDaisy/src/daisy_core.h ****     DSY_GPIOE, /**< & */
 187:/Users/reza.kalfane/Workspaces/Daisy/DaisyExamples/libDaisy/src/daisy_core.h ****     DSY_GPIOF, /**< & */
 188:/Users/reza.kalfane/Workspaces/Daisy/DaisyExamples/libDaisy/src/daisy_core.h ****     DSY_GPIOG, /**< & */
 189:/Users/reza.kalfane/Workspaces/Daisy/DaisyExamples/libDaisy/src/daisy_core.h ****     DSY_GPIOH, /**< & */
 190:/Users/reza.kalfane/Workspaces/Daisy/DaisyExamples/libDaisy/src/daisy_core.h ****     DSY_GPIOI, /**< & */
 191:/Users/reza.kalfane/Workspaces/Daisy/DaisyExamples/libDaisy/src/daisy_core.h ****     DSY_GPIOJ, /**< & */
 192:/Users/reza.kalfane/Workspaces/Daisy/DaisyExamples/libDaisy/src/daisy_core.h ****     DSY_GPIOK, /**< & */
 193:/Users/reza.kalfane/Workspaces/Daisy/DaisyExamples/libDaisy/src/daisy_core.h ****     DSY_GPIOX, /** This is a non-existant port for unsupported bits of hardware. */
 194:/Users/reza.kalfane/Workspaces/Daisy/DaisyExamples/libDaisy/src/daisy_core.h ****     DSY_GPIO_LAST, /** Final enum member */
 195:/Users/reza.kalfane/Workspaces/Daisy/DaisyExamples/libDaisy/src/daisy_core.h **** } dsy_gpio_port;
 196:/Users/reza.kalfane/Workspaces/Daisy/DaisyExamples/libDaisy/src/daisy_core.h **** 
 197:/Users/reza.kalfane/Workspaces/Daisy/DaisyExamples/libDaisy/src/daisy_core.h **** /** Hardware define pins 
 198:/Users/reza.kalfane/Workspaces/Daisy/DaisyExamples/libDaisy/src/daisy_core.h ****  *  
 199:/Users/reza.kalfane/Workspaces/Daisy/DaisyExamples/libDaisy/src/daisy_core.h ****  *  The dsy_gpio_pin struct should no longer be used, and is only available for
 200:/Users/reza.kalfane/Workspaces/Daisy/DaisyExamples/libDaisy/src/daisy_core.h ****  *  backwards compatability.
 201:/Users/reza.kalfane/Workspaces/Daisy/DaisyExamples/libDaisy/src/daisy_core.h ****  * 
 202:/Users/reza.kalfane/Workspaces/Daisy/DaisyExamples/libDaisy/src/daisy_core.h ****  *  Please use Pin struct instead.
 203:/Users/reza.kalfane/Workspaces/Daisy/DaisyExamples/libDaisy/src/daisy_core.h ****  */
 204:/Users/reza.kalfane/Workspaces/Daisy/DaisyExamples/libDaisy/src/daisy_core.h **** typedef struct
 205:/Users/reza.kalfane/Workspaces/Daisy/DaisyExamples/libDaisy/src/daisy_core.h **** {
ARM GAS  /tmp/claude-502/cc09dAcL.s 			page 190


 206:/Users/reza.kalfane/Workspaces/Daisy/DaisyExamples/libDaisy/src/daisy_core.h ****     dsy_gpio_port port; /**< & */
 207:/Users/reza.kalfane/Workspaces/Daisy/DaisyExamples/libDaisy/src/daisy_core.h ****     uint8_t       pin;  /**< number 0-15 */
 208:/Users/reza.kalfane/Workspaces/Daisy/DaisyExamples/libDaisy/src/daisy_core.h **** } dsy_gpio_pin;
 209:/Users/reza.kalfane/Workspaces/Daisy/DaisyExamples/libDaisy/src/daisy_core.h **** 
 210:/Users/reza.kalfane/Workspaces/Daisy/DaisyExamples/libDaisy/src/daisy_core.h **** /** Helper for creating pins from port/pin combos easily
 211:/Users/reza.kalfane/Workspaces/Daisy/DaisyExamples/libDaisy/src/daisy_core.h ****  * 
 212:/Users/reza.kalfane/Workspaces/Daisy/DaisyExamples/libDaisy/src/daisy_core.h ****  *  The dsy_gpio_pin struct should no longer be used, and is only available for
 213:/Users/reza.kalfane/Workspaces/Daisy/DaisyExamples/libDaisy/src/daisy_core.h ****  *  backwards compatability.
 214:/Users/reza.kalfane/Workspaces/Daisy/DaisyExamples/libDaisy/src/daisy_core.h ****  * 
 215:/Users/reza.kalfane/Workspaces/Daisy/DaisyExamples/libDaisy/src/daisy_core.h ****  *  Please use Pin struct instead.
 216:/Users/reza.kalfane/Workspaces/Daisy/DaisyExamples/libDaisy/src/daisy_core.h **** */
 217:/Users/reza.kalfane/Workspaces/Daisy/DaisyExamples/libDaisy/src/daisy_core.h **** FORCE_INLINE dsy_gpio_pin dsy_pin(dsy_gpio_port port, uint8_t pin)
 218:/Users/reza.kalfane/Workspaces/Daisy/DaisyExamples/libDaisy/src/daisy_core.h **** {
 219:/Users/reza.kalfane/Workspaces/Daisy/DaisyExamples/libDaisy/src/daisy_core.h ****     dsy_gpio_pin p;
 220:/Users/reza.kalfane/Workspaces/Daisy/DaisyExamples/libDaisy/src/daisy_core.h ****     p.port = port;
 221:/Users/reza.kalfane/Workspaces/Daisy/DaisyExamples/libDaisy/src/daisy_core.h ****     p.pin  = pin;
 222:/Users/reza.kalfane/Workspaces/Daisy/DaisyExamples/libDaisy/src/daisy_core.h ****     return p;
 223:/Users/reza.kalfane/Workspaces/Daisy/DaisyExamples/libDaisy/src/daisy_core.h **** }
 224:/Users/reza.kalfane/Workspaces/Daisy/DaisyExamples/libDaisy/src/daisy_core.h **** 
 225:/Users/reza.kalfane/Workspaces/Daisy/DaisyExamples/libDaisy/src/daisy_core.h **** /** Helper for testing sameness of two dsy_gpio_pins
 226:/Users/reza.kalfane/Workspaces/Daisy/DaisyExamples/libDaisy/src/daisy_core.h ****  *  \return    1 if same, 0 if different
 227:/Users/reza.kalfane/Workspaces/Daisy/DaisyExamples/libDaisy/src/daisy_core.h ****  * 
 228:/Users/reza.kalfane/Workspaces/Daisy/DaisyExamples/libDaisy/src/daisy_core.h ****  *  The dsy_gpio_pin struct should no longer be used, and is only available for
 229:/Users/reza.kalfane/Workspaces/Daisy/DaisyExamples/libDaisy/src/daisy_core.h ****  *  backwards compatability.
 230:/Users/reza.kalfane/Workspaces/Daisy/DaisyExamples/libDaisy/src/daisy_core.h ****  * 
 231:/Users/reza.kalfane/Workspaces/Daisy/DaisyExamples/libDaisy/src/daisy_core.h ****  *  Please use Pin struct instead.
 232:/Users/reza.kalfane/Workspaces/Daisy/DaisyExamples/libDaisy/src/daisy_core.h ****  */
 233:/Users/reza.kalfane/Workspaces/Daisy/DaisyExamples/libDaisy/src/daisy_core.h **** FORCE_INLINE uint8_t dsy_pin_cmp(dsy_gpio_pin *a, dsy_gpio_pin *b)
 234:/Users/reza.kalfane/Workspaces/Daisy/DaisyExamples/libDaisy/src/daisy_core.h **** {
 235:/Users/reza.kalfane/Workspaces/Daisy/DaisyExamples/libDaisy/src/daisy_core.h ****     return ((a->port == b->port) && (a->pin == b->pin));
 236:/Users/reza.kalfane/Workspaces/Daisy/DaisyExamples/libDaisy/src/daisy_core.h **** }
 237:/Users/reza.kalfane/Workspaces/Daisy/DaisyExamples/libDaisy/src/daisy_core.h **** 
 238:/Users/reza.kalfane/Workspaces/Daisy/DaisyExamples/libDaisy/src/daisy_core.h **** #ifdef __cplusplus
 239:/Users/reza.kalfane/Workspaces/Daisy/DaisyExamples/libDaisy/src/daisy_core.h **** 
 240:/Users/reza.kalfane/Workspaces/Daisy/DaisyExamples/libDaisy/src/daisy_core.h **** namespace daisy
 241:/Users/reza.kalfane/Workspaces/Daisy/DaisyExamples/libDaisy/src/daisy_core.h **** {
 242:/Users/reza.kalfane/Workspaces/Daisy/DaisyExamples/libDaisy/src/daisy_core.h **** /** @brief GPIO Port names */
 243:/Users/reza.kalfane/Workspaces/Daisy/DaisyExamples/libDaisy/src/daisy_core.h **** enum GPIOPort
 244:/Users/reza.kalfane/Workspaces/Daisy/DaisyExamples/libDaisy/src/daisy_core.h **** {
 245:/Users/reza.kalfane/Workspaces/Daisy/DaisyExamples/libDaisy/src/daisy_core.h ****     PORTA, /**< Port A */
 246:/Users/reza.kalfane/Workspaces/Daisy/DaisyExamples/libDaisy/src/daisy_core.h ****     PORTB, /**< Port B */
 247:/Users/reza.kalfane/Workspaces/Daisy/DaisyExamples/libDaisy/src/daisy_core.h ****     PORTC, /**< Port C */
 248:/Users/reza.kalfane/Workspaces/Daisy/DaisyExamples/libDaisy/src/daisy_core.h ****     PORTD, /**< Port D */
 249:/Users/reza.kalfane/Workspaces/Daisy/DaisyExamples/libDaisy/src/daisy_core.h ****     PORTE, /**< Port E */
 250:/Users/reza.kalfane/Workspaces/Daisy/DaisyExamples/libDaisy/src/daisy_core.h ****     PORTF, /**< Port F */
 251:/Users/reza.kalfane/Workspaces/Daisy/DaisyExamples/libDaisy/src/daisy_core.h ****     PORTG, /**< Port G */
 252:/Users/reza.kalfane/Workspaces/Daisy/DaisyExamples/libDaisy/src/daisy_core.h ****     PORTH, /**< Port H */
 253:/Users/reza.kalfane/Workspaces/Daisy/DaisyExamples/libDaisy/src/daisy_core.h ****     PORTI, /**< Port I */
 254:/Users/reza.kalfane/Workspaces/Daisy/DaisyExamples/libDaisy/src/daisy_core.h ****     PORTJ, /**< Port J */
 255:/Users/reza.kalfane/Workspaces/Daisy/DaisyExamples/libDaisy/src/daisy_core.h ****     PORTK, /**< Port K */
 256:/Users/reza.kalfane/Workspaces/Daisy/DaisyExamples/libDaisy/src/daisy_core.h ****     PORTX, /**< Used as a dummy port to signal an invalid pin. */
 257:/Users/reza.kalfane/Workspaces/Daisy/DaisyExamples/libDaisy/src/daisy_core.h **** };
 258:/Users/reza.kalfane/Workspaces/Daisy/DaisyExamples/libDaisy/src/daisy_core.h **** 
 259:/Users/reza.kalfane/Workspaces/Daisy/DaisyExamples/libDaisy/src/daisy_core.h **** /** @brief representation of hardware port/pin combination */
 260:/Users/reza.kalfane/Workspaces/Daisy/DaisyExamples/libDaisy/src/daisy_core.h **** struct Pin
 261:/Users/reza.kalfane/Workspaces/Daisy/DaisyExamples/libDaisy/src/daisy_core.h **** {
 262:/Users/reza.kalfane/Workspaces/Daisy/DaisyExamples/libDaisy/src/daisy_core.h ****     GPIOPort port;
ARM GAS  /tmp/claude-502/cc09dAcL.s 			page 191


 263:/Users/reza.kalfane/Workspaces/Daisy/DaisyExamples/libDaisy/src/daisy_core.h ****     uint8_t  pin;
 264:/Users/reza.kalfane/Workspaces/Daisy/DaisyExamples/libDaisy/src/daisy_core.h **** 
 265:/Users/reza.kalfane/Workspaces/Daisy/DaisyExamples/libDaisy/src/daisy_core.h ****     /** @brief Constructor creates a valid pin. 
 266:/Users/reza.kalfane/Workspaces/Daisy/DaisyExamples/libDaisy/src/daisy_core.h ****      *  @param pt GPIOPort between PA, and PK corresponding to STM32 Port.
 267:/Users/reza.kalfane/Workspaces/Daisy/DaisyExamples/libDaisy/src/daisy_core.h ****      *  @param pn pin number in range of 0-15
 268:/Users/reza.kalfane/Workspaces/Daisy/DaisyExamples/libDaisy/src/daisy_core.h ****     */
 269:/Users/reza.kalfane/Workspaces/Daisy/DaisyExamples/libDaisy/src/daisy_core.h ****     constexpr Pin(const GPIOPort pt, const uint8_t pn) : port(pt), pin(pn) {}
 270:/Users/reza.kalfane/Workspaces/Daisy/DaisyExamples/libDaisy/src/daisy_core.h **** 
 271:/Users/reza.kalfane/Workspaces/Daisy/DaisyExamples/libDaisy/src/daisy_core.h ****     /** @brief Basic Constructor creates an invalid Pin object */
 272:/Users/reza.kalfane/Workspaces/Daisy/DaisyExamples/libDaisy/src/daisy_core.h ****     constexpr Pin() : port(PORTX), pin(255) {}
 6796              		.loc 14 272 15 view .LVU2132
 6797              		.loc 14 272 15 is_stmt 0 view .LVU2133
 6798              	.LBE1146:
 6799              	.LBE1145:
 6800              	.LBE1144:
 6801              	.LBE1143:
 6802              		.loc 13 74 12 view .LVU2134
 6803 0016 074B     		ldr	r3, .L477+12
 6804 0018 4FF60B72 		movw	r2, #65291
 6805              	.LBB1149:
 6806              	.LBB1148:
 6807              	.LBB1147:
  69:/Users/reza.kalfane/Workspaces/Daisy/DaisyExamples/libDaisy/src/per/gpio.h ****         {
 6808              		.loc 13 69 73 view .LVU2135
 6809 001c C3E90244 		strd	r4, r4, [r3, #8]
 6810              	.LVL580:
  69:/Users/reza.kalfane/Workspaces/Daisy/DaisyExamples/libDaisy/src/per/gpio.h ****         {
 6811              		.loc 13 69 73 view .LVU2136
 6812              	.LBE1147:
 6813              	.LBE1148:
 6814              	.LBE1149:
 6815              		.loc 13 74 12 view .LVU2137
 6816 0020 C3E90024 		strd	r2, r4, [r3]
 6817              	.LBE1142:
 6818              	.LBE1141:
 6819              	.LBE1150:
 6820              	.LBE1151:
 6821              		.loc 6 780 1 view .LVU2138
 6822 0024 10BD     		pop	{r4, pc}
 6823              	.L478:
 6824 0026 00BF     		.align	2
 6825              	.L477:
 6826 0028 00000000 		.word	.LANCHOR1
 6827 002c 00000000 		.word	__dso_handle
 6828 0030 00000000 		.word	_ZN5daisy9DaisySeedD1Ev
 6829 0034 00000000 		.word	.LANCHOR5
 6830              		.cfi_endproc
 6831              	.LFE2632:
 6833              		.section	.init_array,"aw",%init_array
 6834              		.align	2
 6835 0000 00000000 		.word	_GLOBAL__sub_I_g_voice_idx(target1)
 6836              		.global	led3
 6837              		.global	hw
 6838              		.global	g_active_voice
 6839              		.global	g_voice_idx
 6840              		.section	.rodata.str1.4,"aMS",%progbits,1
 6841              		.align	2
ARM GAS  /tmp/claude-502/cc09dAcL.s 			page 192


 6842              	.LC23:
 6843 0000 4C656164 		.ascii	"Lead\000"
 6843      00
 6844 0005 000000   		.align	2
 6845              	.LC24:
 6846 0008 42617373 		.ascii	"Bass\000"
 6846      00
 6847 000d 000000   		.align	2
 6848              	.LC25:
 6849 0010 4F70656E 		.ascii	"OpenBass\000"
 6849      42617373 
 6849      00
 6850 0019 000000   		.align	2
 6851              	.LC26:
 6852 001c 52696368 		.ascii	"RichBass\000"
 6852      42617373 
 6852      00
 6853 0025 000000   		.align	2
 6854              	.LC27:
 6855 0028 4F726761 		.ascii	"Organ\000"
 6855      6E00
 6856 002e 0000     		.align	2
 6857              	.LC28:
 6858 0030 53637265 		.ascii	"Scream\000"
 6858      616D00
 6859 0037 00       		.align	2
 6860              	.LC29:
 6861 0038 436C6F73 		.ascii	"ClosedBass\000"
 6861      65644261 
 6861      737300
 6862 0043 00       		.align	2
 6863              	.LC30:
 6864 0044 50616400 		.ascii	"Pad\000"
 6865              		.align	2
 6866              	.LC31:
 6867 0048 546F6D00 		.ascii	"Tom\000"
 6868              		.align	2
 6869              	.LC32:
 6870 004c 4B69636B 		.ascii	"Kick\000"
 6870      00
 6871 0051 000000   		.align	2
 6872              	.LC33:
 6873 0054 536E6172 		.ascii	"Snare\000"
 6873      6500
 6874 005a 0000     		.align	2
 6875              	.LC34:
 6876 005c 48694861 		.ascii	"HiHat\000"
 6876      7400
 6877 0062 0000     		.align	2
 6878              	.LC35:
 6879 0064 4472756D 		.ascii	"Drums\000"
 6879      7300
 6880              		.section	.bss.hw,"aw",%nobits
 6881              		.align	2
 6882              		.set	.LANCHOR1,. + 0
 6885              	hw:
 6886 0000 00000000 		.space	64
ARM GAS  /tmp/claude-502/cc09dAcL.s 			page 193


 6886      00000000 
 6886      00000000 
 6886      00000000 
 6886      00000000 
 6887              		.section	.bss.led3,"aw",%nobits
 6888              		.align	2
 6889              		.set	.LANCHOR5,. + 0
 6892              	led3:
 6893 0000 00000000 		.space	20
 6893      00000000 
 6893      00000000 
 6893      00000000 
 6893      00000000 
 6894              		.section	.data.g_active_voice,"aw"
 6895              		.align	2
 6896              		.set	.LANCHOR3,. + 0
 6899              	g_active_voice:
 6900 0000 02000000 		.word	2
 6901              		.section	.data.g_voice_idx,"aw"
 6902              		.align	2
 6903              		.set	.LANCHOR2,. + 0
 6906              	g_voice_idx:
 6907 0000 02000000 		.word	2
 6908              		.section	.rodata._ZL11MULTI_ZONES,"a"
 6909              		.align	2
 6910              		.set	.LANCHOR7,. + 0
 6913              	_ZL11MULTI_ZONES:
 6914 0000 09000000 		.word	9
 6915 0004 0A000000 		.word	10
 6916 0008 08000000 		.word	8
 6917 000c 0B000000 		.word	11
 6918              		.section	.rodata._ZL15MULTI_INTERVALS,"a"
 6919              		.align	2
 6920              		.set	.LANCHOR8,. + 0
 6923              	_ZL15MULTI_INTERVALS:
 6924 0000 0000803F 		.word	1065353216
 6925 0004 0ADCAA3F 		.word	1068162058
 6926 0008 9FC8BF3F 		.word	1069533343
 6927 000c 00000040 		.word	1073741824
 6928              		.section	.rodata._ZL5SCALE,"a"
 6929              		.align	2
 6930              		.set	.LANCHOR0,. + 0
 6933              	_ZL5SCALE:
 6934 0000 00000000 		.word	0
 6935 0004 02000000 		.word	2
 6936 0008 04000000 		.word	4
 6937 000c 05000000 		.word	5
 6938 0010 07000000 		.word	7
 6939 0014 09000000 		.word	9
 6940 0018 0B000000 		.word	11
 6941              		.section	.rodata._ZL6VOICES,"a"
 6942              		.align	2
 6943              		.set	.LANCHOR6,. + 0
 6946              	_ZL6VOICES:
 6947 0000 00000000 		.word	.LC23
 6948 0004 00004842 		.word	1112014848
 6949 0008 00009643 		.word	1133903872
ARM GAS  /tmp/claude-502/cc09dAcL.s 			page 194


 6950 000c 6458E53F 		.word	1071994980
 6951 0010 0000803F 		.word	1065353216
 6952 0014 0000003F 		.word	1056964608
 6953 0018 00       		.byte	0
 6954 0019 000000   		.space	3
 6955 001c 0000803F 		.word	1065353216
 6956 0020 AE47613E 		.word	1046562734
 6957 0024 00       		.byte	0
 6958 0025 000000   		.space	3
 6959 0028 0000003F 		.word	1056964608
 6960 002c EC51383E 		.word	1043878380
 6961 0030 00       		.byte	0
 6962 0031 000000   		.space	3
 6963 0034 00000040 		.word	1073741824
 6964 0038 9A99193E 		.word	1041865114
 6965 003c 00       		.byte	0
 6966 003d 01       		.byte	1
 6967 003e 0000     		.space	2
 6968 0040 9A99993E 		.word	1050253722
 6969 0044 00004041 		.word	1094713344
 6970 0048 0000403F 		.word	1061158912
 6971 004c 00002040 		.word	1075838976
 6972 0050 00000000 		.word	0
 6973 0054 0000803F 		.word	1065353216
 6974 0058 0000803F 		.word	1065353216
 6975 005c 9A99193E 		.word	1041865114
 6976 0060 EC51383E 		.word	1043878380
 6977 0064 00008040 		.word	1082130432
 6978 0068 0000C843 		.word	1137180672
 6979 006c 00002042 		.word	1109393408
 6980 0070 00000000 		.space	28
 6980      00000000 
 6980      00000000 
 6980      00000000 
 6980      00000000 
 6981 008c 08000000 		.word	.LC24
 6982 0090 00002042 		.word	1109393408
 6983 0094 00002043 		.word	1126170624
 6984 0098 F371B13F 		.word	1068593651
 6985 009c 0000803F 		.word	1065353216
 6986 00a0 6666E63E 		.word	1055286886
 6987 00a4 00       		.byte	0
 6988 00a5 000000   		.space	3
 6989 00a8 9FC8BF3F 		.word	1069533343
 6990 00ac 9A99993E 		.word	1050253722
 6991 00b0 00       		.byte	0
 6992 00b1 000000   		.space	3
 6993 00b4 0000003F 		.word	1056964608
 6994 00b8 7B14AE3E 		.word	1051595899
 6995 00bc 00       		.byte	0
 6996 00bd 000000   		.space	3
 6997 00c0 00000040 		.word	1073741824
 6998 00c4 CDCC4C3E 		.word	1045220557
 6999 00c8 00       		.byte	0
 7000 00c9 00       		.byte	0
 7001 00ca 0000     		.space	2
 7002 00cc 0000803E 		.word	1048576000
ARM GAS  /tmp/claude-502/cc09dAcL.s 			page 195


 7003 00d0 0000E040 		.word	1088421888
 7004 00d4 0000003F 		.word	1056964608
 7005 00d8 0000803F 		.word	1065353216
 7006 00dc 00000000 		.word	0
 7007 00e0 0000803F 		.word	1065353216
 7008 00e4 0000803F 		.word	1065353216
 7009 00e8 8FC2F53D 		.word	1039516303
 7010 00ec 8FC2F53D 		.word	1039516303
 7011 00f0 0000C040 		.word	1086324736
 7012 00f4 00009643 		.word	1133903872
 7013 00f8 0000C841 		.word	1103626240
 7014 00fc 00000000 		.space	28
 7014      00000000 
 7014      00000000 
 7014      00000000 
 7014      00000000 
 7015 0118 10000000 		.word	.LC25
 7016 011c 00002042 		.word	1109393408
 7017 0120 00003443 		.word	1127481344
 7018 0124 B285C03F 		.word	1069581746
 7019 0128 0000803F 		.word	1065353216
 7020 012c 6666E63E 		.word	1055286886
 7021 0130 00       		.byte	0
 7022 0131 000000   		.space	3
 7023 0134 9FC8BF3F 		.word	1069533343
 7024 0138 9A99993E 		.word	1050253722
 7025 013c 00       		.byte	0
 7026 013d 000000   		.space	3
 7027 0140 0000003F 		.word	1056964608
 7028 0144 9A99993E 		.word	1050253722
 7029 0148 00       		.byte	0
 7030 0149 000000   		.space	3
 7031 014c 00000040 		.word	1073741824
 7032 0150 AE47613E 		.word	1046562734
 7033 0154 00       		.byte	0
 7034 0155 00       		.byte	0
 7035 0156 0000     		.space	2
 7036 0158 0000003F 		.word	1056964608
 7037 015c 00002041 		.word	1092616192
 7038 0160 6666263F 		.word	1059481190
 7039 0164 6666E63F 		.word	1072064102
 7040 0168 00000000 		.word	0
 7041 016c 0000803F 		.word	1065353216
 7042 0170 0000803F 		.word	1065353216
 7043 0174 9A99193E 		.word	1041865114
 7044 0178 9A99193E 		.word	1041865114
 7045 017c 0000A040 		.word	1084227584
 7046 0180 0000AF43 		.word	1135542272
 7047 0184 0000C841 		.word	1103626240
 7048 0188 00000000 		.space	28
 7048      00000000 
 7048      00000000 
 7048      00000000 
 7048      00000000 
 7049 01a4 1C000000 		.word	.LC26
 7050 01a8 00002042 		.word	1109393408
 7051 01ac 00002043 		.word	1126170624
ARM GAS  /tmp/claude-502/cc09dAcL.s 			page 196


 7052 01b0 F371B13F 		.word	1068593651
 7053 01b4 0000803F 		.word	1065353216
 7054 01b8 CDCCCC3E 		.word	1053609165
 7055 01bc 03       		.byte	3
 7056 01bd 000000   		.space	3
 7057 01c0 9FC8BF3F 		.word	1069533343
 7058 01c4 B81E853E 		.word	1048911544
 7059 01c8 02       		.byte	2
 7060 01c9 000000   		.space	3
 7061 01cc 0000003F 		.word	1056964608
 7062 01d0 0AD7A33E 		.word	1050924810
 7063 01d4 01       		.byte	1
 7064 01d5 000000   		.space	3
 7065 01d8 00000040 		.word	1073741824
 7066 01dc EC51383E 		.word	1043878380
 7067 01e0 03       		.byte	3
 7068 01e1 00       		.byte	0
 7069 01e2 0000     		.space	2
 7070 01e4 CDCC4C3E 		.word	1045220557
 7071 01e8 00005041 		.word	1095761920
 7072 01ec 85EB513F 		.word	1062333317
 7073 01f0 CDCC0C40 		.word	1074580685
 7074 01f4 00000000 		.word	0
 7075 01f8 0000803F 		.word	1065353216
 7076 01fc 0000803F 		.word	1065353216
 7077 0200 CDCC4C3E 		.word	1045220557
 7078 0204 CDCC4C3E 		.word	1045220557
 7079 0208 00004040 		.word	1077936128
 7080 020c 00007A43 		.word	1132068864
 7081 0210 00009041 		.word	1099956224
 7082 0214 00000000 		.space	28
 7082      00000000 
 7082      00000000 
 7082      00000000 
 7082      00000000 
 7083 0230 28000000 		.word	.LC27
 7084 0234 00008242 		.word	1115815936
 7085 0238 00000244 		.word	1140981760
 7086 023c 8C150540 		.word	1074075020
 7087 0240 0000803F 		.word	1065353216
 7088 0244 6666E63E 		.word	1055286886
 7089 0248 01       		.byte	1
 7090 0249 000000   		.space	3
 7091 024c D7A3803F 		.word	1065395159
 7092 0250 CDCCCC3E 		.word	1053609165
 7093 0254 01       		.byte	1
 7094 0255 000000   		.space	3
 7095 0258 0000003F 		.word	1056964608
 7096 025c 9A99993E 		.word	1050253722
 7097 0260 01       		.byte	1
 7098 0261 000000   		.space	3
 7099 0264 00000040 		.word	1073741824
 7100 0268 295C8F3E 		.word	1049582633
 7101 026c 01       		.byte	1
 7102 026d 00       		.byte	0
 7103 026e 0000     		.space	2
 7104 0270 00000040 		.word	1073741824
ARM GAS  /tmp/claude-502/cc09dAcL.s 			page 197


 7105 0274 0000A040 		.word	1084227584
 7106 0278 CDCC4C3E 		.word	1045220557
 7107 027c CDCC4C3F 		.word	1061997773
 7108 0280 8FC2F53C 		.word	1022739087
 7109 0284 0000803F 		.word	1065353216
 7110 0288 0000803F 		.word	1065353216
 7111 028c CDCC4C3D 		.word	1028443341
 7112 0290 00000000 		.word	0
 7113 0294 00000041 		.word	1090519040
 7114 0298 0000F042 		.word	1123024896
 7115 029c 00000041 		.word	1090519040
 7116 02a0 00000000 		.word	0
 7117 02a4 00000000 		.word	0
 7118 02a8 00000000 		.word	0
 7119 02ac 00       		.byte	0
 7120 02ad 000000   		.space	3
 7121 02b0 00000000 		.word	0
 7122 02b4 00000000 		.word	0
 7123 02b8 01       		.byte	1
 7124 02b9 000000   		.space	3
 7125 02bc 30000000 		.word	.LC28
 7126 02c0 0000B442 		.word	1119092736
 7127 02c4 00003444 		.word	1144258560
 7128 02c8 8C150540 		.word	1074075020
 7129 02cc 0000803F 		.word	1065353216
 7130 02d0 3D0AD73E 		.word	1054280253
 7131 02d4 03       		.byte	3
 7132 02d5 000000   		.space	3
 7133 02d8 2506813F 		.word	1065420325
 7134 02dc 5C8FC23E 		.word	1052938076
 7135 02e0 03       		.byte	3
 7136 02e1 000000   		.space	3
 7137 02e4 0000003F 		.word	1056964608
 7138 02e8 CDCC4C3E 		.word	1045220557
 7139 02ec 03       		.byte	3
 7140 02ed 000000   		.space	3
 7141 02f0 00000040 		.word	1073741824
 7142 02f4 9A99993E 		.word	1050253722
 7143 02f8 03       		.byte	3
 7144 02f9 00       		.byte	0
 7145 02fa 0000     		.space	2
 7146 02fc 00004040 		.word	1077936128
 7147 0300 00003041 		.word	1093664768
 7148 0304 6666663F 		.word	1063675494
 7149 0308 00008040 		.word	1082130432
 7150 030c CDCC4C3D 		.word	1028443341
 7151 0310 0000803F 		.word	1065353216
 7152 0314 00002040 		.word	1075838976
 7153 0318 CDCCCC3E 		.word	1053609165
 7154 031c 9A99993E 		.word	1050253722
 7155 0320 00000040 		.word	1073741824
 7156 0324 00004843 		.word	1128792064
 7157 0328 00000C42 		.word	1108082688
 7158 032c 00000000 		.space	28
 7158      00000000 
 7158      00000000 
 7158      00000000 
ARM GAS  /tmp/claude-502/cc09dAcL.s 			page 198


 7158      00000000 
 7159 0348 38000000 		.word	.LC29
 7160 034c 00000C42 		.word	1108082688
 7161 0350 00000C43 		.word	1124859904
 7162 0354 F371B13F 		.word	1068593651
 7163 0358 0000803F 		.word	1065353216
 7164 035c 3D0AD73E 		.word	1054280253
 7165 0360 00       		.byte	0
 7166 0361 000000   		.space	3
 7167 0364 9FC8BF3F 		.word	1069533343
 7168 0368 EC51383E 		.word	1043878380
 7169 036c 00       		.byte	0
 7170 036d 000000   		.space	3
 7171 0370 0000003F 		.word	1056964608
 7172 0374 AE47E13E 		.word	1054951342
 7173 0378 01       		.byte	1
 7174 0379 000000   		.space	3
 7175 037c 00000040 		.word	1073741824
 7176 0380 CDCCCC3D 		.word	1036831949
 7177 0384 00       		.byte	0
 7178 0385 00       		.byte	0
 7179 0386 0000     		.space	2
 7180 0388 0000803F 		.word	1065353216
 7181 038c 00000040 		.word	1073741824
 7182 0390 9A99993E 		.word	1050253722
 7183 0394 0000003F 		.word	1056964608
 7184 0398 00000000 		.word	0
 7185 039c 9A99193F 		.word	1058642330
 7186 03a0 0000803F 		.word	1065353216
 7187 03a4 00000000 		.word	0
 7188 03a8 00000000 		.word	0
 7189 03ac 00002041 		.word	1092616192
 7190 03b0 0000FA43 		.word	1140457472
 7191 03b4 0000F041 		.word	1106247680
 7192 03b8 00000000 		.space	28
 7192      00000000 
 7192      00000000 
 7192      00000000 
 7192      00000000 
 7193 03d4 44000000 		.word	.LC30
 7194 03d8 00008C42 		.word	1116471296
 7195 03dc 00000C44 		.word	1141637120
 7196 03e0 8C150540 		.word	1074075020
 7197 03e4 0000803F 		.word	1065353216
 7198 03e8 0AD7A33E 		.word	1050924810
 7199 03ec 03       		.byte	3
 7200 03ed 000000   		.space	3
 7201 03f0 9CC4803F 		.word	1065403548
 7202 03f4 9A99993E 		.word	1050253722
 7203 03f8 03       		.byte	3
 7204 03f9 000000   		.space	3
 7205 03fc 0000003F 		.word	1056964608
 7206 0400 AE47613E 		.word	1046562734
 7207 0404 00       		.byte	0
 7208 0405 000000   		.space	3
 7209 0408 00000040 		.word	1073741824
 7210 040c EC51383E 		.word	1043878380
ARM GAS  /tmp/claude-502/cc09dAcL.s 			page 199


 7211 0410 01       		.byte	1
 7212 0411 00       		.byte	0
 7213 0412 0000     		.space	2
 7214 0414 9A99993F 		.word	1067030938
 7215 0418 00004040 		.word	1077936128
 7216 041c CDCC4C3E 		.word	1045220557
 7217 0420 9A99193F 		.word	1058642330
 7218 0424 8FC2753C 		.word	1014350479
 7219 0428 0000803F 		.word	1065353216
 7220 042c 0000803F 		.word	1065353216
 7221 0430 00000000 		.word	0
 7222 0434 0AD7A33D 		.word	1034147594
 7223 0438 00800945 		.word	1158250496
 7224 043c 0000FA44 		.word	1157234688
 7225 0440 0000A042 		.word	1117782016
 7226 0444 00000000 		.space	28
 7226      00000000 
 7226      00000000 
 7226      00000000 
 7226      00000000 
 7227 0460 48000000 		.word	.LC31
 7228 0464 00002042 		.word	1109393408
 7229 0468 0000C843 		.word	1137180672
 7230 046c A25D1340 		.word	1075010978
 7231 0470 0000803F 		.word	1065353216
 7232 0474 AE47613E 		.word	1046562734
 7233 0478 01       		.byte	1
 7234 0479 000000   		.space	3
 7235 047c CDCCCC3F 		.word	1070386381
 7236 0480 9A99193E 		.word	1041865114
 7237 0484 01       		.byte	1
 7238 0485 000000   		.space	3
 7239 0488 0000003F 		.word	1056964608
 7240 048c CDCCCC3D 		.word	1036831949
 7241 0490 01       		.byte	1
 7242 0491 000000   		.space	3
 7243 0494 00000040 		.word	1073741824
 7244 0498 00000000 		.word	0
 7245 049c 01       		.byte	1
 7246 049d 00       		.byte	0
 7247 049e 0000     		.space	2
 7248 04a0 00004040 		.word	1077936128
 7249 04a4 00004040 		.word	1077936128
 7250 04a8 9A99993E 		.word	1050253722
 7251 04ac 0000C03F 		.word	1069547520
 7252 04b0 3333333F 		.word	1060320051
 7253 04b4 9A99993E 		.word	1050253722
 7254 04b8 0000803F 		.word	1065353216
 7255 04bc 00000000 		.word	0
 7256 04c0 CDCCCC3D 		.word	1036831949
 7257 04c4 0000803F 		.word	1065353216
 7258 04c8 00001643 		.word	1125515264
 7259 04cc 0000A040 		.word	1084227584
 7260 04d0 0000803F 		.word	1065353216
 7261 04d4 0000A042 		.word	1117782016
 7262 04d8 00000000 		.word	0
 7263 04dc 01       		.byte	1
ARM GAS  /tmp/claude-502/cc09dAcL.s 			page 200


 7264 04dd 000000   		.space	3
 7265 04e0 9A99593F 		.word	1062836634
 7266 04e4 0000C843 		.word	1137180672
 7267 04e8 00000000 		.space	4
 7268 04ec 4C000000 		.word	.LC32
 7269 04f0 0000F041 		.word	1106247680
 7270 04f4 0000A042 		.word	1117782016
 7271 04f8 AD177B3F 		.word	1065031597
 7272 04fc 0000803F 		.word	1065353216
 7273 0500 CDCC0C3F 		.word	1057803469
 7274 0504 01       		.byte	1
 7275 0505 000000   		.space	3
 7276 0508 00000040 		.word	1073741824
 7277 050c CDCCCC3D 		.word	1036831949
 7278 0510 01       		.byte	1
 7279 0511 000000   		.space	3
 7280 0514 0000003F 		.word	1056964608
 7281 0518 9A99193E 		.word	1041865114
 7282 051c 01       		.byte	1
 7283 051d 000000   		.space	3
 7284 0520 00000040 		.word	1073741824
 7285 0524 00000000 		.word	0
 7286 0528 01       		.byte	1
 7287 0529 00       		.byte	0
 7288 052a 0000     		.space	2
 7289 052c 00004040 		.word	1077936128
 7290 0530 00000040 		.word	1073741824
 7291 0534 CDCC4C3E 		.word	1045220557
 7292 0538 6666E63F 		.word	1072064102
 7293 053c 0AD7A33D 		.word	1034147594
 7294 0540 0000003F 		.word	1056964608
 7295 0544 0000803F 		.word	1065353216
 7296 0548 00000000 		.word	0
 7297 054c 00000000 		.word	0
 7298 0550 0000803F 		.word	1065353216
 7299 0554 00002043 		.word	1126170624
 7300 0558 0000A040 		.word	1084227584
 7301 055c 00000040 		.word	1073741824
 7302 0560 00003442 		.word	1110704128
 7303 0564 00000000 		.word	0
 7304 0568 01       		.byte	1
 7305 0569 000000   		.space	3
 7306 056c 9A99593F 		.word	1062836634
 7307 0570 0000C843 		.word	1137180672
 7308 0574 00000000 		.space	4
 7309 0578 54000000 		.word	.LC33
 7310 057c 00001643 		.word	1125515264
 7311 0580 0000FA43 		.word	1140457472
 7312 0584 B01B9A3F 		.word	1067064240
 7313 0588 0000803F 		.word	1065353216
 7314 058c 9A99193E 		.word	1041865114
 7315 0590 01       		.byte	1
 7316 0591 000000   		.space	3
 7317 0594 6666E63F 		.word	1072064102
 7318 0598 8FC2F53D 		.word	1039516303
 7319 059c 00       		.byte	0
 7320 059d 000000   		.space	3
ARM GAS  /tmp/claude-502/cc09dAcL.s 			page 201


 7321 05a0 0000003F 		.word	1056964608
 7322 05a4 CDCC4C3D 		.word	1028443341
 7323 05a8 01       		.byte	1
 7324 05a9 000000   		.space	3
 7325 05ac 00000040 		.word	1073741824
 7326 05b0 00000000 		.word	0
 7327 05b4 01       		.byte	1
 7328 05b5 00       		.byte	0
 7329 05b6 0000     		.space	2
 7330 05b8 00009041 		.word	1099956224
 7331 05bc 00008040 		.word	1082130432
 7332 05c0 9A99993E 		.word	1050253722
 7333 05c4 0000C03F 		.word	1069547520
 7334 05c8 EC51383F 		.word	1060655596
 7335 05cc 9A99993E 		.word	1050253722
 7336 05d0 0000803F 		.word	1065353216
 7337 05d4 00000000 		.word	0
 7338 05d8 CDCCCC3D 		.word	1036831949
 7339 05dc 0000803F 		.word	1065353216
 7340 05e0 00000C43 		.word	1124859904
 7341 05e4 0000A040 		.word	1084227584
 7342 05e8 3333333F 		.word	1060320051
 7343 05ec 0000F041 		.word	1106247680
 7344 05f0 00000000 		.word	0
 7345 05f4 01       		.byte	1
 7346 05f5 000000   		.space	3
 7347 05f8 9A99593F 		.word	1062836634
 7348 05fc 0000C843 		.word	1137180672
 7349 0600 00000000 		.space	4
 7350 0604 5C000000 		.word	.LC34
 7351 0608 00007A45 		.word	1165623296
 7352 060c 00E02B46 		.word	1177280512
 7353 0610 1C7C813F 		.word	1065450524
 7354 0614 0000803F 		.word	1065353216
 7355 0618 CDCCCC3D 		.word	1036831949
 7356 061c 02       		.byte	2
 7357 061d 000000   		.space	3
 7358 0620 3D0AD73F 		.word	1071057469
 7359 0624 0AD7A33D 		.word	1034147594
 7360 0628 02       		.byte	2
 7361 0629 000000   		.space	3
 7362 062c 0000003F 		.word	1056964608
 7363 0630 00000000 		.word	0
 7364 0634 01       		.byte	1
 7365 0635 000000   		.space	3
 7366 0638 00000040 		.word	1073741824
 7367 063c 8FC2753D 		.word	1031127695
 7368 0640 02       		.byte	2
 7369 0641 00       		.byte	0
 7370 0642 0000     		.space	2
 7371 0644 0000C841 		.word	1103626240
 7372 0648 00000040 		.word	1073741824
 7373 064c CDCC4C3E 		.word	1045220557
 7374 0650 9A99993F 		.word	1067030938
 7375 0654 CDCC4C3F 		.word	1061997773
 7376 0658 CDCC4C3E 		.word	1045220557
 7377 065c 0000803F 		.word	1065353216
ARM GAS  /tmp/claude-502/cc09dAcL.s 			page 202


 7378 0660 00000000 		.word	0
 7379 0664 CDCC4C3D 		.word	1028443341
 7380 0668 0000803F 		.word	1065353216
 7381 066c 00002043 		.word	1126170624
 7382 0670 00004040 		.word	1077936128
 7383 0674 00000000 		.word	0
 7384 0678 00000000 		.word	0
 7385 067c 0000803F 		.word	1065353216
 7386 0680 01       		.byte	1
 7387 0681 000000   		.space	3
 7388 0684 9A99593F 		.word	1062836634
 7389 0688 0000C843 		.word	1137180672
 7390 068c 00000000 		.space	4
 7391 0690 64000000 		.word	.LC35
 7392 0694 0000F041 		.word	1106247680
 7393 0698 0000A042 		.word	1117782016
 7394 069c AD177B3F 		.word	1065031597
 7395 06a0 0000803F 		.word	1065353216
 7396 06a4 CDCC0C3F 		.word	1057803469
 7397 06a8 01       		.byte	1
 7398 06a9 000000   		.space	3
 7399 06ac 0000803F 		.word	1065353216
 7400 06b0 00000000 		.word	0
 7401 06b4 01       		.byte	1
 7402 06b5 000000   		.space	3
 7403 06b8 0000003F 		.word	1056964608
 7404 06bc 00000000 		.word	0
 7405 06c0 01       		.byte	1
 7406 06c1 000000   		.space	3
 7407 06c4 00000040 		.word	1073741824
 7408 06c8 00000000 		.word	0
 7409 06cc 01       		.byte	1
 7410 06cd 00       		.byte	0
 7411 06ce 0000     		.space	2
 7412 06d0 00004040 		.word	1077936128
 7413 06d4 00000040 		.word	1073741824
 7414 06d8 CDCC4C3E 		.word	1045220557
 7415 06dc 0000803F 		.word	1065353216
 7416 06e0 00000000 		.word	0
 7417 06e4 0000003F 		.word	1056964608
 7418 06e8 0000803F 		.word	1065353216
 7419 06ec 00000000 		.word	0
 7420 06f0 00000000 		.word	0
 7421 06f4 0000803F 		.word	1065353216
 7422 06f8 00002043 		.word	1126170624
 7423 06fc 0000A040 		.word	1084227584
 7424 0700 00000000 		.word	0
 7425 0704 00000000 		.word	0
 7426 0708 00000000 		.word	0
 7427 070c 00000000 		.space	16
 7427      00000000 
 7427      00000000 
 7427      00000000 
 7428              		.section	.rodata._ZN5daisy4seedL2A0E,"a"
 7429              		.align	2
 7430              		.set	.LANCHOR4,. + 0
 7433              	_ZN5daisy4seedL2A0E:
ARM GAS  /tmp/claude-502/cc09dAcL.s 			page 203


 7434 0000 02       		.byte	2
 7435 0001 00       		.byte	0
 7436              		.text
 7437              	.Letext0:
 7438              		.file 15 "/Library/DaisyToolchain/0.2.0/arm/arm-none-eabi/include/machine/_default_types.h"
 7439              		.file 16 "/Library/DaisyToolchain/0.2.0/arm/arm-none-eabi/include/sys/_stdint.h"
 7440              		.file 17 "/Library/DaisyToolchain/0.2.0/arm/arm-none-eabi/include/stdint.h"
 7441              		.file 18 "/Library/DaisyToolchain/0.2.0/arm/lib/gcc/arm-none-eabi/10.3.1/include/stddef.h"
 7442              		.file 19 "/Library/DaisyToolchain/0.2.0/arm/arm-none-eabi/include/c++/10.3.1/cmath"
 7443              		.file 20 "/Library/DaisyToolchain/0.2.0/arm/arm-none-eabi/include/c++/10.3.1/bits/std_abs.h"
 7444              		.file 21 "/Library/DaisyToolchain/0.2.0/arm/arm-none-eabi/include/c++/10.3.1/cstdlib"
 7445              		.file 22 "/Library/DaisyToolchain/0.2.0/arm/arm-none-eabi/include/c++/10.3.1/cstdint"
 7446              		.file 23 "/Library/DaisyToolchain/0.2.0/arm/arm-none-eabi/include/c++/10.3.1/type_traits"
 7447              		.file 24 "/Library/DaisyToolchain/0.2.0/arm/arm-none-eabi/include/c++/10.3.1/debug/debug.h"
 7448              		.file 25 "/Library/DaisyToolchain/0.2.0/arm/arm-none-eabi/include/c++/10.3.1/arm-none-eabi/thumb/v
 7449              		.file 26 "/Library/DaisyToolchain/0.2.0/arm/arm-none-eabi/include/c++/10.3.1/bits/algorithmfwd.h"
 7450              		.file 27 "/Library/DaisyToolchain/0.2.0/arm/arm-none-eabi/include/c++/10.3.1/bits/stl_pair.h"
 7451              		.file 28 "/Library/DaisyToolchain/0.2.0/arm/arm-none-eabi/include/c++/10.3.1/bits/exception_ptr.h"
 7452              		.file 29 "/Library/DaisyToolchain/0.2.0/arm/arm-none-eabi/include/c++/10.3.1/cstdarg"
 7453              		.file 30 "/Library/DaisyToolchain/0.2.0/arm/arm-none-eabi/include/c++/10.3.1/cstdio"
 7454              		.file 31 "/Library/DaisyToolchain/0.2.0/arm/arm-none-eabi/include/c++/10.3.1/cstring"
 7455              		.file 32 "/Library/DaisyToolchain/0.2.0/arm/arm-none-eabi/include/c++/10.3.1/bits/predefined_ops.h
 7456              		.file 33 "/Library/DaisyToolchain/0.2.0/arm/arm-none-eabi/include/sys/_types.h"
 7457              		.file 34 "/Library/DaisyToolchain/0.2.0/arm/arm-none-eabi/include/sys/reent.h"
 7458              		.file 35 "/Library/DaisyToolchain/0.2.0/arm/arm-none-eabi/include/sys/lock.h"
 7459              		.file 36 "/Library/DaisyToolchain/0.2.0/arm/arm-none-eabi/include/math.h"
 7460              		.file 37 "/Library/DaisyToolchain/0.2.0/arm/arm-none-eabi/include/stdlib.h"
 7461              		.file 38 "/Library/DaisyToolchain/0.2.0/arm/arm-none-eabi/include/c++/10.3.1/math.h"
 7462              		.file 39 "/Library/DaisyToolchain/0.2.0/arm/arm-none-eabi/include/c++/10.3.1/stdlib.h"
 7463              		.file 40 "/Users/reza.kalfane/Workspaces/Daisy/DaisyExamples/libDaisy/src/per/tim.h"
 7464              		.file 41 "/Users/reza.kalfane/Workspaces/Daisy/DaisyExamples/libDaisy/src/hid/logger_impl.h"
 7465              		.file 42 "/Users/reza.kalfane/Workspaces/Daisy/DaisyExamples/libDaisy/src/util/wav_format.h"
 7466              		.file 43 "/Users/reza.kalfane/Workspaces/Daisy/DaisyExamples/libDaisy/src/dev/max11300.h"
 7467              		.file 44 "/Users/reza.kalfane/Workspaces/Daisy/DaisyExamples/libDaisy/src/hid/logger.h"
 7468              		.file 45 "/Users/reza.kalfane/Workspaces/Daisy/DaisyExamples/libDaisy/src/dev/sdram.h"
 7469              		.file 46 "/Library/DaisyToolchain/0.2.0/arm/lib/gcc/arm-none-eabi/10.3.1/include/stdarg.h"
 7470              		.file 47 "/Library/DaisyToolchain/0.2.0/arm/arm-none-eabi/include/stdio.h"
 7471              		.file 48 "/Library/DaisyToolchain/0.2.0/arm/arm-none-eabi/include/string.h"
 7472              		.file 49 "src/config.h"
 7473              		.file 50 "/Users/reza.kalfane/Workspaces/Daisy/DaisyExamples/libDaisy/src/dev/sr_595.h"
 7474              		.file 51 "src/mpr121.h"
 7475              		.file 52 "src/touch.h"
 7476              		.file 53 "src/engine.h"
 7477              		.file 54 "/Users/reza.kalfane/Workspaces/Daisy/DaisyExamples/libDaisy/src/sys/dma.h"
 7478              		.file 55 "<built-in>"
ARM GAS  /tmp/claude-502/cc09dAcL.s 			page 204


DEFINED SYMBOLS
                            *ABS*:0000000000000000 main.cpp
/tmp/claude-502/cc09dAcL.s:19     .text._ZN5daisy9DaisySeedD2Ev:0000000000000000 $t
/tmp/claude-502/cc09dAcL.s:26     .text._ZN5daisy9DaisySeedD2Ev:0000000000000000 _ZN5daisy9DaisySeedD2Ev
/tmp/claude-502/cc09dAcL.s:26     .text._ZN5daisy9DaisySeedD2Ev:0000000000000000 _ZN5daisy9DaisySeedD1Ev
/tmp/claude-502/cc09dAcL.s:67     .text._Z13quantize_midif:0000000000000000 $t
/tmp/claude-502/cc09dAcL.s:74     .text._Z13quantize_midif:0000000000000000 _Z13quantize_midif
/tmp/claude-502/cc09dAcL.s:193    .text._Z13quantize_midif:0000000000000074 $d
/tmp/claude-502/cc09dAcL.s:199    .text._Z8make_barPclli:0000000000000000 $t
/tmp/claude-502/cc09dAcL.s:206    .text._Z8make_barPclli:0000000000000000 _Z8make_barPclli
/tmp/claude-502/cc09dAcL.s:302    .text._Z12make_pos_barPci:0000000000000000 $t
/tmp/claude-502/cc09dAcL.s:309    .text._Z12make_pos_barPci:0000000000000000 _Z12make_pos_barPci
/tmp/claude-502/cc09dAcL.s:424    .text._Z12make_pos_barPci:000000000000006c $d
/tmp/claude-502/cc09dAcL.s:429    .rodata.main.str1.4:0000000000000000 $d
/tmp/claude-502/cc09dAcL.s:501    .text.startup.main:0000000000000000 $t
/tmp/claude-502/cc09dAcL.s:508    .text.startup.main:0000000000000000 main
/tmp/claude-502/cc09dAcL.s:762    .text.startup.main:00000000000000d4 $d
/tmp/claude-502/cc09dAcL.s:772    .text.startup.main:00000000000000f0 $t
/tmp/claude-502/cc09dAcL.s:1467   .text.startup.main:0000000000000358 $d
/tmp/claude-502/cc09dAcL.s:1496   .text.startup.main:00000000000003c0 $t
/tmp/claude-502/cc09dAcL.s:2292   .text.startup.main:0000000000000790 $d
/tmp/claude-502/cc09dAcL.s:2318   .text.startup.main:00000000000007f4 $t
/tmp/claude-502/cc09dAcL.s:3343   .text.startup.main:0000000000000c64 $d
/tmp/claude-502/cc09dAcL.s:3363   .text.startup.main:0000000000000cb0 $t
/tmp/claude-502/cc09dAcL.s:3911   .text.startup.main:0000000000000f0c $d
/tmp/claude-502/cc09dAcL.s:3934   .text.startup.main:0000000000000f50 $t
/tmp/claude-502/cc09dAcL.s:4752   .text.startup.main:00000000000012d0 $d
/tmp/claude-502/cc09dAcL.s:4783   .text.startup.main:0000000000001314 $t
/tmp/claude-502/cc09dAcL.s:5622   .text.startup.main:0000000000001650 $d
/tmp/claude-502/cc09dAcL.s:5661   .text.startup.main:00000000000016c0 $t
/tmp/claude-502/cc09dAcL.s:6512   .text.startup.main:0000000000001a3c $d
/tmp/claude-502/cc09dAcL.s:6539   .text.startup.main:0000000000001aa0 $t
/tmp/claude-502/cc09dAcL.s:6660   .text.startup._GLOBAL__sub_I_g_voice_idx:0000000000000000 $t
/tmp/claude-502/cc09dAcL.s:6666   .text.startup._GLOBAL__sub_I_g_voice_idx:0000000000000000 _GLOBAL__sub_I_g_voice_idx
/tmp/claude-502/cc09dAcL.s:6826   .text.startup._GLOBAL__sub_I_g_voice_idx:0000000000000028 $d
/tmp/claude-502/cc09dAcL.s:6834   .init_array:0000000000000000 $d
/tmp/claude-502/cc09dAcL.s:6892   .bss.led3:0000000000000000 led3
/tmp/claude-502/cc09dAcL.s:6885   .bss.hw:0000000000000000 hw
/tmp/claude-502/cc09dAcL.s:6899   .data.g_active_voice:0000000000000000 g_active_voice
/tmp/claude-502/cc09dAcL.s:6906   .data.g_voice_idx:0000000000000000 g_voice_idx
/tmp/claude-502/cc09dAcL.s:6841   .rodata.str1.4:0000000000000000 $d
/tmp/claude-502/cc09dAcL.s:6881   .bss.hw:0000000000000000 $d
/tmp/claude-502/cc09dAcL.s:6888   .bss.led3:0000000000000000 $d
/tmp/claude-502/cc09dAcL.s:6895   .data.g_active_voice:0000000000000000 $d
/tmp/claude-502/cc09dAcL.s:6902   .data.g_voice_idx:0000000000000000 $d
/tmp/claude-502/cc09dAcL.s:6909   .rodata._ZL11MULTI_ZONES:0000000000000000 $d
/tmp/claude-502/cc09dAcL.s:6913   .rodata._ZL11MULTI_ZONES:0000000000000000 _ZL11MULTI_ZONES
/tmp/claude-502/cc09dAcL.s:6919   .rodata._ZL15MULTI_INTERVALS:0000000000000000 $d
/tmp/claude-502/cc09dAcL.s:6923   .rodata._ZL15MULTI_INTERVALS:0000000000000000 _ZL15MULTI_INTERVALS
/tmp/claude-502/cc09dAcL.s:6929   .rodata._ZL5SCALE:0000000000000000 $d
/tmp/claude-502/cc09dAcL.s:6933   .rodata._ZL5SCALE:0000000000000000 _ZL5SCALE
/tmp/claude-502/cc09dAcL.s:6942   .rodata._ZL6VOICES:0000000000000000 $d
/tmp/claude-502/cc09dAcL.s:6946   .rodata._ZL6VOICES:0000000000000000 _ZL6VOICES
/tmp/claude-502/cc09dAcL.s:7429   .rodata._ZN5daisy4seedL2A0E:0000000000000000 $d
/tmp/claude-502/cc09dAcL.s:7433   .rodata._ZN5daisy4seedL2A0E:0000000000000000 _ZN5daisy4seedL2A0E
                           .group:0000000000000000 _ZN5daisy9DaisySeedD5Ev

ARM GAS  /tmp/claude-502/cc09dAcL.s 			page 205


UNDEFINED SYMBOLS
__aeabi_ldivmod
memset
tracked
_ZN5daisy9DaisySeed4InitEb
_ZN5daisy9DaisySeed17SetAudioBlockSizeEj
_ZN5daisy10QSPIHandle7GetDataEm
_ZN5daisy6System5DelayEm
_Z13mpr_idle_pinsv
_Z8mpr_initv
_ZN5daisy9DacHandle4InitERKNS0_6ConfigE
_ZN5daisy9DacHandle10WriteValueENS0_7ChannelEt
_ZN5daisy4GPIO4InitENS_3PinENS0_4ModeENS0_4PullENS0_5SpeedE
_ZN5daisy4GPIO5WriteEb
_ZN5daisy16AdcChannelConfig10InitSingleE12dsy_gpio_pinNS0_15ConversionSpeedE
_ZN5daisy9AdcHandle4InitEPNS_16AdcChannelConfigEjNS0_12OverSamplingE
_ZN5daisy9AdcHandle5StartEv
_ZN5daisy6System6GetNowEv
_ZNK5daisy9AdcHandle3GetEh
_ZN5daisy9DaisySeed10StartAudioEPFvPKPKfPPfjE
_ZN5daisy6LoggerILNS_17LoggerDestinationE1EE8StartLogEb
_ZN5daisy6LoggerILNS_17LoggerDestinationE1EE9PrintLineEPKcz
_Z15read_electrodesPt
g_target_freq
g_amp_target
g_target_cutoff
_Z13AudioCallbackPKPKfPPfj
g_led3_duty
g_master_vol
_Z10detect_rawPlP6Fingeri
_Z14update_trackedP6Fingeri
g_retrig
g_finger_on
g_vibrato_depth
g_target_drive
g_target_detune
g_bitcrush
g_ringmod
cosf
_ZN5daisy6System22GetProgramMemoryRegionEv
_ZN5daisy10QSPIHandle5EraseEmm
_ZN5daisy10QSPIHandle5WriteEmmPh
powf
_ZN5daisy9DaisySeed15AudioSampleRateEv
_Z12drum_triggerR7DrumHitifffff
g_hits
_Z16capture_baselinePt
dsy_dma_invalidate_cache_for_buffer
sqrtf
__aeabi_atexit
__dso_handle
