ARM GAS  /tmp/claude-502/ccZj3JyB.s 			page 1


   1              		.cpu cortex-m7
   2              		.arch armv7e-m
   3              		.fpu fpv5-d16
   4              		.eabi_attribute 28, 1
   5              		.eabi_attribute 20, 1
   6              		.eabi_attribute 21, 1
   7              		.eabi_attribute 23, 3
   8              		.eabi_attribute 24, 1
   9              		.eabi_attribute 25, 1
  10              		.eabi_attribute 26, 1
  11              		.eabi_attribute 30, 2
  12              		.eabi_attribute 34, 1
  13              		.eabi_attribute 18, 4
  14              		.file	"main.cpp"
  15              		.text
  16              	.Ltext0:
  17              		.cfi_sections	.debug_frame
  18              		.section	.text._ZN5daisy9DaisySeedD2Ev,"axG",%progbits,_ZN5daisy9DaisySeedD5Ev,comdat
  19              		.align	1
  20              		.p2align 2,,3
  21              		.weak	_ZN5daisy9DaisySeedD2Ev
  22              		.syntax unified
  23              		.thumb
  24              		.thumb_func
  26              	_ZN5daisy9DaisySeedD2Ev:
  27              	.LVL0:
  28              	.LFB2556:
  29              		.file 1 "/Users/reza.kalfane/Workspaces/Daisy/DaisyExamples/libDaisy/src/daisy_seed.h"
   1:/Users/reza.kalfane/Workspaces/Daisy/DaisyExamples/libDaisy/src/daisy_seed.h **** #pragma once
   2:/Users/reza.kalfane/Workspaces/Daisy/DaisyExamples/libDaisy/src/daisy_seed.h **** #ifndef DSY_SEED_H
   3:/Users/reza.kalfane/Workspaces/Daisy/DaisyExamples/libDaisy/src/daisy_seed.h **** #define DSY_SEED_H
   4:/Users/reza.kalfane/Workspaces/Daisy/DaisyExamples/libDaisy/src/daisy_seed.h **** 
   5:/Users/reza.kalfane/Workspaces/Daisy/DaisyExamples/libDaisy/src/daisy_seed.h **** #include "daisy.h"
   6:/Users/reza.kalfane/Workspaces/Daisy/DaisyExamples/libDaisy/src/daisy_seed.h **** 
   7:/Users/reza.kalfane/Workspaces/Daisy/DaisyExamples/libDaisy/src/daisy_seed.h **** //Uncomment this out if you're still using the rev2 hardware
   8:/Users/reza.kalfane/Workspaces/Daisy/DaisyExamples/libDaisy/src/daisy_seed.h **** //#define SEED_REV2
   9:/Users/reza.kalfane/Workspaces/Daisy/DaisyExamples/libDaisy/src/daisy_seed.h **** 
  10:/Users/reza.kalfane/Workspaces/Daisy/DaisyExamples/libDaisy/src/daisy_seed.h **** namespace daisy
  11:/Users/reza.kalfane/Workspaces/Daisy/DaisyExamples/libDaisy/src/daisy_seed.h **** {
  12:/Users/reza.kalfane/Workspaces/Daisy/DaisyExamples/libDaisy/src/daisy_seed.h **** /**
  13:/Users/reza.kalfane/Workspaces/Daisy/DaisyExamples/libDaisy/src/daisy_seed.h ****    @brief This is the higher-level interface for the Daisy board. \n 
  14:/Users/reza.kalfane/Workspaces/Daisy/DaisyExamples/libDaisy/src/daisy_seed.h ****     All basic peripheral configuration/initialization is setup here. \n
  15:/Users/reza.kalfane/Workspaces/Daisy/DaisyExamples/libDaisy/src/daisy_seed.h **** 
  16:/Users/reza.kalfane/Workspaces/Daisy/DaisyExamples/libDaisy/src/daisy_seed.h ****    @ingroup boards
  17:/Users/reza.kalfane/Workspaces/Daisy/DaisyExamples/libDaisy/src/daisy_seed.h **** */
  18:/Users/reza.kalfane/Workspaces/Daisy/DaisyExamples/libDaisy/src/daisy_seed.h **** class DaisySeed
  19:/Users/reza.kalfane/Workspaces/Daisy/DaisyExamples/libDaisy/src/daisy_seed.h **** {
  20:/Users/reza.kalfane/Workspaces/Daisy/DaisyExamples/libDaisy/src/daisy_seed.h ****   public:
  21:/Users/reza.kalfane/Workspaces/Daisy/DaisyExamples/libDaisy/src/daisy_seed.h ****     DaisySeed() {}
  22:/Users/reza.kalfane/Workspaces/Daisy/DaisyExamples/libDaisy/src/daisy_seed.h ****     ~DaisySeed() {}
  30              		.loc 1 22 5 view -0
  31              		.cfi_startproc
  32              		@ args = 0, pretend = 0, frame = 0
  33              		@ frame_needed = 0, uses_anonymous_args = 0
  34              		@ link register save eliminated.
  35              	.LBB306:
  36              	.LBI306:
ARM GAS  /tmp/claude-502/ccZj3JyB.s 			page 2


  37              		.file 2 "/Users/reza.kalfane/Workspaces/Daisy/DaisyExamples/libDaisy/src/sys/system.h"
   1:/Users/reza.kalfane/Workspaces/Daisy/DaisyExamples/libDaisy/src/sys/system.h **** #ifndef DSY_SYSTEM_H
   2:/Users/reza.kalfane/Workspaces/Daisy/DaisyExamples/libDaisy/src/sys/system.h **** #define DSY_SYSTEM_H
   3:/Users/reza.kalfane/Workspaces/Daisy/DaisyExamples/libDaisy/src/sys/system.h **** 
   4:/Users/reza.kalfane/Workspaces/Daisy/DaisyExamples/libDaisy/src/sys/system.h **** #ifndef UNIT_TEST // for unit tests, a dummy implementation is provided below
   5:/Users/reza.kalfane/Workspaces/Daisy/DaisyExamples/libDaisy/src/sys/system.h **** 
   6:/Users/reza.kalfane/Workspaces/Daisy/DaisyExamples/libDaisy/src/sys/system.h **** #include <cstdint>
   7:/Users/reza.kalfane/Workspaces/Daisy/DaisyExamples/libDaisy/src/sys/system.h **** #include "per/tim.h"
   8:/Users/reza.kalfane/Workspaces/Daisy/DaisyExamples/libDaisy/src/sys/system.h **** 
   9:/Users/reza.kalfane/Workspaces/Daisy/DaisyExamples/libDaisy/src/sys/system.h **** namespace daisy
  10:/Users/reza.kalfane/Workspaces/Daisy/DaisyExamples/libDaisy/src/sys/system.h **** {
  11:/Users/reza.kalfane/Workspaces/Daisy/DaisyExamples/libDaisy/src/sys/system.h **** /** A handle for interacting with the Core System.
  12:/Users/reza.kalfane/Workspaces/Daisy/DaisyExamples/libDaisy/src/sys/system.h ****  ** This includes the Clock tree, MPU, global DMA initialization,
  13:/Users/reza.kalfane/Workspaces/Daisy/DaisyExamples/libDaisy/src/sys/system.h ****  ** cache handling, and any other necessary global initiailzation
  14:/Users/reza.kalfane/Workspaces/Daisy/DaisyExamples/libDaisy/src/sys/system.h ****  **
  15:/Users/reza.kalfane/Workspaces/Daisy/DaisyExamples/libDaisy/src/sys/system.h ****  ** @author shensley
  16:/Users/reza.kalfane/Workspaces/Daisy/DaisyExamples/libDaisy/src/sys/system.h ****  ** @ingroup system
  17:/Users/reza.kalfane/Workspaces/Daisy/DaisyExamples/libDaisy/src/sys/system.h ****  */
  18:/Users/reza.kalfane/Workspaces/Daisy/DaisyExamples/libDaisy/src/sys/system.h **** class System
  19:/Users/reza.kalfane/Workspaces/Daisy/DaisyExamples/libDaisy/src/sys/system.h **** {
  20:/Users/reza.kalfane/Workspaces/Daisy/DaisyExamples/libDaisy/src/sys/system.h ****   public:
  21:/Users/reza.kalfane/Workspaces/Daisy/DaisyExamples/libDaisy/src/sys/system.h ****     /** Contains settings for initializing the System */
  22:/Users/reza.kalfane/Workspaces/Daisy/DaisyExamples/libDaisy/src/sys/system.h ****     struct Config
  23:/Users/reza.kalfane/Workspaces/Daisy/DaisyExamples/libDaisy/src/sys/system.h ****     {
  24:/Users/reza.kalfane/Workspaces/Daisy/DaisyExamples/libDaisy/src/sys/system.h ****         /** Specifies the system clock frequency that feeds APB/AHB clocks, etc. */
  25:/Users/reza.kalfane/Workspaces/Daisy/DaisyExamples/libDaisy/src/sys/system.h ****         enum class SysClkFreq
  26:/Users/reza.kalfane/Workspaces/Daisy/DaisyExamples/libDaisy/src/sys/system.h ****         {
  27:/Users/reza.kalfane/Workspaces/Daisy/DaisyExamples/libDaisy/src/sys/system.h ****             FREQ_400MHZ,
  28:/Users/reza.kalfane/Workspaces/Daisy/DaisyExamples/libDaisy/src/sys/system.h ****             FREQ_480MHZ,
  29:/Users/reza.kalfane/Workspaces/Daisy/DaisyExamples/libDaisy/src/sys/system.h ****         };
  30:/Users/reza.kalfane/Workspaces/Daisy/DaisyExamples/libDaisy/src/sys/system.h **** 
  31:/Users/reza.kalfane/Workspaces/Daisy/DaisyExamples/libDaisy/src/sys/system.h ****         /** Method to call on the struct to set to defaults
  32:/Users/reza.kalfane/Workspaces/Daisy/DaisyExamples/libDaisy/src/sys/system.h ****          ** CPU Freq set to 400MHz
  33:/Users/reza.kalfane/Workspaces/Daisy/DaisyExamples/libDaisy/src/sys/system.h ****          ** Cache Enabled
  34:/Users/reza.kalfane/Workspaces/Daisy/DaisyExamples/libDaisy/src/sys/system.h ****          ** */
  35:/Users/reza.kalfane/Workspaces/Daisy/DaisyExamples/libDaisy/src/sys/system.h ****         void Defaults()
  36:/Users/reza.kalfane/Workspaces/Daisy/DaisyExamples/libDaisy/src/sys/system.h ****         {
  37:/Users/reza.kalfane/Workspaces/Daisy/DaisyExamples/libDaisy/src/sys/system.h ****             cpu_freq    = SysClkFreq::FREQ_400MHZ;
  38:/Users/reza.kalfane/Workspaces/Daisy/DaisyExamples/libDaisy/src/sys/system.h ****             use_dcache  = true;
  39:/Users/reza.kalfane/Workspaces/Daisy/DaisyExamples/libDaisy/src/sys/system.h ****             use_icache  = true;
  40:/Users/reza.kalfane/Workspaces/Daisy/DaisyExamples/libDaisy/src/sys/system.h ****             skip_clocks = false;
  41:/Users/reza.kalfane/Workspaces/Daisy/DaisyExamples/libDaisy/src/sys/system.h ****         }
  42:/Users/reza.kalfane/Workspaces/Daisy/DaisyExamples/libDaisy/src/sys/system.h **** 
  43:/Users/reza.kalfane/Workspaces/Daisy/DaisyExamples/libDaisy/src/sys/system.h ****         /** Method to call on the struct to set to boost mode:
  44:/Users/reza.kalfane/Workspaces/Daisy/DaisyExamples/libDaisy/src/sys/system.h ****          ** CPU Freq set to 480MHz
  45:/Users/reza.kalfane/Workspaces/Daisy/DaisyExamples/libDaisy/src/sys/system.h ****          ** Cache Enabled
  46:/Users/reza.kalfane/Workspaces/Daisy/DaisyExamples/libDaisy/src/sys/system.h ****          ** */
  47:/Users/reza.kalfane/Workspaces/Daisy/DaisyExamples/libDaisy/src/sys/system.h ****         void Boost()
  48:/Users/reza.kalfane/Workspaces/Daisy/DaisyExamples/libDaisy/src/sys/system.h ****         {
  49:/Users/reza.kalfane/Workspaces/Daisy/DaisyExamples/libDaisy/src/sys/system.h ****             cpu_freq    = SysClkFreq::FREQ_480MHZ;
  50:/Users/reza.kalfane/Workspaces/Daisy/DaisyExamples/libDaisy/src/sys/system.h ****             use_dcache  = true;
  51:/Users/reza.kalfane/Workspaces/Daisy/DaisyExamples/libDaisy/src/sys/system.h ****             use_icache  = true;
  52:/Users/reza.kalfane/Workspaces/Daisy/DaisyExamples/libDaisy/src/sys/system.h ****             skip_clocks = false;
  53:/Users/reza.kalfane/Workspaces/Daisy/DaisyExamples/libDaisy/src/sys/system.h ****         }
  54:/Users/reza.kalfane/Workspaces/Daisy/DaisyExamples/libDaisy/src/sys/system.h **** 
  55:/Users/reza.kalfane/Workspaces/Daisy/DaisyExamples/libDaisy/src/sys/system.h ****         SysClkFreq cpu_freq;
  56:/Users/reza.kalfane/Workspaces/Daisy/DaisyExamples/libDaisy/src/sys/system.h ****         bool       use_dcache;
ARM GAS  /tmp/claude-502/ccZj3JyB.s 			page 3


  57:/Users/reza.kalfane/Workspaces/Daisy/DaisyExamples/libDaisy/src/sys/system.h ****         bool       use_icache;
  58:/Users/reza.kalfane/Workspaces/Daisy/DaisyExamples/libDaisy/src/sys/system.h ****         bool       skip_clocks;
  59:/Users/reza.kalfane/Workspaces/Daisy/DaisyExamples/libDaisy/src/sys/system.h ****     };
  60:/Users/reza.kalfane/Workspaces/Daisy/DaisyExamples/libDaisy/src/sys/system.h **** 
  61:/Users/reza.kalfane/Workspaces/Daisy/DaisyExamples/libDaisy/src/sys/system.h ****     /** Describes the different regions of memory available to the Daisy */
  62:/Users/reza.kalfane/Workspaces/Daisy/DaisyExamples/libDaisy/src/sys/system.h ****     enum MemoryRegion
  63:/Users/reza.kalfane/Workspaces/Daisy/DaisyExamples/libDaisy/src/sys/system.h ****     {
  64:/Users/reza.kalfane/Workspaces/Daisy/DaisyExamples/libDaisy/src/sys/system.h ****         INTERNAL_FLASH = 0,
  65:/Users/reza.kalfane/Workspaces/Daisy/DaisyExamples/libDaisy/src/sys/system.h ****         ITCMRAM,
  66:/Users/reza.kalfane/Workspaces/Daisy/DaisyExamples/libDaisy/src/sys/system.h ****         DTCMRAM,
  67:/Users/reza.kalfane/Workspaces/Daisy/DaisyExamples/libDaisy/src/sys/system.h ****         SRAM_D1,
  68:/Users/reza.kalfane/Workspaces/Daisy/DaisyExamples/libDaisy/src/sys/system.h ****         SRAM_D2,
  69:/Users/reza.kalfane/Workspaces/Daisy/DaisyExamples/libDaisy/src/sys/system.h ****         SRAM_D3,
  70:/Users/reza.kalfane/Workspaces/Daisy/DaisyExamples/libDaisy/src/sys/system.h ****         SDRAM,
  71:/Users/reza.kalfane/Workspaces/Daisy/DaisyExamples/libDaisy/src/sys/system.h ****         QSPI,
  72:/Users/reza.kalfane/Workspaces/Daisy/DaisyExamples/libDaisy/src/sys/system.h ****         INVALID_ADDRESS,
  73:/Users/reza.kalfane/Workspaces/Daisy/DaisyExamples/libDaisy/src/sys/system.h ****     };
  74:/Users/reza.kalfane/Workspaces/Daisy/DaisyExamples/libDaisy/src/sys/system.h **** 
  75:/Users/reza.kalfane/Workspaces/Daisy/DaisyExamples/libDaisy/src/sys/system.h ****     /** Bootloader struct for controlling bootloading parameters */
  76:/Users/reza.kalfane/Workspaces/Daisy/DaisyExamples/libDaisy/src/sys/system.h ****     struct BootInfo
  77:/Users/reza.kalfane/Workspaces/Daisy/DaisyExamples/libDaisy/src/sys/system.h ****     {
  78:/Users/reza.kalfane/Workspaces/Daisy/DaisyExamples/libDaisy/src/sys/system.h ****         enum class Type : uint32_t
  79:/Users/reza.kalfane/Workspaces/Daisy/DaisyExamples/libDaisy/src/sys/system.h ****         {
  80:/Users/reza.kalfane/Workspaces/Daisy/DaisyExamples/libDaisy/src/sys/system.h ****             INVALID      = 0x00000000,
  81:/Users/reza.kalfane/Workspaces/Daisy/DaisyExamples/libDaisy/src/sys/system.h ****             JUMP         = 0xDEADBEEF,
  82:/Users/reza.kalfane/Workspaces/Daisy/DaisyExamples/libDaisy/src/sys/system.h ****             SKIP_TIMEOUT = 0x5AFEB007,
  83:/Users/reza.kalfane/Workspaces/Daisy/DaisyExamples/libDaisy/src/sys/system.h ****             INF_TIMEOUT  = 0xB0074EFA,
  84:/Users/reza.kalfane/Workspaces/Daisy/DaisyExamples/libDaisy/src/sys/system.h ****         } status;
  85:/Users/reza.kalfane/Workspaces/Daisy/DaisyExamples/libDaisy/src/sys/system.h ****         uint32_t data;
  86:/Users/reza.kalfane/Workspaces/Daisy/DaisyExamples/libDaisy/src/sys/system.h ****         enum class Version : uint32_t
  87:/Users/reza.kalfane/Workspaces/Daisy/DaisyExamples/libDaisy/src/sys/system.h ****         {
  88:/Users/reza.kalfane/Workspaces/Daisy/DaisyExamples/libDaisy/src/sys/system.h ****             LT_v6_0 = 0, // Less than v6.0
  89:/Users/reza.kalfane/Workspaces/Daisy/DaisyExamples/libDaisy/src/sys/system.h ****             NONE,        // No bootloader present
  90:/Users/reza.kalfane/Workspaces/Daisy/DaisyExamples/libDaisy/src/sys/system.h ****             v6_0,        // v6.0
  91:/Users/reza.kalfane/Workspaces/Daisy/DaisyExamples/libDaisy/src/sys/system.h ****             v6_1,        // v6.1 or greater
  92:/Users/reza.kalfane/Workspaces/Daisy/DaisyExamples/libDaisy/src/sys/system.h ****             LAST
  93:/Users/reza.kalfane/Workspaces/Daisy/DaisyExamples/libDaisy/src/sys/system.h ****         } version;
  94:/Users/reza.kalfane/Workspaces/Daisy/DaisyExamples/libDaisy/src/sys/system.h ****     };
  95:/Users/reza.kalfane/Workspaces/Daisy/DaisyExamples/libDaisy/src/sys/system.h **** 
  96:/Users/reza.kalfane/Workspaces/Daisy/DaisyExamples/libDaisy/src/sys/system.h ****     System() {}
  97:/Users/reza.kalfane/Workspaces/Daisy/DaisyExamples/libDaisy/src/sys/system.h ****     ~System() {}
  38              		.loc 2 97 5 view .LVU1
  39              		.loc 2 97 5 is_stmt 0 view .LVU2
  40              	.LBE306:
  41              	.LBB307:
  42              	.LBI307:
  43              		.file 3 "/Users/reza.kalfane/Workspaces/Daisy/DaisyExamples/libDaisy/src/hid/usb.h"
   1:/Users/reza.kalfane/Workspaces/Daisy/DaisyExamples/libDaisy/src/hid/usb.h **** #pragma once
   2:/Users/reza.kalfane/Workspaces/Daisy/DaisyExamples/libDaisy/src/hid/usb.h **** #ifndef DSY_HID_USB_H
   3:/Users/reza.kalfane/Workspaces/Daisy/DaisyExamples/libDaisy/src/hid/usb.h **** #define DSY_HID_USB_H
   4:/Users/reza.kalfane/Workspaces/Daisy/DaisyExamples/libDaisy/src/hid/usb.h **** #include <stdint.h>
   5:/Users/reza.kalfane/Workspaces/Daisy/DaisyExamples/libDaisy/src/hid/usb.h **** #include <stdlib.h>
   6:/Users/reza.kalfane/Workspaces/Daisy/DaisyExamples/libDaisy/src/hid/usb.h **** 
   7:/Users/reza.kalfane/Workspaces/Daisy/DaisyExamples/libDaisy/src/hid/usb.h **** namespace daisy
   8:/Users/reza.kalfane/Workspaces/Daisy/DaisyExamples/libDaisy/src/hid/usb.h **** /** @addtogroup human_interface
   9:/Users/reza.kalfane/Workspaces/Daisy/DaisyExamples/libDaisy/src/hid/usb.h ****     @{
  10:/Users/reza.kalfane/Workspaces/Daisy/DaisyExamples/libDaisy/src/hid/usb.h **** */
ARM GAS  /tmp/claude-502/ccZj3JyB.s 			page 4


  11:/Users/reza.kalfane/Workspaces/Daisy/DaisyExamples/libDaisy/src/hid/usb.h **** 
  12:/Users/reza.kalfane/Workspaces/Daisy/DaisyExamples/libDaisy/src/hid/usb.h **** {
  13:/Users/reza.kalfane/Workspaces/Daisy/DaisyExamples/libDaisy/src/hid/usb.h **** /** 
  14:/Users/reza.kalfane/Workspaces/Daisy/DaisyExamples/libDaisy/src/hid/usb.h ****     @brief Interface for initializing and using the USB Peripherals on the daisy
  15:/Users/reza.kalfane/Workspaces/Daisy/DaisyExamples/libDaisy/src/hid/usb.h ****     @author Stephen Hensley
  16:/Users/reza.kalfane/Workspaces/Daisy/DaisyExamples/libDaisy/src/hid/usb.h ****     @date December 2019
  17:/Users/reza.kalfane/Workspaces/Daisy/DaisyExamples/libDaisy/src/hid/usb.h **** */
  18:/Users/reza.kalfane/Workspaces/Daisy/DaisyExamples/libDaisy/src/hid/usb.h **** class UsbHandle
  19:/Users/reza.kalfane/Workspaces/Daisy/DaisyExamples/libDaisy/src/hid/usb.h **** {
  20:/Users/reza.kalfane/Workspaces/Daisy/DaisyExamples/libDaisy/src/hid/usb.h ****   public:
  21:/Users/reza.kalfane/Workspaces/Daisy/DaisyExamples/libDaisy/src/hid/usb.h ****     /** Return values for USBHandle Functions */
  22:/Users/reza.kalfane/Workspaces/Daisy/DaisyExamples/libDaisy/src/hid/usb.h ****     enum class Result
  23:/Users/reza.kalfane/Workspaces/Daisy/DaisyExamples/libDaisy/src/hid/usb.h ****     {
  24:/Users/reza.kalfane/Workspaces/Daisy/DaisyExamples/libDaisy/src/hid/usb.h ****         OK,
  25:/Users/reza.kalfane/Workspaces/Daisy/DaisyExamples/libDaisy/src/hid/usb.h ****         ERR,
  26:/Users/reza.kalfane/Workspaces/Daisy/DaisyExamples/libDaisy/src/hid/usb.h ****     };
  27:/Users/reza.kalfane/Workspaces/Daisy/DaisyExamples/libDaisy/src/hid/usb.h **** 
  28:/Users/reza.kalfane/Workspaces/Daisy/DaisyExamples/libDaisy/src/hid/usb.h ****     /** Specified which of the two USB Peripherals to initialize. */
  29:/Users/reza.kalfane/Workspaces/Daisy/DaisyExamples/libDaisy/src/hid/usb.h ****     enum UsbPeriph
  30:/Users/reza.kalfane/Workspaces/Daisy/DaisyExamples/libDaisy/src/hid/usb.h ****     {
  31:/Users/reza.kalfane/Workspaces/Daisy/DaisyExamples/libDaisy/src/hid/usb.h ****         FS_INTERNAL, /**< Internal pin */
  32:/Users/reza.kalfane/Workspaces/Daisy/DaisyExamples/libDaisy/src/hid/usb.h ****         FS_EXTERNAL, /**< FS External D+ pin is Pin 38 (GPIO32). FS External D- pin is Pin 37 (GPIO
  33:/Users/reza.kalfane/Workspaces/Daisy/DaisyExamples/libDaisy/src/hid/usb.h ****         FS_BOTH,     /**< Both */
  34:/Users/reza.kalfane/Workspaces/Daisy/DaisyExamples/libDaisy/src/hid/usb.h ****     };
  35:/Users/reza.kalfane/Workspaces/Daisy/DaisyExamples/libDaisy/src/hid/usb.h **** 
  36:/Users/reza.kalfane/Workspaces/Daisy/DaisyExamples/libDaisy/src/hid/usb.h **** 
  37:/Users/reza.kalfane/Workspaces/Daisy/DaisyExamples/libDaisy/src/hid/usb.h ****     /** Function called upon reception of a buffer */
  38:/Users/reza.kalfane/Workspaces/Daisy/DaisyExamples/libDaisy/src/hid/usb.h ****     typedef void (*ReceiveCallback)(uint8_t* buff, uint32_t* len);
  39:/Users/reza.kalfane/Workspaces/Daisy/DaisyExamples/libDaisy/src/hid/usb.h **** 
  40:/Users/reza.kalfane/Workspaces/Daisy/DaisyExamples/libDaisy/src/hid/usb.h ****     UsbHandle() {}
  41:/Users/reza.kalfane/Workspaces/Daisy/DaisyExamples/libDaisy/src/hid/usb.h **** 
  42:/Users/reza.kalfane/Workspaces/Daisy/DaisyExamples/libDaisy/src/hid/usb.h ****     ~UsbHandle() {}
  44              		.loc 3 42 5 is_stmt 1 view .LVU3
  45              		.loc 3 42 5 is_stmt 0 view .LVU4
  46              	.LBE307:
  47              	.LBB308:
  48              	.LBI308:
  49              		.file 4 "/Users/reza.kalfane/Workspaces/Daisy/DaisyExamples/libDaisy/src/per/adc.h"
   1:/Users/reza.kalfane/Workspaces/Daisy/DaisyExamples/libDaisy/src/per/adc.h **** #pragma once
   2:/Users/reza.kalfane/Workspaces/Daisy/DaisyExamples/libDaisy/src/per/adc.h **** #ifndef DSY_ADC_H
   3:/Users/reza.kalfane/Workspaces/Daisy/DaisyExamples/libDaisy/src/per/adc.h **** #define DSY_ADC_H /**< Macro */
   4:/Users/reza.kalfane/Workspaces/Daisy/DaisyExamples/libDaisy/src/per/adc.h **** #include <stdint.h>
   5:/Users/reza.kalfane/Workspaces/Daisy/DaisyExamples/libDaisy/src/per/adc.h **** #include <stdlib.h>
   6:/Users/reza.kalfane/Workspaces/Daisy/DaisyExamples/libDaisy/src/per/adc.h **** #include "daisy_core.h"
   7:/Users/reza.kalfane/Workspaces/Daisy/DaisyExamples/libDaisy/src/per/adc.h **** #include "per/gpio.h"
   8:/Users/reza.kalfane/Workspaces/Daisy/DaisyExamples/libDaisy/src/per/adc.h **** 
   9:/Users/reza.kalfane/Workspaces/Daisy/DaisyExamples/libDaisy/src/per/adc.h **** #define DSY_ADC_MAX_CHANNELS 16 /**< Maximum number of ADC channels */
  10:/Users/reza.kalfane/Workspaces/Daisy/DaisyExamples/libDaisy/src/per/adc.h **** 
  11:/Users/reza.kalfane/Workspaces/Daisy/DaisyExamples/libDaisy/src/per/adc.h **** namespace daisy
  12:/Users/reza.kalfane/Workspaces/Daisy/DaisyExamples/libDaisy/src/per/adc.h **** {
  13:/Users/reza.kalfane/Workspaces/Daisy/DaisyExamples/libDaisy/src/per/adc.h **** /** @addtogroup per_analog
  14:/Users/reza.kalfane/Workspaces/Daisy/DaisyExamples/libDaisy/src/per/adc.h ****     @{
  15:/Users/reza.kalfane/Workspaces/Daisy/DaisyExamples/libDaisy/src/per/adc.h **** */
  16:/Users/reza.kalfane/Workspaces/Daisy/DaisyExamples/libDaisy/src/per/adc.h **** 
  17:/Users/reza.kalfane/Workspaces/Daisy/DaisyExamples/libDaisy/src/per/adc.h **** /* While there may not be many configuration options here,
  18:/Users/reza.kalfane/Workspaces/Daisy/DaisyExamples/libDaisy/src/per/adc.h **** using a struct like this allows us to add more configuration
  19:/Users/reza.kalfane/Workspaces/Daisy/DaisyExamples/libDaisy/src/per/adc.h **** later without breaking existing functionality.
ARM GAS  /tmp/claude-502/ccZj3JyB.s 			page 5


  20:/Users/reza.kalfane/Workspaces/Daisy/DaisyExamples/libDaisy/src/per/adc.h **** */
  21:/Users/reza.kalfane/Workspaces/Daisy/DaisyExamples/libDaisy/src/per/adc.h **** 
  22:/Users/reza.kalfane/Workspaces/Daisy/DaisyExamples/libDaisy/src/per/adc.h **** /** @brief   Configuration Structure for an ADC Channel 
  23:/Users/reza.kalfane/Workspaces/Daisy/DaisyExamples/libDaisy/src/per/adc.h ****  *  @details This can be used to configure a a single input, 
  24:/Users/reza.kalfane/Workspaces/Daisy/DaisyExamples/libDaisy/src/per/adc.h ****  *           or a multiplexed input, allowing up to 8 inputs on 
  25:/Users/reza.kalfane/Workspaces/Daisy/DaisyExamples/libDaisy/src/per/adc.h ****  *           one channel.
  26:/Users/reza.kalfane/Workspaces/Daisy/DaisyExamples/libDaisy/src/per/adc.h ****  *  @note    Sharing data lines to multiple muxes _is_ possible, but
  27:/Users/reza.kalfane/Workspaces/Daisy/DaisyExamples/libDaisy/src/per/adc.h ****  *           each channel sharing data lines must be set to the maximum
  28:/Users/reza.kalfane/Workspaces/Daisy/DaisyExamples/libDaisy/src/per/adc.h ****  *           number of channels, even if some multiplexers have fewer
  29:/Users/reza.kalfane/Workspaces/Daisy/DaisyExamples/libDaisy/src/per/adc.h ****  *           inputs connected.
  30:/Users/reza.kalfane/Workspaces/Daisy/DaisyExamples/libDaisy/src/per/adc.h **** */
  31:/Users/reza.kalfane/Workspaces/Daisy/DaisyExamples/libDaisy/src/per/adc.h **** struct AdcChannelConfig
  32:/Users/reza.kalfane/Workspaces/Daisy/DaisyExamples/libDaisy/src/per/adc.h **** {
  33:/Users/reza.kalfane/Workspaces/Daisy/DaisyExamples/libDaisy/src/per/adc.h ****     /** Which pin to use for multiplexing */
  34:/Users/reza.kalfane/Workspaces/Daisy/DaisyExamples/libDaisy/src/per/adc.h ****     enum MuxPin
  35:/Users/reza.kalfane/Workspaces/Daisy/DaisyExamples/libDaisy/src/per/adc.h ****     {
  36:/Users/reza.kalfane/Workspaces/Daisy/DaisyExamples/libDaisy/src/per/adc.h ****         MUX_SEL_0,    /**< & */
  37:/Users/reza.kalfane/Workspaces/Daisy/DaisyExamples/libDaisy/src/per/adc.h ****         MUX_SEL_1,    /**< & */
  38:/Users/reza.kalfane/Workspaces/Daisy/DaisyExamples/libDaisy/src/per/adc.h ****         MUX_SEL_2,    /**< & */
  39:/Users/reza.kalfane/Workspaces/Daisy/DaisyExamples/libDaisy/src/per/adc.h ****         MUX_SEL_LAST, /**< & */
  40:/Users/reza.kalfane/Workspaces/Daisy/DaisyExamples/libDaisy/src/per/adc.h ****     };
  41:/Users/reza.kalfane/Workspaces/Daisy/DaisyExamples/libDaisy/src/per/adc.h **** 
  42:/Users/reza.kalfane/Workspaces/Daisy/DaisyExamples/libDaisy/src/per/adc.h ****     /** \brief per channel conversion speed added to fixed time based on bitdepth, etc. */
  43:/Users/reza.kalfane/Workspaces/Daisy/DaisyExamples/libDaisy/src/per/adc.h ****     enum ConversionSpeed
  44:/Users/reza.kalfane/Workspaces/Daisy/DaisyExamples/libDaisy/src/per/adc.h ****     {
  45:/Users/reza.kalfane/Workspaces/Daisy/DaisyExamples/libDaisy/src/per/adc.h ****         SPEED_1CYCLES_5,
  46:/Users/reza.kalfane/Workspaces/Daisy/DaisyExamples/libDaisy/src/per/adc.h ****         SPEED_2CYCLES_5,
  47:/Users/reza.kalfane/Workspaces/Daisy/DaisyExamples/libDaisy/src/per/adc.h ****         SPEED_8CYCLES_5,
  48:/Users/reza.kalfane/Workspaces/Daisy/DaisyExamples/libDaisy/src/per/adc.h ****         SPEED_16CYCLES_5,
  49:/Users/reza.kalfane/Workspaces/Daisy/DaisyExamples/libDaisy/src/per/adc.h ****         SPEED_32CYCLES_5,
  50:/Users/reza.kalfane/Workspaces/Daisy/DaisyExamples/libDaisy/src/per/adc.h ****         SPEED_64CYCLES_5,
  51:/Users/reza.kalfane/Workspaces/Daisy/DaisyExamples/libDaisy/src/per/adc.h ****         SPEED_387CYCLES_5,
  52:/Users/reza.kalfane/Workspaces/Daisy/DaisyExamples/libDaisy/src/per/adc.h ****         SPEED_810CYCLES_5,
  53:/Users/reza.kalfane/Workspaces/Daisy/DaisyExamples/libDaisy/src/per/adc.h ****     };
  54:/Users/reza.kalfane/Workspaces/Daisy/DaisyExamples/libDaisy/src/per/adc.h **** 
  55:/Users/reza.kalfane/Workspaces/Daisy/DaisyExamples/libDaisy/src/per/adc.h ****     /** Initializes a single ADC pin as an ADC. 
  56:/Users/reza.kalfane/Workspaces/Daisy/DaisyExamples/libDaisy/src/per/adc.h ****     \param pin Pin to init.
  57:/Users/reza.kalfane/Workspaces/Daisy/DaisyExamples/libDaisy/src/per/adc.h ****     \param speed conversion speed for this pin defaults to 8.5 cycles
  58:/Users/reza.kalfane/Workspaces/Daisy/DaisyExamples/libDaisy/src/per/adc.h ****      */
  59:/Users/reza.kalfane/Workspaces/Daisy/DaisyExamples/libDaisy/src/per/adc.h ****     void InitSingle(dsy_gpio_pin pin, ConversionSpeed speed = SPEED_8CYCLES_5);
  60:/Users/reza.kalfane/Workspaces/Daisy/DaisyExamples/libDaisy/src/per/adc.h **** 
  61:/Users/reza.kalfane/Workspaces/Daisy/DaisyExamples/libDaisy/src/per/adc.h ****     /** 
  62:/Users/reza.kalfane/Workspaces/Daisy/DaisyExamples/libDaisy/src/per/adc.h ****     Initializes a single ADC pin as a Multiplexed ADC.
  63:/Users/reza.kalfane/Workspaces/Daisy/DaisyExamples/libDaisy/src/per/adc.h ****     Requires a CD405X Multiplexer connected to the pin.
  64:/Users/reza.kalfane/Workspaces/Daisy/DaisyExamples/libDaisy/src/per/adc.h ****     You only need to supply the mux pins that are required,
  65:/Users/reza.kalfane/Workspaces/Daisy/DaisyExamples/libDaisy/src/per/adc.h ****     e.g. a 4052 mux would only require mux_0 and mux_1.
  66:/Users/reza.kalfane/Workspaces/Daisy/DaisyExamples/libDaisy/src/per/adc.h ****     Internal Callbacks handle the pin addressing.
  67:/Users/reza.kalfane/Workspaces/Daisy/DaisyExamples/libDaisy/src/per/adc.h ****     \param adc_pin &
  68:/Users/reza.kalfane/Workspaces/Daisy/DaisyExamples/libDaisy/src/per/adc.h ****     \param mux_channels must be 1-8
  69:/Users/reza.kalfane/Workspaces/Daisy/DaisyExamples/libDaisy/src/per/adc.h ****     \param mux_0 First mux pin
  70:/Users/reza.kalfane/Workspaces/Daisy/DaisyExamples/libDaisy/src/per/adc.h ****     \param mux_1 Second mux pin
  71:/Users/reza.kalfane/Workspaces/Daisy/DaisyExamples/libDaisy/src/per/adc.h ****     \param mux_2 Third mux pin
  72:/Users/reza.kalfane/Workspaces/Daisy/DaisyExamples/libDaisy/src/per/adc.h ****     \param speed conversion speed for this pin defaults to 8.5 cycles
  73:/Users/reza.kalfane/Workspaces/Daisy/DaisyExamples/libDaisy/src/per/adc.h ****     */
  74:/Users/reza.kalfane/Workspaces/Daisy/DaisyExamples/libDaisy/src/per/adc.h ****     void InitMux(dsy_gpio_pin    adc_pin,
  75:/Users/reza.kalfane/Workspaces/Daisy/DaisyExamples/libDaisy/src/per/adc.h ****                  size_t          mux_channels,
  76:/Users/reza.kalfane/Workspaces/Daisy/DaisyExamples/libDaisy/src/per/adc.h ****                  dsy_gpio_pin    mux_0,
ARM GAS  /tmp/claude-502/ccZj3JyB.s 			page 6


  77:/Users/reza.kalfane/Workspaces/Daisy/DaisyExamples/libDaisy/src/per/adc.h ****                  dsy_gpio_pin    mux_1 = {DSY_GPIOX, 0},
  78:/Users/reza.kalfane/Workspaces/Daisy/DaisyExamples/libDaisy/src/per/adc.h ****                  dsy_gpio_pin    mux_2 = {DSY_GPIOX, 0},
  79:/Users/reza.kalfane/Workspaces/Daisy/DaisyExamples/libDaisy/src/per/adc.h ****                  ConversionSpeed speed = SPEED_8CYCLES_5);
  80:/Users/reza.kalfane/Workspaces/Daisy/DaisyExamples/libDaisy/src/per/adc.h **** 
  81:/Users/reza.kalfane/Workspaces/Daisy/DaisyExamples/libDaisy/src/per/adc.h ****     dsy_gpio        pin_;                   /**< & */
  82:/Users/reza.kalfane/Workspaces/Daisy/DaisyExamples/libDaisy/src/per/adc.h ****     dsy_gpio        mux_pin_[MUX_SEL_LAST]; /**< & */
  83:/Users/reza.kalfane/Workspaces/Daisy/DaisyExamples/libDaisy/src/per/adc.h ****     uint8_t         mux_channels_;          /**< & */
  84:/Users/reza.kalfane/Workspaces/Daisy/DaisyExamples/libDaisy/src/per/adc.h ****     ConversionSpeed speed_;
  85:/Users/reza.kalfane/Workspaces/Daisy/DaisyExamples/libDaisy/src/per/adc.h **** };
  86:/Users/reza.kalfane/Workspaces/Daisy/DaisyExamples/libDaisy/src/per/adc.h **** 
  87:/Users/reza.kalfane/Workspaces/Daisy/DaisyExamples/libDaisy/src/per/adc.h **** /**
  88:/Users/reza.kalfane/Workspaces/Daisy/DaisyExamples/libDaisy/src/per/adc.h ****    @brief Handler for analog to digital conversion
  89:/Users/reza.kalfane/Workspaces/Daisy/DaisyExamples/libDaisy/src/per/adc.h **** */
  90:/Users/reza.kalfane/Workspaces/Daisy/DaisyExamples/libDaisy/src/per/adc.h **** class AdcHandle
  91:/Users/reza.kalfane/Workspaces/Daisy/DaisyExamples/libDaisy/src/per/adc.h **** {
  92:/Users/reza.kalfane/Workspaces/Daisy/DaisyExamples/libDaisy/src/per/adc.h ****   public:
  93:/Users/reza.kalfane/Workspaces/Daisy/DaisyExamples/libDaisy/src/per/adc.h ****     /** Supported oversampling amounts */
  94:/Users/reza.kalfane/Workspaces/Daisy/DaisyExamples/libDaisy/src/per/adc.h ****     enum OverSampling
  95:/Users/reza.kalfane/Workspaces/Daisy/DaisyExamples/libDaisy/src/per/adc.h ****     {
  96:/Users/reza.kalfane/Workspaces/Daisy/DaisyExamples/libDaisy/src/per/adc.h ****         OVS_NONE, /**< & */
  97:/Users/reza.kalfane/Workspaces/Daisy/DaisyExamples/libDaisy/src/per/adc.h ****         OVS_4,    /**< & */
  98:/Users/reza.kalfane/Workspaces/Daisy/DaisyExamples/libDaisy/src/per/adc.h ****         OVS_8,    /**< & */
  99:/Users/reza.kalfane/Workspaces/Daisy/DaisyExamples/libDaisy/src/per/adc.h ****         OVS_16,   /**< & */
 100:/Users/reza.kalfane/Workspaces/Daisy/DaisyExamples/libDaisy/src/per/adc.h ****         OVS_32,   /**< & */
 101:/Users/reza.kalfane/Workspaces/Daisy/DaisyExamples/libDaisy/src/per/adc.h ****         OVS_64,   /**< & */
 102:/Users/reza.kalfane/Workspaces/Daisy/DaisyExamples/libDaisy/src/per/adc.h ****         OVS_128,  /**< & */
 103:/Users/reza.kalfane/Workspaces/Daisy/DaisyExamples/libDaisy/src/per/adc.h ****         OVS_256,  /**< & */
 104:/Users/reza.kalfane/Workspaces/Daisy/DaisyExamples/libDaisy/src/per/adc.h ****         OVS_512,  /**< & */
 105:/Users/reza.kalfane/Workspaces/Daisy/DaisyExamples/libDaisy/src/per/adc.h ****         OVS_1024, /**< & */
 106:/Users/reza.kalfane/Workspaces/Daisy/DaisyExamples/libDaisy/src/per/adc.h ****         OVS_LAST, /**< & */
 107:/Users/reza.kalfane/Workspaces/Daisy/DaisyExamples/libDaisy/src/per/adc.h ****     };
 108:/Users/reza.kalfane/Workspaces/Daisy/DaisyExamples/libDaisy/src/per/adc.h **** 
 109:/Users/reza.kalfane/Workspaces/Daisy/DaisyExamples/libDaisy/src/per/adc.h ****     AdcHandle() {}
 110:/Users/reza.kalfane/Workspaces/Daisy/DaisyExamples/libDaisy/src/per/adc.h ****     ~AdcHandle() {}
  50              		.loc 4 110 5 is_stmt 1 view .LVU5
  51              		.loc 4 110 5 is_stmt 0 view .LVU6
  52              	.LBE308:
  53              	.LBB309:
  54              	.LBI309:
  55              		.file 5 "/Users/reza.kalfane/Workspaces/Daisy/DaisyExamples/libDaisy/src/hid/audio.h"
   1:/Users/reza.kalfane/Workspaces/Daisy/DaisyExamples/libDaisy/src/hid/audio.h **** #ifndef DSY_AUDIO_H
   2:/Users/reza.kalfane/Workspaces/Daisy/DaisyExamples/libDaisy/src/hid/audio.h **** #define DSY_AUDIO_H /**< & */
   3:/Users/reza.kalfane/Workspaces/Daisy/DaisyExamples/libDaisy/src/hid/audio.h **** 
   4:/Users/reza.kalfane/Workspaces/Daisy/DaisyExamples/libDaisy/src/hid/audio.h **** #include "per/sai.h"
   5:/Users/reza.kalfane/Workspaces/Daisy/DaisyExamples/libDaisy/src/hid/audio.h **** 
   6:/Users/reza.kalfane/Workspaces/Daisy/DaisyExamples/libDaisy/src/hid/audio.h **** namespace daisy
   7:/Users/reza.kalfane/Workspaces/Daisy/DaisyExamples/libDaisy/src/hid/audio.h **** {
   8:/Users/reza.kalfane/Workspaces/Daisy/DaisyExamples/libDaisy/src/hid/audio.h **** /** @brief Audio Engine Handle
   9:/Users/reza.kalfane/Workspaces/Daisy/DaisyExamples/libDaisy/src/hid/audio.h ****  *  @ingroup audio 
  10:/Users/reza.kalfane/Workspaces/Daisy/DaisyExamples/libDaisy/src/hid/audio.h ****  *  @details This class allows for higher level access to an audio engine.
  11:/Users/reza.kalfane/Workspaces/Daisy/DaisyExamples/libDaisy/src/hid/audio.h ****  *           If you're using a SOM like the DaisySeed or DaisyPatchSM (or any 
  12:/Users/reza.kalfane/Workspaces/Daisy/DaisyExamples/libDaisy/src/hid/audio.h ****  *            board that includes one of those objects) then the intialization
  13:/Users/reza.kalfane/Workspaces/Daisy/DaisyExamples/libDaisy/src/hid/audio.h ****  *            is already taken  care of.
  14:/Users/reza.kalfane/Workspaces/Daisy/DaisyExamples/libDaisy/src/hid/audio.h ****  *           If you're setting up your own custom hardware, or need to make changes
  15:/Users/reza.kalfane/Workspaces/Daisy/DaisyExamples/libDaisy/src/hid/audio.h ****  *           you will have to take the following steps:
  16:/Users/reza.kalfane/Workspaces/Daisy/DaisyExamples/libDaisy/src/hid/audio.h ****  *             1. Create and Initialize an SaiHandle or two depending on your requirements
  17:/Users/reza.kalfane/Workspaces/Daisy/DaisyExamples/libDaisy/src/hid/audio.h ****  *             2. Initialize the Audio Handle with the desired settings and the Initialized SaiHand
ARM GAS  /tmp/claude-502/ccZj3JyB.s 			page 7


  18:/Users/reza.kalfane/Workspaces/Daisy/DaisyExamples/libDaisy/src/hid/audio.h ****  *             3. If the connected codec requires special configuration or initialization, do so
  19:/Users/reza.kalfane/Workspaces/Daisy/DaisyExamples/libDaisy/src/hid/audio.h ****  *             4. Write a callback method using either the AudioCallback or the InterleavingAudioCa
  20:/Users/reza.kalfane/Workspaces/Daisy/DaisyExamples/libDaisy/src/hid/audio.h ****  *             5. Start the Audio using one of the StartAudio function
  21:/Users/reza.kalfane/Workspaces/Daisy/DaisyExamples/libDaisy/src/hid/audio.h ****  */
  22:/Users/reza.kalfane/Workspaces/Daisy/DaisyExamples/libDaisy/src/hid/audio.h **** class AudioHandle
  23:/Users/reza.kalfane/Workspaces/Daisy/DaisyExamples/libDaisy/src/hid/audio.h **** {
  24:/Users/reza.kalfane/Workspaces/Daisy/DaisyExamples/libDaisy/src/hid/audio.h ****   public:
  25:/Users/reza.kalfane/Workspaces/Daisy/DaisyExamples/libDaisy/src/hid/audio.h ****     /** Manually configurable details about the Audio Engine */
  26:/Users/reza.kalfane/Workspaces/Daisy/DaisyExamples/libDaisy/src/hid/audio.h ****     /** TODO: Figure out how to get samplerate in here. */
  27:/Users/reza.kalfane/Workspaces/Daisy/DaisyExamples/libDaisy/src/hid/audio.h ****     struct Config
  28:/Users/reza.kalfane/Workspaces/Daisy/DaisyExamples/libDaisy/src/hid/audio.h ****     {
  29:/Users/reza.kalfane/Workspaces/Daisy/DaisyExamples/libDaisy/src/hid/audio.h ****         /** number of samples to process per callback */
  30:/Users/reza.kalfane/Workspaces/Daisy/DaisyExamples/libDaisy/src/hid/audio.h ****         size_t blocksize;
  31:/Users/reza.kalfane/Workspaces/Daisy/DaisyExamples/libDaisy/src/hid/audio.h **** 
  32:/Users/reza.kalfane/Workspaces/Daisy/DaisyExamples/libDaisy/src/hid/audio.h ****         /**< Sample rate of audio */
  33:/Users/reza.kalfane/Workspaces/Daisy/DaisyExamples/libDaisy/src/hid/audio.h ****         SaiHandle::Config::SampleRate samplerate;
  34:/Users/reza.kalfane/Workspaces/Daisy/DaisyExamples/libDaisy/src/hid/audio.h **** 
  35:/Users/reza.kalfane/Workspaces/Daisy/DaisyExamples/libDaisy/src/hid/audio.h ****         /** factor for adjustment before and after callback for hardware that may have extra headro
  36:/Users/reza.kalfane/Workspaces/Daisy/DaisyExamples/libDaisy/src/hid/audio.h ****         float postgain;
  37:/Users/reza.kalfane/Workspaces/Daisy/DaisyExamples/libDaisy/src/hid/audio.h **** 
  38:/Users/reza.kalfane/Workspaces/Daisy/DaisyExamples/libDaisy/src/hid/audio.h ****         /** factor for additional one-sided compensation to audio path for hardware that may
  39:/Users/reza.kalfane/Workspaces/Daisy/DaisyExamples/libDaisy/src/hid/audio.h ****          *  have unequal input/output ranges
  40:/Users/reza.kalfane/Workspaces/Daisy/DaisyExamples/libDaisy/src/hid/audio.h ****          */
  41:/Users/reza.kalfane/Workspaces/Daisy/DaisyExamples/libDaisy/src/hid/audio.h ****         float output_compensation;
  42:/Users/reza.kalfane/Workspaces/Daisy/DaisyExamples/libDaisy/src/hid/audio.h **** 
  43:/Users/reza.kalfane/Workspaces/Daisy/DaisyExamples/libDaisy/src/hid/audio.h ****         /** Sets default values for config struct */
  44:/Users/reza.kalfane/Workspaces/Daisy/DaisyExamples/libDaisy/src/hid/audio.h ****         Config()
  45:/Users/reza.kalfane/Workspaces/Daisy/DaisyExamples/libDaisy/src/hid/audio.h ****         : blocksize(48),
  46:/Users/reza.kalfane/Workspaces/Daisy/DaisyExamples/libDaisy/src/hid/audio.h ****           samplerate(SaiHandle::Config::SampleRate::SAI_48KHZ),
  47:/Users/reza.kalfane/Workspaces/Daisy/DaisyExamples/libDaisy/src/hid/audio.h ****           postgain(1.f),
  48:/Users/reza.kalfane/Workspaces/Daisy/DaisyExamples/libDaisy/src/hid/audio.h ****           output_compensation(1.f)
  49:/Users/reza.kalfane/Workspaces/Daisy/DaisyExamples/libDaisy/src/hid/audio.h ****         {
  50:/Users/reza.kalfane/Workspaces/Daisy/DaisyExamples/libDaisy/src/hid/audio.h ****         }
  51:/Users/reza.kalfane/Workspaces/Daisy/DaisyExamples/libDaisy/src/hid/audio.h ****     };
  52:/Users/reza.kalfane/Workspaces/Daisy/DaisyExamples/libDaisy/src/hid/audio.h **** 
  53:/Users/reza.kalfane/Workspaces/Daisy/DaisyExamples/libDaisy/src/hid/audio.h ****     enum class Result
  54:/Users/reza.kalfane/Workspaces/Daisy/DaisyExamples/libDaisy/src/hid/audio.h ****     {
  55:/Users/reza.kalfane/Workspaces/Daisy/DaisyExamples/libDaisy/src/hid/audio.h ****         OK,
  56:/Users/reza.kalfane/Workspaces/Daisy/DaisyExamples/libDaisy/src/hid/audio.h ****         ERR,
  57:/Users/reza.kalfane/Workspaces/Daisy/DaisyExamples/libDaisy/src/hid/audio.h ****     };
  58:/Users/reza.kalfane/Workspaces/Daisy/DaisyExamples/libDaisy/src/hid/audio.h **** 
  59:/Users/reza.kalfane/Workspaces/Daisy/DaisyExamples/libDaisy/src/hid/audio.h ****     /** Non-Interleaving input buffer
  60:/Users/reza.kalfane/Workspaces/Daisy/DaisyExamples/libDaisy/src/hid/audio.h ****      * Buffer arranged by float[chn][sample] 
  61:/Users/reza.kalfane/Workspaces/Daisy/DaisyExamples/libDaisy/src/hid/audio.h ****      * const so that the user can't modify the input
  62:/Users/reza.kalfane/Workspaces/Daisy/DaisyExamples/libDaisy/src/hid/audio.h ****      */
  63:/Users/reza.kalfane/Workspaces/Daisy/DaisyExamples/libDaisy/src/hid/audio.h ****     typedef const float* const* InputBuffer;
  64:/Users/reza.kalfane/Workspaces/Daisy/DaisyExamples/libDaisy/src/hid/audio.h **** 
  65:/Users/reza.kalfane/Workspaces/Daisy/DaisyExamples/libDaisy/src/hid/audio.h ****     /** Non-Interleaving output buffer
  66:/Users/reza.kalfane/Workspaces/Daisy/DaisyExamples/libDaisy/src/hid/audio.h ****      * Arranged by float[chn][sample] 
  67:/Users/reza.kalfane/Workspaces/Daisy/DaisyExamples/libDaisy/src/hid/audio.h ****      */
  68:/Users/reza.kalfane/Workspaces/Daisy/DaisyExamples/libDaisy/src/hid/audio.h ****     typedef float** OutputBuffer;
  69:/Users/reza.kalfane/Workspaces/Daisy/DaisyExamples/libDaisy/src/hid/audio.h **** 
  70:/Users/reza.kalfane/Workspaces/Daisy/DaisyExamples/libDaisy/src/hid/audio.h ****     /** Type for a Non-Interleaving audio callback 
  71:/Users/reza.kalfane/Workspaces/Daisy/DaisyExamples/libDaisy/src/hid/audio.h ****      * Non-Interleaving audio callbacks in daisy will be of this type
  72:/Users/reza.kalfane/Workspaces/Daisy/DaisyExamples/libDaisy/src/hid/audio.h ****      */
  73:/Users/reza.kalfane/Workspaces/Daisy/DaisyExamples/libDaisy/src/hid/audio.h ****     typedef void (*AudioCallback)(InputBuffer  in,
  74:/Users/reza.kalfane/Workspaces/Daisy/DaisyExamples/libDaisy/src/hid/audio.h ****                                   OutputBuffer out,
ARM GAS  /tmp/claude-502/ccZj3JyB.s 			page 8


  75:/Users/reza.kalfane/Workspaces/Daisy/DaisyExamples/libDaisy/src/hid/audio.h ****                                   size_t       size);
  76:/Users/reza.kalfane/Workspaces/Daisy/DaisyExamples/libDaisy/src/hid/audio.h **** 
  77:/Users/reza.kalfane/Workspaces/Daisy/DaisyExamples/libDaisy/src/hid/audio.h ****     /** Interleaving Input buffer
  78:/Users/reza.kalfane/Workspaces/Daisy/DaisyExamples/libDaisy/src/hid/audio.h ****      ** audio is prepared as { L0, R0, L1, R1, . . . LN, RN }]
  79:/Users/reza.kalfane/Workspaces/Daisy/DaisyExamples/libDaisy/src/hid/audio.h ****      ** this is const, as the user shouldn't modify it
  80:/Users/reza.kalfane/Workspaces/Daisy/DaisyExamples/libDaisy/src/hid/audio.h ****     */
  81:/Users/reza.kalfane/Workspaces/Daisy/DaisyExamples/libDaisy/src/hid/audio.h ****     typedef const float* InterleavingInputBuffer;
  82:/Users/reza.kalfane/Workspaces/Daisy/DaisyExamples/libDaisy/src/hid/audio.h **** 
  83:/Users/reza.kalfane/Workspaces/Daisy/DaisyExamples/libDaisy/src/hid/audio.h ****     /** Interleaving Output buffer 
  84:/Users/reza.kalfane/Workspaces/Daisy/DaisyExamples/libDaisy/src/hid/audio.h ****      ** audio is prepared as { L0, R0, L1, R1, . . . LN, RN }
  85:/Users/reza.kalfane/Workspaces/Daisy/DaisyExamples/libDaisy/src/hid/audio.h ****     */
  86:/Users/reza.kalfane/Workspaces/Daisy/DaisyExamples/libDaisy/src/hid/audio.h ****     typedef float* InterleavingOutputBuffer;
  87:/Users/reza.kalfane/Workspaces/Daisy/DaisyExamples/libDaisy/src/hid/audio.h **** 
  88:/Users/reza.kalfane/Workspaces/Daisy/DaisyExamples/libDaisy/src/hid/audio.h ****     /** Interleaving Audio Callback 
  89:/Users/reza.kalfane/Workspaces/Daisy/DaisyExamples/libDaisy/src/hid/audio.h ****      * Interleaving audio callbacks in daisy must be of this type
  90:/Users/reza.kalfane/Workspaces/Daisy/DaisyExamples/libDaisy/src/hid/audio.h ****      */
  91:/Users/reza.kalfane/Workspaces/Daisy/DaisyExamples/libDaisy/src/hid/audio.h ****     typedef void (*InterleavingAudioCallback)(InterleavingInputBuffer  in,
  92:/Users/reza.kalfane/Workspaces/Daisy/DaisyExamples/libDaisy/src/hid/audio.h ****                                               InterleavingOutputBuffer out,
  93:/Users/reza.kalfane/Workspaces/Daisy/DaisyExamples/libDaisy/src/hid/audio.h ****                                               size_t                   size);
  94:/Users/reza.kalfane/Workspaces/Daisy/DaisyExamples/libDaisy/src/hid/audio.h **** 
  95:/Users/reza.kalfane/Workspaces/Daisy/DaisyExamples/libDaisy/src/hid/audio.h ****     AudioHandle() : pimpl_(nullptr) {}
  96:/Users/reza.kalfane/Workspaces/Daisy/DaisyExamples/libDaisy/src/hid/audio.h ****     ~AudioHandle() {}
  56              		.loc 5 96 5 is_stmt 1 view .LVU7
  57              		.loc 5 96 5 is_stmt 0 view .LVU8
  58              	.LBE309:
  59              		.loc 1 22 19 view .LVU9
  60 0000 7047     		bx	lr
  61              		.cfi_endproc
  62              	.LFE2556:
  64              		.weak	_ZN5daisy9DaisySeedD1Ev
  65              		.thumb_set _ZN5daisy9DaisySeedD1Ev,_ZN5daisy9DaisySeedD2Ev
  66 0002 00BF     		.section	.text._Z13AudioCallbackPKPKfPPfj,"ax",%progbits
  67              		.align	1
  68              		.p2align 2,,3
  69              		.global	_Z13AudioCallbackPKPKfPPfj
  70              		.syntax unified
  71              		.thumb
  72              		.thumb_func
  74              	_Z13AudioCallbackPKPKfPPfj:
  75              	.LVL1:
  76              	.LFB2590:
  77              		.file 6 "src/main.cpp"
   1:src/main.cpp  **** /**
   2:src/main.cpp  ****  * mpr121_synth.cpp ŌĆö Glass Touch Moog Synth
   3:src/main.cpp  ****  * Daisy Seed ŌĆö Bit-Bang I2C  SDA=D12  SCL=D11
   4:src/main.cpp  ****  *
   5:src/main.cpp  ****  * FINGER 1:
   6:src/main.cpp  ****  *   Position  ŌåÆ Pitch (quantized on touch-down, continuous slide after)
   7:src/main.cpp  ****  *   Pressure  ŌåÆ Filter cutoff (light=dark/closed, hard=bright/open)
   8:src/main.cpp  ****  *               + Vibrato depth (press harder for more wobble)
   9:src/main.cpp  ****  *
  10:src/main.cpp  ****  * FINGER 2:
  11:src/main.cpp  ****  *   Position  ŌåÆ Oscillator detune (spread between osc1 and osc2)
  12:src/main.cpp  ****  *   Pressure  ŌåÆ Wavefold distortion (gentle saturation to complex fold)
  13:src/main.cpp  ****  *               + Ring mod amount (extreme pressure adds metallic edge)
  14:src/main.cpp  ****  *
  15:src/main.cpp  ****  * EXPRESSION:
ARM GAS  /tmp/claude-502/ccZj3JyB.s 			page 9


  16:src/main.cpp  ****  *   - Note quantize on initial touch, then free pitch bend on slide
  17:src/main.cpp  ****  *   - Pressure-controlled vibrato (LFO depth from finger 1 pressure)
  18:src/main.cpp  ****  *   - Portamento / glide between quantized notes
  19:src/main.cpp  ****  *   - Sub oscillator one octave below (adds weight)
  20:src/main.cpp  ****  *   - Soft-clip waveshaper before output
  21:src/main.cpp  ****  *   - Amplitude envelope: fast attack, pressure-controlled release
  22:src/main.cpp  ****  */
  23:src/main.cpp  **** 
  24:src/main.cpp  **** #include "daisy_seed.h"
  25:src/main.cpp  **** #include <math.h>
  26:src/main.cpp  **** #include <string.h>
  27:src/main.cpp  **** 
  28:src/main.cpp  **** using namespace daisy;
  29:src/main.cpp  **** using namespace daisy::seed;
  30:src/main.cpp  **** 
  31:src/main.cpp  **** // ŌöĆŌöĆ Pin / I2C config ŌöĆŌöĆŌöĆŌöĆŌöĆŌöĆŌöĆŌöĆŌöĆŌöĆŌöĆŌöĆŌöĆŌöĆŌöĆŌöĆŌöĆŌöĆŌöĆŌöĆŌöĆŌöĆŌöĆŌöĆ
  32:src/main.cpp  **** static constexpr Pin      SDA_PIN  = D12;
  33:src/main.cpp  **** static constexpr Pin      SCL_PIN  = D11;
  34:src/main.cpp  **** static constexpr uint8_t  MPR_ADDR = 0x5A;
  35:src/main.cpp  **** static constexpr uint32_t HP       = 5;
  36:src/main.cpp  **** static constexpr int      N_CH     = 12;
  37:src/main.cpp  **** 
  38:src/main.cpp  **** // ŌöĆŌöĆ Touch tuning ŌöĆŌöĆŌöĆŌöĆŌöĆŌöĆŌöĆŌöĆŌöĆŌöĆŌöĆŌöĆŌöĆŌöĆŌöĆŌöĆŌöĆŌöĆŌöĆŌöĆŌöĆŌöĆŌöĆŌöĆŌöĆŌ
  39:src/main.cpp  **** static constexpr int32_t  TOUCH_THRESHOLD    = 10;
  40:src/main.cpp  **** static constexpr int32_t  PRESSURE_MAX_REF[12] = {
  41:src/main.cpp  ****     42,35,34,34,34,34,
  42:src/main.cpp  ****     34,34,33,32,29,30
  43:src/main.cpp  **** };
  44:src/main.cpp  **** static constexpr int32_t  MIN_FINGER_SEP     = 4;
  45:src/main.cpp  **** static constexpr uint32_t REBASELINE_IDLE_MS = 2000;
  46:src/main.cpp  **** static constexpr int      REBASELINE_SAMPLES = 32;
  47:src/main.cpp  **** static constexpr int32_t  MAX_POS_JUMP       = 200;
  48:src/main.cpp  **** 
  49:src/main.cpp  **** // LED slew at ~60Hz touch loop. Closer to 1.0 = smoother/slower fade.
  50:src/main.cpp  **** // 0.0 = no smoothing (snap), 0.7 = ~80ms fade, 0.9 = ~250ms fade.
  51:src/main.cpp  **** static constexpr float    LED_SMOOTH         = 0.45f;
  52:src/main.cpp  **** // LED3 (software sigma-delta PWM on A0 / ADC0 / pin 22) max-brightness scale.
  53:src/main.cpp  **** static constexpr float    LED3_INTENSITY     = 0.1f;
  54:src/main.cpp  **** // Smoothing coefficient used for LED3 only when no finger is touching. Smaller
  55:src/main.cpp  **** // than LED_SMOOTH = faster fade-out on lift. 0.0 = instant snap to 0.
  56:src/main.cpp  **** static constexpr float    LED3_RELEASE_SMOOTH = 0.10f;
  57:src/main.cpp  **** 
  58:src/main.cpp  **** // ŌöĆŌöĆ Voices ŌöĆŌöĆŌöĆŌöĆŌöĆŌöĆŌöĆŌöĆŌöĆŌöĆŌöĆŌöĆŌöĆŌöĆŌöĆŌöĆŌöĆŌöĆŌöĆŌöĆŌöĆŌöĆŌöĆŌöĆŌöĆŌöĆŌöĆŌ
  59:src/main.cpp  **** // A "Voice" bundles everything that defines a sound: the oscillator stack
  60:src/main.cpp  **** // (which pitches sound and at what level), the filter/drive character, and the
  61:src/main.cpp  **** // pitch range finger-1 sweeps across. Presets live in the VOICES[] bank below;
  62:src/main.cpp  **** // the active one is `g_voice_idx`, which the FSR-hold gesture cycles live. The
  63:src/main.cpp  **** // audio callback snapshots it once per block.
  64:src/main.cpp  **** 
  65:src/main.cpp  **** // Oscillator shape ŌĆö set per oscillator, so one voice can mix (e.g. saw root +
  66:src/main.cpp  **** // square fifth + sine sub). SQUARE and SAW are naive (not band-limited) ŌĆö they
  67:src/main.cpp  **** // alias at high pitch, but on a low bass voice that just reads as rich harmonics
  68:src/main.cpp  **** // for the filter to chew.
  69:src/main.cpp  **** enum Waveform { WAVE_TRI, WAVE_SINE, WAVE_SQUARE, WAVE_SAW };
  70:src/main.cpp  **** 
  71:src/main.cpp  **** struct Voice {
  72:src/main.cpp  ****     const char* name;
ARM GAS  /tmp/claude-502/ccZj3JyB.s 			page 10


  73:src/main.cpp  **** 
  74:src/main.cpp  ****     // Pitch range. Finger-1 position 0ŌĆō1000 maps exponentially across this.
  75:src/main.cpp  ****     float freq_low;
  76:src/main.cpp  ****     float freq_high;
  77:src/main.cpp  ****     float log_freq_ratio;   // = ln(freq_high / freq_low), precomputed (logf isn't constexpr)
  78:src/main.cpp  **** 
  79:src/main.cpp  ****     // Oscillator stack. Each oscillator's pitch = fundamental * ratio, and each
  80:src/main.cpp  ****     // has its own waveform. Set a level to 0 to silence an oscillator.
  81:src/main.cpp  ****     float osc1_ratio, osc1_level;  Waveform osc1_wave;   // primary
  82:src/main.cpp  ****     float osc2_ratio, osc2_level;  Waveform osc2_wave;   // second osc (see osc2_detune)
  83:src/main.cpp  ****     float sub_ratio,  sub_level;   Waveform sub_wave;    // weight below
  84:src/main.cpp  ****     float oct_ratio,  oct_level;   Waveform oct_wave;    // shimmer / chord top
  85:src/main.cpp  ****     bool  osc2_detune;              // true  ŌåÆ finger-2 detune controls osc2 pitch (lead)
  86:src/main.cpp  ****                                     // false ŌåÆ osc2 stays at osc2_ratio (e.g. a fixed 5th)
  87:src/main.cpp  **** 
  88:src/main.cpp  ****     // Filter character. Base cutoff = freq * cutoff_mult; pressure opens it
  89:src/main.cpp  ****     // by up to cutoff_oct_max octaves on top.
  90:src/main.cpp  ****     float cutoff_mult;
  91:src/main.cpp  ****     float cutoff_oct_max;
  92:src/main.cpp  ****     float resonance;
  93:src/main.cpp  **** 
  94:src/main.cpp  ****     // Drive ŌĆö pressure-controlled waveshaper gain added on top of 1.0.
  95:src/main.cpp  ****     float drive_max;
  96:src/main.cpp  **** 
  97:src/main.cpp  ****     // ŌöĆŌöĆ Extras (appended so existing field order stays stable) ŌöĆŌöĆŌöĆŌöĆŌöĆŌöĆŌöĆŌöĆŌöĆŌöĆ
  98:src/main.cpp  ****     float noise_level;     // white noise mixed into the oscillator stack (0 = none)
  99:src/main.cpp  ****     float keytrack;        // 0..1 ŌĆö how much the cutoff follows pitch (1 = full)
 100:src/main.cpp  ****     float ringmod_ratio;   // ring-mod carrier pitch ratio (1.0 = unison; non-int = bell/metallic)
 101:src/main.cpp  ****     float ringmod_max;     // max ring-mod wet from finger-2 pressure
 102:src/main.cpp  ****     float fold_max;        // max wavefold amount from finger-2 pressure
 103:src/main.cpp  ****     float attack_ms;       // amp envelope attack time
 104:src/main.cpp  ****     float release_ms;      // amp envelope + filter-close release time
 105:src/main.cpp  ****     float glide_ms;        // portamento (pitch glide) time
 106:src/main.cpp  **** };
 107:src/main.cpp  **** 
 108:src/main.cpp  **** // Perfect-fifth frequency ratio = 2^(7/12).
 109:src/main.cpp  **** static constexpr float RATIO_FIFTH = 1.49831f;
 110:src/main.cpp  **** 
 111:src/main.cpp  **** // ŌöĆŌöĆ Voice 0: the original glass-Moog lead ŌöĆŌöĆŌöĆŌöĆŌöĆŌöĆŌöĆŌöĆŌöĆŌöĆŌöĆŌöĆŌöĆŌöĆŌöĆŌöĆŌöĆ
 112:src/main.cpp  **** //   F1 posŌåÆpitch, F1 prsŌåÆcutoff+vibrato; F2 posŌåÆdetune, F2 prsŌåÆwavefold+ringmod.
 113:src/main.cpp  **** static constexpr Voice VOICE_LEAD = {
 114:src/main.cpp  ****     "Lead",
 115:src/main.cpp  ****     50.0f, 300.0f, 1.79176f,   // 50ŌĆō300 Hz, ln(6)
 116:src/main.cpp  ****     1.0f, 0.50f, WAVE_TRI,   // osc1  ŌĆö root
 117:src/main.cpp  ****     1.0f, 0.22f, WAVE_TRI,   // osc2  ŌĆö detune-controlled, ratio is just the base
 118:src/main.cpp  ****     0.5f, 0.18f, WAVE_TRI,   // sub   ŌĆö one octave below
 119:src/main.cpp  ****     2.0f, 0.15f, WAVE_TRI,   // oct   ŌĆö one octave above
 120:src/main.cpp  ****     true,          // osc2 follows finger-2 detune
 121:src/main.cpp  ****     0.3f, 12.0f, 0.75f,
 122:src/main.cpp  ****     2.5f,
 123:src/main.cpp  ****     // noise, keytrack, rm_ratio, rm_max, fold_max, attack, release, glide (ms)
 124:src/main.cpp  ****     0.0f, 1.0f, 1.0f, 0.15f, 0.18f, 4.0f, 400.0f, 40.0f
 125:src/main.cpp  **** };
 126:src/main.cpp  **** 
 127:src/main.cpp  **** // ŌöĆŌöĆ Voice 1: round & dark power-chord bass (root + 5th + octave + sub) ŌöĆŌöĆŌöĆŌöĆŌöĆŌöĆŌöĆŌ
 128:src/main.cpp  **** //   Same touch mappings, but osc2 is a fixed perfect fifth instead of a detune,
 129:src/main.cpp  **** //   so every note sounds as a power chord. Lower range, gentler filter, less
ARM GAS  /tmp/claude-502/ccZj3JyB.s 			page 11


 130:src/main.cpp  **** //   drive ŌåÆ deep and round rather than bright and screaming.
 131:src/main.cpp  **** static constexpr Voice VOICE_BASS = {
 132:src/main.cpp  ****     "Bass",
 133:src/main.cpp  ****     40.0f, 160.0f, 1.38629f,   // 40ŌĆō160 Hz, ln(4) ŌĆö sits under the lead
 134:src/main.cpp  ****     1.0f,        0.45f, WAVE_TRI,   // osc1  ŌĆö root
 135:src/main.cpp  ****     RATIO_FIFTH, 0.30f, WAVE_TRI,   // osc2  ŌĆö fixed perfect fifth (the power chord)
 136:src/main.cpp  ****     0.5f,        0.34f, WAVE_TRI,   // sub   ŌĆö extra weight for a round bottom
 137:src/main.cpp  ****     2.0f,        0.20f, WAVE_TRI,   // oct   ŌĆö top of the power chord
 138:src/main.cpp  ****     false,                // osc2 is a fixed fifth, not finger-2 detune
 139:src/main.cpp  ****     0.25f, 7.0f, 0.50f,   // darker: lower base cutoff, gentler sweep, less resonance
 140:src/main.cpp  ****     1.0f,                 // less drive ŌĆö keep it clean and round
 141:src/main.cpp  ****     // noise, keytrack, rm_ratio, rm_max, fold_max, attack, release, glide (ms)
 142:src/main.cpp  ****     0.0f, 1.0f, 1.0f, 0.12f, 0.12f, 6.0f, 300.0f, 25.0f
 143:src/main.cpp  **** };
 144:src/main.cpp  **** 
 145:src/main.cpp  **** // ŌöĆŌöĆ Voice 2: open power-chord bass ŌöĆŌöĆŌöĆŌöĆŌöĆŌöĆŌöĆŌöĆŌöĆŌöĆŌöĆŌöĆŌöĆŌöĆŌöĆŌöĆŌöĆŌöĆŌöĆŌ
 146:src/main.cpp  **** //   Same chord stack as VOICE_BASS, but the filter starts brighter and sweeps
 147:src/main.cpp  **** //   much further with pressure ŌĆö light touch is still warm, hard press opens it
 148:src/main.cpp  **** //   wide. A touch more resonance and drive for presence as it opens.
 149:src/main.cpp  **** static constexpr Voice VOICE_BASS_OPEN = {
 150:src/main.cpp  ****     "OpenBass",
 151:src/main.cpp  ****     40.0f, 180.0f, 1.50408f,   // 40ŌĆō180 Hz, ln(4.5) ŌĆö a little more reach up top
 152:src/main.cpp  ****     1.0f,        0.45f, WAVE_TRI,   // osc1  ŌĆö root
 153:src/main.cpp  ****     RATIO_FIFTH, 0.30f, WAVE_TRI,   // osc2  ŌĆö fixed perfect fifth (the power chord)
 154:src/main.cpp  ****     0.5f,        0.30f, WAVE_TRI,   // sub   ŌĆö slightly less so the openness reads
 155:src/main.cpp  ****     2.0f,        0.22f, WAVE_TRI,   // oct   ŌĆö top of the power chord
 156:src/main.cpp  ****     false,                // osc2 is a fixed fifth, not finger-2 detune
 157:src/main.cpp  ****     0.5f, 10.0f, 0.65f,   // brighter base + wider pressure sweep + more resonance
 158:src/main.cpp  ****     1.8f,                 // more drive ŌĆö grit comes in as you press
 159:src/main.cpp  ****     // noise, keytrack, rm_ratio, rm_max, fold_max, attack, release, glide (ms)
 160:src/main.cpp  ****     0.0f, 1.0f, 1.0f, 0.15f, 0.15f, 5.0f, 350.0f, 25.0f
 161:src/main.cpp  **** };
 162:src/main.cpp  **** 
 163:src/main.cpp  **** // ŌöĆŌöĆ Voice 3: rich power-chord bass with mixed waveforms + huge filter sweep ŌöĆŌöĆŌöĆŌöĆ
 164:src/main.cpp  **** //   Mixed shapes for body: saw root (harmonic-rich), square fifth (hollow), a
 165:src/main.cpp  **** //   clean sine sub (tight low end), saw octave on top. Starts dark, then
 166:src/main.cpp  **** //   pressure opens the cutoff dramatically (13 octaves) with high resonance ŌĆö
 167:src/main.cpp  **** //   a vocal, acid-style "wow" as you press harder.
 168:src/main.cpp  **** static constexpr Voice VOICE_BASS_RICH = {
 169:src/main.cpp  ****     "RichBass",
 170:src/main.cpp  ****     40.0f, 160.0f, 1.38629f,   // 40ŌĆō160 Hz, ln(4)
 171:src/main.cpp  ****     1.0f,        0.40f, WAVE_SAW,    // osc1  ŌĆö saw root (rich harmonics)
 172:src/main.cpp  ****     RATIO_FIFTH, 0.26f, WAVE_SQUARE, // osc2  ŌĆö square fifth (hollow contrast)
 173:src/main.cpp  ****     0.5f,        0.32f, WAVE_SINE,   // sub   ŌĆö clean sine for a tight low end
 174:src/main.cpp  ****     2.0f,        0.18f, WAVE_SAW,    // oct   ŌĆö saw top of the power chord
 175:src/main.cpp  ****     false,                // osc2 is a fixed fifth, not finger-2 detune
 176:src/main.cpp  ****     0.2f, 13.0f, 0.82f,   // dark base + enormous pressure sweep + high resonance
 177:src/main.cpp  ****     2.2f,                 // generous drive ŌĆö grit blooms with pressure
 178:src/main.cpp  ****     // noise, keytrack, rm_ratio, rm_max, fold_max, attack, release, glide (ms)
 179:src/main.cpp  ****     0.0f, 1.0f, 1.0f, 0.20f, 0.20f, 3.0f, 250.0f, 18.0f   // snappy + fast acid glide
 180:src/main.cpp  **** };
 181:src/main.cpp  **** 
 182:src/main.cpp  **** // ŌöĆŌöĆ Voice 4: clean sine organ / flute (a melodic, non-bass departure) ŌöĆŌöĆŌöĆŌöĆŌöĆŌöĆŌöĆŌö
 183:src/main.cpp  **** //   Pure sine oscillators stacked like organ drawbars: octave-down body, root,
 184:src/main.cpp  **** //   octave-up air, plus a second osc tuned a hair sharp (1.005├Ś) for a slow,
 185:src/main.cpp  **** //   warm chorus shimmer instead of a chord. Higher register than the basses, a
 186:src/main.cpp  **** //   mostly-open clean filter, and just a touch of drive so pressure adds gentle
ARM GAS  /tmp/claude-502/ccZj3JyB.s 			page 12


 187:src/main.cpp  **** //   harmonic warmth. Sines never alias, so it stays smooth all the way up.
 188:src/main.cpp  **** static constexpr Voice VOICE_ORGAN = {
 189:src/main.cpp  ****     "Organ",
 190:src/main.cpp  ****     65.0f, 520.0f, 2.07944f,   // 65ŌĆō520 Hz, ln(8) ŌĆö a melodic keyboard register
 191:src/main.cpp  ****     1.0f,    0.45f, WAVE_SINE,  // osc1  ŌĆö root (8')
 192:src/main.cpp  ****     1.005f,  0.40f, WAVE_SINE,  // osc2  ŌĆö slightly sharp unison ŌåÆ slow chorus shimmer
 193:src/main.cpp  ****     0.5f,    0.30f, WAVE_SINE,  // sub   ŌĆö octave-down body (16')
 194:src/main.cpp  ****     2.0f,    0.28f, WAVE_SINE,  // oct   ŌĆö octave-up air (4')
 195:src/main.cpp  ****     false,                      // osc2 is a fixed chorus detune, not finger-2 detune
 196:src/main.cpp  ****     2.0f, 5.0f, 0.20f,          // mostly-open clean filter, gentle pressure lift, low res
 197:src/main.cpp  ****     0.8f,                       // light drive ŌĆö pressure adds subtle warmth, stays pure
 198:src/main.cpp  ****     // noise, keytrack, rm_ratio, rm_max, fold_max, attack, release, glide (ms)
 199:src/main.cpp  ****     0.03f, 1.0f, 1.0f, 0.05f, 0.0f, 8.0f, 120.0f, 8.0f   // breath chiff, fast on/off, no glide
 200:src/main.cpp  **** };
 201:src/main.cpp  **** 
 202:src/main.cpp  **** // ŌöĆŌöĆ Voice 5: screaming aggressive lead ŌöĆŌöĆŌöĆŌöĆŌöĆŌöĆŌöĆŌöĆŌöĆŌöĆŌöĆŌöĆŌöĆŌöĆŌöĆŌöĆŌöĆŌöĆ
 203:src/main.cpp  **** //   Detuned sawtooth stack (root + a hair-sharp twin + octave) for a thick,
 204:src/main.cpp  **** //   buzzing supersaw bite, pushed up into a cutting register. Heavy drive and a
 205:src/main.cpp  **** //   very high filter resonance make the cutoff whistle and scream as pressure
 206:src/main.cpp  **** //   sweeps it wide open. Finger-2 pressure piles on ring-mod + wavefold for
 207:src/main.cpp  **** //   extra snarl. Loud and nasty ŌĆö the output soft-clip keeps it from blowing up.
 208:src/main.cpp  **** static constexpr Voice VOICE_SCREAM = {
 209:src/main.cpp  ****     "Scream",
 210:src/main.cpp  ****     90.0f, 720.0f, 2.07944f,   // 90ŌĆō720 Hz, ln(8) ŌĆö high, cutting register
 211:src/main.cpp  ****     1.0f,    0.42f, WAVE_SAW,   // osc1  ŌĆö saw root
 212:src/main.cpp  ****     1.008f,  0.38f, WAVE_SAW,   // osc2  ŌĆö slightly sharp twin ŌåÆ thick beating buzz
 213:src/main.cpp  ****     0.5f,    0.20f, WAVE_SAW,   // sub   ŌĆö a little weight underneath
 214:src/main.cpp  ****     2.0f,    0.30f, WAVE_SAW,   // oct   ŌĆö octave up for bright, cutting scream
 215:src/main.cpp  ****     false,                      // osc2 is a fixed detune, not finger-2 controlled
 216:src/main.cpp  ****     3.0f, 11.0f, 0.90f,         // bright base + wide sweep + near-self-osc resonance
 217:src/main.cpp  ****     4.0f,                       // heavy drive ŌĆö saturated and aggressive
 218:src/main.cpp  ****     // noise, keytrack, rm_ratio, rm_max, fold_max, attack, release, glide (ms)
 219:src/main.cpp  ****     0.05f, 1.0f, 2.5f, 0.40f, 0.30f, 2.0f, 200.0f, 35.0f // hiss + inharmonic metallic ring-mod
 220:src/main.cpp  **** };
 221:src/main.cpp  **** 
 222:src/main.cpp  **** // ŌöĆŌöĆ Voice 6: very closed, dark sub bass ŌöĆŌöĆŌöĆŌöĆŌöĆŌöĆŌöĆŌöĆŌöĆŌöĆŌöĆŌöĆŌöĆŌöĆŌöĆŌöĆŌöĆŌö
 223:src/main.cpp  **** //   The opposite of the scream: a deep, muffled power-chord bass. A clean sine
 224:src/main.cpp  **** //   sub carries the weight under a mellow triangle root; the fifth and octave
 225:src/main.cpp  **** //   are dialed right back. The filter sits down around the fundamental and only
 226:src/main.cpp  **** //   creeps open a couple of octaves at full pressure, so it stays dark and
 227:src/main.cpp  **** //   muted ŌĆö felt more than heard. Low resonance, almost no drive.
 228:src/main.cpp  **** static constexpr Voice VOICE_BASS_CLOSED = {
 229:src/main.cpp  ****     "ClosedBass",
 230:src/main.cpp  ****     35.0f, 140.0f, 1.38629f,   // 35ŌĆō140 Hz, ln(4) ŌĆö deep
 231:src/main.cpp  ****     1.0f,        0.42f, WAVE_TRI,    // osc1  ŌĆö mellow triangle root
 232:src/main.cpp  ****     RATIO_FIFTH, 0.18f, WAVE_TRI,    // osc2  ŌĆö fifth, dialed back
 233:src/main.cpp  ****     0.5f,        0.44f, WAVE_SINE,   // sub   ŌĆö clean sine carries the weight
 234:src/main.cpp  ****     2.0f,        0.10f, WAVE_TRI,    // oct   ŌĆö barely there, keep it dark
 235:src/main.cpp  ****     false,                      // osc2 is a fixed fifth, not finger-2 detune
 236:src/main.cpp  ****     1.0f, 2.0f, 0.30f,          // cutoff sits near the fundamental, tiny sweep, low res
 237:src/main.cpp  ****     0.5f,                       // minimal drive ŌĆö stays clean and round
 238:src/main.cpp  ****     // noise, keytrack, rm_ratio, rm_max, fold_max, attack, release, glide (ms)
 239:src/main.cpp  ****     0.0f, 0.6f, 1.0f, 0.0f, 0.0f, 10.0f, 500.0f, 30.0f   // soft, long tail, less keytrack, clean
 240:src/main.cpp  **** };
 241:src/main.cpp  **** 
 242:src/main.cpp  **** // ŌöĆŌöĆ Voice bank ŌöĆŌöĆŌöĆŌöĆŌöĆŌöĆŌöĆŌöĆŌöĆŌöĆŌöĆŌöĆŌöĆŌöĆŌöĆŌöĆŌöĆŌöĆŌöĆŌöĆŌöĆŌöĆŌöĆŌöĆŌöĆŌöĆ
 243:src/main.cpp  **** // All voices, in cycle order. Holding the FSR pressed steps through these live
ARM GAS  /tmp/claude-502/ccZj3JyB.s 			page 13


 244:src/main.cpp  **** // (see the voice-switch gesture in the main loop). Edit the order here to taste.
 245:src/main.cpp  **** static constexpr Voice VOICES[] = {
 246:src/main.cpp  ****     VOICE_LEAD,
 247:src/main.cpp  ****     VOICE_BASS,
 248:src/main.cpp  ****     VOICE_BASS_OPEN,
 249:src/main.cpp  ****     VOICE_BASS_RICH,
 250:src/main.cpp  ****     VOICE_ORGAN,
 251:src/main.cpp  ****     VOICE_SCREAM,
 252:src/main.cpp  ****     VOICE_BASS_CLOSED,
 253:src/main.cpp  **** };
 254:src/main.cpp  **** static constexpr int NUM_VOICES = (int)(sizeof(VOICES) / sizeof(VOICES[0]));
 255:src/main.cpp  **** 
 256:src/main.cpp  **** // Active voice index ŌĆö written by the touch loop (gesture), read by the audio
 257:src/main.cpp  **** // callback each block. Change the initial value to pick the boot voice.
 258:src/main.cpp  **** static volatile int g_voice_idx = 0;   // 0 = Lead
 259:src/main.cpp  **** 
 260:src/main.cpp  **** // FSR voice-switch gesture: hold the FSR pressed (volume at/near 0) to cycle.
 261:src/main.cpp  **** // First advance after FIRST_MS; while still held, keep advancing every REPEAT_MS.
 262:src/main.cpp  **** static constexpr uint32_t VOICE_SWITCH_FIRST_MS  = 5000;
 263:src/main.cpp  **** static constexpr uint32_t VOICE_SWITCH_REPEAT_MS = 2000;
 264:src/main.cpp  **** 
 265:src/main.cpp  **** // ŌöĆŌöĆ Musical mapping ŌöĆŌöĆŌöĆŌöĆŌöĆŌöĆŌöĆŌöĆŌöĆŌöĆŌöĆŌöĆŌöĆŌöĆŌöĆŌöĆŌöĆŌöĆŌöĆŌöĆŌöĆŌöĆŌöĆŌöĆŌ
 266:src/main.cpp  **** // Set to false to disable all quantization (fully continuous pitch)
 267:src/main.cpp  **** static constexpr bool QUANTIZE_ENABLED = false;
 268:src/main.cpp  **** // Quantize to chromatic scale (all 12 semitones)
 269:src/main.cpp  **** // Change to {0,2,4,5,7,9,11} for major scale, {0,2,3,5,7,8,10} for minor, etc.
 270:src/main.cpp  **** static const int SCALE[] = {0,1,2,3,4,5,6,7,8,9,10,11}; // chromatic
 271:src/main.cpp  **** static constexpr int SCALE_LEN = 12;
 272:src/main.cpp  **** 
 273:src/main.cpp  **** // ŌöĆŌöĆ MPR121 registers ŌöĆŌöĆŌöĆŌöĆŌöĆŌöĆŌöĆŌöĆŌöĆŌöĆŌöĆŌöĆŌöĆŌöĆŌöĆŌöĆŌöĆŌöĆŌöĆŌöĆŌöĆŌöĆŌöĆŌöĆ
 274:src/main.cpp  **** static constexpr uint8_t REG_ELE0_LSB  = 0x04;
 275:src/main.cpp  **** static constexpr uint8_t REG_MHDR=0x2B,REG_NHDR=0x2C,REG_NCLR=0x2D,REG_FDLR=0x2E;
 276:src/main.cpp  **** static constexpr uint8_t REG_MHDF=0x2F,REG_NHDF=0x30,REG_NCLF=0x31,REG_FDLF=0x32;
 277:src/main.cpp  **** static constexpr uint8_t REG_NHDT=0x33,REG_NCLT=0x34,REG_FDLT=0x35;
 278:src/main.cpp  **** static constexpr uint8_t REG_DEBOUNCE=0x5B,REG_CONFIG1=0x5C,REG_CONFIG2=0x5D;
 279:src/main.cpp  **** static constexpr uint8_t REG_ECR=0x5E,REG_SOFTRESET=0x80;
 280:src/main.cpp  **** 
 281:src/main.cpp  **** // ŌöĆŌöĆ Globals ŌöĆŌöĆŌöĆŌöĆŌöĆŌöĆŌöĆŌöĆŌöĆŌöĆŌöĆŌöĆŌöĆŌöĆŌöĆŌöĆŌöĆŌöĆŌöĆŌöĆŌöĆŌöĆŌöĆŌöĆŌöĆŌöĆŌöĆ
 282:src/main.cpp  **** DaisySeed hw;
 283:src/main.cpp  **** GPIO      sda, scl;
 284:src/main.cpp  **** GPIO      led3;  // software-PWM LED on A0 (ADC0 / D15 / pin 22)
 285:src/main.cpp  **** 
 286:src/main.cpp  **** // ŌöĆŌöĆ Bit-bang I2C ŌöĆŌöĆŌöĆŌöĆŌöĆŌöĆŌöĆŌöĆŌöĆŌöĆŌöĆŌöĆŌöĆŌöĆŌöĆŌöĆŌöĆŌöĆŌöĆŌöĆŌöĆŌöĆŌöĆŌöĆŌöĆŌ
 287:src/main.cpp  **** inline void sda_high(){sda.Init(SDA_PIN,GPIO::Mode::INPUT, GPIO::Pull::PULLUP);}
 288:src/main.cpp  **** inline void sda_low() {sda.Init(SDA_PIN,GPIO::Mode::OUTPUT,GPIO::Pull::NOPULL);sda.Write(false);}
 289:src/main.cpp  **** inline void scl_high(){scl.Init(SCL_PIN,GPIO::Mode::INPUT, GPIO::Pull::PULLUP);}
 290:src/main.cpp  **** inline void scl_low() {scl.Init(SCL_PIN,GPIO::Mode::OUTPUT,GPIO::Pull::NOPULL);scl.Write(false);}
 291:src/main.cpp  **** inline void d(){System::DelayUs(HP);}
 292:src/main.cpp  **** 
 293:src/main.cpp  **** void i2c_start(){sda_high();d();scl_high();d();sda_low();d();scl_low();d();}
 294:src/main.cpp  **** void i2c_stop() {sda_low();d();scl_high();d();sda_high();d();}
 295:src/main.cpp  **** 
 296:src/main.cpp  **** bool i2c_write_byte(uint8_t byte)
 297:src/main.cpp  **** {
 298:src/main.cpp  ****     for(int i=7;i>=0;i--){
 299:src/main.cpp  ****         if(byte&(1<<i))sda_high();else sda_low();
 300:src/main.cpp  ****         d();scl_high();d();scl_low();d();
ARM GAS  /tmp/claude-502/ccZj3JyB.s 			page 14


 301:src/main.cpp  ****     }
 302:src/main.cpp  ****     sda_high();d();scl_high();d();
 303:src/main.cpp  ****     bool ack=!sda.Read();
 304:src/main.cpp  ****     scl_low();d();
 305:src/main.cpp  ****     return ack;
 306:src/main.cpp  **** }
 307:src/main.cpp  **** 
 308:src/main.cpp  **** uint8_t i2c_read_byte(bool ack)
 309:src/main.cpp  **** {
 310:src/main.cpp  ****     uint8_t b=0;sda_high();
 311:src/main.cpp  ****     for(int i=7;i>=0;i--){d();scl_high();d();if(sda.Read())b|=(1<<i);scl_low();}
 312:src/main.cpp  ****     if(ack)sda_low();else sda_high();
 313:src/main.cpp  ****     d();scl_high();d();scl_low();d();sda_high();
 314:src/main.cpp  ****     return b;
 315:src/main.cpp  **** }
 316:src/main.cpp  **** 
 317:src/main.cpp  **** bool mpr_write(uint8_t reg,uint8_t val)
 318:src/main.cpp  **** {
 319:src/main.cpp  ****     i2c_start();
 320:src/main.cpp  ****     if(!i2c_write_byte((MPR_ADDR<<1)|0)){i2c_stop();return false;}
 321:src/main.cpp  ****     if(!i2c_write_byte(reg))            {i2c_stop();return false;}
 322:src/main.cpp  ****     if(!i2c_write_byte(val))            {i2c_stop();return false;}
 323:src/main.cpp  ****     i2c_stop();return true;
 324:src/main.cpp  **** }
 325:src/main.cpp  **** 
 326:src/main.cpp  **** bool mpr_read(uint8_t reg,uint8_t* buf,uint8_t len)
 327:src/main.cpp  **** {
 328:src/main.cpp  ****     i2c_start();
 329:src/main.cpp  ****     if(!i2c_write_byte((MPR_ADDR<<1)|0)){i2c_stop();return false;}
 330:src/main.cpp  ****     if(!i2c_write_byte(reg))            {i2c_stop();return false;}
 331:src/main.cpp  ****     i2c_start();
 332:src/main.cpp  ****     if(!i2c_write_byte((MPR_ADDR<<1)|1)){i2c_stop();return false;}
 333:src/main.cpp  ****     for(uint8_t i=0;i<len;i++) buf[i]=i2c_read_byte(i<len-1);
 334:src/main.cpp  ****     i2c_stop();return true;
 335:src/main.cpp  **** }
 336:src/main.cpp  **** 
 337:src/main.cpp  **** bool mpr_init()
 338:src/main.cpp  **** {
 339:src/main.cpp  ****     mpr_write(REG_SOFTRESET,0x63);System::Delay(10);
 340:src/main.cpp  ****     mpr_write(REG_ECR,0x00);
 341:src/main.cpp  ****     mpr_write(REG_MHDR,0x01);mpr_write(REG_NHDR,0x01);
 342:src/main.cpp  ****     mpr_write(REG_NCLR,0x10);mpr_write(REG_FDLR,0x20);
 343:src/main.cpp  ****     mpr_write(REG_MHDF,0x01);mpr_write(REG_NHDF,0x01);
 344:src/main.cpp  ****     mpr_write(REG_NCLF,0x10);mpr_write(REG_FDLF,0x20);
 345:src/main.cpp  ****     mpr_write(REG_NHDT,0x00);mpr_write(REG_NCLT,0x00);mpr_write(REG_FDLT,0x00);
 346:src/main.cpp  ****     for(uint8_t ch=0;ch<12;ch++){mpr_write(0x41+ch*2,4);mpr_write(0x42+ch*2,2);}
 347:src/main.cpp  ****     mpr_write(REG_DEBOUNCE,0x11);
 348:src/main.cpp  ****     mpr_write(REG_CONFIG1,0xF0);  // FFI=34 | CDC=48uA
 349:src/main.cpp  ****     mpr_write(REG_CONFIG2,0x4C);  // CDT=4us | SFI=18 | ESI=1ms
 350:src/main.cpp  ****     mpr_write(REG_ECR,0x8C);
 351:src/main.cpp  ****     System::Delay(100);
 352:src/main.cpp  ****     uint8_t ecr=0;mpr_read(REG_ECR,&ecr,1);
 353:src/main.cpp  ****     return(ecr==0x8C);
 354:src/main.cpp  **** }
 355:src/main.cpp  **** 
 356:src/main.cpp  **** void read_electrodes(uint16_t* out)
 357:src/main.cpp  **** {
ARM GAS  /tmp/claude-502/ccZj3JyB.s 			page 15


 358:src/main.cpp  ****     uint8_t buf[24];
 359:src/main.cpp  ****     mpr_read(REG_ELE0_LSB,buf,24);
 360:src/main.cpp  ****     for(int i=0;i<N_CH;i++)
 361:src/main.cpp  ****         out[i]=(uint16_t)(buf[i*2]|((buf[i*2+1]&0x03)<<8));
 362:src/main.cpp  **** }
 363:src/main.cpp  **** 
 364:src/main.cpp  **** void capture_baseline(uint16_t* bl)
 365:src/main.cpp  **** {
 366:src/main.cpp  ****     uint32_t acc[N_CH]={0};uint16_t tmp[N_CH];
 367:src/main.cpp  ****     for(int s=0;s<REBASELINE_SAMPLES;s++){
 368:src/main.cpp  ****         read_electrodes(tmp);
 369:src/main.cpp  ****         for(int i=0;i<N_CH;i++)acc[i]+=tmp[i];
 370:src/main.cpp  ****         System::Delay(5);
 371:src/main.cpp  ****     }
 372:src/main.cpp  ****     for(int i=0;i<N_CH;i++)bl[i]=(uint16_t)(acc[i]/REBASELINE_SAMPLES);
 373:src/main.cpp  **** }
 374:src/main.cpp  **** 
 375:src/main.cpp  **** // ŌöĆŌöĆ Touch structs ŌöĆŌöĆŌöĆŌöĆŌöĆŌöĆŌöĆŌöĆŌöĆŌöĆŌöĆŌöĆŌöĆŌöĆŌöĆŌöĆŌöĆŌöĆŌöĆŌöĆŌöĆŌöĆŌöĆŌöĆŌöĆ
 376:src/main.cpp  **** struct Finger { bool active; int32_t pos,pressure,peak_ch,peak_delta; };
 377:src/main.cpp  **** struct TrackedFinger { bool alive; int32_t pos,pressure; int peak_ch; int32_t peak_delta; };
 378:src/main.cpp  **** static TrackedFinger tracked[2]={};
 379:src/main.cpp  **** 
 380:src/main.cpp  **** int32_t centroid_window(int32_t* d,int s,int e,int32_t* pk_out,int* pkch_out)
 381:src/main.cpp  **** {
 382:src/main.cpp  ****     int32_t sw=0,swx=0,pk=0;int pkc=s;
 383:src/main.cpp  ****     for(int i=s;i<=e;i++){
 384:src/main.cpp  ****         int32_t w=d[i]>0?d[i]:0;
 385:src/main.cpp  ****         sw+=w;swx+=w*i;
 386:src/main.cpp  ****         if(w>pk){pk=w;pkc=i;}
 387:src/main.cpp  ****     }
 388:src/main.cpp  ****     if(pk_out)*pk_out=pk;if(pkch_out)*pkch_out=pkc;
 389:src/main.cpp  ****     if(sw==0)return -1;
 390:src/main.cpp  ****     int32_t p=(swx*1000)/(sw*(N_CH-1));
 391:src/main.cpp  ****     if(p<0)p=0;if(p>1000)p=1000;
 392:src/main.cpp  ****     return p;
 393:src/main.cpp  **** }
 394:src/main.cpp  **** 
 395:src/main.cpp  **** int32_t pressure_pct(int32_t pk, int ch){
 396:src/main.cpp  ****     int32_t range = PRESSURE_MAX_REF[ch] - TOUCH_THRESHOLD;
 397:src/main.cpp  ****     int32_t raw   = pk - TOUCH_THRESHOLD;
 398:src/main.cpp  ****     if(raw <= 0)     return 0;
 399:src/main.cpp  ****     if(raw >= range) return 100;
 400:src/main.cpp  ****     // Clamp raw strictly before sqrt to prevent Newton overshoot
 401:src/main.cpp  ****     if(raw > range) raw = range;
 402:src/main.cpp  ****     int32_t scaled = raw * 10000 / range; // 0..10000
 403:src/main.cpp  ****     if(scaled > 10000) scaled = 10000;
 404:src/main.cpp  ****     // Integer sqrt via Newton
 405:src/main.cpp  ****     int32_t s = scaled / 2 + 1;
 406:src/main.cpp  ****     s = (s + scaled/s) / 2;
 407:src/main.cpp  ****     s = (s + scaled/s) / 2;
 408:src/main.cpp  ****     s = (s + scaled/s) / 2;
 409:src/main.cpp  ****     s = (s + scaled/s) / 2;
 410:src/main.cpp  ****     // Hard clamp output ŌĆö Newton can land at 101 due to rounding
 411:src/main.cpp  ****     if(s < 0)   s = 0;
 412:src/main.cpp  ****     if(s > 100) s = 100;
 413:src/main.cpp  ****     return s;
 414:src/main.cpp  **** }
ARM GAS  /tmp/claude-502/ccZj3JyB.s 			page 16


 415:src/main.cpp  **** 
 416:src/main.cpp  **** int detect_raw(int32_t* delta,Finger out[2])
 417:src/main.cpp  **** {
 418:src/main.cpp  ****     out[0].active=out[1].active=false;
 419:src/main.cpp  ****     int pka=0;int32_t da=0;
 420:src/main.cpp  ****     for(int i=0;i<N_CH;i++)if(delta[i]>da){da=delta[i];pka=i;}
 421:src/main.cpp  ****     if(da<TOUCH_THRESHOLD)return 0;
 422:src/main.cpp  ****     int ws=pka-2;if(ws<0)ws=0;int we=pka+2;if(we>=N_CH)we=N_CH-1;
 423:src/main.cpp  ****     int32_t pa;int pca;
 424:src/main.cpp  ****     int32_t posa=centroid_window(delta,ws,we,&pa,&pca);
 425:src/main.cpp  ****     out[0]={true,posa,pressure_pct(pa,pca),pca,pa};
 426:src/main.cpp  **** 
 427:src/main.cpp  ****     int32_t d2[N_CH];
 428:src/main.cpp  ****     int ss=pka-2;if(ss<0)ss=0;int se=pka+2;if(se>=N_CH)se=N_CH-1;
 429:src/main.cpp  ****     for(int i=0;i<N_CH;i++)d2[i]=(i>=ss&&i<=se)?0:delta[i];
 430:src/main.cpp  ****     int pkb=0;int32_t db=0;
 431:src/main.cpp  ****     for(int i=0;i<N_CH;i++)if(d2[i]>db){db=d2[i];pkb=i;}
 432:src/main.cpp  ****     int sep=pkb-pka;if(sep<0)sep=-sep;
 433:src/main.cpp  ****     if(db<TOUCH_THRESHOLD||sep<MIN_FINGER_SEP)return 1;
 434:src/main.cpp  ****     int ws2=pkb-2;if(ws2<0)ws2=0;int we2=pkb+2;if(we2>=N_CH)we2=N_CH-1;
 435:src/main.cpp  ****     int32_t pb;int pcb;
 436:src/main.cpp  ****     int32_t posb=centroid_window(d2,ws2,we2,&pb,&pcb);
 437:src/main.cpp  ****     out[1]={true,posb,pressure_pct(pb,pcb),pcb,pb};
 438:src/main.cpp  ****     return 2;
 439:src/main.cpp  **** }
 440:src/main.cpp  **** 
 441:src/main.cpp  **** void update_tracked(Finger* raw,int n)
 442:src/main.cpp  **** {
 443:src/main.cpp  ****     bool ra[2]={false,false};
 444:src/main.cpp  ****     for(int slot=0;slot<2;slot++){
 445:src/main.cpp  ****         if(!tracked[slot].alive)continue;
 446:src/main.cpp  ****         int32_t best=MAX_POS_JUMP+1;int br=-1;
 447:src/main.cpp  ****         for(int r=0;r<n;r++){
 448:src/main.cpp  ****             if(ra[r])continue;
 449:src/main.cpp  ****             int32_t c=raw[r].pos-tracked[slot].pos;if(c<0)c=-c;
 450:src/main.cpp  ****             if(c<best){best=c;br=r;}
 451:src/main.cpp  ****         }
 452:src/main.cpp  ****         if(br>=0){
 453:src/main.cpp  ****             tracked[slot].pos=raw[br].pos;tracked[slot].pressure=raw[br].pressure;
 454:src/main.cpp  ****             tracked[slot].peak_ch=raw[br].peak_ch;tracked[slot].peak_delta=raw[br].peak_delta;
 455:src/main.cpp  ****             ra[br]=true;
 456:src/main.cpp  ****         } else tracked[slot].alive=false;
 457:src/main.cpp  ****     }
 458:src/main.cpp  ****     for(int r=0;r<n;r++){
 459:src/main.cpp  ****         if(ra[r])continue;
 460:src/main.cpp  ****         for(int slot=0;slot<2;slot++){
 461:src/main.cpp  ****             if(!tracked[slot].alive){
 462:src/main.cpp  ****                 tracked[slot]={true,raw[r].pos,raw[r].pressure,raw[r].peak_ch,raw[r].peak_delta};
 463:src/main.cpp  ****                 ra[r]=true;break;
 464:src/main.cpp  ****             }
 465:src/main.cpp  ****         }
 466:src/main.cpp  ****     }
 467:src/main.cpp  **** }
 468:src/main.cpp  **** 
 469:src/main.cpp  **** // ŌöĆŌöĆ Maths helpers ŌöĆŌöĆŌöĆŌöĆŌöĆŌöĆŌöĆŌöĆŌöĆŌöĆŌöĆŌöĆŌöĆŌöĆŌöĆŌöĆŌöĆŌöĆŌöĆŌöĆŌöĆŌöĆŌöĆŌöĆŌöĆ
 470:src/main.cpp  **** static inline float clampf(float v,float lo,float hi){
 471:src/main.cpp  ****     return v<lo?lo:v>hi?hi:v;
ARM GAS  /tmp/claude-502/ccZj3JyB.s 			page 17


 472:src/main.cpp  **** }
 473:src/main.cpp  **** 
 474:src/main.cpp  **** // Fast tanh approximation (Pad├®)
 475:src/main.cpp  **** static inline float fast_tanh(float x)
 476:src/main.cpp  **** {
 477:src/main.cpp  ****     if(x> 3.0f)return  1.0f;
 478:src/main.cpp  ****     if(x<-3.0f)return -1.0f;
 479:src/main.cpp  ****     float x2=x*x;
 480:src/main.cpp  ****     return x*(27.0f+x2)/(27.0f+9.0f*x2);
 481:src/main.cpp  **** }
 482:src/main.cpp  **** 
 483:src/main.cpp  **** // ŌöĆŌöĆ Note quantizer ŌöĆŌöĆŌöĆŌöĆŌöĆŌöĆŌöĆŌöĆŌöĆŌöĆŌöĆŌöĆŌöĆŌöĆŌöĆŌöĆŌöĆŌöĆŌöĆŌöĆŌöĆŌöĆŌöĆŌöĆŌö
 484:src/main.cpp  **** // Returns the nearest MIDI note in SCALE[] for a raw float MIDI pitch.
 485:src/main.cpp  **** float quantize_midi(float midi)
 486:src/main.cpp  **** {
 487:src/main.cpp  ****     int root = (int)midi;
 488:src/main.cpp  ****     int pc   = root % 12;
 489:src/main.cpp  ****     int oct  = root / 12;
 490:src/main.cpp  ****     // find nearest scale degree
 491:src/main.cpp  ****     int best_deg=0, best_dist=127;
 492:src/main.cpp  ****     for(int i=0;i<SCALE_LEN;i++){
 493:src/main.cpp  ****         int d=SCALE[i]-pc; if(d<0)d=-d;
 494:src/main.cpp  ****         int d2=12-d; if(d2<d)d=d2;
 495:src/main.cpp  ****         if(d<best_dist){best_dist=d;best_deg=SCALE[i];}
 496:src/main.cpp  ****     }
 497:src/main.cpp  ****     float q=(float)(oct*12+best_deg);
 498:src/main.cpp  ****     // fractional semitone from the quantized note (for slide expression)
 499:src/main.cpp  ****     float frac=midi-(float)root;
 500:src/main.cpp  ****     return q+frac;
 501:src/main.cpp  **** }
 502:src/main.cpp  **** 
 503:src/main.cpp  **** // ŌöĆŌöĆ Audio state (written by touch loop, read by audio callback) ŌöĆŌöĆŌöĆŌöĆŌöĆŌöĆŌöĆŌöĆŌöĆŌö
 504:src/main.cpp  **** // All volatile ŌĆö touched by both cores / interrupt context
 505:src/main.cpp  **** volatile float g_target_freq    = 65.41f;
 506:src/main.cpp  **** volatile float g_target_cutoff  = 100.0f;  // starts dark, pressure opens it
 507:src/main.cpp  **** volatile float g_target_detune  = 0.0f;     // semitones osc2 offset
 508:src/main.cpp  **** volatile float g_target_drive   = 1.0f;     // waveshaper input gain
 509:src/main.cpp  **** volatile float g_vibrato_depth  = 0.0f;     // 0ŌĆō1, LFO depth
 510:src/main.cpp  **** volatile float g_bitcrush       = 0.0f;     // 0ŌĆō1, amount of crush
 511:src/main.cpp  **** volatile float g_ringmod        = 0.0f;     // 0ŌĆō1, ring mod wet
 512:src/main.cpp  **** volatile bool  g_finger_on      = false;
 513:src/main.cpp  **** volatile float g_amp_target     = 0.0f;
 514:src/main.cpp  **** volatile float g_led3_duty      = 0.0f;     // 0ŌĆō1, sigma-delta'd to LED3 in audio cb
 515:src/main.cpp  **** volatile float g_master_vol     = 1.0f;     // 0ŌĆō1, master volume from FSR on A1
 516:src/main.cpp  **** 
 517:src/main.cpp  **** // ŌöĆŌöĆ Audio DSP state (audio callback only) ŌöĆŌöĆŌöĆŌöĆŌöĆŌöĆŌöĆŌöĆŌöĆŌöĆŌöĆŌöĆŌöĆŌöĆŌöĆŌöĆŌöĆ
 518:src/main.cpp  **** static float s_freq      = 65.41f;
 519:src/main.cpp  **** static float s_cutoff    = 100.0f;
 520:src/main.cpp  **** static float s_detune    = 0.0f;
 521:src/main.cpp  **** static float s_drive     = 1.0f;
 522:src/main.cpp  **** static float s_vibdepth  = 0.0f;
 523:src/main.cpp  **** static float s_bitcrush  = 0.0f;
 524:src/main.cpp  **** static float s_ringmod   = 0.0f;
 525:src/main.cpp  **** static float s_amp       = 0.0f;
 526:src/main.cpp  **** static float s_master_vol= 1.0f;
 527:src/main.cpp  **** 
 528:src/main.cpp  **** static float s_phase1    = 0.0f;
ARM GAS  /tmp/claude-502/ccZj3JyB.s 			page 18


 529:src/main.cpp  **** static float s_phase2    = 0.0f;
 530:src/main.cpp  **** static float s_phase_sub = 0.0f;
 531:src/main.cpp  **** static float s_phase_oct = 0.0f; // octave-up oscillator (2x freq)
 532:src/main.cpp  **** static float s_phase_rm  = 0.0f; // ring mod carrier phase
 533:src/main.cpp  **** static float s_lfo_phase = 0.0f;
 534:src/main.cpp  **** 
 535:src/main.cpp  **** // Moog ladder filter state
 536:src/main.cpp  **** static float s_flt[4]    = {0,0,0,0};
 537:src/main.cpp  **** 
 538:src/main.cpp  **** // White-noise generator state (xorshift32) for the per-voice noise oscillator.
 539:src/main.cpp  **** static uint32_t s_noise_rng = 0x1234567u;
 540:src/main.cpp  **** 
 541:src/main.cpp  **** // Slew rates (per sample at 48 kHz)
 542:src/main.cpp  **** // Lower value = faster response.
 543:src/main.cpp  **** // NOTE: pitch glide and the amp attack/release are now per-voice (see Voice
 544:src/main.cpp  **** // glide_ms / attack_ms / release_ms), converted to coefficients in the audio
 545:src/main.cpp  **** // callback. The constants below are the ones still shared by all voices.
 546:src/main.cpp  **** // Cutoff opening slew. The target is recomputed only at the touch-loop rate
 547:src/main.cpp  **** // (~12-16 Hz) and pressure is quantized to integer %, so a too-fast slew lets
 548:src/main.cpp  **** // each coarse step through as zipper/stair-stepping. ~35 ms interpolates across
 549:src/main.cpp  **** // those steps for a smooth filter sweep while still feeling responsive.
 550:src/main.cpp  **** static constexpr float SLEW_CUT    = 0.9994f; // filter cutoff ŌĆö ~35 ms smooth
 551:src/main.cpp  **** static constexpr float SLEW_MISC   = 0.9900f; // drive/vib
 552:src/main.cpp  **** // Finger 2 ŌĆö asymmetric attack/release
 553:src/main.cpp  **** static constexpr float SLEW_F2_A   = 0.9800f; // attack  (~10ms)
 554:src/main.cpp  **** static constexpr float SLEW_F2_R   = 0.9990f; // release (~200ms smooth fade)
 555:src/main.cpp  **** 
 556:src/main.cpp  **** // Convert a one-pole time constant in milliseconds to a per-sample slew
 557:src/main.cpp  **** // coefficient: y += (1-coeff)*(target-y) reaches ~63% after `ms`.
 558:src/main.cpp  **** static inline float ms_to_coeff(float ms, float sr){
 559:src/main.cpp  ****     if(ms <= 0.0f) return 0.0f;            // instant
 560:src/main.cpp  ****     return expf(-1.0f / (ms * 0.001f * sr));
 561:src/main.cpp  **** }
 562:src/main.cpp  **** 
 563:src/main.cpp  **** // ŌöĆŌöĆ Oscillator waveforms (phase ph in [0,1) ŌåÆ sample in [-1,1]) ŌöĆŌöĆŌöĆŌöĆŌöĆŌöĆŌöĆŌöĆŌöĆ
 564:src/main.cpp  **** // Triangle wave
 565:src/main.cpp  **** static inline float tri(float ph){
 566:src/main.cpp  ****     return ph<0.5f?(4.0f*ph-1.0f):(3.0f-4.0f*ph);
 567:src/main.cpp  **** }
 568:src/main.cpp  **** // Sine via parabolic approximation (no libm call) ŌĆö matches sin(2ŽĆ┬Ęph).
 569:src/main.cpp  **** static inline float osc_sine(float ph){
 570:src/main.cpp  ****     constexpr float PI = 3.14159265f;
 571:src/main.cpp  ****     float x = ph*2.0f*PI - PI;                 // -ŽĆ..ŽĆ (angle shifted by ŽĆ)
 572:src/main.cpp  ****     float y = 1.27323954f*x - 0.405284735f*x*(x<0?-x:x);
 573:src/main.cpp  ****     y = 0.225f*(y*(y<0?-y:y) - y) + y;         // one refinement pass
 574:src/main.cpp  ****     return -y;                                 // undo the ŽĆ shift: sin(x+ŽĆ) = -sin(x)
 575:src/main.cpp  **** }
 576:src/main.cpp  **** // Naive square / saw ŌĆö alias at high pitch but sound rich on a bass voice.
 577:src/main.cpp  **** static inline float osc_square(float ph){ return ph<0.5f ? 1.0f : -1.0f; }
 578:src/main.cpp  **** static inline float osc_saw(float ph){ return 2.0f*ph - 1.0f; }
 579:src/main.cpp  **** 
 580:src/main.cpp  **** // Dispatch on a per-oscillator waveform (runtime, since the active voice can be
 581:src/main.cpp  **** // switched live). A small jump table ŌĆö cheap at audio rate on the H750.
 582:src/main.cpp  **** static inline float osc(float ph, Waveform w){
 583:src/main.cpp  ****     switch(w){
 584:src/main.cpp  ****         case WAVE_SINE:   return osc_sine(ph);
 585:src/main.cpp  ****         case WAVE_SQUARE: return osc_square(ph);
ARM GAS  /tmp/claude-502/ccZj3JyB.s 			page 19


 586:src/main.cpp  ****         case WAVE_SAW:    return osc_saw(ph);
 587:src/main.cpp  ****         case WAVE_TRI:
 588:src/main.cpp  ****         default:          return tri(ph);
 589:src/main.cpp  ****     }
 590:src/main.cpp  **** }
 591:src/main.cpp  **** 
 592:src/main.cpp  **** // Moog 4-pole ladder
 593:src/main.cpp  **** static inline float moog(float in, float cutoff, float res, float sr)
 594:src/main.cpp  **** {
 595:src/main.cpp  ****     float f = 2.0f*cutoff/sr;
 596:src/main.cpp  ****     if(f>0.98f)f=0.98f;
 597:src/main.cpp  ****     float k  = 3.8f*res;
 598:src/main.cpp  ****     float fb = k*s_flt[3];
 599:src/main.cpp  ****     float x  = in - fb;
 600:src/main.cpp  ****     s_flt[0]+=f*(fast_tanh(x)      -fast_tanh(s_flt[0]));
 601:src/main.cpp  ****     s_flt[1]+=f*(fast_tanh(s_flt[0])-fast_tanh(s_flt[1]));
 602:src/main.cpp  ****     s_flt[2]+=f*(fast_tanh(s_flt[1])-fast_tanh(s_flt[2]));
 603:src/main.cpp  ****     s_flt[3]+=f*(fast_tanh(s_flt[2])-fast_tanh(s_flt[3]));
 604:src/main.cpp  ****     return s_flt[3];
 605:src/main.cpp  **** }
 606:src/main.cpp  **** 
 607:src/main.cpp  **** // Wavefolder distortion
 608:src/main.cpp  **** // Folds signal back when it exceeds threshold ŌĆö creates rich harmonics.
 609:src/main.cpp  **** // amount 0 = clean, 1 = heavy folding (4 folds)
 610:src/main.cpp  **** static inline float wavefold(float in, float amount)
 611:src/main.cpp  **** {
 612:src/main.cpp  ****     if(amount < 0.01f) return in;
 613:src/main.cpp  ****     // Drive the signal harder as amount increases (1x to 5x)
 614:src/main.cpp  ****     float driven = in * (1.0f + amount * 4.0f);
 615:src/main.cpp  ****     // Fold: reflect signal at ┬▒1 boundary repeatedly
 616:src/main.cpp  ****     // fold(x) = 1 - |((x+1) mod 2) - 1|  (triangle fold)
 617:src/main.cpp  ****     float x = driven;
 618:src/main.cpp  ****     // 2 passes of folding for richness
 619:src/main.cpp  ****     for(int fold = 0; fold < 2; fold++) {
 620:src/main.cpp  ****         x = x * 0.5f + 0.5f;           // shift to 0..1
 621:src/main.cpp  ****         x = x - floorf(x);              // wrap to 0..1
 622:src/main.cpp  ****         x = 1.0f - fabsf(2.0f*x - 1.0f); // triangle fold
 623:src/main.cpp  ****         x = x * 2.0f - 1.0f;           // back to -1..1
 624:src/main.cpp  ****     }
 625:src/main.cpp  ****     // Blend dry/wet so at low amounts it stays subtle
 626:src/main.cpp  ****     return in*(1.0f-amount) + x*amount;
 627:src/main.cpp  **** }
 628:src/main.cpp  **** 
 629:src/main.cpp  **** void AudioCallback(AudioHandle::InputBuffer,
 630:src/main.cpp  ****                    AudioHandle::OutputBuffer out, size_t size)
 631:src/main.cpp  **** {
  78              		.loc 6 631 1 is_stmt 1 view -0
  79              		.cfi_startproc
  80              		@ args = 0, pretend = 0, frame = 96
  81              		@ frame_needed = 0, uses_anonymous_args = 0
 632:src/main.cpp  ****     // LED3 fixed-frequency PWM (200 Hz, 240 levels). Per-sample duty smoother
 633:src/main.cpp  ****     // (~20 ms TC) interpolates between the main loop's 16 Hz updates so the
 634:src/main.cpp  ****     // brightness transitions look continuous even at low intensity.
 635:src/main.cpp  ****     static float    led3_duty_smooth = 0.0f;
  82              		.loc 6 635 5 view .LVU11
 636:src/main.cpp  ****     static uint32_t pwm_counter      = 0;
  83              		.loc 6 636 5 view .LVU12
ARM GAS  /tmp/claude-502/ccZj3JyB.s 			page 20


 637:src/main.cpp  ****     static bool     led3_state       = false;
  84              		.loc 6 637 5 view .LVU13
 638:src/main.cpp  ****     constexpr uint32_t PWM_LEVELS = 240;        // 48 kHz / 240 = 200 Hz PWM
  85              		.loc 6 638 5 view .LVU14
 639:src/main.cpp  ****     constexpr float    DUTY_TC    = 0.001f;     // ~20 ms time constant per sample
  86              		.loc 6 639 5 view .LVU15
 640:src/main.cpp  ****     float           duty_target = g_led3_duty;
  87              		.loc 6 640 5 view .LVU16
  88              		.loc 6 640 35 is_stmt 0 view .LVU17
  89 0000 814B     		ldr	r3, .L195
  90 0002 D3ED007A 		vldr.32	s15, [r3]
  91              	.LVL2:
 641:src/main.cpp  ****     if(duty_target < 0.0f) duty_target = 0.0f; else if(duty_target > 1.0f) duty_target = 1.0f;
  92              		.loc 6 641 5 is_stmt 1 view .LVU18
  93 0006 F5EEC07A 		vcmpe.f32	s15, #0
 631:src/main.cpp  ****     // LED3 fixed-frequency PWM (200 Hz, 240 levels). Per-sample duty smoother
  94              		.loc 6 631 1 is_stmt 0 view .LVU19
  95 000a 2DE9F04F 		push	{r4, r5, r6, r7, r8, r9, r10, fp, lr}
  96              		.cfi_def_cfa_offset 36
  97              		.cfi_offset 4, -36
  98              		.cfi_offset 5, -32
  99              		.cfi_offset 6, -28
 100              		.cfi_offset 7, -24
 101              		.cfi_offset 8, -20
 102              		.cfi_offset 9, -16
 103              		.cfi_offset 10, -12
 104              		.cfi_offset 11, -8
 105              		.cfi_offset 14, -4
 106              		.loc 6 641 5 view .LVU20
 107 000e F1EE10FA 		vmrs	APSR_nzcv, FPSCR
 631:src/main.cpp  ****     // LED3 fixed-frequency PWM (200 Hz, 240 levels). Per-sample duty smoother
 108              		.loc 6 631 1 view .LVU21
 109 0012 8A46     		mov	r10, r1
 110 0014 2DED108B 		vpush.64	{d8, d9, d10, d11, d12, d13, d14, d15}
 111              		.cfi_def_cfa_offset 100
 112              		.cfi_offset 80, -100
 113              		.cfi_offset 81, -96
 114              		.cfi_offset 82, -92
 115              		.cfi_offset 83, -88
 116              		.cfi_offset 84, -84
 117              		.cfi_offset 85, -80
 118              		.cfi_offset 86, -76
 119              		.cfi_offset 87, -72
 120              		.cfi_offset 88, -68
 121              		.cfi_offset 89, -64
 122              		.cfi_offset 90, -60
 123              		.cfi_offset 91, -56
 124              		.cfi_offset 92, -52
 125              		.cfi_offset 93, -48
 126              		.cfi_offset 94, -44
 127              		.cfi_offset 95, -40
 128 0018 99B0     		sub	sp, sp, #100
 129              		.cfi_def_cfa_offset 200
 631:src/main.cpp  ****     // LED3 fixed-frequency PWM (200 Hz, 240 levels). Per-sample duty smoother
 130              		.loc 6 631 1 view .LVU22
 131 001a 0492     		str	r2, [sp, #16]
 132              		.loc 6 641 5 view .LVU23
ARM GAS  /tmp/claude-502/ccZj3JyB.s 			page 21


 133 001c 00F18D87 		bmi	.L107
 134 0020 B0EE677A 		vmov.f32	s14, s15
 135              		.loc 6 641 53 is_stmt 1 discriminator 2 view .LVU24
 136 0024 F7EE007A 		vmov.f32	s15, #1.0e+0
 137              	.LVL3:
 138              		.loc 6 641 88 is_stmt 0 discriminator 2 view .LVU25
 139 0028 B4EE677A 		vcmp.f32	s14, s15
 140 002c F1EE10FA 		vmrs	APSR_nzcv, FPSCR
 141 0030 77FE877A 		vselgt.f32	s15, s15, s14
 142 0034 CDED067A 		vstr.32	s15, [sp, #24]
 143              	.LVL4:
 144              	.L4:
 642:src/main.cpp  **** 
 643:src/main.cpp  ****     // Snapshot targets
 644:src/main.cpp  ****     float tfreq  = g_target_freq;
 145              		.loc 6 644 5 is_stmt 1 view .LVU26
 146              		.loc 6 644 20 is_stmt 0 view .LVU27
 147 0038 7449     		ldr	r1, .L195+4
 148              	.LVL5:
 645:src/main.cpp  ****     float tcut   = g_target_cutoff;
 149              		.loc 6 645 20 view .LVU28
 150 003a 754A     		ldr	r2, .L195+8
 151              	.LVL6:
 646:src/main.cpp  ****     float tdet   = g_target_detune;
 152              		.loc 6 646 20 view .LVU29
 153 003c 754B     		ldr	r3, .L195+12
 644:src/main.cpp  ****     float tcut   = g_target_cutoff;
 154              		.loc 6 644 20 view .LVU30
 155 003e D1ED007A 		vldr.32	s15, [r1]
 645:src/main.cpp  ****     float tcut   = g_target_cutoff;
 156              		.loc 6 645 20 view .LVU31
 157 0042 92ED00BA 		vldr.32	s22, [r2]
 647:src/main.cpp  ****     float tdrv   = g_target_drive;
 158              		.loc 6 647 20 view .LVU32
 159 0046 7449     		ldr	r1, .L195+16
 646:src/main.cpp  ****     float tdet   = g_target_detune;
 160              		.loc 6 646 20 view .LVU33
 161 0048 D3ED00BA 		vldr.32	s23, [r3]
 648:src/main.cpp  ****     float tvib   = g_vibrato_depth;
 162              		.loc 6 648 20 view .LVU34
 163 004c 734A     		ldr	r2, .L195+20
 649:src/main.cpp  ****     float tbc    = g_bitcrush;
 164              		.loc 6 649 20 view .LVU35
 165 004e 744B     		ldr	r3, .L195+24
 647:src/main.cpp  ****     float tdrv   = g_target_drive;
 166              		.loc 6 647 20 view .LVU36
 167 0050 91ED00AA 		vldr.32	s20, [r1]
 648:src/main.cpp  ****     float tvib   = g_vibrato_depth;
 168              		.loc 6 648 20 view .LVU37
 169 0054 92ED009A 		vldr.32	s18, [r2]
 650:src/main.cpp  ****     float trm    = g_ringmod;
 170              		.loc 6 650 20 view .LVU38
 171 0058 7249     		ldr	r1, .L195+28
 649:src/main.cpp  ****     float tbc    = g_bitcrush;
 172              		.loc 6 649 20 view .LVU39
 173 005a 93ED00CA 		vldr.32	s24, [r3]
 651:src/main.cpp  ****     float tamp   = g_amp_target;
ARM GAS  /tmp/claude-502/ccZj3JyB.s 			page 22


 174              		.loc 6 651 20 view .LVU40
 175 005e 724A     		ldr	r2, .L195+32
 652:src/main.cpp  ****     float tmvol  = g_master_vol;
 176              		.loc 6 652 20 view .LVU41
 177 0060 724B     		ldr	r3, .L195+36
 653:src/main.cpp  ****     float sr     = hw.AudioSampleRate();
 178              		.loc 6 653 38 view .LVU42
 179 0062 7348     		ldr	r0, .L195+40
 650:src/main.cpp  ****     float tamp   = g_amp_target;
 180              		.loc 6 650 20 view .LVU43
 181 0064 D1ED00CA 		vldr.32	s25, [r1]
 644:src/main.cpp  ****     float tcut   = g_target_cutoff;
 182              		.loc 6 644 20 view .LVU44
 183 0068 CDED057A 		vstr.32	s15, [sp, #20]
 184              	.LVL7:
 645:src/main.cpp  ****     float tdet   = g_target_detune;
 185              		.loc 6 645 5 is_stmt 1 view .LVU45
 646:src/main.cpp  ****     float tdrv   = g_target_drive;
 186              		.loc 6 646 5 view .LVU46
 647:src/main.cpp  ****     float tvib   = g_vibrato_depth;
 187              		.loc 6 647 5 view .LVU47
 648:src/main.cpp  ****     float tbc    = g_bitcrush;
 188              		.loc 6 648 5 view .LVU48
 649:src/main.cpp  ****     float trm    = g_ringmod;
 189              		.loc 6 649 5 view .LVU49
 650:src/main.cpp  ****     float tamp   = g_amp_target;
 190              		.loc 6 650 5 view .LVU50
 651:src/main.cpp  ****     float tmvol  = g_master_vol;
 191              		.loc 6 651 5 view .LVU51
 651:src/main.cpp  ****     float tmvol  = g_master_vol;
 192              		.loc 6 651 20 is_stmt 0 view .LVU52
 193 006c D2ED009A 		vldr.32	s19, [r2]
 194              	.LVL8:
 652:src/main.cpp  ****     float sr     = hw.AudioSampleRate();
 195              		.loc 6 652 5 is_stmt 1 view .LVU53
 652:src/main.cpp  ****     float sr     = hw.AudioSampleRate();
 196              		.loc 6 652 20 is_stmt 0 view .LVU54
 197 0070 D3ED008A 		vldr.32	s17, [r3]
 198              	.LVL9:
 199              		.loc 6 653 5 is_stmt 1 view .LVU55
 200              		.loc 6 653 38 is_stmt 0 view .LVU56
 201 0074 FFF7FEFF 		bl	_ZN5daisy9DaisySeed15AudioSampleRateEv
 202              	.LVL10:
 654:src/main.cpp  **** 
 655:src/main.cpp  ****     // Snapshot the active voice once per block, so a mid-block switch from the
 656:src/main.cpp  ****     // touch loop can't tear fields across the block. All VOICE.* reads below
 657:src/main.cpp  ****     // resolve against this reference.
 658:src/main.cpp  ****     int vi = g_voice_idx;
 203              		.loc 6 658 14 view .LVU57
 204 0078 6E4B     		ldr	r3, .L195+44
 653:src/main.cpp  **** 
 205              		.loc 6 653 38 view .LVU58
 206 007a B0EE408A 		vmov.f32	s16, s0
 207              	.LVL11:
 208              		.loc 6 658 5 is_stmt 1 view .LVU59
 659:src/main.cpp  ****     if(vi < 0 || vi >= NUM_VOICES) vi = 0;
 660:src/main.cpp  ****     const Voice& VOICE = VOICES[vi];
ARM GAS  /tmp/claude-502/ccZj3JyB.s 			page 23


 661:src/main.cpp  **** 
 662:src/main.cpp  ****     // Per-voice envelope/glide coefficients (expf isn't constexpr). Recompute
 663:src/main.cpp  ****     // only when the active voice changes.
 664:src/main.cpp  ****     static int   s_coeff_vi = -1;
 665:src/main.cpp  ****     static float s_glide_c, s_atk_c, s_rel_c;
 666:src/main.cpp  ****     if(s_coeff_vi != vi){
 209              		.loc 6 666 19 is_stmt 0 view .LVU60
 210 007e 6E4C     		ldr	r4, .L195+48
 658:src/main.cpp  ****     if(vi < 0 || vi >= NUM_VOICES) vi = 0;
 211              		.loc 6 658 14 view .LVU61
 212 0080 1B68     		ldr	r3, [r3]
 213 0082 1A46     		mov	r2, r3
 214              	.LVL12:
 659:src/main.cpp  ****     if(vi < 0 || vi >= NUM_VOICES) vi = 0;
 215              		.loc 6 659 5 is_stmt 1 view .LVU62
 216              		.loc 6 666 5 is_stmt 0 view .LVU63
 217 0084 2368     		ldr	r3, [r4]
 659:src/main.cpp  ****     if(vi < 0 || vi >= NUM_VOICES) vi = 0;
 218              		.loc 6 659 39 view .LVU64
 219 0086 072A     		cmp	r2, #7
 220 0088 28BF     		it	cs
 221 008a 0022     		movcs	r2, #0
 222              	.LVL13:
 223              		.loc 6 666 5 view .LVU65
 224 008c 9342     		cmp	r3, r2
 659:src/main.cpp  ****     if(vi < 0 || vi >= NUM_VOICES) vi = 0;
 225              		.loc 6 659 39 view .LVU66
 226 008e 0192     		str	r2, [sp, #4]
 227              	.LVL14:
 660:src/main.cpp  **** 
 228              		.loc 6 660 5 is_stmt 1 view .LVU67
 664:src/main.cpp  ****     static float s_glide_c, s_atk_c, s_rel_c;
 229              		.loc 6 664 5 view .LVU68
 665:src/main.cpp  ****     if(s_coeff_vi != vi){
 230              		.loc 6 665 5 view .LVU69
 231              		.loc 6 666 5 view .LVU70
 232 0090 5AD0     		beq	.L7
 667:src/main.cpp  ****         s_glide_c = ms_to_coeff(VOICE.glide_ms,   sr);
 233              		.loc 6 667 9 view .LVU71
 234              		.loc 6 667 39 is_stmt 0 view .LVU72
 235 0092 6A49     		ldr	r1, .L195+52
 236 0094 C2EBC203 		rsb	r3, r2, r2, lsl #3
 237 0098 01EB0313 		add	r3, r1, r3, lsl #4
 238 009c 0291     		str	r1, [sp, #8]
 239 009e D3ED1B7A 		vldr.32	s15, [r3, #108]
 240              	.LVL15:
 241              	.LBB447:
 242              	.LBI447:
 558:src/main.cpp  ****     if(ms <= 0.0f) return 0.0f;            // instant
 243              		.loc 6 558 21 is_stmt 1 view .LVU73
 244              	.LBB448:
 559:src/main.cpp  ****     return expf(-1.0f / (ms * 0.001f * sr));
 245              		.loc 6 559 5 view .LVU74
 246              	.LBE448:
 247              	.LBE447:
 248              		.loc 6 667 39 is_stmt 0 view .LVU75
 249 00a2 D300     		lsls	r3, r2, #3
ARM GAS  /tmp/claude-502/ccZj3JyB.s 			page 24


 250              	.LBB454:
 251              	.LBB451:
 559:src/main.cpp  ****     return expf(-1.0f / (ms * 0.001f * sr));
 252              		.loc 6 559 5 view .LVU76
 253 00a4 F5EEC07A 		vcmpe.f32	s15, #0
 254              	.LBE451:
 255              	.LBE454:
 256              		.loc 6 667 39 view .LVU77
 257 00a8 0393     		str	r3, [sp, #12]
 258              	.LBB455:
 259              	.LBB452:
 559:src/main.cpp  ****     return expf(-1.0f / (ms * 0.001f * sr));
 260              		.loc 6 559 5 view .LVU78
 261 00aa F1EE10FA 		vmrs	APSR_nzcv, FPSCR
 262 00ae 40F24087 		bls	.L108
 263              	.LVL16:
 264              	.LBB449:
 265              	.LBI449:
 558:src/main.cpp  ****     if(ms <= 0.0f) return 0.0f;            // instant
 266              		.loc 6 558 21 is_stmt 1 view .LVU79
 267              	.LBB450:
 560:src/main.cpp  **** }
 268              		.loc 6 560 5 view .LVU80
 560:src/main.cpp  **** }
 269              		.loc 6 560 29 is_stmt 0 view .LVU81
 270 00b2 9FED707A 		vldr.32	s14, .L195+108
 560:src/main.cpp  **** }
 271              		.loc 6 560 16 view .LVU82
 272 00b6 BFEE000A 		vmov.f32	s0, #-1.0e+0
 273              	.LVL17:
 560:src/main.cpp  **** }
 274              		.loc 6 560 29 view .LVU83
 275 00ba 67EE877A 		vmul.f32	s15, s15, s14
 276              	.LVL18:
 560:src/main.cpp  **** }
 277              		.loc 6 560 38 view .LVU84
 278 00be 67EE887A 		vmul.f32	s15, s15, s16
 560:src/main.cpp  **** }
 279              		.loc 6 560 16 view .LVU85
 280 00c2 80EE270A 		vdiv.f32	s0, s0, s15
 281 00c6 FFF7FEFF 		bl	expf
 282              	.LVL19:
 283              	.L8:
 560:src/main.cpp  **** }
 284              		.loc 6 560 16 view .LVU86
 285              	.LBE450:
 286              	.LBE449:
 287              	.LBE452:
 288              	.LBE455:
 668:src/main.cpp  ****         s_atk_c   = ms_to_coeff(VOICE.attack_ms,  sr);
 289              		.loc 6 668 39 view .LVU87
 290 00ca 019A     		ldr	r2, [sp, #4]
 291 00cc 039B     		ldr	r3, [sp, #12]
 292 00ce 9B1A     		subs	r3, r3, r2
 293 00d0 029A     		ldr	r2, [sp, #8]
 294 00d2 02EB0313 		add	r3, r2, r3, lsl #4
 295 00d6 D3ED197A 		vldr.32	s15, [r3, #100]
ARM GAS  /tmp/claude-502/ccZj3JyB.s 			page 25


 667:src/main.cpp  ****         s_atk_c   = ms_to_coeff(VOICE.attack_ms,  sr);
 296              		.loc 6 667 19 view .LVU88
 297 00da 594B     		ldr	r3, .L195+56
 298              	.LBB456:
 299              	.LBB457:
 559:src/main.cpp  ****     return expf(-1.0f / (ms * 0.001f * sr));
 300              		.loc 6 559 5 view .LVU89
 301 00dc F5EEC07A 		vcmpe.f32	s15, #0
 302              	.LBE457:
 303              	.LBE456:
 667:src/main.cpp  ****         s_atk_c   = ms_to_coeff(VOICE.attack_ms,  sr);
 304              		.loc 6 667 19 view .LVU90
 305 00e0 83ED000A 		vstr.32	s0, [r3]
 306              		.loc 6 668 9 is_stmt 1 view .LVU91
 307              	.LVL20:
 308              	.LBB462:
 309              	.LBI456:
 558:src/main.cpp  ****     if(ms <= 0.0f) return 0.0f;            // instant
 310              		.loc 6 558 21 view .LVU92
 311              	.LBB460:
 559:src/main.cpp  ****     return expf(-1.0f / (ms * 0.001f * sr));
 312              		.loc 6 559 5 view .LVU93
 313 00e4 F1EE10FA 		vmrs	APSR_nzcv, FPSCR
 314 00e8 40F23187 		bls	.L109
 315              	.LVL21:
 316              	.LBB458:
 317              	.LBI458:
 558:src/main.cpp  ****     if(ms <= 0.0f) return 0.0f;            // instant
 318              		.loc 6 558 21 view .LVU94
 319              	.LBB459:
 560:src/main.cpp  **** }
 320              		.loc 6 560 5 view .LVU95
 560:src/main.cpp  **** }
 321              		.loc 6 560 29 is_stmt 0 view .LVU96
 322 00ec 9FED617A 		vldr.32	s14, .L195+108
 560:src/main.cpp  **** }
 323              		.loc 6 560 16 view .LVU97
 324 00f0 BFEE000A 		vmov.f32	s0, #-1.0e+0
 560:src/main.cpp  **** }
 325              		.loc 6 560 29 view .LVU98
 326 00f4 67EE877A 		vmul.f32	s15, s15, s14
 327              	.LVL22:
 560:src/main.cpp  **** }
 328              		.loc 6 560 38 view .LVU99
 329 00f8 67EE887A 		vmul.f32	s15, s15, s16
 560:src/main.cpp  **** }
 330              		.loc 6 560 16 view .LVU100
 331 00fc 80EE270A 		vdiv.f32	s0, s0, s15
 332 0100 FFF7FEFF 		bl	expf
 333              	.LVL23:
 334              	.L9:
 560:src/main.cpp  **** }
 335              		.loc 6 560 16 view .LVU101
 336              	.LBE459:
 337              	.LBE458:
 338              	.LBE460:
 339              	.LBE462:
ARM GAS  /tmp/claude-502/ccZj3JyB.s 			page 26


 669:src/main.cpp  ****         s_rel_c   = ms_to_coeff(VOICE.release_ms, sr);
 340              		.loc 6 669 39 view .LVU102
 341 0104 019A     		ldr	r2, [sp, #4]
 342 0106 039B     		ldr	r3, [sp, #12]
 343 0108 9B1A     		subs	r3, r3, r2
 344 010a 029A     		ldr	r2, [sp, #8]
 345 010c 02EB0313 		add	r3, r2, r3, lsl #4
 346 0110 D3ED1A7A 		vldr.32	s15, [r3, #104]
 668:src/main.cpp  ****         s_rel_c   = ms_to_coeff(VOICE.release_ms, sr);
 347              		.loc 6 668 19 view .LVU103
 348 0114 4B4B     		ldr	r3, .L195+60
 349              	.LBB463:
 350              	.LBB464:
 559:src/main.cpp  ****     return expf(-1.0f / (ms * 0.001f * sr));
 351              		.loc 6 559 5 view .LVU104
 352 0116 F5EEC07A 		vcmpe.f32	s15, #0
 353              	.LBE464:
 354              	.LBE463:
 668:src/main.cpp  ****         s_rel_c   = ms_to_coeff(VOICE.release_ms, sr);
 355              		.loc 6 668 19 view .LVU105
 356 011a 83ED000A 		vstr.32	s0, [r3]
 357              		.loc 6 669 9 is_stmt 1 view .LVU106
 358              	.LVL24:
 359              	.LBB469:
 360              	.LBI463:
 558:src/main.cpp  ****     if(ms <= 0.0f) return 0.0f;            // instant
 361              		.loc 6 558 21 view .LVU107
 362              	.LBB467:
 559:src/main.cpp  ****     return expf(-1.0f / (ms * 0.001f * sr));
 363              		.loc 6 559 5 view .LVU108
 364 011e F1EE10FA 		vmrs	APSR_nzcv, FPSCR
 365 0122 40F21087 		bls	.L110
 366              	.LVL25:
 367              	.LBB465:
 368              	.LBI465:
 558:src/main.cpp  ****     if(ms <= 0.0f) return 0.0f;            // instant
 369              		.loc 6 558 21 view .LVU109
 370              	.LBB466:
 560:src/main.cpp  **** }
 371              		.loc 6 560 5 view .LVU110
 560:src/main.cpp  **** }
 372              		.loc 6 560 29 is_stmt 0 view .LVU111
 373 0126 9FED537A 		vldr.32	s14, .L195+108
 560:src/main.cpp  **** }
 374              		.loc 6 560 16 view .LVU112
 375 012a BFEE000A 		vmov.f32	s0, #-1.0e+0
 560:src/main.cpp  **** }
 376              		.loc 6 560 29 view .LVU113
 377 012e 67EE877A 		vmul.f32	s15, s15, s14
 378              	.LVL26:
 560:src/main.cpp  **** }
 379              		.loc 6 560 38 view .LVU114
 380 0132 67EE887A 		vmul.f32	s15, s15, s16
 560:src/main.cpp  **** }
 381              		.loc 6 560 16 view .LVU115
 382 0136 80EE270A 		vdiv.f32	s0, s0, s15
 383 013a FFF7FEFF 		bl	expf
ARM GAS  /tmp/claude-502/ccZj3JyB.s 			page 27


 384              	.LVL27:
 385              	.L10:
 560:src/main.cpp  **** }
 386              		.loc 6 560 16 view .LVU116
 387              	.LBE466:
 388              	.LBE465:
 389              	.LBE467:
 390              	.LBE469:
 391              		.loc 6 669 19 view .LVU117
 392 013e 424B     		ldr	r3, .L195+64
 670:src/main.cpp  ****         s_coeff_vi = vi;
 393              		.loc 6 670 20 view .LVU118
 394 0140 019A     		ldr	r2, [sp, #4]
 669:src/main.cpp  ****         s_coeff_vi = vi;
 395              		.loc 6 669 19 view .LVU119
 396 0142 83ED000A 		vstr.32	s0, [r3]
 397              		.loc 6 670 9 is_stmt 1 view .LVU120
 398              		.loc 6 670 20 is_stmt 0 view .LVU121
 399 0146 2260     		str	r2, [r4]
 400              	.L7:
 401              	.LVL28:
 402              	.LBB470:
 671:src/main.cpp  ****     }
 672:src/main.cpp  **** 
 673:src/main.cpp  ****     for(size_t i=0;i<size;i++)
 403              		.loc 6 673 21 is_stmt 1 discriminator 1 view .LVU122
 404 0148 049B     		ldr	r3, [sp, #16]
 405 014a 002B     		cmp	r3, #0
 406 014c 00F0EC86 		beq	.L3
 407              	.LBB471:
 674:src/main.cpp  ****     {
 675:src/main.cpp  ****         // Slew all parameters
 676:src/main.cpp  ****         s_freq    = s_freq   *s_glide_c + tfreq*(1.0f-s_glide_c);
 677:src/main.cpp  ****         // Cutoff: fast when opening (smoothed), slow when closing (with release)
 678:src/main.cpp  ****         { float sc = (tcut > s_cutoff) ? SLEW_CUT : s_rel_c;
 679:src/main.cpp  ****           s_cutoff = s_cutoff * sc + tcut * (1.0f - sc); }
 680:src/main.cpp  ****         s_drive   = s_drive   * SLEW_MISC + tdrv * (1.0f - SLEW_MISC);
 681:src/main.cpp  ****         s_vibdepth= s_vibdepth* SLEW_MISC + tvib * (1.0f - SLEW_MISC);
 682:src/main.cpp  ****         // Finger 2 params: fast attack, slow release
 683:src/main.cpp  ****         { float sa = tdet     > s_detune   ? SLEW_F2_A : SLEW_F2_R;
 684:src/main.cpp  ****           s_detune   = s_detune   * sa + tdet * (1.0f - sa); }
 685:src/main.cpp  ****         { float sa = tbc      > s_bitcrush ? SLEW_F2_A : SLEW_F2_R;
 686:src/main.cpp  ****           s_bitcrush = s_bitcrush * sa + tbc  * (1.0f - sa); }
 687:src/main.cpp  ****         { float sa = trm      > s_ringmod  ? SLEW_F2_A : SLEW_F2_R;
 688:src/main.cpp  ****           s_ringmod  = s_ringmod  * sa + trm  * (1.0f - sa); }
 689:src/main.cpp  ****         // Asymmetric envelope: per-voice attack (rising) and release (falling)
 690:src/main.cpp  ****         float slew_amp = (tamp > s_amp) ? s_atk_c : s_rel_c;
 691:src/main.cpp  ****         s_amp = s_amp * slew_amp + tamp * (1.0f - slew_amp);
 692:src/main.cpp  ****         // Master volume slew (smooths FSR jitter / 16 Hz update steps).
 693:src/main.cpp  ****         s_master_vol = s_master_vol * SLEW_MISC + tmvol * (1.0f - SLEW_MISC);
 694:src/main.cpp  **** 
 695:src/main.cpp  ****         // Bleed filter state toward zero when silent
 696:src/main.cpp  ****         // Prevents stale filter energy from clicking on next note onset
 697:src/main.cpp  ****         if(s_amp < 0.001f) {
 698:src/main.cpp  ****             s_flt[0] *= 0.999f;
 699:src/main.cpp  ****             s_flt[1] *= 0.999f;
 700:src/main.cpp  ****             s_flt[2] *= 0.999f;
ARM GAS  /tmp/claude-502/ccZj3JyB.s 			page 28


 701:src/main.cpp  ****             s_flt[3] *= 0.999f;
 702:src/main.cpp  ****         }
 703:src/main.cpp  **** 
 704:src/main.cpp  ****         // During release, close cutoff in sync with amplitude
 705:src/main.cpp  ****         // This prevents clicks from abrupt filter state changes
 706:src/main.cpp  ****         if(tamp < 0.001f && s_amp > 0.0001f) {
 707:src/main.cpp  ****             // Pull cutoff toward silence-floor proportional to amp decay
 708:src/main.cpp  ****             float close_target = 30.0f + s_amp * tcut;
 709:src/main.cpp  ****             tcut = close_target;
 710:src/main.cpp  ****         }
 711:src/main.cpp  **** 
 712:src/main.cpp  ****         // LFO for vibrato (6 Hz sine approximation via triangle)
 713:src/main.cpp  ****         s_lfo_phase += 6.0f/sr;
 408              		.loc 6 713 28 is_stmt 0 view .LVU123
 409 0150 B1EE087A 		vmov.f32	s14, #6.0e+0
 680:src/main.cpp  ****         s_vibdepth= s_vibdepth* SLEW_MISC + tvib * (1.0f - SLEW_MISC);
 410              		.loc 6 680 50 view .LVU124
 411 0154 DFED3D7A 		vldr.32	s15, .L195+68
 412              	.LBB472:
 714:src/main.cpp  ****         if(s_lfo_phase>=1.0f)s_lfo_phase-=1.0f;
 715:src/main.cpp  ****         float lfo = tri(s_lfo_phase); // -1..1
 716:src/main.cpp  **** 
 717:src/main.cpp  ****         // Vibrato: modulate frequency by ┬▒1 semitone * depth
 718:src/main.cpp  ****         // powf(2, semitones/12) ŌĆö approx for small values: exp(x*0.0578)
 719:src/main.cpp  ****         float vib_amt = lfo * s_vibdepth * 0.05f; // max ┬▒~0.05 semitones*depth
 720:src/main.cpp  ****         float freq_vib = s_freq * (1.0f + vib_amt);
 721:src/main.cpp  **** 
 722:src/main.cpp  ****         // Osc 2 frequency. Lead: finger-2 detune around the base ratio.
 723:src/main.cpp  ****         // Bass (and any fixed-interval voice): hold osc2_ratio (e.g. a 5th).
 724:src/main.cpp  ****         // VOICE is constexpr, so only the taken branch is compiled in.
 725:src/main.cpp  ****         float freq2;
 726:src/main.cpp  ****         if(VOICE.osc2_detune) {
 413              		.loc 6 726 18 view .LVU125
 414 0158 019B     		ldr	r3, [sp, #4]
 415              	.LBE472:
 416              	.LBB474:
 417              	.LBB475:
 597:src/main.cpp  ****     float fb = k*s_flt[3];
 418              		.loc 6 597 11 view .LVU126
 419 015a 0025     		movs	r5, #0
 420              	.LBE475:
 421              	.LBE474:
 422              	.LBB561:
 423              		.loc 6 726 18 view .LVU127
 424 015c 374A     		ldr	r2, .L195+52
 425              	.LBE561:
 713:src/main.cpp  ****         if(s_lfo_phase>=1.0f)s_lfo_phase-=1.0f;
 426              		.loc 6 713 28 view .LVU128
 427 015e 87EE087A 		vdiv.f32	s14, s14, s16
 428              	.LBB562:
 429              		.loc 6 726 18 view .LVU129
 430 0162 D900     		lsls	r1, r3, #3
 431 0164 C3EBC303 		rsb	r3, r3, r3, lsl #3
 432 0168 0292     		str	r2, [sp, #8]
 433 016a 0391     		str	r1, [sp, #12]
 434 016c 02EB0313 		add	r3, r2, r3, lsl #4
 435 0170 DFF8ECB0 		ldr	fp, .L195+88
ARM GAS  /tmp/claude-502/ccZj3JyB.s 			page 29


 436 0174 364C     		ldr	r4, .L195+72
 437 0176 93F83D20 		ldrb	r2, [r3, #61]	@ zero_extendqisi2
 438              	.LBE562:
 727:src/main.cpp  ****             float det_ratio = 1.0f + s_detune * 0.05776f; // linear approx, good for ┬▒1 oct
 728:src/main.cpp  ****             freq2 = freq_vib * VOICE.osc2_ratio * det_ratio;
 729:src/main.cpp  ****         } else {
 730:src/main.cpp  ****             freq2 = freq_vib * VOICE.osc2_ratio;
 731:src/main.cpp  ****         }
 732:src/main.cpp  **** 
 733:src/main.cpp  ****         // Sub and octave oscillators (ratios are voice-defined).
 734:src/main.cpp  ****         float freq_sub = freq_vib * VOICE.sub_ratio;
 735:src/main.cpp  ****         float freq_oct = freq_vib * VOICE.oct_ratio;
 736:src/main.cpp  **** 
 737:src/main.cpp  ****         // Ring mod carrier. ringmod_ratio=1.0 is unison; non-integer ratios give
 738:src/main.cpp  ****         // inharmonic bell/metallic tones.
 739:src/main.cpp  ****         float freq_rm = freq_vib * VOICE.ringmod_ratio;
 740:src/main.cpp  **** 
 741:src/main.cpp  ****         // Oscillators (mix levels are voice-defined).
 742:src/main.cpp  ****         float osc1    = osc(s_phase1,   VOICE.osc1_wave) * VOICE.osc1_level;
 743:src/main.cpp  ****         float osc2    = osc(s_phase2,   VOICE.osc2_wave) * VOICE.osc2_level;
 744:src/main.cpp  ****         float sub     = osc(s_phase_sub,VOICE.sub_wave)  * VOICE.sub_level;
 745:src/main.cpp  ****         float osc_oct = osc(s_phase_oct,VOICE.oct_wave)  * VOICE.oct_level;
 439              		.loc 6 745 47 view .LVU130
 440 017a 93F83C60 		ldrb	r6, [r3, #60]	@ zero_extendqisi2
 742:src/main.cpp  ****         float osc2    = osc(s_phase2,   VOICE.osc2_wave) * VOICE.osc2_level;
 441              		.loc 6 742 47 view .LVU131
 442 017e 93F81890 		ldrb	r9, [r3, #24]	@ zero_extendqisi2
 743:src/main.cpp  ****         float sub     = osc(s_phase_sub,VOICE.sub_wave)  * VOICE.sub_level;
 443              		.loc 6 743 47 view .LVU132
 444 0182 93F82480 		ldrb	r8, [r3, #36]	@ zero_extendqisi2
 744:src/main.cpp  ****         float osc_oct = osc(s_phase_oct,VOICE.oct_wave)  * VOICE.oct_level;
 445              		.loc 6 744 47 view .LVU133
 446 0186 93F83070 		ldrb	r7, [r3, #48]	@ zero_extendqisi2
 746:src/main.cpp  **** 
 747:src/main.cpp  ****         // White noise (xorshift32 ŌåÆ -1..1), voice-defined level. Adds breath /
 748:src/main.cpp  ****         // chiff / hiss. The `if` folds away when a voice sets noise_level = 0.
 749:src/main.cpp  ****         float noise = 0.0f;
 750:src/main.cpp  ****         if(VOICE.noise_level > 0.0f){
 447              		.loc 6 750 18 view .LVU134
 448 018a D3ED14EA 		vldr.32	s29, [r3, #80]
 449              	.LBB563:
 726:src/main.cpp  ****             float det_ratio = 1.0f + s_detune * 0.05776f; // linear approx, good for ┬▒1 oct
 450              		.loc 6 726 18 view .LVU135
 451 018e 0B92     		str	r2, [sp, #44]
 452 0190 304A     		ldr	r2, .L195+76
 453              	.LBE563:
 713:src/main.cpp  ****         if(s_lfo_phase>=1.0f)s_lfo_phase-=1.0f;
 454              		.loc 6 713 28 view .LVU136
 455 0192 8DED0A7A 		vstr.32	s14, [sp, #40]
 680:src/main.cpp  ****         s_vibdepth= s_vibdepth* SLEW_MISC + tvib * (1.0f - SLEW_MISC);
 456              		.loc 6 680 50 view .LVU137
 457 0196 2AEE277A 		vmul.f32	s14, s20, s15
 458 019a 8DED077A 		vstr.32	s14, [sp, #28]
 681:src/main.cpp  ****         // Finger 2 params: fast attack, slow release
 459              		.loc 6 681 50 view .LVU138
 460 019e 29EE277A 		vmul.f32	s14, s18, s15
 693:src/main.cpp  **** 
ARM GAS  /tmp/claude-502/ccZj3JyB.s 			page 30


 461              		.loc 6 693 57 view .LVU139
 462 01a2 68EEA77A 		vmul.f32	s15, s17, s15
 681:src/main.cpp  ****         // Finger 2 params: fast attack, slow release
 463              		.loc 6 681 50 view .LVU140
 464 01a6 8DED087A 		vstr.32	s14, [sp, #32]
 693:src/main.cpp  **** 
 465              		.loc 6 693 57 view .LVU141
 466 01aa CDED097A 		vstr.32	s15, [sp, #36]
 734:src/main.cpp  ****         float freq_oct = freq_vib * VOICE.oct_ratio;
 467              		.loc 6 734 43 view .LVU142
 468 01ae D3ED0A7A 		vldr.32	s15, [r3, #40]
 469              	.LBB564:
 470              	.LBB552:
 597:src/main.cpp  ****     float fb = k*s_flt[3];
 471              		.loc 6 597 11 view .LVU143
 472 01b2 9FED297A 		vldr.32	s14, .L195+80
 473              	.LBE552:
 474              	.LBE564:
 734:src/main.cpp  ****         float freq_oct = freq_vib * VOICE.oct_ratio;
 475              		.loc 6 734 43 view .LVU144
 476 01b6 CDED0C7A 		vstr.32	s15, [sp, #48]
 735:src/main.cpp  **** 
 477              		.loc 6 735 43 view .LVU145
 478 01ba D3ED0D7A 		vldr.32	s15, [r3, #52]
 479 01be CDED0D7A 		vstr.32	s15, [sp, #52]
 739:src/main.cpp  **** 
 480              		.loc 6 739 42 view .LVU146
 481 01c2 D3ED167A 		vldr.32	s15, [r3, #88]
 482 01c6 CDED0E7A 		vstr.32	s15, [sp, #56]
 742:src/main.cpp  ****         float osc2    = osc(s_phase2,   VOICE.osc2_wave) * VOICE.osc2_level;
 483              		.loc 6 742 66 view .LVU147
 484 01ca D3ED057A 		vldr.32	s15, [r3, #20]
 485 01ce CDED137A 		vstr.32	s15, [sp, #76]
 486              	.LBB565:
 487              	.LBB553:
 597:src/main.cpp  ****     float fb = k*s_flt[3];
 488              		.loc 6 597 11 view .LVU148
 489 01d2 D3ED127A 		vldr.32	s15, [r3, #72]
 490 01d6 67EE677A 		vnmul.f32	s15, s14, s15
 491 01da CDED117A 		vstr.32	s15, [sp, #68]
 492              	.LBE553:
 493              	.LBE565:
 743:src/main.cpp  ****         float sub     = osc(s_phase_sub,VOICE.sub_wave)  * VOICE.sub_level;
 494              		.loc 6 743 66 view .LVU149
 495 01de D3ED087A 		vldr.32	s15, [r3, #32]
 496 01e2 CDED147A 		vstr.32	s15, [sp, #80]
 744:src/main.cpp  ****         float osc_oct = osc(s_phase_oct,VOICE.oct_wave)  * VOICE.oct_level;
 497              		.loc 6 744 66 view .LVU150
 498 01e6 D3ED0B7A 		vldr.32	s15, [r3, #44]
 499 01ea CDED157A 		vstr.32	s15, [sp, #84]
 745:src/main.cpp  **** 
 500              		.loc 6 745 66 view .LVU151
 501 01ee D3ED0E7A 		vldr.32	s15, [r3, #56]
 502 01f2 CDED167A 		vstr.32	s15, [sp, #88]
 751:src/main.cpp  ****             s_noise_rng ^= s_noise_rng << 13;
 752:src/main.cpp  ****             s_noise_rng ^= s_noise_rng >> 17;
 753:src/main.cpp  ****             s_noise_rng ^= s_noise_rng << 5;
ARM GAS  /tmp/claude-502/ccZj3JyB.s 			page 31


 754:src/main.cpp  ****             noise = ((float)(int32_t)s_noise_rng * (1.0f/2147483648.0f)) * VOICE.noise_level;
 755:src/main.cpp  ****         }
 756:src/main.cpp  **** 
 757:src/main.cpp  ****         // Mix oscillator stack + noise
 758:src/main.cpp  ****         float mix = osc1 + osc2 + sub + osc_oct + noise;
 759:src/main.cpp  **** 
 760:src/main.cpp  ****         // Ring modulation (finger 2 pressure ŌåÆ metallic/bell edge)
 761:src/main.cpp  ****         float rm_carrier = tri(s_phase_rm);
 762:src/main.cpp  ****         mix = mix*(1.0f-s_ringmod) + (mix*rm_carrier)*s_ringmod;
 763:src/main.cpp  **** 
 764:src/main.cpp  ****         // Waveshaper drive before filter (adds harmonics, warms tone)
 765:src/main.cpp  ****         mix = fast_tanh(mix * s_drive);
 766:src/main.cpp  **** 
 767:src/main.cpp  ****         // Moog ladder filter ŌĆö no attack boost (was causing onset clicks)
 768:src/main.cpp  ****         float eff_cutoff = clampf(s_cutoff, 20.0f, 20000.0f);
 769:src/main.cpp  ****         float filtered = moog(mix, eff_cutoff, VOICE.resonance, sr);
 770:src/main.cpp  **** 
 771:src/main.cpp  ****         // Wavefold distortion (finger 2 pressure)
 772:src/main.cpp  ****         float crushed = wavefold(filtered, s_bitcrush);
 773:src/main.cpp  **** 
 774:src/main.cpp  ****         // Soft clip output
 775:src/main.cpp  ****         float sample = fast_tanh(crushed * 1.3f) * s_amp * s_master_vol;
 776:src/main.cpp  **** 
 777:src/main.cpp  ****         out[0][i] = sample;
 778:src/main.cpp  ****         out[1][i] = sample;
 779:src/main.cpp  **** 
 780:src/main.cpp  ****         // Advance phases
 781:src/main.cpp  ****         s_phase1   += freq_vib*VOICE.osc1_ratio/sr;  if(s_phase1  >=1.0f)s_phase1  -=1.0f;
 503              		.loc 6 781 38 view .LVU152
 504 01f6 D3ED047A 		vldr.32	s15, [r3, #16]
 505 01fa 114B     		ldr	r3, .L195+56
 506 01fc CDED0F7A 		vstr.32	s15, [sp, #60]
 507 0200 1093     		str	r3, [sp, #64]
 508 0202 164B     		ldr	r3, .L195+84
 509 0204 1296     		str	r6, [sp, #72]
 510 0206 68E2     		b	.L106
 511              	.L196:
 512              		.align	2
 513              	.L195:
 514 0208 00000000 		.word	.LANCHOR0
 515 020c 00000000 		.word	.LANCHOR1
 516 0210 00000000 		.word	.LANCHOR2
 517 0214 00000000 		.word	.LANCHOR3
 518 0218 00000000 		.word	.LANCHOR4
 519 021c 00000000 		.word	.LANCHOR5
 520 0220 00000000 		.word	.LANCHOR6
 521 0224 00000000 		.word	.LANCHOR7
 522 0228 00000000 		.word	.LANCHOR8
 523 022c 00000000 		.word	.LANCHOR9
 524 0230 00000000 		.word	.LANCHOR10
 525 0234 00000000 		.word	.LANCHOR11
 526 0238 00000000 		.word	.LANCHOR12
 527 023c 00000000 		.word	.LANCHOR13
 528 0240 00000000 		.word	.LANCHOR14
 529 0244 00000000 		.word	.LANCHOR15
 530 0248 00000000 		.word	.LANCHOR16
 531 024c 00D7233C 		.word	1008981760
ARM GAS  /tmp/claude-502/ccZj3JyB.s 			page 32


 532 0250 00000000 		.word	.LANCHOR26
 533 0254 00000000 		.word	.LANCHOR17
 534 0258 33337340 		.word	1081291571
 535 025c 00000000 		.word	.LANCHOR19
 536 0260 00000000 		.word	.LANCHOR20
 537 0264 00409C46 		.word	1184645120
 538 0268 48E17A3F 		.word	1065017672
 539 026c 0AD7233C 		.word	1008981770
 540 0270 6666A63F 		.word	1067869798
 541 0274 6F12833A 		.word	981668463
 542              	.LVL29:
 543              	.L191:
 544              	.LBB566:
 545              	.LBB567:
 471:src/main.cpp  **** }
 546              		.loc 6 471 24 view .LVU153
 547 0278 5FED067A 		vldr.32	s15, .L195+92
 548 027c F4EEE75A 		vcmpe.f32	s11, s15
 549 0280 F1EE10FA 		vmrs	APSR_nzcv, FPSCR
 550 0284 00F38785 		bgt	.L127
 471:src/main.cpp  **** }
 551              		.loc 6 471 24 view .LVU154
 552              	.LBE567:
 553              	.LBE566:
 554              	.LBB570:
 555              	.LBB554:
 595:src/main.cpp  ****     if(f>0.98f)f=0.98f;
 556              		.loc 6 595 19 view .LVU155
 557 0288 75EEA55A 		vadd.f32	s11, s11, s11
 558              	.LVL30:
 559              	.L77:
 595:src/main.cpp  ****     if(f>0.98f)f=0.98f;
 560              		.loc 6 595 19 view .LVU156
 561              	.LBE554:
 562              	.LBE570:
 769:src/main.cpp  **** 
 563              		.loc 6 769 9 is_stmt 1 view .LVU157
 564              	.LBB571:
 565              	.LBI474:
 593:src/main.cpp  **** {
 566              		.loc 6 593 21 view .LVU158
 567              	.LBB555:
 595:src/main.cpp  ****     if(f>0.98f)f=0.98f;
 568              		.loc 6 595 5 view .LVU159
 595:src/main.cpp  ****     if(f>0.98f)f=0.98f;
 569              		.loc 6 595 11 is_stmt 0 view .LVU160
 570 028c C5EE887A 		vdiv.f32	s15, s11, s16
 571              	.LVL31:
 596:src/main.cpp  ****     float k  = 3.8f*res;
 572              		.loc 6 596 5 is_stmt 1 view .LVU161
 599:src/main.cpp  ****     s_flt[0]+=f*(fast_tanh(x)      -fast_tanh(s_flt[0]));
 573              		.loc 6 599 11 is_stmt 0 view .LVU162
 574 0290 DDED115A 		vldr.32	s11, [sp, #68]
 575 0294 A5EE856A 		vfma.f32	s12, s11, s10
 576              	.LVL32:
 596:src/main.cpp  ****     float k  = 3.8f*res;
 577              		.loc 6 596 5 view .LVU163
ARM GAS  /tmp/claude-502/ccZj3JyB.s 			page 33


 578 0298 5FED0D5A 		vldr.32	s11, .L195+96
 596:src/main.cpp  ****     float k  = 3.8f*res;
 579              		.loc 6 596 17 view .LVU164
 580 029c F4EE657A 		vcmp.f32	s15, s11
 581 02a0 F1EE10FA 		vmrs	APSR_nzcv, FPSCR
 582 02a4 75FEA77A 		vselgt.f32	s15, s11, s15
 583              	.LVL33:
 597:src/main.cpp  ****     float fb = k*s_flt[3];
 584              		.loc 6 597 5 is_stmt 1 view .LVU165
 598:src/main.cpp  ****     float x  = in - fb;
 585              		.loc 6 598 5 view .LVU166
 599:src/main.cpp  ****     s_flt[0]+=f*(fast_tanh(x)      -fast_tanh(s_flt[0]));
 586              		.loc 6 599 5 view .LVU167
 600:src/main.cpp  ****     s_flt[1]+=f*(fast_tanh(s_flt[0])-fast_tanh(s_flt[1]));
 587              		.loc 6 600 5 view .LVU168
 588              	.LBB476:
 589              	.LBI476:
 475:src/main.cpp  **** {
 590              		.loc 6 475 21 view .LVU169
 591              	.LBB477:
 477:src/main.cpp  ****     if(x<-3.0f)return -1.0f;
 592              		.loc 6 477 5 view .LVU170
 593 02a8 F0EE085A 		vmov.f32	s11, #3.0e+0
 594 02ac B4EEE56A 		vcmpe.f32	s12, s11
 595 02b0 F1EE10FA 		vmrs	APSR_nzcv, FPSCR
 596 02b4 00F37684 		bgt	.L128
 478:src/main.cpp  ****     float x2=x*x;
 597              		.loc 6 478 5 view .LVU171
 598 02b8 F8EE085A 		vmov.f32	s11, #-3.0e+0
 599 02bc B4EEE56A 		vcmpe.f32	s12, s11
 600 02c0 F1EE10FA 		vmrs	APSR_nzcv, FPSCR
 601 02c4 00F1F285 		bmi	.L129
 602              	.LVL34:
 603              	.LBB478:
 604              	.LBI478:
 475:src/main.cpp  **** {
 605              		.loc 6 475 21 view .LVU172
 606              	.LBB479:
 479:src/main.cpp  ****     return x*(27.0f+x2)/(27.0f+9.0f*x2);
 607              		.loc 6 479 5 view .LVU173
 480:src/main.cpp  **** }
 608              		.loc 6 480 20 is_stmt 0 view .LVU174
 609 02c8 B3EE0B2A 		vmov.f32	s4, #2.7e+1
 479:src/main.cpp  ****     return x*(27.0f+x2)/(27.0f+9.0f*x2);
 610              		.loc 6 479 11 view .LVU175
 611 02cc 66EE065A 		vmul.f32	s11, s12, s12
 612              	.LVL35:
 480:src/main.cpp  **** }
 613              		.loc 6 480 5 is_stmt 1 view .LVU176
 480:src/main.cpp  **** }
 614              		.loc 6 480 31 is_stmt 0 view .LVU177
 615 02d0 F2EE02AA 		vmov.f32	s21, #9.0e+0
 616 02d4 F0EE421A 		vmov.f32	s3, s4
 617 02d8 E5EEAA1A 		vfma.f32	s3, s11, s21
 480:src/main.cpp  **** }
 618              		.loc 6 480 20 view .LVU178
 619 02dc 75EE825A 		vadd.f32	s11, s11, s4
ARM GAS  /tmp/claude-502/ccZj3JyB.s 			page 34


 620              	.LVL36:
 480:src/main.cpp  **** }
 621              		.loc 6 480 13 view .LVU179
 622 02e0 25EE866A 		vmul.f32	s12, s11, s12
 623              	.LVL37:
 480:src/main.cpp  **** }
 624              		.loc 6 480 39 view .LVU180
 625 02e4 C6EE215A 		vdiv.f32	s11, s12, s3
 626              	.L80:
 627              	.LVL38:
 480:src/main.cpp  **** }
 628              		.loc 6 480 39 view .LVU181
 629              	.LBE479:
 630              	.LBE478:
 631              	.LBE477:
 632              	.LBE476:
 633              	.LBB482:
 634              	.LBI482:
 475:src/main.cpp  **** {
 635              		.loc 6 475 21 is_stmt 1 view .LVU182
 636              	.LBB483:
 477:src/main.cpp  ****     if(x<-3.0f)return -1.0f;
 637              		.loc 6 477 5 view .LVU183
 638 02e8 B0EE086A 		vmov.f32	s12, #3.0e+0
 639 02ec F4EEC63A 		vcmpe.f32	s7, s12
 640 02f0 F1EE10FA 		vmrs	APSR_nzcv, FPSCR
 641 02f4 00F36084 		bgt	.L130
 642              	.L192:
 478:src/main.cpp  ****     float x2=x*x;
 643              		.loc 6 478 5 view .LVU184
 644 02f8 B8EE086A 		vmov.f32	s12, #-3.0e+0
 645 02fc F4EEC63A 		vcmpe.f32	s7, s12
 646 0300 F1EE10FA 		vmrs	APSR_nzcv, FPSCR
 647 0304 00F1CE85 		bmi	.L131
 648              	.LVL39:
 649              	.LBB484:
 650              	.LBI484:
 475:src/main.cpp  **** {
 651              		.loc 6 475 21 view .LVU185
 652              	.LBB485:
 479:src/main.cpp  ****     return x*(27.0f+x2)/(27.0f+9.0f*x2);
 653              		.loc 6 479 5 view .LVU186
 480:src/main.cpp  **** }
 654              		.loc 6 480 20 is_stmt 0 view .LVU187
 655 0308 B3EE0B2A 		vmov.f32	s4, #2.7e+1
 479:src/main.cpp  ****     return x*(27.0f+x2)/(27.0f+9.0f*x2);
 656              		.loc 6 479 11 view .LVU188
 657 030c 23EEA36A 		vmul.f32	s12, s7, s7
 658              	.LVL40:
 480:src/main.cpp  **** }
 659              		.loc 6 480 5 is_stmt 1 view .LVU189
 480:src/main.cpp  **** }
 660              		.loc 6 480 31 is_stmt 0 view .LVU190
 661 0310 F2EE02AA 		vmov.f32	s21, #9.0e+0
 662 0314 F0EE421A 		vmov.f32	s3, s4
 663 0318 E6EE2A1A 		vfma.f32	s3, s12, s21
 480:src/main.cpp  **** }
ARM GAS  /tmp/claude-502/ccZj3JyB.s 			page 35


 664              		.loc 6 480 20 view .LVU191
 665 031c 36EE026A 		vadd.f32	s12, s12, s4
 666              	.LVL41:
 480:src/main.cpp  **** }
 667              		.loc 6 480 13 view .LVU192
 668 0320 26EE236A 		vmul.f32	s12, s12, s7
 480:src/main.cpp  **** }
 669              		.loc 6 480 39 view .LVU193
 670 0324 86EE212A 		vdiv.f32	s4, s12, s3
 671              	.LVL42:
 672              	.L81:
 480:src/main.cpp  **** }
 673              		.loc 6 480 39 view .LVU194
 674              	.LBE485:
 675              	.LBE484:
 676              	.LBE483:
 677              	.LBE482:
 600:src/main.cpp  ****     s_flt[1]+=f*(fast_tanh(s_flt[0])-fast_tanh(s_flt[1]));
 678              		.loc 6 600 36 view .LVU195
 679 0328 75EEC25A 		vsub.f32	s11, s11, s4
 680              	.LBB489:
 681              	.LBB490:
 477:src/main.cpp  ****     if(x<-3.0f)return -1.0f;
 682              		.loc 6 477 5 view .LVU196
 683 032c B0EE086A 		vmov.f32	s12, #3.0e+0
 684              	.LBE490:
 685              	.LBE489:
 600:src/main.cpp  ****     s_flt[1]+=f*(fast_tanh(s_flt[0])-fast_tanh(s_flt[1]));
 686              		.loc 6 600 13 view .LVU197
 687 0330 E5EEA73A 		vfma.f32	s7, s11, s15
 688              	.LBB497:
 689              	.LBB493:
 477:src/main.cpp  ****     if(x<-3.0f)return -1.0f;
 690              		.loc 6 477 5 view .LVU198
 691 0334 F4EEC63A 		vcmpe.f32	s7, s12
 692              	.LBE493:
 693              	.LBE497:
 600:src/main.cpp  ****     s_flt[1]+=f*(fast_tanh(s_flt[0])-fast_tanh(s_flt[1]));
 694              		.loc 6 600 13 view .LVU199
 695 0338 C4ED003A 		vstr.32	s7, [r4]
 601:src/main.cpp  ****     s_flt[2]+=f*(fast_tanh(s_flt[1])-fast_tanh(s_flt[2]));
 696              		.loc 6 601 5 is_stmt 1 view .LVU200
 697              	.LVL43:
 698              	.LBB498:
 699              	.LBI489:
 475:src/main.cpp  **** {
 700              		.loc 6 475 21 view .LVU201
 701              	.LBB494:
 477:src/main.cpp  ****     if(x<-3.0f)return -1.0f;
 702              		.loc 6 477 5 view .LVU202
 703 033c F1EE10FA 		vmrs	APSR_nzcv, FPSCR
 704 0340 00F34484 		bgt	.L132
 478:src/main.cpp  ****     float x2=x*x;
 705              		.loc 6 478 5 view .LVU203
 706 0344 B8EE086A 		vmov.f32	s12, #-3.0e+0
 707 0348 F4EEC63A 		vcmpe.f32	s7, s12
 708 034c F1EE10FA 		vmrs	APSR_nzcv, FPSCR
ARM GAS  /tmp/claude-502/ccZj3JyB.s 			page 36


 709 0350 00F1B485 		bmi	.L133
 710              	.LVL44:
 711              	.LBB491:
 712              	.LBI491:
 475:src/main.cpp  **** {
 713              		.loc 6 475 21 view .LVU204
 714              	.LBB492:
 479:src/main.cpp  ****     return x*(27.0f+x2)/(27.0f+9.0f*x2);
 715              		.loc 6 479 5 view .LVU205
 480:src/main.cpp  **** }
 716              		.loc 6 480 20 is_stmt 0 view .LVU206
 717 0354 F3EE0B5A 		vmov.f32	s11, #2.7e+1
 479:src/main.cpp  ****     return x*(27.0f+x2)/(27.0f+9.0f*x2);
 718              		.loc 6 479 11 view .LVU207
 719 0358 23EEA36A 		vmul.f32	s12, s7, s7
 720              	.LVL45:
 480:src/main.cpp  **** }
 721              		.loc 6 480 5 is_stmt 1 view .LVU208
 480:src/main.cpp  **** }
 722              		.loc 6 480 31 is_stmt 0 view .LVU209
 723 035c F2EE021A 		vmov.f32	s3, #9.0e+0
 724 0360 B0EE652A 		vmov.f32	s4, s11
 725 0364 A6EE212A 		vfma.f32	s4, s12, s3
 480:src/main.cpp  **** }
 726              		.loc 6 480 20 view .LVU210
 727 0368 36EE256A 		vadd.f32	s12, s12, s11
 728              	.LVL46:
 480:src/main.cpp  **** }
 729              		.loc 6 480 13 view .LVU211
 730 036c 66EE233A 		vmul.f32	s7, s12, s7
 731              	.LVL47:
 480:src/main.cpp  **** }
 732              		.loc 6 480 39 view .LVU212
 733 0370 83EE826A 		vdiv.f32	s12, s7, s4
 734              	.LVL48:
 735              	.L82:
 480:src/main.cpp  **** }
 736              		.loc 6 480 39 view .LVU213
 737              	.LBE492:
 738              	.LBE491:
 739              	.LBE494:
 740              	.LBE498:
 741              	.LBB499:
 742              	.LBI499:
 475:src/main.cpp  **** {
 743              		.loc 6 475 21 is_stmt 1 view .LVU214
 744              	.LBB500:
 477:src/main.cpp  ****     if(x<-3.0f)return -1.0f;
 745              		.loc 6 477 5 view .LVU215
 746 0374 F0EE085A 		vmov.f32	s11, #3.0e+0
 747 0378 B4EEE54A 		vcmpe.f32	s8, s11
 748 037c F1EE10FA 		vmrs	APSR_nzcv, FPSCR
 749 0380 00F32E84 		bgt	.L134
 750              	.L193:
 478:src/main.cpp  ****     float x2=x*x;
 751              		.loc 6 478 5 view .LVU216
 752 0384 F8EE085A 		vmov.f32	s11, #-3.0e+0
ARM GAS  /tmp/claude-502/ccZj3JyB.s 			page 37


 753 0388 B4EEE54A 		vcmpe.f32	s8, s11
 754 038c F1EE10FA 		vmrs	APSR_nzcv, FPSCR
 755 0390 00F19085 		bmi	.L135
 756              	.LVL49:
 757              	.LBB501:
 758              	.LBI501:
 475:src/main.cpp  **** {
 759              		.loc 6 475 21 view .LVU217
 760              	.LBB502:
 479:src/main.cpp  ****     return x*(27.0f+x2)/(27.0f+9.0f*x2);
 761              		.loc 6 479 5 view .LVU218
 480:src/main.cpp  **** }
 762              		.loc 6 480 20 is_stmt 0 view .LVU219
 763 0394 F3EE0B3A 		vmov.f32	s7, #2.7e+1
 479:src/main.cpp  ****     return x*(27.0f+x2)/(27.0f+9.0f*x2);
 764              		.loc 6 479 11 view .LVU220
 765 0398 64EE045A 		vmul.f32	s11, s8, s8
 766              	.LVL50:
 480:src/main.cpp  **** }
 767              		.loc 6 480 5 is_stmt 1 view .LVU221
 480:src/main.cpp  **** }
 768              		.loc 6 480 31 is_stmt 0 view .LVU222
 769 039c F2EE021A 		vmov.f32	s3, #9.0e+0
 770 03a0 B0EE632A 		vmov.f32	s4, s7
 771 03a4 A5EEA12A 		vfma.f32	s4, s11, s3
 480:src/main.cpp  **** }
 772              		.loc 6 480 20 view .LVU223
 773 03a8 75EEA35A 		vadd.f32	s11, s11, s7
 774              	.LVL51:
 480:src/main.cpp  **** }
 775              		.loc 6 480 13 view .LVU224
 776 03ac 65EE845A 		vmul.f32	s11, s11, s8
 480:src/main.cpp  **** }
 777              		.loc 6 480 39 view .LVU225
 778 03b0 C5EE823A 		vdiv.f32	s7, s11, s4
 779              	.LVL52:
 780              	.L83:
 480:src/main.cpp  **** }
 781              		.loc 6 480 39 view .LVU226
 782              	.LBE502:
 783              	.LBE501:
 784              	.LBE500:
 785              	.LBE499:
 601:src/main.cpp  ****     s_flt[2]+=f*(fast_tanh(s_flt[1])-fast_tanh(s_flt[2]));
 786              		.loc 6 601 37 view .LVU227
 787 03b4 36EE636A 		vsub.f32	s12, s12, s7
 601:src/main.cpp  ****     s_flt[2]+=f*(fast_tanh(s_flt[1])-fast_tanh(s_flt[2]));
 788              		.loc 6 601 13 view .LVU228
 789 03b8 A7EE864A 		vfma.f32	s8, s15, s12
 790              	.LBB506:
 791              	.LBB507:
 477:src/main.cpp  ****     if(x<-3.0f)return -1.0f;
 792              		.loc 6 477 5 view .LVU229
 793 03bc B0EE086A 		vmov.f32	s12, #3.0e+0
 794 03c0 B4EEC64A 		vcmpe.f32	s8, s12
 795              	.LBE507:
 796              	.LBE506:
ARM GAS  /tmp/claude-502/ccZj3JyB.s 			page 38


 601:src/main.cpp  ****     s_flt[2]+=f*(fast_tanh(s_flt[1])-fast_tanh(s_flt[2]));
 797              		.loc 6 601 13 view .LVU230
 798 03c4 84ED014A 		vstr.32	s8, [r4, #4]
 602:src/main.cpp  ****     s_flt[3]+=f*(fast_tanh(s_flt[2])-fast_tanh(s_flt[3]));
 799              		.loc 6 602 5 is_stmt 1 view .LVU231
 800              	.LVL53:
 801              	.LBB513:
 802              	.LBI506:
 475:src/main.cpp  **** {
 803              		.loc 6 475 21 view .LVU232
 804              	.LBB510:
 477:src/main.cpp  ****     if(x<-3.0f)return -1.0f;
 805              		.loc 6 477 5 view .LVU233
 806 03c8 F1EE10FA 		vmrs	APSR_nzcv, FPSCR
 807 03cc 00F31284 		bgt	.L136
 478:src/main.cpp  ****     float x2=x*x;
 808              		.loc 6 478 5 view .LVU234
 809 03d0 B8EE086A 		vmov.f32	s12, #-3.0e+0
 810 03d4 B4EEC64A 		vcmpe.f32	s8, s12
 811 03d8 F1EE10FA 		vmrs	APSR_nzcv, FPSCR
 812 03dc 00F17685 		bmi	.L137
 813              	.LVL54:
 814              	.LBB508:
 815              	.LBI508:
 475:src/main.cpp  **** {
 816              		.loc 6 475 21 view .LVU235
 817              	.LBB509:
 479:src/main.cpp  ****     return x*(27.0f+x2)/(27.0f+9.0f*x2);
 818              		.loc 6 479 5 view .LVU236
 480:src/main.cpp  **** }
 819              		.loc 6 480 20 is_stmt 0 view .LVU237
 820 03e0 F3EE0B5A 		vmov.f32	s11, #2.7e+1
 479:src/main.cpp  ****     return x*(27.0f+x2)/(27.0f+9.0f*x2);
 821              		.loc 6 479 11 view .LVU238
 822 03e4 24EE046A 		vmul.f32	s12, s8, s8
 823              	.LVL55:
 480:src/main.cpp  **** }
 824              		.loc 6 480 5 is_stmt 1 view .LVU239
 480:src/main.cpp  **** }
 825              		.loc 6 480 31 is_stmt 0 view .LVU240
 826 03e8 B2EE022A 		vmov.f32	s4, #9.0e+0
 827 03ec F0EE653A 		vmov.f32	s7, s11
 828 03f0 E6EE023A 		vfma.f32	s7, s12, s4
 480:src/main.cpp  **** }
 829              		.loc 6 480 20 view .LVU241
 830 03f4 36EE256A 		vadd.f32	s12, s12, s11
 831              	.LVL56:
 480:src/main.cpp  **** }
 832              		.loc 6 480 13 view .LVU242
 833 03f8 26EE044A 		vmul.f32	s8, s12, s8
 834              	.LVL57:
 480:src/main.cpp  **** }
 835              		.loc 6 480 39 view .LVU243
 836 03fc 84EE236A 		vdiv.f32	s12, s8, s7
 837              	.LVL58:
 838              	.L84:
 480:src/main.cpp  **** }
ARM GAS  /tmp/claude-502/ccZj3JyB.s 			page 39


 839              		.loc 6 480 39 view .LVU244
 840              	.LBE509:
 841              	.LBE508:
 842              	.LBE510:
 843              	.LBE513:
 844              	.LBB514:
 845              	.LBI514:
 475:src/main.cpp  **** {
 846              		.loc 6 475 21 is_stmt 1 view .LVU245
 847              	.LBB515:
 477:src/main.cpp  ****     if(x<-3.0f)return -1.0f;
 848              		.loc 6 477 5 view .LVU246
 849 0400 F0EE085A 		vmov.f32	s11, #3.0e+0
 850 0404 F4EEE54A 		vcmpe.f32	s9, s11
 851 0408 F1EE10FA 		vmrs	APSR_nzcv, FPSCR
 852 040c 00F3EF83 		bgt	.L138
 478:src/main.cpp  ****     float x2=x*x;
 853              		.loc 6 478 5 view .LVU247
 854 0410 F8EE085A 		vmov.f32	s11, #-3.0e+0
 855 0414 F4EEE54A 		vcmpe.f32	s9, s11
 856 0418 F1EE10FA 		vmrs	APSR_nzcv, FPSCR
 857 041c 00F15285 		bmi	.L139
 858              	.LVL59:
 859              	.LBB516:
 860              	.LBI516:
 475:src/main.cpp  **** {
 861              		.loc 6 475 21 view .LVU248
 862              	.LBB517:
 479:src/main.cpp  ****     return x*(27.0f+x2)/(27.0f+9.0f*x2);
 863              		.loc 6 479 5 view .LVU249
 480:src/main.cpp  **** }
 864              		.loc 6 480 20 is_stmt 0 view .LVU250
 865 0420 B3EE0B4A 		vmov.f32	s8, #2.7e+1
 479:src/main.cpp  ****     return x*(27.0f+x2)/(27.0f+9.0f*x2);
 866              		.loc 6 479 11 view .LVU251
 867 0424 64EEA45A 		vmul.f32	s11, s9, s9
 868              	.LVL60:
 480:src/main.cpp  **** }
 869              		.loc 6 480 5 is_stmt 1 view .LVU252
 480:src/main.cpp  **** }
 870              		.loc 6 480 31 is_stmt 0 view .LVU253
 871 0428 B2EE022A 		vmov.f32	s4, #9.0e+0
 872 042c F0EE443A 		vmov.f32	s7, s8
 873 0430 E5EE823A 		vfma.f32	s7, s11, s4
 480:src/main.cpp  **** }
 874              		.loc 6 480 20 view .LVU254
 875 0434 75EE845A 		vadd.f32	s11, s11, s8
 876              	.LVL61:
 480:src/main.cpp  **** }
 877              		.loc 6 480 13 view .LVU255
 878 0438 65EEA45A 		vmul.f32	s11, s11, s9
 480:src/main.cpp  **** }
 879              		.loc 6 480 39 view .LVU256
 880 043c 85EEA34A 		vdiv.f32	s8, s11, s7
 881              	.LVL62:
 882              	.L85:
 480:src/main.cpp  **** }
ARM GAS  /tmp/claude-502/ccZj3JyB.s 			page 40


 883              		.loc 6 480 39 view .LVU257
 884              	.LBE517:
 885              	.LBE516:
 886              	.LBE515:
 887              	.LBE514:
 602:src/main.cpp  ****     s_flt[3]+=f*(fast_tanh(s_flt[2])-fast_tanh(s_flt[3]));
 888              		.loc 6 602 37 view .LVU258
 889 0440 36EE446A 		vsub.f32	s12, s12, s8
 602:src/main.cpp  ****     s_flt[3]+=f*(fast_tanh(s_flt[2])-fast_tanh(s_flt[3]));
 890              		.loc 6 602 13 view .LVU259
 891 0444 E7EE864A 		vfma.f32	s9, s15, s12
 892              	.LBB520:
 893              	.LBB521:
 477:src/main.cpp  ****     if(x<-3.0f)return -1.0f;
 894              		.loc 6 477 5 view .LVU260
 895 0448 B0EE086A 		vmov.f32	s12, #3.0e+0
 896 044c F4EEC64A 		vcmpe.f32	s9, s12
 897              	.LBE521:
 898              	.LBE520:
 602:src/main.cpp  ****     s_flt[3]+=f*(fast_tanh(s_flt[2])-fast_tanh(s_flt[3]));
 899              		.loc 6 602 13 view .LVU261
 900 0450 C4ED024A 		vstr.32	s9, [r4, #8]
 603:src/main.cpp  ****     return s_flt[3];
 901              		.loc 6 603 5 is_stmt 1 view .LVU262
 902              	.LVL63:
 903              	.LBB527:
 904              	.LBI520:
 475:src/main.cpp  **** {
 905              		.loc 6 475 21 view .LVU263
 906              	.LBB524:
 477:src/main.cpp  ****     if(x<-3.0f)return -1.0f;
 907              		.loc 6 477 5 view .LVU264
 908 0454 F1EE10FA 		vmrs	APSR_nzcv, FPSCR
 909 0458 00F3C683 		bgt	.L140
 478:src/main.cpp  ****     float x2=x*x;
 910              		.loc 6 478 5 view .LVU265
 911 045c B8EE086A 		vmov.f32	s12, #-3.0e+0
 912 0460 F4EEC64A 		vcmpe.f32	s9, s12
 913 0464 F1EE10FA 		vmrs	APSR_nzcv, FPSCR
 914 0468 00F11085 		bmi	.L141
 915              	.LVL64:
 916              	.LBB522:
 917              	.LBI522:
 475:src/main.cpp  **** {
 918              		.loc 6 475 21 view .LVU266
 919              	.LBB523:
 479:src/main.cpp  ****     return x*(27.0f+x2)/(27.0f+9.0f*x2);
 920              		.loc 6 479 5 view .LVU267
 480:src/main.cpp  **** }
 921              		.loc 6 480 20 is_stmt 0 view .LVU268
 922 046c F3EE0B5A 		vmov.f32	s11, #2.7e+1
 479:src/main.cpp  ****     return x*(27.0f+x2)/(27.0f+9.0f*x2);
 923              		.loc 6 479 11 view .LVU269
 924 0470 24EEA46A 		vmul.f32	s12, s9, s9
 925              	.LVL65:
 480:src/main.cpp  **** }
 926              		.loc 6 480 5 is_stmt 1 view .LVU270
ARM GAS  /tmp/claude-502/ccZj3JyB.s 			page 41


 480:src/main.cpp  **** }
 927              		.loc 6 480 31 is_stmt 0 view .LVU271
 928 0474 F2EE023A 		vmov.f32	s7, #9.0e+0
 929 0478 B0EE654A 		vmov.f32	s8, s11
 930 047c A6EE234A 		vfma.f32	s8, s12, s7
 480:src/main.cpp  **** }
 931              		.loc 6 480 20 view .LVU272
 932 0480 36EE256A 		vadd.f32	s12, s12, s11
 933              	.LVL66:
 480:src/main.cpp  **** }
 934              		.loc 6 480 13 view .LVU273
 935 0484 66EE244A 		vmul.f32	s9, s12, s9
 936              	.LVL67:
 480:src/main.cpp  **** }
 937              		.loc 6 480 39 view .LVU274
 938 0488 84EE846A 		vdiv.f32	s12, s9, s8
 939              	.LVL68:
 940              	.L86:
 480:src/main.cpp  **** }
 941              		.loc 6 480 39 view .LVU275
 942              	.LBE523:
 943              	.LBE522:
 944              	.LBE524:
 945              	.LBE527:
 946              	.LBB528:
 947              	.LBI528:
 475:src/main.cpp  **** {
 948              		.loc 6 475 21 is_stmt 1 view .LVU276
 949              	.LBB529:
 477:src/main.cpp  ****     if(x<-3.0f)return -1.0f;
 950              		.loc 6 477 5 view .LVU277
 951 048c F0EE085A 		vmov.f32	s11, #3.0e+0
 952 0490 B4EEE55A 		vcmpe.f32	s10, s11
 953 0494 F1EE10FA 		vmrs	APSR_nzcv, FPSCR
 954 0498 00F39583 		bgt	.L142
 478:src/main.cpp  ****     float x2=x*x;
 955              		.loc 6 478 5 view .LVU278
 956 049c F8EE085A 		vmov.f32	s11, #-3.0e+0
 957 04a0 B4EEE55A 		vcmpe.f32	s10, s11
 958 04a4 F1EE10FA 		vmrs	APSR_nzcv, FPSCR
 959 04a8 00F1F484 		bmi	.L143
 960              	.LVL69:
 961              	.LBB530:
 962              	.LBI530:
 475:src/main.cpp  **** {
 963              		.loc 6 475 21 view .LVU279
 964              	.LBB531:
 479:src/main.cpp  ****     return x*(27.0f+x2)/(27.0f+9.0f*x2);
 965              		.loc 6 479 5 view .LVU280
 480:src/main.cpp  **** }
 966              		.loc 6 480 20 is_stmt 0 view .LVU281
 967 04ac F3EE0B4A 		vmov.f32	s9, #2.7e+1
 479:src/main.cpp  ****     return x*(27.0f+x2)/(27.0f+9.0f*x2);
 968              		.loc 6 479 11 view .LVU282
 969 04b0 65EE055A 		vmul.f32	s11, s10, s10
 970              	.LVL70:
 480:src/main.cpp  **** }
ARM GAS  /tmp/claude-502/ccZj3JyB.s 			page 42


 971              		.loc 6 480 5 is_stmt 1 view .LVU283
 480:src/main.cpp  **** }
 972              		.loc 6 480 31 is_stmt 0 view .LVU284
 973 04b4 F2EE023A 		vmov.f32	s7, #9.0e+0
 974 04b8 B0EE644A 		vmov.f32	s8, s9
 975 04bc A5EEA34A 		vfma.f32	s8, s11, s7
 480:src/main.cpp  **** }
 976              		.loc 6 480 20 view .LVU285
 977 04c0 75EEA45A 		vadd.f32	s11, s11, s9
 978              	.LVL71:
 480:src/main.cpp  **** }
 979              		.loc 6 480 13 view .LVU286
 980 04c4 65EE855A 		vmul.f32	s11, s11, s10
 480:src/main.cpp  **** }
 981              		.loc 6 480 39 view .LVU287
 982 04c8 C5EE844A 		vdiv.f32	s9, s11, s8
 983              	.LVL72:
 984              	.L87:
 480:src/main.cpp  **** }
 985              		.loc 6 480 39 view .LVU288
 986              	.LBE531:
 987              	.LBE530:
 988              	.LBE529:
 989              	.LBE528:
 603:src/main.cpp  ****     return s_flt[3];
 990              		.loc 6 603 37 view .LVU289
 991 04cc 36EE646A 		vsub.f32	s12, s12, s9
 603:src/main.cpp  ****     return s_flt[3];
 992              		.loc 6 603 13 view .LVU290
 993 04d0 A7EE865A 		vfma.f32	s10, s15, s12
 994              	.LVL73:
 603:src/main.cpp  ****     return s_flt[3];
 995              		.loc 6 603 13 view .LVU291
 996              	.LBE555:
 997              	.LBE571:
 998              	.LBB572:
 999              	.LBB573:
 612:src/main.cpp  ****     // Drive the signal harder as amount increases (1x to 5x)
 1000              		.loc 6 612 5 view .LVU292
 1001 04d4 5FED9B7A 		vldr.32	s15, .L195+100
 1002              	.LVL74:
 612:src/main.cpp  ****     // Drive the signal harder as amount increases (1x to 5x)
 1003              		.loc 6 612 5 view .LVU293
 1004 04d8 B4EEE73A 		vcmpe.f32	s6, s15
 1005 04dc F1EE10FA 		vmrs	APSR_nzcv, FPSCR
 1006              	.LBE573:
 1007              	.LBE572:
 1008              	.LBB578:
 1009              	.LBB556:
 603:src/main.cpp  ****     return s_flt[3];
 1010              		.loc 6 603 13 view .LVU294
 1011 04e0 84ED035A 		vstr.32	s10, [r4, #12]
 604:src/main.cpp  **** }
 1012              		.loc 6 604 5 is_stmt 1 view .LVU295
 1013              	.LVL75:
 604:src/main.cpp  **** }
 1014              		.loc 6 604 5 is_stmt 0 view .LVU296
ARM GAS  /tmp/claude-502/ccZj3JyB.s 			page 43


 1015              	.LBE556:
 1016              	.LBE578:
 772:src/main.cpp  **** 
 1017              		.loc 6 772 9 is_stmt 1 view .LVU297
 1018              	.LBB579:
 1019              	.LBI572:
 610:src/main.cpp  **** {
 1020              		.loc 6 610 21 view .LVU298
 1021              	.LBB577:
 612:src/main.cpp  ****     // Drive the signal harder as amount increases (1x to 5x)
 1022              		.loc 6 612 5 view .LVU299
 1023 04e4 3BD4     		bmi	.L88
 614:src/main.cpp  ****     // Fold: reflect signal at ┬▒1 boundary repeatedly
 1024              		.loc 6 614 5 view .LVU300
 614:src/main.cpp  ****     // Fold: reflect signal at ┬▒1 boundary repeatedly
 1025              		.loc 6 614 31 is_stmt 0 view .LVU301
 1026 04e6 B7EE004A 		vmov.f32	s8, #1.0e+0
 1027 04ea F1EE007A 		vmov.f32	s15, #4.0e+0
 1028              	.LBB574:
 622:src/main.cpp  ****         x = x * 2.0f - 1.0f;           // back to -1..1
 1029              		.loc 6 622 33 view .LVU302
 1030 04ee F0EE004A 		vmov.f32	s9, #2.0e+0
 1031              	.LBE574:
 614:src/main.cpp  ****     // Fold: reflect signal at ┬▒1 boundary repeatedly
 1032              		.loc 6 614 31 view .LVU303
 1033 04f2 B0EE446A 		vmov.f32	s12, s8
 626:src/main.cpp  **** }
 1034              		.loc 6 626 20 view .LVU304
 1035 04f6 74EE433A 		vsub.f32	s7, s8, s6
 614:src/main.cpp  ****     // Fold: reflect signal at ┬▒1 boundary repeatedly
 1036              		.loc 6 614 31 view .LVU305
 1037 04fa A3EE276A 		vfma.f32	s12, s6, s15
 1038              	.LVL76:
 617:src/main.cpp  ****     // 2 passes of folding for richness
 1039              		.loc 6 617 5 is_stmt 1 view .LVU306
 619:src/main.cpp  ****         x = x * 0.5f + 0.5f;           // shift to 0..1
 1040              		.loc 6 619 5 view .LVU307
 1041              	.LBB575:
 619:src/main.cpp  ****         x = x * 0.5f + 0.5f;           // shift to 0..1
 1042              		.loc 6 619 28 view .LVU308
 620:src/main.cpp  ****         x = x - floorf(x);              // wrap to 0..1
 1043              		.loc 6 620 9 view .LVU309
 620:src/main.cpp  ****         x = x - floorf(x);              // wrap to 0..1
 1044              		.loc 6 620 11 is_stmt 0 view .LVU310
 1045 04fe F6EE007A 		vmov.f32	s15, #5.0e-1
 1046 0502 F0EE675A 		vmov.f32	s11, s15
 1047              	.LBE575:
 614:src/main.cpp  ****     // Fold: reflect signal at ┬▒1 boundary repeatedly
 1048              		.loc 6 614 11 view .LVU311
 1049 0506 26EE056A 		vmul.f32	s12, s12, s10
 1050              	.LVL77:
 1051              	.LBB576:
 620:src/main.cpp  ****         x = x - floorf(x);              // wrap to 0..1
 1052              		.loc 6 620 11 view .LVU312
 1053 050a E6EE275A 		vfma.f32	s11, s12, s15
 1054              	.LVL78:
 621:src/main.cpp  ****         x = 1.0f - fabsf(2.0f*x - 1.0f); // triangle fold
ARM GAS  /tmp/claude-502/ccZj3JyB.s 			page 44


 1055              		.loc 6 621 9 is_stmt 1 view .LVU313
 622:src/main.cpp  ****         x = x * 2.0f - 1.0f;           // back to -1..1
 1056              		.loc 6 622 33 is_stmt 0 view .LVU314
 1057 050e BFEE006A 		vmov.f32	s12, #-1.0e+0
 1058              	.LVL79:
 621:src/main.cpp  ****         x = 1.0f - fabsf(2.0f*x - 1.0f); // triangle fold
 1059              		.loc 6 621 23 view .LVU315
 1060 0512 BBFE652A 		vrintm.f32	s4, s11
 1061              	.LVL80:
 622:src/main.cpp  ****         x = x * 2.0f - 1.0f;           // back to -1..1
 1062              		.loc 6 622 9 is_stmt 1 view .LVU316
 621:src/main.cpp  ****         x = 1.0f - fabsf(2.0f*x - 1.0f); // triangle fold
 1063              		.loc 6 621 11 is_stmt 0 view .LVU317
 1064 0516 35EEC22A 		vsub.f32	s4, s11, s4
 1065              	.LVL81:
 622:src/main.cpp  ****         x = x * 2.0f - 1.0f;           // back to -1..1
 1066              		.loc 6 622 33 view .LVU318
 1067 051a F0EE465A 		vmov.f32	s11, s12
 1068 051e E2EE245A 		vfma.f32	s11, s4, s9
 623:src/main.cpp  ****     }
 1069              		.loc 6 623 11 view .LVU319
 1070 0522 B0EE462A 		vmov.f32	s4, s12
 1071              	.LVL82:
 622:src/main.cpp  ****         x = x * 2.0f - 1.0f;           // back to -1..1
 1072              		.loc 6 622 25 view .LVU320
 1073 0526 F0EEE55A 		vabs.f32	s11, s11
 622:src/main.cpp  ****         x = x * 2.0f - 1.0f;           // back to -1..1
 1074              		.loc 6 622 11 view .LVU321
 1075 052a 74EE655A 		vsub.f32	s11, s8, s11
 1076              	.LVL83:
 623:src/main.cpp  ****     }
 1077              		.loc 6 623 9 is_stmt 1 view .LVU322
 623:src/main.cpp  ****     }
 1078              		.loc 6 623 11 is_stmt 0 view .LVU323
 1079 052e A5EEA42A 		vfma.f32	s4, s11, s9
 1080              	.LVL84:
 619:src/main.cpp  ****         x = x * 0.5f + 0.5f;           // shift to 0..1
 1081              		.loc 6 619 5 is_stmt 1 view .LVU324
 619:src/main.cpp  ****         x = x * 0.5f + 0.5f;           // shift to 0..1
 1082              		.loc 6 619 28 view .LVU325
 620:src/main.cpp  ****         x = x - floorf(x);              // wrap to 0..1
 1083              		.loc 6 620 9 view .LVU326
 620:src/main.cpp  ****         x = x - floorf(x);              // wrap to 0..1
 1084              		.loc 6 620 11 is_stmt 0 view .LVU327
 1085 0532 E2EE277A 		vfma.f32	s15, s4, s15
 1086              	.LVL85:
 621:src/main.cpp  ****         x = 1.0f - fabsf(2.0f*x - 1.0f); // triangle fold
 1087              		.loc 6 621 9 is_stmt 1 view .LVU328
 621:src/main.cpp  ****         x = 1.0f - fabsf(2.0f*x - 1.0f); // triangle fold
 1088              		.loc 6 621 23 is_stmt 0 view .LVU329
 1089 0536 FBFE675A 		vrintm.f32	s11, s15
 1090              	.LVL86:
 622:src/main.cpp  ****         x = x * 2.0f - 1.0f;           // back to -1..1
 1091              		.loc 6 622 9 is_stmt 1 view .LVU330
 621:src/main.cpp  ****         x = 1.0f - fabsf(2.0f*x - 1.0f); // triangle fold
 1092              		.loc 6 621 11 is_stmt 0 view .LVU331
 1093 053a 77EEE57A 		vsub.f32	s15, s15, s11
ARM GAS  /tmp/claude-502/ccZj3JyB.s 			page 45


 1094              	.LVL87:
 622:src/main.cpp  ****         x = x * 2.0f - 1.0f;           // back to -1..1
 1095              		.loc 6 622 33 view .LVU332
 1096 053e F0EE465A 		vmov.f32	s11, s12
 1097 0542 E7EEA45A 		vfma.f32	s11, s15, s9
 622:src/main.cpp  ****         x = x * 2.0f - 1.0f;           // back to -1..1
 1098              		.loc 6 622 25 view .LVU333
 1099 0546 F0EEE55A 		vabs.f32	s11, s11
 622:src/main.cpp  ****         x = x * 2.0f - 1.0f;           // back to -1..1
 1100              		.loc 6 622 11 view .LVU334
 1101 054a 74EE655A 		vsub.f32	s11, s8, s11
 1102              	.LVL88:
 623:src/main.cpp  ****     }
 1103              		.loc 6 623 9 is_stmt 1 view .LVU335
 623:src/main.cpp  ****     }
 1104              		.loc 6 623 11 is_stmt 0 view .LVU336
 1105 054e A5EEA46A 		vfma.f32	s12, s11, s9
 1106              	.LVL89:
 619:src/main.cpp  ****         x = x * 0.5f + 0.5f;           // shift to 0..1
 1107              		.loc 6 619 5 is_stmt 1 view .LVU337
 619:src/main.cpp  ****         x = x * 0.5f + 0.5f;           // shift to 0..1
 1108              		.loc 6 619 28 view .LVU338
 1109              	.LBE576:
 626:src/main.cpp  **** }
 1110              		.loc 6 626 5 view .LVU339
 626:src/main.cpp  **** }
 1111              		.loc 6 626 32 is_stmt 0 view .LVU340
 1112 0552 23EE066A 		vmul.f32	s12, s6, s12
 1113              	.LVL90:
 626:src/main.cpp  **** }
 1114              		.loc 6 626 33 view .LVU341
 1115 0556 A3EE856A 		vfma.f32	s12, s7, s10
 1116 055a B0EE465A 		vmov.f32	s10, s12
 1117              	.LVL91:
 1118              	.L88:
 626:src/main.cpp  **** }
 1119              		.loc 6 626 33 view .LVU342
 1120              	.LBE577:
 1121              	.LBE579:
 775:src/main.cpp  **** 
 1122              		.loc 6 775 9 is_stmt 1 view .LVU343
 775:src/main.cpp  **** 
 1123              		.loc 6 775 33 is_stmt 0 view .LVU344
 1124 055e 5FEDBC7A 		vldr.32	s15, .L195+104
 1125 0562 25EE275A 		vmul.f32	s10, s10, s15
 1126              	.LVL92:
 1127              	.LBB580:
 1128              	.LBI580:
 475:src/main.cpp  **** {
 1129              		.loc 6 475 21 is_stmt 1 view .LVU345
 1130              	.LBB581:
 477:src/main.cpp  ****     if(x<-3.0f)return -1.0f;
 1131              		.loc 6 477 5 view .LVU346
 1132 0566 F0EE087A 		vmov.f32	s15, #3.0e+0
 1133 056a B4EEE75A 		vcmpe.f32	s10, s15
 1134 056e F1EE10FA 		vmrs	APSR_nzcv, FPSCR
 1135 0572 19DC     		bgt	.L89
ARM GAS  /tmp/claude-502/ccZj3JyB.s 			page 46


 478:src/main.cpp  ****     float x2=x*x;
 1136              		.loc 6 478 5 view .LVU347
 1137 0574 F8EE087A 		vmov.f32	s15, #-3.0e+0
 1138 0578 B4EEE75A 		vcmpe.f32	s10, s15
 1139 057c F1EE10FA 		vmrs	APSR_nzcv, FPSCR
 1140 0580 00F18C84 		bmi	.L186
 1141              	.LVL93:
 1142              	.LBB582:
 1143              	.LBI582:
 475:src/main.cpp  **** {
 1144              		.loc 6 475 21 view .LVU348
 1145              	.LBB583:
 479:src/main.cpp  ****     return x*(27.0f+x2)/(27.0f+9.0f*x2);
 1146              		.loc 6 479 5 view .LVU349
 480:src/main.cpp  **** }
 1147              		.loc 6 480 20 is_stmt 0 view .LVU350
 1148 0584 B3EE0B6A 		vmov.f32	s12, #2.7e+1
 479:src/main.cpp  ****     return x*(27.0f+x2)/(27.0f+9.0f*x2);
 1149              		.loc 6 479 11 view .LVU351
 1150 0588 65EE057A 		vmul.f32	s15, s10, s10
 1151              	.LVL94:
 480:src/main.cpp  **** }
 1152              		.loc 6 480 5 is_stmt 1 view .LVU352
 480:src/main.cpp  **** }
 1153              		.loc 6 480 31 is_stmt 0 view .LVU353
 1154 058c F2EE024A 		vmov.f32	s9, #9.0e+0
 1155 0590 F0EE465A 		vmov.f32	s11, s12
 1156 0594 E7EEA45A 		vfma.f32	s11, s15, s9
 1157              	.LVL95:
 480:src/main.cpp  **** }
 1158              		.loc 6 480 20 view .LVU354
 1159 0598 77EE867A 		vadd.f32	s15, s15, s12
 480:src/main.cpp  **** }
 1160              		.loc 6 480 13 view .LVU355
 1161 059c 27EE855A 		vmul.f32	s10, s15, s10
 1162              	.LVL96:
 480:src/main.cpp  **** }
 1163              		.loc 6 480 39 view .LVU356
 1164 05a0 C5EE257A 		vdiv.f32	s15, s10, s11
 1165              	.LBE583:
 1166              	.LBE582:
 1167              	.LBE581:
 1168              	.LBE580:
 775:src/main.cpp  **** 
 1169              		.loc 6 775 50 view .LVU357
 1170 05a4 27EE277A 		vmul.f32	s14, s14, s15
 1171              	.L89:
 1172              		.loc 6 781 31 view .LVU358
 1173 05a8 DDED0F7A 		vldr.32	s15, [sp, #60]
 775:src/main.cpp  **** 
 1174              		.loc 6 775 60 view .LVU359
 1175 05ac 2AEE077A 		vmul.f32	s14, s20, s14
 1176              	.LVL97:
 777:src/main.cpp  ****         out[1][i] = sample;
 1177              		.loc 6 777 9 is_stmt 1 view .LVU360
 777:src/main.cpp  ****         out[1][i] = sample;
 1178              		.loc 6 777 19 is_stmt 0 view .LVU361
ARM GAS  /tmp/claude-502/ccZj3JyB.s 			page 47


 1179 05b0 DAF80010 		ldr	r1, [r10]
 1180              		.loc 6 781 31 view .LVU362
 1181 05b4 66EEA76A 		vmul.f32	s13, s13, s15
 1182              	.LVL98:
 782:src/main.cpp  ****         s_phase2   += freq2   /sr;  if(s_phase2  >=1.0f)s_phase2  -=1.0f;
 783:src/main.cpp  ****         s_phase_sub+= freq_sub/sr;  if(s_phase_sub>=1.0f)s_phase_sub-=1.0f;
 784:src/main.cpp  ****         s_phase_oct+= freq_oct/sr;  if(s_phase_oct>=1.0f)s_phase_oct-=1.0f;
 785:src/main.cpp  ****         s_phase_rm += freq_rm /sr;  if(s_phase_rm >=1.0f)s_phase_rm -=1.0f;
 786:src/main.cpp  **** 
 787:src/main.cpp  ****         // LED3 PWM tick. Smooth duty, recompute threshold, compare counter.
 788:src/main.cpp  ****         led3_duty_smooth += (duty_target - led3_duty_smooth) * DUTY_TC;
 1183              		.loc 6 788 42 view .LVU363
 1184 05b8 DDED065A 		vldr.32	s11, [sp, #24]
 777:src/main.cpp  ****         out[1][i] = sample;
 1185              		.loc 6 777 19 view .LVU364
 1186 05bc 01EB8501 		add	r1, r1, r5, lsl #2
 1187              		.loc 6 788 26 view .LVU365
 1188 05c0 1FEDD46A 		vldr.32	s12, .L195+108
 789:src/main.cpp  ****         uint32_t threshold = (uint32_t)(led3_duty_smooth * (float)PWM_LEVELS + 0.5f);
 790:src/main.cpp  ****         if(threshold > PWM_LEVELS) threshold = PWM_LEVELS;
 791:src/main.cpp  ****         if(++pwm_counter >= PWM_LEVELS) pwm_counter = 0;
 1189              		.loc 6 791 12 view .LVU366
 1190 05c4 E04E     		ldr	r6, .L197
 781:src/main.cpp  ****         s_phase2   += freq2   /sr;  if(s_phase2  >=1.0f)s_phase2  -=1.0f;
 1191              		.loc 6 781 48 view .LVU367
 1192 05c6 C6EE887A 		vdiv.f32	s15, s13, s16
 777:src/main.cpp  ****         out[1][i] = sample;
 1193              		.loc 6 777 19 view .LVU368
 1194 05ca 81ED007A 		vstr.32	s14, [r1]
 778:src/main.cpp  **** 
 1195              		.loc 6 778 9 is_stmt 1 view .LVU369
 778:src/main.cpp  **** 
 1196              		.loc 6 778 19 is_stmt 0 view .LVU370
 1197 05ce DAF80410 		ldr	r1, [r10, #4]
 789:src/main.cpp  ****         if(threshold > PWM_LEVELS) threshold = PWM_LEVELS;
 1198              		.loc 6 789 78 view .LVU371
 1199 05d2 DFEDDE6A 		vldr.32	s13, .L197+4
 778:src/main.cpp  **** 
 1200              		.loc 6 778 19 view .LVU372
 1201 05d6 01EB8501 		add	r1, r1, r5, lsl #2
 1202 05da 81ED007A 		vstr.32	s14, [r1]
 781:src/main.cpp  ****         s_phase2   += freq2   /sr;  if(s_phase2  >=1.0f)s_phase2  -=1.0f;
 1203              		.loc 6 781 9 is_stmt 1 view .LVU373
 781:src/main.cpp  ****         s_phase2   += freq2   /sr;  if(s_phase2  >=1.0f)s_phase2  -=1.0f;
 1204              		.loc 6 781 54 view .LVU374
 782:src/main.cpp  ****         s_phase_sub+= freq_sub/sr;  if(s_phase_sub>=1.0f)s_phase_sub-=1.0f;
 1205              		.loc 6 782 37 is_stmt 0 view .LVU375
 1206 05de B7EE007A 		vmov.f32	s14, #1.0e+0
 1207              	.LVL99:
 781:src/main.cpp  ****         s_phase2   += freq2   /sr;  if(s_phase2  >=1.0f)s_phase2  -=1.0f;
 1208              		.loc 6 781 84 view .LVU376
 1209 05e2 DB49     		ldr	r1, .L197+8
 1210              	.LVL100:
 781:src/main.cpp  ****         s_phase2   += freq2   /sr;  if(s_phase2  >=1.0f)s_phase2  -=1.0f;
 1211              		.loc 6 781 20 view .LVU377
 1212 05e4 77EE897A 		vadd.f32	s15, s15, s18
 781:src/main.cpp  ****         s_phase2   += freq2   /sr;  if(s_phase2  >=1.0f)s_phase2  -=1.0f;
ARM GAS  /tmp/claude-502/ccZj3JyB.s 			page 48


 1213              		.loc 6 781 54 view .LVU378
 1214 05e8 B7EE009A 		vmov.f32	s18, #1.0e+0
 1215 05ec F4EEC97A 		vcmpe.f32	s15, s18
 1216 05f0 F1EE10FA 		vmrs	APSR_nzcv, FPSCR
 781:src/main.cpp  ****         s_phase2   += freq2   /sr;  if(s_phase2  >=1.0f)s_phase2  -=1.0f;
 1217              		.loc 6 781 74 is_stmt 1 view .LVU379
 781:src/main.cpp  ****         s_phase2   += freq2   /sr;  if(s_phase2  >=1.0f)s_phase2  -=1.0f;
 1218              		.loc 6 781 84 is_stmt 0 view .LVU380
 1219 05f4 A8BF     		it	ge
 1220 05f6 77EEC97A 		vsubge.f32	s15, s15, s18
 1221 05fa C1ED007A 		vstr.32	s15, [r1]
 782:src/main.cpp  ****         s_phase_sub+= freq_sub/sr;  if(s_phase_sub>=1.0f)s_phase_sub-=1.0f;
 1222              		.loc 6 782 9 is_stmt 1 view .LVU381
 782:src/main.cpp  ****         s_phase_sub+= freq_sub/sr;  if(s_phase_sub>=1.0f)s_phase_sub-=1.0f;
 1223              		.loc 6 782 31 is_stmt 0 view .LVU382
 1224 05fe C1EE087A 		vdiv.f32	s15, s2, s16
 782:src/main.cpp  ****         s_phase_sub+= freq_sub/sr;  if(s_phase_sub>=1.0f)s_phase_sub-=1.0f;
 1225              		.loc 6 782 67 view .LVU383
 1226 0602 D449     		ldr	r1, .L197+12
 782:src/main.cpp  ****         s_phase_sub+= freq_sub/sr;  if(s_phase_sub>=1.0f)s_phase_sub-=1.0f;
 1227              		.loc 6 782 20 view .LVU384
 1228 0604 77EEA88A 		vadd.f32	s17, s15, s17
 782:src/main.cpp  ****         s_phase_sub+= freq_sub/sr;  if(s_phase_sub>=1.0f)s_phase_sub-=1.0f;
 1229              		.loc 6 782 37 is_stmt 1 view .LVU385
 783:src/main.cpp  ****         s_phase_oct+= freq_oct/sr;  if(s_phase_oct>=1.0f)s_phase_oct-=1.0f;
 1230              		.loc 6 783 31 is_stmt 0 view .LVU386
 1231 0608 CEEE087A 		vdiv.f32	s15, s28, s16
 782:src/main.cpp  ****         s_phase_sub+= freq_sub/sr;  if(s_phase_sub>=1.0f)s_phase_sub-=1.0f;
 1232              		.loc 6 782 37 view .LVU387
 1233 060c F4EEC78A 		vcmpe.f32	s17, s14
 1234 0610 F1EE10FA 		vmrs	APSR_nzcv, FPSCR
 782:src/main.cpp  ****         s_phase_sub+= freq_sub/sr;  if(s_phase_sub>=1.0f)s_phase_sub-=1.0f;
 1235              		.loc 6 782 57 is_stmt 1 view .LVU388
 782:src/main.cpp  ****         s_phase_sub+= freq_sub/sr;  if(s_phase_sub>=1.0f)s_phase_sub-=1.0f;
 1236              		.loc 6 782 67 is_stmt 0 view .LVU389
 1237 0614 A8BF     		it	ge
 1238 0616 78EEC78A 		vsubge.f32	s17, s17, s14
 783:src/main.cpp  ****         s_phase_oct+= freq_oct/sr;  if(s_phase_oct>=1.0f)s_phase_oct-=1.0f;
 1239              		.loc 6 783 37 view .LVU390
 1240 061a B7EE007A 		vmov.f32	s14, #1.0e+0
 782:src/main.cpp  ****         s_phase_sub+= freq_sub/sr;  if(s_phase_sub>=1.0f)s_phase_sub-=1.0f;
 1241              		.loc 6 782 67 view .LVU391
 1242 061e C1ED008A 		vstr.32	s17, [r1]
 783:src/main.cpp  ****         s_phase_oct+= freq_oct/sr;  if(s_phase_oct>=1.0f)s_phase_oct-=1.0f;
 1243              		.loc 6 783 9 is_stmt 1 view .LVU392
 783:src/main.cpp  ****         s_phase_oct+= freq_oct/sr;  if(s_phase_oct>=1.0f)s_phase_oct-=1.0f;
 1244              		.loc 6 783 69 is_stmt 0 view .LVU393
 1245 0622 CD49     		ldr	r1, .L197+16
 783:src/main.cpp  ****         s_phase_oct+= freq_oct/sr;  if(s_phase_oct>=1.0f)s_phase_oct-=1.0f;
 1246              		.loc 6 783 20 view .LVU394
 1247 0624 37EE800A 		vadd.f32	s0, s15, s0
 783:src/main.cpp  ****         s_phase_oct+= freq_oct/sr;  if(s_phase_oct>=1.0f)s_phase_oct-=1.0f;
 1248              		.loc 6 783 37 is_stmt 1 view .LVU395
 784:src/main.cpp  ****         s_phase_rm += freq_rm /sr;  if(s_phase_rm >=1.0f)s_phase_rm -=1.0f;
 1249              		.loc 6 784 31 is_stmt 0 view .LVU396
 1250 0628 CDEE887A 		vdiv.f32	s15, s27, s16
 783:src/main.cpp  ****         s_phase_oct+= freq_oct/sr;  if(s_phase_oct>=1.0f)s_phase_oct-=1.0f;
ARM GAS  /tmp/claude-502/ccZj3JyB.s 			page 49


 1251              		.loc 6 783 37 view .LVU397
 1252 062c B4EEC70A 		vcmpe.f32	s0, s14
 1253 0630 F1EE10FA 		vmrs	APSR_nzcv, FPSCR
 783:src/main.cpp  ****         s_phase_oct+= freq_oct/sr;  if(s_phase_oct>=1.0f)s_phase_oct-=1.0f;
 1254              		.loc 6 783 58 is_stmt 1 view .LVU398
 783:src/main.cpp  ****         s_phase_oct+= freq_oct/sr;  if(s_phase_oct>=1.0f)s_phase_oct-=1.0f;
 1255              		.loc 6 783 69 is_stmt 0 view .LVU399
 1256 0634 A8BF     		it	ge
 1257 0636 30EE470A 		vsubge.f32	s0, s0, s14
 784:src/main.cpp  ****         s_phase_rm += freq_rm /sr;  if(s_phase_rm >=1.0f)s_phase_rm -=1.0f;
 1258              		.loc 6 784 37 view .LVU400
 1259 063a B7EE007A 		vmov.f32	s14, #1.0e+0
 783:src/main.cpp  ****         s_phase_oct+= freq_oct/sr;  if(s_phase_oct>=1.0f)s_phase_oct-=1.0f;
 1260              		.loc 6 783 69 view .LVU401
 1261 063e 81ED000A 		vstr.32	s0, [r1]
 784:src/main.cpp  ****         s_phase_rm += freq_rm /sr;  if(s_phase_rm >=1.0f)s_phase_rm -=1.0f;
 1262              		.loc 6 784 9 is_stmt 1 view .LVU402
 784:src/main.cpp  ****         s_phase_rm += freq_rm /sr;  if(s_phase_rm >=1.0f)s_phase_rm -=1.0f;
 1263              		.loc 6 784 69 is_stmt 0 view .LVU403
 1264 0642 C649     		ldr	r1, .L197+20
 784:src/main.cpp  ****         s_phase_rm += freq_rm /sr;  if(s_phase_rm >=1.0f)s_phase_rm -=1.0f;
 1265              		.loc 6 784 20 view .LVU404
 1266 0644 77EEA00A 		vadd.f32	s1, s15, s1
 784:src/main.cpp  ****         s_phase_rm += freq_rm /sr;  if(s_phase_rm >=1.0f)s_phase_rm -=1.0f;
 1267              		.loc 6 784 37 is_stmt 1 view .LVU405
 785:src/main.cpp  **** 
 1268              		.loc 6 785 31 is_stmt 0 view .LVU406
 1269 0648 CDEE087A 		vdiv.f32	s15, s26, s16
 784:src/main.cpp  ****         s_phase_rm += freq_rm /sr;  if(s_phase_rm >=1.0f)s_phase_rm -=1.0f;
 1270              		.loc 6 784 37 view .LVU407
 1271 064c F4EEC70A 		vcmpe.f32	s1, s14
 1272 0650 F1EE10FA 		vmrs	APSR_nzcv, FPSCR
 784:src/main.cpp  ****         s_phase_rm += freq_rm /sr;  if(s_phase_rm >=1.0f)s_phase_rm -=1.0f;
 1273              		.loc 6 784 58 is_stmt 1 view .LVU408
 784:src/main.cpp  ****         s_phase_rm += freq_rm /sr;  if(s_phase_rm >=1.0f)s_phase_rm -=1.0f;
 1274              		.loc 6 784 69 is_stmt 0 view .LVU409
 1275 0654 A8BF     		it	ge
 1276 0656 70EEC70A 		vsubge.f32	s1, s1, s14
 785:src/main.cpp  **** 
 1277              		.loc 6 785 37 view .LVU410
 1278 065a B7EE007A 		vmov.f32	s14, #1.0e+0
 784:src/main.cpp  ****         s_phase_rm += freq_rm /sr;  if(s_phase_rm >=1.0f)s_phase_rm -=1.0f;
 1279              		.loc 6 784 69 view .LVU411
 1280 065e C1ED000A 		vstr.32	s1, [r1]
 785:src/main.cpp  **** 
 1281              		.loc 6 785 9 is_stmt 1 view .LVU412
 785:src/main.cpp  **** 
 1282              		.loc 6 785 69 is_stmt 0 view .LVU413
 1283 0662 BF49     		ldr	r1, .L197+24
 785:src/main.cpp  **** 
 1284              		.loc 6 785 20 view .LVU414
 1285 0664 77EEA22A 		vadd.f32	s5, s15, s5
 785:src/main.cpp  **** 
 1286              		.loc 6 785 37 is_stmt 1 view .LVU415
 789:src/main.cpp  ****         if(threshold > PWM_LEVELS) threshold = PWM_LEVELS;
 1287              		.loc 6 789 78 is_stmt 0 view .LVU416
 1288 0668 F6EE007A 		vmov.f32	s15, #5.0e-1
ARM GAS  /tmp/claude-502/ccZj3JyB.s 			page 50


 785:src/main.cpp  **** 
 1289              		.loc 6 785 37 view .LVU417
 1290 066c F4EEC72A 		vcmpe.f32	s5, s14
 1291 0670 F1EE10FA 		vmrs	APSR_nzcv, FPSCR
 785:src/main.cpp  **** 
 1292              		.loc 6 785 58 is_stmt 1 view .LVU418
 785:src/main.cpp  **** 
 1293              		.loc 6 785 69 is_stmt 0 view .LVU419
 1294 0674 A8BF     		it	ge
 1295 0676 72EEC72A 		vsubge.f32	s5, s5, s14
 1296 067a C1ED002A 		vstr.32	s5, [r1]
 788:src/main.cpp  ****         uint32_t threshold = (uint32_t)(led3_duty_smooth * (float)PWM_LEVELS + 0.5f);
 1297              		.loc 6 788 9 is_stmt 1 view .LVU420
 788:src/main.cpp  ****         uint32_t threshold = (uint32_t)(led3_duty_smooth * (float)PWM_LEVELS + 0.5f);
 1298              		.loc 6 788 42 is_stmt 0 view .LVU421
 1299 067e B949     		ldr	r1, .L197+28
 1300 0680 91ED007A 		vldr.32	s14, [r1]
 1301 0684 75EEC75A 		vsub.f32	s11, s11, s14
 788:src/main.cpp  ****         uint32_t threshold = (uint32_t)(led3_duty_smooth * (float)PWM_LEVELS + 0.5f);
 1302              		.loc 6 788 26 view .LVU422
 1303 0688 A5EE867A 		vfma.f32	s14, s11, s12
 789:src/main.cpp  ****         if(threshold > PWM_LEVELS) threshold = PWM_LEVELS;
 1304              		.loc 6 789 78 view .LVU423
 1305 068c E7EE267A 		vfma.f32	s15, s14, s13
 788:src/main.cpp  ****         uint32_t threshold = (uint32_t)(led3_duty_smooth * (float)PWM_LEVELS + 0.5f);
 1306              		.loc 6 788 26 view .LVU424
 1307 0690 81ED007A 		vstr.32	s14, [r1]
 789:src/main.cpp  ****         if(threshold > PWM_LEVELS) threshold = PWM_LEVELS;
 1308              		.loc 6 789 9 is_stmt 1 view .LVU425
 1309              		.loc 6 791 12 is_stmt 0 view .LVU426
 1310 0694 3168     		ldr	r1, [r6]
 1311 0696 481C     		adds	r0, r1, #1
 789:src/main.cpp  ****         if(threshold > PWM_LEVELS) threshold = PWM_LEVELS;
 1312              		.loc 6 789 18 view .LVU427
 1313 0698 FCEEE77A 		vcvt.u32.f32	s15, s15
 1314 069c 17EE901A 		vmov	r1, s15	@ int
 1315              	.LVL101:
 790:src/main.cpp  ****         if(++pwm_counter >= PWM_LEVELS) pwm_counter = 0;
 1316              		.loc 6 790 9 is_stmt 1 view .LVU428
 1317 06a0 F029     		cmp	r1, #240
 1318 06a2 28BF     		it	cs
 1319 06a4 F021     		movcs	r1, #240
 1320              	.LVL102:
 1321              		.loc 6 791 9 view .LVU429
 1322 06a6 EF28     		cmp	r0, #239
 1323              		.loc 6 791 41 view .LVU430
 792:src/main.cpp  ****         bool desired = (pwm_counter < threshold);
 1324              		.loc 6 792 9 view .LVU431
 791:src/main.cpp  ****         bool desired = (pwm_counter < threshold);
 1325              		.loc 6 791 53 is_stmt 0 view .LVU432
 1326 06a8 84BF     		itt	hi
 1327 06aa 0020     		movhi	r0, #0
 1328 06ac A64E     		ldrhi	r6, .L197
 1329              		.loc 6 792 14 view .LVU433
 1330 06ae 8142     		cmp	r1, r0
 791:src/main.cpp  ****         bool desired = (pwm_counter < threshold);
 1331              		.loc 6 791 53 view .LVU434
ARM GAS  /tmp/claude-502/ccZj3JyB.s 			page 51


 1332 06b0 3060     		str	r0, [r6]
 793:src/main.cpp  ****         if(desired != led3_state){ led3.Write(desired); led3_state = desired; }
 1333              		.loc 6 793 9 view .LVU435
 1334 06b2 AD4E     		ldr	r6, .L197+32
 792:src/main.cpp  ****         bool desired = (pwm_counter < threshold);
 1335              		.loc 6 792 14 view .LVU436
 1336 06b4 94BF     		ite	ls
 1337 06b6 0021     		movls	r1, #0
 1338              	.LVL103:
 792:src/main.cpp  ****         bool desired = (pwm_counter < threshold);
 1339              		.loc 6 792 14 view .LVU437
 1340 06b8 0121     		movhi	r1, #1
 1341              	.LVL104:
 1342              		.loc 6 793 9 is_stmt 1 view .LVU438
 1343 06ba 3078     		ldrb	r0, [r6]	@ zero_extendqisi2
 1344 06bc 8842     		cmp	r0, r1
 1345 06be 07D0     		beq	.L104
 1346              		.loc 6 793 36 discriminator 1 view .LVU439
 1347              		.loc 6 793 46 is_stmt 0 discriminator 1 view .LVU440
 1348 06c0 AA48     		ldr	r0, .L197+36
 1349 06c2 1791     		str	r1, [sp, #92]
 1350 06c4 FFF7FEFF 		bl	_ZN5daisy4GPIO5WriteEb
 1351              	.LVL105:
 1352              		.loc 6 793 57 is_stmt 1 discriminator 1 view .LVU441
 1353              		.loc 6 793 68 is_stmt 0 discriminator 1 view .LVU442
 1354 06c8 1799     		ldr	r1, [sp, #92]
 1355 06ca A94B     		ldr	r3, .L197+40
 1356 06cc A94A     		ldr	r2, .L197+44
 1357 06ce 3170     		strb	r1, [r6]
 1358              	.LVL106:
 1359              	.L104:
 1360              		.loc 6 793 68 discriminator 1 view .LVU443
 1361              	.LBE471:
 673:src/main.cpp  ****     {
 1362              		.loc 6 673 5 is_stmt 1 discriminator 2 view .LVU444
 1363 06d0 0135     		adds	r5, r5, #1
 1364              	.LVL107:
 673:src/main.cpp  ****     {
 1365              		.loc 6 673 21 discriminator 2 view .LVU445
 1366 06d2 0499     		ldr	r1, [sp, #16]
 1367 06d4 A942     		cmp	r1, r5
 1368 06d6 00F02784 		beq	.L3
 1369              	.LVL108:
 1370              	.L106:
 1371              	.LBB783:
 676:src/main.cpp  ****         // Cutoff: fast when opening (smoothed), slow when closing (with release)
 1372              		.loc 6 676 9 view .LVU446
 676:src/main.cpp  ****         // Cutoff: fast when opening (smoothed), slow when closing (with release)
 1373              		.loc 6 676 30 is_stmt 0 view .LVU447
 1374 06da 1099     		ldr	r1, [sp, #64]
 676:src/main.cpp  ****         // Cutoff: fast when opening (smoothed), slow when closing (with release)
 1375              		.loc 6 676 54 view .LVU448
 1376 06dc F7EE005A 		vmov.f32	s11, #1.0e+0
 676:src/main.cpp  ****         // Cutoff: fast when opening (smoothed), slow when closing (with release)
 1377              		.loc 6 676 48 view .LVU449
 1378 06e0 9DED056A 		vldr.32	s12, [sp, #20]
 676:src/main.cpp  ****         // Cutoff: fast when opening (smoothed), slow when closing (with release)
ARM GAS  /tmp/claude-502/ccZj3JyB.s 			page 52


 1379              		.loc 6 676 30 view .LVU450
 1380 06e4 D1ED007A 		vldr.32	s15, [r1]
 1381              	.LBB584:
 678:src/main.cpp  ****           s_cutoff = s_cutoff * sc + tcut * (1.0f - sc); }
 1382              		.loc 6 678 28 view .LVU451
 1383 06e8 A349     		ldr	r1, .L197+48
 1384              	.LBE584:
 676:src/main.cpp  ****         // Cutoff: fast when opening (smoothed), slow when closing (with release)
 1385              		.loc 6 676 54 view .LVU452
 1386 06ea 75EEE76A 		vsub.f32	s13, s11, s15
 676:src/main.cpp  ****         // Cutoff: fast when opening (smoothed), slow when closing (with release)
 1387              		.loc 6 676 41 view .LVU453
 1388 06ee 92ED007A 		vldr.32	s14, [r2]
 1389              	.LBB585:
 678:src/main.cpp  ****           s_cutoff = s_cutoff * sc + tcut * (1.0f - sc); }
 1390              		.loc 6 678 28 view .LVU454
 1391 06f2 D1ED004A 		vldr.32	s9, [r1]
 1392              	.LBE585:
 676:src/main.cpp  ****         // Cutoff: fast when opening (smoothed), slow when closing (with release)
 1393              		.loc 6 676 48 view .LVU455
 1394 06f6 66EE866A 		vmul.f32	s13, s13, s12
 1395              	.LBB586:
 678:src/main.cpp  ****           s_cutoff = s_cutoff * sc + tcut * (1.0f - sc); }
 1396              		.loc 6 678 40 view .LVU456
 1397 06fa F4EECB4A 		vcmpe.f32	s9, s22
 1398              	.LBE586:
 676:src/main.cpp  ****         // Cutoff: fast when opening (smoothed), slow when closing (with release)
 1399              		.loc 6 676 41 view .LVU457
 1400 06fe E7EE276A 		vfma.f32	s13, s14, s15
 1401              	.LBB587:
 678:src/main.cpp  ****           s_cutoff = s_cutoff * sc + tcut * (1.0f - sc); }
 1402              		.loc 6 678 40 view .LVU458
 1403 0702 F1EE10FA 		vmrs	APSR_nzcv, FPSCR
 1404              	.LBE587:
 676:src/main.cpp  ****         // Cutoff: fast when opening (smoothed), slow when closing (with release)
 1405              		.loc 6 676 19 view .LVU459
 1406 0706 C2ED006A 		vstr.32	s13, [r2]
 678:src/main.cpp  ****           s_cutoff = s_cutoff * sc + tcut * (1.0f - sc); }
 1407              		.loc 6 678 9 is_stmt 1 view .LVU460
 1408              	.LBB588:
 678:src/main.cpp  ****           s_cutoff = s_cutoff * sc + tcut * (1.0f - sc); }
 1409              		.loc 6 678 11 view .LVU461
 678:src/main.cpp  ****           s_cutoff = s_cutoff * sc + tcut * (1.0f - sc); }
 1410              		.loc 6 678 40 is_stmt 0 view .LVU462
 1411 070a 00F14382 		bmi	.L111
 678:src/main.cpp  ****           s_cutoff = s_cutoff * sc + tcut * (1.0f - sc); }
 1412              		.loc 6 678 40 discriminator 2 view .LVU463
 1413 070e 9B49     		ldr	r1, .L197+52
 1414 0710 D1ED003A 		vldr.32	s7, [r1]
 679:src/main.cpp  ****         s_drive   = s_drive   * SLEW_MISC + tdrv * (1.0f - SLEW_MISC);
 1415              		.loc 6 679 51 discriminator 2 view .LVU464
 1416 0714 75EEE35A 		vsub.f32	s11, s11, s7
 1417              	.L12:
 1418              	.LVL109:
 679:src/main.cpp  ****         s_drive   = s_drive   * SLEW_MISC + tdrv * (1.0f - SLEW_MISC);
 1419              		.loc 6 679 11 is_stmt 1 discriminator 4 view .LVU465
 679:src/main.cpp  ****         s_drive   = s_drive   * SLEW_MISC + tdrv * (1.0f - SLEW_MISC);
ARM GAS  /tmp/claude-502/ccZj3JyB.s 			page 53


 1420              		.loc 6 679 43 is_stmt 0 discriminator 4 view .LVU466
 1421 0718 6BEE255A 		vmul.f32	s11, s22, s11
 1422              	.LBE588:
 1423              	.LBB589:
 683:src/main.cpp  ****           s_detune   = s_detune   * sa + tdet * (1.0f - sa); }
 1424              		.loc 6 683 31 discriminator 4 view .LVU467
 1425 071c 9849     		ldr	r1, .L197+56
 1426              	.LBE589:
 1427              	.LBB590:
 679:src/main.cpp  ****         s_drive   = s_drive   * SLEW_MISC + tdrv * (1.0f - SLEW_MISC);
 1428              		.loc 6 679 20 discriminator 4 view .LVU468
 1429 071e 9648     		ldr	r0, .L197+48
 1430              	.LBE590:
 1431              	.LBB591:
 683:src/main.cpp  ****           s_detune   = s_detune   * sa + tdet * (1.0f - sa); }
 1432              		.loc 6 683 31 discriminator 4 view .LVU469
 1433 0720 91ED003A 		vldr.32	s6, [r1]
 1434              	.LBE591:
 1435              	.LBB592:
 679:src/main.cpp  ****         s_drive   = s_drive   * SLEW_MISC + tdrv * (1.0f - SLEW_MISC);
 1436              		.loc 6 679 36 discriminator 4 view .LVU470
 1437 0724 E4EEA35A 		vfma.f32	s11, s9, s7
 1438              	.LBE592:
 1439              	.LBB593:
 683:src/main.cpp  ****           s_detune   = s_detune   * sa + tdet * (1.0f - sa); }
 1440              		.loc 6 683 44 discriminator 4 view .LVU471
 1441 0728 9FED965A 		vldr.32	s10, .L197+60
 1442 072c B4EEEB3A 		vcmpe.f32	s6, s23
 1443 0730 9FED956A 		vldr.32	s12, .L197+64
 1444              	.LBE593:
 680:src/main.cpp  ****         s_vibdepth= s_vibdepth* SLEW_MISC + tvib * (1.0f - SLEW_MISC);
 1445              		.loc 6 680 43 discriminator 4 view .LVU472
 1446 0734 93ED004A 		vldr.32	s8, [r3]
 1447 0738 DFED944A 		vldr.32	s9, .L197+68
 1448              	.LBB594:
 683:src/main.cpp  ****           s_detune   = s_detune   * sa + tdet * (1.0f - sa); }
 1449              		.loc 6 683 44 discriminator 4 view .LVU473
 1450 073c F1EE10FA 		vmrs	APSR_nzcv, FPSCR
 1451              	.LBE594:
 1452              	.LBB595:
 687:src/main.cpp  ****           s_ringmod  = s_ringmod  * sa + trm  * (1.0f - sa); }
 1453              		.loc 6 687 31 discriminator 4 view .LVU474
 1454 0740 934E     		ldr	r6, .L197+72
 1455              	.LBE595:
 680:src/main.cpp  ****         s_vibdepth= s_vibdepth* SLEW_MISC + tvib * (1.0f - SLEW_MISC);
 1456              		.loc 6 680 43 discriminator 4 view .LVU475
 1457 0742 DDED07AA 		vldr.32	s21, [sp, #28]
 1458              	.LBB596:
 679:src/main.cpp  ****         s_drive   = s_drive   * SLEW_MISC + tdrv * (1.0f - SLEW_MISC);
 1459              		.loc 6 679 20 discriminator 4 view .LVU476
 1460 0746 C0ED005A 		vstr.32	s11, [r0]
 1461              	.LBE596:
 680:src/main.cpp  ****         s_vibdepth= s_vibdepth* SLEW_MISC + tvib * (1.0f - SLEW_MISC);
 1462              		.loc 6 680 9 is_stmt 1 discriminator 4 view .LVU477
 1463              	.LBB597:
 685:src/main.cpp  ****           s_bitcrush = s_bitcrush * sa + tbc  * (1.0f - sa); }
 1464              		.loc 6 685 31 is_stmt 0 discriminator 4 view .LVU478
ARM GAS  /tmp/claude-502/ccZj3JyB.s 			page 54


 1465 074a 9248     		ldr	r0, .L197+76
 1466              	.LBE597:
 1467              	.LBB598:
 683:src/main.cpp  ****           s_detune   = s_detune   * sa + tdet * (1.0f - sa); }
 1468              		.loc 6 683 44 discriminator 4 view .LVU479
 1469 074c 54BF     		ite	pl
 1470 074e F0EE462A 		vmovpl.f32	s5, s12
 1471 0752 F0EE452A 		vmovmi.f32	s5, s10
 1472 0756 9FED907A 		vldr.32	s14, .L197+80
 1473              	.LBE598:
 680:src/main.cpp  ****         s_vibdepth= s_vibdepth* SLEW_MISC + tvib * (1.0f - SLEW_MISC);
 1474              		.loc 6 680 43 discriminator 4 view .LVU480
 1475 075a E4EE24AA 		vfma.f32	s21, s8, s9
 1476              	.LBB599:
 685:src/main.cpp  ****           s_bitcrush = s_bitcrush * sa + tbc  * (1.0f - sa); }
 1477              		.loc 6 685 31 discriminator 4 view .LVU481
 1478 075e D0ED003A 		vldr.32	s7, [r0]
 1479              	.LVL110:
 685:src/main.cpp  ****           s_bitcrush = s_bitcrush * sa + tbc  * (1.0f - sa); }
 1480              		.loc 6 685 31 discriminator 4 view .LVU482
 1481              	.LBE599:
 1482              	.LBB600:
 683:src/main.cpp  ****           s_detune   = s_detune   * sa + tdet * (1.0f - sa); }
 1483              		.loc 6 683 44 discriminator 4 view .LVU483
 1484 0762 DFED8E7A 		vldr.32	s15, .L197+84
 684:src/main.cpp  ****         { float sa = tbc      > s_bitcrush ? SLEW_F2_A : SLEW_F2_R;
 1485              		.loc 6 684 47 discriminator 4 view .LVU484
 1486 0766 6BEEA22A 		vmul.f32	s5, s23, s5
 1487              	.LBE600:
 1488              	.LBB601:
 685:src/main.cpp  ****           s_bitcrush = s_bitcrush * sa + tbc  * (1.0f - sa); }
 1489              		.loc 6 685 44 discriminator 4 view .LVU485
 1490 076a F4EECC3A 		vcmpe.f32	s7, s24
 1491              	.LBE601:
 1492              	.LBB602:
 687:src/main.cpp  ****           s_ringmod  = s_ringmod  * sa + trm  * (1.0f - sa); }
 1493              		.loc 6 687 31 discriminator 4 view .LVU486
 1494 076e 96ED004A 		vldr.32	s8, [r6]
 1495              	.LBE602:
 1496              	.LBB603:
 683:src/main.cpp  ****           s_detune   = s_detune   * sa + tdet * (1.0f - sa); }
 1497              		.loc 6 683 44 discriminator 4 view .LVU487
 1498 0772 54BF     		ite	pl
 1499 0774 B0EE672A 		vmovpl.f32	s4, s15
 1500 0778 B0EE472A 		vmovmi.f32	s4, s14
 1501              	.LBE603:
 693:src/main.cpp  **** 
 1502              		.loc 6 693 49 discriminator 4 view .LVU488
 1503 077c 9DED09AA 		vldr.32	s20, [sp, #36]
 1504              	.LBB604:
 685:src/main.cpp  ****           s_bitcrush = s_bitcrush * sa + tbc  * (1.0f - sa); }
 1505              		.loc 6 685 44 discriminator 4 view .LVU489
 1506 0780 F1EE10FA 		vmrs	APSR_nzcv, FPSCR
 1507              	.LBE604:
 680:src/main.cpp  ****         s_vibdepth= s_vibdepth* SLEW_MISC + tvib * (1.0f - SLEW_MISC);
 1508              		.loc 6 680 19 discriminator 4 view .LVU490
 1509 0784 C3ED00AA 		vstr.32	s21, [r3]
ARM GAS  /tmp/claude-502/ccZj3JyB.s 			page 55


 681:src/main.cpp  ****         // Finger 2 params: fast attack, slow release
 1510              		.loc 6 681 9 is_stmt 1 discriminator 4 view .LVU491
 1511              	.LBB605:
 687:src/main.cpp  ****           s_ringmod  = s_ringmod  * sa + trm  * (1.0f - sa); }
 1512              		.loc 6 687 44 is_stmt 0 discriminator 4 view .LVU492
 1513 0788 B4EEEC4A 		vcmpe.f32	s8, s25
 1514              	.LBE605:
 1515              	.LBB606:
 684:src/main.cpp  ****         { float sa = tbc      > s_bitcrush ? SLEW_F2_A : SLEW_F2_R;
 1516              		.loc 6 684 40 discriminator 4 view .LVU493
 1517 078c E3EE022A 		vfma.f32	s5, s6, s4
 1518              	.LBE606:
 1519              	.LBB607:
 685:src/main.cpp  ****           s_bitcrush = s_bitcrush * sa + tbc  * (1.0f - sa); }
 1520              		.loc 6 685 44 discriminator 4 view .LVU494
 1521 0790 54BF     		ite	pl
 1522 0792 B0EE672A 		vmovpl.f32	s4, s15
 1523 0796 B0EE472A 		vmovmi.f32	s4, s14
 1524 079a 54BF     		ite	pl
 1525 079c B0EE463A 		vmovpl.f32	s6, s12
 1526 07a0 B0EE453A 		vmovmi.f32	s6, s10
 1527              	.LBE607:
 1528              	.LBB608:
 687:src/main.cpp  ****           s_ringmod  = s_ringmod  * sa + trm  * (1.0f - sa); }
 1529              		.loc 6 687 44 discriminator 4 view .LVU495
 1530 07a4 F1EE10FA 		vmrs	APSR_nzcv, FPSCR
 1531              	.LBE608:
 1532              	.LBB609:
 686:src/main.cpp  ****         { float sa = trm      > s_ringmod  ? SLEW_F2_A : SLEW_F2_R;
 1533              		.loc 6 686 47 discriminator 4 view .LVU496
 1534 07a8 2CEE033A 		vmul.f32	s6, s24, s6
 1535              	.LBE609:
 1536              	.LBB610:
 687:src/main.cpp  ****           s_ringmod  = s_ringmod  * sa + trm  * (1.0f - sa); }
 1537              		.loc 6 687 44 discriminator 4 view .LVU497
 1538 07ac 48BF     		it	mi
 1539 07ae B0EE456A 		vmovmi.f32	s12, s10
 1540              	.LBE610:
 1541              	.LBB611:
 684:src/main.cpp  ****         { float sa = tbc      > s_bitcrush ? SLEW_F2_A : SLEW_F2_R;
 1542              		.loc 6 684 22 discriminator 4 view .LVU498
 1543 07b2 C1ED002A 		vstr.32	s5, [r1]
 1544              	.LBE611:
 1545              	.LBB612:
 687:src/main.cpp  ****           s_ringmod  = s_ringmod  * sa + trm  * (1.0f - sa); }
 1546              		.loc 6 687 44 discriminator 4 view .LVU499
 1547 07b6 48BF     		it	mi
 1548 07b8 F0EE477A 		vmovmi.f32	s15, s14
 1549              	.LBE612:
 690:src/main.cpp  ****         s_amp = s_amp * slew_amp + tamp * (1.0f - slew_amp);
 1550              		.loc 6 690 32 discriminator 4 view .LVU500
 1551 07bc 7849     		ldr	r1, .L197+88
 681:src/main.cpp  ****         // Finger 2 params: fast attack, slow release
 1552              		.loc 6 681 43 discriminator 4 view .LVU501
 1553 07be 9BED007A 		vldr.32	s14, [fp]
 1554              	.LBB613:
 686:src/main.cpp  ****         { float sa = trm      > s_ringmod  ? SLEW_F2_A : SLEW_F2_R;
ARM GAS  /tmp/claude-502/ccZj3JyB.s 			page 56


 1555              		.loc 6 686 40 discriminator 4 view .LVU502
 1556 07c2 A3EE823A 		vfma.f32	s6, s7, s4
 1557              	.LBE613:
 1558              	.LBB614:
 688:src/main.cpp  ****         // Asymmetric envelope: per-voice attack (rising) and release (falling)
 1559              		.loc 6 688 47 discriminator 4 view .LVU503
 1560 07c6 2CEE866A 		vmul.f32	s12, s25, s12
 1561              	.LBE614:
 681:src/main.cpp  ****         // Finger 2 params: fast attack, slow release
 1562              		.loc 6 681 43 discriminator 4 view .LVU504
 1563 07ca 9DED082A 		vldr.32	s4, [sp, #32]
 1564 07ce A7EE242A 		vfma.f32	s4, s14, s9
 1565              	.LBB615:
 688:src/main.cpp  ****         // Asymmetric envelope: per-voice attack (rising) and release (falling)
 1566              		.loc 6 688 40 discriminator 4 view .LVU505
 1567 07d2 A4EE276A 		vfma.f32	s12, s8, s15
 1568              	.LBE615:
 690:src/main.cpp  ****         s_amp = s_amp * slew_amp + tamp * (1.0f - slew_amp);
 1569              		.loc 6 690 32 discriminator 4 view .LVU506
 1570 07d6 D1ED007A 		vldr.32	s15, [r1]
 691:src/main.cpp  ****         // Master volume slew (smooths FSR jitter / 16 Hz update steps).
 1571              		.loc 6 691 49 discriminator 4 view .LVU507
 1572 07da B7EE007A 		vmov.f32	s14, #1.0e+0
 690:src/main.cpp  ****         s_amp = s_amp * slew_amp + tamp * (1.0f - slew_amp);
 1573              		.loc 6 690 41 discriminator 4 view .LVU508
 1574 07de F4EEE97A 		vcmpe.f32	s15, s19
 1575              	.LBB616:
 686:src/main.cpp  ****         { float sa = trm      > s_ringmod  ? SLEW_F2_A : SLEW_F2_R;
 1576              		.loc 6 686 22 discriminator 4 view .LVU509
 1577 07e2 80ED003A 		vstr.32	s6, [r0]
 1578              	.LBE616:
 691:src/main.cpp  ****         // Master volume slew (smooths FSR jitter / 16 Hz update steps).
 1579              		.loc 6 691 15 discriminator 4 view .LVU510
 1580 07e6 6E48     		ldr	r0, .L197+88
 690:src/main.cpp  ****         s_amp = s_amp * slew_amp + tamp * (1.0f - slew_amp);
 1581              		.loc 6 690 41 discriminator 4 view .LVU511
 1582 07e8 F1EE10FA 		vmrs	APSR_nzcv, FPSCR
 681:src/main.cpp  ****         // Finger 2 params: fast attack, slow release
 1583              		.loc 6 681 19 discriminator 4 view .LVU512
 1584 07ec 8BED002A 		vstr.32	s4, [fp]
 683:src/main.cpp  ****           s_detune   = s_detune   * sa + tdet * (1.0f - sa); }
 1585              		.loc 6 683 9 is_stmt 1 discriminator 4 view .LVU513
 1586              	.LBB617:
 683:src/main.cpp  ****           s_detune   = s_detune   * sa + tdet * (1.0f - sa); }
 1587              		.loc 6 683 11 discriminator 4 view .LVU514
 684:src/main.cpp  ****         { float sa = tbc      > s_bitcrush ? SLEW_F2_A : SLEW_F2_R;
 1588              		.loc 6 684 11 discriminator 4 view .LVU515
 1589              	.LBE617:
 685:src/main.cpp  ****           s_bitcrush = s_bitcrush * sa + tbc  * (1.0f - sa); }
 1590              		.loc 6 685 9 discriminator 4 view .LVU516
 1591              	.LBB618:
 685:src/main.cpp  ****           s_bitcrush = s_bitcrush * sa + tbc  * (1.0f - sa); }
 1592              		.loc 6 685 11 discriminator 4 view .LVU517
 1593              	.LVL111:
 686:src/main.cpp  ****         { float sa = trm      > s_ringmod  ? SLEW_F2_A : SLEW_F2_R;
 1594              		.loc 6 686 11 discriminator 4 view .LVU518
 1595              	.LBE618:
ARM GAS  /tmp/claude-502/ccZj3JyB.s 			page 57


 687:src/main.cpp  ****           s_ringmod  = s_ringmod  * sa + trm  * (1.0f - sa); }
 1596              		.loc 6 687 9 discriminator 4 view .LVU519
 1597              	.LBB619:
 687:src/main.cpp  ****           s_ringmod  = s_ringmod  * sa + trm  * (1.0f - sa); }
 1598              		.loc 6 687 11 discriminator 4 view .LVU520
 688:src/main.cpp  ****         // Asymmetric envelope: per-voice attack (rising) and release (falling)
 1599              		.loc 6 688 11 discriminator 4 view .LVU521
 1600              	.LBE619:
 690:src/main.cpp  ****         s_amp = s_amp * slew_amp + tamp * (1.0f - slew_amp);
 1601              		.loc 6 690 9 discriminator 4 view .LVU522
 1602              	.LBB620:
 688:src/main.cpp  ****         // Asymmetric envelope: per-voice attack (rising) and release (falling)
 1603              		.loc 6 688 22 is_stmt 0 discriminator 4 view .LVU523
 1604 07f0 86ED006A 		vstr.32	s12, [r6]
 1605              	.LBE620:
 690:src/main.cpp  ****         s_amp = s_amp * slew_amp + tamp * (1.0f - slew_amp);
 1606              		.loc 6 690 41 discriminator 4 view .LVU524
 1607 07f4 4CBF     		ite	mi
 1608 07f6 6B49     		ldrmi	r1, .L197+92
 1609 07f8 6049     		ldrpl	r1, .L197+52
 1610 07fa 91ED005A 		vldr.32	s10, [r1]
 1611              	.LVL112:
 691:src/main.cpp  ****         // Master volume slew (smooths FSR jitter / 16 Hz update steps).
 1612              		.loc 6 691 9 is_stmt 1 discriminator 4 view .LVU525
 693:src/main.cpp  **** 
 1613              		.loc 6 693 49 is_stmt 0 discriminator 4 view .LVU526
 1614 07fe 6A49     		ldr	r1, .L197+96
 691:src/main.cpp  ****         // Master volume slew (smooths FSR jitter / 16 Hz update steps).
 1615              		.loc 6 691 49 discriminator 4 view .LVU527
 1616 0800 37EE457A 		vsub.f32	s14, s14, s10
 691:src/main.cpp  ****         // Master volume slew (smooths FSR jitter / 16 Hz update steps).
 1617              		.loc 6 691 41 discriminator 4 view .LVU528
 1618 0804 27EE297A 		vmul.f32	s14, s14, s19
 691:src/main.cpp  ****         // Master volume slew (smooths FSR jitter / 16 Hz update steps).
 1619              		.loc 6 691 34 discriminator 4 view .LVU529
 1620 0808 A7EE857A 		vfma.f32	s14, s15, s10
 693:src/main.cpp  **** 
 1621              		.loc 6 693 49 discriminator 4 view .LVU530
 1622 080c 91ED005A 		vldr.32	s10, [r1]
 1623              	.LVL113:
 693:src/main.cpp  **** 
 1624              		.loc 6 693 49 discriminator 4 view .LVU531
 1625 0810 DFED5E7A 		vldr.32	s15, .L197+68
 1626 0814 A5EE27AA 		vfma.f32	s20, s10, s15
 697:src/main.cpp  ****             s_flt[0] *= 0.999f;
 1627              		.loc 6 697 9 discriminator 4 view .LVU532
 1628 0818 DFED647A 		vldr.32	s15, .L197+100
 1629 081c B4EEE77A 		vcmpe.f32	s14, s15
 691:src/main.cpp  ****         // Master volume slew (smooths FSR jitter / 16 Hz update steps).
 1630              		.loc 6 691 15 discriminator 4 view .LVU533
 1631 0820 80ED007A 		vstr.32	s14, [r0]
 1632              	.LVL114:
 693:src/main.cpp  **** 
 1633              		.loc 6 693 9 is_stmt 1 discriminator 4 view .LVU534
 697:src/main.cpp  ****             s_flt[0] *= 0.999f;
 1634              		.loc 6 697 9 is_stmt 0 discriminator 4 view .LVU535
 1635 0824 F1EE10FA 		vmrs	APSR_nzcv, FPSCR
ARM GAS  /tmp/claude-502/ccZj3JyB.s 			page 58


 693:src/main.cpp  **** 
 1636              		.loc 6 693 22 discriminator 4 view .LVU536
 1637 0828 81ED00AA 		vstr.32	s20, [r1]
 697:src/main.cpp  ****             s_flt[0] *= 0.999f;
 1638              		.loc 6 697 9 is_stmt 1 discriminator 4 view .LVU537
 1639 082c 00F19F81 		bmi	.L19
 1640              	.LBB621:
 1641              	.LBB557:
 598:src/main.cpp  ****     float x  = in - fb;
 1642              		.loc 6 598 25 is_stmt 0 view .LVU538
 1643 0830 94ED035A 		vldr.32	s10, [r4, #12]
 600:src/main.cpp  ****     s_flt[1]+=f*(fast_tanh(s_flt[0])-fast_tanh(s_flt[1]));
 1644              		.loc 6 600 46 view .LVU539
 1645 0834 D4ED003A 		vldr.32	s7, [r4]
 1646              	.LVL115:
 601:src/main.cpp  ****     s_flt[2]+=f*(fast_tanh(s_flt[1])-fast_tanh(s_flt[2]));
 1647              		.loc 6 601 47 view .LVU540
 1648 0838 94ED014A 		vldr.32	s8, [r4, #4]
 602:src/main.cpp  ****     s_flt[3]+=f*(fast_tanh(s_flt[2])-fast_tanh(s_flt[3]));
 1649              		.loc 6 602 47 view .LVU541
 1650 083c D4ED024A 		vldr.32	s9, [r4, #8]
 1651              	.L20:
 1652              	.LBE557:
 1653              	.LBE621:
 706:src/main.cpp  ****             // Pull cutoff toward silence-floor proportional to amp decay
 1654              		.loc 6 706 9 is_stmt 1 view .LVU542
 1655              	.LBB622:
 1656 0840 DFED5A7A 		vldr.32	s15, .L197+100
 1657 0844 F4EEE79A 		vcmpe.f32	s19, s15
 1658 0848 F1EE10FA 		vmrs	APSR_nzcv, FPSCR
 1659 084c 0CD5     		bpl	.L21
 706:src/main.cpp  ****             // Pull cutoff toward silence-floor proportional to amp decay
 1660              		.loc 6 706 26 is_stmt 0 discriminator 1 view .LVU543
 1661 084e DFED587A 		vldr.32	s15, .L197+104
 1662 0852 B4EEE77A 		vcmpe.f32	s14, s15
 1663 0856 F1EE10FA 		vmrs	APSR_nzcv, FPSCR
 1664 085a 05DD     		ble	.L21
 1665              	.LBB623:
 708:src/main.cpp  ****             tcut = close_target;
 1666              		.loc 6 708 13 is_stmt 1 view .LVU544
 708:src/main.cpp  ****             tcut = close_target;
 1667              		.loc 6 708 19 is_stmt 0 view .LVU545
 1668 085c F3EE0E7A 		vmov.f32	s15, #3.0e+1
 1669 0860 E7EE0B7A 		vfma.f32	s15, s14, s22
 1670 0864 B0EE67BA 		vmov.f32	s22, s15
 1671              	.LVL116:
 709:src/main.cpp  ****         }
 1672              		.loc 6 709 13 is_stmt 1 view .LVU546
 1673              	.L21:
 709:src/main.cpp  ****         }
 1674              		.loc 6 709 13 is_stmt 0 view .LVU547
 1675              	.LBE623:
 1676              	.LBE622:
 713:src/main.cpp  ****         if(s_lfo_phase>=1.0f)s_lfo_phase-=1.0f;
 1677              		.loc 6 713 9 is_stmt 1 view .LVU548
 713:src/main.cpp  ****         if(s_lfo_phase>=1.0f)s_lfo_phase-=1.0f;
 1678              		.loc 6 713 21 is_stmt 0 view .LVU549
ARM GAS  /tmp/claude-502/ccZj3JyB.s 			page 59


 1679 0868 5249     		ldr	r1, .L197+108
 1680              	.LBB624:
 1681              	.LBB625:
 566:src/main.cpp  **** }
 1682              		.loc 6 566 19 view .LVU550
 1683 086a B1EE001A 		vmov.f32	s2, #4.0e+0
 1684              	.LBE625:
 1685              	.LBE624:
 713:src/main.cpp  ****         if(s_lfo_phase>=1.0f)s_lfo_phase-=1.0f;
 1686              		.loc 6 713 21 view .LVU551
 1687 086e DDED0A1A 		vldr.32	s3, [sp, #40]
 1688 0872 D1ED007A 		vldr.32	s15, [r1]
 1689 0876 71EEA77A 		vadd.f32	s15, s3, s15
 714:src/main.cpp  ****         float lfo = tri(s_lfo_phase); // -1..1
 1690              		.loc 6 714 9 is_stmt 1 view .LVU552
 1691 087a F7EE001A 		vmov.f32	s3, #1.0e+0
 1692 087e F4EEE17A 		vcmpe.f32	s15, s3
 1693 0882 F1EE10FA 		vmrs	APSR_nzcv, FPSCR
 714:src/main.cpp  ****         float lfo = tri(s_lfo_phase); // -1..1
 1694              		.loc 6 714 30 view .LVU553
 714:src/main.cpp  ****         float lfo = tri(s_lfo_phase); // -1..1
 1695              		.loc 6 714 41 is_stmt 0 view .LVU554
 1696 0886 A4BF     		itt	ge
 1697 0888 77EEE17A 		vsubge.f32	s15, s15, s3
 1698 088c 4949     		ldrge	r1, .L197+108
 1699              	.LBB629:
 1700              	.LBB626:
 566:src/main.cpp  **** }
 1701              		.loc 6 566 19 view .LVU555
 1702 088e F6EE001A 		vmov.f32	s3, #5.0e-1
 1703              	.LBE626:
 1704              	.LBE629:
 714:src/main.cpp  ****         float lfo = tri(s_lfo_phase); // -1..1
 1705              		.loc 6 714 41 view .LVU556
 1706 0892 C1ED007A 		vstr.32	s15, [r1]
 715:src/main.cpp  **** 
 1707              		.loc 6 715 9 is_stmt 1 view .LVU557
 1708              	.LVL117:
 1709              	.LBB630:
 1710              	.LBI624:
 565:src/main.cpp  ****     return ph<0.5f?(4.0f*ph-1.0f):(3.0f-4.0f*ph);
 1711              		.loc 6 565 21 view .LVU558
 1712              	.LBB627:
 566:src/main.cpp  **** }
 1713              		.loc 6 566 5 view .LVU559
 566:src/main.cpp  **** }
 1714              		.loc 6 566 19 is_stmt 0 view .LVU560
 1715 0896 F4EEE17A 		vcmpe.f32	s15, s3
 1716 089a F1EE10FA 		vmrs	APSR_nzcv, FPSCR
 1717 089e 40F16181 		bpl	.L166
 566:src/main.cpp  **** }
 1718              		.loc 6 566 19 view .LVU561
 1719 08a2 FFEE001A 		vmov.f32	s3, #-1.0e+0
 1720 08a6 E7EE811A 		vfma.f32	s3, s15, s2
 1721              	.L28:
 1722              	.LVL118:
 566:src/main.cpp  **** }
ARM GAS  /tmp/claude-502/ccZj3JyB.s 			page 60


 1723              		.loc 6 566 19 view .LVU562
 1724              	.LBE627:
 1725              	.LBE630:
 719:src/main.cpp  ****         float freq_vib = s_freq * (1.0f + vib_amt);
 1726              		.loc 6 719 9 is_stmt 1 view .LVU563
 720:src/main.cpp  **** 
 1727              		.loc 6 720 9 view .LVU564
 720:src/main.cpp  **** 
 1728              		.loc 6 720 41 is_stmt 0 view .LVU565
 1729 08aa B7EE001A 		vmov.f32	s2, #1.0e+0
 1730              	.LBB631:
 726:src/main.cpp  ****             float det_ratio = 1.0f + s_detune * 0.05776f; // linear approx, good for ┬▒1 oct
 1731              		.loc 6 726 9 view .LVU566
 1732 08ae 0B99     		ldr	r1, [sp, #44]
 1733              	.LBE631:
 719:src/main.cpp  ****         float freq_vib = s_freq * (1.0f + vib_amt);
 1734              		.loc 6 719 29 view .LVU567
 1735 08b0 22EE212A 		vmul.f32	s4, s4, s3
 1736              	.LVL119:
 720:src/main.cpp  **** 
 1737              		.loc 6 720 41 view .LVU568
 1738 08b4 DFED401A 		vldr.32	s3, .L197+112
 1739              	.LVL120:
 720:src/main.cpp  **** 
 1740              		.loc 6 720 41 view .LVU569
 1741 08b8 F0EE417A 		vmov.f32	s15, s2
 1742 08bc E2EE217A 		vfma.f32	s15, s4, s3
 720:src/main.cpp  **** 
 1743              		.loc 6 720 15 view .LVU570
 1744 08c0 66EEA76A 		vmul.f32	s13, s13, s15
 1745              	.LVL121:
 725:src/main.cpp  ****         if(VOICE.osc2_detune) {
 1746              		.loc 6 725 9 is_stmt 1 view .LVU571
 726:src/main.cpp  ****             float det_ratio = 1.0f + s_detune * 0.05776f; // linear approx, good for ┬▒1 oct
 1747              		.loc 6 726 9 view .LVU572
 1748              	.LBB632:
 1749 08c4 0029     		cmp	r1, #0
 1750 08c6 00F04281 		beq	.L29
 1751              	.LBB473:
 727:src/main.cpp  ****             freq2 = freq_vib * VOICE.osc2_ratio * det_ratio;
 1752              		.loc 6 727 13 view .LVU573
 728:src/main.cpp  ****         } else {
 1753              		.loc 6 728 38 is_stmt 0 view .LVU574
 1754 08ca 0198     		ldr	r0, [sp, #4]
 1755 08cc 0399     		ldr	r1, [sp, #12]
 727:src/main.cpp  ****             freq2 = freq_vib * VOICE.osc2_ratio * det_ratio;
 1756              		.loc 6 727 19 view .LVU575
 1757 08ce 9FED3B2A 		vldr.32	s4, .L197+116
 728:src/main.cpp  ****         } else {
 1758              		.loc 6 728 38 view .LVU576
 1759 08d2 091A     		subs	r1, r1, r0
 1760 08d4 0298     		ldr	r0, [sp, #8]
 727:src/main.cpp  ****             freq2 = freq_vib * VOICE.osc2_ratio * det_ratio;
 1761              		.loc 6 727 19 view .LVU577
 1762 08d6 A2EE821A 		vfma.f32	s2, s5, s4
 1763              	.LVL122:
 728:src/main.cpp  ****         } else {
ARM GAS  /tmp/claude-502/ccZj3JyB.s 			page 61


 1764              		.loc 6 728 13 is_stmt 1 view .LVU578
 728:src/main.cpp  ****         } else {
 1765              		.loc 6 728 38 is_stmt 0 view .LVU579
 1766 08da 00EB0111 		add	r1, r0, r1, lsl #4
 728:src/main.cpp  ****         } else {
 1767              		.loc 6 728 30 view .LVU580
 1768 08de D1ED077A 		vldr.32	s15, [r1, #28]
 1769 08e2 66EEA77A 		vmul.f32	s15, s13, s15
 728:src/main.cpp  ****         } else {
 1770              		.loc 6 728 19 view .LVU581
 1771 08e6 27EE811A 		vmul.f32	s2, s15, s2
 1772              	.LVL123:
 1773              	.L30:
 728:src/main.cpp  ****         } else {
 1774              		.loc 6 728 19 view .LVU582
 1775              	.LBE473:
 1776              	.LBE632:
 734:src/main.cpp  ****         float freq_oct = freq_vib * VOICE.oct_ratio;
 1777              		.loc 6 734 9 is_stmt 1 view .LVU583
 734:src/main.cpp  ****         float freq_oct = freq_vib * VOICE.oct_ratio;
 1778              		.loc 6 734 15 is_stmt 0 view .LVU584
 1779 08ea DDED0C7A 		vldr.32	s15, [sp, #48]
 1780              	.LBB633:
 1781              	.LBB634:
 583:src/main.cpp  ****         case WAVE_SINE:   return osc_sine(ph);
 1782              		.loc 6 583 5 view .LVU585
 1783 08ee B9F1020F 		cmp	r9, #2
 1784              	.LBE634:
 1785              	.LBE633:
 742:src/main.cpp  ****         float osc2    = osc(s_phase2,   VOICE.osc2_wave) * VOICE.osc2_level;
 1786              		.loc 6 742 28 view .LVU586
 1787 08f2 1749     		ldr	r1, .L197+8
 734:src/main.cpp  ****         float freq_oct = freq_vib * VOICE.oct_ratio;
 1788              		.loc 6 734 15 view .LVU587
 1789 08f4 26EEA7EA 		vmul.f32	s28, s13, s15
 1790              	.LVL124:
 735:src/main.cpp  **** 
 1791              		.loc 6 735 9 is_stmt 1 view .LVU588
 735:src/main.cpp  **** 
 1792              		.loc 6 735 15 is_stmt 0 view .LVU589
 1793 08f8 DDED0D7A 		vldr.32	s15, [sp, #52]
 742:src/main.cpp  ****         float osc2    = osc(s_phase2,   VOICE.osc2_wave) * VOICE.osc2_level;
 1794              		.loc 6 742 28 view .LVU590
 1795 08fc 91ED009A 		vldr.32	s18, [r1]
 735:src/main.cpp  **** 
 1796              		.loc 6 735 15 view .LVU591
 1797 0900 66EEA7DA 		vmul.f32	s27, s13, s15
 1798              	.LVL125:
 739:src/main.cpp  **** 
 1799              		.loc 6 739 9 is_stmt 1 view .LVU592
 739:src/main.cpp  **** 
 1800              		.loc 6 739 15 is_stmt 0 view .LVU593
 1801 0904 DDED0E7A 		vldr.32	s15, [sp, #56]
 1802 0908 26EEA7DA 		vmul.f32	s26, s13, s15
 1803              	.LVL126:
 742:src/main.cpp  ****         float osc2    = osc(s_phase2,   VOICE.osc2_wave) * VOICE.osc2_level;
 1804              		.loc 6 742 9 is_stmt 1 view .LVU594
ARM GAS  /tmp/claude-502/ccZj3JyB.s 			page 62


 1805              	.LBB655:
 1806              	.LBI633:
 582:src/main.cpp  ****     switch(w){
 1807              		.loc 6 582 21 view .LVU595
 1808              	.LBB648:
 583:src/main.cpp  ****         case WAVE_SINE:   return osc_sine(ph);
 1809              		.loc 6 583 5 view .LVU596
 1810 090c 00F03682 		beq	.L31
 583:src/main.cpp  ****         case WAVE_SINE:   return osc_sine(ph);
 1811              		.loc 6 583 5 is_stmt 0 view .LVU597
 1812 0910 B9F1030F 		cmp	r9, #3
 1813 0914 00F07282 		beq	.L32
 1814 0918 B9F1010F 		cmp	r9, #1
 1815 091c 00F03F82 		beq	.L187
 1816              	.LVL127:
 1817              	.LBB635:
 1818              	.LBI635:
 582:src/main.cpp  ****     switch(w){
 1819              		.loc 6 582 21 is_stmt 1 view .LVU598
 582:src/main.cpp  ****     switch(w){
 1820              		.loc 6 582 21 is_stmt 0 view .LVU599
 1821              	.LBE635:
 1822              	.LBE648:
 1823              	.LBE655:
 1824              	.LBE783:
 1825              	.LBE470:
 587:src/main.cpp  ****         default:          return tri(ph);
 1826              		.loc 6 587 9 is_stmt 1 view .LVU600
 588:src/main.cpp  ****     }
 1827              		.loc 6 588 9 view .LVU601
 588:src/main.cpp  ****     }
 1828              		.loc 6 588 27 view .LVU602
 1829              	.LBB788:
 1830              	.LBB784:
 1831              	.LBB656:
 1832              	.LBB649:
 1833              	.LBB640:
 1834              	.LBB636:
 1835              	.LBI636:
 565:src/main.cpp  ****     return ph<0.5f?(4.0f*ph-1.0f):(3.0f-4.0f*ph);
 1836              		.loc 6 565 21 view .LVU603
 1837              	.LBB637:
 566:src/main.cpp  **** }
 1838              		.loc 6 566 5 view .LVU604
 566:src/main.cpp  **** }
 1839              		.loc 6 566 19 is_stmt 0 view .LVU605
 1840 0920 F6EE007A 		vmov.f32	s15, #5.0e-1
 1841 0924 F1EE002A 		vmov.f32	s5, #4.0e+0
 1842 0928 B4EEE79A 		vcmpe.f32	s18, s15
 1843 092c F1EE10FA 		vmrs	APSR_nzcv, FPSCR
 1844 0930 40F1EB82 		bpl	.L168
 1845 0934 FFEE007A 		vmov.f32	s15, #-1.0e+0
 1846 0938 E9EE227A 		vfma.f32	s15, s18, s5
 1847              	.LBE637:
 1848              	.LBE636:
 1849              	.LBE640:
 1850              	.LBE649:
ARM GAS  /tmp/claude-502/ccZj3JyB.s 			page 63


 1851              	.LBE656:
 742:src/main.cpp  ****         float osc2    = osc(s_phase2,   VOICE.osc2_wave) * VOICE.osc2_level;
 1852              		.loc 6 742 66 view .LVU606
 1853 093c DDED132A 		vldr.32	s5, [sp, #76]
 1854 0940 67EEA27A 		vmul.f32	s15, s15, s5
 1855 0944 3CE0     		b	.L198
 1856              	.L199:
 1857 0946 00BF     		.align	2
 1858              	.L197:
 1859 0948 00000000 		.word	.LANCHOR35
 1860 094c 00007043 		.word	1131413504
 1861 0950 00000000 		.word	.LANCHOR28
 1862 0954 00000000 		.word	.LANCHOR29
 1863 0958 00000000 		.word	.LANCHOR30
 1864 095c 00000000 		.word	.LANCHOR31
 1865 0960 00000000 		.word	.LANCHOR33
 1866 0964 00000000 		.word	.LANCHOR34
 1867 0968 00000000 		.word	.LANCHOR36
 1868 096c 00000000 		.word	.LANCHOR37
 1869 0970 00000000 		.word	.LANCHOR19
 1870 0974 00000000 		.word	.LANCHOR17
 1871 0978 00000000 		.word	.LANCHOR18
 1872 097c 00000000 		.word	.LANCHOR16
 1873 0980 00000000 		.word	.LANCHOR21
 1874 0984 00D7A33C 		.word	1017370368
 1875 0988 0012833A 		.word	981668352
 1876 098c A4707D3F 		.word	1065185444
 1877 0990 00000000 		.word	.LANCHOR23
 1878 0994 00000000 		.word	.LANCHOR22
 1879 0998 48E17A3F 		.word	1065017672
 1880 099c 77BE7F3F 		.word	1065336439
 1881 09a0 00000000 		.word	.LANCHOR24
 1882 09a4 00000000 		.word	.LANCHOR15
 1883 09a8 00000000 		.word	.LANCHOR25
 1884 09ac 6F12833A 		.word	981668463
 1885 09b0 17B7D138 		.word	953267991
 1886 09b4 00000000 		.word	.LANCHOR27
 1887 09b8 CDCC4C3D 		.word	1028443341
 1888 09bc C0956C3D 		.word	1030526400
 1889              	.L198:
 1890              	.LVL128:
 1891              	.L38:
 743:src/main.cpp  ****         float sub     = osc(s_phase_sub,VOICE.sub_wave)  * VOICE.sub_level;
 1892              		.loc 6 743 9 is_stmt 1 view .LVU607
 743:src/main.cpp  ****         float sub     = osc(s_phase_sub,VOICE.sub_wave)  * VOICE.sub_level;
 1893              		.loc 6 743 28 is_stmt 0 view .LVU608
 1894 09c0 DE49     		ldr	r1, .L200
 1895              	.LBB657:
 1896              	.LBB658:
 583:src/main.cpp  ****         case WAVE_SINE:   return osc_sine(ph);
 1897              		.loc 6 583 5 view .LVU609
 1898 09c2 B8F1020F 		cmp	r8, #2
 1899              	.LBE658:
 1900              	.LBE657:
 743:src/main.cpp  ****         float sub     = osc(s_phase_sub,VOICE.sub_wave)  * VOICE.sub_level;
 1901              		.loc 6 743 28 view .LVU610
 1902 09c6 D1ED008A 		vldr.32	s17, [r1]
ARM GAS  /tmp/claude-502/ccZj3JyB.s 			page 64


 1903              	.LVL129:
 1904              	.LBB681:
 1905              	.LBI657:
 582:src/main.cpp  ****     switch(w){
 1906              		.loc 6 582 21 is_stmt 1 view .LVU611
 1907              	.LBB674:
 583:src/main.cpp  ****         case WAVE_SINE:   return osc_sine(ph);
 1908              		.loc 6 583 5 view .LVU612
 1909 09ca 00F09F81 		beq	.L41
 1910 09ce B8F1030F 		cmp	r8, #3
 1911 09d2 00F0A881 		beq	.L42
 1912 09d6 B8F1010F 		cmp	r8, #1
 1913 09da 00F06881 		beq	.L188
 1914              	.LVL130:
 1915              	.LBB659:
 1916              	.LBI659:
 582:src/main.cpp  ****     switch(w){
 1917              		.loc 6 582 21 view .LVU613
 582:src/main.cpp  ****     switch(w){
 1918              		.loc 6 582 21 is_stmt 0 view .LVU614
 1919              	.LBE659:
 1920              	.LBE674:
 1921              	.LBE681:
 1922              	.LBE784:
 1923              	.LBE788:
 587:src/main.cpp  ****         default:          return tri(ph);
 1924              		.loc 6 587 9 is_stmt 1 view .LVU615
 588:src/main.cpp  ****     }
 1925              		.loc 6 588 9 view .LVU616
 588:src/main.cpp  ****     }
 1926              		.loc 6 588 27 view .LVU617
 1927              	.LBB789:
 1928              	.LBB785:
 1929              	.LBB682:
 1930              	.LBB675:
 1931              	.LBB664:
 1932              	.LBB660:
 1933              	.LBI660:
 565:src/main.cpp  ****     return ph<0.5f?(4.0f*ph-1.0f):(3.0f-4.0f*ph);
 1934              		.loc 6 565 21 view .LVU618
 1935              	.LBB661:
 566:src/main.cpp  **** }
 1936              		.loc 6 566 5 view .LVU619
 566:src/main.cpp  **** }
 1937              		.loc 6 566 19 is_stmt 0 view .LVU620
 1938 09de F6EE002A 		vmov.f32	s5, #5.0e-1
 1939 09e2 F4EEE28A 		vcmpe.f32	s17, s5
 1940 09e6 F1EE002A 		vmov.f32	s5, #4.0e+0
 1941 09ea F1EE10FA 		vmrs	APSR_nzcv, FPSCR
 1942 09ee 40F18382 		bpl	.L170
 1943 09f2 FFEE001A 		vmov.f32	s3, #-1.0e+0
 1944 09f6 E8EEA21A 		vfma.f32	s3, s17, s5
 1945              	.LBE661:
 1946              	.LBE660:
 1947              	.LBE664:
 1948              	.LBE675:
 1949              	.LBE682:
ARM GAS  /tmp/claude-502/ccZj3JyB.s 			page 65


 743:src/main.cpp  ****         float sub     = osc(s_phase_sub,VOICE.sub_wave)  * VOICE.sub_level;
 1950              		.loc 6 743 66 view .LVU621
 1951 09fa DDED142A 		vldr.32	s5, [sp, #80]
 1952 09fe 61EEA21A 		vmul.f32	s3, s3, s5
 1953              	.LVL131:
 1954              	.L48:
 744:src/main.cpp  ****         float osc_oct = osc(s_phase_oct,VOICE.oct_wave)  * VOICE.oct_level;
 1955              		.loc 6 744 9 is_stmt 1 view .LVU622
 744:src/main.cpp  ****         float osc_oct = osc(s_phase_oct,VOICE.oct_wave)  * VOICE.oct_level;
 1956              		.loc 6 744 28 is_stmt 0 view .LVU623
 1957 0a02 CF49     		ldr	r1, .L200+4
 1958              	.LBB683:
 1959              	.LBB684:
 583:src/main.cpp  ****         case WAVE_SINE:   return osc_sine(ph);
 1960              		.loc 6 583 5 view .LVU624
 1961 0a04 022F     		cmp	r7, #2
 1962              	.LBE684:
 1963              	.LBE683:
 744:src/main.cpp  ****         float osc_oct = osc(s_phase_oct,VOICE.oct_wave)  * VOICE.oct_level;
 1964              		.loc 6 744 28 view .LVU625
 1965 0a06 91ED000A 		vldr.32	s0, [r1]
 1966              	.LVL132:
 1967              	.LBB710:
 1968              	.LBI683:
 582:src/main.cpp  ****     switch(w){
 1969              		.loc 6 582 21 is_stmt 1 view .LVU626
 1970              	.LBB702:
 583:src/main.cpp  ****         case WAVE_SINE:   return osc_sine(ph);
 1971              		.loc 6 583 5 view .LVU627
 1972 0a0a 00F04381 		beq	.L51
 1973 0a0e 032F     		cmp	r7, #3
 1974 0a10 00F03581 		beq	.L52
 1975 0a14 012F     		cmp	r7, #1
 1976 0a16 00F0F080 		beq	.L189
 1977              	.LVL133:
 1978              	.LBB685:
 1979              	.LBI685:
 582:src/main.cpp  ****     switch(w){
 1980              		.loc 6 582 21 view .LVU628
 582:src/main.cpp  ****     switch(w){
 1981              		.loc 6 582 21 is_stmt 0 view .LVU629
 1982              	.LBE685:
 1983              	.LBE702:
 1984              	.LBE710:
 1985              	.LBE785:
 1986              	.LBE789:
 587:src/main.cpp  ****         default:          return tri(ph);
 1987              		.loc 6 587 9 is_stmt 1 view .LVU630
 588:src/main.cpp  ****     }
 1988              		.loc 6 588 9 view .LVU631
 588:src/main.cpp  ****     }
 1989              		.loc 6 588 27 view .LVU632
 1990              	.LBB790:
 1991              	.LBB786:
 1992              	.LBB711:
 1993              	.LBB703:
 1994              	.LBB690:
ARM GAS  /tmp/claude-502/ccZj3JyB.s 			page 66


 1995              	.LBB686:
 1996              	.LBI686:
 565:src/main.cpp  ****     return ph<0.5f?(4.0f*ph-1.0f):(3.0f-4.0f*ph);
 1997              		.loc 6 565 21 view .LVU633
 1998              	.LBB687:
 566:src/main.cpp  **** }
 1999              		.loc 6 566 5 view .LVU634
 566:src/main.cpp  **** }
 2000              		.loc 6 566 19 is_stmt 0 view .LVU635
 2001 0a1a F6EE002A 		vmov.f32	s5, #5.0e-1
 2002 0a1e B4EEE20A 		vcmpe.f32	s0, s5
 2003 0a22 F1EE002A 		vmov.f32	s5, #4.0e+0
 2004 0a26 F1EE10FA 		vmrs	APSR_nzcv, FPSCR
 2005 0a2a 40F15382 		bpl	.L172
 2006 0a2e BFEE002A 		vmov.f32	s4, #-1.0e+0
 2007 0a32 A0EE222A 		vfma.f32	s4, s0, s5
 2008              	.LBE687:
 2009              	.LBE686:
 2010              	.LBE690:
 2011              	.LBE703:
 2012              	.LBE711:
 744:src/main.cpp  ****         float osc_oct = osc(s_phase_oct,VOICE.oct_wave)  * VOICE.oct_level;
 2013              		.loc 6 744 66 view .LVU636
 2014 0a36 DDED152A 		vldr.32	s5, [sp, #84]
 2015 0a3a 22EE222A 		vmul.f32	s4, s4, s5
 2016              	.LVL134:
 2017              	.L58:
 745:src/main.cpp  **** 
 2018              		.loc 6 745 9 is_stmt 1 view .LVU637
 745:src/main.cpp  **** 
 2019              		.loc 6 745 28 is_stmt 0 view .LVU638
 2020 0a3e C149     		ldr	r1, .L200+8
 2021 0a40 D1ED000A 		vldr.32	s1, [r1]
 2022              	.LVL135:
 2023              	.LBB712:
 2024              	.LBI712:
 582:src/main.cpp  ****     switch(w){
 2025              		.loc 6 582 21 is_stmt 1 view .LVU639
 2026              	.LBB713:
 583:src/main.cpp  ****         case WAVE_SINE:   return osc_sine(ph);
 2027              		.loc 6 583 5 view .LVU640
 2028 0a44 1299     		ldr	r1, [sp, #72]
 2029 0a46 0229     		cmp	r1, #2
 2030 0a48 00F00C81 		beq	.L61
 2031              	.L194:
 583:src/main.cpp  ****         case WAVE_SINE:   return osc_sine(ph);
 2032              		.loc 6 583 5 is_stmt 0 view .LVU641
 2033 0a4c 0329     		cmp	r1, #3
 2034 0a4e 00F00F82 		beq	.L62
 2035 0a52 0129     		cmp	r1, #1
 2036 0a54 00F0DD81 		beq	.L190
 2037              	.LVL136:
 2038              	.LBB714:
 2039              	.LBI714:
 582:src/main.cpp  ****     switch(w){
 2040              		.loc 6 582 21 is_stmt 1 view .LVU642
 582:src/main.cpp  ****     switch(w){
ARM GAS  /tmp/claude-502/ccZj3JyB.s 			page 67


 2041              		.loc 6 582 21 is_stmt 0 view .LVU643
 2042              	.LBE714:
 2043              	.LBE713:
 2044              	.LBE712:
 2045              	.LBE786:
 2046              	.LBE790:
 587:src/main.cpp  ****         default:          return tri(ph);
 2047              		.loc 6 587 9 is_stmt 1 view .LVU644
 588:src/main.cpp  ****     }
 2048              		.loc 6 588 9 view .LVU645
 588:src/main.cpp  ****     }
 2049              		.loc 6 588 27 view .LVU646
 2050              	.LBB791:
 2051              	.LBB787:
 2052              	.LBB735:
 2053              	.LBB727:
 2054              	.LBB719:
 2055              	.LBB715:
 2056              	.LBI715:
 565:src/main.cpp  ****     return ph<0.5f?(4.0f*ph-1.0f):(3.0f-4.0f*ph);
 2057              		.loc 6 565 21 view .LVU647
 2058              	.LBB716:
 566:src/main.cpp  **** }
 2059              		.loc 6 566 5 view .LVU648
 566:src/main.cpp  **** }
 2060              		.loc 6 566 19 is_stmt 0 view .LVU649
 2061 0a58 F6EE002A 		vmov.f32	s5, #5.0e-1
 2062 0a5c B1EE00FA 		vmov.f32	s30, #4.0e+0
 2063 0a60 F4EEE20A 		vcmpe.f32	s1, s5
 2064 0a64 F1EE10FA 		vmrs	APSR_nzcv, FPSCR
 2065 0a68 40F13D82 		bpl	.L174
 566:src/main.cpp  **** }
 2066              		.loc 6 566 19 view .LVU650
 2067 0a6c FFEE002A 		vmov.f32	s5, #-1.0e+0
 2068 0a70 E0EE8F2A 		vfma.f32	s5, s1, s30
 2069              	.LBE716:
 2070              	.LBE715:
 2071              	.LBE719:
 2072              	.LBE727:
 2073              	.LBE735:
 745:src/main.cpp  **** 
 2074              		.loc 6 745 66 view .LVU651
 2075 0a74 9DED16FA 		vldr.32	s30, [sp, #88]
 2076 0a78 62EE8F2A 		vmul.f32	s5, s5, s30
 2077              	.LVL137:
 2078              	.L68:
 749:src/main.cpp  ****         if(VOICE.noise_level > 0.0f){
 2079              		.loc 6 749 9 is_stmt 1 view .LVU652
 750:src/main.cpp  ****             s_noise_rng ^= s_noise_rng << 13;
 2080              		.loc 6 750 9 view .LVU653
 2081 0a7c F5EEC0EA 		vcmpe.f32	s29, #0
 2082 0a80 F1EE10FA 		vmrs	APSR_nzcv, FPSCR
 2083 0a84 40F38B80 		ble	.L175
 751:src/main.cpp  ****             s_noise_rng ^= s_noise_rng >> 17;
 2084              		.loc 6 751 13 view .LVU654
 751:src/main.cpp  ****             s_noise_rng ^= s_noise_rng >> 17;
 2085              		.loc 6 751 40 is_stmt 0 view .LVU655
ARM GAS  /tmp/claude-502/ccZj3JyB.s 			page 68


 2086 0a88 AF48     		ldr	r0, .L200+12
 2087 0a8a 0168     		ldr	r1, [r0]
 751:src/main.cpp  ****             s_noise_rng ^= s_noise_rng >> 17;
 2088              		.loc 6 751 25 view .LVU656
 2089 0a8c 81EA4131 		eor	r1, r1, r1, lsl #13
 752:src/main.cpp  ****             s_noise_rng ^= s_noise_rng << 5;
 2090              		.loc 6 752 13 is_stmt 1 view .LVU657
 752:src/main.cpp  ****             s_noise_rng ^= s_noise_rng << 5;
 2091              		.loc 6 752 25 is_stmt 0 view .LVU658
 2092 0a90 81EA5141 		eor	r1, r1, r1, lsr #17
 753:src/main.cpp  ****             noise = ((float)(int32_t)s_noise_rng * (1.0f/2147483648.0f)) * VOICE.noise_level;
 2093              		.loc 6 753 13 is_stmt 1 view .LVU659
 753:src/main.cpp  ****             noise = ((float)(int32_t)s_noise_rng * (1.0f/2147483648.0f)) * VOICE.noise_level;
 2094              		.loc 6 753 25 is_stmt 0 view .LVU660
 2095 0a94 81EA4111 		eor	r1, r1, r1, lsl #5
 754:src/main.cpp  ****         }
 2096              		.loc 6 754 50 view .LVU661
 2097 0a98 0FEE101A 		vmov	s30, r1	@ int
 753:src/main.cpp  ****             noise = ((float)(int32_t)s_noise_rng * (1.0f/2147483648.0f)) * VOICE.noise_level;
 2098              		.loc 6 753 25 view .LVU662
 2099 0a9c 0160     		str	r1, [r0]
 754:src/main.cpp  ****         }
 2100              		.loc 6 754 13 is_stmt 1 view .LVU663
 754:src/main.cpp  ****         }
 2101              		.loc 6 754 50 is_stmt 0 view .LVU664
 2102 0a9e BAEEE0FA 		vcvt.f32.s32	s30, s30, #31
 754:src/main.cpp  ****         }
 2103              		.loc 6 754 19 view .LVU665
 2104 0aa2 2FEE2EFA 		vmul.f32	s30, s30, s29
 2105              	.LVL138:
 2106              	.L71:
 758:src/main.cpp  **** 
 2107              		.loc 6 758 9 is_stmt 1 view .LVU666
 758:src/main.cpp  **** 
 2108              		.loc 6 758 26 is_stmt 0 view .LVU667
 2109 0aa6 77EEA17A 		vadd.f32	s15, s15, s3
 761:src/main.cpp  ****         mix = mix*(1.0f-s_ringmod) + (mix*rm_carrier)*s_ringmod;
 2110              		.loc 6 761 31 view .LVU668
 2111 0aaa A849     		ldr	r1, .L200+16
 758:src/main.cpp  **** 
 2112              		.loc 6 758 33 view .LVU669
 2113 0aac 77EE827A 		vadd.f32	s15, s15, s4
 758:src/main.cpp  **** 
 2114              		.loc 6 758 39 view .LVU670
 2115 0ab0 77EEA22A 		vadd.f32	s5, s15, s5
 2116              	.LBB736:
 2117              	.LBB737:
 566:src/main.cpp  **** }
 2118              		.loc 6 566 19 view .LVU671
 2119 0ab4 F6EE007A 		vmov.f32	s15, #5.0e-1
 2120              	.LBE737:
 2121              	.LBE736:
 758:src/main.cpp  **** 
 2122              		.loc 6 758 15 view .LVU672
 2123 0ab8 32EE8FFA 		vadd.f32	s30, s5, s30
 2124              	.LVL139:
 761:src/main.cpp  ****         mix = mix*(1.0f-s_ringmod) + (mix*rm_carrier)*s_ringmod;
ARM GAS  /tmp/claude-502/ccZj3JyB.s 			page 69


 2125              		.loc 6 761 9 is_stmt 1 view .LVU673
 761:src/main.cpp  ****         mix = mix*(1.0f-s_ringmod) + (mix*rm_carrier)*s_ringmod;
 2126              		.loc 6 761 31 is_stmt 0 view .LVU674
 2127 0abc D1ED002A 		vldr.32	s5, [r1]
 2128              	.LVL140:
 2129              	.LBB740:
 2130              	.LBI736:
 565:src/main.cpp  ****     return ph<0.5f?(4.0f*ph-1.0f):(3.0f-4.0f*ph);
 2131              		.loc 6 565 21 is_stmt 1 view .LVU675
 2132              	.LBB738:
 566:src/main.cpp  **** }
 2133              		.loc 6 566 5 view .LVU676
 566:src/main.cpp  **** }
 2134              		.loc 6 566 19 is_stmt 0 view .LVU677
 2135 0ac0 F4EEE72A 		vcmpe.f32	s5, s15
 2136 0ac4 F1EE007A 		vmov.f32	s15, #4.0e+0
 2137 0ac8 F1EE10FA 		vmrs	APSR_nzcv, FPSCR
 2138 0acc 3AD5     		bpl	.L176
 2139 0ace BFEE002A 		vmov.f32	s4, #-1.0e+0
 2140 0ad2 A2EEA72A 		vfma.f32	s4, s5, s15
 2141              	.L75:
 2142              	.LVL141:
 566:src/main.cpp  **** }
 2143              		.loc 6 566 19 view .LVU678
 2144              	.LBE738:
 2145              	.LBE740:
 762:src/main.cpp  **** 
 2146              		.loc 6 762 9 is_stmt 1 view .LVU679
 762:src/main.cpp  **** 
 2147              		.loc 6 762 42 is_stmt 0 view .LVU680
 2148 0ad6 2FEE022A 		vmul.f32	s4, s30, s4
 2149              	.LVL142:
 762:src/main.cpp  **** 
 2150              		.loc 6 762 24 view .LVU681
 2151 0ada F7EE007A 		vmov.f32	s15, #1.0e+0
 762:src/main.cpp  **** 
 2152              		.loc 6 762 54 view .LVU682
 2153 0ade 22EE062A 		vmul.f32	s4, s4, s12
 762:src/main.cpp  **** 
 2154              		.loc 6 762 24 view .LVU683
 2155 0ae2 37EEC66A 		vsub.f32	s12, s15, s12
 762:src/main.cpp  **** 
 2156              		.loc 6 762 13 view .LVU684
 2157 0ae6 A6EE0F2A 		vfma.f32	s4, s12, s30
 2158              	.LVL143:
 765:src/main.cpp  **** 
 2159              		.loc 6 765 9 is_stmt 1 view .LVU685
 2160              	.LBB741:
 2161              	.LBB742:
 477:src/main.cpp  ****     if(x<-3.0f)return -1.0f;
 2162              		.loc 6 477 5 is_stmt 0 view .LVU686
 2163 0aea B0EE086A 		vmov.f32	s12, #3.0e+0
 2164              	.LBE742:
 2165              	.LBE741:
 765:src/main.cpp  **** 
 2166              		.loc 6 765 24 view .LVU687
 2167 0aee 6AEE82AA 		vmul.f32	s21, s21, s4
ARM GAS  /tmp/claude-502/ccZj3JyB.s 			page 70


 2168              	.LVL144:
 2169              	.LBB748:
 2170              	.LBI741:
 475:src/main.cpp  **** {
 2171              		.loc 6 475 21 is_stmt 1 view .LVU688
 2172              	.LBB745:
 477:src/main.cpp  ****     if(x<-3.0f)return -1.0f;
 2173              		.loc 6 477 5 view .LVU689
 2174 0af2 F4EEC6AA 		vcmpe.f32	s21, s12
 2175 0af6 F1EE10FA 		vmrs	APSR_nzcv, FPSCR
 2176 0afa 61DC     		bgt	.L124
 478:src/main.cpp  ****     float x2=x*x;
 2177              		.loc 6 478 5 view .LVU690
 2178 0afc F8EE087A 		vmov.f32	s15, #-3.0e+0
 2179 0b00 F4EEE7AA 		vcmpe.f32	s21, s15
 2180 0b04 F1EE10FA 		vmrs	APSR_nzcv, FPSCR
 2181 0b08 00F1BD81 		bmi	.L125
 2182              	.LVL145:
 2183              	.LBB743:
 2184              	.LBI743:
 475:src/main.cpp  **** {
 2185              		.loc 6 475 21 view .LVU691
 2186              	.LBB744:
 479:src/main.cpp  ****     return x*(27.0f+x2)/(27.0f+9.0f*x2);
 2187              		.loc 6 479 5 view .LVU692
 480:src/main.cpp  **** }
 2188              		.loc 6 480 20 is_stmt 0 view .LVU693
 2189 0b0c B3EE0B6A 		vmov.f32	s12, #2.7e+1
 479:src/main.cpp  ****     return x*(27.0f+x2)/(27.0f+9.0f*x2);
 2190              		.loc 6 479 11 view .LVU694
 2191 0b10 6AEEAA7A 		vmul.f32	s15, s21, s21
 2192              	.LVL146:
 480:src/main.cpp  **** }
 2193              		.loc 6 480 5 is_stmt 1 view .LVU695
 480:src/main.cpp  **** }
 2194              		.loc 6 480 31 is_stmt 0 view .LVU696
 2195 0b14 F2EE021A 		vmov.f32	s3, #9.0e+0
 2196 0b18 B0EE462A 		vmov.f32	s4, s12
 2197              	.LVL147:
 480:src/main.cpp  **** }
 2198              		.loc 6 480 31 view .LVU697
 2199 0b1c A7EEA12A 		vfma.f32	s4, s15, s3
 480:src/main.cpp  **** }
 2200              		.loc 6 480 20 view .LVU698
 2201 0b20 77EE867A 		vadd.f32	s15, s15, s12
 2202              	.LVL148:
 480:src/main.cpp  **** }
 2203              		.loc 6 480 13 view .LVU699
 2204 0b24 67EEAAAA 		vmul.f32	s21, s15, s21
 2205              	.LVL149:
 480:src/main.cpp  **** }
 2206              		.loc 6 480 39 view .LVU700
 2207 0b28 8AEE826A 		vdiv.f32	s12, s21, s4
 2208              	.L76:
 2209              	.LVL150:
 480:src/main.cpp  **** }
 2210              		.loc 6 480 39 view .LVU701
ARM GAS  /tmp/claude-502/ccZj3JyB.s 			page 71


 2211              	.LBE744:
 2212              	.LBE743:
 2213              	.LBE745:
 2214              	.LBE748:
 768:src/main.cpp  ****         float filtered = moog(mix, eff_cutoff, VOICE.resonance, sr);
 2215              		.loc 6 768 9 is_stmt 1 view .LVU702
 2216              	.LBB749:
 2217              	.LBI566:
 470:src/main.cpp  ****     return v<lo?lo:v>hi?hi:v;
 2218              		.loc 6 470 21 view .LVU703
 2219              	.LBB568:
 471:src/main.cpp  **** }
 2220              		.loc 6 471 5 view .LVU704
 471:src/main.cpp  **** }
 2221              		.loc 6 471 16 is_stmt 0 view .LVU705
 2222 0b2c F3EE047A 		vmov.f32	s15, #2.0e+1
 2223 0b30 F4EEE75A 		vcmpe.f32	s11, s15
 2224 0b34 F1EE10FA 		vmrs	APSR_nzcv, FPSCR
 2225 0b38 7FF59EAB 		bpl	.L191
 2226 0b3c DFED845A 		vldr.32	s11, .L200+20
 2227              	.LVL151:
 471:src/main.cpp  **** }
 2228              		.loc 6 471 16 view .LVU706
 2229 0b40 FFF7A4BB 		b	.L77
 2230              	.LVL152:
 2231              	.L176:
 471:src/main.cpp  **** }
 2232              		.loc 6 471 16 view .LVU707
 2233              	.LBE568:
 2234              	.LBE749:
 2235              	.LBB750:
 2236              	.LBB739:
 566:src/main.cpp  **** }
 2237              		.loc 6 566 19 view .LVU708
 2238 0b44 B0EE082A 		vmov.f32	s4, #3.0e+0
 2239 0b48 A2EEE72A 		vfms.f32	s4, s5, s15
 2240 0b4c C3E7     		b	.L75
 2241              	.LVL153:
 2242              	.L29:
 566:src/main.cpp  **** }
 2243              		.loc 6 566 19 view .LVU709
 2244              	.LBE739:
 2245              	.LBE750:
 2246              	.LBB751:
 730:src/main.cpp  ****         }
 2247              		.loc 6 730 13 is_stmt 1 view .LVU710
 730:src/main.cpp  ****         }
 2248              		.loc 6 730 38 is_stmt 0 view .LVU711
 2249 0b4e 0198     		ldr	r0, [sp, #4]
 2250 0b50 0399     		ldr	r1, [sp, #12]
 2251 0b52 091A     		subs	r1, r1, r0
 2252 0b54 0298     		ldr	r0, [sp, #8]
 2253 0b56 00EB0111 		add	r1, r0, r1, lsl #4
 730:src/main.cpp  ****         }
 2254              		.loc 6 730 19 view .LVU712
 2255 0b5a 91ED071A 		vldr.32	s2, [r1, #28]
 2256 0b5e 26EE811A 		vmul.f32	s2, s13, s2
ARM GAS  /tmp/claude-502/ccZj3JyB.s 			page 72


 2257              	.LVL154:
 730:src/main.cpp  ****         }
 2258              		.loc 6 730 19 view .LVU713
 2259 0b62 C2E6     		b	.L30
 2260              	.LVL155:
 2261              	.L166:
 730:src/main.cpp  ****         }
 2262              		.loc 6 730 19 view .LVU714
 2263              	.LBE751:
 2264              	.LBB752:
 2265              	.LBB628:
 566:src/main.cpp  **** }
 2266              		.loc 6 566 19 view .LVU715
 2267 0b64 F0EE081A 		vmov.f32	s3, #3.0e+0
 2268 0b68 E7EEC11A 		vfms.f32	s3, s15, s2
 2269 0b6c 9DE6     		b	.L28
 2270              	.LVL156:
 2271              	.L19:
 566:src/main.cpp  **** }
 2272              		.loc 6 566 19 view .LVU716
 2273              	.LBE628:
 2274              	.LBE752:
 698:src/main.cpp  ****             s_flt[1] *= 0.999f;
 2275              		.loc 6 698 13 is_stmt 1 view .LVU717
 698:src/main.cpp  ****             s_flt[1] *= 0.999f;
 2276              		.loc 6 698 22 is_stmt 0 view .LVU718
 2277 0b6e DFED797A 		vldr.32	s15, .L200+24
 2278              	.LVL157:
 698:src/main.cpp  ****             s_flt[1] *= 0.999f;
 2279              		.loc 6 698 22 view .LVU719
 2280 0b72 D4ED003A 		vldr.32	s7, [r4]
 2281              	.LVL158:
 699:src/main.cpp  ****             s_flt[2] *= 0.999f;
 2282              		.loc 6 699 22 view .LVU720
 2283 0b76 94ED014A 		vldr.32	s8, [r4, #4]
 700:src/main.cpp  ****             s_flt[3] *= 0.999f;
 2284              		.loc 6 700 22 view .LVU721
 2285 0b7a D4ED024A 		vldr.32	s9, [r4, #8]
 698:src/main.cpp  ****             s_flt[1] *= 0.999f;
 2286              		.loc 6 698 22 view .LVU722
 2287 0b7e 63EEA73A 		vmul.f32	s7, s7, s15
 699:src/main.cpp  ****             s_flt[2] *= 0.999f;
 2288              		.loc 6 699 13 is_stmt 1 view .LVU723
 701:src/main.cpp  ****         }
 2289              		.loc 6 701 22 is_stmt 0 view .LVU724
 2290 0b82 94ED035A 		vldr.32	s10, [r4, #12]
 699:src/main.cpp  ****             s_flt[2] *= 0.999f;
 2291              		.loc 6 699 22 view .LVU725
 2292 0b86 24EE274A 		vmul.f32	s8, s8, s15
 700:src/main.cpp  ****             s_flt[3] *= 0.999f;
 2293              		.loc 6 700 13 is_stmt 1 view .LVU726
 700:src/main.cpp  ****             s_flt[3] *= 0.999f;
 2294              		.loc 6 700 22 is_stmt 0 view .LVU727
 2295 0b8a 64EEA74A 		vmul.f32	s9, s9, s15
 701:src/main.cpp  ****         }
 2296              		.loc 6 701 13 is_stmt 1 view .LVU728
 701:src/main.cpp  ****         }
ARM GAS  /tmp/claude-502/ccZj3JyB.s 			page 73


 2297              		.loc 6 701 22 is_stmt 0 view .LVU729
 2298 0b8e 25EE275A 		vmul.f32	s10, s10, s15
 2299 0b92 55E6     		b	.L20
 2300              	.L111:
 2301              	.LBB753:
 701:src/main.cpp  ****         }
 2302              		.loc 6 701 22 view .LVU730
 2303 0b94 DFED705A 		vldr.32	s11, .L200+28
 678:src/main.cpp  ****           s_cutoff = s_cutoff * sc + tcut * (1.0f - sc); }
 2304              		.loc 6 678 40 view .LVU731
 2305 0b98 DFED703A 		vldr.32	s7, .L200+32
 2306 0b9c BCE5     		b	.L12
 2307              	.LVL159:
 2308              	.L175:
 678:src/main.cpp  ****           s_cutoff = s_cutoff * sc + tcut * (1.0f - sc); }
 2309              		.loc 6 678 40 view .LVU732
 2310              	.LBE753:
 749:src/main.cpp  ****         if(VOICE.noise_level > 0.0f){
 2311              		.loc 6 749 15 view .LVU733
 2312 0b9e 9FED76FA 		vldr.32	s30, .L200+60
 2313 0ba2 80E7     		b	.L71
 2314              	.LVL160:
 2315              	.L128:
 2316              	.LBB754:
 2317              	.LBB558:
 2318              	.LBB534:
 2319              	.LBB486:
 477:src/main.cpp  ****     if(x<-3.0f)return -1.0f;
 2320              		.loc 6 477 5 view .LVU734
 2321 0ba4 B0EE086A 		vmov.f32	s12, #3.0e+0
 2322              	.LVL161:
 477:src/main.cpp  ****     if(x<-3.0f)return -1.0f;
 2323              		.loc 6 477 5 view .LVU735
 2324              	.LBE486:
 2325              	.LBE534:
 2326              	.LBB535:
 2327              	.LBB480:
 477:src/main.cpp  ****     if(x<-3.0f)return -1.0f;
 2328              		.loc 6 477 24 view .LVU736
 2329 0ba8 F7EE005A 		vmov.f32	s11, #1.0e+0
 2330              	.LVL162:
 477:src/main.cpp  ****     if(x<-3.0f)return -1.0f;
 2331              		.loc 6 477 24 view .LVU737
 2332              	.LBE480:
 2333              	.LBE535:
 2334              	.LBB536:
 475:src/main.cpp  **** {
 2335              		.loc 6 475 21 is_stmt 1 view .LVU738
 2336              	.LBB487:
 477:src/main.cpp  ****     if(x<-3.0f)return -1.0f;
 2337              		.loc 6 477 5 view .LVU739
 2338 0bac F4EEC63A 		vcmpe.f32	s7, s12
 2339 0bb0 F1EE10FA 		vmrs	APSR_nzcv, FPSCR
 2340 0bb4 7FF7A0AB 		ble	.L192
 2341              	.L130:
 477:src/main.cpp  ****     if(x<-3.0f)return -1.0f;
 2342              		.loc 6 477 24 is_stmt 0 view .LVU740
ARM GAS  /tmp/claude-502/ccZj3JyB.s 			page 74


 2343 0bb8 B7EE002A 		vmov.f32	s4, #1.0e+0
 2344 0bbc FFF7B4BB 		b	.L81
 2345              	.LVL163:
 2346              	.L124:
 477:src/main.cpp  ****     if(x<-3.0f)return -1.0f;
 2347              		.loc 6 477 24 view .LVU741
 2348              	.LBE487:
 2349              	.LBE536:
 2350              	.LBE558:
 2351              	.LBE754:
 2352              	.LBB755:
 2353              	.LBB746:
 2354 0bc0 B0EE676A 		vmov.f32	s12, s15
 2355 0bc4 B2E7     		b	.L76
 2356              	.LVL164:
 2357              	.L142:
 477:src/main.cpp  ****     if(x<-3.0f)return -1.0f;
 2358              		.loc 6 477 24 view .LVU742
 2359              	.LBE746:
 2360              	.LBE755:
 2361              	.LBB756:
 2362              	.LBB559:
 2363              	.LBB537:
 2364              	.LBB532:
 2365 0bc6 F7EE004A 		vmov.f32	s9, #1.0e+0
 2366 0bca 7FE4     		b	.L87
 2367              	.LVL165:
 2368              	.L132:
 477:src/main.cpp  ****     if(x<-3.0f)return -1.0f;
 2369              		.loc 6 477 24 view .LVU743
 2370              	.LBE532:
 2371              	.LBE537:
 2372              	.LBB538:
 2373              	.LBB503:
 477:src/main.cpp  ****     if(x<-3.0f)return -1.0f;
 2374              		.loc 6 477 5 view .LVU744
 2375 0bcc F0EE085A 		vmov.f32	s11, #3.0e+0
 2376              	.LBE503:
 2377              	.LBE538:
 2378              	.LBB539:
 2379              	.LBB495:
 477:src/main.cpp  ****     if(x<-3.0f)return -1.0f;
 2380              		.loc 6 477 24 view .LVU745
 2381 0bd0 B7EE006A 		vmov.f32	s12, #1.0e+0
 2382              	.LVL166:
 477:src/main.cpp  ****     if(x<-3.0f)return -1.0f;
 2383              		.loc 6 477 24 view .LVU746
 2384              	.LBE495:
 2385              	.LBE539:
 2386              	.LBB540:
 475:src/main.cpp  **** {
 2387              		.loc 6 475 21 is_stmt 1 view .LVU747
 2388              	.LBB504:
 477:src/main.cpp  ****     if(x<-3.0f)return -1.0f;
 2389              		.loc 6 477 5 view .LVU748
 2390 0bd4 B4EEE54A 		vcmpe.f32	s8, s11
 2391 0bd8 F1EE10FA 		vmrs	APSR_nzcv, FPSCR
ARM GAS  /tmp/claude-502/ccZj3JyB.s 			page 75


 2392 0bdc 7FF7D2AB 		ble	.L193
 2393              	.L134:
 477:src/main.cpp  ****     if(x<-3.0f)return -1.0f;
 2394              		.loc 6 477 24 is_stmt 0 view .LVU749
 2395 0be0 F7EE003A 		vmov.f32	s7, #1.0e+0
 2396 0be4 FFF7E6BB 		b	.L83
 2397              	.LVL167:
 2398              	.L140:
 477:src/main.cpp  ****     if(x<-3.0f)return -1.0f;
 2399              		.loc 6 477 24 view .LVU750
 2400              	.LBE504:
 2401              	.LBE540:
 2402              	.LBB541:
 2403              	.LBB525:
 2404 0be8 B7EE006A 		vmov.f32	s12, #1.0e+0
 2405 0bec 4EE4     		b	.L86
 2406              	.LVL168:
 2407              	.L138:
 477:src/main.cpp  ****     if(x<-3.0f)return -1.0f;
 2408              		.loc 6 477 24 view .LVU751
 2409              	.LBE525:
 2410              	.LBE541:
 2411              	.LBB542:
 2412              	.LBB518:
 2413 0bee B7EE004A 		vmov.f32	s8, #1.0e+0
 2414 0bf2 25E4     		b	.L85
 2415              	.LVL169:
 2416              	.L136:
 477:src/main.cpp  ****     if(x<-3.0f)return -1.0f;
 2417              		.loc 6 477 24 view .LVU752
 2418              	.LBE518:
 2419              	.LBE542:
 2420              	.LBB543:
 2421              	.LBB511:
 2422 0bf4 B7EE006A 		vmov.f32	s12, #1.0e+0
 2423 0bf8 02E4     		b	.L84
 2424              	.LVL170:
 2425              	.L189:
 477:src/main.cpp  ****     if(x<-3.0f)return -1.0f;
 2426              		.loc 6 477 24 view .LVU753
 2427              	.LBE511:
 2428              	.LBE543:
 2429              	.LBE559:
 2430              	.LBE756:
 2431              	.LBB757:
 2432              	.LBB704:
 584:src/main.cpp  ****         case WAVE_SQUARE: return osc_square(ph);
 2433              		.loc 6 584 9 is_stmt 1 view .LVU754
 584:src/main.cpp  ****         case WAVE_SQUARE: return osc_square(ph);
 2434              		.loc 6 584 27 view .LVU755
 2435              	.LBB691:
 2436              	.LBI691:
 569:src/main.cpp  ****     constexpr float PI = 3.14159265f;
 2437              		.loc 6 569 21 view .LVU756
 2438              	.LBB692:
 570:src/main.cpp  ****     float x = ph*2.0f*PI - PI;                 // -ŽĆ..ŽĆ (angle shifted by ŽĆ)
 2439              		.loc 6 570 5 view .LVU757
ARM GAS  /tmp/claude-502/ccZj3JyB.s 			page 76


 571:src/main.cpp  ****     float y = 1.27323954f*x - 0.405284735f*x*(x<0?-x:x);
 2440              		.loc 6 571 5 view .LVU758
 571:src/main.cpp  ****     float y = 1.27323954f*x - 0.405284735f*x*(x<0?-x:x);
 2441              		.loc 6 571 17 is_stmt 0 view .LVU759
 2442 0bfa 70EE000A 		vadd.f32	s1, s0, s0
 571:src/main.cpp  ****     float y = 1.27323954f*x - 0.405284735f*x*(x<0?-x:x);
 2443              		.loc 6 571 11 view .LVU760
 2444 0bfe 9FED592A 		vldr.32	s4, .L200+40
 2445 0c02 DFED592A 		vldr.32	s5, .L200+44
 2446              	.LBE692:
 2447              	.LBE691:
 2448              	.LBE704:
 2449              	.LBE757:
 745:src/main.cpp  **** 
 2450              		.loc 6 745 28 view .LVU761
 2451 0c06 4F49     		ldr	r1, .L200+8
 2452              	.LBB758:
 2453              	.LBB705:
 2454              	.LBB694:
 2455              	.LBB693:
 571:src/main.cpp  ****     float y = 1.27323954f*x - 0.405284735f*x*(x<0?-x:x);
 2456              		.loc 6 571 11 view .LVU762
 2457 0c08 E0EE822A 		vfma.f32	s5, s1, s4
 2458              	.LVL171:
 572:src/main.cpp  ****     y = 0.225f*(y*(y<0?-y:y) - y) + y;         // one refinement pass
 2459              		.loc 6 572 5 is_stmt 1 view .LVU763
 572:src/main.cpp  ****     y = 0.225f*(y*(y<0?-y:y) - y) + y;         // one refinement pass
 2460              		.loc 6 572 26 is_stmt 0 view .LVU764
 2461 0c0c 9FED572A 		vldr.32	s4, .L200+48
 572:src/main.cpp  ****     y = 0.225f*(y*(y<0?-y:y) - y) + y;         // one refinement pass
 2462              		.loc 6 572 43 view .LVU765
 2463 0c10 DFED570A 		vldr.32	s1, .L200+52
 572:src/main.cpp  ****     y = 0.225f*(y*(y<0?-y:y) - y) + y;         // one refinement pass
 2464              		.loc 6 572 50 view .LVU766
 2465 0c14 F5EEC02A 		vcmpe.f32	s5, #0
 572:src/main.cpp  ****     y = 0.225f*(y*(y<0?-y:y) - y) + y;         // one refinement pass
 2466              		.loc 6 572 43 view .LVU767
 2467 0c18 62EEA00A 		vmul.f32	s1, s5, s1
 572:src/main.cpp  ****     y = 0.225f*(y*(y<0?-y:y) - y) + y;         // one refinement pass
 2468              		.loc 6 572 26 view .LVU768
 2469 0c1c 22EE822A 		vmul.f32	s4, s5, s4
 572:src/main.cpp  ****     y = 0.225f*(y*(y<0?-y:y) - y) + y;         // one refinement pass
 2470              		.loc 6 572 50 view .LVU769
 2471 0c20 F1EE10FA 		vmrs	APSR_nzcv, FPSCR
 2472 0c24 48BF     		it	mi
 2473 0c26 F1EE622A 		vnegmi.f32	s5, s5
 2474              	.LVL172:
 572:src/main.cpp  ****     y = 0.225f*(y*(y<0?-y:y) - y) + y;         // one refinement pass
 2475              		.loc 6 572 11 view .LVU770
 2476 0c2a A0EEE22A 		vfms.f32	s4, s1, s5
 2477              	.LVL173:
 573:src/main.cpp  ****     return -y;                                 // undo the ŽĆ shift: sin(x+ŽĆ) = -sin(x)
 2478              		.loc 6 573 5 is_stmt 1 view .LVU771
 573:src/main.cpp  ****     return -y;                                 // undo the ŽĆ shift: sin(x+ŽĆ) = -sin(x)
 2479              		.loc 6 573 23 is_stmt 0 view .LVU772
 2480 0c2e B5EEC02A 		vcmpe.f32	s4, #0
 2481 0c32 F1EE422A 		vneg.f32	s5, s4
ARM GAS  /tmp/claude-502/ccZj3JyB.s 			page 77


 2482 0c36 F1EE10FA 		vmrs	APSR_nzcv, FPSCR
 2483 0c3a 54BF     		ite	pl
 2484 0c3c F0EE420A 		vmovpl.f32	s1, s4
 2485 0c40 F0EE620A 		vmovmi.f32	s1, s5
 573:src/main.cpp  ****     return -y;                                 // undo the ŽĆ shift: sin(x+ŽĆ) = -sin(x)
 2486              		.loc 6 573 30 view .LVU773
 2487 0c44 E2EE202A 		vfma.f32	s5, s4, s1
 573:src/main.cpp  ****     return -y;                                 // undo the ŽĆ shift: sin(x+ŽĆ) = -sin(x)
 2488              		.loc 6 573 7 view .LVU774
 2489 0c48 DFED4A0A 		vldr.32	s1, .L200+56
 2490 0c4c A2EEA02A 		vfma.f32	s4, s5, s1
 2491              	.LVL174:
 574:src/main.cpp  **** }
 2492              		.loc 6 574 5 is_stmt 1 view .LVU775
 574:src/main.cpp  **** }
 2493              		.loc 6 574 5 is_stmt 0 view .LVU776
 2494              	.LBE693:
 2495              	.LBE694:
 2496              	.LBE705:
 2497              	.LBE758:
 745:src/main.cpp  **** 
 2498              		.loc 6 745 28 view .LVU777
 2499 0c50 D1ED000A 		vldr.32	s1, [r1]
 2500              	.LBB759:
 2501              	.LBB728:
 583:src/main.cpp  ****         case WAVE_SINE:   return osc_sine(ph);
 2502              		.loc 6 583 5 view .LVU778
 2503 0c54 1299     		ldr	r1, [sp, #72]
 2504              	.LBE728:
 2505              	.LBE759:
 744:src/main.cpp  ****         float osc_oct = osc(s_phase_oct,VOICE.oct_wave)  * VOICE.oct_level;
 2506              		.loc 6 744 66 view .LVU779
 2507 0c56 DDED152A 		vldr.32	s5, [sp, #84]
 2508              	.LBB760:
 2509              	.LBB729:
 583:src/main.cpp  ****         case WAVE_SINE:   return osc_sine(ph);
 2510              		.loc 6 583 5 view .LVU780
 2511 0c5a 0229     		cmp	r1, #2
 2512              	.LBE729:
 2513              	.LBE760:
 744:src/main.cpp  ****         float osc_oct = osc(s_phase_oct,VOICE.oct_wave)  * VOICE.oct_level;
 2514              		.loc 6 744 66 view .LVU781
 2515 0c5c 22EE622A 		vnmul.f32	s4, s4, s5
 2516              	.LVL175:
 745:src/main.cpp  **** 
 2517              		.loc 6 745 9 is_stmt 1 view .LVU782
 2518              	.LBB761:
 582:src/main.cpp  ****     switch(w){
 2519              		.loc 6 582 21 view .LVU783
 2520              	.LBB730:
 583:src/main.cpp  ****         case WAVE_SINE:   return osc_sine(ph);
 2521              		.loc 6 583 5 view .LVU784
 2522 0c60 7FF4F4AE 		bne	.L194
 2523              	.LVL176:
 2524              	.L61:
 585:src/main.cpp  ****         case WAVE_SAW:    return osc_saw(ph);
 2525              		.loc 6 585 9 view .LVU785
ARM GAS  /tmp/claude-502/ccZj3JyB.s 			page 78


 585:src/main.cpp  ****         case WAVE_SAW:    return osc_saw(ph);
 2526              		.loc 6 585 27 view .LVU786
 2527              	.LBB720:
 2528              	.LBI720:
 577:src/main.cpp  **** static inline float osc_saw(float ph){ return 2.0f*ph - 1.0f; }
 2529              		.loc 6 577 21 view .LVU787
 2530              	.LBB721:
 577:src/main.cpp  **** static inline float osc_saw(float ph){ return 2.0f*ph - 1.0f; }
 2531              		.loc 6 577 43 view .LVU788
 577:src/main.cpp  **** static inline float osc_saw(float ph){ return 2.0f*ph - 1.0f; }
 2532              		.loc 6 577 58 is_stmt 0 view .LVU789
 2533 0c64 F6EE002A 		vmov.f32	s5, #5.0e-1
 2534 0c68 F4EEE20A 		vcmpe.f32	s1, s5
 2535 0c6c DDED162A 		vldr.32	s5, [sp, #88]
 2536 0c70 F1EE10FA 		vmrs	APSR_nzcv, FPSCR
 2537 0c74 3FF502AF 		bmi	.L68
 577:src/main.cpp  **** static inline float osc_saw(float ph){ return 2.0f*ph - 1.0f; }
 2538              		.loc 6 577 58 view .LVU790
 2539 0c78 F1EE622A 		vneg.f32	s5, s5
 2540 0c7c FEE6     		b	.L68
 2541              	.LVL177:
 2542              	.L52:
 577:src/main.cpp  **** static inline float osc_saw(float ph){ return 2.0f*ph - 1.0f; }
 2543              		.loc 6 577 58 view .LVU791
 2544              	.LBE721:
 2545              	.LBE720:
 2546              	.LBE730:
 2547              	.LBE761:
 2548              	.LBB762:
 2549              	.LBB706:
 586:src/main.cpp  ****         case WAVE_TRI:
 2550              		.loc 6 586 9 is_stmt 1 view .LVU792
 586:src/main.cpp  ****         case WAVE_TRI:
 2551              		.loc 6 586 27 view .LVU793
 2552              	.LBB695:
 2553              	.LBI695:
 578:src/main.cpp  **** 
 2554              		.loc 6 578 21 view .LVU794
 2555              	.LBB696:
 578:src/main.cpp  **** 
 2556              		.loc 6 578 40 view .LVU795
 578:src/main.cpp  **** 
 2557              		.loc 6 578 57 is_stmt 0 view .LVU796
 2558 0c7e F0EE002A 		vmov.f32	s5, #2.0e+0
 2559 0c82 BFEE002A 		vmov.f32	s4, #-1.0e+0
 2560 0c86 A0EE222A 		vfma.f32	s4, s0, s5
 2561              	.LVL178:
 578:src/main.cpp  **** 
 2562              		.loc 6 578 57 view .LVU797
 2563              	.LBE696:
 2564              	.LBE695:
 2565              	.LBE706:
 2566              	.LBE762:
 744:src/main.cpp  ****         float osc_oct = osc(s_phase_oct,VOICE.oct_wave)  * VOICE.oct_level;
 2567              		.loc 6 744 66 view .LVU798
 2568 0c8a DDED152A 		vldr.32	s5, [sp, #84]
 2569 0c8e 22EE222A 		vmul.f32	s4, s4, s5
ARM GAS  /tmp/claude-502/ccZj3JyB.s 			page 79


 2570              	.LBB763:
 2571              	.LBB707:
 586:src/main.cpp  ****         case WAVE_TRI:
 2572              		.loc 6 586 44 view .LVU799
 2573 0c92 D4E6     		b	.L58
 2574              	.L51:
 585:src/main.cpp  ****         case WAVE_SAW:    return osc_saw(ph);
 2575              		.loc 6 585 9 is_stmt 1 view .LVU800
 585:src/main.cpp  ****         case WAVE_SAW:    return osc_saw(ph);
 2576              		.loc 6 585 27 view .LVU801
 2577              	.LVL179:
 2578              	.LBB697:
 2579              	.LBI697:
 577:src/main.cpp  **** static inline float osc_saw(float ph){ return 2.0f*ph - 1.0f; }
 2580              		.loc 6 577 21 view .LVU802
 2581              	.LBB698:
 577:src/main.cpp  **** static inline float osc_saw(float ph){ return 2.0f*ph - 1.0f; }
 2582              		.loc 6 577 43 view .LVU803
 577:src/main.cpp  **** static inline float osc_saw(float ph){ return 2.0f*ph - 1.0f; }
 2583              		.loc 6 577 58 is_stmt 0 view .LVU804
 2584 0c94 F6EE002A 		vmov.f32	s5, #5.0e-1
 2585 0c98 B4EEE20A 		vcmpe.f32	s0, s5
 2586 0c9c F1EE10FA 		vmrs	APSR_nzcv, FPSCR
 2587 0ca0 00F13C81 		bmi	.L120
 2588 0ca4 DDED152A 		vldr.32	s5, [sp, #84]
 2589 0ca8 B1EE622A 		vneg.f32	s4, s5
 2590 0cac C7E6     		b	.L58
 2591              	.LVL180:
 2592              	.L188:
 577:src/main.cpp  **** static inline float osc_saw(float ph){ return 2.0f*ph - 1.0f; }
 2593              		.loc 6 577 58 view .LVU805
 2594              	.LBE698:
 2595              	.LBE697:
 2596              	.LBE707:
 2597              	.LBE763:
 2598              	.LBB764:
 2599              	.LBB676:
 584:src/main.cpp  ****         case WAVE_SQUARE: return osc_square(ph);
 2600              		.loc 6 584 9 is_stmt 1 view .LVU806
 584:src/main.cpp  ****         case WAVE_SQUARE: return osc_square(ph);
 2601              		.loc 6 584 27 view .LVU807
 2602              	.LBB665:
 2603              	.LBI665:
 569:src/main.cpp  ****     constexpr float PI = 3.14159265f;
 2604              		.loc 6 569 21 view .LVU808
 2605              	.LBB666:
 570:src/main.cpp  ****     float x = ph*2.0f*PI - PI;                 // -ŽĆ..ŽĆ (angle shifted by ŽĆ)
 2606              		.loc 6 570 5 view .LVU809
 571:src/main.cpp  ****     float y = 1.27323954f*x - 0.405284735f*x*(x<0?-x:x);
 2607              		.loc 6 571 5 view .LVU810
 571:src/main.cpp  ****     float y = 1.27323954f*x - 0.405284735f*x*(x<0?-x:x);
 2608              		.loc 6 571 17 is_stmt 0 view .LVU811
 2609 0cae 78EEA81A 		vadd.f32	s3, s17, s17
 571:src/main.cpp  ****     float y = 1.27323954f*x - 0.405284735f*x*(x<0?-x:x);
 2610              		.loc 6 571 11 view .LVU812
 2611 0cb2 9FED2C2A 		vldr.32	s4, .L200+40
 2612 0cb6 DFED2C2A 		vldr.32	s5, .L200+44
ARM GAS  /tmp/claude-502/ccZj3JyB.s 			page 80


 2613 0cba E1EE822A 		vfma.f32	s5, s3, s4
 2614              	.LVL181:
 572:src/main.cpp  ****     y = 0.225f*(y*(y<0?-y:y) - y) + y;         // one refinement pass
 2615              		.loc 6 572 5 is_stmt 1 view .LVU813
 572:src/main.cpp  ****     y = 0.225f*(y*(y<0?-y:y) - y) + y;         // one refinement pass
 2616              		.loc 6 572 26 is_stmt 0 view .LVU814
 2617 0cbe DFED2B1A 		vldr.32	s3, .L200+48
 572:src/main.cpp  ****     y = 0.225f*(y*(y<0?-y:y) - y) + y;         // one refinement pass
 2618              		.loc 6 572 43 view .LVU815
 2619 0cc2 9FED2B2A 		vldr.32	s4, .L200+52
 572:src/main.cpp  ****     y = 0.225f*(y*(y<0?-y:y) - y) + y;         // one refinement pass
 2620              		.loc 6 572 50 view .LVU816
 2621 0cc6 F5EEC02A 		vcmpe.f32	s5, #0
 572:src/main.cpp  ****     y = 0.225f*(y*(y<0?-y:y) - y) + y;         // one refinement pass
 2622              		.loc 6 572 43 view .LVU817
 2623 0cca 22EE822A 		vmul.f32	s4, s5, s4
 572:src/main.cpp  ****     y = 0.225f*(y*(y<0?-y:y) - y) + y;         // one refinement pass
 2624              		.loc 6 572 26 view .LVU818
 2625 0cce 62EEA11A 		vmul.f32	s3, s5, s3
 572:src/main.cpp  ****     y = 0.225f*(y*(y<0?-y:y) - y) + y;         // one refinement pass
 2626              		.loc 6 572 50 view .LVU819
 2627 0cd2 F1EE10FA 		vmrs	APSR_nzcv, FPSCR
 2628 0cd6 48BF     		it	mi
 2629 0cd8 F1EE622A 		vnegmi.f32	s5, s5
 2630              	.LVL182:
 572:src/main.cpp  ****     y = 0.225f*(y*(y<0?-y:y) - y) + y;         // one refinement pass
 2631              		.loc 6 572 11 view .LVU820
 2632 0cdc E2EE621A 		vfms.f32	s3, s4, s5
 2633              	.LVL183:
 573:src/main.cpp  ****     return -y;                                 // undo the ŽĆ shift: sin(x+ŽĆ) = -sin(x)
 2634              		.loc 6 573 5 is_stmt 1 view .LVU821
 573:src/main.cpp  ****     return -y;                                 // undo the ŽĆ shift: sin(x+ŽĆ) = -sin(x)
 2635              		.loc 6 573 23 is_stmt 0 view .LVU822
 2636 0ce0 F5EEC01A 		vcmpe.f32	s3, #0
 2637 0ce4 F1EE612A 		vneg.f32	s5, s3
 2638 0ce8 F1EE10FA 		vmrs	APSR_nzcv, FPSCR
 2639 0cec 54BF     		ite	pl
 2640 0cee B0EE612A 		vmovpl.f32	s4, s3
 2641 0cf2 B0EE622A 		vmovmi.f32	s4, s5
 573:src/main.cpp  ****     return -y;                                 // undo the ŽĆ shift: sin(x+ŽĆ) = -sin(x)
 2642              		.loc 6 573 30 view .LVU823
 2643 0cf6 E1EE822A 		vfma.f32	s5, s3, s4
 573:src/main.cpp  ****     return -y;                                 // undo the ŽĆ shift: sin(x+ŽĆ) = -sin(x)
 2644              		.loc 6 573 7 view .LVU824
 2645 0cfa 9FED1E2A 		vldr.32	s4, .L200+56
 2646 0cfe E2EE821A 		vfma.f32	s3, s5, s4
 2647              	.LVL184:
 574:src/main.cpp  **** }
 2648              		.loc 6 574 5 is_stmt 1 view .LVU825
 574:src/main.cpp  **** }
 2649              		.loc 6 574 5 is_stmt 0 view .LVU826
 2650              	.LBE666:
 2651              	.LBE665:
 2652              	.LBE676:
 2653              	.LBE764:
 743:src/main.cpp  ****         float sub     = osc(s_phase_sub,VOICE.sub_wave)  * VOICE.sub_level;
 2654              		.loc 6 743 66 view .LVU827
ARM GAS  /tmp/claude-502/ccZj3JyB.s 			page 81


 2655 0d02 DDED142A 		vldr.32	s5, [sp, #80]
 2656 0d06 61EEE21A 		vnmul.f32	s3, s3, s5
 2657              	.LBB765:
 2658              	.LBB677:
 584:src/main.cpp  ****         case WAVE_SQUARE: return osc_square(ph);
 2659              		.loc 6 584 45 view .LVU828
 2660 0d0a 7AE6     		b	.L48
 2661              	.LVL185:
 2662              	.L41:
 585:src/main.cpp  ****         case WAVE_SAW:    return osc_saw(ph);
 2663              		.loc 6 585 9 is_stmt 1 view .LVU829
 585:src/main.cpp  ****         case WAVE_SAW:    return osc_saw(ph);
 2664              		.loc 6 585 27 view .LVU830
 2665              	.LBB667:
 2666              	.LBI667:
 577:src/main.cpp  **** static inline float osc_saw(float ph){ return 2.0f*ph - 1.0f; }
 2667              		.loc 6 577 21 view .LVU831
 2668              	.LBB668:
 577:src/main.cpp  **** static inline float osc_saw(float ph){ return 2.0f*ph - 1.0f; }
 2669              		.loc 6 577 43 view .LVU832
 577:src/main.cpp  **** static inline float osc_saw(float ph){ return 2.0f*ph - 1.0f; }
 2670              		.loc 6 577 58 is_stmt 0 view .LVU833
 2671 0d0c F6EE002A 		vmov.f32	s5, #5.0e-1
 2672 0d10 F4EEE28A 		vcmpe.f32	s17, s5
 2673 0d14 F1EE10FA 		vmrs	APSR_nzcv, FPSCR
 2674 0d18 00F10381 		bmi	.L118
 2675 0d1c DDED142A 		vldr.32	s5, [sp, #80]
 2676 0d20 F1EE621A 		vneg.f32	s3, s5
 2677 0d24 6DE6     		b	.L48
 2678              	.LVL186:
 2679              	.L42:
 577:src/main.cpp  **** static inline float osc_saw(float ph){ return 2.0f*ph - 1.0f; }
 2680              		.loc 6 577 58 view .LVU834
 2681              	.LBE668:
 2682              	.LBE667:
 586:src/main.cpp  ****         case WAVE_TRI:
 2683              		.loc 6 586 9 is_stmt 1 view .LVU835
 586:src/main.cpp  ****         case WAVE_TRI:
 2684              		.loc 6 586 27 view .LVU836
 2685              	.LBB670:
 2686              	.LBI670:
 578:src/main.cpp  **** 
 2687              		.loc 6 578 21 view .LVU837
 2688              	.LBB671:
 578:src/main.cpp  **** 
 2689              		.loc 6 578 40 view .LVU838
 578:src/main.cpp  **** 
 2690              		.loc 6 578 57 is_stmt 0 view .LVU839
 2691 0d26 F0EE002A 		vmov.f32	s5, #2.0e+0
 2692 0d2a FFEE001A 		vmov.f32	s3, #-1.0e+0
 2693 0d2e E8EEA21A 		vfma.f32	s3, s17, s5
 2694              	.LVL187:
 578:src/main.cpp  **** 
 2695              		.loc 6 578 57 view .LVU840
 2696              	.LBE671:
 2697              	.LBE670:
 2698              	.LBE677:
ARM GAS  /tmp/claude-502/ccZj3JyB.s 			page 82


 2699              	.LBE765:
 743:src/main.cpp  ****         float sub     = osc(s_phase_sub,VOICE.sub_wave)  * VOICE.sub_level;
 2700              		.loc 6 743 66 view .LVU841
 2701 0d32 DDED142A 		vldr.32	s5, [sp, #80]
 2702 0d36 61EEA21A 		vmul.f32	s3, s3, s5
 2703              	.LBB766:
 2704              	.LBB678:
 586:src/main.cpp  ****         case WAVE_TRI:
 2705              		.loc 6 586 44 view .LVU842
 2706 0d3a 62E6     		b	.L48
 2707              	.L201:
 2708              		.align	2
 2709              	.L200:
 2710 0d3c 00000000 		.word	.LANCHOR29
 2711 0d40 00000000 		.word	.LANCHOR30
 2712 0d44 00000000 		.word	.LANCHOR31
 2713 0d48 00000000 		.word	.LANCHOR32
 2714 0d4c 00000000 		.word	.LANCHOR33
 2715 0d50 00002042 		.word	1109393408
 2716 0d54 77BE7F3F 		.word	1065336439
 2717 0d58 00481D3A 		.word	974997504
 2718 0d5c AED87F3F 		.word	1065343150
 2719 0d60 00401C47 		.word	1193033728
 2720 0d64 DB0F4940 		.word	1078530011
 2721 0d68 DB0F49C0 		.word	-1068953637
 2722 0d6c 83F9A23F 		.word	1067645315
 2723 0d70 7B81CF3E 		.word	1053786491
 2724 0d74 6666663E 		.word	1046898278
 2725 0d78 00000000 		.word	0
 2726              	.LVL188:
 2727              	.L31:
 586:src/main.cpp  ****         case WAVE_TRI:
 2728              		.loc 6 586 44 view .LVU843
 2729              	.LBE678:
 2730              	.LBE766:
 2731              	.LBB767:
 2732              	.LBB650:
 585:src/main.cpp  ****         case WAVE_SAW:    return osc_saw(ph);
 2733              		.loc 6 585 9 is_stmt 1 view .LVU844
 585:src/main.cpp  ****         case WAVE_SAW:    return osc_saw(ph);
 2734              		.loc 6 585 27 view .LVU845
 2735              	.LBB641:
 2736              	.LBI641:
 577:src/main.cpp  **** static inline float osc_saw(float ph){ return 2.0f*ph - 1.0f; }
 2737              		.loc 6 577 21 view .LVU846
 2738              	.LBB642:
 577:src/main.cpp  **** static inline float osc_saw(float ph){ return 2.0f*ph - 1.0f; }
 2739              		.loc 6 577 43 view .LVU847
 577:src/main.cpp  **** static inline float osc_saw(float ph){ return 2.0f*ph - 1.0f; }
 2740              		.loc 6 577 58 is_stmt 0 view .LVU848
 2741 0d7c F6EE007A 		vmov.f32	s15, #5.0e-1
 2742 0d80 B4EEE79A 		vcmpe.f32	s18, s15
 2743 0d84 DDED137A 		vldr.32	s15, [sp, #76]
 2744 0d88 F1EE10FA 		vmrs	APSR_nzcv, FPSCR
 2745 0d8c 3FF518AE 		bmi	.L38
 2746 0d90 F1EE677A 		vneg.f32	s15, s15
 2747 0d94 14E6     		b	.L38
ARM GAS  /tmp/claude-502/ccZj3JyB.s 			page 83


 2748              	.LVL189:
 2749              	.L127:
 577:src/main.cpp  **** static inline float osc_saw(float ph){ return 2.0f*ph - 1.0f; }
 2750              		.loc 6 577 58 view .LVU849
 2751              	.LBE642:
 2752              	.LBE641:
 2753              	.LBE650:
 2754              	.LBE767:
 2755              	.LBB768:
 2756              	.LBB569:
 2757 0d96 5FED0E5A 		vldr.32	s11, .L200+36
 2758              	.LVL190:
 577:src/main.cpp  **** static inline float osc_saw(float ph){ return 2.0f*ph - 1.0f; }
 2759              		.loc 6 577 58 view .LVU850
 2760 0d9a FFF777BA 		b	.L77
 2761              	.LVL191:
 2762              	.L187:
 577:src/main.cpp  **** static inline float osc_saw(float ph){ return 2.0f*ph - 1.0f; }
 2763              		.loc 6 577 58 view .LVU851
 2764              	.LBE569:
 2765              	.LBE768:
 2766              	.LBB769:
 2767              	.LBB651:
 584:src/main.cpp  ****         case WAVE_SQUARE: return osc_square(ph);
 2768              		.loc 6 584 9 is_stmt 1 view .LVU852
 584:src/main.cpp  ****         case WAVE_SQUARE: return osc_square(ph);
 2769              		.loc 6 584 27 view .LVU853
 2770              	.LBB643:
 2771              	.LBI643:
 569:src/main.cpp  ****     constexpr float PI = 3.14159265f;
 2772              		.loc 6 569 21 view .LVU854
 2773              	.LBB644:
 570:src/main.cpp  ****     float x = ph*2.0f*PI - PI;                 // -ŽĆ..ŽĆ (angle shifted by ŽĆ)
 2774              		.loc 6 570 5 view .LVU855
 571:src/main.cpp  ****     float y = 1.27323954f*x - 0.405284735f*x*(x<0?-x:x);
 2775              		.loc 6 571 5 view .LVU856
 571:src/main.cpp  ****     float y = 1.27323954f*x - 0.405284735f*x*(x<0?-x:x);
 2776              		.loc 6 571 17 is_stmt 0 view .LVU857
 2777 0d9e 39EE092A 		vadd.f32	s4, s18, s18
 571:src/main.cpp  ****     float y = 1.27323954f*x - 0.405284735f*x*(x<0?-x:x);
 2778              		.loc 6 571 11 view .LVU858
 2779 0da2 5FED107A 		vldr.32	s15, .L200+40
 2780 0da6 5FED102A 		vldr.32	s5, .L200+44
 2781 0daa E2EE272A 		vfma.f32	s5, s4, s15
 2782              	.LVL192:
 572:src/main.cpp  ****     y = 0.225f*(y*(y<0?-y:y) - y) + y;         // one refinement pass
 2783              		.loc 6 572 5 is_stmt 1 view .LVU859
 572:src/main.cpp  ****     y = 0.225f*(y*(y<0?-y:y) - y) + y;         // one refinement pass
 2784              		.loc 6 572 26 is_stmt 0 view .LVU860
 2785 0dae 5FED117A 		vldr.32	s15, .L200+48
 572:src/main.cpp  ****     y = 0.225f*(y*(y<0?-y:y) - y) + y;         // one refinement pass
 2786              		.loc 6 572 43 view .LVU861
 2787 0db2 1FED112A 		vldr.32	s4, .L200+52
 572:src/main.cpp  ****     y = 0.225f*(y*(y<0?-y:y) - y) + y;         // one refinement pass
 2788              		.loc 6 572 50 view .LVU862
 2789 0db6 F5EEC02A 		vcmpe.f32	s5, #0
 572:src/main.cpp  ****     y = 0.225f*(y*(y<0?-y:y) - y) + y;         // one refinement pass
ARM GAS  /tmp/claude-502/ccZj3JyB.s 			page 84


 2790              		.loc 6 572 43 view .LVU863
 2791 0dba 22EE822A 		vmul.f32	s4, s5, s4
 572:src/main.cpp  ****     y = 0.225f*(y*(y<0?-y:y) - y) + y;         // one refinement pass
 2792              		.loc 6 572 26 view .LVU864
 2793 0dbe 62EEA77A 		vmul.f32	s15, s5, s15
 572:src/main.cpp  ****     y = 0.225f*(y*(y<0?-y:y) - y) + y;         // one refinement pass
 2794              		.loc 6 572 50 view .LVU865
 2795 0dc2 F1EE10FA 		vmrs	APSR_nzcv, FPSCR
 2796 0dc6 48BF     		it	mi
 2797 0dc8 F1EE622A 		vnegmi.f32	s5, s5
 2798              	.LVL193:
 572:src/main.cpp  ****     y = 0.225f*(y*(y<0?-y:y) - y) + y;         // one refinement pass
 2799              		.loc 6 572 11 view .LVU866
 2800 0dcc E2EE627A 		vfms.f32	s15, s4, s5
 2801              	.LVL194:
 573:src/main.cpp  ****     return -y;                                 // undo the ŽĆ shift: sin(x+ŽĆ) = -sin(x)
 2802              		.loc 6 573 5 is_stmt 1 view .LVU867
 573:src/main.cpp  ****     return -y;                                 // undo the ŽĆ shift: sin(x+ŽĆ) = -sin(x)
 2803              		.loc 6 573 23 is_stmt 0 view .LVU868
 2804 0dd0 F5EEC07A 		vcmpe.f32	s15, #0
 2805 0dd4 F1EE672A 		vneg.f32	s5, s15
 2806 0dd8 F1EE10FA 		vmrs	APSR_nzcv, FPSCR
 2807 0ddc 54BF     		ite	pl
 2808 0dde B0EE672A 		vmovpl.f32	s4, s15
 2809 0de2 B0EE622A 		vmovmi.f32	s4, s5
 573:src/main.cpp  ****     return -y;                                 // undo the ŽĆ shift: sin(x+ŽĆ) = -sin(x)
 2810              		.loc 6 573 30 view .LVU869
 2811 0de6 E7EE822A 		vfma.f32	s5, s15, s4
 573:src/main.cpp  ****     return -y;                                 // undo the ŽĆ shift: sin(x+ŽĆ) = -sin(x)
 2812              		.loc 6 573 7 view .LVU870
 2813 0dea 1FED1E2A 		vldr.32	s4, .L200+56
 2814 0dee E2EE827A 		vfma.f32	s15, s5, s4
 2815              	.LVL195:
 574:src/main.cpp  **** }
 2816              		.loc 6 574 5 is_stmt 1 view .LVU871
 574:src/main.cpp  **** }
 2817              		.loc 6 574 5 is_stmt 0 view .LVU872
 2818              	.LBE644:
 2819              	.LBE643:
 2820              	.LBE651:
 2821              	.LBE769:
 742:src/main.cpp  ****         float osc2    = osc(s_phase2,   VOICE.osc2_wave) * VOICE.osc2_level;
 2822              		.loc 6 742 66 view .LVU873
 2823 0df2 DDED132A 		vldr.32	s5, [sp, #76]
 2824 0df6 67EEE27A 		vnmul.f32	s15, s15, s5
 2825              	.LBB770:
 2826              	.LBB652:
 584:src/main.cpp  ****         case WAVE_SQUARE: return osc_square(ph);
 2827              		.loc 6 584 45 view .LVU874
 2828 0dfa E1E5     		b	.L38
 2829              	.LVL196:
 2830              	.L32:
 586:src/main.cpp  ****         case WAVE_TRI:
 2831              		.loc 6 586 9 is_stmt 1 view .LVU875
 586:src/main.cpp  ****         case WAVE_TRI:
 2832              		.loc 6 586 27 view .LVU876
 2833              	.LBB645:
ARM GAS  /tmp/claude-502/ccZj3JyB.s 			page 85


 2834              	.LBI645:
 578:src/main.cpp  **** 
 2835              		.loc 6 578 21 view .LVU877
 2836              	.LBB646:
 578:src/main.cpp  **** 
 2837              		.loc 6 578 40 view .LVU878
 578:src/main.cpp  **** 
 2838              		.loc 6 578 57 is_stmt 0 view .LVU879
 2839 0dfc F0EE002A 		vmov.f32	s5, #2.0e+0
 2840 0e00 FFEE007A 		vmov.f32	s15, #-1.0e+0
 2841 0e04 E9EE227A 		vfma.f32	s15, s18, s5
 2842              	.LVL197:
 578:src/main.cpp  **** 
 2843              		.loc 6 578 57 view .LVU880
 2844              	.LBE646:
 2845              	.LBE645:
 2846              	.LBE652:
 2847              	.LBE770:
 742:src/main.cpp  ****         float osc2    = osc(s_phase2,   VOICE.osc2_wave) * VOICE.osc2_level;
 2848              		.loc 6 742 66 view .LVU881
 2849 0e08 DDED132A 		vldr.32	s5, [sp, #76]
 2850 0e0c 67EEA27A 		vmul.f32	s15, s15, s5
 2851              	.LBB771:
 2852              	.LBB653:
 586:src/main.cpp  ****         case WAVE_TRI:
 2853              		.loc 6 586 44 view .LVU882
 2854 0e10 D6E5     		b	.L38
 2855              	.LVL198:
 2856              	.L190:
 586:src/main.cpp  ****         case WAVE_TRI:
 2857              		.loc 6 586 44 view .LVU883
 2858              	.LBE653:
 2859              	.LBE771:
 2860              	.LBB772:
 2861              	.LBB731:
 584:src/main.cpp  ****         case WAVE_SQUARE: return osc_square(ph);
 2862              		.loc 6 584 9 is_stmt 1 view .LVU884
 584:src/main.cpp  ****         case WAVE_SQUARE: return osc_square(ph);
 2863              		.loc 6 584 27 view .LVU885
 2864              	.LBB722:
 2865              	.LBI722:
 569:src/main.cpp  ****     constexpr float PI = 3.14159265f;
 2866              		.loc 6 569 21 view .LVU886
 2867              	.LBB723:
 570:src/main.cpp  ****     float x = ph*2.0f*PI - PI;                 // -ŽĆ..ŽĆ (angle shifted by ŽĆ)
 2868              		.loc 6 570 5 view .LVU887
 571:src/main.cpp  ****     float y = 1.27323954f*x - 0.405284735f*x*(x<0?-x:x);
 2869              		.loc 6 571 5 view .LVU888
 571:src/main.cpp  ****     float y = 1.27323954f*x - 0.405284735f*x*(x<0?-x:x);
 2870              		.loc 6 571 17 is_stmt 0 view .LVU889
 2871 0e12 70EEA0FA 		vadd.f32	s31, s1, s1
 571:src/main.cpp  ****     float y = 1.27323954f*x - 0.405284735f*x*(x<0?-x:x);
 2872              		.loc 6 571 11 view .LVU890
 2873 0e16 5FED2D2A 		vldr.32	s5, .L200+40
 2874 0e1a 1FED2DFA 		vldr.32	s30, .L200+44
 2875 0e1e AFEEA2FA 		vfma.f32	s30, s31, s5
 2876              	.LVL199:
ARM GAS  /tmp/claude-502/ccZj3JyB.s 			page 86


 572:src/main.cpp  ****     y = 0.225f*(y*(y<0?-y:y) - y) + y;         // one refinement pass
 2877              		.loc 6 572 5 is_stmt 1 view .LVU891
 572:src/main.cpp  ****     y = 0.225f*(y*(y<0?-y:y) - y) + y;         // one refinement pass
 2878              		.loc 6 572 26 is_stmt 0 view .LVU892
 2879 0e22 5FED2E2A 		vldr.32	s5, .L200+48
 572:src/main.cpp  ****     y = 0.225f*(y*(y<0?-y:y) - y) + y;         // one refinement pass
 2880              		.loc 6 572 43 view .LVU893
 2881 0e26 5FED2EFA 		vldr.32	s31, .L200+52
 572:src/main.cpp  ****     y = 0.225f*(y*(y<0?-y:y) - y) + y;         // one refinement pass
 2882              		.loc 6 572 50 view .LVU894
 2883 0e2a B5EEC0FA 		vcmpe.f32	s30, #0
 572:src/main.cpp  ****     y = 0.225f*(y*(y<0?-y:y) - y) + y;         // one refinement pass
 2884              		.loc 6 572 43 view .LVU895
 2885 0e2e 6FEE2FFA 		vmul.f32	s31, s30, s31
 572:src/main.cpp  ****     y = 0.225f*(y*(y<0?-y:y) - y) + y;         // one refinement pass
 2886              		.loc 6 572 26 view .LVU896
 2887 0e32 6FEE222A 		vmul.f32	s5, s30, s5
 572:src/main.cpp  ****     y = 0.225f*(y*(y<0?-y:y) - y) + y;         // one refinement pass
 2888              		.loc 6 572 50 view .LVU897
 2889 0e36 F1EE10FA 		vmrs	APSR_nzcv, FPSCR
 2890 0e3a 48BF     		it	mi
 2891 0e3c B1EE4FFA 		vnegmi.f32	s30, s30
 2892              	.LVL200:
 572:src/main.cpp  ****     y = 0.225f*(y*(y<0?-y:y) - y) + y;         // one refinement pass
 2893              		.loc 6 572 11 view .LVU898
 2894 0e40 EFEECF2A 		vfms.f32	s5, s31, s30
 2895              	.LVL201:
 573:src/main.cpp  ****     return -y;                                 // undo the ŽĆ shift: sin(x+ŽĆ) = -sin(x)
 2896              		.loc 6 573 5 is_stmt 1 view .LVU899
 573:src/main.cpp  ****     return -y;                                 // undo the ŽĆ shift: sin(x+ŽĆ) = -sin(x)
 2897              		.loc 6 573 23 is_stmt 0 view .LVU900
 2898 0e44 F5EEC02A 		vcmpe.f32	s5, #0
 2899 0e48 B1EE62FA 		vneg.f32	s30, s5
 2900 0e4c F1EE10FA 		vmrs	APSR_nzcv, FPSCR
 2901 0e50 54BF     		ite	pl
 2902 0e52 F0EE62FA 		vmovpl.f32	s31, s5
 2903 0e56 F0EE4FFA 		vmovmi.f32	s31, s30
 573:src/main.cpp  ****     return -y;                                 // undo the ŽĆ shift: sin(x+ŽĆ) = -sin(x)
 2904              		.loc 6 573 30 view .LVU901
 2905 0e5a A2EEAFFA 		vfma.f32	s30, s5, s31
 573:src/main.cpp  ****     return -y;                                 // undo the ŽĆ shift: sin(x+ŽĆ) = -sin(x)
 2906              		.loc 6 573 7 view .LVU902
 2907 0e5e 5FED3BFA 		vldr.32	s31, .L200+56
 2908 0e62 EFEE2F2A 		vfma.f32	s5, s30, s31
 2909              	.LVL202:
 574:src/main.cpp  **** }
 2910              		.loc 6 574 5 is_stmt 1 view .LVU903
 574:src/main.cpp  **** }
 2911              		.loc 6 574 5 is_stmt 0 view .LVU904
 2912              	.LBE723:
 2913              	.LBE722:
 2914              	.LBE731:
 2915              	.LBE772:
 745:src/main.cpp  **** 
 2916              		.loc 6 745 66 view .LVU905
 2917 0e66 9DED16FA 		vldr.32	s30, [sp, #88]
 2918 0e6a 62EECF2A 		vnmul.f32	s5, s5, s30
ARM GAS  /tmp/claude-502/ccZj3JyB.s 			page 87


 2919              	.LBB773:
 2920              	.LBB732:
 584:src/main.cpp  ****         case WAVE_SQUARE: return osc_square(ph);
 2921              		.loc 6 584 45 view .LVU906
 2922 0e6e 05E6     		b	.L68
 2923              	.LVL203:
 2924              	.L62:
 586:src/main.cpp  ****         case WAVE_TRI:
 2925              		.loc 6 586 9 is_stmt 1 view .LVU907
 586:src/main.cpp  ****         case WAVE_TRI:
 2926              		.loc 6 586 27 view .LVU908
 2927              	.LBB724:
 2928              	.LBI724:
 578:src/main.cpp  **** 
 2929              		.loc 6 578 21 view .LVU909
 2930              	.LBB725:
 578:src/main.cpp  **** 
 2931              		.loc 6 578 40 view .LVU910
 578:src/main.cpp  **** 
 2932              		.loc 6 578 57 is_stmt 0 view .LVU911
 2933 0e70 B0EE00FA 		vmov.f32	s30, #2.0e+0
 2934 0e74 FFEE002A 		vmov.f32	s5, #-1.0e+0
 2935 0e78 E0EE8F2A 		vfma.f32	s5, s1, s30
 2936              	.LVL204:
 578:src/main.cpp  **** 
 2937              		.loc 6 578 57 view .LVU912
 2938              	.LBE725:
 2939              	.LBE724:
 2940              	.LBE732:
 2941              	.LBE773:
 745:src/main.cpp  **** 
 2942              		.loc 6 745 66 view .LVU913
 2943 0e7c 9DED16FA 		vldr.32	s30, [sp, #88]
 2944 0e80 62EE8F2A 		vmul.f32	s5, s5, s30
 2945              	.LBB774:
 2946              	.LBB733:
 586:src/main.cpp  ****         case WAVE_TRI:
 2947              		.loc 6 586 44 view .LVU914
 2948 0e84 FAE5     		b	.L68
 2949              	.LVL205:
 2950              	.L125:
 586:src/main.cpp  ****         case WAVE_TRI:
 2951              		.loc 6 586 44 view .LVU915
 2952              	.LBE733:
 2953              	.LBE774:
 2954              	.LBB775:
 2955              	.LBB747:
 478:src/main.cpp  ****     float x2=x*x;
 2956              		.loc 6 478 24 view .LVU916
 2957 0e86 BFEE006A 		vmov.f32	s12, #-1.0e+0
 2958 0e8a 4FE6     		b	.L76
 2959              	.LVL206:
 2960              	.L141:
 478:src/main.cpp  ****     float x2=x*x;
 2961              		.loc 6 478 24 view .LVU917
 2962              	.LBE747:
 2963              	.LBE775:
ARM GAS  /tmp/claude-502/ccZj3JyB.s 			page 88


 2964              	.LBB776:
 2965              	.LBB560:
 2966              	.LBB544:
 2967              	.LBB526:
 2968 0e8c BFEE006A 		vmov.f32	s12, #-1.0e+0
 2969 0e90 FFF7FCBA 		b	.L86
 2970              	.LVL207:
 2971              	.L143:
 478:src/main.cpp  ****     float x2=x*x;
 2972              		.loc 6 478 24 view .LVU918
 2973              	.LBE526:
 2974              	.LBE544:
 2975              	.LBB545:
 2976              	.LBB533:
 2977 0e94 FFEE004A 		vmov.f32	s9, #-1.0e+0
 2978 0e98 FFF718BB 		b	.L87
 2979              	.LVL208:
 2980              	.L186:
 478:src/main.cpp  ****     float x2=x*x;
 2981              		.loc 6 478 24 view .LVU919
 2982 0e9c B1EE477A 		vneg.f32	s14, s14
 2983 0ea0 FFF782BB 		b	.L89
 2984              	.LVL209:
 2985              	.L131:
 478:src/main.cpp  ****     float x2=x*x;
 2986              		.loc 6 478 24 view .LVU920
 2987              	.LBE533:
 2988              	.LBE545:
 2989              	.LBB546:
 2990              	.LBB488:
 2991 0ea4 BFEE002A 		vmov.f32	s4, #-1.0e+0
 2992 0ea8 FFF73EBA 		b	.L81
 2993              	.LVL210:
 2994              	.L129:
 478:src/main.cpp  ****     float x2=x*x;
 2995              		.loc 6 478 24 view .LVU921
 2996              	.LBE488:
 2997              	.LBE546:
 2998              	.LBB547:
 2999              	.LBB481:
 3000 0eac FFEE005A 		vmov.f32	s11, #-1.0e+0
 3001 0eb0 FFF71ABA 		b	.L80
 3002              	.LVL211:
 3003              	.L135:
 478:src/main.cpp  ****     float x2=x*x;
 3004              		.loc 6 478 24 view .LVU922
 3005              	.LBE481:
 3006              	.LBE547:
 3007              	.LBB548:
 3008              	.LBB505:
 3009 0eb4 FFEE003A 		vmov.f32	s7, #-1.0e+0
 3010 0eb8 FFF77CBA 		b	.L83
 3011              	.LVL212:
 3012              	.L133:
 478:src/main.cpp  ****     float x2=x*x;
 3013              		.loc 6 478 24 view .LVU923
 3014              	.LBE505:
ARM GAS  /tmp/claude-502/ccZj3JyB.s 			page 89


 3015              	.LBE548:
 3016              	.LBB549:
 3017              	.LBB496:
 3018 0ebc BFEE006A 		vmov.f32	s12, #-1.0e+0
 3019 0ec0 FFF758BA 		b	.L82
 3020              	.LVL213:
 3021              	.L139:
 478:src/main.cpp  ****     float x2=x*x;
 3022              		.loc 6 478 24 view .LVU924
 3023              	.LBE496:
 3024              	.LBE549:
 3025              	.LBB550:
 3026              	.LBB519:
 3027 0ec4 BFEE004A 		vmov.f32	s8, #-1.0e+0
 3028 0ec8 FFF7BABA 		b	.L85
 3029              	.LVL214:
 3030              	.L137:
 478:src/main.cpp  ****     float x2=x*x;
 3031              		.loc 6 478 24 view .LVU925
 3032              	.LBE519:
 3033              	.LBE550:
 3034              	.LBB551:
 3035              	.LBB512:
 3036 0ecc BFEE006A 		vmov.f32	s12, #-1.0e+0
 3037 0ed0 FFF796BA 		b	.L84
 3038              	.LVL215:
 3039              	.L172:
 478:src/main.cpp  ****     float x2=x*x;
 3040              		.loc 6 478 24 view .LVU926
 3041              	.LBE512:
 3042              	.LBE551:
 3043              	.LBE560:
 3044              	.LBE776:
 3045              	.LBB777:
 3046              	.LBB708:
 3047              	.LBB700:
 3048              	.LBB689:
 3049              	.LBB688:
 566:src/main.cpp  **** }
 3050              		.loc 6 566 19 view .LVU927
 3051 0ed4 B0EE082A 		vmov.f32	s4, #3.0e+0
 3052 0ed8 A0EE622A 		vfms.f32	s4, s0, s5
 3053              	.LBE688:
 3054              	.LBE689:
 3055              	.LBE700:
 3056              	.LBE708:
 3057              	.LBE777:
 744:src/main.cpp  ****         float osc_oct = osc(s_phase_oct,VOICE.oct_wave)  * VOICE.oct_level;
 3058              		.loc 6 744 66 view .LVU928
 3059 0edc DDED152A 		vldr.32	s5, [sp, #84]
 3060 0ee0 22EE222A 		vmul.f32	s4, s4, s5
 3061 0ee4 ABE5     		b	.L58
 3062              	.LVL216:
 3063              	.L174:
 3064              	.LBB778:
 3065              	.LBB734:
 3066              	.LBB726:
ARM GAS  /tmp/claude-502/ccZj3JyB.s 			page 90


 3067              	.LBB718:
 3068              	.LBB717:
 566:src/main.cpp  **** }
 3069              		.loc 6 566 19 view .LVU929
 3070 0ee6 F0EE082A 		vmov.f32	s5, #3.0e+0
 3071 0eea E0EECF2A 		vfms.f32	s5, s1, s30
 3072              	.LBE717:
 3073              	.LBE718:
 3074              	.LBE726:
 3075              	.LBE734:
 3076              	.LBE778:
 745:src/main.cpp  **** 
 3077              		.loc 6 745 66 view .LVU930
 3078 0eee 9DED16FA 		vldr.32	s30, [sp, #88]
 3079 0ef2 62EE8F2A 		vmul.f32	s5, s5, s30
 3080 0ef6 C1E5     		b	.L68
 3081              	.LVL217:
 3082              	.L170:
 3083              	.LBB779:
 3084              	.LBB679:
 3085              	.LBB672:
 3086              	.LBB663:
 3087              	.LBB662:
 566:src/main.cpp  **** }
 3088              		.loc 6 566 19 view .LVU931
 3089 0ef8 F0EE081A 		vmov.f32	s3, #3.0e+0
 3090 0efc E8EEE21A 		vfms.f32	s3, s17, s5
 3091              	.LBE662:
 3092              	.LBE663:
 3093              	.LBE672:
 3094              	.LBE679:
 3095              	.LBE779:
 743:src/main.cpp  ****         float sub     = osc(s_phase_sub,VOICE.sub_wave)  * VOICE.sub_level;
 3096              		.loc 6 743 66 view .LVU932
 3097 0f00 DDED142A 		vldr.32	s5, [sp, #80]
 3098 0f04 61EEA21A 		vmul.f32	s3, s3, s5
 3099 0f08 7BE5     		b	.L48
 3100              	.LVL218:
 3101              	.L168:
 3102              	.LBB780:
 3103              	.LBB654:
 3104              	.LBB647:
 3105              	.LBB639:
 3106              	.LBB638:
 566:src/main.cpp  **** }
 3107              		.loc 6 566 19 view .LVU933
 3108 0f0a F0EE087A 		vmov.f32	s15, #3.0e+0
 3109 0f0e E9EE627A 		vfms.f32	s15, s18, s5
 3110              	.LBE638:
 3111              	.LBE639:
 3112              	.LBE647:
 3113              	.LBE654:
 3114              	.LBE780:
 742:src/main.cpp  ****         float osc2    = osc(s_phase2,   VOICE.osc2_wave) * VOICE.osc2_level;
 3115              		.loc 6 742 66 view .LVU934
 3116 0f12 DDED132A 		vldr.32	s5, [sp, #76]
 3117 0f16 67EEA27A 		vmul.f32	s15, s15, s5
ARM GAS  /tmp/claude-502/ccZj3JyB.s 			page 91


 3118 0f1a 51E5     		b	.L38
 3119              	.LVL219:
 3120              	.L120:
 3121              	.LBB781:
 3122              	.LBB709:
 3123              	.LBB701:
 3124              	.LBB699:
 742:src/main.cpp  ****         float osc2    = osc(s_phase2,   VOICE.osc2_wave) * VOICE.osc2_level;
 3125              		.loc 6 742 66 view .LVU935
 3126 0f1c 9DED152A 		vldr.32	s4, [sp, #84]
 3127 0f20 8DE5     		b	.L58
 3128              	.LVL220:
 3129              	.L118:
 742:src/main.cpp  ****         float osc2    = osc(s_phase2,   VOICE.osc2_wave) * VOICE.osc2_level;
 3130              		.loc 6 742 66 view .LVU936
 3131              	.LBE699:
 3132              	.LBE701:
 3133              	.LBE709:
 3134              	.LBE781:
 3135              	.LBB782:
 3136              	.LBB680:
 3137              	.LBB673:
 3138              	.LBB669:
 3139 0f22 DDED141A 		vldr.32	s3, [sp, #80]
 3140 0f26 6CE5     		b	.L48
 3141              	.LVL221:
 3142              	.L3:
 742:src/main.cpp  ****         float osc2    = osc(s_phase2,   VOICE.osc2_wave) * VOICE.osc2_level;
 3143              		.loc 6 742 66 view .LVU937
 3144              	.LBE669:
 3145              	.LBE673:
 3146              	.LBE680:
 3147              	.LBE782:
 3148              	.LBE787:
 3149              	.LBE791:
 794:src/main.cpp  ****     }
 795:src/main.cpp  **** }
 3150              		.loc 6 795 1 view .LVU938
 3151 0f28 19B0     		add	sp, sp, #100
 3152              		.cfi_remember_state
 3153              		.cfi_def_cfa_offset 100
 3154              		@ sp needed
 3155 0f2a BDEC108B 		vldm	sp!, {d8-d15}
 3156              		.cfi_restore 94
 3157              		.cfi_restore 95
 3158              		.cfi_restore 92
 3159              		.cfi_restore 93
 3160              		.cfi_restore 90
 3161              		.cfi_restore 91
 3162              		.cfi_restore 88
 3163              		.cfi_restore 89
 3164              		.cfi_restore 86
 3165              		.cfi_restore 87
 3166              		.cfi_restore 84
 3167              		.cfi_restore 85
 3168              		.cfi_restore 82
 3169              		.cfi_restore 83
ARM GAS  /tmp/claude-502/ccZj3JyB.s 			page 92


 3170              		.cfi_restore 80
 3171              		.cfi_restore 81
 3172              		.cfi_def_cfa_offset 36
 3173              	.LVL222:
 3174              		.loc 6 795 1 view .LVU939
 3175 0f2e BDE8F08F 		pop	{r4, r5, r6, r7, r8, r9, r10, fp, pc}
 3176              	.LVL223:
 3177              	.L108:
 3178              		.cfi_restore_state
 3179              	.LBB792:
 3180              	.LBB453:
 559:src/main.cpp  ****     return expf(-1.0f / (ms * 0.001f * sr));
 3181              		.loc 6 559 27 view .LVU940
 3182 0f32 1FED6F0A 		vldr.32	s0, .L200+60
 3183              	.LVL224:
 559:src/main.cpp  ****     return expf(-1.0f / (ms * 0.001f * sr));
 3184              		.loc 6 559 27 view .LVU941
 3185 0f36 FFF7C8B8 		b	.L8
 3186              	.LVL225:
 3187              	.L107:
 559:src/main.cpp  ****     return expf(-1.0f / (ms * 0.001f * sr));
 3188              		.loc 6 559 27 view .LVU942
 3189              	.LBE453:
 3190              	.LBE792:
 641:src/main.cpp  **** 
 3191              		.loc 6 641 40 view .LVU943
 3192 0f3a 5FED717A 		vldr.32	s15, .L200+60
 3193              	.LVL226:
 641:src/main.cpp  **** 
 3194              		.loc 6 641 40 view .LVU944
 3195 0f3e CDED067A 		vstr.32	s15, [sp, #24]
 3196 0f42 FFF779B8 		b	.L4
 3197              	.LVL227:
 3198              	.L110:
 3199              	.LBB793:
 3200              	.LBB468:
 559:src/main.cpp  ****     return expf(-1.0f / (ms * 0.001f * sr));
 3201              		.loc 6 559 27 view .LVU945
 3202 0f46 1FED740A 		vldr.32	s0, .L200+60
 3203 0f4a FFF7F8B8 		b	.L10
 3204              	.LVL228:
 3205              	.L109:
 559:src/main.cpp  ****     return expf(-1.0f / (ms * 0.001f * sr));
 3206              		.loc 6 559 27 view .LVU946
 3207              	.LBE468:
 3208              	.LBE793:
 3209              	.LBB794:
 3210              	.LBB461:
 3211 0f4e 1FED760A 		vldr.32	s0, .L200+60
 3212 0f52 FFF7D7B8 		b	.L9
 3213              	.LBE461:
 3214              	.LBE794:
 3215              		.cfi_endproc
 3216              	.LFE2590:
 3218 0f56 00BF     		.section	.text._Z9i2c_startv,"ax",%progbits
 3219              		.align	1
 3220              		.p2align 2,,3
ARM GAS  /tmp/claude-502/ccZj3JyB.s 			page 93


 3221              		.global	_Z9i2c_startv
 3222              		.syntax unified
 3223              		.thumb
 3224              		.thumb_func
 3226              	_Z9i2c_startv:
 3227              	.LFB2566:
 293:src/main.cpp  **** void i2c_stop() {sda_low();d();scl_high();d();sda_high();d();}
 3228              		.loc 6 293 17 is_stmt 1 view -0
 3229              		.cfi_startproc
 3230              		@ args = 0, pretend = 0, frame = 0
 3231              		@ frame_needed = 0, uses_anonymous_args = 0
 293:src/main.cpp  **** void i2c_stop() {sda_low();d();scl_high();d();sda_high();d();}
 3232              		.loc 6 293 18 view .LVU948
 3233              	.LBB811:
 3234              	.LBI811:
 287:src/main.cpp  **** inline void sda_low() {sda.Init(SDA_PIN,GPIO::Mode::OUTPUT,GPIO::Pull::NOPULL);sda.Write(false);}
 3235              		.loc 6 287 13 view .LVU949
 3236              	.LBB812:
 287:src/main.cpp  **** inline void sda_low() {sda.Init(SDA_PIN,GPIO::Mode::OUTPUT,GPIO::Pull::NOPULL);sda.Write(false);}
 3237              		.loc 6 287 24 view .LVU950
 3238              	.LBE812:
 3239              	.LBE811:
 293:src/main.cpp  **** void i2c_stop() {sda_low();d();scl_high();d();sda_high();d();}
 3240              		.loc 6 293 17 is_stmt 0 view .LVU951
 3241 0000 2DE9F041 		push	{r4, r5, r6, r7, r8, lr}
 3242              		.cfi_def_cfa_offset 24
 3243              		.cfi_offset 4, -24
 3244              		.cfi_offset 5, -20
 3245              		.cfi_offset 6, -16
 3246              		.cfi_offset 7, -12
 3247              		.cfi_offset 8, -8
 3248              		.cfi_offset 14, -4
 3249              	.LBB817:
 3250              	.LBB813:
 287:src/main.cpp  **** inline void sda_low() {sda.Init(SDA_PIN,GPIO::Mode::OUTPUT,GPIO::Pull::NOPULL);sda.Write(false);}
 3251              		.loc 6 287 32 view .LVU952
 3252 0004 0024     		movs	r4, #0
 3253              	.LBE813:
 3254              	.LBE817:
 293:src/main.cpp  **** void i2c_stop() {sda_low();d();scl_high();d();sda_high();d();}
 3255              		.loc 6 293 17 view .LVU953
 3256 0006 82B0     		sub	sp, sp, #8
 3257              		.cfi_def_cfa_offset 32
 3258              	.LBB818:
 3259              	.LBB814:
 287:src/main.cpp  **** inline void sda_low() {sda.Init(SDA_PIN,GPIO::Mode::OUTPUT,GPIO::Pull::NOPULL);sda.Write(false);}
 3260              		.loc 6 287 32 view .LVU954
 3261 0008 1C4E     		ldr	r6, .L204
 3262 000a 0123     		movs	r3, #1
 3263 000c DFF87880 		ldr	r8, .L204+12
 3264 0010 2246     		mov	r2, r4
 3265              	.LBE814:
 3266              	.LBE818:
 3267              	.LBB819:
 3268              	.LBB820:
 289:src/main.cpp  **** inline void scl_low() {scl.Init(SCL_PIN,GPIO::Mode::OUTPUT,GPIO::Pull::NOPULL);scl.Write(false);}
 3269              		.loc 6 289 32 view .LVU955
ARM GAS  /tmp/claude-502/ccZj3JyB.s 			page 94


 3270 0012 1B4D     		ldr	r5, .L204+4
 3271              	.LBE820:
 3272              	.LBE819:
 3273              	.LBB823:
 3274              	.LBB815:
 287:src/main.cpp  **** inline void sda_low() {sda.Init(SDA_PIN,GPIO::Mode::OUTPUT,GPIO::Pull::NOPULL);sda.Write(false);}
 3275              		.loc 6 287 32 view .LVU956
 3276 0014 3046     		mov	r0, r6
 3277 0016 D8F80010 		ldr	r1, [r8]
 3278              	.LBE815:
 3279              	.LBE823:
 3280              	.LBB824:
 3281              	.LBB821:
 289:src/main.cpp  **** inline void scl_low() {scl.Init(SCL_PIN,GPIO::Mode::OUTPUT,GPIO::Pull::NOPULL);scl.Write(false);}
 3282              		.loc 6 289 32 view .LVU957
 3283 001a 1A4F     		ldr	r7, .L204+8
 3284              	.LBE821:
 3285              	.LBE824:
 3286              	.LBB825:
 3287              	.LBB816:
 287:src/main.cpp  **** inline void sda_low() {sda.Init(SDA_PIN,GPIO::Mode::OUTPUT,GPIO::Pull::NOPULL);sda.Write(false);}
 3288              		.loc 6 287 32 view .LVU958
 3289 001c 0094     		str	r4, [sp]
 3290 001e FFF7FEFF 		bl	_ZN5daisy4GPIO4InitENS_3PinENS0_4ModeENS0_4PullENS0_5SpeedE
 3291              	.LVL229:
 3292              	.LBE816:
 3293              	.LBE825:
 293:src/main.cpp  **** void i2c_stop() {sda_low();d();scl_high();d();sda_high();d();}
 3294              		.loc 6 293 29 is_stmt 1 view .LVU959
 3295              	.LBB826:
 3296              	.LBI826:
 291:src/main.cpp  **** 
 3297              		.loc 6 291 13 view .LVU960
 3298              	.LBB827:
 291:src/main.cpp  **** 
 3299              		.loc 6 291 17 view .LVU961
 291:src/main.cpp  **** 
 3300              		.loc 6 291 32 is_stmt 0 view .LVU962
 3301 0022 0520     		movs	r0, #5
 3302 0024 FFF7FEFF 		bl	_ZN5daisy6System7DelayUsEm
 3303              	.LVL230:
 3304              	.LBE827:
 3305              	.LBE826:
 293:src/main.cpp  **** void i2c_stop() {sda_low();d();scl_high();d();sda_high();d();}
 3306              		.loc 6 293 33 is_stmt 1 view .LVU963
 3307              	.LBB828:
 3308              	.LBI819:
 289:src/main.cpp  **** inline void scl_low() {scl.Init(SCL_PIN,GPIO::Mode::OUTPUT,GPIO::Pull::NOPULL);scl.Write(false);}
 3309              		.loc 6 289 13 view .LVU964
 3310              	.LBB822:
 289:src/main.cpp  **** inline void scl_low() {scl.Init(SCL_PIN,GPIO::Mode::OUTPUT,GPIO::Pull::NOPULL);scl.Write(false);}
 3311              		.loc 6 289 24 view .LVU965
 289:src/main.cpp  **** inline void scl_low() {scl.Init(SCL_PIN,GPIO::Mode::OUTPUT,GPIO::Pull::NOPULL);scl.Write(false);}
 3312              		.loc 6 289 32 is_stmt 0 view .LVU966
 3313 0028 2246     		mov	r2, r4
 3314 002a 3968     		ldr	r1, [r7]
 3315 002c 0123     		movs	r3, #1
ARM GAS  /tmp/claude-502/ccZj3JyB.s 			page 95


 3316 002e 2846     		mov	r0, r5
 3317 0030 0094     		str	r4, [sp]
 3318 0032 FFF7FEFF 		bl	_ZN5daisy4GPIO4InitENS_3PinENS0_4ModeENS0_4PullENS0_5SpeedE
 3319              	.LVL231:
 3320              	.LBE822:
 3321              	.LBE828:
 293:src/main.cpp  **** void i2c_stop() {sda_low();d();scl_high();d();sda_high();d();}
 3322              		.loc 6 293 44 is_stmt 1 view .LVU967
 3323              	.LBB829:
 3324              	.LBI829:
 291:src/main.cpp  **** 
 3325              		.loc 6 291 13 view .LVU968
 3326              	.LBB830:
 291:src/main.cpp  **** 
 3327              		.loc 6 291 17 view .LVU969
 291:src/main.cpp  **** 
 3328              		.loc 6 291 32 is_stmt 0 view .LVU970
 3329 0036 0520     		movs	r0, #5
 3330 0038 FFF7FEFF 		bl	_ZN5daisy6System7DelayUsEm
 3331              	.LVL232:
 3332              	.LBE830:
 3333              	.LBE829:
 293:src/main.cpp  **** void i2c_stop() {sda_low();d();scl_high();d();sda_high();d();}
 3334              		.loc 6 293 48 is_stmt 1 view .LVU971
 3335              	.LBB831:
 3336              	.LBI831:
 288:src/main.cpp  **** inline void scl_high(){scl.Init(SCL_PIN,GPIO::Mode::INPUT, GPIO::Pull::PULLUP);}
 3337              		.loc 6 288 13 view .LVU972
 3338              	.LBB832:
 288:src/main.cpp  **** inline void scl_high(){scl.Init(SCL_PIN,GPIO::Mode::INPUT, GPIO::Pull::PULLUP);}
 3339              		.loc 6 288 24 view .LVU973
 288:src/main.cpp  **** inline void scl_high(){scl.Init(SCL_PIN,GPIO::Mode::INPUT, GPIO::Pull::PULLUP);}
 3340              		.loc 6 288 32 is_stmt 0 view .LVU974
 3341 003c 2346     		mov	r3, r4
 3342 003e 0122     		movs	r2, #1
 3343 0040 D8F80010 		ldr	r1, [r8]
 3344 0044 3046     		mov	r0, r6
 3345 0046 0094     		str	r4, [sp]
 3346 0048 FFF7FEFF 		bl	_ZN5daisy4GPIO4InitENS_3PinENS0_4ModeENS0_4PullENS0_5SpeedE
 3347              	.LVL233:
 288:src/main.cpp  **** inline void scl_high(){scl.Init(SCL_PIN,GPIO::Mode::INPUT, GPIO::Pull::PULLUP);}
 3348              		.loc 6 288 80 is_stmt 1 view .LVU975
 288:src/main.cpp  **** inline void scl_high(){scl.Init(SCL_PIN,GPIO::Mode::INPUT, GPIO::Pull::PULLUP);}
 3349              		.loc 6 288 89 is_stmt 0 view .LVU976
 3350 004c 2146     		mov	r1, r4
 3351 004e 3046     		mov	r0, r6
 3352 0050 FFF7FEFF 		bl	_ZN5daisy4GPIO5WriteEb
 3353              	.LVL234:
 3354              	.LBE832:
 3355              	.LBE831:
 293:src/main.cpp  **** void i2c_stop() {sda_low();d();scl_high();d();sda_high();d();}
 3356              		.loc 6 293 58 is_stmt 1 view .LVU977
 3357              	.LBB833:
 3358              	.LBI833:
 291:src/main.cpp  **** 
 3359              		.loc 6 291 13 view .LVU978
 3360              	.LBB834:
ARM GAS  /tmp/claude-502/ccZj3JyB.s 			page 96


 291:src/main.cpp  **** 
 3361              		.loc 6 291 17 view .LVU979
 291:src/main.cpp  **** 
 3362              		.loc 6 291 32 is_stmt 0 view .LVU980
 3363 0054 0520     		movs	r0, #5
 3364 0056 FFF7FEFF 		bl	_ZN5daisy6System7DelayUsEm
 3365              	.LVL235:
 3366              	.LBE834:
 3367              	.LBE833:
 293:src/main.cpp  **** void i2c_stop() {sda_low();d();scl_high();d();sda_high();d();}
 3368              		.loc 6 293 62 is_stmt 1 view .LVU981
 3369              	.LBB835:
 3370              	.LBI835:
 290:src/main.cpp  **** inline void d(){System::DelayUs(HP);}
 3371              		.loc 6 290 13 view .LVU982
 3372              	.LBB836:
 290:src/main.cpp  **** inline void d(){System::DelayUs(HP);}
 3373              		.loc 6 290 24 view .LVU983
 290:src/main.cpp  **** inline void d(){System::DelayUs(HP);}
 3374              		.loc 6 290 32 is_stmt 0 view .LVU984
 3375 005a 2346     		mov	r3, r4
 3376 005c 0122     		movs	r2, #1
 3377 005e 3968     		ldr	r1, [r7]
 3378 0060 2846     		mov	r0, r5
 3379 0062 0094     		str	r4, [sp]
 3380 0064 FFF7FEFF 		bl	_ZN5daisy4GPIO4InitENS_3PinENS0_4ModeENS0_4PullENS0_5SpeedE
 3381              	.LVL236:
 290:src/main.cpp  **** inline void d(){System::DelayUs(HP);}
 3382              		.loc 6 290 80 is_stmt 1 view .LVU985
 290:src/main.cpp  **** inline void d(){System::DelayUs(HP);}
 3383              		.loc 6 290 89 is_stmt 0 view .LVU986
 3384 0068 2846     		mov	r0, r5
 3385 006a 2146     		mov	r1, r4
 3386 006c FFF7FEFF 		bl	_ZN5daisy4GPIO5WriteEb
 3387              	.LVL237:
 3388              	.LBE836:
 3389              	.LBE835:
 293:src/main.cpp  **** void i2c_stop() {sda_low();d();scl_high();d();sda_high();d();}
 3390              		.loc 6 293 72 is_stmt 1 view .LVU987
 3391              	.LBB837:
 3392              	.LBI837:
 291:src/main.cpp  **** 
 3393              		.loc 6 291 13 view .LVU988
 3394              	.LBB838:
 291:src/main.cpp  **** 
 3395              		.loc 6 291 17 view .LVU989
 291:src/main.cpp  **** 
 3396              		.loc 6 291 32 is_stmt 0 view .LVU990
 3397 0070 0520     		movs	r0, #5
 3398              	.LBE838:
 3399              	.LBE837:
 293:src/main.cpp  **** void i2c_stop() {sda_low();d();scl_high();d();sda_high();d();}
 3400              		.loc 6 293 76 view .LVU991
 3401 0072 02B0     		add	sp, sp, #8
 3402              		.cfi_def_cfa_offset 24
 3403              		@ sp needed
 3404 0074 BDE8F041 		pop	{r4, r5, r6, r7, r8, lr}
ARM GAS  /tmp/claude-502/ccZj3JyB.s 			page 97


 3405              		.cfi_restore 14
 3406              		.cfi_restore 8
 3407              		.cfi_restore 7
 3408              		.cfi_restore 6
 3409              		.cfi_restore 5
 3410              		.cfi_restore 4
 3411              		.cfi_def_cfa_offset 0
 3412              	.LBB840:
 3413              	.LBB839:
 291:src/main.cpp  **** 
 3414              		.loc 6 291 32 view .LVU992
 3415 0078 FFF7FEBF 		b	_ZN5daisy6System7DelayUsEm
 3416              	.LVL238:
 3417              	.L205:
 3418              		.align	2
 3419              	.L204:
 3420 007c 00000000 		.word	.LANCHOR39
 3421 0080 00000000 		.word	.LANCHOR41
 3422 0084 00000000 		.word	.LANCHOR40
 3423 0088 00000000 		.word	.LANCHOR38
 3424              	.LBE839:
 3425              	.LBE840:
 3426              		.cfi_endproc
 3427              	.LFE2566:
 3429              		.section	.text._Z8i2c_stopv,"ax",%progbits
 3430              		.align	1
 3431              		.p2align 2,,3
 3432              		.global	_Z8i2c_stopv
 3433              		.syntax unified
 3434              		.thumb
 3435              		.thumb_func
 3437              	_Z8i2c_stopv:
 3438              	.LFB2567:
 294:src/main.cpp  **** 
 3439              		.loc 6 294 17 is_stmt 1 view -0
 3440              		.cfi_startproc
 3441              		@ args = 0, pretend = 0, frame = 0
 3442              		@ frame_needed = 0, uses_anonymous_args = 0
 294:src/main.cpp  **** 
 3443              		.loc 6 294 18 view .LVU994
 3444              	.LBB853:
 3445              	.LBI853:
 288:src/main.cpp  **** inline void scl_high(){scl.Init(SCL_PIN,GPIO::Mode::INPUT, GPIO::Pull::PULLUP);}
 3446              		.loc 6 288 13 view .LVU995
 3447              	.LBB854:
 288:src/main.cpp  **** inline void scl_high(){scl.Init(SCL_PIN,GPIO::Mode::INPUT, GPIO::Pull::PULLUP);}
 3448              		.loc 6 288 24 view .LVU996
 3449              	.LBE854:
 3450              	.LBE853:
 294:src/main.cpp  **** 
 3451              		.loc 6 294 17 is_stmt 0 view .LVU997
 3452 0000 70B5     		push	{r4, r5, r6, lr}
 3453              		.cfi_def_cfa_offset 16
 3454              		.cfi_offset 4, -16
 3455              		.cfi_offset 5, -12
 3456              		.cfi_offset 6, -8
 3457              		.cfi_offset 14, -4
ARM GAS  /tmp/claude-502/ccZj3JyB.s 			page 98


 3458              	.LBB857:
 3459              	.LBB855:
 288:src/main.cpp  **** inline void scl_high(){scl.Init(SCL_PIN,GPIO::Mode::INPUT, GPIO::Pull::PULLUP);}
 3460              		.loc 6 288 32 view .LVU998
 3461 0002 0024     		movs	r4, #0
 3462              	.LBE855:
 3463              	.LBE857:
 294:src/main.cpp  **** 
 3464              		.loc 6 294 17 view .LVU999
 3465 0004 82B0     		sub	sp, sp, #8
 3466              		.cfi_def_cfa_offset 24
 3467              	.LBB858:
 3468              	.LBB856:
 288:src/main.cpp  **** inline void scl_high(){scl.Init(SCL_PIN,GPIO::Mode::INPUT, GPIO::Pull::PULLUP);}
 3469              		.loc 6 288 32 view .LVU1000
 3470 0006 144D     		ldr	r5, .L208
 3471 0008 0122     		movs	r2, #1
 3472 000a 144E     		ldr	r6, .L208+4
 3473 000c 2346     		mov	r3, r4
 3474 000e 2846     		mov	r0, r5
 3475 0010 0094     		str	r4, [sp]
 3476 0012 3168     		ldr	r1, [r6]
 3477 0014 FFF7FEFF 		bl	_ZN5daisy4GPIO4InitENS_3PinENS0_4ModeENS0_4PullENS0_5SpeedE
 3478              	.LVL239:
 288:src/main.cpp  **** inline void scl_high(){scl.Init(SCL_PIN,GPIO::Mode::INPUT, GPIO::Pull::PULLUP);}
 3479              		.loc 6 288 80 is_stmt 1 view .LVU1001
 288:src/main.cpp  **** inline void scl_high(){scl.Init(SCL_PIN,GPIO::Mode::INPUT, GPIO::Pull::PULLUP);}
 3480              		.loc 6 288 89 is_stmt 0 view .LVU1002
 3481 0018 2146     		mov	r1, r4
 3482 001a 2846     		mov	r0, r5
 3483 001c FFF7FEFF 		bl	_ZN5daisy4GPIO5WriteEb
 3484              	.LVL240:
 3485              	.LBE856:
 3486              	.LBE858:
 294:src/main.cpp  **** 
 3487              		.loc 6 294 28 is_stmt 1 view .LVU1003
 3488              	.LBB859:
 3489              	.LBI859:
 291:src/main.cpp  **** 
 3490              		.loc 6 291 13 view .LVU1004
 3491              	.LBB860:
 291:src/main.cpp  **** 
 3492              		.loc 6 291 17 view .LVU1005
 291:src/main.cpp  **** 
 3493              		.loc 6 291 32 is_stmt 0 view .LVU1006
 3494 0020 0520     		movs	r0, #5
 3495 0022 FFF7FEFF 		bl	_ZN5daisy6System7DelayUsEm
 3496              	.LVL241:
 3497              	.LBE860:
 3498              	.LBE859:
 294:src/main.cpp  **** 
 3499              		.loc 6 294 32 is_stmt 1 view .LVU1007
 3500              	.LBB861:
 3501              	.LBI861:
 289:src/main.cpp  **** inline void scl_low() {scl.Init(SCL_PIN,GPIO::Mode::OUTPUT,GPIO::Pull::NOPULL);scl.Write(false);}
 3502              		.loc 6 289 13 view .LVU1008
 3503              	.LBB862:
ARM GAS  /tmp/claude-502/ccZj3JyB.s 			page 99


 289:src/main.cpp  **** inline void scl_low() {scl.Init(SCL_PIN,GPIO::Mode::OUTPUT,GPIO::Pull::NOPULL);scl.Write(false);}
 3504              		.loc 6 289 24 view .LVU1009
 289:src/main.cpp  **** inline void scl_low() {scl.Init(SCL_PIN,GPIO::Mode::OUTPUT,GPIO::Pull::NOPULL);scl.Write(false);}
 3505              		.loc 6 289 32 is_stmt 0 view .LVU1010
 3506 0026 0E4A     		ldr	r2, .L208+8
 3507 0028 0123     		movs	r3, #1
 3508 002a 0E48     		ldr	r0, .L208+12
 3509 002c 1168     		ldr	r1, [r2]
 3510 002e 2246     		mov	r2, r4
 3511 0030 0094     		str	r4, [sp]
 3512 0032 FFF7FEFF 		bl	_ZN5daisy4GPIO4InitENS_3PinENS0_4ModeENS0_4PullENS0_5SpeedE
 3513              	.LVL242:
 3514              	.LBE862:
 3515              	.LBE861:
 294:src/main.cpp  **** 
 3516              		.loc 6 294 43 is_stmt 1 view .LVU1011
 3517              	.LBB863:
 3518              	.LBI863:
 291:src/main.cpp  **** 
 3519              		.loc 6 291 13 view .LVU1012
 3520              	.LBB864:
 291:src/main.cpp  **** 
 3521              		.loc 6 291 17 view .LVU1013
 291:src/main.cpp  **** 
 3522              		.loc 6 291 32 is_stmt 0 view .LVU1014
 3523 0036 0520     		movs	r0, #5
 3524 0038 FFF7FEFF 		bl	_ZN5daisy6System7DelayUsEm
 3525              	.LVL243:
 3526              	.LBE864:
 3527              	.LBE863:
 294:src/main.cpp  **** 
 3528              		.loc 6 294 47 is_stmt 1 view .LVU1015
 3529              	.LBB865:
 3530              	.LBI865:
 287:src/main.cpp  **** inline void sda_low() {sda.Init(SDA_PIN,GPIO::Mode::OUTPUT,GPIO::Pull::NOPULL);sda.Write(false);}
 3531              		.loc 6 287 13 view .LVU1016
 3532              	.LBB866:
 287:src/main.cpp  **** inline void sda_low() {sda.Init(SDA_PIN,GPIO::Mode::OUTPUT,GPIO::Pull::NOPULL);sda.Write(false);}
 3533              		.loc 6 287 24 view .LVU1017
 287:src/main.cpp  **** inline void sda_low() {sda.Init(SDA_PIN,GPIO::Mode::OUTPUT,GPIO::Pull::NOPULL);sda.Write(false);}
 3534              		.loc 6 287 32 is_stmt 0 view .LVU1018
 3535 003c 2846     		mov	r0, r5
 3536 003e 0123     		movs	r3, #1
 3537 0040 2246     		mov	r2, r4
 3538 0042 3168     		ldr	r1, [r6]
 3539 0044 0094     		str	r4, [sp]
 3540 0046 FFF7FEFF 		bl	_ZN5daisy4GPIO4InitENS_3PinENS0_4ModeENS0_4PullENS0_5SpeedE
 3541              	.LVL244:
 3542              	.LBE866:
 3543              	.LBE865:
 294:src/main.cpp  **** 
 3544              		.loc 6 294 58 is_stmt 1 view .LVU1019
 3545              	.LBB867:
 3546              	.LBI867:
 291:src/main.cpp  **** 
 3547              		.loc 6 291 13 view .LVU1020
 3548              	.LBB868:
ARM GAS  /tmp/claude-502/ccZj3JyB.s 			page 100


 291:src/main.cpp  **** 
 3549              		.loc 6 291 17 view .LVU1021
 291:src/main.cpp  **** 
 3550              		.loc 6 291 32 is_stmt 0 view .LVU1022
 3551 004a 0520     		movs	r0, #5
 3552              	.LBE868:
 3553              	.LBE867:
 294:src/main.cpp  **** 
 3554              		.loc 6 294 62 view .LVU1023
 3555 004c 02B0     		add	sp, sp, #8
 3556              		.cfi_def_cfa_offset 16
 3557              		@ sp needed
 3558 004e BDE87040 		pop	{r4, r5, r6, lr}
 3559              		.cfi_restore 14
 3560              		.cfi_restore 6
 3561              		.cfi_restore 5
 3562              		.cfi_restore 4
 3563              		.cfi_def_cfa_offset 0
 3564              	.LBB870:
 3565              	.LBB869:
 291:src/main.cpp  **** 
 3566              		.loc 6 291 32 view .LVU1024
 3567 0052 FFF7FEBF 		b	_ZN5daisy6System7DelayUsEm
 3568              	.LVL245:
 3569              	.L209:
 3570 0056 00BF     		.align	2
 3571              	.L208:
 3572 0058 00000000 		.word	.LANCHOR39
 3573 005c 00000000 		.word	.LANCHOR38
 3574 0060 00000000 		.word	.LANCHOR40
 3575 0064 00000000 		.word	.LANCHOR41
 3576              	.LBE869:
 3577              	.LBE870:
 3578              		.cfi_endproc
 3579              	.LFE2567:
 3581              		.section	.text._Z14i2c_write_byteh,"ax",%progbits
 3582              		.align	1
 3583              		.p2align 2,,3
 3584              		.global	_Z14i2c_write_byteh
 3585              		.syntax unified
 3586              		.thumb
 3587              		.thumb_func
 3589              	_Z14i2c_write_byteh:
 3590              	.LVL246:
 3591              	.LFB2568:
 297:src/main.cpp  ****     for(int i=7;i>=0;i--){
 3592              		.loc 6 297 1 is_stmt 1 view -0
 3593              		.cfi_startproc
 3594              		@ args = 0, pretend = 0, frame = 0
 3595              		@ frame_needed = 0, uses_anonymous_args = 0
 298:src/main.cpp  ****         if(byte&(1<<i))sda_high();else sda_low();
 3596              		.loc 6 298 5 view .LVU1026
 3597              	.LBB898:
 298:src/main.cpp  ****         if(byte&(1<<i))sda_high();else sda_low();
 3598              		.loc 6 298 18 view .LVU1027
 3599              	.LBE898:
 297:src/main.cpp  ****     for(int i=7;i>=0;i--){
ARM GAS  /tmp/claude-502/ccZj3JyB.s 			page 101


 3600              		.loc 6 297 1 is_stmt 0 view .LVU1028
 3601 0000 2DE9F041 		push	{r4, r5, r6, r7, r8, lr}
 3602              		.cfi_def_cfa_offset 24
 3603              		.cfi_offset 4, -24
 3604              		.cfi_offset 5, -20
 3605              		.cfi_offset 6, -16
 3606              		.cfi_offset 7, -12
 3607              		.cfi_offset 8, -8
 3608              		.cfi_offset 14, -4
 3609              	.LBB929:
 298:src/main.cpp  ****         if(byte&(1<<i))sda_high();else sda_low();
 3610              		.loc 6 298 13 view .LVU1029
 3611 0004 0725     		movs	r5, #7
 3612              	.LBE929:
 297:src/main.cpp  ****     for(int i=7;i>=0;i--){
 3613              		.loc 6 297 1 view .LVU1030
 3614 0006 82B0     		sub	sp, sp, #8
 3615              		.cfi_def_cfa_offset 32
 3616 0008 DFF8E480 		ldr	r8, .L218+12
 297:src/main.cpp  ****     for(int i=7;i>=0;i--){
 3617              		.loc 6 297 1 view .LVU1031
 3618 000c 0746     		mov	r7, r0
 3619 000e 354E     		ldr	r6, .L218
 3620 0010 25E0     		b	.L213
 3621              	.LVL247:
 3622              	.L217:
 3623              	.LBB930:
 3624              	.LBB899:
 3625              	.LBB900:
 287:src/main.cpp  **** inline void sda_low() {sda.Init(SDA_PIN,GPIO::Mode::OUTPUT,GPIO::Pull::NOPULL);sda.Write(false);}
 3626              		.loc 6 287 32 view .LVU1032
 3627 0012 6246     		mov	r2, ip
 3628 0014 D8F80010 		ldr	r1, [r8]
 3629 0018 CDF800C0 		str	ip, [sp]
 3630 001c FFF7FEFF 		bl	_ZN5daisy4GPIO4InitENS_3PinENS0_4ModeENS0_4PullENS0_5SpeedE
 3631              	.LVL248:
 3632              	.L212:
 3633              	.LBE900:
 3634              	.LBE899:
 300:src/main.cpp  ****     }
 3635              		.loc 6 300 9 is_stmt 1 discriminator 2 view .LVU1033
 3636              	.LBB904:
 3637              	.LBI904:
 291:src/main.cpp  **** 
 3638              		.loc 6 291 13 discriminator 2 view .LVU1034
 3639              	.LBB905:
 291:src/main.cpp  **** 
 3640              		.loc 6 291 17 discriminator 2 view .LVU1035
 3641              	.LBE905:
 3642              	.LBE904:
 3643              	.LBB907:
 3644              	.LBB908:
 289:src/main.cpp  **** inline void scl_low() {scl.Init(SCL_PIN,GPIO::Mode::OUTPUT,GPIO::Pull::NOPULL);scl.Write(false);}
 3645              		.loc 6 289 32 is_stmt 0 discriminator 2 view .LVU1036
 3646 0020 0024     		movs	r4, #0
 3647              	.LBE908:
 3648              	.LBE907:
ARM GAS  /tmp/claude-502/ccZj3JyB.s 			page 102


 3649              	.LBB911:
 3650              	.LBB906:
 291:src/main.cpp  **** 
 3651              		.loc 6 291 32 discriminator 2 view .LVU1037
 3652 0022 0520     		movs	r0, #5
 3653 0024 FFF7FEFF 		bl	_ZN5daisy6System7DelayUsEm
 3654              	.LVL249:
 3655              	.LBE906:
 3656              	.LBE911:
 300:src/main.cpp  ****     }
 3657              		.loc 6 300 13 is_stmt 1 discriminator 2 view .LVU1038
 3658              	.LBB912:
 3659              	.LBI907:
 289:src/main.cpp  **** inline void scl_low() {scl.Init(SCL_PIN,GPIO::Mode::OUTPUT,GPIO::Pull::NOPULL);scl.Write(false);}
 3660              		.loc 6 289 13 discriminator 2 view .LVU1039
 3661              	.LBB909:
 289:src/main.cpp  **** inline void scl_low() {scl.Init(SCL_PIN,GPIO::Mode::OUTPUT,GPIO::Pull::NOPULL);scl.Write(false);}
 3662              		.loc 6 289 24 discriminator 2 view .LVU1040
 289:src/main.cpp  **** inline void scl_low() {scl.Init(SCL_PIN,GPIO::Mode::OUTPUT,GPIO::Pull::NOPULL);scl.Write(false);}
 3663              		.loc 6 289 32 is_stmt 0 discriminator 2 view .LVU1041
 3664 0028 0123     		movs	r3, #1
 3665 002a 2246     		mov	r2, r4
 3666 002c 3168     		ldr	r1, [r6]
 3667 002e 2E48     		ldr	r0, .L218+4
 3668              	.LBE909:
 3669              	.LBE912:
 298:src/main.cpp  ****         if(byte&(1<<i))sda_high();else sda_low();
 3670              		.loc 6 298 5 discriminator 2 view .LVU1042
 3671 0030 013D     		subs	r5, r5, #1
 3672              	.LVL250:
 3673              	.LBB913:
 3674              	.LBB910:
 289:src/main.cpp  **** inline void scl_low() {scl.Init(SCL_PIN,GPIO::Mode::OUTPUT,GPIO::Pull::NOPULL);scl.Write(false);}
 3675              		.loc 6 289 32 discriminator 2 view .LVU1043
 3676 0032 0094     		str	r4, [sp]
 3677 0034 FFF7FEFF 		bl	_ZN5daisy4GPIO4InitENS_3PinENS0_4ModeENS0_4PullENS0_5SpeedE
 3678              	.LVL251:
 3679              	.LBE910:
 3680              	.LBE913:
 300:src/main.cpp  ****     }
 3681              		.loc 6 300 24 is_stmt 1 discriminator 2 view .LVU1044
 3682              	.LBB914:
 3683              	.LBI914:
 291:src/main.cpp  **** 
 3684              		.loc 6 291 13 discriminator 2 view .LVU1045
 3685              	.LBB915:
 291:src/main.cpp  **** 
 3686              		.loc 6 291 17 discriminator 2 view .LVU1046
 291:src/main.cpp  **** 
 3687              		.loc 6 291 32 is_stmt 0 discriminator 2 view .LVU1047
 3688 0038 0520     		movs	r0, #5
 3689 003a FFF7FEFF 		bl	_ZN5daisy6System7DelayUsEm
 3690              	.LVL252:
 3691              	.LBE915:
 3692              	.LBE914:
 300:src/main.cpp  ****     }
 3693              		.loc 6 300 28 is_stmt 1 discriminator 2 view .LVU1048
ARM GAS  /tmp/claude-502/ccZj3JyB.s 			page 103


 3694              	.LBB916:
 3695              	.LBI916:
 290:src/main.cpp  **** inline void d(){System::DelayUs(HP);}
 3696              		.loc 6 290 13 discriminator 2 view .LVU1049
 3697              	.LBB917:
 290:src/main.cpp  **** inline void d(){System::DelayUs(HP);}
 3698              		.loc 6 290 24 discriminator 2 view .LVU1050
 290:src/main.cpp  **** inline void d(){System::DelayUs(HP);}
 3699              		.loc 6 290 32 is_stmt 0 discriminator 2 view .LVU1051
 3700 003e 2346     		mov	r3, r4
 3701 0040 0122     		movs	r2, #1
 3702 0042 2948     		ldr	r0, .L218+4
 3703 0044 3168     		ldr	r1, [r6]
 3704 0046 0094     		str	r4, [sp]
 3705 0048 FFF7FEFF 		bl	_ZN5daisy4GPIO4InitENS_3PinENS0_4ModeENS0_4PullENS0_5SpeedE
 3706              	.LVL253:
 290:src/main.cpp  **** inline void d(){System::DelayUs(HP);}
 3707              		.loc 6 290 80 is_stmt 1 discriminator 2 view .LVU1052
 290:src/main.cpp  **** inline void d(){System::DelayUs(HP);}
 3708              		.loc 6 290 89 is_stmt 0 discriminator 2 view .LVU1053
 3709 004c 2146     		mov	r1, r4
 3710 004e 2648     		ldr	r0, .L218+4
 3711 0050 FFF7FEFF 		bl	_ZN5daisy4GPIO5WriteEb
 3712              	.LVL254:
 3713              	.LBE917:
 3714              	.LBE916:
 300:src/main.cpp  ****     }
 3715              		.loc 6 300 38 is_stmt 1 discriminator 2 view .LVU1054
 3716              	.LBB918:
 3717              	.LBI918:
 291:src/main.cpp  **** 
 3718              		.loc 6 291 13 discriminator 2 view .LVU1055
 3719              	.LBB919:
 291:src/main.cpp  **** 
 3720              		.loc 6 291 17 discriminator 2 view .LVU1056
 291:src/main.cpp  **** 
 3721              		.loc 6 291 32 is_stmt 0 discriminator 2 view .LVU1057
 3722 0054 0520     		movs	r0, #5
 3723 0056 FFF7FEFF 		bl	_ZN5daisy6System7DelayUsEm
 3724              	.LVL255:
 3725              	.LBE919:
 3726              	.LBE918:
 298:src/main.cpp  ****         if(byte&(1<<i))sda_high();else sda_low();
 3727              		.loc 6 298 5 is_stmt 1 discriminator 2 view .LVU1058
 298:src/main.cpp  ****         if(byte&(1<<i))sda_high();else sda_low();
 3728              		.loc 6 298 18 discriminator 2 view .LVU1059
 3729 005a 6B1C     		adds	r3, r5, #1
 3730 005c 14D0     		beq	.L216
 3731              	.LVL256:
 3732              	.L213:
 299:src/main.cpp  ****         d();scl_high();d();scl_low();d();
 3733              		.loc 6 299 9 view .LVU1060
 299:src/main.cpp  ****         d();scl_high();d();scl_low();d();
 3734              		.loc 6 299 24 view .LVU1061
 3735              	.LBB920:
 3736              	.LBI899:
 287:src/main.cpp  **** inline void sda_low() {sda.Init(SDA_PIN,GPIO::Mode::OUTPUT,GPIO::Pull::NOPULL);sda.Write(false);}
ARM GAS  /tmp/claude-502/ccZj3JyB.s 			page 104


 3737              		.loc 6 287 13 view .LVU1062
 3738              	.LBB901:
 287:src/main.cpp  **** inline void sda_low() {sda.Init(SDA_PIN,GPIO::Mode::OUTPUT,GPIO::Pull::NOPULL);sda.Write(false);}
 3739              		.loc 6 287 24 view .LVU1063
 3740              	.LBE901:
 3741              	.LBE920:
 299:src/main.cpp  ****         d();scl_high();d();scl_low();d();
 3742              		.loc 6 299 40 view .LVU1064
 3743              	.LBB921:
 3744              	.LBI921:
 288:src/main.cpp  **** inline void scl_high(){scl.Init(SCL_PIN,GPIO::Mode::INPUT, GPIO::Pull::PULLUP);}
 3745              		.loc 6 288 13 view .LVU1065
 3746              	.LBB922:
 288:src/main.cpp  **** inline void scl_high(){scl.Init(SCL_PIN,GPIO::Mode::INPUT, GPIO::Pull::PULLUP);}
 3747              		.loc 6 288 24 view .LVU1066
 288:src/main.cpp  **** inline void scl_high(){scl.Init(SCL_PIN,GPIO::Mode::INPUT, GPIO::Pull::PULLUP);}
 3748              		.loc 6 288 32 is_stmt 0 view .LVU1067
 3749 005e 0122     		movs	r2, #1
 3750              	.LBE922:
 3751              	.LBE921:
 299:src/main.cpp  ****         d();scl_high();d();scl_low();d();
 3752              		.loc 6 299 16 view .LVU1068
 3753 0060 47FA05F1 		asr	r1, r7, r5
 3754              	.LBB925:
 3755              	.LBB902:
 287:src/main.cpp  **** inline void sda_low() {sda.Init(SDA_PIN,GPIO::Mode::OUTPUT,GPIO::Pull::NOPULL);sda.Write(false);}
 3756              		.loc 6 287 32 view .LVU1069
 3757 0064 4FF0000C 		mov	ip, #0
 3758              	.LBE902:
 3759              	.LBE925:
 3760              	.LBB926:
 3761              	.LBB923:
 288:src/main.cpp  **** inline void scl_high(){scl.Init(SCL_PIN,GPIO::Mode::INPUT, GPIO::Pull::PULLUP);}
 3762              		.loc 6 288 32 view .LVU1070
 3763 0068 2048     		ldr	r0, .L218+8
 3764              	.LBE923:
 3765              	.LBE926:
 299:src/main.cpp  ****         d();scl_high();d();scl_low();d();
 3766              		.loc 6 299 9 view .LVU1071
 3767 006a 11EA0204 		ands	r4, r1, r2
 3768              	.LBB927:
 3769              	.LBB903:
 287:src/main.cpp  **** inline void sda_low() {sda.Init(SDA_PIN,GPIO::Mode::OUTPUT,GPIO::Pull::NOPULL);sda.Write(false);}
 3770              		.loc 6 287 32 view .LVU1072
 3771 006e 1346     		mov	r3, r2
 3772              	.LBE903:
 3773              	.LBE927:
 299:src/main.cpp  ****         d();scl_high();d();scl_low();d();
 3774              		.loc 6 299 9 view .LVU1073
 3775 0070 CFD1     		bne	.L217
 3776              	.LBB928:
 3777              	.LBB924:
 288:src/main.cpp  **** inline void scl_high(){scl.Init(SCL_PIN,GPIO::Mode::INPUT, GPIO::Pull::PULLUP);}
 3778              		.loc 6 288 32 view .LVU1074
 3779 0072 D8F80010 		ldr	r1, [r8]
 3780 0076 2346     		mov	r3, r4
 3781 0078 0094     		str	r4, [sp]
ARM GAS  /tmp/claude-502/ccZj3JyB.s 			page 105


 3782 007a FFF7FEFF 		bl	_ZN5daisy4GPIO4InitENS_3PinENS0_4ModeENS0_4PullENS0_5SpeedE
 3783              	.LVL257:
 288:src/main.cpp  **** inline void scl_high(){scl.Init(SCL_PIN,GPIO::Mode::INPUT, GPIO::Pull::PULLUP);}
 3784              		.loc 6 288 80 is_stmt 1 view .LVU1075
 288:src/main.cpp  **** inline void scl_high(){scl.Init(SCL_PIN,GPIO::Mode::INPUT, GPIO::Pull::PULLUP);}
 3785              		.loc 6 288 89 is_stmt 0 view .LVU1076
 3786 007e 2146     		mov	r1, r4
 3787 0080 1A48     		ldr	r0, .L218+8
 3788 0082 FFF7FEFF 		bl	_ZN5daisy4GPIO5WriteEb
 3789              	.LVL258:
 288:src/main.cpp  **** inline void scl_high(){scl.Init(SCL_PIN,GPIO::Mode::INPUT, GPIO::Pull::PULLUP);}
 3790              		.loc 6 288 97 view .LVU1077
 3791 0086 CBE7     		b	.L212
 3792              	.L216:
 288:src/main.cpp  **** inline void scl_high(){scl.Init(SCL_PIN,GPIO::Mode::INPUT, GPIO::Pull::PULLUP);}
 3793              		.loc 6 288 97 view .LVU1078
 3794              	.LBE924:
 3795              	.LBE928:
 3796              	.LBE930:
 302:src/main.cpp  ****     bool ack=!sda.Read();
 3797              		.loc 6 302 5 is_stmt 1 view .LVU1079
 3798              	.LBB931:
 3799              	.LBI931:
 287:src/main.cpp  **** inline void sda_low() {sda.Init(SDA_PIN,GPIO::Mode::OUTPUT,GPIO::Pull::NOPULL);sda.Write(false);}
 3800              		.loc 6 287 13 view .LVU1080
 3801              	.LBB932:
 287:src/main.cpp  **** inline void sda_low() {sda.Init(SDA_PIN,GPIO::Mode::OUTPUT,GPIO::Pull::NOPULL);sda.Write(false);}
 3802              		.loc 6 287 24 view .LVU1081
 287:src/main.cpp  **** inline void sda_low() {sda.Init(SDA_PIN,GPIO::Mode::OUTPUT,GPIO::Pull::NOPULL);sda.Write(false);}
 3803              		.loc 6 287 32 is_stmt 0 view .LVU1082
 3804 0088 2246     		mov	r2, r4
 3805 008a D8F80010 		ldr	r1, [r8]
 3806 008e 0123     		movs	r3, #1
 3807 0090 1648     		ldr	r0, .L218+8
 3808 0092 0094     		str	r4, [sp]
 3809 0094 FFF7FEFF 		bl	_ZN5daisy4GPIO4InitENS_3PinENS0_4ModeENS0_4PullENS0_5SpeedE
 3810              	.LVL259:
 3811              	.LBE932:
 3812              	.LBE931:
 302:src/main.cpp  ****     bool ack=!sda.Read();
 3813              		.loc 6 302 16 is_stmt 1 view .LVU1083
 3814              	.LBB933:
 3815              	.LBI933:
 291:src/main.cpp  **** 
 3816              		.loc 6 291 13 view .LVU1084
 3817              	.LBB934:
 291:src/main.cpp  **** 
 3818              		.loc 6 291 17 view .LVU1085
 291:src/main.cpp  **** 
 3819              		.loc 6 291 32 is_stmt 0 view .LVU1086
 3820 0098 0520     		movs	r0, #5
 3821 009a FFF7FEFF 		bl	_ZN5daisy6System7DelayUsEm
 3822              	.LVL260:
 3823              	.LBE934:
 3824              	.LBE933:
 302:src/main.cpp  ****     bool ack=!sda.Read();
 3825              		.loc 6 302 20 is_stmt 1 view .LVU1087
ARM GAS  /tmp/claude-502/ccZj3JyB.s 			page 106


 3826              	.LBB935:
 3827              	.LBI935:
 289:src/main.cpp  **** inline void scl_low() {scl.Init(SCL_PIN,GPIO::Mode::OUTPUT,GPIO::Pull::NOPULL);scl.Write(false);}
 3828              		.loc 6 289 13 view .LVU1088
 3829              	.LBB936:
 289:src/main.cpp  **** inline void scl_low() {scl.Init(SCL_PIN,GPIO::Mode::OUTPUT,GPIO::Pull::NOPULL);scl.Write(false);}
 3830              		.loc 6 289 24 view .LVU1089
 289:src/main.cpp  **** inline void scl_low() {scl.Init(SCL_PIN,GPIO::Mode::OUTPUT,GPIO::Pull::NOPULL);scl.Write(false);}
 3831              		.loc 6 289 32 is_stmt 0 view .LVU1090
 3832 009e 2246     		mov	r2, r4
 3833 00a0 3168     		ldr	r1, [r6]
 3834 00a2 0123     		movs	r3, #1
 3835 00a4 1048     		ldr	r0, .L218+4
 3836 00a6 0094     		str	r4, [sp]
 3837 00a8 FFF7FEFF 		bl	_ZN5daisy4GPIO4InitENS_3PinENS0_4ModeENS0_4PullENS0_5SpeedE
 3838              	.LVL261:
 3839              	.LBE936:
 3840              	.LBE935:
 302:src/main.cpp  ****     bool ack=!sda.Read();
 3841              		.loc 6 302 31 is_stmt 1 view .LVU1091
 3842              	.LBB937:
 3843              	.LBI937:
 291:src/main.cpp  **** 
 3844              		.loc 6 291 13 view .LVU1092
 3845              	.LBB938:
 291:src/main.cpp  **** 
 3846              		.loc 6 291 17 view .LVU1093
 291:src/main.cpp  **** 
 3847              		.loc 6 291 32 is_stmt 0 view .LVU1094
 3848 00ac 0520     		movs	r0, #5
 3849 00ae FFF7FEFF 		bl	_ZN5daisy6System7DelayUsEm
 3850              	.LVL262:
 3851              	.LBE938:
 3852              	.LBE937:
 303:src/main.cpp  ****     scl_low();d();
 3853              		.loc 6 303 5 is_stmt 1 view .LVU1095
 303:src/main.cpp  ****     scl_low();d();
 3854              		.loc 6 303 23 is_stmt 0 view .LVU1096
 3855 00b2 0E48     		ldr	r0, .L218+8
 3856 00b4 FFF7FEFF 		bl	_ZN5daisy4GPIO4ReadEv
 3857              	.LVL263:
 3858              	.LBB939:
 3859              	.LBB940:
 290:src/main.cpp  **** inline void d(){System::DelayUs(HP);}
 3860              		.loc 6 290 32 view .LVU1097
 3861 00b8 2346     		mov	r3, r4
 3862 00ba 0122     		movs	r2, #1
 3863 00bc 3168     		ldr	r1, [r6]
 3864              	.LBE940:
 3865              	.LBE939:
 303:src/main.cpp  ****     scl_low();d();
 3866              		.loc 6 303 23 view .LVU1098
 3867 00be 0546     		mov	r5, r0
 3868              	.LVL264:
 304:src/main.cpp  ****     return ack;
 3869              		.loc 6 304 5 is_stmt 1 view .LVU1099
 3870              	.LBB942:
ARM GAS  /tmp/claude-502/ccZj3JyB.s 			page 107


 3871              	.LBI939:
 290:src/main.cpp  **** inline void d(){System::DelayUs(HP);}
 3872              		.loc 6 290 13 view .LVU1100
 3873              	.LBB941:
 290:src/main.cpp  **** inline void d(){System::DelayUs(HP);}
 3874              		.loc 6 290 24 view .LVU1101
 290:src/main.cpp  **** inline void d(){System::DelayUs(HP);}
 3875              		.loc 6 290 32 is_stmt 0 view .LVU1102
 3876 00c0 0094     		str	r4, [sp]
 3877 00c2 0948     		ldr	r0, .L218+4
 3878 00c4 FFF7FEFF 		bl	_ZN5daisy4GPIO4InitENS_3PinENS0_4ModeENS0_4PullENS0_5SpeedE
 3879              	.LVL265:
 290:src/main.cpp  **** inline void d(){System::DelayUs(HP);}
 3880              		.loc 6 290 80 is_stmt 1 view .LVU1103
 290:src/main.cpp  **** inline void d(){System::DelayUs(HP);}
 3881              		.loc 6 290 89 is_stmt 0 view .LVU1104
 3882 00c8 2146     		mov	r1, r4
 3883 00ca 0748     		ldr	r0, .L218+4
 3884 00cc FFF7FEFF 		bl	_ZN5daisy4GPIO5WriteEb
 3885              	.LVL266:
 3886              	.LBE941:
 3887              	.LBE942:
 304:src/main.cpp  ****     return ack;
 3888              		.loc 6 304 15 is_stmt 1 view .LVU1105
 3889              	.LBB943:
 3890              	.LBI943:
 291:src/main.cpp  **** 
 3891              		.loc 6 291 13 view .LVU1106
 3892              	.LBB944:
 291:src/main.cpp  **** 
 3893              		.loc 6 291 17 view .LVU1107
 291:src/main.cpp  **** 
 3894              		.loc 6 291 32 is_stmt 0 view .LVU1108
 3895 00d0 0520     		movs	r0, #5
 3896 00d2 FFF7FEFF 		bl	_ZN5daisy6System7DelayUsEm
 3897              	.LVL267:
 3898              	.LBE944:
 3899              	.LBE943:
 305:src/main.cpp  **** }
 3900              		.loc 6 305 5 is_stmt 1 view .LVU1109
 303:src/main.cpp  ****     scl_low();d();
 3901              		.loc 6 303 24 is_stmt 0 view .LVU1110
 3902 00d6 85F00100 		eor	r0, r5, #1
 306:src/main.cpp  **** 
 3903              		.loc 6 306 1 view .LVU1111
 3904 00da C0B2     		uxtb	r0, r0
 3905 00dc 02B0     		add	sp, sp, #8
 3906              		.cfi_def_cfa_offset 24
 3907              		@ sp needed
 3908 00de BDE8F081 		pop	{r4, r5, r6, r7, r8, pc}
 3909              	.LVL268:
 3910              	.L219:
 306:src/main.cpp  **** 
 3911              		.loc 6 306 1 view .LVU1112
 3912 00e2 00BF     		.align	2
 3913              	.L218:
 3914 00e4 00000000 		.word	.LANCHOR40
ARM GAS  /tmp/claude-502/ccZj3JyB.s 			page 108


 3915 00e8 00000000 		.word	.LANCHOR41
 3916 00ec 00000000 		.word	.LANCHOR39
 3917 00f0 00000000 		.word	.LANCHOR38
 3918              		.cfi_endproc
 3919              	.LFE2568:
 3921              		.section	.text._Z13i2c_read_byteb,"ax",%progbits
 3922              		.align	1
 3923              		.p2align 2,,3
 3924              		.global	_Z13i2c_read_byteb
 3925              		.syntax unified
 3926              		.thumb
 3927              		.thumb_func
 3929              	_Z13i2c_read_byteb:
 3930              	.LVL269:
 3931              	.LFB2569:
 309:src/main.cpp  ****     uint8_t b=0;sda_high();
 3932              		.loc 6 309 1 is_stmt 1 view -0
 3933              		.cfi_startproc
 3934              		@ args = 0, pretend = 0, frame = 0
 3935              		@ frame_needed = 0, uses_anonymous_args = 0
 310:src/main.cpp  ****     for(int i=7;i>=0;i--){d();scl_high();d();if(sda.Read())b|=(1<<i);scl_low();}
 3936              		.loc 6 310 5 view .LVU1114
 310:src/main.cpp  ****     for(int i=7;i>=0;i--){d();scl_high();d();if(sda.Read())b|=(1<<i);scl_low();}
 3937              		.loc 6 310 17 view .LVU1115
 3938              	.LBB972:
 3939              	.LBI972:
 287:src/main.cpp  **** inline void sda_low() {sda.Init(SDA_PIN,GPIO::Mode::OUTPUT,GPIO::Pull::NOPULL);sda.Write(false);}
 3940              		.loc 6 287 13 view .LVU1116
 3941              	.LBB973:
 287:src/main.cpp  **** inline void sda_low() {sda.Init(SDA_PIN,GPIO::Mode::OUTPUT,GPIO::Pull::NOPULL);sda.Write(false);}
 3942              		.loc 6 287 24 view .LVU1117
 3943              	.LBE973:
 3944              	.LBE972:
 309:src/main.cpp  ****     uint8_t b=0;sda_high();
 3945              		.loc 6 309 1 is_stmt 0 view .LVU1118
 3946 0000 2DE9F043 		push	{r4, r5, r6, r7, r8, r9, lr}
 3947              		.cfi_def_cfa_offset 28
 3948              		.cfi_offset 4, -28
 3949              		.cfi_offset 5, -24
 3950              		.cfi_offset 6, -20
 3951              		.cfi_offset 7, -16
 3952              		.cfi_offset 8, -12
 3953              		.cfi_offset 9, -8
 3954              		.cfi_offset 14, -4
 3955              	.LBB979:
 3956              	.LBB974:
 287:src/main.cpp  **** inline void sda_low() {sda.Init(SDA_PIN,GPIO::Mode::OUTPUT,GPIO::Pull::NOPULL);sda.Write(false);}
 3957              		.loc 6 287 32 view .LVU1119
 3958 0004 0022     		movs	r2, #0
 3959              	.LBE974:
 3960              	.LBE979:
 309:src/main.cpp  ****     uint8_t b=0;sda_high();
 3961              		.loc 6 309 1 view .LVU1120
 3962 0006 83B0     		sub	sp, sp, #12
 3963              		.cfi_def_cfa_offset 40
 3964              	.LBB980:
 3965              	.LBB975:
ARM GAS  /tmp/claude-502/ccZj3JyB.s 			page 109


 287:src/main.cpp  **** inline void sda_low() {sda.Init(SDA_PIN,GPIO::Mode::OUTPUT,GPIO::Pull::NOPULL);sda.Write(false);}
 3966              		.loc 6 287 32 view .LVU1121
 3967 0008 DFF8F480 		ldr	r8, .L230+12
 3968              	.LBE975:
 3969              	.LBE980:
 309:src/main.cpp  ****     uint8_t b=0;sda_high();
 3970              		.loc 6 309 1 view .LVU1122
 3971 000c 0746     		mov	r7, r0
 3972              	.LBB981:
 3973              	.LBB976:
 287:src/main.cpp  **** inline void sda_low() {sda.Init(SDA_PIN,GPIO::Mode::OUTPUT,GPIO::Pull::NOPULL);sda.Write(false);}
 3974              		.loc 6 287 32 view .LVU1123
 3975 000e 0123     		movs	r3, #1
 3976 0010 3848     		ldr	r0, .L230
 3977              	.LVL270:
 287:src/main.cpp  **** inline void sda_low() {sda.Init(SDA_PIN,GPIO::Mode::OUTPUT,GPIO::Pull::NOPULL);sda.Write(false);}
 3978              		.loc 6 287 32 view .LVU1124
 3979 0012 D8F80010 		ldr	r1, [r8]
 3980              	.LBE976:
 3981              	.LBE981:
 310:src/main.cpp  ****     for(int i=7;i>=0;i--){d();scl_high();d();if(sda.Read())b|=(1<<i);scl_low();}
 3982              		.loc 6 310 13 view .LVU1125
 3983 0016 9146     		mov	r9, r2
 3984              	.LBB982:
 3985              	.LBB977:
 287:src/main.cpp  **** inline void sda_low() {sda.Init(SDA_PIN,GPIO::Mode::OUTPUT,GPIO::Pull::NOPULL);sda.Write(false);}
 3986              		.loc 6 287 32 view .LVU1126
 3987 0018 0092     		str	r2, [sp]
 3988              	.LBE977:
 3989              	.LBE982:
 3990              	.LBB983:
 311:src/main.cpp  ****     if(ack)sda_low();else sda_high();
 3991              		.loc 6 311 13 view .LVU1127
 3992 001a 0725     		movs	r5, #7
 3993 001c 364E     		ldr	r6, .L230+4
 3994              	.LBE983:
 3995              	.LBB1002:
 3996              	.LBB978:
 287:src/main.cpp  **** inline void sda_low() {sda.Init(SDA_PIN,GPIO::Mode::OUTPUT,GPIO::Pull::NOPULL);sda.Write(false);}
 3997              		.loc 6 287 32 view .LVU1128
 3998 001e FFF7FEFF 		bl	_ZN5daisy4GPIO4InitENS_3PinENS0_4ModeENS0_4PullENS0_5SpeedE
 3999              	.LVL271:
 287:src/main.cpp  **** inline void sda_low() {sda.Init(SDA_PIN,GPIO::Mode::OUTPUT,GPIO::Pull::NOPULL);sda.Write(false);}
 4000              		.loc 6 287 32 view .LVU1129
 4001              	.LBE978:
 4002              	.LBE1002:
 4003              	.LBB1003:
 311:src/main.cpp  ****     if(ack)sda_low();else sda_high();
 4004              		.loc 6 311 18 is_stmt 1 view .LVU1130
 4005              	.L222:
 311:src/main.cpp  ****     if(ack)sda_low();else sda_high();
 4006              		.loc 6 311 27 view .LVU1131
 4007              	.LBB984:
 4008              	.LBI984:
 291:src/main.cpp  **** 
 4009              		.loc 6 291 13 view .LVU1132
 4010              	.LBB985:
ARM GAS  /tmp/claude-502/ccZj3JyB.s 			page 110


 291:src/main.cpp  **** 
 4011              		.loc 6 291 17 view .LVU1133
 4012              	.LBE985:
 4013              	.LBE984:
 4014              	.LBB987:
 4015              	.LBB988:
 290:src/main.cpp  **** inline void d(){System::DelayUs(HP);}
 4016              		.loc 6 290 32 is_stmt 0 view .LVU1134
 4017 0022 0024     		movs	r4, #0
 4018              	.LBE988:
 4019              	.LBE987:
 4020              	.LBB993:
 4021              	.LBB986:
 291:src/main.cpp  **** 
 4022              		.loc 6 291 32 view .LVU1135
 4023 0024 0520     		movs	r0, #5
 4024 0026 FFF7FEFF 		bl	_ZN5daisy6System7DelayUsEm
 4025              	.LVL272:
 4026              	.LBE986:
 4027              	.LBE993:
 311:src/main.cpp  ****     if(ack)sda_low();else sda_high();
 4028              		.loc 6 311 31 is_stmt 1 view .LVU1136
 4029              	.LBB994:
 4030              	.LBI994:
 289:src/main.cpp  **** inline void scl_low() {scl.Init(SCL_PIN,GPIO::Mode::OUTPUT,GPIO::Pull::NOPULL);scl.Write(false);}
 4031              		.loc 6 289 13 view .LVU1137
 4032              	.LBB995:
 289:src/main.cpp  **** inline void scl_low() {scl.Init(SCL_PIN,GPIO::Mode::OUTPUT,GPIO::Pull::NOPULL);scl.Write(false);}
 4033              		.loc 6 289 24 view .LVU1138
 289:src/main.cpp  **** inline void scl_low() {scl.Init(SCL_PIN,GPIO::Mode::OUTPUT,GPIO::Pull::NOPULL);scl.Write(false);}
 4034              		.loc 6 289 32 is_stmt 0 view .LVU1139
 4035 002a 0123     		movs	r3, #1
 4036 002c 2246     		mov	r2, r4
 4037 002e 3168     		ldr	r1, [r6]
 4038 0030 3248     		ldr	r0, .L230+8
 4039 0032 0094     		str	r4, [sp]
 4040 0034 FFF7FEFF 		bl	_ZN5daisy4GPIO4InitENS_3PinENS0_4ModeENS0_4PullENS0_5SpeedE
 4041              	.LVL273:
 4042              	.LBE995:
 4043              	.LBE994:
 311:src/main.cpp  ****     if(ack)sda_low();else sda_high();
 4044              		.loc 6 311 42 is_stmt 1 view .LVU1140
 4045              	.LBB996:
 4046              	.LBI996:
 291:src/main.cpp  **** 
 4047              		.loc 6 291 13 view .LVU1141
 4048              	.LBB997:
 291:src/main.cpp  **** 
 4049              		.loc 6 291 17 view .LVU1142
 291:src/main.cpp  **** 
 4050              		.loc 6 291 32 is_stmt 0 view .LVU1143
 4051 0038 0520     		movs	r0, #5
 4052 003a FFF7FEFF 		bl	_ZN5daisy6System7DelayUsEm
 4053              	.LVL274:
 4054              	.LBE997:
 4055              	.LBE996:
 311:src/main.cpp  ****     if(ack)sda_low();else sda_high();
ARM GAS  /tmp/claude-502/ccZj3JyB.s 			page 111


 4056              		.loc 6 311 46 is_stmt 1 view .LVU1144
 311:src/main.cpp  ****     if(ack)sda_low();else sda_high();
 4057              		.loc 6 311 57 is_stmt 0 view .LVU1145
 4058 003e 2D48     		ldr	r0, .L230
 4059 0040 FFF7FEFF 		bl	_ZN5daisy4GPIO4ReadEv
 4060              	.LVL275:
 311:src/main.cpp  ****     if(ack)sda_low();else sda_high();
 4061              		.loc 6 311 60 is_stmt 1 view .LVU1146
 311:src/main.cpp  ****     if(ack)sda_low();else sda_high();
 4062              		.loc 6 311 65 is_stmt 0 view .LVU1147
 4063 0044 0121     		movs	r1, #1
 311:src/main.cpp  ****     if(ack)sda_low();else sda_high();
 4064              		.loc 6 311 57 view .LVU1148
 4065 0046 8646     		mov	lr, r0
 4066              	.LBB998:
 4067              	.LBB989:
 290:src/main.cpp  **** inline void d(){System::DelayUs(HP);}
 4068              		.loc 6 290 32 view .LVU1149
 4069 0048 2346     		mov	r3, r4
 4070              	.LBE989:
 4071              	.LBE998:
 311:src/main.cpp  ****     if(ack)sda_low();else sda_high();
 4072              		.loc 6 311 65 view .LVU1150
 4073 004a 01FA05FC 		lsl	ip, r1, r5
 4074              	.LBB999:
 4075              	.LBB990:
 290:src/main.cpp  **** inline void d(){System::DelayUs(HP);}
 4076              		.loc 6 290 32 view .LVU1151
 4077 004e 0A46     		mov	r2, r1
 4078 0050 2A48     		ldr	r0, .L230+8
 4079              	.LBE990:
 4080              	.LBE999:
 311:src/main.cpp  ****     if(ack)sda_low();else sda_high();
 4081              		.loc 6 311 5 view .LVU1152
 4082 0052 013D     		subs	r5, r5, #1
 4083              	.LVL276:
 4084              	.LBB1000:
 4085              	.LBB991:
 290:src/main.cpp  **** inline void d(){System::DelayUs(HP);}
 4086              		.loc 6 290 32 view .LVU1153
 4087 0054 3168     		ldr	r1, [r6]
 4088              	.LBE991:
 4089              	.LBE1000:
 311:src/main.cpp  ****     if(ack)sda_low();else sda_high();
 4090              		.loc 6 311 46 view .LVU1154
 4091 0056 BEF1000F 		cmp	lr, #0
 4092 005a 03D0     		beq	.L221
 311:src/main.cpp  ****     if(ack)sda_low();else sda_high();
 4093              		.loc 6 311 61 discriminator 3 view .LVU1155
 4094 005c 4CEA090C 		orr	ip, ip, r9
 4095 0060 5FFA8CF9 		uxtb	r9, ip
 4096              	.LVL277:
 4097              	.L221:
 311:src/main.cpp  ****     if(ack)sda_low();else sda_high();
 4098              		.loc 6 311 70 is_stmt 1 discriminator 5 view .LVU1156
 4099              	.LBB1001:
 4100              	.LBI987:
ARM GAS  /tmp/claude-502/ccZj3JyB.s 			page 112


 290:src/main.cpp  **** inline void d(){System::DelayUs(HP);}
 4101              		.loc 6 290 13 discriminator 5 view .LVU1157
 4102              	.LBB992:
 290:src/main.cpp  **** inline void d(){System::DelayUs(HP);}
 4103              		.loc 6 290 24 discriminator 5 view .LVU1158
 290:src/main.cpp  **** inline void d(){System::DelayUs(HP);}
 4104              		.loc 6 290 32 is_stmt 0 discriminator 5 view .LVU1159
 4105 0064 0094     		str	r4, [sp]
 4106 0066 FFF7FEFF 		bl	_ZN5daisy4GPIO4InitENS_3PinENS0_4ModeENS0_4PullENS0_5SpeedE
 4107              	.LVL278:
 290:src/main.cpp  **** inline void d(){System::DelayUs(HP);}
 4108              		.loc 6 290 80 is_stmt 1 discriminator 5 view .LVU1160
 290:src/main.cpp  **** inline void d(){System::DelayUs(HP);}
 4109              		.loc 6 290 89 is_stmt 0 discriminator 5 view .LVU1161
 4110 006a 2146     		mov	r1, r4
 4111 006c 2348     		ldr	r0, .L230+8
 4112 006e FFF7FEFF 		bl	_ZN5daisy4GPIO5WriteEb
 4113              	.LVL279:
 4114              	.LBE992:
 4115              	.LBE1001:
 311:src/main.cpp  ****     if(ack)sda_low();else sda_high();
 4116              		.loc 6 311 5 is_stmt 1 discriminator 5 view .LVU1162
 311:src/main.cpp  ****     if(ack)sda_low();else sda_high();
 4117              		.loc 6 311 18 discriminator 5 view .LVU1163
 4118 0072 6B1C     		adds	r3, r5, #1
 4119 0074 D5D1     		bne	.L222
 311:src/main.cpp  ****     if(ack)sda_low();else sda_high();
 4120              		.loc 6 311 18 is_stmt 0 discriminator 5 view .LVU1164
 4121              	.LBE1003:
 312:src/main.cpp  ****     d();scl_high();d();scl_low();d();sda_high();
 4122              		.loc 6 312 5 is_stmt 1 view .LVU1165
 4123 0076 002F     		cmp	r7, #0
 4124 0078 33D0     		beq	.L223
 312:src/main.cpp  ****     d();scl_high();d();scl_low();d();sda_high();
 4125              		.loc 6 312 12 view .LVU1166
 4126              	.LBB1004:
 4127              	.LBI1004:
 288:src/main.cpp  **** inline void scl_high(){scl.Init(SCL_PIN,GPIO::Mode::INPUT, GPIO::Pull::PULLUP);}
 4128              		.loc 6 288 13 view .LVU1167
 4129              	.LBB1005:
 288:src/main.cpp  **** inline void scl_high(){scl.Init(SCL_PIN,GPIO::Mode::INPUT, GPIO::Pull::PULLUP);}
 4130              		.loc 6 288 24 view .LVU1168
 288:src/main.cpp  **** inline void scl_high(){scl.Init(SCL_PIN,GPIO::Mode::INPUT, GPIO::Pull::PULLUP);}
 4131              		.loc 6 288 32 is_stmt 0 view .LVU1169
 4132 007a D8F80010 		ldr	r1, [r8]
 4133 007e 2346     		mov	r3, r4
 4134 0080 1C48     		ldr	r0, .L230
 4135 0082 0122     		movs	r2, #1
 4136 0084 0094     		str	r4, [sp]
 4137 0086 FFF7FEFF 		bl	_ZN5daisy4GPIO4InitENS_3PinENS0_4ModeENS0_4PullENS0_5SpeedE
 4138              	.LVL280:
 288:src/main.cpp  **** inline void scl_high(){scl.Init(SCL_PIN,GPIO::Mode::INPUT, GPIO::Pull::PULLUP);}
 4139              		.loc 6 288 80 is_stmt 1 view .LVU1170
 288:src/main.cpp  **** inline void scl_high(){scl.Init(SCL_PIN,GPIO::Mode::INPUT, GPIO::Pull::PULLUP);}
 4140              		.loc 6 288 89 is_stmt 0 view .LVU1171
 4141 008a 2146     		mov	r1, r4
 4142 008c 1948     		ldr	r0, .L230
ARM GAS  /tmp/claude-502/ccZj3JyB.s 			page 113


 4143 008e FFF7FEFF 		bl	_ZN5daisy4GPIO5WriteEb
 4144              	.LVL281:
 4145              	.L224:
 288:src/main.cpp  **** inline void scl_high(){scl.Init(SCL_PIN,GPIO::Mode::INPUT, GPIO::Pull::PULLUP);}
 4146              		.loc 6 288 89 view .LVU1172
 4147              	.LBE1005:
 4148              	.LBE1004:
 313:src/main.cpp  ****     return b;
 4149              		.loc 6 313 5 is_stmt 1 view .LVU1173
 4150              	.LBB1006:
 4151              	.LBI1006:
 291:src/main.cpp  **** 
 4152              		.loc 6 291 13 view .LVU1174
 4153              	.LBB1007:
 291:src/main.cpp  **** 
 4154              		.loc 6 291 17 view .LVU1175
 4155              	.LBE1007:
 4156              	.LBE1006:
 4157              	.LBB1009:
 4158              	.LBB1010:
 289:src/main.cpp  **** inline void scl_low() {scl.Init(SCL_PIN,GPIO::Mode::OUTPUT,GPIO::Pull::NOPULL);scl.Write(false);}
 4159              		.loc 6 289 32 is_stmt 0 view .LVU1176
 4160 0092 0024     		movs	r4, #0
 4161              	.LBE1010:
 4162              	.LBE1009:
 4163              	.LBB1012:
 4164              	.LBB1008:
 291:src/main.cpp  **** 
 4165              		.loc 6 291 32 view .LVU1177
 4166 0094 0520     		movs	r0, #5
 4167 0096 FFF7FEFF 		bl	_ZN5daisy6System7DelayUsEm
 4168              	.LVL282:
 4169              	.LBE1008:
 4170              	.LBE1012:
 313:src/main.cpp  ****     return b;
 4171              		.loc 6 313 9 is_stmt 1 view .LVU1178
 4172              	.LBB1013:
 4173              	.LBI1009:
 289:src/main.cpp  **** inline void scl_low() {scl.Init(SCL_PIN,GPIO::Mode::OUTPUT,GPIO::Pull::NOPULL);scl.Write(false);}
 4174              		.loc 6 289 13 view .LVU1179
 4175              	.LBB1011:
 289:src/main.cpp  **** inline void scl_low() {scl.Init(SCL_PIN,GPIO::Mode::OUTPUT,GPIO::Pull::NOPULL);scl.Write(false);}
 4176              		.loc 6 289 24 view .LVU1180
 289:src/main.cpp  **** inline void scl_low() {scl.Init(SCL_PIN,GPIO::Mode::OUTPUT,GPIO::Pull::NOPULL);scl.Write(false);}
 4177              		.loc 6 289 32 is_stmt 0 view .LVU1181
 4178 009a 3168     		ldr	r1, [r6]
 4179 009c 2246     		mov	r2, r4
 4180 009e 0123     		movs	r3, #1
 4181 00a0 1648     		ldr	r0, .L230+8
 4182 00a2 0094     		str	r4, [sp]
 4183 00a4 FFF7FEFF 		bl	_ZN5daisy4GPIO4InitENS_3PinENS0_4ModeENS0_4PullENS0_5SpeedE
 4184              	.LVL283:
 4185              	.LBE1011:
 4186              	.LBE1013:
 313:src/main.cpp  ****     return b;
 4187              		.loc 6 313 20 is_stmt 1 view .LVU1182
 4188              	.LBB1014:
ARM GAS  /tmp/claude-502/ccZj3JyB.s 			page 114


 4189              	.LBI1014:
 291:src/main.cpp  **** 
 4190              		.loc 6 291 13 view .LVU1183
 4191              	.LBB1015:
 291:src/main.cpp  **** 
 4192              		.loc 6 291 17 view .LVU1184
 291:src/main.cpp  **** 
 4193              		.loc 6 291 32 is_stmt 0 view .LVU1185
 4194 00a8 0520     		movs	r0, #5
 4195 00aa FFF7FEFF 		bl	_ZN5daisy6System7DelayUsEm
 4196              	.LVL284:
 4197              	.LBE1015:
 4198              	.LBE1014:
 313:src/main.cpp  ****     return b;
 4199              		.loc 6 313 24 is_stmt 1 view .LVU1186
 4200              	.LBB1016:
 4201              	.LBI1016:
 290:src/main.cpp  **** inline void d(){System::DelayUs(HP);}
 4202              		.loc 6 290 13 view .LVU1187
 4203              	.LBB1017:
 290:src/main.cpp  **** inline void d(){System::DelayUs(HP);}
 4204              		.loc 6 290 24 view .LVU1188
 290:src/main.cpp  **** inline void d(){System::DelayUs(HP);}
 4205              		.loc 6 290 32 is_stmt 0 view .LVU1189
 4206 00ae 2346     		mov	r3, r4
 4207 00b0 0122     		movs	r2, #1
 4208 00b2 3168     		ldr	r1, [r6]
 4209 00b4 1148     		ldr	r0, .L230+8
 4210 00b6 0094     		str	r4, [sp]
 4211 00b8 FFF7FEFF 		bl	_ZN5daisy4GPIO4InitENS_3PinENS0_4ModeENS0_4PullENS0_5SpeedE
 4212              	.LVL285:
 290:src/main.cpp  **** inline void d(){System::DelayUs(HP);}
 4213              		.loc 6 290 80 is_stmt 1 view .LVU1190
 290:src/main.cpp  **** inline void d(){System::DelayUs(HP);}
 4214              		.loc 6 290 89 is_stmt 0 view .LVU1191
 4215 00bc 2146     		mov	r1, r4
 4216 00be 0F48     		ldr	r0, .L230+8
 4217 00c0 FFF7FEFF 		bl	_ZN5daisy4GPIO5WriteEb
 4218              	.LVL286:
 4219              	.LBE1017:
 4220              	.LBE1016:
 313:src/main.cpp  ****     return b;
 4221              		.loc 6 313 34 is_stmt 1 view .LVU1192
 4222              	.LBB1018:
 4223              	.LBI1018:
 291:src/main.cpp  **** 
 4224              		.loc 6 291 13 view .LVU1193
 4225              	.LBB1019:
 291:src/main.cpp  **** 
 4226              		.loc 6 291 17 view .LVU1194
 291:src/main.cpp  **** 
 4227              		.loc 6 291 32 is_stmt 0 view .LVU1195
 4228 00c4 0520     		movs	r0, #5
 4229 00c6 FFF7FEFF 		bl	_ZN5daisy6System7DelayUsEm
 4230              	.LVL287:
 4231              	.LBE1019:
 4232              	.LBE1018:
ARM GAS  /tmp/claude-502/ccZj3JyB.s 			page 115


 313:src/main.cpp  ****     return b;
 4233              		.loc 6 313 38 is_stmt 1 view .LVU1196
 4234              	.LBB1020:
 4235              	.LBI1020:
 287:src/main.cpp  **** inline void sda_low() {sda.Init(SDA_PIN,GPIO::Mode::OUTPUT,GPIO::Pull::NOPULL);sda.Write(false);}
 4236              		.loc 6 287 13 view .LVU1197
 4237              	.LBB1021:
 287:src/main.cpp  **** inline void sda_low() {sda.Init(SDA_PIN,GPIO::Mode::OUTPUT,GPIO::Pull::NOPULL);sda.Write(false);}
 4238              		.loc 6 287 24 view .LVU1198
 287:src/main.cpp  **** inline void sda_low() {sda.Init(SDA_PIN,GPIO::Mode::OUTPUT,GPIO::Pull::NOPULL);sda.Write(false);}
 4239              		.loc 6 287 32 is_stmt 0 view .LVU1199
 4240 00ca 0123     		movs	r3, #1
 4241 00cc 2246     		mov	r2, r4
 4242 00ce D8F80010 		ldr	r1, [r8]
 4243 00d2 0848     		ldr	r0, .L230
 4244 00d4 0094     		str	r4, [sp]
 4245 00d6 FFF7FEFF 		bl	_ZN5daisy4GPIO4InitENS_3PinENS0_4ModeENS0_4PullENS0_5SpeedE
 4246              	.LVL288:
 4247              	.LBE1021:
 4248              	.LBE1020:
 314:src/main.cpp  **** }
 4249              		.loc 6 314 5 is_stmt 1 view .LVU1200
 315:src/main.cpp  **** 
 4250              		.loc 6 315 1 is_stmt 0 view .LVU1201
 4251 00da 4846     		mov	r0, r9
 4252 00dc 03B0     		add	sp, sp, #12
 4253              		.cfi_remember_state
 4254              		.cfi_def_cfa_offset 28
 4255              		@ sp needed
 4256 00de BDE8F083 		pop	{r4, r5, r6, r7, r8, r9, pc}
 4257              	.LVL289:
 4258              	.L223:
 4259              		.cfi_restore_state
 312:src/main.cpp  ****     d();scl_high();d();scl_low();d();sda_high();
 4260              		.loc 6 312 27 is_stmt 1 view .LVU1202
 4261              	.LBB1022:
 4262              	.LBI1022:
 287:src/main.cpp  **** inline void sda_low() {sda.Init(SDA_PIN,GPIO::Mode::OUTPUT,GPIO::Pull::NOPULL);sda.Write(false);}
 4263              		.loc 6 287 13 view .LVU1203
 4264              	.LBB1023:
 287:src/main.cpp  **** inline void sda_low() {sda.Init(SDA_PIN,GPIO::Mode::OUTPUT,GPIO::Pull::NOPULL);sda.Write(false);}
 4265              		.loc 6 287 24 view .LVU1204
 287:src/main.cpp  **** inline void sda_low() {sda.Init(SDA_PIN,GPIO::Mode::OUTPUT,GPIO::Pull::NOPULL);sda.Write(false);}
 4266              		.loc 6 287 32 is_stmt 0 view .LVU1205
 4267 00e2 0123     		movs	r3, #1
 4268 00e4 3A46     		mov	r2, r7
 4269 00e6 D8F80010 		ldr	r1, [r8]
 4270 00ea 0248     		ldr	r0, .L230
 4271 00ec 0097     		str	r7, [sp]
 4272 00ee FFF7FEFF 		bl	_ZN5daisy4GPIO4InitENS_3PinENS0_4ModeENS0_4PullENS0_5SpeedE
 4273              	.LVL290:
 287:src/main.cpp  **** inline void sda_low() {sda.Init(SDA_PIN,GPIO::Mode::OUTPUT,GPIO::Pull::NOPULL);sda.Write(false);}
 4274              		.loc 6 287 80 view .LVU1206
 4275 00f2 CEE7     		b	.L224
 4276              	.L231:
 4277              		.align	2
 4278              	.L230:
ARM GAS  /tmp/claude-502/ccZj3JyB.s 			page 116


 4279 00f4 00000000 		.word	.LANCHOR39
 4280 00f8 00000000 		.word	.LANCHOR40
 4281 00fc 00000000 		.word	.LANCHOR41
 4282 0100 00000000 		.word	.LANCHOR38
 4283              	.LBE1023:
 4284              	.LBE1022:
 4285              		.cfi_endproc
 4286              	.LFE2569:
 4288              		.section	.text._Z9mpr_writehh,"ax",%progbits
 4289              		.align	1
 4290              		.p2align 2,,3
 4291              		.global	_Z9mpr_writehh
 4292              		.syntax unified
 4293              		.thumb
 4294              		.thumb_func
 4296              	_Z9mpr_writehh:
 4297              	.LVL291:
 4298              	.LFB2570:
 318:src/main.cpp  ****     i2c_start();
 4299              		.loc 6 318 1 is_stmt 1 view -0
 4300              		.cfi_startproc
 4301              		@ args = 0, pretend = 0, frame = 0
 4302              		@ frame_needed = 0, uses_anonymous_args = 0
 319:src/main.cpp  ****     if(!i2c_write_byte((MPR_ADDR<<1)|0)){i2c_stop();return false;}
 4303              		.loc 6 319 5 view .LVU1208
 318:src/main.cpp  ****     i2c_start();
 4304              		.loc 6 318 1 is_stmt 0 view .LVU1209
 4305 0000 38B5     		push	{r3, r4, r5, lr}
 4306              		.cfi_def_cfa_offset 16
 4307              		.cfi_offset 3, -16
 4308              		.cfi_offset 4, -12
 4309              		.cfi_offset 5, -8
 4310              		.cfi_offset 14, -4
 318:src/main.cpp  ****     i2c_start();
 4311              		.loc 6 318 1 view .LVU1210
 4312 0002 0446     		mov	r4, r0
 4313 0004 0D46     		mov	r5, r1
 319:src/main.cpp  ****     if(!i2c_write_byte((MPR_ADDR<<1)|0)){i2c_stop();return false;}
 4314              		.loc 6 319 14 view .LVU1211
 4315 0006 FFF7FEFF 		bl	_Z9i2c_startv
 4316              	.LVL292:
 320:src/main.cpp  ****     if(!i2c_write_byte(reg))            {i2c_stop();return false;}
 4317              		.loc 6 320 5 is_stmt 1 view .LVU1212
 320:src/main.cpp  ****     if(!i2c_write_byte(reg))            {i2c_stop();return false;}
 4318              		.loc 6 320 23 is_stmt 0 view .LVU1213
 4319 000a B420     		movs	r0, #180
 4320 000c FFF7FEFF 		bl	_Z14i2c_write_byteh
 4321              	.LVL293:
 320:src/main.cpp  ****     if(!i2c_write_byte(reg))            {i2c_stop();return false;}
 4322              		.loc 6 320 5 view .LVU1214
 4323 0010 60B1     		cbz	r0, .L235
 321:src/main.cpp  ****     if(!i2c_write_byte(val))            {i2c_stop();return false;}
 4324              		.loc 6 321 5 is_stmt 1 view .LVU1215
 321:src/main.cpp  ****     if(!i2c_write_byte(val))            {i2c_stop();return false;}
 4325              		.loc 6 321 23 is_stmt 0 view .LVU1216
 4326 0012 2046     		mov	r0, r4
 4327 0014 FFF7FEFF 		bl	_Z14i2c_write_byteh
ARM GAS  /tmp/claude-502/ccZj3JyB.s 			page 117


 4328              	.LVL294:
 321:src/main.cpp  ****     if(!i2c_write_byte(val))            {i2c_stop();return false;}
 4329              		.loc 6 321 5 view .LVU1217
 4330 0018 40B1     		cbz	r0, .L235
 4331              	.LVL295:
 4332              	.LBB1026:
 4333              	.LBI1026:
 317:src/main.cpp  **** {
 4334              		.loc 6 317 6 is_stmt 1 view .LVU1218
 4335              	.LBB1027:
 322:src/main.cpp  ****     i2c_stop();return true;
 4336              		.loc 6 322 5 view .LVU1219
 322:src/main.cpp  ****     i2c_stop();return true;
 4337              		.loc 6 322 23 is_stmt 0 view .LVU1220
 4338 001a 2846     		mov	r0, r5
 4339 001c FFF7FEFF 		bl	_Z14i2c_write_byteh
 4340              	.LVL296:
 322:src/main.cpp  ****     i2c_stop();return true;
 4341              		.loc 6 322 5 view .LVU1221
 4342 0020 0446     		mov	r4, r0
 4343              	.LVL297:
 322:src/main.cpp  ****     i2c_stop();return true;
 4344              		.loc 6 322 5 view .LVU1222
 4345 0022 18B1     		cbz	r0, .L235
 323:src/main.cpp  **** }
 4346              		.loc 6 323 5 is_stmt 1 view .LVU1223
 323:src/main.cpp  **** }
 4347              		.loc 6 323 13 is_stmt 0 view .LVU1224
 4348 0024 FFF7FEFF 		bl	_Z8i2c_stopv
 4349              	.LVL298:
 323:src/main.cpp  **** }
 4350              		.loc 6 323 16 is_stmt 1 view .LVU1225
 323:src/main.cpp  **** }
 4351              		.loc 6 323 16 is_stmt 0 view .LVU1226
 4352              	.LBE1027:
 4353              	.LBE1026:
 324:src/main.cpp  **** 
 4354              		.loc 6 324 1 view .LVU1227
 4355 0028 2046     		mov	r0, r4
 4356 002a 38BD     		pop	{r3, r4, r5, pc}
 4357              	.L235:
 320:src/main.cpp  ****     if(!i2c_write_byte(reg))            {i2c_stop();return false;}
 4358              		.loc 6 320 42 is_stmt 1 discriminator 1 view .LVU1228
 320:src/main.cpp  ****     if(!i2c_write_byte(reg))            {i2c_stop();return false;}
 4359              		.loc 6 320 60 is_stmt 0 discriminator 1 view .LVU1229
 4360 002c 0024     		movs	r4, #0
 320:src/main.cpp  ****     if(!i2c_write_byte(reg))            {i2c_stop();return false;}
 4361              		.loc 6 320 50 discriminator 1 view .LVU1230
 4362 002e FFF7FEFF 		bl	_Z8i2c_stopv
 4363              	.LVL299:
 320:src/main.cpp  ****     if(!i2c_write_byte(reg))            {i2c_stop();return false;}
 4364              		.loc 6 320 53 is_stmt 1 discriminator 1 view .LVU1231
 324:src/main.cpp  **** 
 4365              		.loc 6 324 1 is_stmt 0 discriminator 1 view .LVU1232
 4366 0032 2046     		mov	r0, r4
 4367 0034 38BD     		pop	{r3, r4, r5, pc}
 4368              		.cfi_endproc
ARM GAS  /tmp/claude-502/ccZj3JyB.s 			page 118


 4369              	.LFE2570:
 4371 0036 00BF     		.section	.text._Z8mpr_readhPhh,"ax",%progbits
 4372              		.align	1
 4373              		.p2align 2,,3
 4374              		.global	_Z8mpr_readhPhh
 4375              		.syntax unified
 4376              		.thumb
 4377              		.thumb_func
 4379              	_Z8mpr_readhPhh:
 4380              	.LVL300:
 4381              	.LFB2571:
 327:src/main.cpp  ****     i2c_start();
 4382              		.loc 6 327 1 is_stmt 1 view -0
 4383              		.cfi_startproc
 4384              		@ args = 0, pretend = 0, frame = 0
 4385              		@ frame_needed = 0, uses_anonymous_args = 0
 327:src/main.cpp  ****     i2c_start();
 4386              		.loc 6 327 1 is_stmt 0 view .LVU1234
 4387 0000 2DE9F041 		push	{r4, r5, r6, r7, r8, lr}
 4388              		.cfi_def_cfa_offset 24
 4389              		.cfi_offset 4, -24
 4390              		.cfi_offset 5, -20
 4391              		.cfi_offset 6, -16
 4392              		.cfi_offset 7, -12
 4393              		.cfi_offset 8, -8
 4394              		.cfi_offset 14, -4
 327:src/main.cpp  ****     i2c_start();
 4395              		.loc 6 327 1 view .LVU1235
 4396 0004 0446     		mov	r4, r0
 328:src/main.cpp  ****     if(!i2c_write_byte((MPR_ADDR<<1)|0)){i2c_stop();return false;}
 4397              		.loc 6 328 5 is_stmt 1 view .LVU1236
 327:src/main.cpp  ****     i2c_start();
 4398              		.loc 6 327 1 is_stmt 0 view .LVU1237
 4399 0006 0E46     		mov	r6, r1
 4400 0008 1546     		mov	r5, r2
 328:src/main.cpp  ****     if(!i2c_write_byte((MPR_ADDR<<1)|0)){i2c_stop();return false;}
 4401              		.loc 6 328 14 view .LVU1238
 4402 000a FFF7FEFF 		bl	_Z9i2c_startv
 4403              	.LVL301:
 329:src/main.cpp  ****     if(!i2c_write_byte(reg))            {i2c_stop();return false;}
 4404              		.loc 6 329 5 is_stmt 1 view .LVU1239
 329:src/main.cpp  ****     if(!i2c_write_byte(reg))            {i2c_stop();return false;}
 4405              		.loc 6 329 23 is_stmt 0 view .LVU1240
 4406 000e B420     		movs	r0, #180
 4407 0010 FFF7FEFF 		bl	_Z14i2c_write_byteh
 4408              	.LVL302:
 329:src/main.cpp  ****     if(!i2c_write_byte(reg))            {i2c_stop();return false;}
 4409              		.loc 6 329 5 view .LVU1241
 4410 0014 08B3     		cbz	r0, .L246
 330:src/main.cpp  ****     i2c_start();
 4411              		.loc 6 330 5 is_stmt 1 view .LVU1242
 330:src/main.cpp  ****     i2c_start();
 4412              		.loc 6 330 23 is_stmt 0 view .LVU1243
 4413 0016 2046     		mov	r0, r4
 4414 0018 FFF7FEFF 		bl	_Z14i2c_write_byteh
 4415              	.LVL303:
 330:src/main.cpp  ****     i2c_start();
ARM GAS  /tmp/claude-502/ccZj3JyB.s 			page 119


 4416              		.loc 6 330 5 view .LVU1244
 4417 001c E8B1     		cbz	r0, .L246
 4418              	.LVL304:
 4419              	.LBB1031:
 4420              	.LBI1031:
 326:src/main.cpp  **** {
 4421              		.loc 6 326 6 is_stmt 1 view .LVU1245
 4422              	.LBB1032:
 331:src/main.cpp  ****     if(!i2c_write_byte((MPR_ADDR<<1)|1)){i2c_stop();return false;}
 4423              		.loc 6 331 5 view .LVU1246
 331:src/main.cpp  ****     if(!i2c_write_byte((MPR_ADDR<<1)|1)){i2c_stop();return false;}
 4424              		.loc 6 331 14 is_stmt 0 view .LVU1247
 4425 001e FFF7FEFF 		bl	_Z9i2c_startv
 4426              	.LVL305:
 332:src/main.cpp  ****     for(uint8_t i=0;i<len;i++) buf[i]=i2c_read_byte(i<len-1);
 4427              		.loc 6 332 5 is_stmt 1 view .LVU1248
 332:src/main.cpp  ****     for(uint8_t i=0;i<len;i++) buf[i]=i2c_read_byte(i<len-1);
 4428              		.loc 6 332 23 is_stmt 0 view .LVU1249
 4429 0022 B520     		movs	r0, #181
 4430 0024 FFF7FEFF 		bl	_Z14i2c_write_byteh
 4431              	.LVL306:
 332:src/main.cpp  ****     for(uint8_t i=0;i<len;i++) buf[i]=i2c_read_byte(i<len-1);
 4432              		.loc 6 332 5 view .LVU1250
 4433 0028 0746     		mov	r7, r0
 4434 002a B0B1     		cbz	r0, .L246
 4435              	.LVL307:
 4436              	.LBB1033:
 333:src/main.cpp  ****     i2c_stop();return true;
 4437              		.loc 6 333 22 is_stmt 1 view .LVU1251
 4438 002c 85B1     		cbz	r5, .L248
 333:src/main.cpp  ****     i2c_stop();return true;
 4439              		.loc 6 333 58 is_stmt 0 view .LVU1252
 4440 002e 013D     		subs	r5, r5, #1
 4441              	.LVL308:
 333:src/main.cpp  ****     i2c_stop();return true;
 4442              		.loc 6 333 58 view .LVU1253
 4443 0030 741E     		subs	r4, r6, #1
 4444              	.LVL309:
 333:src/main.cpp  ****     i2c_stop();return true;
 4445              		.loc 6 333 58 view .LVU1254
 4446 0032 56FA85F8 		uxtab	r8, r6, r5
 4447 0036 C6F10106 		rsb	r6, r6, #1
 4448              	.LVL310:
 4449              	.L249:
 333:src/main.cpp  ****     i2c_stop();return true;
 4450              		.loc 6 333 32 is_stmt 1 view .LVU1255
 333:src/main.cpp  ****     i2c_stop();return true;
 4451              		.loc 6 333 52 is_stmt 0 view .LVU1256
 4452 003a 3019     		adds	r0, r6, r4
 4453 003c 8542     		cmp	r5, r0
 4454 003e D4BF     		ite	le
 4455 0040 0020     		movle	r0, #0
 4456 0042 0120     		movgt	r0, #1
 4457 0044 FFF7FEFF 		bl	_Z13i2c_read_byteb
 4458              	.LVL311:
 333:src/main.cpp  ****     i2c_stop();return true;
 4459              		.loc 6 333 38 view .LVU1257
ARM GAS  /tmp/claude-502/ccZj3JyB.s 			page 120


 4460 0048 04F8010F 		strb	r0, [r4, #1]!
 4461              	.LVL312:
 333:src/main.cpp  ****     i2c_stop();return true;
 4462              		.loc 6 333 5 is_stmt 1 view .LVU1258
 333:src/main.cpp  ****     i2c_stop();return true;
 4463              		.loc 6 333 22 view .LVU1259
 4464 004c 4445     		cmp	r4, r8
 4465 004e F4D1     		bne	.L249
 4466              	.LVL313:
 4467              	.L248:
 333:src/main.cpp  ****     i2c_stop();return true;
 4468              		.loc 6 333 22 is_stmt 0 view .LVU1260
 4469              	.LBE1033:
 334:src/main.cpp  **** }
 4470              		.loc 6 334 5 is_stmt 1 view .LVU1261
 334:src/main.cpp  **** }
 4471              		.loc 6 334 13 is_stmt 0 view .LVU1262
 4472 0050 FFF7FEFF 		bl	_Z8i2c_stopv
 4473              	.LVL314:
 334:src/main.cpp  **** }
 4474              		.loc 6 334 16 is_stmt 1 view .LVU1263
 334:src/main.cpp  **** }
 4475              		.loc 6 334 16 is_stmt 0 view .LVU1264
 4476              	.LBE1032:
 4477              	.LBE1031:
 335:src/main.cpp  **** 
 4478              		.loc 6 335 1 view .LVU1265
 4479 0054 3846     		mov	r0, r7
 4480 0056 BDE8F081 		pop	{r4, r5, r6, r7, r8, pc}
 4481              	.LVL315:
 4482              	.L246:
 329:src/main.cpp  ****     if(!i2c_write_byte(reg))            {i2c_stop();return false;}
 4483              		.loc 6 329 42 is_stmt 1 discriminator 1 view .LVU1266
 329:src/main.cpp  ****     if(!i2c_write_byte(reg))            {i2c_stop();return false;}
 4484              		.loc 6 329 60 is_stmt 0 discriminator 1 view .LVU1267
 4485 005a 0027     		movs	r7, #0
 329:src/main.cpp  ****     if(!i2c_write_byte(reg))            {i2c_stop();return false;}
 4486              		.loc 6 329 50 discriminator 1 view .LVU1268
 4487 005c FFF7FEFF 		bl	_Z8i2c_stopv
 4488              	.LVL316:
 329:src/main.cpp  ****     if(!i2c_write_byte(reg))            {i2c_stop();return false;}
 4489              		.loc 6 329 53 is_stmt 1 discriminator 1 view .LVU1269
 335:src/main.cpp  **** 
 4490              		.loc 6 335 1 is_stmt 0 discriminator 1 view .LVU1270
 4491 0060 3846     		mov	r0, r7
 4492 0062 BDE8F081 		pop	{r4, r5, r6, r7, r8, pc}
 335:src/main.cpp  **** 
 4493              		.loc 6 335 1 discriminator 1 view .LVU1271
 4494              		.cfi_endproc
 4495              	.LFE2571:
 4497 0066 00BF     		.section	.text._Z8mpr_initv,"ax",%progbits
 4498              		.align	1
 4499              		.p2align 2,,3
 4500              		.global	_Z8mpr_initv
 4501              		.syntax unified
 4502              		.thumb
 4503              		.thumb_func
ARM GAS  /tmp/claude-502/ccZj3JyB.s 			page 121


 4505              	_Z8mpr_initv:
 4506              	.LFB2572:
 338:src/main.cpp  ****     mpr_write(REG_SOFTRESET,0x63);System::Delay(10);
 4507              		.loc 6 338 1 is_stmt 1 view -0
 4508              		.cfi_startproc
 4509              		@ args = 0, pretend = 0, frame = 8
 4510              		@ frame_needed = 0, uses_anonymous_args = 0
 339:src/main.cpp  ****     mpr_write(REG_ECR,0x00);
 4511              		.loc 6 339 5 view .LVU1273
 338:src/main.cpp  ****     mpr_write(REG_SOFTRESET,0x63);System::Delay(10);
 4512              		.loc 6 338 1 is_stmt 0 view .LVU1274
 4513 0000 10B5     		push	{r4, lr}
 4514              		.cfi_def_cfa_offset 8
 4515              		.cfi_offset 4, -8
 4516              		.cfi_offset 14, -4
 339:src/main.cpp  ****     mpr_write(REG_ECR,0x00);
 4517              		.loc 6 339 14 view .LVU1275
 4518 0002 6321     		movs	r1, #99
 338:src/main.cpp  ****     mpr_write(REG_SOFTRESET,0x63);System::Delay(10);
 4519              		.loc 6 338 1 view .LVU1276
 4520 0004 82B0     		sub	sp, sp, #8
 4521              		.cfi_def_cfa_offset 16
 339:src/main.cpp  ****     mpr_write(REG_ECR,0x00);
 4522              		.loc 6 339 14 view .LVU1277
 4523 0006 8020     		movs	r0, #128
 345:src/main.cpp  ****     for(uint8_t ch=0;ch<12;ch++){mpr_write(0x41+ch*2,4);mpr_write(0x42+ch*2,2);}
 4524              		.loc 6 345 64 view .LVU1278
 4525 0008 4124     		movs	r4, #65
 339:src/main.cpp  ****     mpr_write(REG_ECR,0x00);
 4526              		.loc 6 339 14 view .LVU1279
 4527 000a FFF7FEFF 		bl	_Z9mpr_writehh
 4528              	.LVL317:
 339:src/main.cpp  ****     mpr_write(REG_ECR,0x00);
 4529              		.loc 6 339 35 is_stmt 1 view .LVU1280
 339:src/main.cpp  ****     mpr_write(REG_ECR,0x00);
 4530              		.loc 6 339 48 is_stmt 0 view .LVU1281
 4531 000e 0A20     		movs	r0, #10
 4532 0010 FFF7FEFF 		bl	_ZN5daisy6System5DelayEm
 4533              	.LVL318:
 340:src/main.cpp  ****     mpr_write(REG_MHDR,0x01);mpr_write(REG_NHDR,0x01);
 4534              		.loc 6 340 5 is_stmt 1 view .LVU1282
 340:src/main.cpp  ****     mpr_write(REG_MHDR,0x01);mpr_write(REG_NHDR,0x01);
 4535              		.loc 6 340 14 is_stmt 0 view .LVU1283
 4536 0014 0021     		movs	r1, #0
 4537 0016 5E20     		movs	r0, #94
 4538 0018 FFF7FEFF 		bl	_Z9mpr_writehh
 4539              	.LVL319:
 341:src/main.cpp  ****     mpr_write(REG_NCLR,0x10);mpr_write(REG_FDLR,0x20);
 4540              		.loc 6 341 5 is_stmt 1 view .LVU1284
 341:src/main.cpp  ****     mpr_write(REG_NCLR,0x10);mpr_write(REG_FDLR,0x20);
 4541              		.loc 6 341 14 is_stmt 0 view .LVU1285
 4542 001c 0121     		movs	r1, #1
 4543 001e 2B20     		movs	r0, #43
 4544 0020 FFF7FEFF 		bl	_Z9mpr_writehh
 4545              	.LVL320:
 341:src/main.cpp  ****     mpr_write(REG_NCLR,0x10);mpr_write(REG_FDLR,0x20);
 4546              		.loc 6 341 30 is_stmt 1 view .LVU1286
ARM GAS  /tmp/claude-502/ccZj3JyB.s 			page 122


 341:src/main.cpp  ****     mpr_write(REG_NCLR,0x10);mpr_write(REG_FDLR,0x20);
 4547              		.loc 6 341 39 is_stmt 0 view .LVU1287
 4548 0024 0121     		movs	r1, #1
 4549 0026 2C20     		movs	r0, #44
 4550 0028 FFF7FEFF 		bl	_Z9mpr_writehh
 4551              	.LVL321:
 342:src/main.cpp  ****     mpr_write(REG_MHDF,0x01);mpr_write(REG_NHDF,0x01);
 4552              		.loc 6 342 5 is_stmt 1 view .LVU1288
 342:src/main.cpp  ****     mpr_write(REG_MHDF,0x01);mpr_write(REG_NHDF,0x01);
 4553              		.loc 6 342 14 is_stmt 0 view .LVU1289
 4554 002c 1021     		movs	r1, #16
 4555 002e 2D20     		movs	r0, #45
 4556 0030 FFF7FEFF 		bl	_Z9mpr_writehh
 4557              	.LVL322:
 342:src/main.cpp  ****     mpr_write(REG_MHDF,0x01);mpr_write(REG_NHDF,0x01);
 4558              		.loc 6 342 30 is_stmt 1 view .LVU1290
 342:src/main.cpp  ****     mpr_write(REG_MHDF,0x01);mpr_write(REG_NHDF,0x01);
 4559              		.loc 6 342 39 is_stmt 0 view .LVU1291
 4560 0034 2021     		movs	r1, #32
 4561 0036 2E20     		movs	r0, #46
 4562 0038 FFF7FEFF 		bl	_Z9mpr_writehh
 4563              	.LVL323:
 343:src/main.cpp  ****     mpr_write(REG_NCLF,0x10);mpr_write(REG_FDLF,0x20);
 4564              		.loc 6 343 5 is_stmt 1 view .LVU1292
 343:src/main.cpp  ****     mpr_write(REG_NCLF,0x10);mpr_write(REG_FDLF,0x20);
 4565              		.loc 6 343 14 is_stmt 0 view .LVU1293
 4566 003c 0121     		movs	r1, #1
 4567 003e 2F20     		movs	r0, #47
 4568 0040 FFF7FEFF 		bl	_Z9mpr_writehh
 4569              	.LVL324:
 343:src/main.cpp  ****     mpr_write(REG_NCLF,0x10);mpr_write(REG_FDLF,0x20);
 4570              		.loc 6 343 30 is_stmt 1 view .LVU1294
 343:src/main.cpp  ****     mpr_write(REG_NCLF,0x10);mpr_write(REG_FDLF,0x20);
 4571              		.loc 6 343 39 is_stmt 0 view .LVU1295
 4572 0044 0121     		movs	r1, #1
 4573 0046 3020     		movs	r0, #48
 4574 0048 FFF7FEFF 		bl	_Z9mpr_writehh
 4575              	.LVL325:
 344:src/main.cpp  ****     mpr_write(REG_NHDT,0x00);mpr_write(REG_NCLT,0x00);mpr_write(REG_FDLT,0x00);
 4576              		.loc 6 344 5 is_stmt 1 view .LVU1296
 344:src/main.cpp  ****     mpr_write(REG_NHDT,0x00);mpr_write(REG_NCLT,0x00);mpr_write(REG_FDLT,0x00);
 4577              		.loc 6 344 14 is_stmt 0 view .LVU1297
 4578 004c 1021     		movs	r1, #16
 4579 004e 3120     		movs	r0, #49
 4580 0050 FFF7FEFF 		bl	_Z9mpr_writehh
 4581              	.LVL326:
 344:src/main.cpp  ****     mpr_write(REG_NHDT,0x00);mpr_write(REG_NCLT,0x00);mpr_write(REG_FDLT,0x00);
 4582              		.loc 6 344 30 is_stmt 1 view .LVU1298
 344:src/main.cpp  ****     mpr_write(REG_NHDT,0x00);mpr_write(REG_NCLT,0x00);mpr_write(REG_FDLT,0x00);
 4583              		.loc 6 344 39 is_stmt 0 view .LVU1299
 4584 0054 2021     		movs	r1, #32
 4585 0056 3220     		movs	r0, #50
 4586 0058 FFF7FEFF 		bl	_Z9mpr_writehh
 4587              	.LVL327:
 345:src/main.cpp  ****     for(uint8_t ch=0;ch<12;ch++){mpr_write(0x41+ch*2,4);mpr_write(0x42+ch*2,2);}
 4588              		.loc 6 345 5 is_stmt 1 view .LVU1300
 345:src/main.cpp  ****     for(uint8_t ch=0;ch<12;ch++){mpr_write(0x41+ch*2,4);mpr_write(0x42+ch*2,2);}
ARM GAS  /tmp/claude-502/ccZj3JyB.s 			page 123


 4589              		.loc 6 345 14 is_stmt 0 view .LVU1301
 4590 005c 0021     		movs	r1, #0
 4591 005e 3320     		movs	r0, #51
 4592 0060 FFF7FEFF 		bl	_Z9mpr_writehh
 4593              	.LVL328:
 345:src/main.cpp  ****     for(uint8_t ch=0;ch<12;ch++){mpr_write(0x41+ch*2,4);mpr_write(0x42+ch*2,2);}
 4594              		.loc 6 345 30 is_stmt 1 view .LVU1302
 345:src/main.cpp  ****     for(uint8_t ch=0;ch<12;ch++){mpr_write(0x41+ch*2,4);mpr_write(0x42+ch*2,2);}
 4595              		.loc 6 345 39 is_stmt 0 view .LVU1303
 4596 0064 0021     		movs	r1, #0
 4597 0066 3420     		movs	r0, #52
 4598 0068 FFF7FEFF 		bl	_Z9mpr_writehh
 4599              	.LVL329:
 345:src/main.cpp  ****     for(uint8_t ch=0;ch<12;ch++){mpr_write(0x41+ch*2,4);mpr_write(0x42+ch*2,2);}
 4600              		.loc 6 345 55 is_stmt 1 view .LVU1304
 345:src/main.cpp  ****     for(uint8_t ch=0;ch<12;ch++){mpr_write(0x41+ch*2,4);mpr_write(0x42+ch*2,2);}
 4601              		.loc 6 345 64 is_stmt 0 view .LVU1305
 4602 006c 0021     		movs	r1, #0
 4603 006e 3520     		movs	r0, #53
 4604 0070 FFF7FEFF 		bl	_Z9mpr_writehh
 4605              	.LVL330:
 346:src/main.cpp  ****     mpr_write(REG_DEBOUNCE,0x11);
 4606              		.loc 6 346 5 is_stmt 1 view .LVU1306
 4607              	.LBB1034:
 346:src/main.cpp  ****     mpr_write(REG_DEBOUNCE,0x11);
 4608              		.loc 6 346 24 view .LVU1307
 4609              	.L258:
 346:src/main.cpp  ****     mpr_write(REG_DEBOUNCE,0x11);
 4610              		.loc 6 346 34 discriminator 2 view .LVU1308
 346:src/main.cpp  ****     mpr_write(REG_DEBOUNCE,0x11);
 4611              		.loc 6 346 43 is_stmt 0 discriminator 2 view .LVU1309
 4612 0074 0421     		movs	r1, #4
 4613 0076 2046     		mov	r0, r4
 4614 0078 FFF7FEFF 		bl	_Z9mpr_writehh
 4615              	.LVL331:
 346:src/main.cpp  ****     mpr_write(REG_DEBOUNCE,0x11);
 4616              		.loc 6 346 57 is_stmt 1 discriminator 2 view .LVU1310
 346:src/main.cpp  ****     mpr_write(REG_DEBOUNCE,0x11);
 4617              		.loc 6 346 66 is_stmt 0 discriminator 2 view .LVU1311
 4618 007c 601C     		adds	r0, r4, #1
 346:src/main.cpp  ****     mpr_write(REG_DEBOUNCE,0x11);
 4619              		.loc 6 346 24 discriminator 2 view .LVU1312
 4620 007e 0234     		adds	r4, r4, #2
 346:src/main.cpp  ****     mpr_write(REG_DEBOUNCE,0x11);
 4621              		.loc 6 346 66 discriminator 2 view .LVU1313
 4622 0080 0221     		movs	r1, #2
 4623 0082 C0B2     		uxtb	r0, r0
 346:src/main.cpp  ****     mpr_write(REG_DEBOUNCE,0x11);
 4624              		.loc 6 346 24 discriminator 2 view .LVU1314
 4625 0084 E4B2     		uxtb	r4, r4
 346:src/main.cpp  ****     mpr_write(REG_DEBOUNCE,0x11);
 4626              		.loc 6 346 66 discriminator 2 view .LVU1315
 4627 0086 FFF7FEFF 		bl	_Z9mpr_writehh
 4628              	.LVL332:
 346:src/main.cpp  ****     mpr_write(REG_DEBOUNCE,0x11);
 4629              		.loc 6 346 5 is_stmt 1 discriminator 2 view .LVU1316
 346:src/main.cpp  ****     mpr_write(REG_DEBOUNCE,0x11);
ARM GAS  /tmp/claude-502/ccZj3JyB.s 			page 124


 4630              		.loc 6 346 24 discriminator 2 view .LVU1317
 4631 008a 592C     		cmp	r4, #89
 4632 008c F2D1     		bne	.L258
 4633              	.LBE1034:
 347:src/main.cpp  ****     mpr_write(REG_CONFIG1,0xF0);  // FFI=34 | CDC=48uA
 4634              		.loc 6 347 5 view .LVU1318
 347:src/main.cpp  ****     mpr_write(REG_CONFIG1,0xF0);  // FFI=34 | CDC=48uA
 4635              		.loc 6 347 14 is_stmt 0 view .LVU1319
 4636 008e 1121     		movs	r1, #17
 4637 0090 5B20     		movs	r0, #91
 4638 0092 FFF7FEFF 		bl	_Z9mpr_writehh
 4639              	.LVL333:
 348:src/main.cpp  ****     mpr_write(REG_CONFIG2,0x4C);  // CDT=4us | SFI=18 | ESI=1ms
 4640              		.loc 6 348 5 is_stmt 1 view .LVU1320
 348:src/main.cpp  ****     mpr_write(REG_CONFIG2,0x4C);  // CDT=4us | SFI=18 | ESI=1ms
 4641              		.loc 6 348 14 is_stmt 0 view .LVU1321
 4642 0096 F021     		movs	r1, #240
 4643 0098 5C20     		movs	r0, #92
 4644 009a FFF7FEFF 		bl	_Z9mpr_writehh
 4645              	.LVL334:
 349:src/main.cpp  ****     mpr_write(REG_ECR,0x8C);
 4646              		.loc 6 349 5 is_stmt 1 view .LVU1322
 349:src/main.cpp  ****     mpr_write(REG_ECR,0x8C);
 4647              		.loc 6 349 14 is_stmt 0 view .LVU1323
 4648 009e 4C21     		movs	r1, #76
 4649 00a0 5D20     		movs	r0, #93
 4650 00a2 FFF7FEFF 		bl	_Z9mpr_writehh
 4651              	.LVL335:
 350:src/main.cpp  ****     System::Delay(100);
 4652              		.loc 6 350 5 is_stmt 1 view .LVU1324
 350:src/main.cpp  ****     System::Delay(100);
 4653              		.loc 6 350 14 is_stmt 0 view .LVU1325
 4654 00a6 8C21     		movs	r1, #140
 4655 00a8 5E20     		movs	r0, #94
 4656 00aa FFF7FEFF 		bl	_Z9mpr_writehh
 4657              	.LVL336:
 351:src/main.cpp  ****     uint8_t ecr=0;mpr_read(REG_ECR,&ecr,1);
 4658              		.loc 6 351 5 is_stmt 1 view .LVU1326
 351:src/main.cpp  ****     uint8_t ecr=0;mpr_read(REG_ECR,&ecr,1);
 4659              		.loc 6 351 18 is_stmt 0 view .LVU1327
 4660 00ae 6420     		movs	r0, #100
 4661 00b0 FFF7FEFF 		bl	_ZN5daisy6System5DelayEm
 4662              	.LVL337:
 352:src/main.cpp  ****     return(ecr==0x8C);
 4663              		.loc 6 352 5 is_stmt 1 view .LVU1328
 352:src/main.cpp  ****     return(ecr==0x8C);
 4664              		.loc 6 352 13 is_stmt 0 view .LVU1329
 4665 00b4 0023     		movs	r3, #0
 352:src/main.cpp  ****     return(ecr==0x8C);
 4666              		.loc 6 352 27 view .LVU1330
 4667 00b6 0122     		movs	r2, #1
 4668 00b8 0DF10701 		add	r1, sp, #7
 4669 00bc 5E20     		movs	r0, #94
 352:src/main.cpp  ****     return(ecr==0x8C);
 4670              		.loc 6 352 13 view .LVU1331
 4671 00be 8DF80730 		strb	r3, [sp, #7]
 352:src/main.cpp  ****     return(ecr==0x8C);
ARM GAS  /tmp/claude-502/ccZj3JyB.s 			page 125


 4672              		.loc 6 352 19 is_stmt 1 view .LVU1332
 352:src/main.cpp  ****     return(ecr==0x8C);
 4673              		.loc 6 352 27 is_stmt 0 view .LVU1333
 4674 00c2 FFF7FEFF 		bl	_Z8mpr_readhPhh
 4675              	.LVL338:
 353:src/main.cpp  **** }
 4676              		.loc 6 353 5 is_stmt 1 view .LVU1334
 353:src/main.cpp  **** }
 4677              		.loc 6 353 21 is_stmt 0 view .LVU1335
 4678 00c6 9DF80700 		ldrb	r0, [sp, #7]	@ zero_extendqisi2
 354:src/main.cpp  **** 
 4679              		.loc 6 354 1 view .LVU1336
 4680 00ca A0F18C00 		sub	r0, #140
 4681 00ce B0FA80F0 		clz	r0, r0
 4682 00d2 4009     		lsrs	r0, r0, #5
 4683 00d4 02B0     		add	sp, sp, #8
 4684              		.cfi_def_cfa_offset 8
 4685              		@ sp needed
 4686 00d6 10BD     		pop	{r4, pc}
 4687              		.cfi_endproc
 4688              	.LFE2572:
 4690              		.section	.text._Z15read_electrodesPt,"ax",%progbits
 4691              		.align	1
 4692              		.p2align 2,,3
 4693              		.global	_Z15read_electrodesPt
 4694              		.syntax unified
 4695              		.thumb
 4696              		.thumb_func
 4698              	_Z15read_electrodesPt:
 4699              	.LVL339:
 4700              	.LFB2573:
 357:src/main.cpp  ****     uint8_t buf[24];
 4701              		.loc 6 357 1 is_stmt 1 view -0
 4702              		.cfi_startproc
 4703              		@ args = 0, pretend = 0, frame = 24
 4704              		@ frame_needed = 0, uses_anonymous_args = 0
 358:src/main.cpp  ****     mpr_read(REG_ELE0_LSB,buf,24);
 4705              		.loc 6 358 5 view .LVU1338
 359:src/main.cpp  ****     for(int i=0;i<N_CH;i++)
 4706              		.loc 6 359 5 view .LVU1339
 357:src/main.cpp  ****     uint8_t buf[24];
 4707              		.loc 6 357 1 is_stmt 0 view .LVU1340
 4708 0000 10B5     		push	{r4, lr}
 4709              		.cfi_def_cfa_offset 8
 4710              		.cfi_offset 4, -8
 4711              		.cfi_offset 14, -4
 4712 0002 86B0     		sub	sp, sp, #24
 4713              		.cfi_def_cfa_offset 32
 357:src/main.cpp  ****     uint8_t buf[24];
 4714              		.loc 6 357 1 view .LVU1341
 4715 0004 0446     		mov	r4, r0
 359:src/main.cpp  ****     for(int i=0;i<N_CH;i++)
 4716              		.loc 6 359 13 view .LVU1342
 4717 0006 1822     		movs	r2, #24
 4718 0008 0420     		movs	r0, #4
 4719              	.LVL340:
 359:src/main.cpp  ****     for(int i=0;i<N_CH;i++)
ARM GAS  /tmp/claude-502/ccZj3JyB.s 			page 126


 4720              		.loc 6 359 13 view .LVU1343
 4721 000a 6946     		mov	r1, sp
 4722 000c FFF7FEFF 		bl	_Z8mpr_readhPhh
 4723              	.LVL341:
 360:src/main.cpp  ****         out[i]=(uint16_t)(buf[i*2]|((buf[i*2+1]&0x03)<<8));
 4724              		.loc 6 360 5 is_stmt 1 view .LVU1344
 4725              	.LBB1035:
 360:src/main.cpp  ****         out[i]=(uint16_t)(buf[i*2]|((buf[i*2+1]&0x03)<<8));
 4726              		.loc 6 360 18 view .LVU1345
 4727 0010 A01E     		subs	r0, r4, #2
 4728 0012 6A46     		mov	r2, sp
 4729 0014 06AC     		add	r4, sp, #24
 4730              	.LVL342:
 4731              	.L262:
 361:src/main.cpp  **** }
 4732              		.loc 6 361 9 discriminator 2 view .LVU1346
 361:src/main.cpp  **** }
 4733              		.loc 6 361 48 is_stmt 0 discriminator 2 view .LVU1347
 4734 0016 5378     		ldrb	r3, [r2, #1]	@ zero_extendqisi2
 361:src/main.cpp  **** }
 4735              		.loc 6 361 34 discriminator 2 view .LVU1348
 4736 0018 12F8021B 		ldrb	r1, [r2], #2	@ zero_extendqisi2
 361:src/main.cpp  **** }
 4737              		.loc 6 361 54 discriminator 2 view .LVU1349
 4738 001c 1B02     		lsls	r3, r3, #8
 360:src/main.cpp  ****         out[i]=(uint16_t)(buf[i*2]|((buf[i*2+1]&0x03)<<8));
 4739              		.loc 6 360 18 discriminator 2 view .LVU1350
 4740 001e 9442     		cmp	r4, r2
 361:src/main.cpp  **** }
 4741              		.loc 6 361 54 discriminator 2 view .LVU1351
 4742 0020 03F44073 		and	r3, r3, #768
 361:src/main.cpp  **** }
 4743              		.loc 6 361 35 discriminator 2 view .LVU1352
 4744 0024 43EA0103 		orr	r3, r3, r1
 361:src/main.cpp  **** }
 4745              		.loc 6 361 15 discriminator 2 view .LVU1353
 4746 0028 20F8023F 		strh	r3, [r0, #2]!	@ movhi
 360:src/main.cpp  ****         out[i]=(uint16_t)(buf[i*2]|((buf[i*2+1]&0x03)<<8));
 4747              		.loc 6 360 5 is_stmt 1 discriminator 2 view .LVU1354
 360:src/main.cpp  ****         out[i]=(uint16_t)(buf[i*2]|((buf[i*2+1]&0x03)<<8));
 4748              		.loc 6 360 18 discriminator 2 view .LVU1355
 4749 002c F3D1     		bne	.L262
 4750              	.LBE1035:
 362:src/main.cpp  **** 
 4751              		.loc 6 362 1 is_stmt 0 view .LVU1356
 4752 002e 06B0     		add	sp, sp, #24
 4753              		.cfi_def_cfa_offset 8
 4754              		@ sp needed
 4755 0030 10BD     		pop	{r4, pc}
 4756              		.cfi_endproc
 4757              	.LFE2573:
 4759 0032 00BF     		.section	.text._Z16capture_baselinePt,"ax",%progbits
 4760              		.align	1
 4761              		.p2align 2,,3
 4762              		.global	_Z16capture_baselinePt
 4763              		.syntax unified
 4764              		.thumb
ARM GAS  /tmp/claude-502/ccZj3JyB.s 			page 127


 4765              		.thumb_func
 4767              	_Z16capture_baselinePt:
 4768              	.LVL343:
 4769              	.LFB2574:
 365:src/main.cpp  ****     uint32_t acc[N_CH]={0};uint16_t tmp[N_CH];
 4770              		.loc 6 365 1 is_stmt 1 view -0
 4771              		.cfi_startproc
 4772              		@ args = 0, pretend = 0, frame = 72
 4773              		@ frame_needed = 0, uses_anonymous_args = 0
 366:src/main.cpp  ****     for(int s=0;s<REBASELINE_SAMPLES;s++){
 4774              		.loc 6 366 5 view .LVU1358
 365:src/main.cpp  ****     uint32_t acc[N_CH]={0};uint16_t tmp[N_CH];
 4775              		.loc 6 365 1 is_stmt 0 view .LVU1359
 4776 0000 2DE9F041 		push	{r4, r5, r6, r7, r8, lr}
 4777              		.cfi_def_cfa_offset 24
 4778              		.cfi_offset 4, -24
 4779              		.cfi_offset 5, -20
 4780              		.cfi_offset 6, -16
 4781              		.cfi_offset 7, -12
 4782              		.cfi_offset 8, -8
 4783              		.cfi_offset 14, -4
 4784 0004 92B0     		sub	sp, sp, #72
 4785              		.cfi_def_cfa_offset 96
 366:src/main.cpp  ****     for(int s=0;s<REBASELINE_SAMPLES;s++){
 4786              		.loc 6 366 14 view .LVU1360
 4787 0006 2025     		movs	r5, #32
 4788 0008 0024     		movs	r4, #0
 365:src/main.cpp  ****     uint32_t acc[N_CH]={0};uint16_t tmp[N_CH];
 4789              		.loc 6 365 1 view .LVU1361
 4790 000a 0746     		mov	r7, r0
 366:src/main.cpp  ****     for(int s=0;s<REBASELINE_SAMPLES;s++){
 4791              		.loc 6 366 14 view .LVU1362
 4792 000c 0DF11808 		add	r8, sp, #24
 4793 0010 3022     		movs	r2, #48
 4794 0012 0021     		movs	r1, #0
 4795 0014 4046     		mov	r0, r8
 4796              	.LVL344:
 366:src/main.cpp  ****     for(int s=0;s<REBASELINE_SAMPLES;s++){
 4797              		.loc 6 366 14 view .LVU1363
 4798 0016 FFF7FEFF 		bl	memset
 4799              	.LVL345:
 366:src/main.cpp  ****     for(int s=0;s<REBASELINE_SAMPLES;s++){
 4800              		.loc 6 366 28 is_stmt 1 view .LVU1364
 367:src/main.cpp  ****         read_electrodes(tmp);
 4801              		.loc 6 367 5 view .LVU1365
 4802              	.LBB1036:
 367:src/main.cpp  ****         read_electrodes(tmp);
 4803              		.loc 6 367 18 view .LVU1366
 4804              	.L269:
 4805              	.LBB1037:
 368:src/main.cpp  ****         for(int i=0;i<N_CH;i++)acc[i]+=tmp[i];
 4806              		.loc 6 368 9 view .LVU1367
 368:src/main.cpp  ****         for(int i=0;i<N_CH;i++)acc[i]+=tmp[i];
 4807              		.loc 6 368 24 is_stmt 0 view .LVU1368
 4808 001a 6846     		mov	r0, sp
 4809 001c 4646     		mov	r6, r8
 4810 001e FFF7FEFF 		bl	_Z15read_electrodesPt
ARM GAS  /tmp/claude-502/ccZj3JyB.s 			page 128


 4811              	.LVL346:
 369:src/main.cpp  ****         System::Delay(5);
 4812              		.loc 6 369 9 is_stmt 1 view .LVU1369
 4813              	.LBB1038:
 369:src/main.cpp  ****         System::Delay(5);
 4814              		.loc 6 369 22 view .LVU1370
 4815 0022 6A46     		mov	r2, sp
 4816              	.LBE1038:
 368:src/main.cpp  ****         for(int i=0;i<N_CH;i++)acc[i]+=tmp[i];
 4817              		.loc 6 368 24 is_stmt 0 view .LVU1371
 4818 0024 4146     		mov	r1, r8
 4819 0026 00E0     		b	.L267
 4820              	.LVL347:
 4821              	.L274:
 4822              	.LBB1039:
 369:src/main.cpp  ****         System::Delay(5);
 4823              		.loc 6 369 38 view .LVU1372
 4824 0028 0C68     		ldr	r4, [r1]
 4825              	.L267:
 369:src/main.cpp  ****         System::Delay(5);
 4826              		.loc 6 369 32 is_stmt 1 discriminator 2 view .LVU1373
 369:src/main.cpp  ****         System::Delay(5);
 4827              		.loc 6 369 45 is_stmt 0 discriminator 2 view .LVU1374
 4828 002a 32F8023B 		ldrh	r3, [r2], #2
 369:src/main.cpp  ****         System::Delay(5);
 4829              		.loc 6 369 38 discriminator 2 view .LVU1375
 4830 002e 2344     		add	r3, r3, r4
 369:src/main.cpp  ****         System::Delay(5);
 4831              		.loc 6 369 22 discriminator 2 view .LVU1376
 4832 0030 4245     		cmp	r2, r8
 369:src/main.cpp  ****         System::Delay(5);
 4833              		.loc 6 369 38 discriminator 2 view .LVU1377
 4834 0032 41F8043B 		str	r3, [r1], #4
 369:src/main.cpp  ****         System::Delay(5);
 4835              		.loc 6 369 9 is_stmt 1 discriminator 2 view .LVU1378
 369:src/main.cpp  ****         System::Delay(5);
 4836              		.loc 6 369 22 discriminator 2 view .LVU1379
 4837 0036 F7D1     		bne	.L274
 4838              	.LBE1039:
 370:src/main.cpp  ****     }
 4839              		.loc 6 370 9 discriminator 2 view .LVU1380
 370:src/main.cpp  ****     }
 4840              		.loc 6 370 22 is_stmt 0 discriminator 2 view .LVU1381
 4841 0038 0520     		movs	r0, #5
 4842 003a FFF7FEFF 		bl	_ZN5daisy6System5DelayEm
 4843              	.LVL348:
 4844              	.LBE1037:
 367:src/main.cpp  ****         read_electrodes(tmp);
 4845              		.loc 6 367 5 is_stmt 1 discriminator 2 view .LVU1382
 367:src/main.cpp  ****         read_electrodes(tmp);
 4846              		.loc 6 367 18 discriminator 2 view .LVU1383
 4847 003e 013D     		subs	r5, r5, #1
 4848              	.LVL349:
 367:src/main.cpp  ****         read_electrodes(tmp);
 4849              		.loc 6 367 18 is_stmt 0 discriminator 2 view .LVU1384
 4850 0040 01D0     		beq	.L268
 4851              	.LBB1041:
ARM GAS  /tmp/claude-502/ccZj3JyB.s 			page 129


 4852              	.LBB1040:
 369:src/main.cpp  ****         System::Delay(5);
 4853              		.loc 6 369 38 view .LVU1385
 4854 0042 069C     		ldr	r4, [sp, #24]
 4855 0044 E9E7     		b	.L269
 4856              	.L268:
 4857 0046 BA1E     		subs	r2, r7, #2
 4858 0048 1637     		adds	r7, r7, #22
 4859              	.LVL350:
 4860              	.L270:
 369:src/main.cpp  ****         System::Delay(5);
 4861              		.loc 6 369 38 view .LVU1386
 4862              	.LBE1040:
 4863              	.LBE1041:
 4864              	.LBE1036:
 4865              	.LBB1042:
 372:src/main.cpp  **** }
 4866              		.loc 6 372 28 is_stmt 1 discriminator 2 view .LVU1387
 372:src/main.cpp  **** }
 4867              		.loc 6 372 50 is_stmt 0 discriminator 2 view .LVU1388
 4868 004a 56F8043B 		ldr	r3, [r6], #4
 372:src/main.cpp  **** }
 4869              		.loc 6 372 51 discriminator 2 view .LVU1389
 4870 004e 5B09     		lsrs	r3, r3, #5
 372:src/main.cpp  **** }
 4871              		.loc 6 372 33 discriminator 2 view .LVU1390
 4872 0050 22F8023F 		strh	r3, [r2, #2]!	@ movhi
 372:src/main.cpp  **** }
 4873              		.loc 6 372 5 is_stmt 1 discriminator 2 view .LVU1391
 372:src/main.cpp  **** }
 4874              		.loc 6 372 18 discriminator 2 view .LVU1392
 4875 0054 BA42     		cmp	r2, r7
 4876 0056 F8D1     		bne	.L270
 4877              	.LBE1042:
 373:src/main.cpp  **** 
 4878              		.loc 6 373 1 is_stmt 0 view .LVU1393
 4879 0058 12B0     		add	sp, sp, #72
 4880              		.cfi_def_cfa_offset 24
 4881              		@ sp needed
 4882 005a BDE8F081 		pop	{r4, r5, r6, r7, r8, pc}
 373:src/main.cpp  **** 
 4883              		.loc 6 373 1 view .LVU1394
 4884              		.cfi_endproc
 4885              	.LFE2574:
 4887 005e 00BF     		.section	.text._Z15centroid_windowPliiS_Pi,"ax",%progbits
 4888              		.align	1
 4889              		.p2align 2,,3
 4890              		.global	_Z15centroid_windowPliiS_Pi
 4891              		.syntax unified
 4892              		.thumb
 4893              		.thumb_func
 4895              	_Z15centroid_windowPliiS_Pi:
 4896              	.LVL351:
 4897              	.LFB2575:
 381:src/main.cpp  ****     int32_t sw=0,swx=0,pk=0;int pkc=s;
 4898              		.loc 6 381 1 is_stmt 1 view -0
 4899              		.cfi_startproc
ARM GAS  /tmp/claude-502/ccZj3JyB.s 			page 130


 4900              		@ args = 4, pretend = 0, frame = 0
 4901              		@ frame_needed = 0, uses_anonymous_args = 0
 382:src/main.cpp  ****     for(int i=s;i<=e;i++){
 4902              		.loc 6 382 5 view .LVU1396
 382:src/main.cpp  ****     for(int i=s;i<=e;i++){
 4903              		.loc 6 382 29 view .LVU1397
 383:src/main.cpp  ****         int32_t w=d[i]>0?d[i]:0;
 4904              		.loc 6 383 5 view .LVU1398
 4905              	.LBB1045:
 383:src/main.cpp  ****         int32_t w=d[i]>0?d[i]:0;
 4906              		.loc 6 383 18 view .LVU1399
 4907 0000 9142     		cmp	r1, r2
 4908              	.LBE1045:
 381:src/main.cpp  ****     int32_t sw=0,swx=0,pk=0;int pkc=s;
 4909              		.loc 6 381 1 is_stmt 0 view .LVU1400
 4910 0002 F0B5     		push	{r4, r5, r6, r7, lr}
 4911              		.cfi_def_cfa_offset 20
 4912              		.cfi_offset 4, -20
 4913              		.cfi_offset 5, -16
 4914              		.cfi_offset 6, -12
 4915              		.cfi_offset 7, -8
 4916              		.cfi_offset 14, -4
 381:src/main.cpp  ****     int32_t sw=0,swx=0,pk=0;int pkc=s;
 4917              		.loc 6 381 1 view .LVU1401
 4918 0004 059F     		ldr	r7, [sp, #20]
 4919              	.LBB1047:
 383:src/main.cpp  ****         int32_t w=d[i]>0?d[i]:0;
 4920              		.loc 6 383 18 view .LVU1402
 4921 0006 2CDC     		bgt	.L282
 4922 0008 6FF0404E 		mvn	lr, #-1073741824
 4923              	.LBE1047:
 382:src/main.cpp  ****     for(int i=s;i<=e;i++){
 4924              		.loc 6 382 24 view .LVU1403
 4925 000c 0025     		movs	r5, #0
 4926 000e 561C     		adds	r6, r2, #1
 4927 0010 8E44     		add	lr, lr, r1
 382:src/main.cpp  ****     for(int i=s;i<=e;i++){
 4928              		.loc 6 382 18 view .LVU1404
 4929 0012 AC46     		mov	ip, r5
 382:src/main.cpp  ****     for(int i=s;i<=e;i++){
 4930              		.loc 6 382 13 view .LVU1405
 4931 0014 2C46     		mov	r4, r5
 4932 0016 00EB8E0E 		add	lr, r0, lr, lsl #2
 4933              	.LBB1048:
 383:src/main.cpp  ****         int32_t w=d[i]>0?d[i]:0;
 4934              		.loc 6 383 18 view .LVU1406
 4935 001a 0846     		mov	r0, r1
 4936              	.LVL352:
 4937              	.L278:
 4938              	.LBB1046:
 384:src/main.cpp  ****         sw+=w;swx+=w*i;
 4939              		.loc 6 384 9 is_stmt 1 view .LVU1407
 384:src/main.cpp  ****         sw+=w;swx+=w*i;
 4940              		.loc 6 384 17 is_stmt 0 view .LVU1408
 4941 001c 5EF8042F 		ldr	r2, [lr, #4]!
 4942 0020 22EAE272 		bic	r2, r2, r2, asr #31
 4943              	.LVL353:
ARM GAS  /tmp/claude-502/ccZj3JyB.s 			page 131


 385:src/main.cpp  ****         if(w>pk){pk=w;pkc=i;}
 4944              		.loc 6 385 9 is_stmt 1 view .LVU1409
 386:src/main.cpp  ****     }
 4945              		.loc 6 386 9 is_stmt 0 view .LVU1410
 4946 0024 AA42     		cmp	r2, r5
 385:src/main.cpp  ****         if(w>pk){pk=w;pkc=i;}
 4947              		.loc 6 385 18 view .LVU1411
 4948 0026 00FB02CC 		mla	ip, r0, r2, ip
 4949              	.LVL354:
 385:src/main.cpp  ****         if(w>pk){pk=w;pkc=i;}
 4950              		.loc 6 385 11 view .LVU1412
 4951 002a 1444     		add	r4, r4, r2
 4952              	.LVL355:
 385:src/main.cpp  ****         if(w>pk){pk=w;pkc=i;}
 4953              		.loc 6 385 15 is_stmt 1 view .LVU1413
 386:src/main.cpp  ****     }
 4954              		.loc 6 386 9 view .LVU1414
 4955 002c 01DD     		ble	.L277
 386:src/main.cpp  ****     }
 4956              		.loc 6 386 9 is_stmt 0 view .LVU1415
 4957 002e 0146     		mov	r1, r0
 4958 0030 1546     		mov	r5, r2
 4959              	.LVL356:
 4960              	.L277:
 386:src/main.cpp  ****     }
 4961              		.loc 6 386 9 view .LVU1416
 4962              	.LBE1046:
 383:src/main.cpp  ****         int32_t w=d[i]>0?d[i]:0;
 4963              		.loc 6 383 5 is_stmt 1 discriminator 2 view .LVU1417
 4964 0032 0130     		adds	r0, r0, #1
 4965              	.LVL357:
 383:src/main.cpp  ****         int32_t w=d[i]>0?d[i]:0;
 4966              		.loc 6 383 18 discriminator 2 view .LVU1418
 4967 0034 B042     		cmp	r0, r6
 4968 0036 F1D1     		bne	.L278
 4969              	.LVL358:
 4970              	.L276:
 383:src/main.cpp  ****         int32_t w=d[i]>0?d[i]:0;
 4971              		.loc 6 383 18 is_stmt 0 discriminator 2 view .LVU1419
 4972              	.LBE1048:
 388:src/main.cpp  ****     if(sw==0)return -1;
 4973              		.loc 6 388 5 is_stmt 1 view .LVU1420
 4974 0038 03B1     		cbz	r3, .L279
 388:src/main.cpp  ****     if(sw==0)return -1;
 4975              		.loc 6 388 15 discriminator 1 view .LVU1421
 388:src/main.cpp  ****     if(sw==0)return -1;
 4976              		.loc 6 388 22 is_stmt 0 discriminator 1 view .LVU1422
 4977 003a 1D60     		str	r5, [r3]
 4978              	.L279:
 388:src/main.cpp  ****     if(sw==0)return -1;
 4979              		.loc 6 388 26 is_stmt 1 discriminator 3 view .LVU1423
 4980 003c 07B1     		cbz	r7, .L280
 388:src/main.cpp  ****     if(sw==0)return -1;
 4981              		.loc 6 388 38 discriminator 4 view .LVU1424
 388:src/main.cpp  ****     if(sw==0)return -1;
 4982              		.loc 6 388 47 is_stmt 0 discriminator 4 view .LVU1425
 4983 003e 3960     		str	r1, [r7]
ARM GAS  /tmp/claude-502/ccZj3JyB.s 			page 132


 4984              	.L280:
 389:src/main.cpp  ****     int32_t p=(swx*1000)/(sw*(N_CH-1));
 4985              		.loc 6 389 5 is_stmt 1 view .LVU1426
 4986 0040 9CB1     		cbz	r4, .L283
 390:src/main.cpp  ****     if(p<0)p=0;if(p>1000)p=1000;
 4987              		.loc 6 390 5 view .LVU1427
 4988              	.LVL359:
 391:src/main.cpp  ****     return p;
 4989              		.loc 6 391 5 view .LVU1428
 390:src/main.cpp  ****     if(p<0)p=0;if(p>1000)p=1000;
 4990              		.loc 6 390 19 is_stmt 0 view .LVU1429
 4991 0042 4FF47A73 		mov	r3, #1000
 4992              	.LVL360:
 390:src/main.cpp  ****     if(p<0)p=0;if(p>1000)p=1000;
 4993              		.loc 6 390 29 view .LVU1430
 4994 0046 04EB8400 		add	r0, r4, r4, lsl #2
 390:src/main.cpp  ****     if(p<0)p=0;if(p>1000)p=1000;
 4995              		.loc 6 390 19 view .LVU1431
 4996 004a 03FB0CFC 		mul	ip, r3, ip
 4997              	.LVL361:
 390:src/main.cpp  ****     if(p<0)p=0;if(p>1000)p=1000;
 4998              		.loc 6 390 29 view .LVU1432
 4999 004e 04EB4000 		add	r0, r4, r0, lsl #1
 390:src/main.cpp  ****     if(p<0)p=0;if(p>1000)p=1000;
 5000              		.loc 6 390 13 view .LVU1433
 5001 0052 9CFBF0F0 		sdiv	r0, ip, r0
 5002 0056 9842     		cmp	r0, r3
 5003 0058 A8BF     		it	ge
 5004 005a 1846     		movge	r0, r3
 5005 005c 20EAE070 		bic	r0, r0, r0, asr #31
 393:src/main.cpp  **** 
 5006              		.loc 6 393 1 view .LVU1434
 5007 0060 F0BD     		pop	{r4, r5, r6, r7, pc}
 5008              	.LVL362:
 5009              	.L282:
 382:src/main.cpp  ****     for(int i=s;i<=e;i++){
 5010              		.loc 6 382 24 view .LVU1435
 5011 0062 0025     		movs	r5, #0
 382:src/main.cpp  ****     for(int i=s;i<=e;i++){
 5012              		.loc 6 382 18 view .LVU1436
 5013 0064 AC46     		mov	ip, r5
 382:src/main.cpp  ****     for(int i=s;i<=e;i++){
 5014              		.loc 6 382 13 view .LVU1437
 5015 0066 2C46     		mov	r4, r5
 5016 0068 E6E7     		b	.L276
 5017              	.LVL363:
 5018              	.L283:
 389:src/main.cpp  ****     int32_t p=(swx*1000)/(sw*(N_CH-1));
 5019              		.loc 6 389 22 view .LVU1438
 5020 006a 4FF0FF30 		mov	r0, #-1
 393:src/main.cpp  **** 
 5021              		.loc 6 393 1 view .LVU1439
 5022 006e F0BD     		pop	{r4, r5, r6, r7, pc}
 393:src/main.cpp  **** 
 5023              		.loc 6 393 1 view .LVU1440
 5024              		.cfi_endproc
 5025              	.LFE2575:
ARM GAS  /tmp/claude-502/ccZj3JyB.s 			page 133


 5027              		.section	.text._Z12pressure_pctli,"ax",%progbits
 5028              		.align	1
 5029              		.p2align 2,,3
 5030              		.global	_Z12pressure_pctli
 5031              		.syntax unified
 5032              		.thumb
 5033              		.thumb_func
 5035              	_Z12pressure_pctli:
 5036              	.LVL364:
 5037              	.LFB2576:
 395:src/main.cpp  ****     int32_t range = PRESSURE_MAX_REF[ch] - TOUCH_THRESHOLD;
 5038              		.loc 6 395 41 is_stmt 1 view -0
 5039              		.cfi_startproc
 5040              		@ args = 0, pretend = 0, frame = 0
 5041              		@ frame_needed = 0, uses_anonymous_args = 0
 5042              		@ link register save eliminated.
 396:src/main.cpp  ****     int32_t raw   = pk - TOUCH_THRESHOLD;
 5043              		.loc 6 396 5 view .LVU1442
 397:src/main.cpp  ****     if(raw <= 0)     return 0;
 5044              		.loc 6 397 13 is_stmt 0 view .LVU1443
 5045 0000 A0F10A02 		sub	r2, r0, #10
 396:src/main.cpp  ****     int32_t raw   = pk - TOUCH_THRESHOLD;
 5046              		.loc 6 396 40 view .LVU1444
 5047 0004 1C4B     		ldr	r3, .L302
 398:src/main.cpp  ****     if(raw >= range) return 100;
 5048              		.loc 6 398 5 view .LVU1445
 5049 0006 002A     		cmp	r2, #0
 396:src/main.cpp  ****     int32_t raw   = pk - TOUCH_THRESHOLD;
 5050              		.loc 6 396 40 view .LVU1446
 5051 0008 53F82110 		ldr	r1, [r3, r1, lsl #2]
 5052              	.LVL365:
 397:src/main.cpp  ****     if(raw <= 0)     return 0;
 5053              		.loc 6 397 5 is_stmt 1 view .LVU1447
 398:src/main.cpp  ****     if(raw >= range) return 100;
 5054              		.loc 6 398 5 view .LVU1448
 5055 000c 30DD     		ble	.L301
 399:src/main.cpp  ****     // Clamp raw strictly before sqrt to prevent Newton overshoot
 5056              		.loc 6 399 5 view .LVU1449
 5057 000e 8142     		cmp	r1, r0
 5058 0010 30DD     		ble	.L300
 401:src/main.cpp  ****     int32_t scaled = raw * 10000 / range; // 0..10000
 5059              		.loc 6 401 5 view .LVU1450
 402:src/main.cpp  ****     if(scaled > 10000) scaled = 10000;
 5060              		.loc 6 402 5 view .LVU1451
 402:src/main.cpp  ****     if(scaled > 10000) scaled = 10000;
 5061              		.loc 6 402 26 is_stmt 0 view .LVU1452
 5062 0012 42F21070 		movw	r0, #10000
 5063              	.LVL366:
 396:src/main.cpp  ****     int32_t raw   = pk - TOUCH_THRESHOLD;
 5064              		.loc 6 396 13 view .LVU1453
 5065 0016 0A39     		subs	r1, r1, #10
 5066              	.LVL367:
 402:src/main.cpp  ****     if(scaled > 10000) scaled = 10000;
 5067              		.loc 6 402 26 view .LVU1454
 5068 0018 00FB02F2 		mul	r2, r0, r2
 5069              	.LVL368:
 402:src/main.cpp  ****     if(scaled > 10000) scaled = 10000;
ARM GAS  /tmp/claude-502/ccZj3JyB.s 			page 134


 5070              		.loc 6 402 13 view .LVU1455
 5071 001c 92FBF1F3 		sdiv	r3, r2, r1
 5072              	.LVL369:
 403:src/main.cpp  ****     // Integer sqrt via Newton
 5073              		.loc 6 403 5 is_stmt 1 view .LVU1456
 5074 0020 8342     		cmp	r3, r0
 5075 0022 A8BF     		it	ge
 5076 0024 0346     		movge	r3, r0
 5077              	.LVL370:
 405:src/main.cpp  ****     s = (s + scaled/s) / 2;
 5078              		.loc 6 405 5 view .LVU1457
 405:src/main.cpp  ****     s = (s + scaled/s) / 2;
 5079              		.loc 6 405 24 is_stmt 0 view .LVU1458
 5080 0026 002B     		cmp	r3, #0
 5081 0028 1A46     		mov	r2, r3
 5082 002a B8BF     		it	lt
 5083 002c 5A1C     		addlt	r2, r3, #1
 5084 002e 5210     		asrs	r2, r2, #1
 405:src/main.cpp  ****     s = (s + scaled/s) / 2;
 5085              		.loc 6 405 13 view .LVU1459
 5086 0030 511C     		adds	r1, r2, #1
 5087              	.LVL371:
 406:src/main.cpp  ****     s = (s + scaled/s) / 2;
 5088              		.loc 6 406 5 is_stmt 1 view .LVU1460
 406:src/main.cpp  ****     s = (s + scaled/s) / 2;
 5089              		.loc 6 406 20 is_stmt 0 view .LVU1461
 5090 0032 93FBF1F2 		sdiv	r2, r3, r1
 406:src/main.cpp  ****     s = (s + scaled/s) / 2;
 5091              		.loc 6 406 7 view .LVU1462
 5092 0036 5218     		adds	r2, r2, r1
 5093 0038 48BF     		it	mi
 5094 003a 0132     		addmi	r2, r2, #1
 5095 003c 5110     		asrs	r1, r2, #1
 5096              	.LVL372:
 407:src/main.cpp  ****     s = (s + scaled/s) / 2;
 5097              		.loc 6 407 5 is_stmt 1 view .LVU1463
 407:src/main.cpp  ****     s = (s + scaled/s) / 2;
 5098              		.loc 6 407 20 is_stmt 0 view .LVU1464
 5099 003e 93FBF1F2 		sdiv	r2, r3, r1
 407:src/main.cpp  ****     s = (s + scaled/s) / 2;
 5100              		.loc 6 407 7 view .LVU1465
 5101 0042 5218     		adds	r2, r2, r1
 5102 0044 48BF     		it	mi
 5103 0046 0132     		addmi	r2, r2, #1
 5104 0048 5210     		asrs	r2, r2, #1
 5105              	.LVL373:
 408:src/main.cpp  ****     s = (s + scaled/s) / 2;
 5106              		.loc 6 408 5 is_stmt 1 view .LVU1466
 408:src/main.cpp  ****     s = (s + scaled/s) / 2;
 5107              		.loc 6 408 20 is_stmt 0 view .LVU1467
 5108 004a 93FBF2F1 		sdiv	r1, r3, r2
 408:src/main.cpp  ****     s = (s + scaled/s) / 2;
 5109              		.loc 6 408 7 view .LVU1468
 5110 004e 8A18     		adds	r2, r1, r2
 5111              	.LVL374:
 408:src/main.cpp  ****     s = (s + scaled/s) / 2;
 5112              		.loc 6 408 7 view .LVU1469
ARM GAS  /tmp/claude-502/ccZj3JyB.s 			page 135


 5113 0050 48BF     		it	mi
 5114 0052 0132     		addmi	r2, r2, #1
 5115 0054 5210     		asrs	r2, r2, #1
 5116              	.LVL375:
 409:src/main.cpp  ****     // Hard clamp output ŌĆö Newton can land at 101 due to rounding
 5117              		.loc 6 409 5 is_stmt 1 view .LVU1470
 409:src/main.cpp  ****     // Hard clamp output ŌĆö Newton can land at 101 due to rounding
 5118              		.loc 6 409 20 is_stmt 0 view .LVU1471
 5119 0056 93FBF2F3 		sdiv	r3, r3, r2
 5120              	.LVL376:
 409:src/main.cpp  ****     // Hard clamp output ŌĆö Newton can land at 101 due to rounding
 5121              		.loc 6 409 12 view .LVU1472
 5122 005a 1344     		add	r3, r3, r2
 5123              	.LVL377:
 411:src/main.cpp  ****     if(s > 100) s = 100;
 5124              		.loc 6 411 5 is_stmt 1 view .LVU1473
 5125 005c 5A1C     		adds	r2, r3, #1
 5126 005e 07DB     		blt	.L301
 412:src/main.cpp  ****     return s;
 5127              		.loc 6 412 5 view .LVU1474
 409:src/main.cpp  ****     // Hard clamp output ŌĆö Newton can land at 101 due to rounding
 5128              		.loc 6 409 7 is_stmt 0 view .LVU1475
 5129 0060 002B     		cmp	r3, #0
 409:src/main.cpp  ****     // Hard clamp output ŌĆö Newton can land at 101 due to rounding
 5130              		.loc 6 409 7 view .LVU1476
 5131 0062 B8BF     		it	lt
 5132 0064 0133     		addlt	r3, r3, #1
 5133              	.LVL378:
 409:src/main.cpp  ****     // Hard clamp output ŌĆö Newton can land at 101 due to rounding
 5134              		.loc 6 409 7 view .LVU1477
 5135 0066 5810     		asrs	r0, r3, #1
 5136              	.LVL379:
 409:src/main.cpp  ****     // Hard clamp output ŌĆö Newton can land at 101 due to rounding
 5137              		.loc 6 409 7 view .LVU1478
 5138 0068 6428     		cmp	r0, #100
 5139 006a A8BF     		it	ge
 5140 006c 6420     		movge	r0, #100
 5141 006e 7047     		bx	lr
 5142              	.LVL380:
 5143              	.L301:
 398:src/main.cpp  ****     if(raw >= range) return 100;
 5144              		.loc 6 398 29 view .LVU1479
 5145 0070 0020     		movs	r0, #0
 414:src/main.cpp  **** 
 5146              		.loc 6 414 1 view .LVU1480
 5147 0072 7047     		bx	lr
 5148              	.LVL381:
 5149              	.L300:
 399:src/main.cpp  ****     // Clamp raw strictly before sqrt to prevent Newton overshoot
 5150              		.loc 6 399 29 view .LVU1481
 5151 0074 6420     		movs	r0, #100
 5152              	.LVL382:
 399:src/main.cpp  ****     // Clamp raw strictly before sqrt to prevent Newton overshoot
 5153              		.loc 6 399 29 view .LVU1482
 5154 0076 7047     		bx	lr
 5155              	.L303:
 5156              		.align	2
ARM GAS  /tmp/claude-502/ccZj3JyB.s 			page 136


 5157              	.L302:
 5158 0078 00000000 		.word	.LANCHOR42
 5159              		.cfi_endproc
 5160              	.LFE2576:
 5162              		.section	.text._Z10detect_rawPlP6Finger,"ax",%progbits
 5163              		.align	1
 5164              		.p2align 2,,3
 5165              		.global	_Z10detect_rawPlP6Finger
 5166              		.syntax unified
 5167              		.thumb
 5168              		.thumb_func
 5170              	_Z10detect_rawPlP6Finger:
 5171              	.LVL383:
 5172              	.LFB2577:
 417:src/main.cpp  ****     out[0].active=out[1].active=false;
 5173              		.loc 6 417 1 is_stmt 1 view -0
 5174              		.cfi_startproc
 5175              		@ args = 0, pretend = 0, frame = 48
 5176              		@ frame_needed = 0, uses_anonymous_args = 0
 418:src/main.cpp  ****     int pka=0;int32_t da=0;
 5177              		.loc 6 418 5 view .LVU1484
 418:src/main.cpp  ****     int pka=0;int32_t da=0;
 5178              		.loc 6 418 32 is_stmt 0 view .LVU1485
 5179 0000 0022     		movs	r2, #0
 5180 0002 A0F1040C 		sub	ip, r0, #4
 417:src/main.cpp  ****     out[0].active=out[1].active=false;
 5181              		.loc 6 417 1 view .LVU1486
 5182 0006 2DE9F04F 		push	{r4, r5, r6, r7, r8, r9, r10, fp, lr}
 5183              		.cfi_def_cfa_offset 36
 5184              		.cfi_offset 4, -36
 5185              		.cfi_offset 5, -32
 5186              		.cfi_offset 6, -28
 5187              		.cfi_offset 7, -24
 5188              		.cfi_offset 8, -20
 5189              		.cfi_offset 9, -16
 5190              		.cfi_offset 10, -12
 5191              		.cfi_offset 11, -8
 5192              		.cfi_offset 14, -4
 5193              	.LBB1060:
 420:src/main.cpp  ****     if(da<TOUCH_THRESHOLD)return 0;
 5194              		.loc 6 420 13 view .LVU1487
 5195 000a 1346     		mov	r3, r2
 5196              	.LBE1060:
 417:src/main.cpp  ****     out[0].active=out[1].active=false;
 5197              		.loc 6 417 1 view .LVU1488
 5198 000c 8DB0     		sub	sp, sp, #52
 5199              		.cfi_def_cfa_offset 88
 417:src/main.cpp  ****     out[0].active=out[1].active=false;
 5200              		.loc 6 417 1 view .LVU1489
 5201 000e 0646     		mov	r6, r0
 5202 0010 0D46     		mov	r5, r1
 419:src/main.cpp  ****     for(int i=0;i<N_CH;i++)if(delta[i]>da){da=delta[i];pka=i;}
 5203              		.loc 6 419 23 view .LVU1490
 5204 0012 9646     		mov	lr, r2
 419:src/main.cpp  ****     for(int i=0;i<N_CH;i++)if(delta[i]>da){da=delta[i];pka=i;}
 5205              		.loc 6 419 9 view .LVU1491
 5206 0014 1446     		mov	r4, r2
ARM GAS  /tmp/claude-502/ccZj3JyB.s 			page 137


 418:src/main.cpp  ****     int pka=0;int32_t da=0;
 5207              		.loc 6 418 32 view .LVU1492
 5208 0016 0A75     		strb	r2, [r1, #20]
 418:src/main.cpp  ****     int pka=0;int32_t da=0;
 5209              		.loc 6 418 18 view .LVU1493
 5210 0018 0A70     		strb	r2, [r1]
 419:src/main.cpp  ****     for(int i=0;i<N_CH;i++)if(delta[i]>da){da=delta[i];pka=i;}
 5211              		.loc 6 419 5 is_stmt 1 view .LVU1494
 5212              	.LVL384:
 419:src/main.cpp  ****     for(int i=0;i<N_CH;i++)if(delta[i]>da){da=delta[i];pka=i;}
 5213              		.loc 6 419 15 view .LVU1495
 420:src/main.cpp  ****     if(da<TOUCH_THRESHOLD)return 0;
 5214              		.loc 6 420 5 view .LVU1496
 5215              	.LBB1061:
 420:src/main.cpp  ****     if(da<TOUCH_THRESHOLD)return 0;
 5216              		.loc 6 420 18 view .LVU1497
 5217              	.L306:
 420:src/main.cpp  ****     if(da<TOUCH_THRESHOLD)return 0;
 5218              		.loc 6 420 28 discriminator 2 view .LVU1498
 420:src/main.cpp  ****     if(da<TOUCH_THRESHOLD)return 0;
 5219              		.loc 6 420 38 is_stmt 0 discriminator 2 view .LVU1499
 5220 001a 5CF8042F 		ldr	r2, [ip, #4]!
 420:src/main.cpp  ****     if(da<TOUCH_THRESHOLD)return 0;
 5221              		.loc 6 420 28 discriminator 2 view .LVU1500
 5222 001e 7245     		cmp	r2, lr
 5223 0020 01DD     		ble	.L305
 420:src/main.cpp  ****     if(da<TOUCH_THRESHOLD)return 0;
 5224              		.loc 6 420 28 view .LVU1501
 5225 0022 1C46     		mov	r4, r3
 5226 0024 9646     		mov	lr, r2
 5227              	.LVL385:
 5228              	.L305:
 420:src/main.cpp  ****     if(da<TOUCH_THRESHOLD)return 0;
 5229              		.loc 6 420 5 is_stmt 1 discriminator 5 view .LVU1502
 5230 0026 0133     		adds	r3, r3, #1
 5231              	.LVL386:
 420:src/main.cpp  ****     if(da<TOUCH_THRESHOLD)return 0;
 5232              		.loc 6 420 18 discriminator 5 view .LVU1503
 5233 0028 0C2B     		cmp	r3, #12
 5234 002a F6D1     		bne	.L306
 5235              	.LBE1061:
 421:src/main.cpp  ****     int ws=pka-2;if(ws<0)ws=0;int we=pka+2;if(we>=N_CH)we=N_CH-1;
 5236              		.loc 6 421 5 view .LVU1504
 5237 002c BEF1090F 		cmp	lr, #9
 5238 0030 03DC     		bgt	.L334
 421:src/main.cpp  ****     int ws=pka-2;if(ws<0)ws=0;int we=pka+2;if(we>=N_CH)we=N_CH-1;
 5239              		.loc 6 421 34 is_stmt 0 view .LVU1505
 5240 0032 0020     		movs	r0, #0
 5241              	.LVL387:
 439:src/main.cpp  **** 
 5242              		.loc 6 439 1 view .LVU1506
 5243 0034 0DB0     		add	sp, sp, #52
 5244              		.cfi_remember_state
 5245              		.cfi_def_cfa_offset 36
 5246              		@ sp needed
 5247 0036 BDE8F08F 		pop	{r4, r5, r6, r7, r8, r9, r10, fp, pc}
 5248              	.LVL388:
ARM GAS  /tmp/claude-502/ccZj3JyB.s 			page 138


 5249              	.L334:
 5250              		.cfi_restore_state
 422:src/main.cpp  ****     int32_t pa;int pca;
 5251              		.loc 6 422 5 is_stmt 1 view .LVU1507
 422:src/main.cpp  ****     int32_t pa;int pca;
 5252              		.loc 6 422 35 is_stmt 0 view .LVU1508
 5253 003a 04F10208 		add	r8, r4, #2
 422:src/main.cpp  ****     int32_t pa;int pca;
 5254              		.loc 6 422 9 view .LVU1509
 5255 003e A71E     		subs	r7, r4, #2
 5256              	.LVL389:
 422:src/main.cpp  ****     int32_t pa;int pca;
 5257              		.loc 6 422 18 is_stmt 1 view .LVU1510
 5258 0040 B8F10B0F 		cmp	r8, #11
 5259 0044 27EAE777 		bic	r7, r7, r7, asr #31
 5260              	.LVL390:
 422:src/main.cpp  ****     int32_t pa;int pca;
 5261              		.loc 6 422 31 view .LVU1511
 422:src/main.cpp  ****     int32_t pa;int pca;
 5262              		.loc 6 422 44 view .LVU1512
 5263 0048 A8BF     		it	ge
 5264 004a 4FF00B08 		movge	r8, #11
 5265              	.LVL391:
 423:src/main.cpp  ****     int32_t posa=centroid_window(delta,ws,we,&pa,&pca);
 5266              		.loc 6 423 5 view .LVU1513
 423:src/main.cpp  ****     int32_t posa=centroid_window(delta,ws,we,&pa,&pca);
 5267              		.loc 6 423 16 view .LVU1514
 424:src/main.cpp  ****     out[0]={true,posa,pressure_pct(pa,pca),pca,pa};
 5268              		.loc 6 424 5 view .LVU1515
 5269              	.LBB1062:
 5270              	.LBI1062:
 380:src/main.cpp  **** {
 5271              		.loc 6 380 9 view .LVU1516
 5272              	.LBB1063:
 5273              	.LBB1064:
 383:src/main.cpp  ****         int32_t w=d[i]>0?d[i]:0;
 5274              		.loc 6 383 18 view .LVU1517
 5275 004e B845     		cmp	r8, r7
 5276 0050 C0F2AD80 		blt	.L321
 5277 0054 6FF0404C 		mvn	ip, #-1073741824
 5278              	.LBE1064:
 382:src/main.cpp  ****     for(int i=s;i<=e;i++){
 5279              		.loc 6 382 24 is_stmt 0 view .LVU1518
 5280 0058 4FF00009 		mov	r9, #0
 5281 005c 08F1010E 		add	lr, r8, #1
 5282              	.LVL392:
 5283              	.LBB1066:
 383:src/main.cpp  ****         int32_t w=d[i]>0?d[i]:0;
 5284              		.loc 6 383 18 view .LVU1519
 5285 0060 BA46     		mov	r10, r7
 5286 0062 BC44     		add	ip, ip, r7
 5287 0064 3A46     		mov	r2, r7
 5288              	.LBE1066:
 382:src/main.cpp  ****     for(int i=s;i<=e;i++){
 5289              		.loc 6 382 18 view .LVU1520
 5290 0066 4846     		mov	r0, r9
 5291              	.LVL393:
ARM GAS  /tmp/claude-502/ccZj3JyB.s 			page 139


 382:src/main.cpp  ****     for(int i=s;i<=e;i++){
 5292              		.loc 6 382 13 view .LVU1521
 5293 0068 4946     		mov	r1, r9
 5294              	.LVL394:
 382:src/main.cpp  ****     for(int i=s;i<=e;i++){
 5295              		.loc 6 382 13 view .LVU1522
 5296 006a 06EB8C0C 		add	ip, r6, ip, lsl #2
 5297              	.LVL395:
 5298              	.L310:
 5299              	.LBB1067:
 5300              	.LBB1065:
 384:src/main.cpp  ****         sw+=w;swx+=w*i;
 5301              		.loc 6 384 9 is_stmt 1 view .LVU1523
 384:src/main.cpp  ****         sw+=w;swx+=w*i;
 5302              		.loc 6 384 17 is_stmt 0 view .LVU1524
 5303 006e 5CF8043F 		ldr	r3, [ip, #4]!
 5304 0072 23EAE373 		bic	r3, r3, r3, asr #31
 5305              	.LVL396:
 385:src/main.cpp  ****         if(w>pk){pk=w;pkc=i;}
 5306              		.loc 6 385 9 is_stmt 1 view .LVU1525
 386:src/main.cpp  ****     }
 5307              		.loc 6 386 9 is_stmt 0 view .LVU1526
 5308 0076 9945     		cmp	r9, r3
 385:src/main.cpp  ****         if(w>pk){pk=w;pkc=i;}
 5309              		.loc 6 385 18 view .LVU1527
 5310 0078 02FB0300 		mla	r0, r2, r3, r0
 5311              	.LVL397:
 385:src/main.cpp  ****         if(w>pk){pk=w;pkc=i;}
 5312              		.loc 6 385 11 view .LVU1528
 5313 007c 1944     		add	r1, r1, r3
 5314              	.LVL398:
 385:src/main.cpp  ****         if(w>pk){pk=w;pkc=i;}
 5315              		.loc 6 385 15 is_stmt 1 view .LVU1529
 386:src/main.cpp  ****     }
 5316              		.loc 6 386 9 view .LVU1530
 5317 007e 01DA     		bge	.L309
 386:src/main.cpp  ****     }
 5318              		.loc 6 386 9 is_stmt 0 view .LVU1531
 5319 0080 9246     		mov	r10, r2
 5320 0082 9946     		mov	r9, r3
 5321              	.LVL399:
 5322              	.L309:
 386:src/main.cpp  ****     }
 5323              		.loc 6 386 9 view .LVU1532
 5324              	.LBE1065:
 383:src/main.cpp  ****         int32_t w=d[i]>0?d[i]:0;
 5325              		.loc 6 383 5 is_stmt 1 view .LVU1533
 5326 0084 0132     		adds	r2, r2, #1
 5327              	.LVL400:
 383:src/main.cpp  ****         int32_t w=d[i]>0?d[i]:0;
 5328              		.loc 6 383 18 view .LVU1534
 5329 0086 7245     		cmp	r2, lr
 5330 0088 F1D1     		bne	.L310
 5331              	.LBE1067:
 388:src/main.cpp  ****     if(sw==0)return -1;
 5332              		.loc 6 388 5 view .LVU1535
 388:src/main.cpp  ****     if(sw==0)return -1;
ARM GAS  /tmp/claude-502/ccZj3JyB.s 			page 140


 5333              		.loc 6 388 15 view .LVU1536
 5334              	.LVL401:
 388:src/main.cpp  ****     if(sw==0)return -1;
 5335              		.loc 6 388 26 view .LVU1537
 388:src/main.cpp  ****     if(sw==0)return -1;
 5336              		.loc 6 388 38 view .LVU1538
 389:src/main.cpp  ****     int32_t p=(swx*1000)/(sw*(N_CH-1));
 5337              		.loc 6 389 5 view .LVU1539
 5338 008a 0029     		cmp	r1, #0
 5339 008c 00F09880 		beq	.L322
 390:src/main.cpp  ****     if(p<0)p=0;if(p>1000)p=1000;
 5340              		.loc 6 390 5 view .LVU1540
 5341              	.LVL402:
 391:src/main.cpp  ****     return p;
 5342              		.loc 6 391 5 view .LVU1541
 390:src/main.cpp  ****     if(p<0)p=0;if(p>1000)p=1000;
 5343              		.loc 6 390 19 is_stmt 0 view .LVU1542
 5344 0090 4FF47A7B 		mov	fp, #1000
 5345 0094 0BFB00F0 		mul	r0, fp, r0
 5346              	.LVL403:
 390:src/main.cpp  ****     if(p<0)p=0;if(p>1000)p=1000;
 5347              		.loc 6 390 29 view .LVU1543
 5348 0098 01EB810B 		add	fp, r1, r1, lsl #2
 5349 009c 01EB4B0B 		add	fp, r1, fp, lsl #1
 390:src/main.cpp  ****     if(p<0)p=0;if(p>1000)p=1000;
 5350              		.loc 6 390 13 view .LVU1544
 5351 00a0 B0FBFBFB 		udiv	fp, r0, fp
 5352 00a4 BBF57A7F 		cmp	fp, #1000
 5353 00a8 A8BF     		it	ge
 5354 00aa 4FF47A7B 		movge	fp, #1000
 5355              	.LVL404:
 5356              	.L308:
 390:src/main.cpp  ****     if(p<0)p=0;if(p>1000)p=1000;
 5357              		.loc 6 390 13 view .LVU1545
 5358              	.LBE1063:
 5359              	.LBE1062:
 425:src/main.cpp  **** 
 5360              		.loc 6 425 5 is_stmt 1 view .LVU1546
 425:src/main.cpp  **** 
 5361              		.loc 6 425 35 is_stmt 0 view .LVU1547
 5362 00ae 5146     		mov	r1, r10
 5363 00b0 4846     		mov	r0, r9
 5364 00b2 FFF7FEFF 		bl	_Z12pressure_pctli
 5365              	.LVL405:
 425:src/main.cpp  **** 
 5366              		.loc 6 425 11 view .LVU1548
 5367 00b6 0123     		movs	r3, #1
 5368 00b8 EC46     		mov	ip, sp
 5369 00ba C5F804B0 		str	fp, [r5, #4]
 5370 00be 2B70     		strb	r3, [r5]
 5371              	.LBB1071:
 429:src/main.cpp  ****     int pkb=0;int32_t db=0;
 5372              		.loc 6 429 13 view .LVU1549
 5373 00c0 0023     		movs	r3, #0
 5374              	.LBE1071:
 425:src/main.cpp  **** 
 5375              		.loc 6 425 11 view .LVU1550
ARM GAS  /tmp/claude-502/ccZj3JyB.s 			page 141


 5376 00c2 C5F81090 		str	r9, [r5, #16]
 427:src/main.cpp  ****     int ss=pka-2;if(ss<0)ss=0;int se=pka+2;if(se>=N_CH)se=N_CH-1;
 5377              		.loc 6 427 5 is_stmt 1 view .LVU1551
 428:src/main.cpp  ****     for(int i=0;i<N_CH;i++)d2[i]=(i>=ss&&i<=se)?0:delta[i];
 5378              		.loc 6 428 5 view .LVU1552
 5379              	.LVL406:
 428:src/main.cpp  ****     for(int i=0;i<N_CH;i++)d2[i]=(i>=ss&&i<=se)?0:delta[i];
 5380              		.loc 6 428 18 view .LVU1553
 428:src/main.cpp  ****     for(int i=0;i<N_CH;i++)d2[i]=(i>=ss&&i<=se)?0:delta[i];
 5381              		.loc 6 428 31 view .LVU1554
 428:src/main.cpp  ****     for(int i=0;i<N_CH;i++)d2[i]=(i>=ss&&i<=se)?0:delta[i];
 5382              		.loc 6 428 44 view .LVU1555
 5383              	.LBB1072:
 429:src/main.cpp  ****     int pkb=0;int32_t db=0;
 5384              		.loc 6 429 18 view .LVU1556
 5385              	.LBE1072:
 425:src/main.cpp  **** 
 5386              		.loc 6 425 11 is_stmt 0 view .LVU1557
 5387 00c6 C5E9020A 		strd	r0, r10, [r5, #8]
 5388 00ca 6846     		mov	r0, sp
 5389 00cc 04E0     		b	.L313
 5390              	.LVL407:
 5391              	.L311:
 5392              	.LBB1073:
 429:src/main.cpp  ****     int pkb=0;int32_t db=0;
 5393              		.loc 6 429 5 discriminator 6 view .LVU1558
 5394 00ce 0133     		adds	r3, r3, #1
 5395              	.LVL408:
 429:src/main.cpp  ****     int pkb=0;int32_t db=0;
 5396              		.loc 6 429 33 discriminator 6 view .LVU1559
 5397 00d0 4CF8042B 		str	r2, [ip], #4
 429:src/main.cpp  ****     int pkb=0;int32_t db=0;
 5398              		.loc 6 429 5 is_stmt 1 discriminator 6 view .LVU1560
 5399              	.LVL409:
 429:src/main.cpp  ****     int pkb=0;int32_t db=0;
 5400              		.loc 6 429 18 discriminator 6 view .LVU1561
 5401 00d4 0C2B     		cmp	r3, #12
 5402 00d6 0FD0     		beq	.L335
 5403              	.LVL410:
 5404              	.L313:
 429:src/main.cpp  ****     int pkb=0;int32_t db=0;
 5405              		.loc 6 429 28 discriminator 2 view .LVU1562
 429:src/main.cpp  ****     int pkb=0;int32_t db=0;
 5406              		.loc 6 429 48 is_stmt 0 discriminator 2 view .LVU1563
 5407 00d8 9F42     		cmp	r7, r3
 5408 00da 06DC     		bgt	.L327
 5409 00dc 9845     		cmp	r8, r3
 5410 00de ACBF     		ite	ge
 5411 00e0 0021     		movge	r1, #0
 5412 00e2 0121     		movlt	r1, #1
 5413 00e4 0A46     		mov	r2, r1
 5414 00e6 0029     		cmp	r1, #0
 5415 00e8 F1D0     		beq	.L311
 5416              	.L327:
 429:src/main.cpp  ****     int pkb=0;int32_t db=0;
 5417              		.loc 6 429 48 discriminator 3 view .LVU1564
 5418 00ea 56F82320 		ldr	r2, [r6, r3, lsl #2]
ARM GAS  /tmp/claude-502/ccZj3JyB.s 			page 142


 429:src/main.cpp  ****     int pkb=0;int32_t db=0;
 5419              		.loc 6 429 5 discriminator 3 view .LVU1565
 5420 00ee 0133     		adds	r3, r3, #1
 5421              	.LVL411:
 429:src/main.cpp  ****     int pkb=0;int32_t db=0;
 5422              		.loc 6 429 18 discriminator 3 view .LVU1566
 5423 00f0 0C2B     		cmp	r3, #12
 429:src/main.cpp  ****     int pkb=0;int32_t db=0;
 5424              		.loc 6 429 33 discriminator 3 view .LVU1567
 5425 00f2 4CF8042B 		str	r2, [ip], #4
 429:src/main.cpp  ****     int pkb=0;int32_t db=0;
 5426              		.loc 6 429 5 is_stmt 1 discriminator 3 view .LVU1568
 5427              	.LVL412:
 429:src/main.cpp  ****     int pkb=0;int32_t db=0;
 5428              		.loc 6 429 18 discriminator 3 view .LVU1569
 5429 00f6 EFD1     		bne	.L313
 5430              	.L335:
 429:src/main.cpp  ****     int pkb=0;int32_t db=0;
 5431              		.loc 6 429 18 is_stmt 0 discriminator 3 view .LVU1570
 5432              	.LBE1073:
 5433              	.LBB1074:
 431:src/main.cpp  ****     int sep=pkb-pka;if(sep<0)sep=-sep;
 5434              		.loc 6 431 13 view .LVU1571
 5435 00f8 0023     		movs	r3, #0
 5436              	.LVL413:
 431:src/main.cpp  ****     int sep=pkb-pka;if(sep<0)sep=-sep;
 5437              		.loc 6 431 13 view .LVU1572
 5438              	.LBE1074:
 430:src/main.cpp  ****     for(int i=0;i<N_CH;i++)if(d2[i]>db){db=d2[i];pkb=i;}
 5439              		.loc 6 430 23 view .LVU1573
 5440 00fa 1946     		mov	r1, r3
 430:src/main.cpp  ****     for(int i=0;i<N_CH;i++)if(d2[i]>db){db=d2[i];pkb=i;}
 5441              		.loc 6 430 9 view .LVU1574
 5442 00fc 1E46     		mov	r6, r3
 5443              	.LVL414:
 5444              	.L315:
 5445              	.LBB1075:
 431:src/main.cpp  ****     int sep=pkb-pka;if(sep<0)sep=-sep;
 5446              		.loc 6 431 28 is_stmt 1 discriminator 2 view .LVU1575
 431:src/main.cpp  ****     int sep=pkb-pka;if(sep<0)sep=-sep;
 5447              		.loc 6 431 35 is_stmt 0 discriminator 2 view .LVU1576
 5448 00fe 50F8042B 		ldr	r2, [r0], #4
 431:src/main.cpp  ****     int sep=pkb-pka;if(sep<0)sep=-sep;
 5449              		.loc 6 431 28 discriminator 2 view .LVU1577
 5450 0102 8A42     		cmp	r2, r1
 5451 0104 01DD     		ble	.L314
 431:src/main.cpp  ****     int sep=pkb-pka;if(sep<0)sep=-sep;
 5452              		.loc 6 431 28 view .LVU1578
 5453 0106 1E46     		mov	r6, r3
 5454 0108 1146     		mov	r1, r2
 5455              	.LVL415:
 5456              	.L314:
 431:src/main.cpp  ****     int sep=pkb-pka;if(sep<0)sep=-sep;
 5457              		.loc 6 431 5 is_stmt 1 discriminator 5 view .LVU1579
 5458 010a 0133     		adds	r3, r3, #1
 5459              	.LVL416:
 431:src/main.cpp  ****     int sep=pkb-pka;if(sep<0)sep=-sep;
ARM GAS  /tmp/claude-502/ccZj3JyB.s 			page 143


 5460              		.loc 6 431 18 discriminator 5 view .LVU1580
 5461 010c 0C2B     		cmp	r3, #12
 5462 010e F6D1     		bne	.L315
 5463              	.LBE1075:
 432:src/main.cpp  ****     if(db<TOUCH_THRESHOLD||sep<MIN_FINGER_SEP)return 1;
 5464              		.loc 6 432 5 view .LVU1581
 5465              	.LVL417:
 432:src/main.cpp  ****     if(db<TOUCH_THRESHOLD||sep<MIN_FINGER_SEP)return 1;
 5466              		.loc 6 432 21 view .LVU1582
 5467 0110 331B     		subs	r3, r6, r4
 5468              	.LVL418:
 432:src/main.cpp  ****     if(db<TOUCH_THRESHOLD||sep<MIN_FINGER_SEP)return 1;
 5469              		.loc 6 432 30 view .LVU1583
 432:src/main.cpp  ****     if(db<TOUCH_THRESHOLD||sep<MIN_FINGER_SEP)return 1;
 5470              		.loc 6 432 33 is_stmt 0 view .LVU1584
 5471 0112 48BF     		it	mi
 5472 0114 A31B     		submi	r3, r4, r6
 5473              	.LVL419:
 433:src/main.cpp  ****     int ws2=pkb-2;if(ws2<0)ws2=0;int we2=pkb+2;if(we2>=N_CH)we2=N_CH-1;
 5474              		.loc 6 433 5 is_stmt 1 view .LVU1585
 5475 0116 0929     		cmp	r1, #9
 5476 0118 45DD     		ble	.L324
 5477 011a 032B     		cmp	r3, #3
 5478 011c CCBF     		ite	gt
 5479 011e 0024     		movgt	r4, #0
 5480 0120 0124     		movle	r4, #1
 5481 0122 002C     		cmp	r4, #0
 5482 0124 3FD1     		bne	.L324
 434:src/main.cpp  ****     int32_t pb;int pcb;
 5483              		.loc 6 434 5 view .LVU1586
 434:src/main.cpp  ****     int32_t pb;int pcb;
 5484              		.loc 6 434 9 is_stmt 0 view .LVU1587
 5485 0126 A6F10208 		sub	r8, r6, #2
 5486              	.LVL420:
 434:src/main.cpp  ****     int32_t pb;int pcb;
 5487              		.loc 6 434 19 is_stmt 1 view .LVU1588
 434:src/main.cpp  ****     int32_t pb;int pcb;
 5488              		.loc 6 434 38 is_stmt 0 view .LVU1589
 5489 012a 0236     		adds	r6, r6, #2
 5490 012c 0B2E     		cmp	r6, #11
 5491 012e 28EAE878 		bic	r8, r8, r8, asr #31
 5492              	.LVL421:
 434:src/main.cpp  ****     int32_t pb;int pcb;
 5493              		.loc 6 434 34 is_stmt 1 view .LVU1590
 434:src/main.cpp  ****     int32_t pb;int pcb;
 5494              		.loc 6 434 48 view .LVU1591
 5495 0132 A8BF     		it	ge
 5496 0134 0B26     		movge	r6, #11
 5497              	.LVL422:
 435:src/main.cpp  ****     int32_t posb=centroid_window(d2,ws2,we2,&pb,&pcb);
 5498              		.loc 6 435 5 view .LVU1592
 435:src/main.cpp  ****     int32_t posb=centroid_window(d2,ws2,we2,&pb,&pcb);
 5499              		.loc 6 435 16 view .LVU1593
 436:src/main.cpp  ****     out[1]={true,posb,pressure_pct(pb,pcb),pcb,pb};
 5500              		.loc 6 436 5 view .LVU1594
 5501              	.LBB1076:
 5502              	.LBI1076:
ARM GAS  /tmp/claude-502/ccZj3JyB.s 			page 144


 380:src/main.cpp  **** {
 5503              		.loc 6 380 9 view .LVU1595
 5504              	.LBB1077:
 5505              	.LBB1078:
 383:src/main.cpp  ****         int32_t w=d[i]>0?d[i]:0;
 5506              		.loc 6 383 18 view .LVU1596
 5507 0136 4645     		cmp	r6, r8
 5508 0138 3FDB     		blt	.L326
 5509 013a 721C     		adds	r2, r6, #1
 5510 013c 6FF04046 		mvn	r6, #-1073741824
 5511              	.LVL423:
 383:src/main.cpp  ****         int32_t w=d[i]>0?d[i]:0;
 5512              		.loc 6 383 18 is_stmt 0 view .LVU1597
 5513 0140 4046     		mov	r0, r8
 5514              	.LBE1078:
 382:src/main.cpp  ****     for(int i=s;i<=e;i++){
 5515              		.loc 6 382 18 view .LVU1598
 5516 0142 2746     		mov	r7, r4
 5517              	.LVL424:
 382:src/main.cpp  ****     for(int i=s;i<=e;i++){
 5518              		.loc 6 382 18 view .LVU1599
 5519 0144 4644     		add	r6, r6, r8
 382:src/main.cpp  ****     for(int i=s;i<=e;i++){
 5520              		.loc 6 382 13 view .LVU1600
 5521 0146 2146     		mov	r1, r4
 5522              	.LVL425:
 382:src/main.cpp  ****     for(int i=s;i<=e;i++){
 5523              		.loc 6 382 13 view .LVU1601
 5524 0148 0DEB8606 		add	r6, sp, r6, lsl #2
 5525              	.LVL426:
 5526              	.L319:
 5527              	.LBB1080:
 5528              	.LBB1079:
 384:src/main.cpp  ****         sw+=w;swx+=w*i;
 5529              		.loc 6 384 9 is_stmt 1 view .LVU1602
 384:src/main.cpp  ****         sw+=w;swx+=w*i;
 5530              		.loc 6 384 17 is_stmt 0 view .LVU1603
 5531 014c 56F8043F 		ldr	r3, [r6, #4]!
 5532 0150 23EAE373 		bic	r3, r3, r3, asr #31
 5533              	.LVL427:
 385:src/main.cpp  ****         if(w>pk){pk=w;pkc=i;}
 5534              		.loc 6 385 9 is_stmt 1 view .LVU1604
 386:src/main.cpp  ****     }
 5535              		.loc 6 386 9 is_stmt 0 view .LVU1605
 5536 0154 9C42     		cmp	r4, r3
 385:src/main.cpp  ****         if(w>pk){pk=w;pkc=i;}
 5537              		.loc 6 385 18 view .LVU1606
 5538 0156 03FB0077 		mla	r7, r3, r0, r7
 5539              	.LVL428:
 385:src/main.cpp  ****         if(w>pk){pk=w;pkc=i;}
 5540              		.loc 6 385 11 view .LVU1607
 5541 015a 1944     		add	r1, r1, r3
 5542              	.LVL429:
 385:src/main.cpp  ****         if(w>pk){pk=w;pkc=i;}
 5543              		.loc 6 385 15 is_stmt 1 view .LVU1608
 386:src/main.cpp  ****     }
 5544              		.loc 6 386 9 view .LVU1609
ARM GAS  /tmp/claude-502/ccZj3JyB.s 			page 145


 5545 015c 01DA     		bge	.L318
 386:src/main.cpp  ****     }
 5546              		.loc 6 386 9 is_stmt 0 view .LVU1610
 5547 015e 8046     		mov	r8, r0
 5548 0160 1C46     		mov	r4, r3
 5549              	.LVL430:
 5550              	.L318:
 386:src/main.cpp  ****     }
 5551              		.loc 6 386 9 view .LVU1611
 5552              	.LBE1079:
 383:src/main.cpp  ****         int32_t w=d[i]>0?d[i]:0;
 5553              		.loc 6 383 5 is_stmt 1 view .LVU1612
 5554 0162 0130     		adds	r0, r0, #1
 5555              	.LVL431:
 383:src/main.cpp  ****         int32_t w=d[i]>0?d[i]:0;
 5556              		.loc 6 383 18 view .LVU1613
 5557 0164 8242     		cmp	r2, r0
 5558 0166 F1D1     		bne	.L319
 5559              	.LBE1080:
 388:src/main.cpp  ****     if(sw==0)return -1;
 5560              		.loc 6 388 5 view .LVU1614
 388:src/main.cpp  ****     if(sw==0)return -1;
 5561              		.loc 6 388 15 view .LVU1615
 5562              	.LVL432:
 388:src/main.cpp  ****     if(sw==0)return -1;
 5563              		.loc 6 388 26 view .LVU1616
 388:src/main.cpp  ****     if(sw==0)return -1;
 5564              		.loc 6 388 38 view .LVU1617
 389:src/main.cpp  ****     int32_t p=(swx*1000)/(sw*(N_CH-1));
 5565              		.loc 6 389 5 view .LVU1618
 5566 0168 39B3     		cbz	r1, .L326
 390:src/main.cpp  ****     if(p<0)p=0;if(p>1000)p=1000;
 5567              		.loc 6 390 5 view .LVU1619
 5568              	.LVL433:
 391:src/main.cpp  ****     return p;
 5569              		.loc 6 391 5 view .LVU1620
 390:src/main.cpp  ****     if(p<0)p=0;if(p>1000)p=1000;
 5570              		.loc 6 390 19 is_stmt 0 view .LVU1621
 5571 016a 4FF47A76 		mov	r6, #1000
 390:src/main.cpp  ****     if(p<0)p=0;if(p>1000)p=1000;
 5572              		.loc 6 390 29 view .LVU1622
 5573 016e 01EB8103 		add	r3, r1, r1, lsl #2
 5574              	.LVL434:
 390:src/main.cpp  ****     if(p<0)p=0;if(p>1000)p=1000;
 5575              		.loc 6 390 19 view .LVU1623
 5576 0172 07FB06F6 		mul	r6, r7, r6
 390:src/main.cpp  ****     if(p<0)p=0;if(p>1000)p=1000;
 5577              		.loc 6 390 29 view .LVU1624
 5578 0176 01EB4301 		add	r1, r1, r3, lsl #1
 5579              	.LVL435:
 390:src/main.cpp  ****     if(p<0)p=0;if(p>1000)p=1000;
 5580              		.loc 6 390 13 view .LVU1625
 5581 017a B6FBF1F6 		udiv	r6, r6, r1
 5582 017e B6F57A7F 		cmp	r6, #1000
 5583 0182 A8BF     		it	ge
 5584 0184 4FF47A76 		movge	r6, #1000
 5585              	.LVL436:
ARM GAS  /tmp/claude-502/ccZj3JyB.s 			page 146


 5586              	.L317:
 390:src/main.cpp  ****     if(p<0)p=0;if(p>1000)p=1000;
 5587              		.loc 6 390 13 view .LVU1626
 5588              	.LBE1077:
 5589              	.LBE1076:
 437:src/main.cpp  ****     return 2;
 5590              		.loc 6 437 5 is_stmt 1 view .LVU1627
 437:src/main.cpp  ****     return 2;
 5591              		.loc 6 437 35 is_stmt 0 view .LVU1628
 5592 0188 4146     		mov	r1, r8
 5593 018a 2046     		mov	r0, r4
 5594 018c FFF7FEFF 		bl	_Z12pressure_pctli
 5595              	.LVL437:
 5596 0190 0346     		mov	r3, r0
 438:src/main.cpp  **** }
 5597              		.loc 6 438 12 view .LVU1629
 5598 0192 0220     		movs	r0, #2
 437:src/main.cpp  ****     return 2;
 5599              		.loc 6 437 11 view .LVU1630
 5600 0194 AE61     		str	r6, [r5, #24]
 5601 0196 6C62     		str	r4, [r5, #36]
 438:src/main.cpp  **** }
 5602              		.loc 6 438 5 is_stmt 1 view .LVU1631
 437:src/main.cpp  ****     return 2;
 5603              		.loc 6 437 11 is_stmt 0 view .LVU1632
 5604 0198 C5E90738 		strd	r3, r8, [r5, #28]
 5605 019c 0123     		movs	r3, #1
 5606 019e 2B75     		strb	r3, [r5, #20]
 439:src/main.cpp  **** 
 5607              		.loc 6 439 1 view .LVU1633
 5608 01a0 0DB0     		add	sp, sp, #52
 5609              		.cfi_remember_state
 5610              		.cfi_def_cfa_offset 36
 5611              		@ sp needed
 5612 01a2 BDE8F08F 		pop	{r4, r5, r6, r7, r8, r9, r10, fp, pc}
 5613              	.LVL438:
 5614              	.L324:
 5615              		.cfi_restore_state
 433:src/main.cpp  ****     int ws2=pkb-2;if(ws2<0)ws2=0;int we2=pkb+2;if(we2>=N_CH)we2=N_CH-1;
 5616              		.loc 6 433 54 view .LVU1634
 5617 01a6 0120     		movs	r0, #1
 439:src/main.cpp  **** 
 5618              		.loc 6 439 1 view .LVU1635
 5619 01a8 0DB0     		add	sp, sp, #52
 5620              		.cfi_remember_state
 5621              		.cfi_def_cfa_offset 36
 5622              		@ sp needed
 5623 01aa BDE8F08F 		pop	{r4, r5, r6, r7, r8, r9, r10, fp, pc}
 5624              	.LVL439:
 5625              	.L321:
 5626              		.cfi_restore_state
 5627              	.LBB1082:
 5628              	.LBB1069:
 5629              	.LBB1068:
 383:src/main.cpp  ****         int32_t w=d[i]>0?d[i]:0;
 5630              		.loc 6 383 18 view .LVU1636
 5631 01ae BA46     		mov	r10, r7
ARM GAS  /tmp/claude-502/ccZj3JyB.s 			page 147


 5632              	.LBE1068:
 382:src/main.cpp  ****     for(int i=s;i<=e;i++){
 5633              		.loc 6 382 24 view .LVU1637
 5634 01b0 4FF00009 		mov	r9, #0
 389:src/main.cpp  ****     int32_t p=(swx*1000)/(sw*(N_CH-1));
 5635              		.loc 6 389 22 view .LVU1638
 5636 01b4 4FF0FF3B 		mov	fp, #-1
 5637 01b8 79E7     		b	.L308
 5638              	.LVL440:
 5639              	.L326:
 389:src/main.cpp  ****     int32_t p=(swx*1000)/(sw*(N_CH-1));
 5640              		.loc 6 389 22 view .LVU1639
 5641              	.LBE1069:
 5642              	.LBE1082:
 5643              	.LBB1083:
 5644              	.LBB1081:
 5645 01ba 4FF0FF36 		mov	r6, #-1
 5646 01be E3E7     		b	.L317
 5647              	.LVL441:
 5648              	.L322:
 389:src/main.cpp  ****     int32_t p=(swx*1000)/(sw*(N_CH-1));
 5649              		.loc 6 389 22 view .LVU1640
 5650              	.LBE1081:
 5651              	.LBE1083:
 5652              	.LBB1084:
 5653              	.LBB1070:
 5654 01c0 4FF0FF3B 		mov	fp, #-1
 5655 01c4 73E7     		b	.L308
 5656              	.LBE1070:
 5657              	.LBE1084:
 5658              		.cfi_endproc
 5659              	.LFE2577:
 5661 01c6 00BF     		.section	.text._Z14update_trackedP6Fingeri,"ax",%progbits
 5662              		.align	1
 5663              		.p2align 2,,3
 5664              		.global	_Z14update_trackedP6Fingeri
 5665              		.syntax unified
 5666              		.thumb
 5667              		.thumb_func
 5669              	_Z14update_trackedP6Fingeri:
 5670              	.LVL442:
 5671              	.LFB2578:
 442:src/main.cpp  ****     bool ra[2]={false,false};
 5672              		.loc 6 442 1 is_stmt 1 view -0
 5673              		.cfi_startproc
 5674              		@ args = 0, pretend = 0, frame = 8
 5675              		@ frame_needed = 0, uses_anonymous_args = 0
 443:src/main.cpp  ****     for(int slot=0;slot<2;slot++){
 5676              		.loc 6 443 5 view .LVU1642
 442:src/main.cpp  ****     bool ra[2]={false,false};
 5677              		.loc 6 442 1 is_stmt 0 view .LVU1643
 5678 0000 2DE9F047 		push	{r4, r5, r6, r7, r8, r9, r10, lr}
 5679              		.cfi_def_cfa_offset 32
 5680              		.cfi_offset 4, -32
 5681              		.cfi_offset 5, -28
 5682              		.cfi_offset 6, -24
 5683              		.cfi_offset 7, -20
ARM GAS  /tmp/claude-502/ccZj3JyB.s 			page 148


 5684              		.cfi_offset 8, -16
 5685              		.cfi_offset 9, -12
 5686              		.cfi_offset 10, -8
 5687              		.cfi_offset 14, -4
 5688 0004 374C     		ldr	r4, .L360
 5689 0006 82B0     		sub	sp, sp, #8
 5690              		.cfi_def_cfa_offset 40
 443:src/main.cpp  ****     for(int slot=0;slot<2;slot++){
 5691              		.loc 6 443 10 view .LVU1644
 5692 0008 0022     		movs	r2, #0
 5693 000a 2346     		mov	r3, r4
 5694 000c 04F12808 		add	r8, r4, #40
 5695 0010 8DF80420 		strb	r2, [sp, #4]
 5696 0014 8DF80520 		strb	r2, [sp, #5]
 444:src/main.cpp  ****         if(!tracked[slot].alive)continue;
 5697              		.loc 6 444 5 is_stmt 1 view .LVU1645
 5698              	.LVL443:
 5699              	.LBB1085:
 444:src/main.cpp  ****         if(!tracked[slot].alive)continue;
 5700              		.loc 6 444 24 view .LVU1646
 5701              	.L342:
 5702              	.LBB1086:
 445:src/main.cpp  ****         int32_t best=MAX_POS_JUMP+1;int br=-1;
 5703              		.loc 6 445 9 view .LVU1647
 5704 0018 1A78     		ldrb	r2, [r3]	@ zero_extendqisi2
 5705 001a 9AB9     		cbnz	r2, .L358
 5706              	.L337:
 5707              	.LBE1086:
 444:src/main.cpp  ****         if(!tracked[slot].alive)continue;
 5708              		.loc 6 444 5 discriminator 2 view .LVU1648
 444:src/main.cpp  ****         if(!tracked[slot].alive)continue;
 5709              		.loc 6 444 24 discriminator 2 view .LVU1649
 5710 001c 1433     		adds	r3, r3, #20
 5711 001e 4345     		cmp	r3, r8
 5712 0020 FAD1     		bne	.L342
 5713              	.LVL444:
 444:src/main.cpp  ****         if(!tracked[slot].alive)continue;
 5714              		.loc 6 444 24 is_stmt 0 discriminator 2 view .LVU1650
 5715              	.LBE1085:
 5716              	.LBB1092:
 458:src/main.cpp  ****         if(ra[r])continue;
 5717              		.loc 6 458 18 is_stmt 1 view .LVU1651
 5718 0022 0029     		cmp	r1, #0
 5719 0024 0BDD     		ble	.L336
 458:src/main.cpp  ****         if(ra[r])continue;
 5720              		.loc 6 458 18 is_stmt 0 view .LVU1652
 5721 0026 01EB8103 		add	r3, r1, r1, lsl #2
 5722 002a 01AA     		add	r2, sp, #4
 5723 002c 00EB8303 		add	r3, r0, r3, lsl #2
 5724              	.LVL445:
 5725              	.L346:
 5726              	.LBB1093:
 459:src/main.cpp  ****         for(int slot=0;slot<2;slot++){
 5727              		.loc 6 459 9 is_stmt 1 view .LVU1653
 5728              	.LBB1094:
 460:src/main.cpp  ****             if(!tracked[slot].alive){
 5729              		.loc 6 460 28 view .LVU1654
ARM GAS  /tmp/claude-502/ccZj3JyB.s 			page 149


 461:src/main.cpp  ****                 tracked[slot]={true,raw[r].pos,raw[r].pressure,raw[r].peak_ch,raw[r].peak_delta};
 5730              		.loc 6 461 13 view .LVU1655
 460:src/main.cpp  ****             if(!tracked[slot].alive){
 5731              		.loc 6 460 9 view .LVU1656
 460:src/main.cpp  ****             if(!tracked[slot].alive){
 5732              		.loc 6 460 28 view .LVU1657
 461:src/main.cpp  ****                 tracked[slot]={true,raw[r].pos,raw[r].pressure,raw[r].peak_ch,raw[r].peak_delta};
 5733              		.loc 6 461 13 view .LVU1658
 5734              	.LBE1094:
 459:src/main.cpp  ****         for(int slot=0;slot<2;slot++){
 5735              		.loc 6 459 16 is_stmt 0 view .LVU1659
 5736 0030 12F8011B 		ldrb	r1, [r2], #1	@ zero_extendqisi2
 5737              	.LVL446:
 459:src/main.cpp  ****         for(int slot=0;slot<2;slot++){
 5738              		.loc 6 459 9 view .LVU1660
 5739 0034 0029     		cmp	r1, #0
 5740 0036 39D0     		beq	.L359
 5741              	.L344:
 5742              	.LVL447:
 459:src/main.cpp  ****         for(int slot=0;slot<2;slot++){
 5743              		.loc 6 459 9 view .LVU1661
 5744              	.LBE1093:
 458:src/main.cpp  ****         if(ra[r])continue;
 5745              		.loc 6 458 5 is_stmt 1 discriminator 2 view .LVU1662
 458:src/main.cpp  ****         if(ra[r])continue;
 5746              		.loc 6 458 18 discriminator 2 view .LVU1663
 5747 0038 1430     		adds	r0, r0, #20
 5748 003a 9842     		cmp	r0, r3
 5749 003c F8D1     		bne	.L346
 5750              	.LVL448:
 5751              	.L336:
 458:src/main.cpp  ****         if(ra[r])continue;
 5752              		.loc 6 458 18 is_stmt 0 discriminator 2 view .LVU1664
 5753              	.LBE1092:
 467:src/main.cpp  **** 
 5754              		.loc 6 467 1 view .LVU1665
 5755 003e 02B0     		add	sp, sp, #8
 5756              		.cfi_remember_state
 5757              		.cfi_def_cfa_offset 32
 5758              		@ sp needed
 5759 0040 BDE8F087 		pop	{r4, r5, r6, r7, r8, r9, r10, pc}
 5760              	.LVL449:
 5761              	.L358:
 5762              		.cfi_restore_state
 5763              	.LBB1097:
 5764              	.LBB1090:
 5765              	.LBB1087:
 447:src/main.cpp  ****             if(ra[r])continue;
 5766              		.loc 6 447 22 is_stmt 1 view .LVU1666
 5767 0044 0029     		cmp	r1, #0
 5768 0046 49DD     		ble	.L338
 5769 0048 01AD     		add	r5, sp, #4
 5770 004a 8446     		mov	ip, r0
 447:src/main.cpp  ****             if(ra[r])continue;
 5771              		.loc 6 447 17 is_stmt 0 view .LVU1667
 5772 004c 0022     		movs	r2, #0
 5773              	.LBE1087:
ARM GAS  /tmp/claude-502/ccZj3JyB.s 			page 150


 446:src/main.cpp  ****         for(int r=0;r<n;r++){
 5774              		.loc 6 446 41 view .LVU1668
 5775 004e 4FF0FF3E 		mov	lr, #-1
 446:src/main.cpp  ****         for(int r=0;r<n;r++){
 5776              		.loc 6 446 17 view .LVU1669
 5777 0052 4FF0C90A 		mov	r10, #201
 5778              	.LVL450:
 5779              	.L341:
 5780              	.LBB1089:
 5781              	.LBB1088:
 448:src/main.cpp  ****             int32_t c=raw[r].pos-tracked[slot].pos;if(c<0)c=-c;
 5782              		.loc 6 448 13 is_stmt 1 view .LVU1670
 449:src/main.cpp  ****             if(c<best){best=c;br=r;}
 5783              		.loc 6 449 13 view .LVU1671
 448:src/main.cpp  ****             int32_t c=raw[r].pos-tracked[slot].pos;if(c<0)c=-c;
 5784              		.loc 6 448 20 is_stmt 0 view .LVU1672
 5785 0056 15F8016B 		ldrb	r6, [r5], #1	@ zero_extendqisi2
 448:src/main.cpp  ****             int32_t c=raw[r].pos-tracked[slot].pos;if(c<0)c=-c;
 5786              		.loc 6 448 13 view .LVU1673
 5787 005a 5EB9     		cbnz	r6, .L339
 449:src/main.cpp  ****             if(c<best){best=c;br=r;}
 5788              		.loc 6 449 59 is_stmt 1 view .LVU1674
 449:src/main.cpp  ****             if(c<best){best=c;br=r;}
 5789              		.loc 6 449 30 is_stmt 0 view .LVU1675
 5790 005c DCF80460 		ldr	r6, [ip, #4]
 449:src/main.cpp  ****             if(c<best){best=c;br=r;}
 5791              		.loc 6 449 48 view .LVU1676
 5792 0060 5F68     		ldr	r7, [r3, #4]
 5793              	.LVL451:
 449:src/main.cpp  ****             if(c<best){best=c;br=r;}
 5794              		.loc 6 449 52 is_stmt 1 view .LVU1677
 5795 0062 B6EB0709 		subs	r9, r6, r7
 5796              	.LVL452:
 449:src/main.cpp  ****             if(c<best){best=c;br=r;}
 5797              		.loc 6 449 60 is_stmt 0 view .LVU1678
 5798 0066 48BF     		it	mi
 5799 0068 A7EB0609 		submi	r9, r7, r6
 5800              	.LVL453:
 450:src/main.cpp  ****         }
 5801              		.loc 6 450 13 is_stmt 1 view .LVU1679
 5802 006c CA45     		cmp	r10, r9
 5803 006e 01DD     		ble	.L339
 5804 0070 9646     		mov	lr, r2
 5805 0072 CA46     		mov	r10, r9
 5806              	.LVL454:
 5807              	.L339:
 450:src/main.cpp  ****         }
 5808              		.loc 6 450 13 is_stmt 0 view .LVU1680
 5809              	.LBE1088:
 447:src/main.cpp  ****             if(ra[r])continue;
 5810              		.loc 6 447 9 is_stmt 1 discriminator 2 view .LVU1681
 5811 0074 0132     		adds	r2, r2, #1
 5812              	.LVL455:
 447:src/main.cpp  ****             if(ra[r])continue;
 5813              		.loc 6 447 22 discriminator 2 view .LVU1682
 5814 0076 0CF1140C 		add	ip, ip, #20
 5815 007a 9142     		cmp	r1, r2
ARM GAS  /tmp/claude-502/ccZj3JyB.s 			page 151


 5816 007c EBD1     		bne	.L341
 5817              	.LBE1089:
 452:src/main.cpp  ****             tracked[slot].pos=raw[br].pos;tracked[slot].pressure=raw[br].pressure;
 5818              		.loc 6 452 9 view .LVU1683
 5819 007e BEF1FF3F 		cmp	lr, #-1
 5820 0082 2BD0     		beq	.L338
 453:src/main.cpp  ****             tracked[slot].peak_ch=raw[br].peak_ch;tracked[slot].peak_delta=raw[br].peak_delta;
 5821              		.loc 6 453 13 view .LVU1684
 453:src/main.cpp  ****             tracked[slot].peak_ch=raw[br].peak_ch;tracked[slot].peak_delta=raw[br].peak_delta;
 5822              		.loc 6 453 37 is_stmt 0 view .LVU1685
 5823 0084 0EEB8E02 		add	r2, lr, lr, lsl #2
 5824              	.LVL456:
 455:src/main.cpp  ****         } else tracked[slot].alive=false;
 5825              		.loc 6 455 19 view .LVU1686
 5826 0088 0EF10805 		add	r5, lr, #8
 453:src/main.cpp  ****             tracked[slot].peak_ch=raw[br].peak_ch;tracked[slot].peak_delta=raw[br].peak_delta;
 5827              		.loc 6 453 37 view .LVU1687
 5828 008c 00EB8202 		add	r2, r0, r2, lsl #2
 455:src/main.cpp  ****         } else tracked[slot].alive=false;
 5829              		.loc 6 455 19 view .LVU1688
 5830 0090 0DEB050E 		add	lr, sp, r5
 5831 0094 0125     		movs	r5, #1
 5832 0096 0EF8045C 		strb	r5, [lr, #-4]
 453:src/main.cpp  ****             tracked[slot].peak_ch=raw[br].peak_ch;tracked[slot].peak_delta=raw[br].peak_delta;
 5833              		.loc 6 453 39 view .LVU1689
 5834 009a 5568     		ldr	r5, [r2, #4]
 453:src/main.cpp  ****             tracked[slot].peak_ch=raw[br].peak_ch;tracked[slot].peak_delta=raw[br].peak_delta;
 5835              		.loc 6 453 30 view .LVU1690
 5836 009c 5D60     		str	r5, [r3, #4]
 453:src/main.cpp  ****             tracked[slot].peak_ch=raw[br].peak_ch;tracked[slot].peak_delta=raw[br].peak_delta;
 5837              		.loc 6 453 43 is_stmt 1 view .LVU1691
 453:src/main.cpp  ****             tracked[slot].peak_ch=raw[br].peak_ch;tracked[slot].peak_delta=raw[br].peak_delta;
 5838              		.loc 6 453 74 is_stmt 0 view .LVU1692
 5839 009e 9568     		ldr	r5, [r2, #8]
 453:src/main.cpp  ****             tracked[slot].peak_ch=raw[br].peak_ch;tracked[slot].peak_delta=raw[br].peak_delta;
 5840              		.loc 6 453 65 view .LVU1693
 5841 00a0 9D60     		str	r5, [r3, #8]
 454:src/main.cpp  ****             ra[br]=true;
 5842              		.loc 6 454 13 is_stmt 1 view .LVU1694
 454:src/main.cpp  ****             ra[br]=true;
 5843              		.loc 6 454 34 is_stmt 0 view .LVU1695
 5844 00a2 D568     		ldr	r5, [r2, #12]
 454:src/main.cpp  ****             ra[br]=true;
 5845              		.loc 6 454 84 view .LVU1696
 5846 00a4 1269     		ldr	r2, [r2, #16]
 454:src/main.cpp  ****             ra[br]=true;
 5847              		.loc 6 454 34 view .LVU1697
 5848 00a6 DD60     		str	r5, [r3, #12]
 454:src/main.cpp  ****             ra[br]=true;
 5849              		.loc 6 454 51 is_stmt 1 view .LVU1698
 454:src/main.cpp  ****             ra[br]=true;
 5850              		.loc 6 454 75 is_stmt 0 view .LVU1699
 5851 00a8 1A61     		str	r2, [r3, #16]
 455:src/main.cpp  ****         } else tracked[slot].alive=false;
 5852              		.loc 6 455 13 is_stmt 1 view .LVU1700
 5853 00aa B7E7     		b	.L337
 5854              	.LVL457:
ARM GAS  /tmp/claude-502/ccZj3JyB.s 			page 152


 5855              	.L359:
 455:src/main.cpp  ****         } else tracked[slot].alive=false;
 5856              		.loc 6 455 13 is_stmt 0 view .LVU1701
 5857              	.LBE1090:
 5858              	.LBE1097:
 5859              	.LBB1098:
 5860              	.LBB1096:
 5861              	.LBB1095:
 461:src/main.cpp  ****                 tracked[slot]={true,raw[r].pos,raw[r].pressure,raw[r].peak_ch,raw[r].peak_delta};
 5862              		.loc 6 461 13 view .LVU1702
 5863 00ac 2178     		ldrb	r1, [r4]	@ zero_extendqisi2
 5864 00ae 19B1     		cbz	r1, .L345
 5865 00b0 217D     		ldrb	r1, [r4, #20]	@ zero_extendqisi2
 5866 00b2 0029     		cmp	r1, #0
 5867 00b4 C0D1     		bne	.L344
 460:src/main.cpp  ****             if(!tracked[slot].alive){
 5868              		.loc 6 460 9 view .LVU1703
 5869 00b6 0121     		movs	r1, #1
 5870              	.L345:
 462:src/main.cpp  ****                 ra[r]=true;break;
 5871              		.loc 6 462 17 is_stmt 1 view .LVU1704
 462:src/main.cpp  ****                 ra[r]=true;break;
 5872              		.loc 6 462 30 is_stmt 0 view .LVU1705
 5873 00b8 01EB8101 		add	r1, r1, r1, lsl #2
 462:src/main.cpp  ****                 ra[r]=true;break;
 5874              		.loc 6 462 86 view .LVU1706
 5875 00bc 0769     		ldr	r7, [r0, #16]
 462:src/main.cpp  ****                 ra[r]=true;break;
 5876              		.loc 6 462 30 view .LVU1707
 5877 00be 4668     		ldr	r6, [r0, #4]
 5878 00c0 04EB8105 		add	r5, r4, r1, lsl #2
 462:src/main.cpp  ****                 ra[r]=true;break;
 5879              		.loc 6 462 71 view .LVU1708
 5880 00c4 D0E902EC 		ldrd	lr, ip, [r0, #8]
 462:src/main.cpp  ****                 ra[r]=true;break;
 5881              		.loc 6 462 30 view .LVU1709
 5882 00c8 C5E9016E 		strd	r6, lr, [r5, #4]
 5883 00cc C5E903C7 		strd	ip, r7, [r5, #12]
 463:src/main.cpp  ****             }
 5884              		.loc 6 463 17 is_stmt 1 view .LVU1710
 462:src/main.cpp  ****                 ra[r]=true;break;
 5885              		.loc 6 462 30 is_stmt 0 view .LVU1711
 5886 00d0 0125     		movs	r5, #1
 5887 00d2 04F82150 		strb	r5, [r4, r1, lsl #2]
 463:src/main.cpp  ****             }
 5888              		.loc 6 463 22 view .LVU1712
 5889 00d6 02F8015C 		strb	r5, [r2, #-1]
 463:src/main.cpp  ****             }
 5890              		.loc 6 463 28 is_stmt 1 view .LVU1713
 5891 00da ADE7     		b	.L344
 5892              	.LVL458:
 5893              	.L338:
 463:src/main.cpp  ****             }
 5894              		.loc 6 463 28 is_stmt 0 view .LVU1714
 5895              	.LBE1095:
 5896              	.LBE1096:
 5897              	.LBE1098:
ARM GAS  /tmp/claude-502/ccZj3JyB.s 			page 153


 5898              	.LBB1099:
 5899              	.LBB1091:
 452:src/main.cpp  ****             tracked[slot].pos=raw[br].pos;tracked[slot].pressure=raw[br].pressure;
 5900              		.loc 6 452 9 is_stmt 1 view .LVU1715
 456:src/main.cpp  ****     }
 5901              		.loc 6 456 16 view .LVU1716
 456:src/main.cpp  ****     }
 5902              		.loc 6 456 35 is_stmt 0 view .LVU1717
 5903 00dc 0022     		movs	r2, #0
 5904 00de 1A70     		strb	r2, [r3]
 5905 00e0 9CE7     		b	.L337
 5906              	.L361:
 5907 00e2 00BF     		.align	2
 5908              	.L360:
 5909 00e4 00000000 		.word	.LANCHOR43
 5910              	.LBE1091:
 5911              	.LBE1099:
 5912              		.cfi_endproc
 5913              	.LFE2578:
 5915              		.section	.text._Z13quantize_midif,"ax",%progbits
 5916              		.align	1
 5917              		.p2align 2,,3
 5918              		.global	_Z13quantize_midif
 5919              		.syntax unified
 5920              		.thumb
 5921              		.thumb_func
 5923              	_Z13quantize_midif:
 5924              	.LVL459:
 5925              	.LFB2581:
 486:src/main.cpp  ****     int root = (int)midi;
 5926              		.loc 6 486 1 is_stmt 1 view -0
 5927              		.cfi_startproc
 5928              		@ args = 0, pretend = 0, frame = 0
 5929              		@ frame_needed = 0, uses_anonymous_args = 0
 487:src/main.cpp  ****     int pc   = root % 12;
 5930              		.loc 6 487 5 view .LVU1719
 487:src/main.cpp  ****     int pc   = root % 12;
 5931              		.loc 6 487 9 is_stmt 0 view .LVU1720
 5932 0000 FDEEC07A 		vcvt.s32.f32	s15, s0
 488:src/main.cpp  ****     int oct  = root / 12;
 5933              		.loc 6 488 9 view .LVU1721
 5934 0004 1B4B     		ldr	r3, .L370
 5935 0006 1C49     		ldr	r1, .L370+4
 489:src/main.cpp  ****     // find nearest scale degree
 5936              		.loc 6 489 9 view .LVU1722
 5937 0008 0022     		movs	r2, #0
 486:src/main.cpp  ****     int root = (int)midi;
 5938              		.loc 6 486 1 view .LVU1723
 5939 000a F0B5     		push	{r4, r5, r6, r7, lr}
 5940              		.cfi_def_cfa_offset 20
 5941              		.cfi_offset 4, -20
 5942              		.cfi_offset 5, -16
 5943              		.cfi_offset 6, -12
 5944              		.cfi_offset 7, -8
 5945              		.cfi_offset 14, -4
 487:src/main.cpp  ****     int pc   = root % 12;
 5946              		.loc 6 487 9 view .LVU1724
ARM GAS  /tmp/claude-502/ccZj3JyB.s 			page 154


 5947 000c 17EE906A 		vmov	r6, s15	@ int
 5948              	.LVL460:
 488:src/main.cpp  ****     int oct  = root / 12;
 5949              		.loc 6 488 5 is_stmt 1 view .LVU1725
 5950 0010 01F12C04 		add	r4, r1, #44
 491:src/main.cpp  ****     for(int i=0;i<SCALE_LEN;i++){
 5951              		.loc 6 491 21 is_stmt 0 view .LVU1726
 5952 0014 4FF07F0E 		mov	lr, #127
 491:src/main.cpp  ****     for(int i=0;i<SCALE_LEN;i++){
 5953              		.loc 6 491 9 view .LVU1727
 5954 0018 1546     		mov	r5, r2
 488:src/main.cpp  ****     int oct  = root / 12;
 5955              		.loc 6 488 9 view .LVU1728
 5956 001a 83FB0603 		smull	r0, r3, r3, r6
 5957 001e F017     		asrs	r0, r6, #31
 5958 0020 C0EB6300 		rsb	r0, r0, r3, asr #1
 5959 0024 0746     		mov	r7, r0
 5960 0026 00EB4000 		add	r0, r0, r0, lsl #1
 5961 002a A6EB8000 		sub	r0, r6, r0, lsl #2
 5962              	.LVL461:
 489:src/main.cpp  ****     // find nearest scale degree
 5963              		.loc 6 489 5 is_stmt 1 view .LVU1729
 491:src/main.cpp  ****     for(int i=0;i<SCALE_LEN;i++){
 5964              		.loc 6 491 5 view .LVU1730
 492:src/main.cpp  ****         int d=SCALE[i]-pc; if(d<0)d=-d;
 5965              		.loc 6 492 5 view .LVU1731
 5966              	.LBB1100:
 492:src/main.cpp  ****         int d=SCALE[i]-pc; if(d<0)d=-d;
 5967              		.loc 6 492 18 view .LVU1732
 5968 002e 01E0     		b	.L366
 5969              	.LVL462:
 5970              	.L369:
 5971              	.LBB1101:
 493:src/main.cpp  ****         int d2=12-d; if(d2<d)d=d2;
 5972              		.loc 6 493 22 is_stmt 0 view .LVU1733
 5973 0030 51F8042F 		ldr	r2, [r1, #4]!
 5974              	.LVL463:
 5975              	.L366:
 493:src/main.cpp  ****         int d2=12-d; if(d2<d)d=d2;
 5976              		.loc 6 493 9 is_stmt 1 view .LVU1734
 493:src/main.cpp  ****         int d2=12-d; if(d2<d)d=d2;
 5977              		.loc 6 493 28 view .LVU1735
 493:src/main.cpp  ****         int d2=12-d; if(d2<d)d=d2;
 5978              		.loc 6 493 35 view .LVU1736
 493:src/main.cpp  ****         int d2=12-d; if(d2<d)d=d2;
 5979              		.loc 6 493 28 is_stmt 0 view .LVU1737
 5980 0034 131A     		subs	r3, r2, r0
 5981              	.LVL464:
 493:src/main.cpp  ****         int d2=12-d; if(d2<d)d=d2;
 5982              		.loc 6 493 36 view .LVU1738
 5983 0036 48BF     		it	mi
 5984 0038 831A     		submi	r3, r0, r2
 5985              	.LVL465:
 494:src/main.cpp  ****         if(d<best_dist){best_dist=d;best_deg=SCALE[i];}
 5986              		.loc 6 494 9 is_stmt 1 view .LVU1739
 494:src/main.cpp  ****         if(d<best_dist){best_dist=d;best_deg=SCALE[i];}
 5987              		.loc 6 494 13 is_stmt 0 view .LVU1740
ARM GAS  /tmp/claude-502/ccZj3JyB.s 			page 155


 5988 003a C3F10C0C 		rsb	ip, r3, #12
 5989              	.LVL466:
 494:src/main.cpp  ****         if(d<best_dist){best_dist=d;best_deg=SCALE[i];}
 5990              		.loc 6 494 22 is_stmt 1 view .LVU1741
 5991 003e 6345     		cmp	r3, ip
 5992 0040 A8BF     		it	ge
 5993 0042 6346     		movge	r3, ip
 5994              	.LVL467:
 495:src/main.cpp  ****     }
 5995              		.loc 6 495 9 view .LVU1742
 5996 0044 7345     		cmp	r3, lr
 5997 0046 01DA     		bge	.L364
 495:src/main.cpp  ****     }
 5998              		.loc 6 495 45 is_stmt 0 view .LVU1743
 5999 0048 1546     		mov	r5, r2
 495:src/main.cpp  ****     }
 6000              		.loc 6 495 9 view .LVU1744
 6001 004a 9E46     		mov	lr, r3
 6002              	.LVL468:
 6003              	.L364:
 495:src/main.cpp  ****     }
 6004              		.loc 6 495 9 view .LVU1745
 6005              	.LBE1101:
 492:src/main.cpp  ****         int d=SCALE[i]-pc; if(d<0)d=-d;
 6006              		.loc 6 492 5 is_stmt 1 discriminator 2 view .LVU1746
 492:src/main.cpp  ****         int d=SCALE[i]-pc; if(d<0)d=-d;
 6007              		.loc 6 492 18 discriminator 2 view .LVU1747
 6008 004c A142     		cmp	r1, r4
 6009 004e EFD1     		bne	.L369
 6010              	.LBE1100:
 497:src/main.cpp  ****     // fractional semitone from the quantized note (for slide expression)
 6011              		.loc 6 497 5 view .LVU1748
 6012              	.LVL469:
 499:src/main.cpp  ****     return q+frac;
 6013              		.loc 6 499 5 view .LVU1749
 500:src/main.cpp  **** }
 6014              		.loc 6 500 5 view .LVU1750
 499:src/main.cpp  ****     return q+frac;
 6015              		.loc 6 499 21 is_stmt 0 view .LVU1751
 6016 0050 07EE906A 		vmov	s15, r6	@ int
 497:src/main.cpp  ****     // fractional semitone from the quantized note (for slide expression)
 6017              		.loc 6 497 24 view .LVU1752
 6018 0054 07EB4707 		add	r7, r7, r7, lsl #1
 6019              	.LVL470:
 499:src/main.cpp  ****     return q+frac;
 6020              		.loc 6 499 21 view .LVU1753
 6021 0058 F8EEE77A 		vcvt.f32.s32	s15, s15
 497:src/main.cpp  ****     // fractional semitone from the quantized note (for slide expression)
 6022              		.loc 6 497 27 view .LVU1754
 6023 005c 05EB8705 		add	r5, r5, r7, lsl #2
 6024              	.LVL471:
 499:src/main.cpp  ****     return q+frac;
 6025              		.loc 6 499 11 view .LVU1755
 6026 0060 30EE670A 		vsub.f32	s0, s0, s15
 6027              	.LVL472:
 497:src/main.cpp  ****     // fractional semitone from the quantized note (for slide expression)
 6028              		.loc 6 497 11 view .LVU1756
ARM GAS  /tmp/claude-502/ccZj3JyB.s 			page 156


 6029 0064 07EE905A 		vmov	s15, r5	@ int
 6030 0068 F8EEE77A 		vcvt.f32.s32	s15, s15
 501:src/main.cpp  **** 
 6031              		.loc 6 501 1 view .LVU1757
 6032 006c 37EE800A 		vadd.f32	s0, s15, s0
 6033              	.LVL473:
 501:src/main.cpp  **** 
 6034              		.loc 6 501 1 view .LVU1758
 6035 0070 F0BD     		pop	{r4, r5, r6, r7, pc}
 6036              	.LVL474:
 6037              	.L371:
 501:src/main.cpp  **** 
 6038              		.loc 6 501 1 view .LVU1759
 6039 0072 00BF     		.align	2
 6040              	.L370:
 6041 0074 ABAAAA2A 		.word	715827883
 6042 0078 00000000 		.word	.LANCHOR44
 6043              		.cfi_endproc
 6044              	.LFE2581:
 6046              		.section	.text._Z8make_barPclli,"ax",%progbits
 6047              		.align	1
 6048              		.p2align 2,,3
 6049              		.global	_Z8make_barPclli
 6050              		.syntax unified
 6051              		.thumb
 6052              		.thumb_func
 6054              	_Z8make_barPclli:
 6055              	.LVL475:
 6056              	.LFB2591:
 796:src/main.cpp  **** 
 797:src/main.cpp  **** // ŌöĆŌöĆ Bar helpers ŌöĆŌöĆŌöĆŌöĆŌöĆŌöĆŌöĆŌöĆŌöĆŌöĆŌöĆŌöĆŌöĆŌöĆŌöĆŌöĆŌöĆŌöĆŌöĆŌöĆŌöĆŌöĆŌöĆŌöĆŌöĆŌö
 798:src/main.cpp  **** void make_bar(char* out,int32_t val,int32_t max,int w)
 799:src/main.cpp  **** {
 6057              		.loc 6 799 1 is_stmt 1 view -0
 6058              		.cfi_startproc
 6059              		@ args = 0, pretend = 0, frame = 0
 6060              		@ frame_needed = 0, uses_anonymous_args = 0
 800:src/main.cpp  ****     int n=(max>0&&val>0)?(int)((val*w+max/2)/max):0;
 6061              		.loc 6 800 5 view .LVU1761
 6062              		.loc 6 800 25 is_stmt 0 view .LVU1762
 6063 0000 002A     		cmp	r2, #0
 799:src/main.cpp  ****     int n=(max>0&&val>0)?(int)((val*w+max/2)/max):0;
 6064              		.loc 6 799 1 view .LVU1763
 6065 0002 10B5     		push	{r4, lr}
 6066              		.cfi_def_cfa_offset 8
 6067              		.cfi_offset 4, -8
 6068              		.cfi_offset 14, -4
 6069              		.loc 6 800 25 view .LVU1764
 6070 0004 23DD     		ble	.L377
 6071 0006 0029     		cmp	r1, #0
 6072 0008 21DD     		ble	.L377
 6073              		.loc 6 800 42 discriminator 1 view .LVU1765
 6074 000a 4FEA620E 		asr	lr, r2, #1
 6075              		.loc 6 800 38 discriminator 1 view .LVU1766
 6076 000e 03FB01E1 		mla	r1, r3, r1, lr
 6077              	.LVL476:
 6078              		.loc 6 800 25 discriminator 1 view .LVU1767
ARM GAS  /tmp/claude-502/ccZj3JyB.s 			page 157


 6079 0012 91FBF2FC 		sdiv	ip, r1, r2
 6080              	.L373:
 6081              	.LVL477:
 801:src/main.cpp  ****     if(n>w)n=w;
 6082              		.loc 6 801 5 is_stmt 1 discriminator 4 view .LVU1768
 6083 0016 9C45     		cmp	ip, r3
 802:src/main.cpp  ****     out[0]='[';
 6084              		.loc 6 802 11 is_stmt 0 discriminator 4 view .LVU1769
 6085 0018 4FF05B02 		mov	r2, #91
 6086              	.LVL478:
 6087              		.loc 6 802 11 discriminator 4 view .LVU1770
 6088 001c A8BF     		it	ge
 6089 001e 9C46     		movge	ip, r3
 6090              	.LVL479:
 6091              		.loc 6 802 5 is_stmt 1 discriminator 4 view .LVU1771
 6092              	.LBB1103:
 803:src/main.cpp  ****     for(int i=0;i<w;i++)out[1+i]=(i<n)?'#':' ';
 6093              		.loc 6 803 18 is_stmt 0 discriminator 4 view .LVU1772
 6094 0020 002B     		cmp	r3, #0
 6095              	.LBE1103:
 802:src/main.cpp  ****     out[0]='[';
 6096              		.loc 6 802 11 discriminator 4 view .LVU1773
 6097 0022 0270     		strb	r2, [r0]
 6098              		.loc 6 803 5 is_stmt 1 discriminator 4 view .LVU1774
 6099              	.LVL480:
 6100              	.LBB1104:
 6101              		.loc 6 803 18 discriminator 4 view .LVU1775
 6102 0024 0DDD     		ble	.L374
 6103 0026 421C     		adds	r2, r0, #1
 6104 0028 6FEA000E 		mvn	lr, r0
 6105 002c D418     		adds	r4, r2, r3
 6106              	.LVL481:
 6107              	.L376:
 6108              		.loc 6 803 25 discriminator 2 view .LVU1776
 6109              		.loc 6 803 39 is_stmt 0 discriminator 2 view .LVU1777
 6110 002e 0EEB0201 		add	r1, lr, r2
 6111 0032 8C45     		cmp	ip, r1
 6112 0034 D4BF     		ite	le
 6113 0036 2021     		movle	r1, #32
 6114 0038 2321     		movgt	r1, #35
 6115              		.loc 6 803 33 discriminator 2 view .LVU1778
 6116 003a 02F8011B 		strb	r1, [r2], #1
 6117              		.loc 6 803 5 is_stmt 1 discriminator 2 view .LVU1779
 6118              		.loc 6 803 18 discriminator 2 view .LVU1780
 6119 003e A242     		cmp	r2, r4
 6120 0040 F5D1     		bne	.L376
 6121              	.L374:
 6122              		.loc 6 803 18 is_stmt 0 discriminator 2 view .LVU1781
 6123              	.LBE1104:
 804:src/main.cpp  ****     out[1+w]=']';out[2+w]='\0';
 6124              		.loc 6 804 5 is_stmt 1 view .LVU1782
 6125              		.loc 6 804 13 is_stmt 0 view .LVU1783
 6126 0042 1844     		add	r0, r0, r3
 6127              	.LVL482:
 6128              		.loc 6 804 13 view .LVU1784
 6129 0044 5D22     		movs	r2, #93
 6130              		.loc 6 804 26 view .LVU1785
ARM GAS  /tmp/claude-502/ccZj3JyB.s 			page 158


 6131 0046 0023     		movs	r3, #0
 6132              	.LVL483:
 6133              		.loc 6 804 13 view .LVU1786
 6134 0048 4270     		strb	r2, [r0, #1]
 6135              		.loc 6 804 18 is_stmt 1 view .LVU1787
 6136              		.loc 6 804 26 is_stmt 0 view .LVU1788
 6137 004a 8370     		strb	r3, [r0, #2]
 805:src/main.cpp  **** }
 6138              		.loc 6 805 1 view .LVU1789
 6139 004c 10BD     		pop	{r4, pc}
 6140              	.LVL484:
 6141              	.L377:
 800:src/main.cpp  ****     if(n>w)n=w;
 6142              		.loc 6 800 25 view .LVU1790
 6143 004e 4FF0000C 		mov	ip, #0
 6144 0052 E0E7     		b	.L373
 6145              		.cfi_endproc
 6146              	.LFE2591:
 6148              		.global	__aeabi_ldivmod
 6149              		.section	.text._Z12make_pos_barPci,"ax",%progbits
 6150              		.align	1
 6151              		.p2align 2,,3
 6152              		.global	_Z12make_pos_barPci
 6153              		.syntax unified
 6154              		.thumb
 6155              		.thumb_func
 6157              	_Z12make_pos_barPci:
 6158              	.LVL485:
 6159              	.LFB2592:
 806:src/main.cpp  **** 
 807:src/main.cpp  **** void make_pos_bar(char* out,int w)
 808:src/main.cpp  **** {
 6160              		.loc 6 808 1 is_stmt 1 view -0
 6161              		.cfi_startproc
 6162              		@ args = 0, pretend = 0, frame = 0
 6163              		@ frame_needed = 0, uses_anonymous_args = 0
 809:src/main.cpp  ****     out[0]='|';
 6164              		.loc 6 809 5 view .LVU1792
 808:src/main.cpp  ****     out[0]='|';
 6165              		.loc 6 808 1 is_stmt 0 view .LVU1793
 6166 0000 70B5     		push	{r4, r5, r6, lr}
 6167              		.cfi_def_cfa_offset 16
 6168              		.cfi_offset 4, -16
 6169              		.cfi_offset 5, -12
 6170              		.cfi_offset 6, -8
 6171              		.cfi_offset 14, -4
 6172              		.loc 6 809 11 view .LVU1794
 6173 0002 7C23     		movs	r3, #124
 6174              	.LBB1108:
 810:src/main.cpp  ****     for(int i=0;i<w;i++)out[1+i]='-';
 6175              		.loc 6 810 18 view .LVU1795
 6176 0004 0C1E     		subs	r4, r1, #0
 6177              	.LBE1108:
 808:src/main.cpp  ****     out[0]='|';
 6178              		.loc 6 808 1 view .LVU1796
 6179 0006 0546     		mov	r5, r0
 809:src/main.cpp  ****     out[0]='|';
ARM GAS  /tmp/claude-502/ccZj3JyB.s 			page 159


 6180              		.loc 6 809 11 view .LVU1797
 6181 0008 0370     		strb	r3, [r0]
 6182              		.loc 6 810 5 is_stmt 1 view .LVU1798
 6183              	.LVL486:
 6184              	.LBB1109:
 6185              		.loc 6 810 18 view .LVU1799
 6186 000a 04DD     		ble	.L391
 6187              		.loc 6 810 33 is_stmt 0 view .LVU1800
 6188 000c 2246     		mov	r2, r4
 6189 000e 2D21     		movs	r1, #45
 6190              	.LVL487:
 6191              		.loc 6 810 33 view .LVU1801
 6192 0010 0130     		adds	r0, r0, #1
 6193              	.LVL488:
 6194              		.loc 6 810 33 view .LVU1802
 6195 0012 FFF7FEFF 		bl	memset
 6196              	.LVL489:
 6197              	.L391:
 6198              		.loc 6 810 33 view .LVU1803
 6199              	.LBE1109:
 811:src/main.cpp  ****     out[1+w]='|';out[2+w]='\0';
 6200              		.loc 6 811 5 is_stmt 1 view .LVU1804
 6201              		.loc 6 811 13 is_stmt 0 view .LVU1805
 6202 0016 2B19     		adds	r3, r5, r4
 6203 0018 7C22     		movs	r2, #124
 6204              		.loc 6 811 26 view .LVU1806
 6205 001a 0021     		movs	r1, #0
 6206              	.LBB1110:
 6207              	.LBB1111:
 812:src/main.cpp  ****     for(int slot=0;slot<2;slot++){
 813:src/main.cpp  ****         if(!tracked[slot].alive)continue;
 6208              		.loc 6 813 27 view .LVU1807
 6209 001c 164E     		ldr	r6, .L400
 6210              	.LBE1111:
 6211              	.LBE1110:
 811:src/main.cpp  ****     out[1+w]='|';out[2+w]='\0';
 6212              		.loc 6 811 13 view .LVU1808
 6213 001e 5A70     		strb	r2, [r3, #1]
 811:src/main.cpp  ****     out[1+w]='|';out[2+w]='\0';
 6214              		.loc 6 811 18 is_stmt 1 view .LVU1809
 811:src/main.cpp  ****     out[1+w]='|';out[2+w]='\0';
 6215              		.loc 6 811 26 is_stmt 0 view .LVU1810
 6216 0020 9970     		strb	r1, [r3, #2]
 812:src/main.cpp  ****     for(int slot=0;slot<2;slot++){
 6217              		.loc 6 812 5 is_stmt 1 view .LVU1811
 6218              	.LVL490:
 6219              	.LBB1114:
 812:src/main.cpp  ****     for(int slot=0;slot<2;slot++){
 6220              		.loc 6 812 24 view .LVU1812
 6221              	.LBB1112:
 6222              		.loc 6 813 9 view .LVU1813
 6223 0022 3378     		ldrb	r3, [r6]	@ zero_extendqisi2
 6224 0024 93B1     		cbz	r3, .L390
 814:src/main.cpp  ****         int p=(int)(((int64_t)tracked[slot].pos*(w-1)+500)/1000);
 6225              		.loc 6 814 9 view .LVU1814
 6226              		.loc 6 814 54 is_stmt 0 view .LVU1815
 6227 0026 7268     		ldr	r2, [r6, #4]
ARM GAS  /tmp/claude-502/ccZj3JyB.s 			page 160


 6228              		.loc 6 814 51 view .LVU1816
 6229 0028 631E     		subs	r3, r4, #1
 6230              		.loc 6 814 54 view .LVU1817
 6231 002a 4FF4FA70 		mov	r0, #500
 6232              		.loc 6 814 59 view .LVU1818
 6233 002e C2FB0301 		smlal	r0, r1, r2, r3
 6234 0032 0023     		movs	r3, #0
 6235 0034 4FF47A72 		mov	r2, #1000
 6236 0038 FFF7FEFF 		bl	__aeabi_ldivmod
 6237              	.LVL491:
 815:src/main.cpp  ****         if(p<0)p=0;if(p>=w)p=w-1;
 6238              		.loc 6 815 9 is_stmt 1 view .LVU1819
 6239 003c 20EAE070 		bic	r0, r0, r0, asr #31
 6240              	.LVL492:
 6241              		.loc 6 815 20 view .LVU1820
 816:src/main.cpp  ****         out[1+p]=(char)('1'+slot);
 6242              		.loc 6 816 17 is_stmt 0 view .LVU1821
 6243 0040 3123     		movs	r3, #49
 815:src/main.cpp  ****         if(p<0)p=0;if(p>=w)p=w-1;
 6244              		.loc 6 815 20 view .LVU1822
 6245 0042 8442     		cmp	r4, r0
 6246              		.loc 6 816 14 view .LVU1823
 6247 0044 CCBF     		ite	gt
 6248 0046 0130     		addgt	r0, r0, #1
 6249              	.LVL493:
 815:src/main.cpp  ****         if(p<0)p=0;if(p>=w)p=w-1;
 6250              		.loc 6 815 20 view .LVU1824
 6251 0048 2046     		movle	r0, r4
 6252              		.loc 6 816 9 is_stmt 1 view .LVU1825
 6253              		.loc 6 816 17 is_stmt 0 view .LVU1826
 6254 004a 2B54     		strb	r3, [r5, r0]
 6255              	.L390:
 6256              	.LBE1112:
 812:src/main.cpp  ****         if(!tracked[slot].alive)continue;
 6257              		.loc 6 812 5 is_stmt 1 view .LVU1827
 6258              	.LVL494:
 812:src/main.cpp  ****         if(!tracked[slot].alive)continue;
 6259              		.loc 6 812 24 view .LVU1828
 6260              	.LBB1113:
 813:src/main.cpp  ****         int p=(int)(((int64_t)tracked[slot].pos*(w-1)+500)/1000);
 6261              		.loc 6 813 9 view .LVU1829
 6262 004c 337D     		ldrb	r3, [r6, #20]	@ zero_extendqisi2
 6263 004e 93B1     		cbz	r3, .L387
 814:src/main.cpp  ****         if(p<0)p=0;if(p>=w)p=w-1;
 6264              		.loc 6 814 9 view .LVU1830
 814:src/main.cpp  ****         if(p<0)p=0;if(p>=w)p=w-1;
 6265              		.loc 6 814 51 is_stmt 0 view .LVU1831
 6266 0050 631E     		subs	r3, r4, #1
 814:src/main.cpp  ****         if(p<0)p=0;if(p>=w)p=w-1;
 6267              		.loc 6 814 54 view .LVU1832
 6268 0052 B269     		ldr	r2, [r6, #24]
 6269 0054 4FF4FA70 		mov	r0, #500
 6270 0058 0021     		movs	r1, #0
 814:src/main.cpp  ****         if(p<0)p=0;if(p>=w)p=w-1;
 6271              		.loc 6 814 59 view .LVU1833
 6272 005a C2FB0301 		smlal	r0, r1, r2, r3
 6273 005e 0023     		movs	r3, #0
ARM GAS  /tmp/claude-502/ccZj3JyB.s 			page 161


 6274 0060 4FF47A72 		mov	r2, #1000
 6275 0064 FFF7FEFF 		bl	__aeabi_ldivmod
 6276              	.LVL495:
 815:src/main.cpp  ****         out[1+p]=(char)('1'+slot);
 6277              		.loc 6 815 9 is_stmt 1 view .LVU1834
 6278 0068 20EAE070 		bic	r0, r0, r0, asr #31
 6279              	.LVL496:
 815:src/main.cpp  ****         out[1+p]=(char)('1'+slot);
 6280              		.loc 6 815 20 view .LVU1835
 6281              		.loc 6 816 17 is_stmt 0 view .LVU1836
 6282 006c 3223     		movs	r3, #50
 815:src/main.cpp  ****         out[1+p]=(char)('1'+slot);
 6283              		.loc 6 815 20 view .LVU1837
 6284 006e 8442     		cmp	r4, r0
 6285              		.loc 6 816 14 view .LVU1838
 6286 0070 C8BF     		it	gt
 6287 0072 441C     		addgt	r4, r0, #1
 6288              	.LVL497:
 6289              		.loc 6 816 9 is_stmt 1 view .LVU1839
 6290              		.loc 6 816 17 is_stmt 0 view .LVU1840
 6291 0074 2B55     		strb	r3, [r5, r4]
 6292              	.LBE1113:
 812:src/main.cpp  ****         if(!tracked[slot].alive)continue;
 6293              		.loc 6 812 5 is_stmt 1 view .LVU1841
 6294              	.LVL498:
 812:src/main.cpp  ****         if(!tracked[slot].alive)continue;
 6295              		.loc 6 812 24 view .LVU1842
 6296              	.L387:
 812:src/main.cpp  ****         if(!tracked[slot].alive)continue;
 6297              		.loc 6 812 24 is_stmt 0 view .LVU1843
 6298              	.LBE1114:
 817:src/main.cpp  ****     }
 818:src/main.cpp  **** }
 6299              		.loc 6 818 1 view .LVU1844
 6300 0076 70BD     		pop	{r4, r5, r6, pc}
 6301              	.LVL499:
 6302              	.L401:
 6303              		.loc 6 818 1 view .LVU1845
 6304              		.align	2
 6305              	.L400:
 6306 0078 00000000 		.word	.LANCHOR43
 6307              		.cfi_endproc
 6308              	.LFE2592:
 6310              		.section	.rodata.main.str1.4,"aMS",%progbits,1
 6311              		.align	2
 6312              	.LC0:
 6313 0000 476C6173 		.ascii	"Glass Moog Synth\000"
 6313      73204D6F 
 6313      6F672053 
 6313      796E7468 
 6313      00
 6314 0011 000000   		.align	2
 6315              	.LC1:
 6316 0014 3D3D3D3D 		.ascii	"================\000"
 6316      3D3D3D3D 
 6316      3D3D3D3D 
 6316      3D3D3D3D 
ARM GAS  /tmp/claude-502/ccZj3JyB.s 			page 162


 6316      00
 6317 0025 000000   		.align	2
 6318              	.LC2:
 6319 0028 566F6963 		.ascii	"Voice %d/%d: %s  (%d-%dHz)\000"
 6319      65202564 
 6319      2F25643A 
 6319      20257320 
 6319      20282564 
 6320 0043 00       		.align	2
 6321              	.LC3:
 6322 0044 46312070 		.ascii	"F1 pos=pitch  F1 prs=cutoff+vibrato\000"
 6322      6F733D70 
 6322      69746368 
 6322      20204631 
 6322      20707273 
 6323              		.align	2
 6324              	.LC4:
 6325 0068 46322070 		.ascii	"F2 pos=detune F2 prs=wavefold+ringmod\000"
 6325      6F733D64 
 6325      6574756E 
 6325      65204632 
 6325      20707273 
 6326 008e 0000     		.align	2
 6327              	.LC5:
 6328 0090 46322070 		.ascii	"F2 prs=wavefold+ringmod (osc2=fixed)\000"
 6328      72733D77 
 6328      61766566 
 6328      6F6C642B 
 6328      72696E67 
 6329 00b5 000000   		.align	2
 6330              	.LC6:
 6331 00b8 486F6C64 		.ascii	"Hold FSR pressed 5s to change voice (then every 2s)"
 6331      20465352 
 6331      20707265 
 6331      73736564 
 6331      20357320 
 6332 00eb 00       		.ascii	"\000"
 6333              		.align	2
 6334              	.LC7:
 6335 00ec 4D505231 		.ascii	"MPR121 OK \342\200\224 baseline captured\000"
 6335      3231204F 
 6335      4B20E280 
 6335      94206261 
 6335      73656C69 
 6336              		.align	2
 6337              	.LC8:
 6338 010c 52656164 		.ascii	"Ready.\012\000"
 6338      792E0A00 
 6339              		.align	2
 6340              	.LC9:
 6341 0114 5B766F69 		.ascii	"[voice %d/%d] %s\000"
 6341      63652025 
 6341      642F2564 
 6341      5D202573 
 6341      00
 6342 0125 000000   		.align	2
 6343              	.LC10:
ARM GAS  /tmp/claude-502/ccZj3JyB.s 			page 163


 6344 0128 5B726562 		.ascii	"[rebaseline]\000"
 6344      6173656C 
 6344      696E655D 
 6344      00
 6345 0135 000000   		.align	2
 6346              	.LC11:
 6347 0138 5B667372 		.ascii	"[fsr recal] fsr_max=%d\000"
 6347      20726563 
 6347      616C5D20 
 6347      6673725F 
 6347      6D61783D 
 6348 014f 00       		.align	2
 6349              	.LC12:
 6350 0150 20434820 		.ascii	" CH | DELTA | BAR\000"
 6350      7C204445 
 6350      4C544120 
 6350      7C204241 
 6350      5200
 6351 0162 0000     		.align	2
 6352              	.LC13:
 6353 0164 2D2D2D2D 		.ascii	"----+-------+--------------------\000"
 6353      2B2D2D2D 
 6353      2D2D2D2D 
 6353      2B2D2D2D 
 6353      2D2D2D2D 
 6354 0186 0000     		.align	2
 6355              	.LC14:
 6356 0188 20253264 		.ascii	" %2d | %5d | %s %c\000"
 6356      207C2025 
 6356      3564207C 
 6356      20257320 
 6356      256300
 6357 019b 00       		.align	2
 6358              	.LC15:
 6359 019c 0A504F53 		.ascii	"\012POS  %s\000"
 6359      20202573 
 6359      00
 6360 01a5 000000   		.align	2
 6361              	.LC16:
 6362 01a8 20202564 		.ascii	"  %d  pos:%4d  prs:%3d%%  %s\000"
 6362      2020706F 
 6362      733A2534 
 6362      64202070 
 6362      72733A25 
 6363 01c5 000000   		.align	2
 6364              	.LC17:
 6365 01c8 20202564 		.ascii	"  %d  pos: ---  prs: --%%  [                ]\000"
 6365      2020706F 
 6365      733A202D 
 6365      2D2D2020 
 6365      7072733A 
 6366 01f6 0000     		.align	2
 6367              	.LC18:
 6368 01f8 20206672 		.ascii	"  freq:%4dHz  cut:%5dHz  det:%c%d.%ds  fx:%2d%%  vi"
 6368      65713A25 
 6368      3464487A 
 6368      20206375 
ARM GAS  /tmp/claude-502/ccZj3JyB.s 			page 164


 6368      743A2535 
 6369 022b 623A2532 		.ascii	"b:%2d%%\000"
 6369      64252500 
 6370 0233 00       		.align	2
 6371              	.LC19:
 6372 0234 2D2D2D2D 		.ascii	"--------------------------------------------\000"
 6372      2D2D2D2D 
 6372      2D2D2D2D 
 6372      2D2D2D2D 
 6372      2D2D2D2D 
 6373              		.section	.text.startup.main,"ax",%progbits
 6374              		.align	1
 6375              		.p2align 2,,3
 6376              		.global	main
 6377              		.syntax unified
 6378              		.thumb
 6379              		.thumb_func
 6381              	main:
 6382              	.LFB2593:
 819:src/main.cpp  **** 
 820:src/main.cpp  **** // ŌöĆŌöĆ Main ŌöĆŌöĆŌöĆŌöĆŌöĆŌöĆŌöĆŌöĆŌöĆŌöĆŌöĆŌöĆŌöĆŌöĆŌöĆŌöĆŌöĆŌöĆŌöĆŌöĆŌöĆŌöĆŌöĆŌöĆŌöĆŌöĆŌöĆŌöĆ
 821:src/main.cpp  **** int main()
 822:src/main.cpp  **** {
 6383              		.loc 6 822 1 is_stmt 1 view -0
 6384              		.cfi_startproc
 6385              		@ args = 0, pretend = 0, frame = 328
 6386              		@ frame_needed = 0, uses_anonymous_args = 0
 823:src/main.cpp  ****     hw.Init();
 6387              		.loc 6 823 5 view .LVU1847
 822:src/main.cpp  ****     hw.Init();
 6388              		.loc 6 822 1 is_stmt 0 view .LVU1848
 6389 0000 2DE9F04F 		push	{r4, r5, r6, r7, r8, r9, r10, fp, lr}
 6390              		.cfi_def_cfa_offset 36
 6391              		.cfi_offset 4, -36
 6392              		.cfi_offset 5, -32
 6393              		.cfi_offset 6, -28
 6394              		.cfi_offset 7, -24
 6395              		.cfi_offset 8, -20
 6396              		.cfi_offset 9, -16
 6397              		.cfi_offset 10, -12
 6398              		.cfi_offset 11, -8
 6399              		.cfi_offset 14, -4
 6400              		.loc 6 823 12 view .LVU1849
 6401 0004 0021     		movs	r1, #0
 6402 0006 8948     		ldr	r0, .L665
 6403              	.LBB1250:
 6404              	.LBB1251:
 287:src/main.cpp  **** inline void sda_low() {sda.Init(SDA_PIN,GPIO::Mode::OUTPUT,GPIO::Pull::NOPULL);sda.Write(false);}
 6405              		.loc 6 287 32 view .LVU1850
 6406 0008 0024     		movs	r4, #0
 6407              	.LBE1251:
 6408              	.LBE1250:
 822:src/main.cpp  ****     hw.Init();
 6409              		.loc 6 822 1 view .LVU1851
 6410 000a 2DED0A8B 		vpush.64	{d8, d9, d10, d11, d12}
 6411              		.cfi_def_cfa_offset 76
 6412              		.cfi_offset 80, -76
ARM GAS  /tmp/claude-502/ccZj3JyB.s 			page 165


 6413              		.cfi_offset 81, -72
 6414              		.cfi_offset 82, -68
 6415              		.cfi_offset 83, -64
 6416              		.cfi_offset 84, -60
 6417              		.cfi_offset 85, -56
 6418              		.cfi_offset 86, -52
 6419              		.cfi_offset 87, -48
 6420              		.cfi_offset 88, -44
 6421              		.cfi_offset 89, -40
 6422 000e D7B0     		sub	sp, sp, #348
 6423              		.cfi_def_cfa_offset 424
 6424              		.loc 6 823 12 view .LVU1852
 6425 0010 FFF7FEFF 		bl	_ZN5daisy9DaisySeed4InitEb
 6426              	.LVL500:
 824:src/main.cpp  ****     hw.SetAudioBlockSize(4);
 6427              		.loc 6 824 5 is_stmt 1 view .LVU1853
 6428              		.loc 6 824 25 is_stmt 0 view .LVU1854
 6429 0014 0421     		movs	r1, #4
 6430 0016 8548     		ldr	r0, .L665
 6431 0018 FFF7FEFF 		bl	_ZN5daisy9DaisySeed17SetAudioBlockSizeEj
 6432              	.LVL501:
 825:src/main.cpp  **** 
 826:src/main.cpp  ****     // Power-on grace period so the lid can be closed before baseline capture.
 827:src/main.cpp  ****     System::Delay(5000);
 6433              		.loc 6 827 5 is_stmt 1 view .LVU1855
 6434              		.loc 6 827 18 is_stmt 0 view .LVU1856
 6435 001c 41F28830 		movw	r0, #5000
 6436 0020 FFF7FEFF 		bl	_ZN5daisy6System5DelayEm
 6437              	.LVL502:
 828:src/main.cpp  **** 
 829:src/main.cpp  ****     // ŌöĆŌöĆ I2C pins + MPR121 init BEFORE audio starts ŌöĆŌöĆŌöĆŌöĆŌöĆŌöĆŌöĆŌöĆŌöĆŌöĆŌöĆŌöĆŌöĆŌöĆ
 830:src/main.cpp  ****     // The audio ISR firing during bit-bang I2C corrupts I2C timing.
 831:src/main.cpp  ****     // Do all sensor work first, then start the audio engine.
 832:src/main.cpp  ****     sda_high();
 6438              		.loc 6 832 5 is_stmt 1 view .LVU1857
 6439              	.LBB1253:
 6440              	.LBI1250:
 287:src/main.cpp  **** inline void sda_low() {sda.Init(SDA_PIN,GPIO::Mode::OUTPUT,GPIO::Pull::NOPULL);sda.Write(false);}
 6441              		.loc 6 287 13 view .LVU1858
 6442              	.LBB1252:
 287:src/main.cpp  **** inline void sda_low() {sda.Init(SDA_PIN,GPIO::Mode::OUTPUT,GPIO::Pull::NOPULL);sda.Write(false);}
 6443              		.loc 6 287 24 view .LVU1859
 287:src/main.cpp  **** inline void sda_low() {sda.Init(SDA_PIN,GPIO::Mode::OUTPUT,GPIO::Pull::NOPULL);sda.Write(false);}
 6444              		.loc 6 287 32 is_stmt 0 view .LVU1860
 6445 0024 8249     		ldr	r1, .L665+4
 6446 0026 0123     		movs	r3, #1
 6447 0028 2246     		mov	r2, r4
 6448 002a 0968     		ldr	r1, [r1]
 6449 002c 8148     		ldr	r0, .L665+8
 6450 002e 0094     		str	r4, [sp]
 6451 0030 FFF7FEFF 		bl	_ZN5daisy4GPIO4InitENS_3PinENS0_4ModeENS0_4PullENS0_5SpeedE
 6452              	.LVL503:
 6453              	.LBE1252:
 6454              	.LBE1253:
 833:src/main.cpp  ****     scl_high();
 6455              		.loc 6 833 5 is_stmt 1 view .LVU1861
 6456              	.LBB1254:
ARM GAS  /tmp/claude-502/ccZj3JyB.s 			page 166


 6457              	.LBI1254:
 289:src/main.cpp  **** inline void scl_low() {scl.Init(SCL_PIN,GPIO::Mode::OUTPUT,GPIO::Pull::NOPULL);scl.Write(false);}
 6458              		.loc 6 289 13 view .LVU1862
 6459              	.LBB1255:
 289:src/main.cpp  **** inline void scl_low() {scl.Init(SCL_PIN,GPIO::Mode::OUTPUT,GPIO::Pull::NOPULL);scl.Write(false);}
 6460              		.loc 6 289 24 view .LVU1863
 289:src/main.cpp  **** inline void scl_low() {scl.Init(SCL_PIN,GPIO::Mode::OUTPUT,GPIO::Pull::NOPULL);scl.Write(false);}
 6461              		.loc 6 289 32 is_stmt 0 view .LVU1864
 6462 0034 8049     		ldr	r1, .L665+12
 6463 0036 0123     		movs	r3, #1
 6464 0038 2246     		mov	r2, r4
 6465 003a 0968     		ldr	r1, [r1]
 6466 003c 7F48     		ldr	r0, .L665+16
 6467 003e 0094     		str	r4, [sp]
 6468 0040 FFF7FEFF 		bl	_ZN5daisy4GPIO4InitENS_3PinENS0_4ModeENS0_4PullENS0_5SpeedE
 6469              	.LVL504:
 6470              	.LBE1255:
 6471              	.LBE1254:
 834:src/main.cpp  **** 
 835:src/main.cpp  ****     uint16_t baseline[N_CH];
 6472              		.loc 6 835 5 is_stmt 1 view .LVU1865
 836:src/main.cpp  ****     if(mpr_init())
 6473              		.loc 6 836 5 view .LVU1866
 6474              		.loc 6 836 16 is_stmt 0 view .LVU1867
 6475 0044 FFF7FEFF 		bl	_Z8mpr_initv
 6476              	.LVL505:
 837:src/main.cpp  ****     {
 838:src/main.cpp  ****         System::Delay(300);
 839:src/main.cpp  ****         capture_baseline(baseline);
 6477              		.loc 6 839 25 view .LVU1868
 6478 0048 19AB     		add	r3, sp, #100
 836:src/main.cpp  ****     if(mpr_init())
 6479              		.loc 6 836 5 view .LVU1869
 6480 004a 0028     		cmp	r0, #0
 6481 004c 41F03B80 		bne	.L616
 6482 0050 0993     		str	r3, [sp, #36]
 6483              	.L403:
 840:src/main.cpp  ****     }
 841:src/main.cpp  ****     // If MPR121 fails we still start audio so the problem is audible (silence)
 842:src/main.cpp  **** 
 843:src/main.cpp  ****     // ŌöĆŌöĆ DAC LEDs (pin 30 = DAC1, pin 31 = DAC2) + PWM LED (A0 = pin 22) ŌöĆŌöĆŌöĆŌöĆŌöĆŌöĆ
 844:src/main.cpp  ****     DacHandle::Config dac_cfg;
 6484              		.loc 6 844 5 is_stmt 1 view .LVU1870
 845:src/main.cpp  ****     dac_cfg.bitdepth   = DacHandle::BitDepth::BITS_12;
 6485              		.loc 6 845 5 view .LVU1871
 846:src/main.cpp  ****     dac_cfg.buff_state = DacHandle::BufferState::ENABLED;
 6486              		.loc 6 846 24 is_stmt 0 view .LVU1872
 6487 0052 0024     		movs	r4, #0
 845:src/main.cpp  ****     dac_cfg.bitdepth   = DacHandle::BitDepth::BITS_12;
 6488              		.loc 6 845 24 view .LVU1873
 6489 0054 0125     		movs	r5, #1
 847:src/main.cpp  ****     dac_cfg.mode       = DacHandle::Mode::POLLING;
 848:src/main.cpp  ****     dac_cfg.chn        = DacHandle::Channel::BOTH;
 6490              		.loc 6 848 24 view .LVU1874
 6491 0056 0226     		movs	r6, #2
 849:src/main.cpp  ****     hw.dac.Init(dac_cfg);
 6492              		.loc 6 849 16 view .LVU1875
ARM GAS  /tmp/claude-502/ccZj3JyB.s 			page 167


 6493 0058 14A9     		add	r1, sp, #80
 6494 005a 7948     		ldr	r0, .L665+20
 848:src/main.cpp  ****     hw.dac.Init(dac_cfg);
 6495              		.loc 6 848 24 view .LVU1876
 6496 005c 1596     		str	r6, [sp, #84]
 846:src/main.cpp  ****     dac_cfg.mode       = DacHandle::Mode::POLLING;
 6497              		.loc 6 846 24 view .LVU1877
 6498 005e 1894     		str	r4, [sp, #96]
 845:src/main.cpp  ****     dac_cfg.buff_state = DacHandle::BufferState::ENABLED;
 6499              		.loc 6 845 24 view .LVU1878
 6500 0060 CDE91645 		strd	r4, r5, [sp, #88]
 846:src/main.cpp  ****     dac_cfg.mode       = DacHandle::Mode::POLLING;
 6501              		.loc 6 846 5 is_stmt 1 view .LVU1879
 847:src/main.cpp  ****     dac_cfg.chn        = DacHandle::Channel::BOTH;
 6502              		.loc 6 847 5 view .LVU1880
 848:src/main.cpp  ****     hw.dac.Init(dac_cfg);
 6503              		.loc 6 848 5 view .LVU1881
 6504              		.loc 6 849 5 view .LVU1882
 6505              		.loc 6 849 16 is_stmt 0 view .LVU1883
 6506 0064 FFF7FEFF 		bl	_ZN5daisy9DacHandle4InitERKNS0_6ConfigE
 6507              	.LVL506:
 850:src/main.cpp  ****     hw.dac.WriteValue(DacHandle::Channel::BOTH, 0);
 6508              		.loc 6 850 5 is_stmt 1 view .LVU1884
 6509              		.loc 6 850 22 is_stmt 0 view .LVU1885
 6510 0068 3146     		mov	r1, r6
 6511 006a 2246     		mov	r2, r4
 6512 006c 7448     		ldr	r0, .L665+20
 6513 006e FFF7FEFF 		bl	_ZN5daisy9DacHandle10WriteValueENS0_7ChannelEt
 6514              	.LVL507:
 851:src/main.cpp  **** 
 852:src/main.cpp  ****     led3.Init(seed::A0, GPIO::Mode::OUTPUT, GPIO::Pull::NOPULL);
 6515              		.loc 6 852 5 is_stmt 1 view .LVU1886
 6516              		.loc 6 852 14 is_stmt 0 view .LVU1887
 6517 0072 744B     		ldr	r3, .L665+24
 6518 0074 2A46     		mov	r2, r5
 6519 0076 7448     		ldr	r0, .L665+28
 6520 0078 1968     		ldr	r1, [r3]
 6521 007a 2346     		mov	r3, r4
 6522 007c 0094     		str	r4, [sp]
 6523 007e FFF7FEFF 		bl	_ZN5daisy4GPIO4InitENS_3PinENS0_4ModeENS0_4PullENS0_5SpeedE
 6524              	.LVL508:
 853:src/main.cpp  ****     led3.Write(false);
 6525              		.loc 6 853 5 is_stmt 1 view .LVU1888
 6526              		.loc 6 853 15 is_stmt 0 view .LVU1889
 6527 0082 2146     		mov	r1, r4
 6528 0084 7048     		ldr	r0, .L665+28
 6529 0086 FFF7FEFF 		bl	_ZN5daisy4GPIO5WriteEb
 6530              	.LVL509:
 854:src/main.cpp  **** 
 855:src/main.cpp  ****     // ŌöĆŌöĆ FSR (A1 / ADC1) ŌöĆŌöĆŌöĆŌöĆŌöĆŌöĆŌöĆŌöĆŌöĆŌöĆŌöĆŌöĆŌöĆŌöĆŌöĆŌöĆŌöĆŌöĆŌöĆŌöĆŌöĆŌöĆŌöĆ
 856:src/main.cpp  ****     // Wired so unpressed reads ~max (3.3V). Press pulls ADC down. Fixed
 857:src/main.cpp  ****     // thresholds: raw Ōēż FSR_MIN ŌåÆ 0%, raw Ōēź FSR_MAX ŌåÆ 100%, linear between.
 858:src/main.cpp  ****     AdcChannelConfig fsr_cfg;
 6531              		.loc 6 858 5 is_stmt 1 view .LVU1890
 859:src/main.cpp  ****     fsr_cfg.InitSingle(seed::A1);
 6532              		.loc 6 859 5 view .LVU1891
 6533              		.loc 6 859 23 is_stmt 0 view .LVU1892
ARM GAS  /tmp/claude-502/ccZj3JyB.s 			page 168


 6534 008a 0323     		movs	r3, #3
 6535 008c 8DF83840 		strb	r4, [sp, #56]
 6536 0090 3246     		mov	r2, r6
 6537 0092 8DF83930 		strb	r3, [sp, #57]
 6538 0096 0FA8     		add	r0, sp, #60
 6539 0098 0E99     		ldr	r1, [sp, #56]
 6540 009a FFF7FEFF 		bl	_ZN5daisy16AdcChannelConfig10InitSingleE12dsy_gpio_pinNS0_15ConversionSpeedE
 6541              	.LVL510:
 860:src/main.cpp  ****     hw.adc.Init(&fsr_cfg, 1);
 6542              		.loc 6 860 5 is_stmt 1 view .LVU1893
 6543              		.loc 6 860 16 is_stmt 0 view .LVU1894
 6544 009e 2A46     		mov	r2, r5
 6545 00a0 0423     		movs	r3, #4
 6546 00a2 0FA9     		add	r1, sp, #60
 6547 00a4 6948     		ldr	r0, .L665+32
 6548              	.LBB1256:
 6549              	.LBB1257:
 6550              	.LBB1258:
 861:src/main.cpp  ****     hw.adc.Start();
 862:src/main.cpp  **** 
 863:src/main.cpp  ****     constexpr uint16_t FSR_MIN       = 8000;
 864:src/main.cpp  ****     uint16_t           fsr_max       = 55000;
 865:src/main.cpp  ****     float              fsr_range_inv = 1.0f / (float)(fsr_max - FSR_MIN);
 866:src/main.cpp  **** 
 867:src/main.cpp  ****     auto commit_fsr_avg = [&](uint32_t acc, int n) {
 868:src/main.cpp  ****         if(n == 0) return;
 869:src/main.cpp  ****         uint16_t avg = (uint16_t)(acc / n);
 870:src/main.cpp  ****         // Sanity floor ŌĆö without enough headroom over FSR_MIN the volume curve
 871:src/main.cpp  ****         // becomes hyper-sensitive to noise.
 872:src/main.cpp  ****         if(avg < FSR_MIN + 500) avg = FSR_MIN + 500;
 873:src/main.cpp  ****         fsr_max       = avg;
 874:src/main.cpp  ****         fsr_range_inv = 1.0f / (float)(fsr_max - FSR_MIN);
 875:src/main.cpp  ****     };
 876:src/main.cpp  **** 
 877:src/main.cpp  ****     // Startup calibration: 2 s silent FSR average ŌåÆ fsr_max.
 878:src/main.cpp  ****     auto calibrate_fsr_silent = [&]() {
 879:src/main.cpp  ****         uint32_t start = System::GetNow();
 880:src/main.cpp  ****         uint32_t acc = 0; int n = 0;
 6551              		.loc 6 880 18 view .LVU1895
 6552 00a6 2546     		mov	r5, r4
 6553              	.LBE1258:
 6554              	.LBE1257:
 6555              	.LBE1256:
 860:src/main.cpp  ****     hw.adc.Init(&fsr_cfg, 1);
 6556              		.loc 6 860 16 view .LVU1896
 6557 00a8 FFF7FEFF 		bl	_ZN5daisy9AdcHandle4InitEPNS_16AdcChannelConfigEjNS0_12OverSamplingE
 6558              	.LVL511:
 861:src/main.cpp  ****     hw.adc.Start();
 6559              		.loc 6 861 5 is_stmt 1 view .LVU1897
 861:src/main.cpp  ****     hw.adc.Start();
 6560              		.loc 6 861 17 is_stmt 0 view .LVU1898
 6561 00ac 6748     		ldr	r0, .L665+32
 6562 00ae FFF7FEFF 		bl	_ZN5daisy9AdcHandle5StartEv
 6563              	.LVL512:
 863:src/main.cpp  ****     uint16_t           fsr_max       = 55000;
 6564              		.loc 6 863 5 is_stmt 1 view .LVU1899
 864:src/main.cpp  ****     float              fsr_range_inv = 1.0f / (float)(fsr_max - FSR_MIN);
ARM GAS  /tmp/claude-502/ccZj3JyB.s 			page 169


 6565              		.loc 6 864 5 view .LVU1900
 865:src/main.cpp  **** 
 6566              		.loc 6 865 5 view .LVU1901
 867:src/main.cpp  ****         if(n == 0) return;
 6567              		.loc 6 867 5 view .LVU1902
 878:src/main.cpp  ****         uint32_t start = System::GetNow();
 6568              		.loc 6 878 5 view .LVU1903
 881:src/main.cpp  ****         while(System::GetNow() - start < 2000) {
 882:src/main.cpp  ****             acc += hw.adc.Get(0);
 883:src/main.cpp  ****             n++;
 884:src/main.cpp  ****             System::Delay(10);
 885:src/main.cpp  ****         }
 886:src/main.cpp  ****         commit_fsr_avg(acc, n);
 887:src/main.cpp  ****     };
 888:src/main.cpp  **** 
 889:src/main.cpp  ****     // Idle behaviour: sweep a virtual position 0ŌåÆ1000ŌåÆ0 through the same
 890:src/main.cpp  ****     // LED-tent math as the pitch mapping (LED2=pos 0, LED1=middle, LED3=pos 1),
 891:src/main.cpp  ****     // recalibrate fsr_max during the first 2 s, then keep sweeping until any
 892:src/main.cpp  ****     // electrode crosses TOUCH_THRESHOLD.
 893:src/main.cpp  ****     auto idle_chase_and_calibrate = [&]() {
 6569              		.loc 6 893 5 view .LVU1904
 894:src/main.cpp  ****         uint32_t start = System::GetNow();
 895:src/main.cpp  ****         uint32_t acc = 0; int n = 0;
 896:src/main.cpp  ****         bool     calibrated = false;
 897:src/main.cpp  ****         constexpr uint32_t SWEEP_PERIOD_MS = 12000;  // one 0ŌåÆ1ŌåÆ0 cycle
 898:src/main.cpp  ****         constexpr float    TAU             = 6.2831853f;
 899:src/main.cpp  ****         uint16_t scan[N_CH];
 900:src/main.cpp  **** 
 901:src/main.cpp  ****         while(true) {
 902:src/main.cpp  ****             uint32_t elapsed = System::GetNow() - start;
 903:src/main.cpp  **** 
 904:src/main.cpp  ****             // Sinusoidal position 0ŌåÆ1ŌåÆ0 over SWEEP_PERIOD_MS ŌĆö eases at the
 905:src/main.cpp  ****             // endpoints so the reversal is gentle instead of a triangle kink.
 906:src/main.cpp  ****             float phase = (float)(elapsed % SWEEP_PERIOD_MS) / (float)SWEEP_PERIOD_MS;
 907:src/main.cpp  ****             float p01   = 0.5f * (1.0f - cosf(phase * TAU));
 908:src/main.cpp  **** 
 909:src/main.cpp  ****             // Same tent + gamma-0.25 math as the pitch LED mapping.
 910:src/main.cpp  ****             float l1_raw = 1.0f - 2.0f * p01;                 if(l1_raw < 0) l1_raw = 0;
 911:src/main.cpp  ****             float l3_raw = 2.0f * p01 - 1.0f;                 if(l3_raw < 0) l3_raw = 0;
 912:src/main.cpp  ****             float l2_raw = 1.0f - 2.0f * fabsf(p01 - 0.5f);   if(l2_raw < 0) l2_raw = 0;
 913:src/main.cpp  ****             float led1   = sqrtf(sqrtf(l2_raw));              // middle (DAC1)
 914:src/main.cpp  ****             float led2   = sqrtf(sqrtf(l1_raw));              // pos 0  (DAC2)
 915:src/main.cpp  ****             float led3   = sqrtf(sqrtf(l3_raw)) * LED3_INTENSITY; // pos 1 (PWM A0)
 916:src/main.cpp  ****             hw.dac.WriteValue(DacHandle::Channel::ONE, (uint16_t)(led1 * 4095.0f));
 917:src/main.cpp  ****             hw.dac.WriteValue(DacHandle::Channel::TWO, (uint16_t)(led2 * 4095.0f));
 918:src/main.cpp  ****             g_led3_duty = led3;
 919:src/main.cpp  **** 
 920:src/main.cpp  ****             // FSR calibration window: first 2 s only.
 921:src/main.cpp  ****             if(!calibrated) {
 922:src/main.cpp  ****                 acc += hw.adc.Get(0);
 923:src/main.cpp  ****                 n++;
 924:src/main.cpp  ****                 if(elapsed >= 2000) {
 925:src/main.cpp  ****                     commit_fsr_avg(acc, n);
 926:src/main.cpp  ****                     calibrated = true;
 927:src/main.cpp  ****                 }
 928:src/main.cpp  ****             }
 929:src/main.cpp  **** 
ARM GAS  /tmp/claude-502/ccZj3JyB.s 			page 170


 930:src/main.cpp  ****             // Exit on any touch.
 931:src/main.cpp  ****             read_electrodes(scan);
 932:src/main.cpp  ****             int32_t max_d = 0;
 933:src/main.cpp  ****             for(int i = 0; i < N_CH; i++) {
 934:src/main.cpp  ****                 int32_t d = (int32_t)baseline[i] - (int32_t)scan[i];
 935:src/main.cpp  ****                 if(d > max_d) max_d = d;
 936:src/main.cpp  ****             }
 937:src/main.cpp  ****             if(max_d >= TOUCH_THRESHOLD) break;
 938:src/main.cpp  **** 
 939:src/main.cpp  ****             System::Delay(10);
 940:src/main.cpp  ****         }
 941:src/main.cpp  **** 
 942:src/main.cpp  ****         // Clean handoff back to the main loop's LED writer.
 943:src/main.cpp  ****         hw.dac.WriteValue(DacHandle::Channel::ONE, 0);
 944:src/main.cpp  ****         hw.dac.WriteValue(DacHandle::Channel::TWO, 0);
 945:src/main.cpp  ****         g_led3_duty = 0.0f;
 946:src/main.cpp  ****     };
 947:src/main.cpp  **** 
 948:src/main.cpp  ****     calibrate_fsr_silent();
 6570              		.loc 6 948 5 view .LVU1905
 6571              	.LBB1267:
 6572              	.LBI1256:
 878:src/main.cpp  ****         uint32_t start = System::GetNow();
 6573              		.loc 6 878 33 view .LVU1906
 6574              	.LBB1266:
 6575              	.LBB1265:
 879:src/main.cpp  ****         uint32_t acc = 0; int n = 0;
 6576              		.loc 6 879 9 view .LVU1907
 879:src/main.cpp  ****         uint32_t acc = 0; int n = 0;
 6577              		.loc 6 879 40 is_stmt 0 view .LVU1908
 6578 00b2 FFF7FEFF 		bl	_ZN5daisy6System6GetNowEv
 6579              	.LVL513:
 6580 00b6 0646     		mov	r6, r0
 6581              	.LVL514:
 880:src/main.cpp  ****         while(System::GetNow() - start < 2000) {
 6582              		.loc 6 880 9 is_stmt 1 view .LVU1909
 880:src/main.cpp  ****         while(System::GetNow() - start < 2000) {
 6583              		.loc 6 880 27 view .LVU1910
 880:src/main.cpp  ****         while(System::GetNow() - start < 2000) {
 6584              		.loc 6 880 27 is_stmt 0 view .LVU1911
 6585 00b8 07E0     		b	.L405
 6586              	.LVL515:
 6587              	.L642:
 882:src/main.cpp  ****             n++;
 6588              		.loc 6 882 30 view .LVU1912
 6589 00ba FFF7FEFF 		bl	_ZNK5daisy9AdcHandle3GetEh
 6590              	.LVL516:
 6591 00be 0346     		mov	r3, r0
 884:src/main.cpp  ****         }
 6592              		.loc 6 884 26 view .LVU1913
 6593 00c0 0A20     		movs	r0, #10
 883:src/main.cpp  ****             System::Delay(10);
 6594              		.loc 6 883 14 view .LVU1914
 6595 00c2 0134     		adds	r4, r4, #1
 6596              	.LVL517:
 882:src/main.cpp  ****             n++;
 6597              		.loc 6 882 17 view .LVU1915
ARM GAS  /tmp/claude-502/ccZj3JyB.s 			page 171


 6598 00c4 1D44     		add	r5, r5, r3
 6599              	.LVL518:
 883:src/main.cpp  ****             System::Delay(10);
 6600              		.loc 6 883 13 is_stmt 1 view .LVU1916
 884:src/main.cpp  ****         }
 6601              		.loc 6 884 13 view .LVU1917
 884:src/main.cpp  ****         }
 6602              		.loc 6 884 26 is_stmt 0 view .LVU1918
 6603 00c6 FFF7FEFF 		bl	_ZN5daisy6System5DelayEm
 6604              	.LVL519:
 6605              	.L405:
 881:src/main.cpp  ****             acc += hw.adc.Get(0);
 6606              		.loc 6 881 9 is_stmt 1 view .LVU1919
 881:src/main.cpp  ****             acc += hw.adc.Get(0);
 6607              		.loc 6 881 40 view .LVU1920
 881:src/main.cpp  ****             acc += hw.adc.Get(0);
 6608              		.loc 6 881 29 is_stmt 0 view .LVU1921
 6609 00ca FFF7FEFF 		bl	_ZN5daisy6System6GetNowEv
 6610              	.LVL520:
 882:src/main.cpp  ****             n++;
 6611              		.loc 6 882 13 is_stmt 1 view .LVU1922
 881:src/main.cpp  ****             acc += hw.adc.Get(0);
 6612              		.loc 6 881 29 is_stmt 0 view .LVU1923
 6613 00ce 0346     		mov	r3, r0
 882:src/main.cpp  ****             n++;
 6614              		.loc 6 882 30 view .LVU1924
 6615 00d0 0021     		movs	r1, #0
 6616 00d2 5E48     		ldr	r0, .L665+32
 881:src/main.cpp  ****             acc += hw.adc.Get(0);
 6617              		.loc 6 881 32 view .LVU1925
 6618 00d4 9B1B     		subs	r3, r3, r6
 881:src/main.cpp  ****             acc += hw.adc.Get(0);
 6619              		.loc 6 881 40 view .LVU1926
 6620 00d6 B3F5FA6F 		cmp	r3, #2000
 6621 00da EED3     		bcc	.L642
 886:src/main.cpp  ****     };
 6622              		.loc 6 886 9 is_stmt 1 view .LVU1927
 6623              	.LVL521:
 6624              	.LBB1259:
 6625              	.LBI1259:
 867:src/main.cpp  ****         if(n == 0) return;
 6626              		.loc 6 867 27 view .LVU1928
 6627              	.LBB1260:
 6628              	.LBB1261:
 868:src/main.cpp  ****         uint16_t avg = (uint16_t)(acc / n);
 6629              		.loc 6 868 9 view .LVU1929
 6630 00dc 002C     		cmp	r4, #0
 6631 00de 00F0FD87 		beq	.L539
 6632              	.LVL522:
 868:src/main.cpp  ****         uint16_t avg = (uint16_t)(acc / n);
 6633              		.loc 6 868 9 is_stmt 0 view .LVU1930
 6634              	.LBE1261:
 6635              	.LBB1262:
 6636              	.LBI1262:
 867:src/main.cpp  ****         if(n == 0) return;
 6637              		.loc 6 867 27 is_stmt 1 view .LVU1931
 6638              	.LBB1263:
ARM GAS  /tmp/claude-502/ccZj3JyB.s 			page 172


 6639              	.LBB1264:
 869:src/main.cpp  ****         // Sanity floor ŌĆö without enough headroom over FSR_MIN the volume curve
 6640              		.loc 6 869 9 view .LVU1932
 6641 00e2 42F23412 		movw	r2, #8500
 874:src/main.cpp  ****     };
 6642              		.loc 6 874 30 is_stmt 0 view .LVU1933
 6643 00e6 B7EE007A 		vmov.f32	s14, #1.0e+0
 869:src/main.cpp  ****         // Sanity floor ŌĆö without enough headroom over FSR_MIN the volume curve
 6644              		.loc 6 869 39 view .LVU1934
 6645 00ea B5FBF4F4 		udiv	r4, r5, r4
 6646              	.LVL523:
 869:src/main.cpp  ****         // Sanity floor ŌĆö without enough headroom over FSR_MIN the volume curve
 6647              		.loc 6 869 18 view .LVU1935
 6648 00ee A3B2     		uxth	r3, r4
 6649              	.LVL524:
 872:src/main.cpp  ****         fsr_max       = avg;
 6650              		.loc 6 872 9 is_stmt 1 view .LVU1936
 6651 00f0 9342     		cmp	r3, r2
 6652 00f2 38BF     		it	cc
 6653 00f4 1346     		movcc	r3, r2
 6654              	.LVL525:
 872:src/main.cpp  ****         fsr_max       = avg;
 6655              		.loc 6 872 9 is_stmt 0 view .LVU1937
 6656 00f6 0B93     		str	r3, [sp, #44]
 6657              	.LVL526:
 873:src/main.cpp  ****         fsr_range_inv = 1.0f / (float)(fsr_max - FSR_MIN);
 6658              		.loc 6 873 9 is_stmt 1 view .LVU1938
 874:src/main.cpp  ****     };
 6659              		.loc 6 874 9 view .LVU1939
 874:src/main.cpp  ****     };
 6660              		.loc 6 874 48 is_stmt 0 view .LVU1940
 6661 00f8 A3F5FA53 		sub	r3, r3, #8000
 6662              	.LVL527:
 874:src/main.cpp  ****     };
 6663              		.loc 6 874 48 view .LVU1941
 6664 00fc 07EE903A 		vmov	s15, r3	@ int
 874:src/main.cpp  ****     };
 6665              		.loc 6 874 32 view .LVU1942
 6666 0100 F8EEE77A 		vcvt.f32.s32	s15, s15
 874:src/main.cpp  ****     };
 6667              		.loc 6 874 30 view .LVU1943
 6668 0104 C7EE27AA 		vdiv.f32	s21, s14, s15
 6669              	.LVL528:
 6670              	.L406:
 874:src/main.cpp  ****     };
 6671              		.loc 6 874 30 view .LVU1944
 6672              	.LBE1264:
 6673              	.LBE1263:
 6674              	.LBE1262:
 6675              	.LBE1260:
 6676              	.LBE1259:
 6677              	.LBE1265:
 6678              	.LBE1266:
 6679              	.LBE1267:
 949:src/main.cpp  **** 
 950:src/main.cpp  ****     // Boot-voice snapshot for the startup banner / initial targets. The main
 951:src/main.cpp  ****     // loop rebinds its own `VOICE` each frame so it always reflects the current
ARM GAS  /tmp/claude-502/ccZj3JyB.s 			page 173


 952:src/main.cpp  ****     // voice index (which the FSR gesture can change live).
 953:src/main.cpp  ****     const Voice& VOICE = VOICES[g_voice_idx];
 6680              		.loc 6 953 5 is_stmt 1 view .LVU1945
 6681              		.loc 6 953 33 is_stmt 0 view .LVU1946
 6682 0108 514B     		ldr	r3, .L665+36
 954:src/main.cpp  **** 
 955:src/main.cpp  ****     // ŌöĆŌöĆ Start audio ŌöĆŌöĆŌöĆŌöĆŌöĆŌöĆŌöĆŌöĆŌöĆŌöĆŌöĆŌöĆŌöĆŌöĆŌöĆŌöĆŌöĆŌöĆŌöĆŌöĆŌöĆŌöĆŌöĆŌöĆŌ
 956:src/main.cpp  ****     // Set initial targets before callback fires (voice-relative starting pitch)
 957:src/main.cpp  ****     g_target_freq   = VOICE.freq_low * 2.0f;
 958:src/main.cpp  ****     g_target_cutoff = 100.0f;
 959:src/main.cpp  ****     g_amp_target    = 0.0f;
 6683              		.loc 6 959 21 view .LVU1947
 6684 010a 0026     		movs	r6, #0
 957:src/main.cpp  ****     g_target_cutoff = 100.0f;
 6685              		.loc 6 957 29 view .LVU1948
 6686 010c 5149     		ldr	r1, .L665+40
 953:src/main.cpp  **** 
 6687              		.loc 6 953 33 view .LVU1949
 6688 010e 1B68     		ldr	r3, [r3]
 6689              	.LVL529:
 957:src/main.cpp  ****     g_target_cutoff = 100.0f;
 6690              		.loc 6 957 5 is_stmt 1 view .LVU1950
 957:src/main.cpp  ****     g_target_cutoff = 100.0f;
 6691              		.loc 6 957 21 is_stmt 0 view .LVU1951
 6692 0110 5148     		ldr	r0, .L665+44
 957:src/main.cpp  ****     g_target_cutoff = 100.0f;
 6693              		.loc 6 957 29 view .LVU1952
 6694 0112 C3EBC303 		rsb	r3, r3, r3, lsl #3
 6695              	.LVL530:
 6696              		.loc 6 959 21 view .LVU1953
 6697 0116 514F     		ldr	r7, .L665+48
 957:src/main.cpp  ****     g_target_cutoff = 100.0f;
 6698              		.loc 6 957 29 view .LVU1954
 6699 0118 01EB0314 		add	r4, r1, r3, lsl #4
 960:src/main.cpp  ****     hw.StartAudio(AudioCallback);
 6700              		.loc 6 960 18 view .LVU1955
 6701 011c 5049     		ldr	r1, .L665+52
 957:src/main.cpp  ****     g_target_cutoff = 100.0f;
 6702              		.loc 6 957 29 view .LVU1956
 6703 011e 1D01     		lsls	r5, r3, #4
 958:src/main.cpp  ****     g_amp_target    = 0.0f;
 6704              		.loc 6 958 21 view .LVU1957
 6705 0120 504B     		ldr	r3, .L665+56
 957:src/main.cpp  ****     g_target_cutoff = 100.0f;
 6706              		.loc 6 957 29 view .LVU1958
 6707 0122 94ED018A 		vldr.32	s16, [r4, #4]
 957:src/main.cpp  ****     g_target_cutoff = 100.0f;
 6708              		.loc 6 957 38 view .LVU1959
 6709 0126 78EE087A 		vadd.f32	s15, s16, s16
 957:src/main.cpp  ****     g_target_cutoff = 100.0f;
 6710              		.loc 6 957 21 view .LVU1960
 6711 012a C0ED007A 		vstr.32	s15, [r0]
 958:src/main.cpp  ****     g_amp_target    = 0.0f;
 6712              		.loc 6 958 5 is_stmt 1 view .LVU1961
 958:src/main.cpp  ****     g_amp_target    = 0.0f;
 6713              		.loc 6 958 21 is_stmt 0 view .LVU1962
 6714 012e 4E48     		ldr	r0, .L665+60
ARM GAS  /tmp/claude-502/ccZj3JyB.s 			page 174


 6715 0130 0360     		str	r3, [r0]	@ float
 959:src/main.cpp  ****     hw.StartAudio(AudioCallback);
 6716              		.loc 6 959 5 is_stmt 1 view .LVU1963
 6717              		.loc 6 960 18 is_stmt 0 view .LVU1964
 6718 0132 3E48     		ldr	r0, .L665
 959:src/main.cpp  ****     hw.StartAudio(AudioCallback);
 6719              		.loc 6 959 21 view .LVU1965
 6720 0134 3E60     		str	r6, [r7]	@ float
 6721              		.loc 6 960 5 is_stmt 1 view .LVU1966
 6722              		.loc 6 960 18 is_stmt 0 view .LVU1967
 6723 0136 FFF7FEFF 		bl	_ZN5daisy9DaisySeed10StartAudioEPFvPKPKfPPfjE
 6724              	.LVL531:
 961:src/main.cpp  **** 
 962:src/main.cpp  ****     // Boot beep ŌĆö 200ms tone so you can confirm headphone audio is working
 963:src/main.cpp  ****     g_amp_target = 0.4f;
 6725              		.loc 6 963 5 is_stmt 1 view .LVU1968
 6726              		.loc 6 963 18 is_stmt 0 view .LVU1969
 6727 013a 4C4B     		ldr	r3, .L665+64
 964:src/main.cpp  ****     System::Delay(200);
 6728              		.loc 6 964 18 view .LVU1970
 6729 013c C820     		movs	r0, #200
 963:src/main.cpp  ****     System::Delay(200);
 6730              		.loc 6 963 18 view .LVU1971
 6731 013e 3B60     		str	r3, [r7]	@ float
 6732              		.loc 6 964 5 is_stmt 1 view .LVU1972
 6733              		.loc 6 964 18 is_stmt 0 view .LVU1973
 6734 0140 FFF7FEFF 		bl	_ZN5daisy6System5DelayEm
 6735              	.LVL532:
 965:src/main.cpp  ****     g_amp_target = 0.0f;
 6736              		.loc 6 965 5 is_stmt 1 view .LVU1974
 966:src/main.cpp  ****     System::Delay(50);
 6737              		.loc 6 966 18 is_stmt 0 view .LVU1975
 6738 0144 3220     		movs	r0, #50
 965:src/main.cpp  ****     g_amp_target = 0.0f;
 6739              		.loc 6 965 18 view .LVU1976
 6740 0146 3E60     		str	r6, [r7]	@ float
 6741              		.loc 6 966 5 is_stmt 1 view .LVU1977
 6742              		.loc 6 966 18 is_stmt 0 view .LVU1978
 6743 0148 FFF7FEFF 		bl	_ZN5daisy6System5DelayEm
 6744              	.LVL533:
 967:src/main.cpp  **** 
 968:src/main.cpp  ****     // ŌöĆŌöĆ USB serial (blocks until host connects) ŌöĆŌöĆŌöĆŌöĆŌöĆŌöĆŌöĆŌöĆŌöĆŌöĆŌöĆŌöĆŌöĆŌöĆŌöĆ
 969:src/main.cpp  ****     hw.StartLog(false); // false = don't wait for serial monitor
 6745              		.loc 6 969 5 is_stmt 1 view .LVU1979
 6746              	.LBB1268:
 6747              	.LBI1268:
  23:/Users/reza.kalfane/Workspaces/Daisy/DaisyExamples/libDaisy/src/daisy_seed.h **** 
  24:/Users/reza.kalfane/Workspaces/Daisy/DaisyExamples/libDaisy/src/daisy_seed.h ****     /** This function used to provide a pre-initialization configuraiton 
  25:/Users/reza.kalfane/Workspaces/Daisy/DaisyExamples/libDaisy/src/daisy_seed.h ****      *  it has since been deprecated, and does nothing.
  26:/Users/reza.kalfane/Workspaces/Daisy/DaisyExamples/libDaisy/src/daisy_seed.h ****      */
  27:/Users/reza.kalfane/Workspaces/Daisy/DaisyExamples/libDaisy/src/daisy_seed.h ****     void Configure();
  28:/Users/reza.kalfane/Workspaces/Daisy/DaisyExamples/libDaisy/src/daisy_seed.h **** 
  29:/Users/reza.kalfane/Workspaces/Daisy/DaisyExamples/libDaisy/src/daisy_seed.h ****     /** 
  30:/Users/reza.kalfane/Workspaces/Daisy/DaisyExamples/libDaisy/src/daisy_seed.h ****     Initializes the Daisy Seed and the following peripherals:
  31:/Users/reza.kalfane/Workspaces/Daisy/DaisyExamples/libDaisy/src/daisy_seed.h ****     SDRAM, QSPI, 24-bit 48kHz Audio via AK4556, Internal USB,
  32:/Users/reza.kalfane/Workspaces/Daisy/DaisyExamples/libDaisy/src/daisy_seed.h ****     as well as the built-in LED and Testpoint.
  33:/Users/reza.kalfane/Workspaces/Daisy/DaisyExamples/libDaisy/src/daisy_seed.h **** 
ARM GAS  /tmp/claude-502/ccZj3JyB.s 			page 175


  34:/Users/reza.kalfane/Workspaces/Daisy/DaisyExamples/libDaisy/src/daisy_seed.h ****     ADCs, DACs, and other special peripherals (such as I2C, SPI, etc.)
  35:/Users/reza.kalfane/Workspaces/Daisy/DaisyExamples/libDaisy/src/daisy_seed.h ****     can be initialized using their specific initializers within libdaisy
  36:/Users/reza.kalfane/Workspaces/Daisy/DaisyExamples/libDaisy/src/daisy_seed.h ****     for a specific application.
  37:/Users/reza.kalfane/Workspaces/Daisy/DaisyExamples/libDaisy/src/daisy_seed.h ****     */
  38:/Users/reza.kalfane/Workspaces/Daisy/DaisyExamples/libDaisy/src/daisy_seed.h ****     void Init(bool boost = false);
  39:/Users/reza.kalfane/Workspaces/Daisy/DaisyExamples/libDaisy/src/daisy_seed.h **** 
  40:/Users/reza.kalfane/Workspaces/Daisy/DaisyExamples/libDaisy/src/daisy_seed.h ****     /** 
  41:/Users/reza.kalfane/Workspaces/Daisy/DaisyExamples/libDaisy/src/daisy_seed.h ****     Deinitializes all peripherals automatically handled by `Init`.
  42:/Users/reza.kalfane/Workspaces/Daisy/DaisyExamples/libDaisy/src/daisy_seed.h ****     */
  43:/Users/reza.kalfane/Workspaces/Daisy/DaisyExamples/libDaisy/src/daisy_seed.h ****     void DeInit();
  44:/Users/reza.kalfane/Workspaces/Daisy/DaisyExamples/libDaisy/src/daisy_seed.h **** 
  45:/Users/reza.kalfane/Workspaces/Daisy/DaisyExamples/libDaisy/src/daisy_seed.h ****     /** 
  46:/Users/reza.kalfane/Workspaces/Daisy/DaisyExamples/libDaisy/src/daisy_seed.h ****     Wait some ms before going on.
  47:/Users/reza.kalfane/Workspaces/Daisy/DaisyExamples/libDaisy/src/daisy_seed.h ****     \param del Delay time in ms.
  48:/Users/reza.kalfane/Workspaces/Daisy/DaisyExamples/libDaisy/src/daisy_seed.h ****     */
  49:/Users/reza.kalfane/Workspaces/Daisy/DaisyExamples/libDaisy/src/daisy_seed.h ****     void DelayMs(size_t del);
  50:/Users/reza.kalfane/Workspaces/Daisy/DaisyExamples/libDaisy/src/daisy_seed.h **** 
  51:/Users/reza.kalfane/Workspaces/Daisy/DaisyExamples/libDaisy/src/daisy_seed.h ****     /** 
  52:/Users/reza.kalfane/Workspaces/Daisy/DaisyExamples/libDaisy/src/daisy_seed.h ****     Returns the gpio_pin corresponding to the index 0-31.
  53:/Users/reza.kalfane/Workspaces/Daisy/DaisyExamples/libDaisy/src/daisy_seed.h ****     For the given GPIO on the Daisy Seed (labeled 1-32 in docs).
  54:/Users/reza.kalfane/Workspaces/Daisy/DaisyExamples/libDaisy/src/daisy_seed.h ****     */
  55:/Users/reza.kalfane/Workspaces/Daisy/DaisyExamples/libDaisy/src/daisy_seed.h ****     static dsy_gpio_pin GetPin(uint8_t pin_idx);
  56:/Users/reza.kalfane/Workspaces/Daisy/DaisyExamples/libDaisy/src/daisy_seed.h **** 
  57:/Users/reza.kalfane/Workspaces/Daisy/DaisyExamples/libDaisy/src/daisy_seed.h ****     /** Begins the audio for the seeds builtin audio.
  58:/Users/reza.kalfane/Workspaces/Daisy/DaisyExamples/libDaisy/src/daisy_seed.h ****     the specified callback will get called whenever
  59:/Users/reza.kalfane/Workspaces/Daisy/DaisyExamples/libDaisy/src/daisy_seed.h ****     new data is ready to be prepared.
  60:/Users/reza.kalfane/Workspaces/Daisy/DaisyExamples/libDaisy/src/daisy_seed.h ****     */
  61:/Users/reza.kalfane/Workspaces/Daisy/DaisyExamples/libDaisy/src/daisy_seed.h ****     void StartAudio(AudioHandle::InterleavingAudioCallback cb);
  62:/Users/reza.kalfane/Workspaces/Daisy/DaisyExamples/libDaisy/src/daisy_seed.h **** 
  63:/Users/reza.kalfane/Workspaces/Daisy/DaisyExamples/libDaisy/src/daisy_seed.h ****     /** Begins the audio for the seeds builtin audio.
  64:/Users/reza.kalfane/Workspaces/Daisy/DaisyExamples/libDaisy/src/daisy_seed.h ****     the specified callback will get called whenever
  65:/Users/reza.kalfane/Workspaces/Daisy/DaisyExamples/libDaisy/src/daisy_seed.h ****     new data is ready to be prepared.
  66:/Users/reza.kalfane/Workspaces/Daisy/DaisyExamples/libDaisy/src/daisy_seed.h ****     This will use the newer non-interleaved callback.
  67:/Users/reza.kalfane/Workspaces/Daisy/DaisyExamples/libDaisy/src/daisy_seed.h ****     */
  68:/Users/reza.kalfane/Workspaces/Daisy/DaisyExamples/libDaisy/src/daisy_seed.h ****     void StartAudio(AudioHandle::AudioCallback cb);
  69:/Users/reza.kalfane/Workspaces/Daisy/DaisyExamples/libDaisy/src/daisy_seed.h **** 
  70:/Users/reza.kalfane/Workspaces/Daisy/DaisyExamples/libDaisy/src/daisy_seed.h ****     /** Changes to a new interleaved callback
  71:/Users/reza.kalfane/Workspaces/Daisy/DaisyExamples/libDaisy/src/daisy_seed.h ****      */
  72:/Users/reza.kalfane/Workspaces/Daisy/DaisyExamples/libDaisy/src/daisy_seed.h ****     void ChangeAudioCallback(AudioHandle::InterleavingAudioCallback cb);
  73:/Users/reza.kalfane/Workspaces/Daisy/DaisyExamples/libDaisy/src/daisy_seed.h **** 
  74:/Users/reza.kalfane/Workspaces/Daisy/DaisyExamples/libDaisy/src/daisy_seed.h ****     /** Changes to a new multichannel callback
  75:/Users/reza.kalfane/Workspaces/Daisy/DaisyExamples/libDaisy/src/daisy_seed.h ****      */
  76:/Users/reza.kalfane/Workspaces/Daisy/DaisyExamples/libDaisy/src/daisy_seed.h ****     void ChangeAudioCallback(AudioHandle::AudioCallback cb);
  77:/Users/reza.kalfane/Workspaces/Daisy/DaisyExamples/libDaisy/src/daisy_seed.h **** 
  78:/Users/reza.kalfane/Workspaces/Daisy/DaisyExamples/libDaisy/src/daisy_seed.h ****     /** Stops the audio if it is running. */
  79:/Users/reza.kalfane/Workspaces/Daisy/DaisyExamples/libDaisy/src/daisy_seed.h ****     void StopAudio();
  80:/Users/reza.kalfane/Workspaces/Daisy/DaisyExamples/libDaisy/src/daisy_seed.h **** 
  81:/Users/reza.kalfane/Workspaces/Daisy/DaisyExamples/libDaisy/src/daisy_seed.h ****     /** Updates the Audio Sample Rate, and reinitializes.
  82:/Users/reza.kalfane/Workspaces/Daisy/DaisyExamples/libDaisy/src/daisy_seed.h ****      ** Audio must be stopped for this to work.
  83:/Users/reza.kalfane/Workspaces/Daisy/DaisyExamples/libDaisy/src/daisy_seed.h ****      */
  84:/Users/reza.kalfane/Workspaces/Daisy/DaisyExamples/libDaisy/src/daisy_seed.h ****     void SetAudioSampleRate(SaiHandle::Config::SampleRate samplerate);
  85:/Users/reza.kalfane/Workspaces/Daisy/DaisyExamples/libDaisy/src/daisy_seed.h **** 
  86:/Users/reza.kalfane/Workspaces/Daisy/DaisyExamples/libDaisy/src/daisy_seed.h ****     /** Returns the audio sample rate in Hz as a floating point number.
  87:/Users/reza.kalfane/Workspaces/Daisy/DaisyExamples/libDaisy/src/daisy_seed.h ****      */
  88:/Users/reza.kalfane/Workspaces/Daisy/DaisyExamples/libDaisy/src/daisy_seed.h ****     float AudioSampleRate();
  89:/Users/reza.kalfane/Workspaces/Daisy/DaisyExamples/libDaisy/src/daisy_seed.h **** 
  90:/Users/reza.kalfane/Workspaces/Daisy/DaisyExamples/libDaisy/src/daisy_seed.h ****     /** Sets the number of samples processed per channel by the audio callback.
ARM GAS  /tmp/claude-502/ccZj3JyB.s 			page 176


  91:/Users/reza.kalfane/Workspaces/Daisy/DaisyExamples/libDaisy/src/daisy_seed.h ****      */
  92:/Users/reza.kalfane/Workspaces/Daisy/DaisyExamples/libDaisy/src/daisy_seed.h ****     void SetAudioBlockSize(size_t blocksize);
  93:/Users/reza.kalfane/Workspaces/Daisy/DaisyExamples/libDaisy/src/daisy_seed.h **** 
  94:/Users/reza.kalfane/Workspaces/Daisy/DaisyExamples/libDaisy/src/daisy_seed.h ****     /** Returns the number of samples per channel in a block of audio. */
  95:/Users/reza.kalfane/Workspaces/Daisy/DaisyExamples/libDaisy/src/daisy_seed.h ****     size_t AudioBlockSize();
  96:/Users/reza.kalfane/Workspaces/Daisy/DaisyExamples/libDaisy/src/daisy_seed.h **** 
  97:/Users/reza.kalfane/Workspaces/Daisy/DaisyExamples/libDaisy/src/daisy_seed.h ****     /** Returns the rate in Hz that the Audio callback is called */
  98:/Users/reza.kalfane/Workspaces/Daisy/DaisyExamples/libDaisy/src/daisy_seed.h ****     float AudioCallbackRate() const;
  99:/Users/reza.kalfane/Workspaces/Daisy/DaisyExamples/libDaisy/src/daisy_seed.h **** 
 100:/Users/reza.kalfane/Workspaces/Daisy/DaisyExamples/libDaisy/src/daisy_seed.h ****     /** Returns the SAI Handle for the Daisy Seed 
 101:/Users/reza.kalfane/Workspaces/Daisy/DaisyExamples/libDaisy/src/daisy_seed.h ****      *  This can be useful when adding a secondary codec,
 102:/Users/reza.kalfane/Workspaces/Daisy/DaisyExamples/libDaisy/src/daisy_seed.h ****      *  the result of this function can be passed to the audio reinit 
 103:/Users/reza.kalfane/Workspaces/Daisy/DaisyExamples/libDaisy/src/daisy_seed.h ****      *  with an SAI2 configuration
 104:/Users/reza.kalfane/Workspaces/Daisy/DaisyExamples/libDaisy/src/daisy_seed.h ****      */
 105:/Users/reza.kalfane/Workspaces/Daisy/DaisyExamples/libDaisy/src/daisy_seed.h ****     const SaiHandle& AudioSaiHandle() const;
 106:/Users/reza.kalfane/Workspaces/Daisy/DaisyExamples/libDaisy/src/daisy_seed.h **** 
 107:/Users/reza.kalfane/Workspaces/Daisy/DaisyExamples/libDaisy/src/daisy_seed.h ****     /** Sets the state of the built in LED
 108:/Users/reza.kalfane/Workspaces/Daisy/DaisyExamples/libDaisy/src/daisy_seed.h ****      */
 109:/Users/reza.kalfane/Workspaces/Daisy/DaisyExamples/libDaisy/src/daisy_seed.h ****     void SetLed(bool state);
 110:/Users/reza.kalfane/Workspaces/Daisy/DaisyExamples/libDaisy/src/daisy_seed.h **** 
 111:/Users/reza.kalfane/Workspaces/Daisy/DaisyExamples/libDaisy/src/daisy_seed.h ****     /** Sets the state of the test point near pin 10
 112:/Users/reza.kalfane/Workspaces/Daisy/DaisyExamples/libDaisy/src/daisy_seed.h ****      */
 113:/Users/reza.kalfane/Workspaces/Daisy/DaisyExamples/libDaisy/src/daisy_seed.h ****     void SetTestPoint(bool state);
 114:/Users/reza.kalfane/Workspaces/Daisy/DaisyExamples/libDaisy/src/daisy_seed.h **** 
 115:/Users/reza.kalfane/Workspaces/Daisy/DaisyExamples/libDaisy/src/daisy_seed.h ****     /** Print formatted debug log message
 116:/Users/reza.kalfane/Workspaces/Daisy/DaisyExamples/libDaisy/src/daisy_seed.h ****      */
 117:/Users/reza.kalfane/Workspaces/Daisy/DaisyExamples/libDaisy/src/daisy_seed.h ****     template <typename... VA>
 118:/Users/reza.kalfane/Workspaces/Daisy/DaisyExamples/libDaisy/src/daisy_seed.h ****     static void Print(const char* format, VA... va)
 119:/Users/reza.kalfane/Workspaces/Daisy/DaisyExamples/libDaisy/src/daisy_seed.h ****     {
 120:/Users/reza.kalfane/Workspaces/Daisy/DaisyExamples/libDaisy/src/daisy_seed.h ****         Log::Print(format, va...);
 121:/Users/reza.kalfane/Workspaces/Daisy/DaisyExamples/libDaisy/src/daisy_seed.h ****     }
 122:/Users/reza.kalfane/Workspaces/Daisy/DaisyExamples/libDaisy/src/daisy_seed.h **** 
 123:/Users/reza.kalfane/Workspaces/Daisy/DaisyExamples/libDaisy/src/daisy_seed.h ****     /** Print formatted debug log message with automatic line termination
 124:/Users/reza.kalfane/Workspaces/Daisy/DaisyExamples/libDaisy/src/daisy_seed.h ****     */
 125:/Users/reza.kalfane/Workspaces/Daisy/DaisyExamples/libDaisy/src/daisy_seed.h ****     template <typename... VA>
 126:/Users/reza.kalfane/Workspaces/Daisy/DaisyExamples/libDaisy/src/daisy_seed.h ****     static void PrintLine(const char* format, VA... va)
 127:/Users/reza.kalfane/Workspaces/Daisy/DaisyExamples/libDaisy/src/daisy_seed.h ****     {
 128:/Users/reza.kalfane/Workspaces/Daisy/DaisyExamples/libDaisy/src/daisy_seed.h ****         Log::PrintLine(format, va...);
 129:/Users/reza.kalfane/Workspaces/Daisy/DaisyExamples/libDaisy/src/daisy_seed.h ****     }
 130:/Users/reza.kalfane/Workspaces/Daisy/DaisyExamples/libDaisy/src/daisy_seed.h **** 
 131:/Users/reza.kalfane/Workspaces/Daisy/DaisyExamples/libDaisy/src/daisy_seed.h ****     /** Start the logging session. Optionally wait for terminal connection before proceeding.
 132:/Users/reza.kalfane/Workspaces/Daisy/DaisyExamples/libDaisy/src/daisy_seed.h ****     */
 133:/Users/reza.kalfane/Workspaces/Daisy/DaisyExamples/libDaisy/src/daisy_seed.h ****     static void StartLog(bool wait_for_pc = false)
 6748              		.loc 1 133 17 view .LVU1980
 6749              	.LBB1269:
 134:/Users/reza.kalfane/Workspaces/Daisy/DaisyExamples/libDaisy/src/daisy_seed.h ****     {
 135:/Users/reza.kalfane/Workspaces/Daisy/DaisyExamples/libDaisy/src/daisy_seed.h ****         Log::StartLog(wait_for_pc);
 6750              		.loc 1 135 9 view .LVU1981
 6751              		.loc 1 135 22 is_stmt 0 view .LVU1982
 6752 014c 0020     		movs	r0, #0
 6753 014e FFF7FEFF 		bl	_ZN5daisy6LoggerILNS_17LoggerDestinationE1EE8StartLogEb
 6754              	.LVL534:
 6755              		.loc 1 135 22 view .LVU1983
 6756              	.LBE1269:
 6757              	.LBE1268:
 970:src/main.cpp  **** 
 971:src/main.cpp  ****     hw.PrintLine("Glass Moog Synth");
ARM GAS  /tmp/claude-502/ccZj3JyB.s 			page 177


 6758              		.loc 6 971 5 is_stmt 1 view .LVU1984
 6759              	.LBB1270:
 6760              	.LBI1270:
 126:/Users/reza.kalfane/Workspaces/Daisy/DaisyExamples/libDaisy/src/daisy_seed.h ****     {
 6761              		.loc 1 126 17 view .LVU1985
 6762              	.LBB1271:
 128:/Users/reza.kalfane/Workspaces/Daisy/DaisyExamples/libDaisy/src/daisy_seed.h ****     }
 6763              		.loc 1 128 23 is_stmt 0 view .LVU1986
 6764 0152 4748     		ldr	r0, .L665+68
 6765 0154 FFF7FEFF 		bl	_ZN5daisy6LoggerILNS_17LoggerDestinationE1EE9PrintLineEPKcz
 6766              	.LVL535:
 128:/Users/reza.kalfane/Workspaces/Daisy/DaisyExamples/libDaisy/src/daisy_seed.h ****     }
 6767              		.loc 1 128 23 view .LVU1987
 6768              	.LBE1271:
 6769              	.LBE1270:
 972:src/main.cpp  ****     hw.PrintLine("================");
 6770              		.loc 6 972 5 is_stmt 1 view .LVU1988
 6771              	.LBB1272:
 6772              	.LBI1272:
 126:/Users/reza.kalfane/Workspaces/Daisy/DaisyExamples/libDaisy/src/daisy_seed.h ****     {
 6773              		.loc 1 126 17 view .LVU1989
 6774              	.LBB1273:
 128:/Users/reza.kalfane/Workspaces/Daisy/DaisyExamples/libDaisy/src/daisy_seed.h ****     }
 6775              		.loc 1 128 23 is_stmt 0 view .LVU1990
 6776 0158 4648     		ldr	r0, .L665+72
 6777 015a FFF7FEFF 		bl	_ZN5daisy6LoggerILNS_17LoggerDestinationE1EE9PrintLineEPKcz
 6778              	.LVL536:
 128:/Users/reza.kalfane/Workspaces/Daisy/DaisyExamples/libDaisy/src/daisy_seed.h ****     }
 6779              		.loc 1 128 23 view .LVU1991
 6780              	.LBE1273:
 6781              	.LBE1272:
 973:src/main.cpp  ****     hw.PrintLine("Voice %d/%d: %s  (%d-%dHz)",
 6782              		.loc 6 973 5 is_stmt 1 view .LVU1992
 6783              		.loc 6 973 17 is_stmt 0 view .LVU1993
 6784 015e D4ED027A 		vldr.32	s15, [r4, #8]
 6785 0162 BDEEC88A 		vcvt.s32.f32	s16, s16
 6786              	.LBB1274:
 6787              	.LBB1275:
 128:/Users/reza.kalfane/Workspaces/Daisy/DaisyExamples/libDaisy/src/daisy_seed.h ****     }
 6788              		.loc 1 128 23 view .LVU1994
 6789 0166 3B49     		ldr	r1, .L665+40
 6790              	.LBE1275:
 6791              	.LBE1274:
 6792              		.loc 6 973 17 view .LVU1995
 6793 0168 FDEEE77A 		vcvt.s32.f32	s15, s15
 974:src/main.cpp  ****                  g_voice_idx + 1, NUM_VOICES,
 6794              		.loc 6 974 18 view .LVU1996
 6795 016c 384A     		ldr	r2, .L665+36
 6796              	.LBB1278:
 6797              	.LBB1276:
 128:/Users/reza.kalfane/Workspaces/Daisy/DaisyExamples/libDaisy/src/daisy_seed.h ****     }
 6798              		.loc 1 128 23 view .LVU1997
 6799 016e 4B59     		ldr	r3, [r1, r5]
 6800 0170 8DED008A 		vstr.32	s16, [sp]	@ int
 6801 0174 CDED017A 		vstr.32	s15, [sp, #4]	@ int
 6802              	.LBE1276:
 6803              	.LBE1278:
ARM GAS  /tmp/claude-502/ccZj3JyB.s 			page 178


 6804              		.loc 6 974 18 view .LVU1998
 6805 0178 1168     		ldr	r1, [r2]
 6806              	.LVL537:
 6807              	.LBB1279:
 6808              	.LBI1274:
 126:/Users/reza.kalfane/Workspaces/Daisy/DaisyExamples/libDaisy/src/daisy_seed.h ****     {
 6809              		.loc 1 126 17 is_stmt 1 view .LVU1999
 6810              	.LBB1277:
 128:/Users/reza.kalfane/Workspaces/Daisy/DaisyExamples/libDaisy/src/daisy_seed.h ****     }
 6811              		.loc 1 128 23 is_stmt 0 view .LVU2000
 6812 017a 0722     		movs	r2, #7
 6813 017c 3E48     		ldr	r0, .L665+76
 6814 017e 0131     		adds	r1, r1, #1
 6815              	.LVL538:
 128:/Users/reza.kalfane/Workspaces/Daisy/DaisyExamples/libDaisy/src/daisy_seed.h ****     }
 6816              		.loc 1 128 23 view .LVU2001
 6817 0180 FFF7FEFF 		bl	_ZN5daisy6LoggerILNS_17LoggerDestinationE1EE9PrintLineEPKcz
 6818              	.LVL539:
 128:/Users/reza.kalfane/Workspaces/Daisy/DaisyExamples/libDaisy/src/daisy_seed.h ****     }
 6819              		.loc 1 128 23 view .LVU2002
 6820              	.LBE1277:
 6821              	.LBE1279:
 975:src/main.cpp  ****                  VOICE.name, (int)VOICE.freq_low, (int)VOICE.freq_high);
 976:src/main.cpp  ****     hw.PrintLine("F1 pos=pitch  F1 prs=cutoff+vibrato");
 6822              		.loc 6 976 5 is_stmt 1 view .LVU2003
 6823              	.LBB1280:
 6824              	.LBI1280:
 126:/Users/reza.kalfane/Workspaces/Daisy/DaisyExamples/libDaisy/src/daisy_seed.h ****     {
 6825              		.loc 1 126 17 view .LVU2004
 6826              	.LBB1281:
 128:/Users/reza.kalfane/Workspaces/Daisy/DaisyExamples/libDaisy/src/daisy_seed.h ****     }
 6827              		.loc 1 128 23 is_stmt 0 view .LVU2005
 6828 0184 3D48     		ldr	r0, .L665+80
 6829 0186 FFF7FEFF 		bl	_ZN5daisy6LoggerILNS_17LoggerDestinationE1EE9PrintLineEPKcz
 6830              	.LVL540:
 128:/Users/reza.kalfane/Workspaces/Daisy/DaisyExamples/libDaisy/src/daisy_seed.h ****     }
 6831              		.loc 1 128 23 view .LVU2006
 6832              	.LBE1281:
 6833              	.LBE1280:
 977:src/main.cpp  ****     if(VOICE.osc2_detune)
 6834              		.loc 6 977 5 is_stmt 1 view .LVU2007
 6835 018a 94F83D30 		ldrb	r3, [r4, #61]	@ zero_extendqisi2
 6836 018e 002B     		cmp	r3, #0
 6837 0190 00F09487 		beq	.L407
 978:src/main.cpp  ****         hw.PrintLine("F2 pos=detune F2 prs=wavefold+ringmod");
 6838              		.loc 6 978 9 view .LVU2008
 6839              	.LVL541:
 6840              	.LBB1282:
 6841              	.LBI1282:
 126:/Users/reza.kalfane/Workspaces/Daisy/DaisyExamples/libDaisy/src/daisy_seed.h ****     {
 6842              		.loc 1 126 17 view .LVU2009
 6843              	.LBB1283:
 128:/Users/reza.kalfane/Workspaces/Daisy/DaisyExamples/libDaisy/src/daisy_seed.h ****     }
 6844              		.loc 1 128 23 is_stmt 0 view .LVU2010
 6845 0194 3A48     		ldr	r0, .L665+84
 6846 0196 FFF7FEFF 		bl	_ZN5daisy6LoggerILNS_17LoggerDestinationE1EE9PrintLineEPKcz
 6847              	.LVL542:
ARM GAS  /tmp/claude-502/ccZj3JyB.s 			page 179


 6848              	.L408:
 128:/Users/reza.kalfane/Workspaces/Daisy/DaisyExamples/libDaisy/src/daisy_seed.h ****     }
 6849              		.loc 1 128 23 view .LVU2011
 6850              	.LBE1283:
 6851              	.LBE1282:
 979:src/main.cpp  ****     else
 980:src/main.cpp  ****         hw.PrintLine("F2 prs=wavefold+ringmod (osc2=fixed)");
 981:src/main.cpp  ****     hw.PrintLine("Hold FSR pressed 5s to change voice (then every 2s)");
 6852              		.loc 6 981 5 is_stmt 1 view .LVU2012
 6853              	.LBB1284:
 6854              	.LBI1284:
 126:/Users/reza.kalfane/Workspaces/Daisy/DaisyExamples/libDaisy/src/daisy_seed.h ****     {
 6855              		.loc 1 126 17 view .LVU2013
 6856              	.LBB1285:
 128:/Users/reza.kalfane/Workspaces/Daisy/DaisyExamples/libDaisy/src/daisy_seed.h ****     }
 6857              		.loc 1 128 23 is_stmt 0 view .LVU2014
 6858 019a 3A48     		ldr	r0, .L665+88
 6859 019c 0DF17C09 		add	r9, sp, #124
 6860 01a0 FFF7FEFF 		bl	_ZN5daisy6LoggerILNS_17LoggerDestinationE1EE9PrintLineEPKcz
 6861              	.LVL543:
 128:/Users/reza.kalfane/Workspaces/Daisy/DaisyExamples/libDaisy/src/daisy_seed.h ****     }
 6862              		.loc 1 128 23 view .LVU2015
 6863              	.LBE1285:
 6864              	.LBE1284:
 982:src/main.cpp  ****     hw.PrintLine("MPR121 OK ŌĆö baseline captured");
 6865              		.loc 6 982 5 is_stmt 1 view .LVU2016
 6866              	.LBB1286:
 6867              	.LBI1286:
 126:/Users/reza.kalfane/Workspaces/Daisy/DaisyExamples/libDaisy/src/daisy_seed.h ****     {
 6868              		.loc 1 126 17 view .LVU2017
 6869              	.LBB1287:
 128:/Users/reza.kalfane/Workspaces/Daisy/DaisyExamples/libDaisy/src/daisy_seed.h ****     }
 6870              		.loc 1 128 23 is_stmt 0 view .LVU2018
 6871 01a4 3848     		ldr	r0, .L665+92
 6872 01a6 FFF7FEFF 		bl	_ZN5daisy6LoggerILNS_17LoggerDestinationE1EE9PrintLineEPKcz
 6873              	.LVL544:
 128:/Users/reza.kalfane/Workspaces/Daisy/DaisyExamples/libDaisy/src/daisy_seed.h ****     }
 6874              		.loc 1 128 23 view .LVU2019
 6875              	.LBE1287:
 6876              	.LBE1286:
 983:src/main.cpp  ****     hw.PrintLine("Ready.\n");
 6877              		.loc 6 983 5 is_stmt 1 view .LVU2020
 6878              	.LBB1288:
 6879              	.LBI1288:
 126:/Users/reza.kalfane/Workspaces/Daisy/DaisyExamples/libDaisy/src/daisy_seed.h ****     {
 6880              		.loc 1 126 17 view .LVU2021
 6881              	.LBE1288:
 984:src/main.cpp  **** 
 985:src/main.cpp  ****     uint16_t data[N_CH];
 986:src/main.cpp  ****     int32_t  delta[N_CH];
 987:src/main.cpp  ****     char     bar[32], pos_bar[52];
 988:src/main.cpp  ****     Finger   raw[2];
 989:src/main.cpp  **** 
 990:src/main.cpp  ****     uint32_t idle_since      = System::GetNow();
 991:src/main.cpp  ****     uint32_t last_touch_ms   = System::GetNow();
 992:src/main.cpp  ****     bool     f1_was_on       = false;
 993:src/main.cpp  ****     uint32_t f1_last_seen_ms = 0;
ARM GAS  /tmp/claude-502/ccZj3JyB.s 			page 180


 994:src/main.cpp  ****     static constexpr uint32_t F1_REQUANTIZE_MS = 200; // re-quantize only after this long off
 995:src/main.cpp  ****     float    f1_midi_base    = 60.0f; // last quantized note
 996:src/main.cpp  ****     bool     f1_sliding      = false; // true after first touch settles
 997:src/main.cpp  **** 
 998:src/main.cpp  ****     // Per-frame display counter (print every N frames to reduce serial spam)
 999:src/main.cpp  ****     int print_every = 1;
1000:src/main.cpp  ****     int frame_count = 0;
1001:src/main.cpp  **** 
1002:src/main.cpp  ****     // Smoothed LED brightness state (0..1), slewed toward per-frame targets.
1003:src/main.cpp  ****     // LED1 = DAC1 (pos 0 end), LED2 = DAC2 (middle), LED3 = PWM A0 (pos 1000 end).
1004:src/main.cpp  ****     float s_led1 = 0.0f, s_led2 = 0.0f, s_led3 = 0.0f;
 6882              		.loc 6 1004 41 is_stmt 0 view .LVU2022
 6883 01aa 9FED3B9A 		vldr.32	s18, .L665+108
 6884              	.LBB1290:
 6885              	.LBB1289:
 128:/Users/reza.kalfane/Workspaces/Daisy/DaisyExamples/libDaisy/src/daisy_seed.h ****     }
 6886              		.loc 1 128 23 view .LVU2023
 6887 01ae 3748     		ldr	r0, .L665+96
 6888 01b0 0DF1AC0A 		add	r10, sp, #172
 6889 01b4 FFF7FEFF 		bl	_ZN5daisy6LoggerILNS_17LoggerDestinationE1EE9PrintLineEPKcz
 6890              	.LVL545:
 128:/Users/reza.kalfane/Workspaces/Daisy/DaisyExamples/libDaisy/src/daisy_seed.h ****     }
 6891              		.loc 1 128 23 view .LVU2024
 6892              	.LBE1289:
 6893              	.LBE1290:
 985:src/main.cpp  ****     int32_t  delta[N_CH];
 6894              		.loc 6 985 5 is_stmt 1 view .LVU2025
 986:src/main.cpp  ****     char     bar[32], pos_bar[52];
 6895              		.loc 6 986 5 view .LVU2026
 987:src/main.cpp  ****     Finger   raw[2];
 6896              		.loc 6 987 5 view .LVU2027
 988:src/main.cpp  **** 
 6897              		.loc 6 988 5 view .LVU2028
 990:src/main.cpp  ****     uint32_t last_touch_ms   = System::GetNow();
 6898              		.loc 6 990 5 view .LVU2029
 6899              		.loc 6 1004 26 is_stmt 0 view .LVU2030
 6900 01b8 B0EE49AA 		vmov.f32	s20, s18
 990:src/main.cpp  ****     uint32_t last_touch_ms   = System::GetNow();
 6901              		.loc 6 990 46 view .LVU2031
 6902 01bc FFF7FEFF 		bl	_ZN5daisy6System6GetNowEv
 6903              	.LVL546:
1005:src/main.cpp  **** 
1006:src/main.cpp  ****     // FSR voice-switch gesture state.
1007:src/main.cpp  ****     uint32_t fsr_hold_start  = 0;   // when the current press began (0 = released)
1008:src/main.cpp  ****     uint32_t fsr_next_switch = 0;   // timestamp of the next allowed switch
 6904              		.loc 6 1008 14 view .LVU2032
 6905 01c0 0023     		movs	r3, #0
1004:src/main.cpp  **** 
 6906              		.loc 6 1004 11 view .LVU2033
 6907 01c2 F0EE499A 		vmov.f32	s19, s18
 6908 01c6 DFF8CC80 		ldr	r8, .L665+104
 6909              		.loc 6 1008 14 view .LVU2034
 6910 01ca 1C46     		mov	r4, r3
 6911 01cc 0DF1C10B 		add	fp, sp, #193
 990:src/main.cpp  ****     uint32_t last_touch_ms   = System::GetNow();
 6912              		.loc 6 990 46 view .LVU2035
 6913 01d0 0690     		str	r0, [sp, #24]
ARM GAS  /tmp/claude-502/ccZj3JyB.s 			page 181


 6914              	.LVL547:
 991:src/main.cpp  ****     bool     f1_was_on       = false;
 6915              		.loc 6 991 5 is_stmt 1 view .LVU2036
 6916              		.loc 6 1008 14 is_stmt 0 view .LVU2037
 6917 01d2 0C93     		str	r3, [sp, #48]
 991:src/main.cpp  ****     bool     f1_was_on       = false;
 6918              		.loc 6 991 46 view .LVU2038
 6919 01d4 FFF7FEFF 		bl	_ZN5daisy6System6GetNowEv
 6920              	.LVL548:
1007:src/main.cpp  ****     uint32_t fsr_next_switch = 0;   // timestamp of the next allowed switch
 6921              		.loc 6 1007 14 view .LVU2039
 6922 01d8 0A94     		str	r4, [sp, #40]
 991:src/main.cpp  ****     bool     f1_was_on       = false;
 6923              		.loc 6 991 46 view .LVU2040
 6924 01da 0890     		str	r0, [sp, #32]
 6925              	.LVL549:
 992:src/main.cpp  ****     uint32_t f1_last_seen_ms = 0;
 6926              		.loc 6 992 5 is_stmt 1 view .LVU2041
 993:src/main.cpp  ****     static constexpr uint32_t F1_REQUANTIZE_MS = 200; // re-quantize only after this long off
 6927              		.loc 6 993 5 view .LVU2042
 994:src/main.cpp  ****     float    f1_midi_base    = 60.0f; // last quantized note
 6928              		.loc 6 994 5 view .LVU2043
 995:src/main.cpp  ****     bool     f1_sliding      = false; // true after first touch settles
 6929              		.loc 6 995 5 view .LVU2044
 996:src/main.cpp  **** 
 6930              		.loc 6 996 5 view .LVU2045
 999:src/main.cpp  ****     int frame_count = 0;
 6931              		.loc 6 999 5 view .LVU2046
1000:src/main.cpp  **** 
 6932              		.loc 6 1000 5 view .LVU2047
1004:src/main.cpp  **** 
 6933              		.loc 6 1004 5 view .LVU2048
1007:src/main.cpp  ****     uint32_t fsr_next_switch = 0;   // timestamp of the next allowed switch
 6934              		.loc 6 1007 5 view .LVU2049
 6935              		.loc 6 1008 5 view .LVU2050
 992:src/main.cpp  ****     uint32_t f1_last_seen_ms = 0;
 6936              		.loc 6 992 14 is_stmt 0 view .LVU2051
 6937 01dc 0594     		str	r4, [sp, #20]
 6938              	.LVL550:
 6939              	.L525:
1009:src/main.cpp  **** 
1010:src/main.cpp  ****     // Flash all three LEDs `count` times to confirm a voice change (count = voice
1011:src/main.cpp  ****     // number). Blocks the touch loop briefly ŌĆö fine, we're mid-gesture and silent.
1012:src/main.cpp  ****     auto flash_voice_leds = [&](int count){
 6940              		.loc 6 1012 5 is_stmt 1 view .LVU2052
1013:src/main.cpp  ****         for(int f = 0; f < count; f++){
1014:src/main.cpp  ****             hw.dac.WriteValue(DacHandle::Channel::ONE, 4095);
1015:src/main.cpp  ****             hw.dac.WriteValue(DacHandle::Channel::TWO, 4095);
1016:src/main.cpp  ****             g_led3_duty = LED3_INTENSITY;
1017:src/main.cpp  ****             System::Delay(110);
1018:src/main.cpp  ****             hw.dac.WriteValue(DacHandle::Channel::ONE, 0);
1019:src/main.cpp  ****             hw.dac.WriteValue(DacHandle::Channel::TWO, 0);
1020:src/main.cpp  ****             g_led3_duty = 0.0f;
1021:src/main.cpp  ****             System::Delay(140);
1022:src/main.cpp  ****         }
1023:src/main.cpp  ****     };
1024:src/main.cpp  **** 
ARM GAS  /tmp/claude-502/ccZj3JyB.s 			page 182


1025:src/main.cpp  ****     while(true)
 6941              		.loc 6 1025 5 view .LVU2053
 6942              	.LBB1291:
1026:src/main.cpp  ****     {
1027:src/main.cpp  ****         // ŌöĆŌöĆ FSR ŌåÆ master volume (no pressure = 100%, press attenuates) ŌöĆŌöĆŌöĆŌöĆŌöĆŌöĆŌö
1028:src/main.cpp  ****         uint16_t fsr_raw = hw.adc.Get(0);
 6943              		.loc 6 1028 9 view .LVU2054
 6944              		.loc 6 1028 38 is_stmt 0 view .LVU2055
 6945 01de 0021     		movs	r1, #0
 6946 01e0 1A48     		ldr	r0, .L665+32
 6947 01e2 FFF7FEFF 		bl	_ZNK5daisy9AdcHandle3GetEh
 6948              	.LVL551:
1029:src/main.cpp  ****         float    vol;
 6949              		.loc 6 1029 9 is_stmt 1 view .LVU2056
1030:src/main.cpp  ****         if(fsr_raw <= FSR_MIN)      vol = 0.0f;
 6950              		.loc 6 1030 9 view .LVU2057
 6951 01e6 B0F5FA5F 		cmp	r0, #8000
 6952 01ea 00F2B782 		bhi	.L643
 6953              	.LVL552:
1031:src/main.cpp  ****         else if(fsr_raw >= fsr_max) vol = 1.0f;
1032:src/main.cpp  ****         else                        vol = (float)(fsr_raw - FSR_MIN) * fsr_range_inv;
1033:src/main.cpp  ****         g_master_vol = vol;
 6954              		.loc 6 1033 9 view .LVU2058
 6955              		.loc 6 1033 22 is_stmt 0 view .LVU2059
 6956 01ee 0023     		movs	r3, #0
 6957 01f0 274A     		ldr	r2, .L665+100
 6958 01f2 1360     		str	r3, [r2]	@ float
1034:src/main.cpp  **** 
1035:src/main.cpp  ****         // ŌöĆŌöĆ FSR-hold voice-switch gesture ŌöĆŌöĆŌöĆŌöĆŌöĆŌöĆŌöĆŌöĆŌöĆŌöĆŌöĆŌöĆŌöĆŌöĆŌöĆŌöĆŌöĆ
1036:src/main.cpp  ****         // Pressing the FSR to (near) silence and holding cycles the voice: first
1037:src/main.cpp  ****         // advance after 5 s, then every 2 s while still held. LEDs flash the new
1038:src/main.cpp  ****         // voice number. Releasing re-arms the 5 s wait.
1039:src/main.cpp  ****         bool fsr_pressed = (fsr_raw <= FSR_MIN);   // "low value" = at the mute floor
 6959              		.loc 6 1039 9 is_stmt 1 view .LVU2060
 6960              	.LVL553:
1040:src/main.cpp  ****         if(!fsr_pressed){
 6961              		.loc 6 1040 9 view .LVU2061
 6962              	.LBB1292:
 6963              	.LBB1293:
1041:src/main.cpp  ****             fsr_hold_start = 0;                    // released ŌåÆ disarm
1042:src/main.cpp  ****         } else {
1043:src/main.cpp  ****             uint32_t now = System::GetNow();
 6964              		.loc 6 1043 13 view .LVU2062
 6965              		.loc 6 1043 42 is_stmt 0 view .LVU2063
 6966 01f4 FFF7FEFF 		bl	_ZN5daisy6System6GetNowEv
 6967              	.LVL554:
1044:src/main.cpp  ****             if(fsr_hold_start == 0){
 6968              		.loc 6 1044 13 view .LVU2064
 6969 01f8 0A9B     		ldr	r3, [sp, #40]
1043:src/main.cpp  ****             if(fsr_hold_start == 0){
 6970              		.loc 6 1043 42 view .LVU2065
 6971 01fa 0690     		str	r0, [sp, #24]
 6972              	.LVL555:
 6973              		.loc 6 1044 13 is_stmt 1 view .LVU2066
 6974 01fc 002B     		cmp	r3, #0
 6975 01fe 40F06886 		bne	.L644
1045:src/main.cpp  ****                 fsr_hold_start  = now;
ARM GAS  /tmp/claude-502/ccZj3JyB.s 			page 183


 6976              		.loc 6 1045 17 view .LVU2067
 6977              	.LVL556:
1046:src/main.cpp  ****                 fsr_next_switch = now + VOICE_SWITCH_FIRST_MS;
 6978              		.loc 6 1046 17 view .LVU2068
 6979              		.loc 6 1046 33 is_stmt 0 view .LVU2069
 6980 0202 41F28833 		movw	r3, #5000
 6981 0206 1A46     		mov	r2, r3
 6982 0208 069B     		ldr	r3, [sp, #24]
 6983 020a 9A18     		adds	r2, r3, r2
1045:src/main.cpp  ****                 fsr_hold_start  = now;
 6984              		.loc 6 1045 33 view .LVU2070
 6985 020c 0A93     		str	r3, [sp, #40]
1047:src/main.cpp  ****             }
1048:src/main.cpp  ****             // Holding the FSR means no glass touch ŌĆö freeze the idle/rebaseline
1049:src/main.cpp  ****             // timers so they don't fire mid-gesture.
1050:src/main.cpp  ****             idle_since    = now;
1051:src/main.cpp  ****             last_touch_ms = now;
 6986              		.loc 6 1051 27 view .LVU2071
 6987 020e 0893     		str	r3, [sp, #32]
 6988              	.LVL557:
1046:src/main.cpp  ****                 fsr_next_switch = now + VOICE_SWITCH_FIRST_MS;
 6989              		.loc 6 1046 33 view .LVU2072
 6990 0210 0C92     		str	r2, [sp, #48]
 6991              	.LVL558:
1050:src/main.cpp  ****             last_touch_ms = now;
 6992              		.loc 6 1050 13 is_stmt 1 view .LVU2073
 6993              		.loc 6 1051 13 view .LVU2074
1052:src/main.cpp  ****             if((int32_t)(now - fsr_next_switch) >= 0){
 6994              		.loc 6 1052 13 view .LVU2075
 6995              	.L411:
 6996              		.loc 6 1052 13 is_stmt 0 view .LVU2076
 6997              	.LBE1293:
 6998              	.LBE1292:
1053:src/main.cpp  ****                 g_voice_idx = (g_voice_idx + 1) % NUM_VOICES;
1054:src/main.cpp  ****                 hw.PrintLine("[voice %d/%d] %s",
1055:src/main.cpp  ****                              g_voice_idx + 1, NUM_VOICES, VOICES[g_voice_idx].name);
1056:src/main.cpp  ****                 flash_voice_leds(g_voice_idx + 1);            // count = voice number
1057:src/main.cpp  ****                 fsr_next_switch = System::GetNow() + VOICE_SWITCH_REPEAT_MS; // re-time after flash
1058:src/main.cpp  ****             }
1059:src/main.cpp  ****         }
1060:src/main.cpp  **** 
1061:src/main.cpp  ****         // Bind the (possibly just-changed) active voice for the rest of this frame.
1062:src/main.cpp  ****         const Voice& VOICE = VOICES[g_voice_idx];
 6999              		.loc 6 1062 9 is_stmt 1 view .LVU2077
 7000              		.loc 6 1062 37 is_stmt 0 view .LVU2078
 7001 0212 0F4B     		ldr	r3, .L665+36
 7002 0214 3DAF     		add	r7, sp, #244
1063:src/main.cpp  **** 
1064:src/main.cpp  ****         read_electrodes(data);
 7003              		.loc 6 1064 24 view .LVU2079
 7004 0216 4846     		mov	r0, r9
1065:src/main.cpp  **** 
1066:src/main.cpp  ****         int32_t max_delta=1;
 7005              		.loc 6 1066 17 view .LVU2080
 7006 0218 0126     		movs	r6, #1
1062:src/main.cpp  **** 
 7007              		.loc 6 1062 37 view .LVU2081
ARM GAS  /tmp/claude-502/ccZj3JyB.s 			page 184


 7008 021a 1B68     		ldr	r3, [r3]
 7009 021c 0493     		str	r3, [sp, #16]
 7010              	.LVL559:
1064:src/main.cpp  **** 
 7011              		.loc 6 1064 9 is_stmt 1 view .LVU2082
1064:src/main.cpp  **** 
 7012              		.loc 6 1064 24 is_stmt 0 view .LVU2083
 7013 021e FFF7FEFF 		bl	_Z15read_electrodesPt
 7014              	.LVL560:
 7015              		.loc 6 1066 9 is_stmt 1 view .LVU2084
1067:src/main.cpp  ****         for(int i=0;i<N_CH;i++){
 7016              		.loc 6 1067 9 view .LVU2085
 7017              	.LBB1304:
 7018              		.loc 6 1067 22 view .LVU2086
 7019 0222 4846     		mov	r0, r9
 7020              	.LBE1304:
1064:src/main.cpp  **** 
 7021              		.loc 6 1064 24 is_stmt 0 view .LVU2087
 7022 0224 3946     		mov	r1, r7
 7023 0226 099A     		ldr	r2, [sp, #36]
 7024 0228 40E0     		b	.L416
 7025              	.L666:
 7026 022a 00BF     		.align	2
 7027              	.L665:
 7028 022c 00000000 		.word	.LANCHOR10
 7029 0230 00000000 		.word	.LANCHOR38
 7030 0234 00000000 		.word	.LANCHOR39
 7031 0238 00000000 		.word	.LANCHOR40
 7032 023c 00000000 		.word	.LANCHOR41
 7033 0240 20000000 		.word	.LANCHOR10+32
 7034 0244 00000000 		.word	.LANCHOR45
 7035 0248 00000000 		.word	.LANCHOR37
 7036 024c 18000000 		.word	.LANCHOR10+24
 7037 0250 00000000 		.word	.LANCHOR11
 7038 0254 00000000 		.word	.LANCHOR13
 7039 0258 00000000 		.word	.LANCHOR1
 7040 025c 00000000 		.word	.LANCHOR8
 7041 0260 00000000 		.word	_Z13AudioCallbackPKPKfPPfj
 7042 0264 0000C842 		.word	1120403456
 7043 0268 00000000 		.word	.LANCHOR2
 7044 026c CDCCCC3E 		.word	1053609165
 7045 0270 00000000 		.word	.LC0
 7046 0274 14000000 		.word	.LC1
 7047 0278 28000000 		.word	.LC2
 7048 027c 44000000 		.word	.LC3
 7049 0280 68000000 		.word	.LC4
 7050 0284 B8000000 		.word	.LC6
 7051 0288 EC000000 		.word	.LC7
 7052 028c 0C010000 		.word	.LC8
 7053 0290 00000000 		.word	.LANCHOR9
 7054 0294 00000000 		.word	.LANCHOR43
 7055 0298 00000000 		.word	0
 7056              	.LVL561:
 7057              	.L646:
1064:src/main.cpp  **** 
 7058              		.loc 6 1064 24 view .LVU2088
 7059 029c 9E42     		cmp	r6, r3
ARM GAS  /tmp/claude-502/ccZj3JyB.s 			page 185


 7060              	.LBB1305:
1068:src/main.cpp  ****             delta[i]=(int32_t)baseline[i]-(int32_t)data[i];
 7061              		.loc 6 1068 21 view .LVU2089
 7062 029e 0B60     		str	r3, [r1]
1069:src/main.cpp  ****             if(delta[i]<0)delta[i]=0;
1070:src/main.cpp  ****             if(delta[i]>max_delta)max_delta=delta[i];
 7063              		.loc 6 1070 13 is_stmt 1 view .LVU2090
1067:src/main.cpp  ****             delta[i]=(int32_t)baseline[i]-(int32_t)data[i];
 7064              		.loc 6 1067 22 is_stmt 0 view .LVU2091
 7065 02a0 01F10401 		add	r1, r1, #4
 7066 02a4 B8BF     		it	lt
 7067 02a6 1E46     		movlt	r6, r3
 7068              	.LVL562:
1067:src/main.cpp  ****             delta[i]=(int32_t)baseline[i]-(int32_t)data[i];
 7069              		.loc 6 1067 9 is_stmt 1 view .LVU2092
1067:src/main.cpp  ****             delta[i]=(int32_t)baseline[i]-(int32_t)data[i];
 7070              		.loc 6 1067 22 view .LVU2093
 7071 02a8 9145     		cmp	r9, r2
 7072 02aa 0ED0     		beq	.L645
 7073              	.LVL563:
 7074              	.L416:
1068:src/main.cpp  ****             delta[i]=(int32_t)baseline[i]-(int32_t)data[i];
 7075              		.loc 6 1068 13 view .LVU2094
1069:src/main.cpp  ****             if(delta[i]<0)delta[i]=0;
 7076              		.loc 6 1069 13 view .LVU2095
1069:src/main.cpp  ****             if(delta[i]<0)delta[i]=0;
 7077              		.loc 6 1069 27 view .LVU2096
1068:src/main.cpp  ****             delta[i]=(int32_t)baseline[i]-(int32_t)data[i];
 7078              		.loc 6 1068 41 is_stmt 0 view .LVU2097
 7079 02ac 32F8023B 		ldrh	r3, [r2], #2
1069:src/main.cpp  ****             if(delta[i]<0)delta[i]=0;
 7080              		.loc 6 1069 35 view .LVU2098
 7081 02b0 0025     		movs	r5, #0
1068:src/main.cpp  ****             delta[i]=(int32_t)baseline[i]-(int32_t)data[i];
 7082              		.loc 6 1068 58 view .LVU2099
 7083 02b2 30F8024B 		ldrh	r4, [r0], #2
1069:src/main.cpp  ****             if(delta[i]<0)delta[i]=0;
 7084              		.loc 6 1069 13 view .LVU2100
 7085 02b6 1B1B     		subs	r3, r3, r4
 7086 02b8 F0D5     		bpl	.L646
 7087 02ba 2B46     		mov	r3, r5
1069:src/main.cpp  ****             if(delta[i]<0)delta[i]=0;
 7088              		.loc 6 1069 35 discriminator 1 view .LVU2101
 7089 02bc 0D60     		str	r5, [r1]
 7090              		.loc 6 1070 13 is_stmt 1 discriminator 1 view .LVU2102
1067:src/main.cpp  ****             delta[i]=(int32_t)baseline[i]-(int32_t)data[i];
 7091              		.loc 6 1067 22 is_stmt 0 discriminator 1 view .LVU2103
 7092 02be 0431     		adds	r1, r1, #4
 7093 02c0 9E42     		cmp	r6, r3
 7094 02c2 B8BF     		it	lt
 7095 02c4 1E46     		movlt	r6, r3
 7096              	.LVL564:
1067:src/main.cpp  ****             delta[i]=(int32_t)baseline[i]-(int32_t)data[i];
 7097              		.loc 6 1067 9 is_stmt 1 discriminator 1 view .LVU2104
1067:src/main.cpp  ****             delta[i]=(int32_t)baseline[i]-(int32_t)data[i];
 7098              		.loc 6 1067 22 discriminator 1 view .LVU2105
 7099 02c6 9145     		cmp	r9, r2
ARM GAS  /tmp/claude-502/ccZj3JyB.s 			page 186


 7100 02c8 F0D1     		bne	.L416
 7101              	.L645:
1067:src/main.cpp  ****             delta[i]=(int32_t)baseline[i]-(int32_t)data[i];
 7102              		.loc 6 1067 22 is_stmt 0 discriminator 1 view .LVU2106
 7103              	.LBE1305:
1071:src/main.cpp  ****         }
1072:src/main.cpp  **** 
1073:src/main.cpp  ****         int n_raw=detect_raw(delta,raw);
 7104              		.loc 6 1073 9 is_stmt 1 view .LVU2107
 7105              		.loc 6 1073 29 is_stmt 0 view .LVU2108
 7106 02ca 33A9     		add	r1, sp, #204
 7107 02cc 3DA8     		add	r0, sp, #244
 7108 02ce FFF7FEFF 		bl	_Z10detect_rawPlP6Finger
 7109              	.LVL565:
1074:src/main.cpp  ****         bool touching=(n_raw>0);
 7110              		.loc 6 1074 9 is_stmt 1 view .LVU2109
1075:src/main.cpp  **** 
1076:src/main.cpp  ****         // ŌöĆŌöĆ Auto-rebaseline ŌöĆŌöĆŌöĆŌöĆŌöĆŌöĆŌöĆŌöĆŌöĆŌöĆŌöĆŌöĆŌöĆŌöĆŌöĆŌöĆŌöĆŌöĆŌöĆŌöĆŌöĆŌö
1077:src/main.cpp  ****         if(touching){
 7111              		.loc 6 1077 9 view .LVU2110
 7112 02d2 051E     		subs	r5, r0, #0
 7113 02d4 40F38E82 		ble	.L417
1078:src/main.cpp  ****             idle_since=System::GetNow();
 7114              		.loc 6 1078 13 view .LVU2111
 7115              		.loc 6 1078 38 is_stmt 0 view .LVU2112
 7116 02d8 FFF7FEFF 		bl	_ZN5daisy6System6GetNowEv
 7117              	.LVL566:
 7118              		.loc 6 1078 38 view .LVU2113
 7119 02dc 0690     		str	r0, [sp, #24]
 7120              	.LVL567:
1079:src/main.cpp  ****         } else {
1080:src/main.cpp  ****             if(System::GetNow()-idle_since>=REBASELINE_IDLE_MS){
1081:src/main.cpp  ****                 tracked[0].alive=tracked[1].alive=false;
1082:src/main.cpp  ****                 capture_baseline(baseline);
1083:src/main.cpp  ****                 hw.PrintLine("[rebaseline]");
1084:src/main.cpp  ****                 idle_since=System::GetNow();
1085:src/main.cpp  ****             }
1086:src/main.cpp  ****         }
1087:src/main.cpp  **** 
1088:src/main.cpp  ****         // ŌöĆŌöĆ 5 s idle ŌåÆ chase + FSR recalibration, loops until touch ŌöĆŌöĆŌöĆŌöĆŌöĆŌöĆŌöĆŌö
1089:src/main.cpp  ****         if(touching){
 7121              		.loc 6 1089 9 is_stmt 1 view .LVU2114
1090:src/main.cpp  ****             last_touch_ms = System::GetNow();
 7122              		.loc 6 1090 13 view .LVU2115
 7123              		.loc 6 1090 43 is_stmt 0 view .LVU2116
 7124 02de FFF7FEFF 		bl	_ZN5daisy6System6GetNowEv
 7125              	.LVL568:
 7126              		.loc 6 1090 43 view .LVU2117
 7127 02e2 0890     		str	r0, [sp, #32]
 7128              	.LVL569:
 7129              	.L418:
1091:src/main.cpp  ****         } else if(System::GetNow() - last_touch_ms >= 5000){
1092:src/main.cpp  ****             idle_chase_and_calibrate();
1093:src/main.cpp  ****             last_touch_ms = System::GetNow();
1094:src/main.cpp  ****             idle_since    = System::GetNow();
1095:src/main.cpp  ****             hw.PrintLine("[fsr recal] fsr_max=%d", (int)fsr_max);
1096:src/main.cpp  ****         }
ARM GAS  /tmp/claude-502/ccZj3JyB.s 			page 187


1097:src/main.cpp  **** 
1098:src/main.cpp  ****         update_tracked(raw,n_raw);
 7130              		.loc 6 1098 9 is_stmt 1 view .LVU2118
 7131              		.loc 6 1098 23 is_stmt 0 view .LVU2119
 7132 02e4 2946     		mov	r1, r5
 7133 02e6 33A8     		add	r0, sp, #204
 7134 02e8 FFF7FEFF 		bl	_Z14update_trackedP6Fingeri
 7135              	.LVL570:
1099:src/main.cpp  **** 
1100:src/main.cpp  ****         // ŌöĆŌöĆ Finger 1 ŌåÆ Pitch + Filter cutoff + Vibrato ŌöĆŌöĆŌöĆŌöĆŌöĆŌöĆŌöĆŌöĆŌöĆŌöĆŌöĆŌöĆ
1101:src/main.cpp  ****         bool f1_on = tracked[0].alive;
 7136              		.loc 6 1101 9 is_stmt 1 view .LVU2120
 7137              		.loc 6 1101 14 is_stmt 0 view .LVU2121
 7138 02ec 98F80030 		ldrb	r3, [r8]	@ zero_extendqisi2
 7139 02f0 0793     		str	r3, [sp, #28]
 7140              	.LVL571:
1102:src/main.cpp  ****         if(f1_on) f1_last_seen_ms = System::GetNow();
 7141              		.loc 6 1102 9 is_stmt 1 view .LVU2122
 7142 02f2 002B     		cmp	r3, #0
 7143 02f4 40F08C83 		bne	.L647
1103:src/main.cpp  ****         bool f1_fresh = !f1_was_on && (System::GetNow() - f1_last_seen_ms >= F1_REQUANTIZE_MS);
 7144              		.loc 6 1103 9 view .LVU2123
 7145              		.loc 6 1103 36 is_stmt 0 view .LVU2124
 7146 02f8 059B     		ldr	r3, [sp, #20]
 7147              	.LVL572:
 7148              		.loc 6 1103 36 view .LVU2125
 7149 02fa 002B     		cmp	r3, #0
 7150 02fc 00F0B786 		beq	.L648
 7151              	.L530:
 7152              	.LBB1306:
1104:src/main.cpp  **** 
1105:src/main.cpp  ****         if(f1_on)
1106:src/main.cpp  ****         {
1107:src/main.cpp  ****             float pos01 = clampf((float)tracked[0].pos / 1000.0f, 0.0f, 1.0f);
1108:src/main.cpp  ****             float prs01 = clampf((float)tracked[0].pressure / 100.0f, 0.0f, 1.0f); // hard clamp
1109:src/main.cpp  **** 
1110:src/main.cpp  ****             // ŌöĆŌöĆ Direct exponential frequency mapping across the voice range ŌöĆŌöĆ
1111:src/main.cpp  ****             // freq = freq_low * (freq_high/freq_low)^pos01
1112:src/main.cpp  ****             //      = freq_low * e^(pos01 * log_freq_ratio)
1113:src/main.cpp  ****             float earg = pos01 * VOICE.log_freq_ratio;
1114:src/main.cpp  ****             float ex   = 1.0f + earg*(1.0f + earg*(0.5f + earg*0.1667f));
1115:src/main.cpp  ****             float freq_continuous = clampf(VOICE.freq_low * ex, VOICE.freq_low, VOICE.freq_high);
1116:src/main.cpp  **** 
1117:src/main.cpp  ****             // Convert to MIDI for quantizer: midi = 69 + 12*log2(freq/440)
1118:src/main.cpp  ****             // log2(x) = ln(x)/ln(2); ln approx via y=(x-1)/(x+1) series
1119:src/main.cpp  ****             float freq_ratio = freq_continuous / 440.0f;
1120:src/main.cpp  ****             float y = (freq_ratio - 1.0f) / (freq_ratio + 1.0f);
1121:src/main.cpp  ****             float y2 = y*y;
1122:src/main.cpp  ****             float ln_ratio = 2.0f*y*(1.0f + y2*(0.3333f + y2*0.2f));
1123:src/main.cpp  ****             float midi_raw = 69.0f + 17.3123f * ln_ratio; // 17.3123 = 12/ln(2)
1124:src/main.cpp  **** 
1125:src/main.cpp  ****             float freq; // final frequency to use
1126:src/main.cpp  **** 
1127:src/main.cpp  ****             if(QUANTIZE_ENABLED && f1_fresh)
1128:src/main.cpp  ****             {
1129:src/main.cpp  ****                 // Touch-down: snap to nearest chromatic note
1130:src/main.cpp  ****                 f1_midi_base = quantize_midi(midi_raw);
ARM GAS  /tmp/claude-502/ccZj3JyB.s 			page 188


1131:src/main.cpp  ****                 // Convert quantized MIDI back to Hz
1132:src/main.cpp  ****                 float qe = (f1_midi_base - 69.0f) * 0.05776f;
1133:src/main.cpp  ****                 freq = clampf(440.0f*(1.0f+qe*(1.0f+qe*(0.5f+qe*0.1667f))), VOICE.freq_low, VOICE.f
1134:src/main.cpp  ****                 f1_sliding = false;
1135:src/main.cpp  ****             }
1136:src/main.cpp  ****             else
1137:src/main.cpp  ****             {
1138:src/main.cpp  ****                 // Sliding or quantize disabled: follow continuous frequency directly
1139:src/main.cpp  ****                 f1_midi_base = f1_midi_base*0.88f + midi_raw*0.12f;
1140:src/main.cpp  ****                 freq = freq_continuous;
1141:src/main.cpp  ****                 f1_sliding = true;
1142:src/main.cpp  ****             }
1143:src/main.cpp  ****             freq = clampf(freq, VOICE.freq_low, VOICE.freq_high);
1144:src/main.cpp  **** 
1145:src/main.cpp  ****             // Cutoff: base tracks 2├Ś pitch, pressure opens it up
1146:src/main.cpp  ****             // Light press = 1├Ś pitch (dark, Moog-like tracking)
1147:src/main.cpp  ****             // Hard press = up to 12000 Hz (wide open)
1148:src/main.cpp  ****             // ŌöĆŌöĆ Moog-style exponential cutoff ŌöĆŌöĆŌöĆŌöĆŌöĆŌöĆŌöĆŌöĆŌöĆŌöĆŌöĆŌöĆŌöĆŌöĆŌöĆŌö
1149:src/main.cpp  ****             // At zero pressure: cutoff = 0.5x pitch (below fundamental, very dark)
1150:src/main.cpp  ****             // At full pressure: cutoff = 0.5x * 2^(6*prs) ŌĆö exponential opening
1151:src/main.cpp  ****             // 6 octaves of sweep = factor of 64x, so fully open = 32x pitch
1152:src/main.cpp  ****             // This gives the classic Moog "closed ŌåÆ wah ŌåÆ bright" feel.
1153:src/main.cpp  ****             // Power-3 on pressure so the bottom half stays dark and controlled.
1154:src/main.cpp  ****             // ŌöĆŌöĆ Smootherstep pressure curves (6xŌüĄ - 15xŌü┤ + 10x┬│) ŌöĆŌöĆŌöĆŌöĆŌöĆŌöĆŌöĆŌö
1155:src/main.cpp  ****             // Starts slow, steep in the middle, eases gently at the top.
1156:src/main.cpp  ****             // Much more playable than power curves ŌĆö feels like a real knob.
1157:src/main.cpp  ****             auto smoothstep = [](float x) -> float {
1158:src/main.cpp  ****                 x = x<0?0:x>1?1:x;
1159:src/main.cpp  ****                 return x*x*(3.0f - 2.0f*x);
1160:src/main.cpp  ****             };
1161:src/main.cpp  ****             auto smootherstep = [](float x) -> float {
1162:src/main.cpp  ****                 x = x<0?0:x>1?1:x;
1163:src/main.cpp  ****                 return x*x*x*(x*(x*6.0f - 15.0f) + 10.0f);
1164:src/main.cpp  ****             };
1165:src/main.cpp  **** 
1166:src/main.cpp  ****             // Cutoff: smootherstep ŌĆö very dark at low, dramatic in mid, eases at top.
1167:src/main.cpp  ****             // Base cutoff and sweep depth are voice-defined.
1168:src/main.cpp  ****             float prs_cut  = smootherstep(prs01);
1169:src/main.cpp  ****             float cutoff_oct = VOICE.cutoff_oct_max * prs_cut;
1170:src/main.cpp  ****             float oct_arg  = cutoff_oct * 0.6931f;
1171:src/main.cpp  ****             float oct_mult = 1.0f + oct_arg*(1.0f + oct_arg*(0.5f + oct_arg*(0.1667f + oct_arg*0.04
1172:src/main.cpp  ****             // Keytracking: how much the cutoff base follows pitch. keytrack=1 is
1173:src/main.cpp  ****             // full tracking (cutoff ŌłØ freq); <1 holds the cutoff lower as pitch
1174:src/main.cpp  ****             // rises, for a more consistent tone across the range. (constexpr ŌåÆ
1175:src/main.cpp  ****             // the common keytrack=1 case folds to no powf.)
1176:src/main.cpp  ****             float track_freq = (VOICE.keytrack >= 0.999f)
1177:src/main.cpp  ****                 ? freq
1178:src/main.cpp  ****                 : VOICE.freq_low * powf(freq / VOICE.freq_low, VOICE.keytrack);
1179:src/main.cpp  ****             float cutoff   = clampf(track_freq * VOICE.cutoff_mult * oct_mult, 20.0f, 18000.0f);
1180:src/main.cpp  **** 
1181:src/main.cpp  ****             // Vibrato: smoothstep, only activates above 60% pressure
1182:src/main.cpp  ****             float vib_in = clampf((prs01 - 0.6f) / 0.4f, 0.0f, 1.0f);
1183:src/main.cpp  ****             float vib    = smoothstep(vib_in) * 0.8f;
1184:src/main.cpp  **** 
1185:src/main.cpp  ****             // Drive: smoothstep ŌĆö clean at low, progressively warmer (voice-defined max)
1186:src/main.cpp  ****             float drive = 1.0f + smoothstep(prs01) * VOICE.drive_max;
1187:src/main.cpp  **** 
ARM GAS  /tmp/claude-502/ccZj3JyB.s 			page 189


1188:src/main.cpp  ****             g_target_freq    = freq;
1189:src/main.cpp  ****             g_target_cutoff  = cutoff;
1190:src/main.cpp  ****             g_vibrato_depth  = vib;
1191:src/main.cpp  ****             g_target_drive   = drive;
1192:src/main.cpp  ****             g_finger_on      = true;
1193:src/main.cpp  ****             g_amp_target     = 0.72f;
1194:src/main.cpp  **** 
1195:src/main.cpp  ****         }
1196:src/main.cpp  ****         else
1197:src/main.cpp  ****         {
1198:src/main.cpp  ****             // Finger lifted: gate off, reset slide state
1199:src/main.cpp  ****             f1_sliding = false;
 7153              		.loc 6 1199 13 is_stmt 1 view .LVU2126
 7154              	.LVL573:
1200:src/main.cpp  ****             g_finger_on  = false;
 7155              		.loc 6 1200 13 view .LVU2127
1201:src/main.cpp  ****             g_amp_target = 0.0f;
 7156              		.loc 6 1201 26 is_stmt 0 view .LVU2128
 7157 0300 1FED1B6A 		vldr.32	s12, .L665+108
1200:src/main.cpp  ****             g_finger_on  = false;
 7158              		.loc 6 1200 26 view .LVU2129
 7159 0304 0023     		movs	r3, #0
 7160 0306 734A     		ldr	r2, .L667
 7161              		.loc 6 1201 26 view .LVU2130
 7162 0308 F0EE467A 		vmov.f32	s15, s12
 7163              	.LBE1306:
 7164              	.LBB1369:
 7165              	.LBB1370:
1202:src/main.cpp  ****             // Do NOT reset cutoff here ŌĆö let it close with the amplitude
1203:src/main.cpp  ****             // in the audio callback to avoid discontinuity clicks
1204:src/main.cpp  ****         }
1205:src/main.cpp  **** 
1206:src/main.cpp  ****         // ŌöĆŌöĆ LED targets + slew ŌöĆŌöĆŌöĆŌöĆŌöĆŌöĆŌöĆŌöĆŌöĆŌöĆŌöĆŌöĆŌöĆŌöĆŌöĆŌöĆŌöĆŌöĆŌöĆŌöĆŌö
1207:src/main.cpp  ****         // Three-LED position indicator. Linear "tents" hand off cleanly:
1208:src/main.cpp  ****         //   LED1 (DAC1, middle)       ŌåÆ 1 - 2*|p - 0.5|
1209:src/main.cpp  ****         //   LED2 (DAC2, pos 0 end)    ŌåÆ max(0, 1 - 2*p)
1210:src/main.cpp  ****         //   LED3 (PWM A0, pos 1 end)  ŌåÆ max(0, 2*p - 1)
1211:src/main.cpp  ****         // Fourth-root curve (gamma=0.25) keeps each LED above its forward-voltage
1212:src/main.cpp  ****         // floor at the handoff points (50% raw ŌåÆ ~84% drive). Pressure adds a
1213:src/main.cpp  ****         // subtle ~75%ŌåÆ100% intensity scale.
1214:src/main.cpp  ****         float led1_target = 0.0f, led2_target = 0.0f, led3_target = 0.0f;
1215:src/main.cpp  ****         if(f1_on) {
1216:src/main.cpp  ****             float p01      = clampf((float)tracked[0].pos / 1000.0f, 0.0f, 1.0f);
1217:src/main.cpp  ****             float pr01     = clampf((float)tracked[0].pressure / 100.0f, 0.0f, 1.0f);
1218:src/main.cpp  ****             float prs_mult = 0.75f + 0.25f * pr01;
1219:src/main.cpp  ****             float l1_raw   = 1.0f - 2.0f * p01;                 if(l1_raw < 0) l1_raw = 0;
1220:src/main.cpp  ****             float l3_raw   = 2.0f * p01 - 1.0f;                 if(l3_raw < 0) l3_raw = 0;
1221:src/main.cpp  ****             float l2_raw   = 1.0f - 2.0f * fabsf(p01 - 0.5f);   if(l2_raw < 0) l2_raw = 0;
1222:src/main.cpp  ****             led1_target    = sqrtf(sqrtf(l2_raw)) * prs_mult;  // middle tent
1223:src/main.cpp  ****             led2_target    = sqrtf(sqrtf(l1_raw)) * prs_mult;  // pos 0 ramp
1224:src/main.cpp  ****             led3_target    = sqrtf(sqrtf(l3_raw)) * prs_mult * LED3_INTENSITY;
1225:src/main.cpp  ****         }
1226:src/main.cpp  ****         // Snap on touch onset so the LEDs respond instantly to the initial touch;
1227:src/main.cpp  ****         // smooth during sustained touch and on lift-off.
1228:src/main.cpp  ****         if(f1_on && !f1_was_on) {
1229:src/main.cpp  ****             s_led1 = led1_target;
1230:src/main.cpp  ****             s_led2 = led2_target;
ARM GAS  /tmp/claude-502/ccZj3JyB.s 			page 190


1231:src/main.cpp  ****             s_led3 = led3_target;
1232:src/main.cpp  ****         } else {
1233:src/main.cpp  ****             float smooth3 = f1_on ? LED_SMOOTH : LED3_RELEASE_SMOOTH;
 7166              		.loc 6 1233 35 view .LVU2131
 7167 030c DFED725A 		vldr.32	s11, .L667+4
 7168              	.LBE1370:
 7169              	.LBE1369:
 7170              	.LBB1373:
1201:src/main.cpp  ****             g_amp_target = 0.0f;
 7171              		.loc 6 1201 26 view .LVU2132
 7172 0310 F0EE466A 		vmov.f32	s13, s12
1200:src/main.cpp  ****             g_amp_target = 0.0f;
 7173              		.loc 6 1200 26 view .LVU2133
 7174 0314 1370     		strb	r3, [r2]
1201:src/main.cpp  ****             g_amp_target = 0.0f;
 7175              		.loc 6 1201 13 is_stmt 1 view .LVU2134
1201:src/main.cpp  ****             g_amp_target = 0.0f;
 7176              		.loc 6 1201 26 is_stmt 0 view .LVU2135
 7177 0316 B0EE467A 		vmov.f32	s14, s12
 7178 031a 704B     		ldr	r3, .L667+8
 7179 031c 83ED006A 		vstr.32	s12, [r3]
 7180              	.LBE1373:
1214:src/main.cpp  ****         if(f1_on) {
 7181              		.loc 6 1214 9 is_stmt 1 view .LVU2136
 7182              	.LVL574:
1215:src/main.cpp  ****             float p01      = clampf((float)tracked[0].pos / 1000.0f, 0.0f, 1.0f);
 7183              		.loc 6 1215 9 view .LVU2137
1228:src/main.cpp  ****             s_led1 = led1_target;
 7184              		.loc 6 1228 9 view .LVU2138
 7185              	.L461:
 7186              	.LBB1374:
 7187              	.LBB1371:
1234:src/main.cpp  ****             s_led1 = s_led1 * LED_SMOOTH + led1_target * (1.0f - LED_SMOOTH);
 7188              		.loc 6 1234 13 discriminator 4 view .LVU2139
 7189              		.loc 6 1234 20 is_stmt 0 discriminator 4 view .LVU2140
 7190 0320 9FED6F6A 		vldr.32	s12, .L667+12
1235:src/main.cpp  ****             s_led2 = s_led2 * LED_SMOOTH + led2_target * (1.0f - LED_SMOOTH);
1236:src/main.cpp  ****             s_led3 = s_led3 * smooth3   + led3_target * (1.0f - smooth3);
 7191              		.loc 6 1236 20 discriminator 4 view .LVU2141
 7192 0324 E9EE257A 		vfma.f32	s15, s18, s11
1234:src/main.cpp  ****             s_led1 = s_led1 * LED_SMOOTH + led1_target * (1.0f - LED_SMOOTH);
 7193              		.loc 6 1234 20 discriminator 4 view .LVU2142
 7194 0328 A9EE867A 		vfma.f32	s14, s19, s12
1235:src/main.cpp  ****             s_led2 = s_led2 * LED_SMOOTH + led2_target * (1.0f - LED_SMOOTH);
 7195              		.loc 6 1235 20 discriminator 4 view .LVU2143
 7196 032c EAEE066A 		vfma.f32	s13, s20, s12
 7197              		.loc 6 1236 20 discriminator 4 view .LVU2144
 7198 0330 B0EE679A 		vmov.f32	s18, s15
 7199              	.LVL575:
1234:src/main.cpp  ****             s_led1 = s_led1 * LED_SMOOTH + led1_target * (1.0f - LED_SMOOTH);
 7200              		.loc 6 1234 20 discriminator 4 view .LVU2145
 7201 0334 F0EE479A 		vmov.f32	s19, s14
 7202              	.LVL576:
1235:src/main.cpp  ****             s_led2 = s_led2 * LED_SMOOTH + led2_target * (1.0f - LED_SMOOTH);
 7203              		.loc 6 1235 13 is_stmt 1 discriminator 4 view .LVU2146
1235:src/main.cpp  ****             s_led2 = s_led2 * LED_SMOOTH + led2_target * (1.0f - LED_SMOOTH);
 7204              		.loc 6 1235 20 is_stmt 0 discriminator 4 view .LVU2147
ARM GAS  /tmp/claude-502/ccZj3JyB.s 			page 191


 7205 0338 B0EE66AA 		vmov.f32	s20, s13
 7206              	.LVL577:
 7207              		.loc 6 1236 13 is_stmt 1 discriminator 4 view .LVU2148
 7208              	.L491:
 7209              		.loc 6 1236 13 is_stmt 0 discriminator 4 view .LVU2149
 7210              	.LBE1371:
 7211              	.LBE1374:
1237:src/main.cpp  ****         }
1238:src/main.cpp  ****         hw.dac.WriteValue(DacHandle::Channel::ONE, (uint16_t)(s_led1 * 4095.0f));
 7212              		.loc 6 1238 9 is_stmt 1 view .LVU2150
 7213              		.loc 6 1238 70 is_stmt 0 view .LVU2151
 7214 033c 9FED698A 		vldr.32	s16, .L667+16
 7215              		.loc 6 1238 26 view .LVU2152
 7216 0340 0021     		movs	r1, #0
 7217 0342 6948     		ldr	r0, .L667+20
 7218              		.loc 6 1238 70 view .LVU2153
 7219 0344 69EE887A 		vmul.f32	s15, s19, s16
 7220              		.loc 6 1238 26 view .LVU2154
 7221 0348 FCEEE77A 		vcvt.u32.f32	s15, s15
 7222 034c 17EE903A 		vmov	r3, s15	@ int
 7223 0350 9AB2     		uxth	r2, r3
 7224 0352 FFF7FEFF 		bl	_ZN5daisy9DacHandle10WriteValueENS0_7ChannelEt
 7225              	.LVL578:
1239:src/main.cpp  ****         hw.dac.WriteValue(DacHandle::Channel::TWO, (uint16_t)(s_led2 * 4095.0f));
 7226              		.loc 6 1239 9 is_stmt 1 view .LVU2155
 7227              		.loc 6 1239 70 is_stmt 0 view .LVU2156
 7228 0356 6AEE087A 		vmul.f32	s15, s20, s16
 7229              		.loc 6 1239 26 view .LVU2157
 7230 035a 0121     		movs	r1, #1
 7231 035c 6248     		ldr	r0, .L667+20
 7232 035e FCEEE77A 		vcvt.u32.f32	s15, s15
 7233 0362 17EE903A 		vmov	r3, s15	@ int
 7234 0366 9AB2     		uxth	r2, r3
 7235 0368 FFF7FEFF 		bl	_ZN5daisy9DacHandle10WriteValueENS0_7ChannelEt
 7236              	.LVL579:
1240:src/main.cpp  ****         g_led3_duty = s_led3;  // audio callback sigma-delta's this onto A0
 7237              		.loc 6 1240 9 is_stmt 1 view .LVU2158
 7238              		.loc 6 1240 21 is_stmt 0 view .LVU2159
 7239 036c 5F4B     		ldr	r3, .L667+24
 7240 036e 83ED009A 		vstr.32	s18, [r3]
1241:src/main.cpp  **** 
1242:src/main.cpp  ****         f1_was_on = f1_on;
 7241              		.loc 6 1242 9 is_stmt 1 view .LVU2160
 7242              	.LVL580:
1243:src/main.cpp  **** 
1244:src/main.cpp  ****         // ŌöĆŌöĆ Finger 2 ŌåÆ Detune + Bitcrush + Ring mod ŌöĆŌöĆŌöĆŌöĆŌöĆŌöĆŌöĆŌöĆŌöĆŌöĆŌöĆŌöĆŌöĆ
1245:src/main.cpp  ****         if(tracked[1].alive)
 7243              		.loc 6 1245 9 view .LVU2161
 7244              	.LBB1375:
 7245 0372 98F81430 		ldrb	r3, [r8, #20]	@ zero_extendqisi2
 7246 0376 002B     		cmp	r3, #0
 7247 0378 00F0CC80 		beq	.L492
 7248              	.LBB1376:
1246:src/main.cpp  ****         {
1247:src/main.cpp  ****             float pos01 = clampf((float)tracked[1].pos / 1000.0f, 0.0f, 1.0f);
 7249              		.loc 6 1247 13 view .LVU2162
 7250              		.loc 6 1247 34 is_stmt 0 view .LVU2163
ARM GAS  /tmp/claude-502/ccZj3JyB.s 			page 192


 7251 037c D8ED067A 		vldr.32	s15, [r8, #24]	@ int
 7252              		.loc 6 1247 33 view .LVU2164
 7253 0380 DFED5B6A 		vldr.32	s13, .L667+28
 7254              		.loc 6 1247 34 view .LVU2165
 7255 0384 F8EEE77A 		vcvt.f32.s32	s15, s15
 7256              		.loc 6 1247 33 view .LVU2166
 7257 0388 87EEA67A 		vdiv.f32	s14, s15, s13
 7258              	.LVL581:
 7259              	.LBB1377:
 7260              	.LBI1377:
 470:src/main.cpp  ****     return v<lo?lo:v>hi?hi:v;
 7261              		.loc 6 470 21 is_stmt 1 view .LVU2167
 7262              	.LBB1378:
 471:src/main.cpp  **** }
 7263              		.loc 6 471 5 view .LVU2168
 471:src/main.cpp  **** }
 7264              		.loc 6 471 16 is_stmt 0 view .LVU2169
 7265 038c B5EEC07A 		vcmpe.f32	s14, #0
 7266 0390 F1EE10FA 		vmrs	APSR_nzcv, FPSCR
 7267 0394 00F1FB84 		bmi	.L562
 471:src/main.cpp  **** }
 7268              		.loc 6 471 24 view .LVU2170
 7269 0398 F7EE007A 		vmov.f32	s15, #1.0e+0
 7270 039c B4EEE77A 		vcmpe.f32	s14, s15
 7271 03a0 F1EE10FA 		vmrs	APSR_nzcv, FPSCR
 7272 03a4 00F31A86 		bgt	.L563
 7273              	.LBE1378:
 7274              	.LBE1377:
1248:src/main.cpp  ****             float prs01 = clampf((float)tracked[1].pressure / 100.0f, 0.0f, 1.0f); // hard clamp
1249:src/main.cpp  **** 
1250:src/main.cpp  ****             // Detune: finger 2 position maps to ┬▒7 semitones (┬▒1 fifth)
1251:src/main.cpp  ****             // Centre (pos=0.5) = no detune, left = flat, right = sharp
1252:src/main.cpp  ****             float detune_pos  = (pos01 - 0.5f) * 3.0f;  // ┬▒1.5 semitones raw
 7275              		.loc 6 1252 40 view .LVU2171
 7276 03a8 F6EE007A 		vmov.f32	s15, #5.0e-1
 7277              		.loc 6 1252 19 view .LVU2172
 7278 03ac B0EE086A 		vmov.f32	s12, #3.0e+0
 7279              		.loc 6 1252 40 view .LVU2173
 7280 03b0 37EE677A 		vsub.f32	s14, s14, s15
 7281              	.LVL582:
 7282              		.loc 6 1252 19 view .LVU2174
 7283 03b4 27EE066A 		vmul.f32	s12, s14, s12
 7284              	.L493:
 7285              	.LVL583:
1248:src/main.cpp  ****             float prs01 = clampf((float)tracked[1].pressure / 100.0f, 0.0f, 1.0f); // hard clamp
 7286              		.loc 6 1248 13 is_stmt 1 view .LVU2175
1248:src/main.cpp  ****             float prs01 = clampf((float)tracked[1].pressure / 100.0f, 0.0f, 1.0f); // hard clamp
 7287              		.loc 6 1248 34 is_stmt 0 view .LVU2176
 7288 03b8 D8ED077A 		vldr.32	s15, [r8, #28]	@ int
1248:src/main.cpp  ****             float prs01 = clampf((float)tracked[1].pressure / 100.0f, 0.0f, 1.0f); // hard clamp
 7289              		.loc 6 1248 33 view .LVU2177
 7290 03bc DFED4D6A 		vldr.32	s13, .L667+32
1248:src/main.cpp  ****             float prs01 = clampf((float)tracked[1].pressure / 100.0f, 0.0f, 1.0f); // hard clamp
 7291              		.loc 6 1248 34 view .LVU2178
 7292 03c0 B8EEE77A 		vcvt.f32.s32	s14, s15
1248:src/main.cpp  ****             float prs01 = clampf((float)tracked[1].pressure / 100.0f, 0.0f, 1.0f); // hard clamp
 7293              		.loc 6 1248 33 view .LVU2179
ARM GAS  /tmp/claude-502/ccZj3JyB.s 			page 193


 7294 03c4 C7EE267A 		vdiv.f32	s15, s14, s13
 7295              	.LVL584:
 7296              	.LBB1382:
 7297              	.LBI1382:
 470:src/main.cpp  ****     return v<lo?lo:v>hi?hi:v;
 7298              		.loc 6 470 21 is_stmt 1 view .LVU2180
 7299              	.LBB1383:
 471:src/main.cpp  **** }
 7300              		.loc 6 471 5 view .LVU2181
 471:src/main.cpp  **** }
 7301              		.loc 6 471 16 is_stmt 0 view .LVU2182
 7302 03c8 F5EEC07A 		vcmpe.f32	s15, #0
 7303 03cc F1EE10FA 		vmrs	APSR_nzcv, FPSCR
 7304 03d0 00F1B984 		bmi	.L564
 471:src/main.cpp  **** }
 7305              		.loc 6 471 24 view .LVU2183
 7306 03d4 F7EE006A 		vmov.f32	s13, #1.0e+0
 7307 03d8 F4EEE67A 		vcmpe.f32	s15, s13
 7308 03dc F1EE10FA 		vmrs	APSR_nzcv, FPSCR
 7309 03e0 40F38F84 		ble	.L649
 7310              	.LVL585:
 471:src/main.cpp  **** }
 7311              		.loc 6 471 24 view .LVU2184
 7312 03e4 F0EE667A 		vmov.f32	s15, s13
 7313              	.LVL586:
 7314              	.L494:
 471:src/main.cpp  **** }
 7315              		.loc 6 471 24 view .LVU2185
 7316              	.LBE1383:
 7317              	.LBE1382:
 7318              		.loc 6 1252 13 is_stmt 1 view .LVU2186
1253:src/main.cpp  **** 
1254:src/main.cpp  ****             // Wavefold: smootherstep ŌĆö barely there until deliberate pressure
1255:src/main.cpp  ****             auto smootherstep2 = [](float x) -> float {
 7319              		.loc 6 1255 13 view .LVU2187
1256:src/main.cpp  ****                 x = x<0?0:x>1?1:x;
1257:src/main.cpp  ****                 return x*x*x*(x*(x*6.0f - 15.0f) + 10.0f);
1258:src/main.cpp  ****             };
1259:src/main.cpp  ****             // Apply smootherstep twice and cap at 0.20 ŌĆö effect only arrives
1260:src/main.cpp  ****             // with real deliberate pressure, stays subtle even at max
1261:src/main.cpp  ****             float ss2 = smootherstep2(prs01);
 7320              		.loc 6 1261 13 view .LVU2188
 7321              	.LBB1385:
 7322              	.LBI1385:
1161:src/main.cpp  ****                 x = x<0?0:x>1?1:x;
 7323              		.loc 6 1161 33 view .LVU2189
 7324              	.LBB1386:
1162:src/main.cpp  ****                 return x*x*x*(x*(x*6.0f - 15.0f) + 10.0f);
 7325              		.loc 6 1162 17 view .LVU2190
1163:src/main.cpp  ****             };
 7326              		.loc 6 1163 17 view .LVU2191
1163:src/main.cpp  ****             };
 7327              		.loc 6 1163 17 is_stmt 0 view .LVU2192
 7328              	.LBE1386:
 7329              	.LBE1385:
1262:src/main.cpp  ****             float ss3 = smootherstep2(ss2);   // triple smootherstep ŌĆö very lazy
 7330              		.loc 6 1262 13 is_stmt 1 view .LVU2193
ARM GAS  /tmp/claude-502/ccZj3JyB.s 			page 194


 7331              	.LBB1393:
 7332              	.LBI1393:
1161:src/main.cpp  ****                 x = x<0?0:x>1?1:x;
 7333              		.loc 6 1161 33 view .LVU2194
 7334              	.LBB1394:
1162:src/main.cpp  ****                 return x*x*x*(x*(x*6.0f - 15.0f) + 10.0f);
 7335              		.loc 6 1162 17 view .LVU2195
1162:src/main.cpp  ****                 return x*x*x*(x*(x*6.0f - 15.0f) + 10.0f);
 7336              		.loc 6 1162 17 is_stmt 0 view .LVU2196
 7337              	.LBE1394:
 7338              	.LBE1393:
 7339              	.LBB1398:
 7340              	.LBB1379:
 7341 03e8 B0EE677A 		vmov.f32	s14, s15
 7342              	.L538:
 7343              	.LVL587:
1162:src/main.cpp  ****                 return x*x*x*(x*(x*6.0f - 15.0f) + 10.0f);
 7344              		.loc 6 1162 17 view .LVU2197
 7345              	.LBE1379:
 7346              	.LBE1398:
 7347              	.LBB1399:
 7348              	.LBB1395:
1163:src/main.cpp  ****             };
 7349              		.loc 6 1163 17 is_stmt 1 view .LVU2198
1163:src/main.cpp  ****             };
 7350              		.loc 6 1163 41 is_stmt 0 view .LVU2199
 7351 03ec FAEE0E5A 		vmov.f32	s11, #-1.5e+1
 7352 03f0 B1EE084A 		vmov.f32	s8, #6.0e+0
1163:src/main.cpp  ****             };
 7353              		.loc 6 1163 50 view .LVU2200
 7354 03f4 B2EE045A 		vmov.f32	s10, #1.0e+1
1163:src/main.cpp  ****             };
 7355              		.loc 6 1163 41 view .LVU2201
 7356 03f8 F0EE653A 		vmov.f32	s7, s11
1163:src/main.cpp  ****             };
 7357              		.loc 6 1163 25 view .LVU2202
 7358 03fc 67EE076A 		vmul.f32	s13, s14, s14
1163:src/main.cpp  ****             };
 7359              		.loc 6 1163 50 view .LVU2203
 7360 0400 F0EE454A 		vmov.f32	s9, s10
1163:src/main.cpp  ****             };
 7361              		.loc 6 1163 41 view .LVU2204
 7362 0404 E7EE043A 		vfma.f32	s7, s14, s8
1163:src/main.cpp  ****             };
 7363              		.loc 6 1163 27 view .LVU2205
 7364 0408 66EE876A 		vmul.f32	s13, s13, s14
1163:src/main.cpp  ****             };
 7365              		.loc 6 1163 50 view .LVU2206
 7366 040c E3EE874A 		vfma.f32	s9, s7, s14
1163:src/main.cpp  ****             };
 7367              		.loc 6 1163 57 view .LVU2207
 7368 0410 66EEA46A 		vmul.f32	s13, s13, s9
 7369              	.LVL588:
1163:src/main.cpp  ****             };
 7370              		.loc 6 1163 57 view .LVU2208
 7371              	.LBE1395:
 7372              	.LBE1399:
ARM GAS  /tmp/claude-502/ccZj3JyB.s 			page 195


1263:src/main.cpp  ****             float bc  = smootherstep2(ss3) * VOICE.fold_max; // ceiling is voice-defined
 7373              		.loc 6 1263 13 is_stmt 1 view .LVU2209
 7374              	.LBB1400:
 7375              	.LBI1400:
1161:src/main.cpp  ****                 x = x<0?0:x>1?1:x;
 7376              		.loc 6 1161 33 view .LVU2210
 7377              	.LBB1401:
1162:src/main.cpp  ****                 return x*x*x*(x*(x*6.0f - 15.0f) + 10.0f);
 7378              		.loc 6 1162 17 view .LVU2211
1162:src/main.cpp  ****                 return x*x*x*(x*(x*6.0f - 15.0f) + 10.0f);
 7379              		.loc 6 1162 24 is_stmt 0 view .LVU2212
 7380 0414 F5EEC06A 		vcmpe.f32	s13, #0
 7381 0418 F1EE10FA 		vmrs	APSR_nzcv, FPSCR
 7382 041c 40F13185 		bpl	.L632
 7383              	.LBE1401:
 7384              	.LBE1400:
1264:src/main.cpp  **** 
1265:src/main.cpp  ****             // Detune: smoothstep on position offset from centre
1266:src/main.cpp  ****             auto smoothstep2 = [](float x) -> float {
1267:src/main.cpp  ****                 x = x<0?0:x>1?1:x;
1268:src/main.cpp  ****                 return x*x*(3.0f - 2.0f*x);
1269:src/main.cpp  ****             };
1270:src/main.cpp  ****             // Detune amount scales with pressure via smoothstep ŌĆö no detune at low pressure
1271:src/main.cpp  ****             float det_prs = smoothstep2(prs01);
1272:src/main.cpp  **** 
1273:src/main.cpp  ****             // Ring mod: smoothstep, only above 85% pressure (ceiling voice-defined)
1274:src/main.cpp  ****             float rm_in = clampf((prs01 - 0.85f) / 0.15f, 0.0f, 1.0f);
 7385              		.loc 6 1274 41 view .LVU2213
 7386 0420 DFED356A 		vldr.32	s13, .L667+36
 7387              	.LVL589:
 7388              		.loc 6 1274 33 view .LVU2214
 7389 0424 9FED355A 		vldr.32	s10, .L667+40
 7390              		.loc 6 1274 41 view .LVU2215
 7391 0428 77EEE66A 		vsub.f32	s13, s15, s13
 7392              		.loc 6 1274 33 view .LVU2216
 7393 042c 9FED347A 		vldr.32	s14, .L667+44
 7394              	.LVL590:
 7395              		.loc 6 1274 33 view .LVU2217
 7396 0430 C6EE855A 		vdiv.f32	s11, s13, s10
 7397              	.L498:
 7398              	.LBB1409:
 7399              	.LBB1402:
1163:src/main.cpp  ****             };
 7400              		.loc 6 1163 17 is_stmt 1 view .LVU2218
 7401              	.LBE1402:
 7402              	.LBE1409:
1263:src/main.cpp  **** 
 7403              		.loc 6 1263 52 is_stmt 0 view .LVU2219
 7404 0434 049A     		ldr	r2, [sp, #16]
 7405              	.LBB1410:
 7406              	.LBB1411:
1267:src/main.cpp  ****                 return x*x*(3.0f - 2.0f*x);
 7407              		.loc 6 1267 24 view .LVU2220
 7408 0436 9FED325A 		vldr.32	s10, .L667+44
 7409              	.LBE1411:
 7410              	.LBE1410:
1263:src/main.cpp  **** 
ARM GAS  /tmp/claude-502/ccZj3JyB.s 			page 196


 7411              		.loc 6 1263 52 view .LVU2221
 7412 043a C2EBC203 		rsb	r3, r2, r2, lsl #3
 7413 043e 3149     		ldr	r1, .L667+48
 7414 0440 D400     		lsls	r4, r2, #3
 7415              	.LBB1417:
 7416              	.LBB1412:
1267:src/main.cpp  ****                 return x*x*(3.0f - 2.0f*x);
 7417              		.loc 6 1267 24 view .LVU2222
 7418 0442 F4EEC57A 		vcmpe.f32	s15, s10
 7419              	.LBE1412:
 7420              	.LBE1417:
1263:src/main.cpp  **** 
 7421              		.loc 6 1263 52 view .LVU2223
 7422 0446 01EB0313 		add	r3, r1, r3, lsl #4
 7423 044a D3ED186A 		vldr.32	s13, [r3, #96]
 7424              	.LBB1418:
 7425              	.LBB1413:
1267:src/main.cpp  ****                 return x*x*(3.0f - 2.0f*x);
 7426              		.loc 6 1267 24 view .LVU2224
 7427 044e F1EE10FA 		vmrs	APSR_nzcv, FPSCR
 7428              	.LBE1413:
 7429              	.LBE1418:
1263:src/main.cpp  **** 
 7430              		.loc 6 1263 52 view .LVU2225
 7431 0452 27EE267A 		vmul.f32	s14, s14, s13
 7432              	.LVL591:
1266:src/main.cpp  ****                 x = x<0?0:x>1?1:x;
 7433              		.loc 6 1266 13 is_stmt 1 view .LVU2226
1271:src/main.cpp  **** 
 7434              		.loc 6 1271 13 view .LVU2227
 7435              	.LBB1419:
 7436              	.LBI1410:
1266:src/main.cpp  ****                 x = x<0?0:x>1?1:x;
 7437              		.loc 6 1266 32 view .LVU2228
 7438              	.LBB1414:
1267:src/main.cpp  ****                 return x*x*(3.0f - 2.0f*x);
 7439              		.loc 6 1267 17 view .LVU2229
1267:src/main.cpp  ****                 return x*x*(3.0f - 2.0f*x);
 7440              		.loc 6 1267 24 is_stmt 0 view .LVU2230
 7441 0456 00F11085 		bmi	.L650
1267:src/main.cpp  ****                 return x*x*(3.0f - 2.0f*x);
 7442              		.loc 6 1267 30 view .LVU2231
 7443 045a F7EE006A 		vmov.f32	s13, #1.0e+0
 7444 045e F4EEE67A 		vcmpe.f32	s15, s13
 7445 0462 F1EE10FA 		vmrs	APSR_nzcv, FPSCR
 7446 0466 0BDC     		bgt	.L503
1268:src/main.cpp  ****             };
 7447              		.loc 6 1268 34 view .LVU2232
 7448 0468 F0EE004A 		vmov.f32	s9, #2.0e+0
 7449 046c B0EE085A 		vmov.f32	s10, #3.0e+0
 7450              	.LBE1414:
 7451              	.LBE1419:
 7452              	.LBB1420:
 7453              	.LBB1387:
1163:src/main.cpp  ****             };
 7454              		.loc 6 1163 25 view .LVU2233
 7455 0470 67EEA76A 		vmul.f32	s13, s15, s15
ARM GAS  /tmp/claude-502/ccZj3JyB.s 			page 197


 7456              	.LBE1387:
 7457              	.LBE1420:
 7458              	.LBB1421:
 7459              	.LBB1415:
1268:src/main.cpp  ****             };
 7460              		.loc 6 1268 34 view .LVU2234
 7461 0474 A7EEE45A 		vfms.f32	s10, s15, s9
1268:src/main.cpp  ****             };
 7462              		.loc 6 1268 42 view .LVU2235
 7463 0478 66EE857A 		vmul.f32	s15, s13, s10
 7464              	.LBE1415:
 7465              	.LBE1421:
1275:src/main.cpp  ****             float rm    = smoothstep2(rm_in) * VOICE.ringmod_max;
1276:src/main.cpp  **** 
1277:src/main.cpp  ****             g_target_detune = detune_pos * det_prs; // pressure gates detune amount
 7466              		.loc 6 1277 42 view .LVU2236
 7467 047c 26EE276A 		vmul.f32	s12, s12, s15
 7468              	.L503:
 7469              	.LBB1422:
 7470              	.LBB1416:
1268:src/main.cpp  ****             };
 7471              		.loc 6 1268 17 is_stmt 1 view .LVU2237
 7472              	.LVL592:
1268:src/main.cpp  ****             };
 7473              		.loc 6 1268 17 is_stmt 0 view .LVU2238
 7474              	.LBE1416:
 7475              	.LBE1422:
1274:src/main.cpp  ****             float rm    = smoothstep2(rm_in) * VOICE.ringmod_max;
 7476              		.loc 6 1274 13 is_stmt 1 view .LVU2239
 7477              	.LBB1423:
 7478              	.LBI1423:
 470:src/main.cpp  ****     return v<lo?lo:v>hi?hi:v;
 7479              		.loc 6 470 21 view .LVU2240
 7480              	.LBB1424:
 471:src/main.cpp  **** }
 7481              		.loc 6 471 5 view .LVU2241
 471:src/main.cpp  **** }
 7482              		.loc 6 471 16 is_stmt 0 view .LVU2242
 7483 0480 F5EEC05A 		vcmpe.f32	s11, #0
 7484 0484 F1EE10FA 		vmrs	APSR_nzcv, FPSCR
 7485 0488 00F18584 		bmi	.L568
 471:src/main.cpp  **** }
 7486              		.loc 6 471 24 view .LVU2243
 7487 048c F7EE007A 		vmov.f32	s15, #1.0e+0
 7488 0490 F4EEE75A 		vcmpe.f32	s11, s15
 7489 0494 F1EE10FA 		vmrs	APSR_nzcv, FPSCR
 7490 0498 09DC     		bgt	.L504
 7491              	.LVL593:
 471:src/main.cpp  **** }
 7492              		.loc 6 471 24 view .LVU2244
 7493              	.LBE1424:
 7494              	.LBE1423:
1275:src/main.cpp  **** 
 7495              		.loc 6 1275 13 is_stmt 1 view .LVU2245
 7496              	.LBB1426:
 7497              	.LBI1426:
1266:src/main.cpp  ****                 x = x<0?0:x>1?1:x;
ARM GAS  /tmp/claude-502/ccZj3JyB.s 			page 198


 7498              		.loc 6 1266 32 view .LVU2246
 7499              	.LBB1427:
1267:src/main.cpp  ****                 return x*x*(3.0f - 2.0f*x);
 7500              		.loc 6 1267 17 view .LVU2247
1268:src/main.cpp  ****             };
 7501              		.loc 6 1268 34 is_stmt 0 view .LVU2248
 7502 049a B0EE005A 		vmov.f32	s10, #2.0e+0
 7503 049e F0EE086A 		vmov.f32	s13, #3.0e+0
1268:src/main.cpp  ****             };
 7504              		.loc 6 1268 25 view .LVU2249
 7505 04a2 65EEA57A 		vmul.f32	s15, s11, s11
1268:src/main.cpp  ****             };
 7506              		.loc 6 1268 34 view .LVU2250
 7507 04a6 E5EEC56A 		vfms.f32	s13, s11, s10
1268:src/main.cpp  ****             };
 7508              		.loc 6 1268 42 view .LVU2251
 7509 04aa 67EEA67A 		vmul.f32	s15, s15, s13
 7510              	.LVL594:
 7511              	.L504:
1268:src/main.cpp  ****             };
 7512              		.loc 6 1268 17 is_stmt 1 view .LVU2252
 7513              	.LBE1427:
 7514              	.LBE1426:
 7515              		.loc 6 1277 29 is_stmt 0 view .LVU2253
 7516 04ae 164A     		ldr	r2, .L667+52
1275:src/main.cpp  **** 
 7517              		.loc 6 1275 54 view .LVU2254
 7518 04b0 049B     		ldr	r3, [sp, #16]
 7519              		.loc 6 1277 29 view .LVU2255
 7520 04b2 82ED006A 		vstr.32	s12, [r2]
1278:src/main.cpp  ****             g_bitcrush      = bc;
 7521              		.loc 6 1278 29 view .LVU2256
 7522 04b6 154A     		ldr	r2, .L667+56
1275:src/main.cpp  **** 
 7523              		.loc 6 1275 54 view .LVU2257
 7524 04b8 E31A     		subs	r3, r4, r3
 7525              		.loc 6 1278 29 view .LVU2258
 7526 04ba 82ED007A 		vstr.32	s14, [r2]
1275:src/main.cpp  **** 
 7527              		.loc 6 1275 54 view .LVU2259
 7528 04be 114A     		ldr	r2, .L667+48
 7529 04c0 02EB0313 		add	r3, r2, r3, lsl #4
 7530 04c4 93ED177A 		vldr.32	s14, [r3, #92]
 7531              	.LVL595:
1279:src/main.cpp  ****             g_ringmod       = rm;
 7532              		.loc 6 1279 29 view .LVU2260
 7533 04c8 114B     		ldr	r3, .L667+60
1275:src/main.cpp  **** 
 7534              		.loc 6 1275 54 view .LVU2261
 7535 04ca 67EE877A 		vmul.f32	s15, s15, s14
 7536              	.LVL596:
1277:src/main.cpp  ****             g_bitcrush      = bc;
 7537              		.loc 6 1277 13 is_stmt 1 view .LVU2262
1278:src/main.cpp  ****             g_bitcrush      = bc;
 7538              		.loc 6 1278 13 view .LVU2263
 7539              		.loc 6 1279 13 view .LVU2264
 7540              		.loc 6 1279 29 is_stmt 0 view .LVU2265
ARM GAS  /tmp/claude-502/ccZj3JyB.s 			page 199


 7541 04ce C3ED007A 		vstr.32	s15, [r3]
 7542              	.LVL597:
 7543              		.loc 6 1279 29 view .LVU2266
 7544              	.LBE1376:
 7545 04d2 26E0     		b	.L505
 7546              	.L668:
 7547              		.align	2
 7548              	.L667:
 7549 04d4 00000000 		.word	.LANCHOR46
 7550 04d8 CDCCCC3D 		.word	1036831949
 7551 04dc 00000000 		.word	.LANCHOR8
 7552 04e0 6666E63E 		.word	1055286886
 7553 04e4 00F07F45 		.word	1166012416
 7554 04e8 20000000 		.word	.LANCHOR10+32
 7555 04ec 00000000 		.word	.LANCHOR0
 7556 04f0 00007A44 		.word	1148846080
 7557 04f4 0000C842 		.word	1120403456
 7558 04f8 9A99593F 		.word	1062836634
 7559 04fc 9A99193E 		.word	1041865114
 7560 0500 00000000 		.word	0
 7561 0504 00000000 		.word	.LANCHOR13
 7562 0508 00000000 		.word	.LANCHOR3
 7563 050c 00000000 		.word	.LANCHOR6
 7564 0510 00000000 		.word	.LANCHOR7
 7565              	.LVL598:
 7566              	.L492:
1280:src/main.cpp  ****         }
1281:src/main.cpp  ****         else
1282:src/main.cpp  ****         {
1283:src/main.cpp  ****             // No second finger: return detune to zero, clear effects
1284:src/main.cpp  ****             g_target_detune = 0.0f;
 7567              		.loc 6 1284 13 is_stmt 1 view .LVU2267
 7568              		.loc 6 1284 29 is_stmt 0 view .LVU2268
 7569 0514 0023     		movs	r3, #0
 7570 0516 A34A     		ldr	r2, .L669
 7571 0518 1360     		str	r3, [r2]	@ float
1285:src/main.cpp  ****             g_bitcrush      = 0.0f;
 7572              		.loc 6 1285 13 is_stmt 1 view .LVU2269
 7573              		.loc 6 1285 29 is_stmt 0 view .LVU2270
 7574 051a A34A     		ldr	r2, .L669+4
 7575 051c 1360     		str	r3, [r2]	@ float
1286:src/main.cpp  ****             g_ringmod       = 0.0f;
 7576              		.loc 6 1286 13 is_stmt 1 view .LVU2271
 7577              		.loc 6 1286 29 is_stmt 0 view .LVU2272
 7578 051e A34A     		ldr	r2, .L669+8
 7579 0520 1360     		str	r3, [r2]	@ float
 7580              	.L505:
 7581              	.LBE1375:
1287:src/main.cpp  ****         }
1288:src/main.cpp  **** 
1289:src/main.cpp  ****         // ŌöĆŌöĆ Serial display ŌöĆŌöĆŌöĆŌöĆŌöĆŌöĆŌöĆŌöĆŌöĆŌöĆŌöĆŌöĆŌöĆŌöĆŌöĆŌöĆŌöĆŌöĆŌöĆŌöĆŌöĆŌöĆ
1290:src/main.cpp  ****         frame_count++;
 7582              		.loc 6 1290 9 is_stmt 1 view .LVU2273
 7583              	.LVL599:
1291:src/main.cpp  ****         if(frame_count < print_every){ System::Delay(10); continue; }
 7584              		.loc 6 1291 9 view .LVU2274
1292:src/main.cpp  ****         frame_count = 0;
ARM GAS  /tmp/claude-502/ccZj3JyB.s 			page 200


 7585              		.loc 6 1292 9 view .LVU2275
1293:src/main.cpp  **** 
1294:src/main.cpp  ****         hw.PrintLine(" CH | DELTA | BAR");
 7586              		.loc 6 1294 9 view .LVU2276
 7587              	.LBB1450:
 7588              	.LBI1450:
 126:/Users/reza.kalfane/Workspaces/Daisy/DaisyExamples/libDaisy/src/daisy_seed.h ****     {
 7589              		.loc 1 126 17 view .LVU2277
 7590              	.LBB1451:
 128:/Users/reza.kalfane/Workspaces/Daisy/DaisyExamples/libDaisy/src/daisy_seed.h ****     }
 7591              		.loc 1 128 23 is_stmt 0 view .LVU2278
 7592 0522 A348     		ldr	r0, .L669+12
 7593              	.LBE1451:
 7594              	.LBE1450:
 7595              	.LBB1453:
1295:src/main.cpp  ****         hw.PrintLine("----+-------+--------------------");
1296:src/main.cpp  ****         for(int i=0;i<N_CH;i++){
 7596              		.loc 6 1296 17 view .LVU2279
 7597 0524 0025     		movs	r5, #0
 7598              	.LVL600:
 7599              		.loc 6 1296 17 view .LVU2280
 7600              	.LBE1453:
 7601              	.LBB1475:
 7602              	.LBB1452:
 128:/Users/reza.kalfane/Workspaces/Daisy/DaisyExamples/libDaisy/src/daisy_seed.h ****     }
 7603              		.loc 1 128 23 view .LVU2281
 7604 0526 FFF7FEFF 		bl	_ZN5daisy6LoggerILNS_17LoggerDestinationE1EE9PrintLineEPKcz
 7605              	.LVL601:
 128:/Users/reza.kalfane/Workspaces/Daisy/DaisyExamples/libDaisy/src/daisy_seed.h ****     }
 7606              		.loc 1 128 23 view .LVU2282
 7607              	.LBE1452:
 7608              	.LBE1475:
1295:src/main.cpp  ****         hw.PrintLine("----+-------+--------------------");
 7609              		.loc 6 1295 9 is_stmt 1 view .LVU2283
 7610              	.LBB1476:
 7611              	.LBI1476:
 126:/Users/reza.kalfane/Workspaces/Daisy/DaisyExamples/libDaisy/src/daisy_seed.h ****     {
 7612              		.loc 1 126 17 view .LVU2284
 7613              	.LBB1477:
 128:/Users/reza.kalfane/Workspaces/Daisy/DaisyExamples/libDaisy/src/daisy_seed.h ****     }
 7614              		.loc 1 128 23 is_stmt 0 view .LVU2285
 7615 052a A248     		ldr	r0, .L669+16
 7616              	.LBE1477:
 7617              	.LBE1476:
 7618              	.LBB1479:
 7619              	.LBB1454:
 7620              	.LBB1455:
 7621              	.LBB1456:
 800:src/main.cpp  ****     if(n>w)n=w;
 7622              		.loc 6 800 42 view .LVU2286
 7623 052c 7310     		asrs	r3, r6, #1
 7624 052e 0493     		str	r3, [sp, #16]
 7625              	.LVL602:
 800:src/main.cpp  ****     if(n>w)n=w;
 7626              		.loc 6 800 42 view .LVU2287
 7627              	.LBE1456:
 7628              	.LBE1455:
ARM GAS  /tmp/claude-502/ccZj3JyB.s 			page 201


 7629              	.LBE1454:
 7630              	.LBE1479:
 7631              	.LBB1480:
 7632              	.LBB1478:
 128:/Users/reza.kalfane/Workspaces/Daisy/DaisyExamples/libDaisy/src/daisy_seed.h ****     }
 7633              		.loc 1 128 23 view .LVU2288
 7634 0530 FFF7FEFF 		bl	_ZN5daisy6LoggerILNS_17LoggerDestinationE1EE9PrintLineEPKcz
 7635              	.LVL603:
 128:/Users/reza.kalfane/Workspaces/Daisy/DaisyExamples/libDaisy/src/daisy_seed.h ****     }
 7636              		.loc 1 128 23 view .LVU2289
 7637              	.LBE1478:
 7638              	.LBE1480:
 7639              		.loc 6 1296 9 is_stmt 1 view .LVU2290
 7640              	.LBB1481:
 7641              		.loc 6 1296 22 view .LVU2291
 7642              	.L512:
 7643              	.LBB1472:
1297:src/main.cpp  ****             make_bar(bar,delta[i],max_delta,20);
 7644              		.loc 6 1297 13 view .LVU2292
 7645              		.loc 6 1297 21 is_stmt 0 view .LVU2293
 7646 0534 57F8042B 		ldr	r2, [r7], #4
 7647              	.LVL604:
 7648              	.LBB1461:
 7649              	.LBI1455:
 798:src/main.cpp  **** {
 7650              		.loc 6 798 6 is_stmt 1 view .LVU2294
 7651              	.LBB1459:
 800:src/main.cpp  ****     if(n>w)n=w;
 7652              		.loc 6 800 5 view .LVU2295
 800:src/main.cpp  ****     if(n>w)n=w;
 7653              		.loc 6 800 25 is_stmt 0 view .LVU2296
 7654 0538 002A     		cmp	r2, #0
 7655 053a 40F30181 		ble	.L570
 800:src/main.cpp  ****     if(n>w)n=w;
 7656              		.loc 6 800 36 view .LVU2297
 7657 053e 02EB8200 		add	r0, r2, r2, lsl #2
 800:src/main.cpp  ****     if(n>w)n=w;
 7658              		.loc 6 800 38 view .LVU2298
 7659 0542 049B     		ldr	r3, [sp, #16]
 7660 0544 03EB8000 		add	r0, r3, r0, lsl #2
 800:src/main.cpp  ****     if(n>w)n=w;
 7661              		.loc 6 800 25 view .LVU2299
 7662 0548 B0FBF6F0 		udiv	r0, r0, r6
 7663 054c 1428     		cmp	r0, #20
 7664 054e A8BF     		it	ge
 7665 0550 1420     		movge	r0, #20
 7666              	.L506:
 801:src/main.cpp  ****     out[0]='[';
 7667              		.loc 6 801 5 is_stmt 1 view .LVU2300
 802:src/main.cpp  ****     for(int i=0;i<w;i++)out[1+i]=(i<n)?'#':' ';
 7668              		.loc 6 802 5 view .LVU2301
 802:src/main.cpp  ****     for(int i=0;i<w;i++)out[1+i]=(i<n)?'#':' ';
 7669              		.loc 6 802 11 is_stmt 0 view .LVU2302
 7670 0552 5B23     		movs	r3, #91
 7671 0554 6FEA0A04 		mvn	r4, r10
 7672 0558 8DF8AC30 		strb	r3, [sp, #172]
 803:src/main.cpp  ****     out[1+w]=']';out[2+w]='\0';
ARM GAS  /tmp/claude-502/ccZj3JyB.s 			page 202


 7673              		.loc 6 803 5 is_stmt 1 view .LVU2303
 7674              	.LVL605:
 7675              	.LBB1457:
 803:src/main.cpp  ****     out[1+w]=']';out[2+w]='\0';
 7676              		.loc 6 803 18 view .LVU2304
 7677              	.LBE1457:
 802:src/main.cpp  ****     for(int i=0;i<w;i++)out[1+i]=(i<n)?'#':' ';
 7678              		.loc 6 802 11 is_stmt 0 view .LVU2305
 7679 055c 0DF1AD03 		add	r3, sp, #173
 7680              	.LVL606:
 7681              	.L508:
 7682              	.LBB1458:
 803:src/main.cpp  ****     out[1+w]=']';out[2+w]='\0';
 7683              		.loc 6 803 25 is_stmt 1 view .LVU2306
 803:src/main.cpp  ****     out[1+w]=']';out[2+w]='\0';
 7684              		.loc 6 803 39 is_stmt 0 view .LVU2307
 7685 0560 E118     		adds	r1, r4, r3
 7686 0562 8142     		cmp	r1, r0
 7687 0564 ACBF     		ite	ge
 7688 0566 2021     		movge	r1, #32
 7689 0568 2321     		movlt	r1, #35
 803:src/main.cpp  ****     out[1+w]=']';out[2+w]='\0';
 7690              		.loc 6 803 33 view .LVU2308
 7691 056a 03F8011B 		strb	r1, [r3], #1
 7692              	.LVL607:
 803:src/main.cpp  ****     out[1+w]=']';out[2+w]='\0';
 7693              		.loc 6 803 5 is_stmt 1 view .LVU2309
 803:src/main.cpp  ****     out[1+w]=']';out[2+w]='\0';
 7694              		.loc 6 803 18 view .LVU2310
 7695 056e 9B45     		cmp	fp, r3
 7696 0570 F6D1     		bne	.L508
 7697              	.LBE1458:
 804:src/main.cpp  **** }
 7698              		.loc 6 804 5 view .LVU2311
 804:src/main.cpp  **** }
 7699              		.loc 6 804 13 is_stmt 0 view .LVU2312
 7700 0572 5D23     		movs	r3, #93
 7701              	.LVL608:
 804:src/main.cpp  **** }
 7702              		.loc 6 804 13 view .LVU2313
 7703 0574 8DF8C130 		strb	r3, [sp, #193]
 804:src/main.cpp  **** }
 7704              		.loc 6 804 18 is_stmt 1 view .LVU2314
 804:src/main.cpp  **** }
 7705              		.loc 6 804 26 is_stmt 0 view .LVU2315
 7706 0578 0023     		movs	r3, #0
 7707 057a 8DF8C230 		strb	r3, [sp, #194]
 7708              	.LVL609:
 804:src/main.cpp  **** }
 7709              		.loc 6 804 26 view .LVU2316
 7710              	.LBE1459:
 7711              	.LBE1461:
 7712              	.LBB1462:
1298:src/main.cpp  ****             char mk=' ';
1299:src/main.cpp  ****             for(int s=0;s<2;s++)
 7713              		.loc 6 1299 26 is_stmt 1 view .LVU2317
1300:src/main.cpp  ****                 if(tracked[s].alive&&i==tracked[s].peak_ch)mk=(char)('1'+s);
ARM GAS  /tmp/claude-502/ccZj3JyB.s 			page 203


 7714              		.loc 6 1300 17 view .LVU2318
 7715 057e 98F80030 		ldrb	r3, [r8]	@ zero_extendqisi2
 7716 0582 002B     		cmp	r3, #0
 7717 0584 00F0DA80 		beq	.L572
 7718              		.loc 6 1300 36 is_stmt 0 view .LVU2319
 7719 0588 D8F80C30 		ldr	r3, [r8, #12]
 7720              	.LBE1462:
1298:src/main.cpp  ****             char mk=' ';
 7721              		.loc 6 1298 18 view .LVU2320
 7722 058c AB42     		cmp	r3, r5
 7723 058e 0CBF     		ite	eq
 7724 0590 3123     		moveq	r3, #49
 7725 0592 2023     		movne	r3, #32
 7726              	.L509:
 7727              	.LVL610:
 7728              	.LBB1463:
1299:src/main.cpp  ****                 if(tracked[s].alive&&i==tracked[s].peak_ch)mk=(char)('1'+s);
 7729              		.loc 6 1299 13 is_stmt 1 view .LVU2321
1299:src/main.cpp  ****                 if(tracked[s].alive&&i==tracked[s].peak_ch)mk=(char)('1'+s);
 7730              		.loc 6 1299 26 view .LVU2322
 7731              		.loc 6 1300 17 view .LVU2323
 7732 0594 98F81410 		ldrb	r1, [r8, #20]	@ zero_extendqisi2
 7733 0598 21B1     		cbz	r1, .L511
 7734              		.loc 6 1300 36 is_stmt 0 view .LVU2324
 7735 059a D8F82010 		ldr	r1, [r8, #32]
 7736              	.LBE1463:
 7737              	.LBB1464:
 7738              	.LBB1465:
 128:/Users/reza.kalfane/Workspaces/Daisy/DaisyExamples/libDaisy/src/daisy_seed.h ****     }
 7739              		.loc 1 128 23 view .LVU2325
 7740 059e A942     		cmp	r1, r5
 7741 05a0 08BF     		it	eq
 7742 05a2 3223     		moveq	r3, #50
 7743              	.LVL611:
 7744              	.L511:
 128:/Users/reza.kalfane/Workspaces/Daisy/DaisyExamples/libDaisy/src/daisy_seed.h ****     }
 7745              		.loc 1 128 23 view .LVU2326
 7746              	.LBE1465:
 7747              	.LBE1464:
 7748              	.LBB1468:
1299:src/main.cpp  ****                 if(tracked[s].alive&&i==tracked[s].peak_ch)mk=(char)('1'+s);
 7749              		.loc 6 1299 13 is_stmt 1 view .LVU2327
1299:src/main.cpp  ****                 if(tracked[s].alive&&i==tracked[s].peak_ch)mk=(char)('1'+s);
 7750              		.loc 6 1299 26 view .LVU2328
 7751              	.LBE1468:
1301:src/main.cpp  ****             hw.PrintLine(" %2d | %5d | %s %c",i,(int)delta[i],bar,mk);
 7752              		.loc 6 1301 13 view .LVU2329
 7753              	.LBB1469:
 7754              	.LBI1464:
 126:/Users/reza.kalfane/Workspaces/Daisy/DaisyExamples/libDaisy/src/daisy_seed.h ****     {
 7755              		.loc 1 126 17 view .LVU2330
 7756              	.LBB1466:
 128:/Users/reza.kalfane/Workspaces/Daisy/DaisyExamples/libDaisy/src/daisy_seed.h ****     }
 7757              		.loc 1 128 23 is_stmt 0 view .LVU2331
 7758 05a4 2946     		mov	r1, r5
 7759              	.LBE1466:
 7760              	.LBE1469:
ARM GAS  /tmp/claude-502/ccZj3JyB.s 			page 204


 7761              	.LBE1472:
1296:src/main.cpp  ****             make_bar(bar,delta[i],max_delta,20);
 7762              		.loc 6 1296 9 view .LVU2332
 7763 05a6 0135     		adds	r5, r5, #1
 7764              	.LVL612:
 7765              	.LBB1473:
 7766              	.LBB1470:
 7767              	.LBB1467:
 128:/Users/reza.kalfane/Workspaces/Daisy/DaisyExamples/libDaisy/src/daisy_seed.h ****     }
 7768              		.loc 1 128 23 view .LVU2333
 7769 05a8 0093     		str	r3, [sp]
 7770 05aa 5346     		mov	r3, r10
 7771 05ac 8248     		ldr	r0, .L669+20
 7772 05ae FFF7FEFF 		bl	_ZN5daisy6LoggerILNS_17LoggerDestinationE1EE9PrintLineEPKcz
 7773              	.LVL613:
 128:/Users/reza.kalfane/Workspaces/Daisy/DaisyExamples/libDaisy/src/daisy_seed.h ****     }
 7774              		.loc 1 128 23 view .LVU2334
 7775              	.LBE1467:
 7776              	.LBE1470:
 7777              	.LBE1473:
1296:src/main.cpp  ****             make_bar(bar,delta[i],max_delta,20);
 7778              		.loc 6 1296 9 is_stmt 1 view .LVU2335
1296:src/main.cpp  ****             make_bar(bar,delta[i],max_delta,20);
 7779              		.loc 6 1296 22 view .LVU2336
 7780 05b2 0C2D     		cmp	r5, #12
 7781 05b4 BED1     		bne	.L512
 7782              	.LBE1481:
1302:src/main.cpp  ****         }
1303:src/main.cpp  **** 
1304:src/main.cpp  ****         make_pos_bar(pos_bar,40);
 7783              		.loc 6 1304 9 view .LVU2337
 7784              	.LVL614:
 7785              	.LBB1482:
 7786              	.LBI1482:
 807:src/main.cpp  **** {
 7787              		.loc 6 807 6 view .LVU2338
 7788              	.LBB1483:
 809:src/main.cpp  ****     for(int i=0;i<w;i++)out[1+i]='-';
 7789              		.loc 6 809 5 view .LVU2339
 809:src/main.cpp  ****     for(int i=0;i<w;i++)out[1+i]='-';
 7790              		.loc 6 809 11 is_stmt 0 view .LVU2340
 7791 05b6 7C25     		movs	r5, #124
 7792              	.LVL615:
 7793              	.LBB1484:
 810:src/main.cpp  ****     out[1+w]='|';out[2+w]='\0';
 7794              		.loc 6 810 33 view .LVU2341
 7795 05b8 2D21     		movs	r1, #45
 7796 05ba 2822     		movs	r2, #40
 7797 05bc 0DF22510 		addw	r0, sp, #293
 7798              	.LBE1484:
 809:src/main.cpp  ****     for(int i=0;i<w;i++)out[1+i]='-';
 7799              		.loc 6 809 11 view .LVU2342
 7800 05c0 8DF82451 		strb	r5, [sp, #292]
 810:src/main.cpp  ****     out[1+w]='|';out[2+w]='\0';
 7801              		.loc 6 810 5 is_stmt 1 view .LVU2343
 7802              	.LVL616:
 7803              	.LBB1485:
ARM GAS  /tmp/claude-502/ccZj3JyB.s 			page 205


 810:src/main.cpp  ****     out[1+w]='|';out[2+w]='\0';
 7804              		.loc 6 810 18 view .LVU2344
 810:src/main.cpp  ****     out[1+w]='|';out[2+w]='\0';
 7805              		.loc 6 810 33 is_stmt 0 view .LVU2345
 7806 05c4 FFF7FEFF 		bl	memset
 7807              	.LVL617:
 810:src/main.cpp  ****     out[1+w]='|';out[2+w]='\0';
 7808              		.loc 6 810 33 view .LVU2346
 7809              	.LBE1485:
 811:src/main.cpp  ****     for(int slot=0;slot<2;slot++){
 7810              		.loc 6 811 5 is_stmt 1 view .LVU2347
 811:src/main.cpp  ****     for(int slot=0;slot<2;slot++){
 7811              		.loc 6 811 26 is_stmt 0 view .LVU2348
 7812 05c8 0021     		movs	r1, #0
 7813              	.LBB1486:
 7814              	.LBB1487:
 813:src/main.cpp  ****         int p=(int)(((int64_t)tracked[slot].pos*(w-1)+500)/1000);
 7815              		.loc 6 813 9 view .LVU2349
 7816 05ca 98F80030 		ldrb	r3, [r8]	@ zero_extendqisi2
 7817              	.LBE1487:
 7818              	.LBE1486:
 811:src/main.cpp  ****     for(int slot=0;slot<2;slot++){
 7819              		.loc 6 811 13 view .LVU2350
 7820 05ce 8DF84D51 		strb	r5, [sp, #333]
 811:src/main.cpp  ****     for(int slot=0;slot<2;slot++){
 7821              		.loc 6 811 18 is_stmt 1 view .LVU2351
 811:src/main.cpp  ****     for(int slot=0;slot<2;slot++){
 7822              		.loc 6 811 26 is_stmt 0 view .LVU2352
 7823 05d2 8DF84E11 		strb	r1, [sp, #334]
 812:src/main.cpp  ****         if(!tracked[slot].alive)continue;
 7824              		.loc 6 812 5 is_stmt 1 view .LVU2353
 7825              	.LVL618:
 7826              	.LBB1491:
 812:src/main.cpp  ****         if(!tracked[slot].alive)continue;
 7827              		.loc 6 812 24 view .LVU2354
 7828              	.LBB1488:
 813:src/main.cpp  ****         int p=(int)(((int64_t)tracked[slot].pos*(w-1)+500)/1000);
 7829              		.loc 6 813 9 view .LVU2355
 7830 05d6 BBB1     		cbz	r3, .L513
 814:src/main.cpp  ****         if(p<0)p=0;if(p>=w)p=w-1;
 7831              		.loc 6 814 9 view .LVU2356
 814:src/main.cpp  ****         if(p<0)p=0;if(p>=w)p=w-1;
 7832              		.loc 6 814 54 is_stmt 0 view .LVU2357
 7833 05d8 D8F80430 		ldr	r3, [r8, #4]
 7834 05dc 2722     		movs	r2, #39
 7835 05de 4FF4FA70 		mov	r0, #500
 814:src/main.cpp  ****         if(p<0)p=0;if(p>=w)p=w-1;
 7836              		.loc 6 814 59 view .LVU2358
 7837 05e2 C3FB0201 		smlal	r0, r1, r3, r2
 7838 05e6 4FF47A72 		mov	r2, #1000
 7839 05ea 0023     		movs	r3, #0
 7840 05ec FFF7FEFF 		bl	__aeabi_ldivmod
 7841              	.LVL619:
 815:src/main.cpp  ****         out[1+p]=(char)('1'+slot);
 7842              		.loc 6 815 9 is_stmt 1 view .LVU2359
 815:src/main.cpp  ****         out[1+p]=(char)('1'+slot);
 7843              		.loc 6 815 20 view .LVU2360
ARM GAS  /tmp/claude-502/ccZj3JyB.s 			page 206


 7844 05f0 2728     		cmp	r0, #39
 7845 05f2 00F3F281 		bgt	.L575
 816:src/main.cpp  ****     }
 7846              		.loc 6 816 14 is_stmt 0 view .LVU2361
 7847 05f6 20EAE073 		bic	r3, r0, r0, asr #31
 7848              	.LVL620:
 816:src/main.cpp  ****     }
 7849              		.loc 6 816 14 view .LVU2362
 7850 05fa 0133     		adds	r3, r3, #1
 7851              	.LVL621:
 7852              	.L514:
 816:src/main.cpp  ****     }
 7853              		.loc 6 816 9 is_stmt 1 view .LVU2363
 816:src/main.cpp  ****     }
 7854              		.loc 6 816 17 is_stmt 0 view .LVU2364
 7855 05fc 03F5AC73 		add	r3, r3, #344
 7856 0600 3122     		movs	r2, #49
 7857 0602 6B44     		add	r3, sp, r3
 7858 0604 03F8342C 		strb	r2, [r3, #-52]
 7859              	.L513:
 7860              	.LBE1488:
 812:src/main.cpp  ****         if(!tracked[slot].alive)continue;
 7861              		.loc 6 812 5 is_stmt 1 view .LVU2365
 7862              	.LVL622:
 812:src/main.cpp  ****         if(!tracked[slot].alive)continue;
 7863              		.loc 6 812 24 view .LVU2366
 7864              	.LBB1489:
 813:src/main.cpp  ****         int p=(int)(((int64_t)tracked[slot].pos*(w-1)+500)/1000);
 7865              		.loc 6 813 9 view .LVU2367
 7866 0608 98F81430 		ldrb	r3, [r8, #20]	@ zero_extendqisi2
 7867 060c C3B1     		cbz	r3, .L515
 814:src/main.cpp  ****         if(p<0)p=0;if(p>=w)p=w-1;
 7868              		.loc 6 814 9 view .LVU2368
 814:src/main.cpp  ****         if(p<0)p=0;if(p>=w)p=w-1;
 7869              		.loc 6 814 54 is_stmt 0 view .LVU2369
 7870 060e D8F81830 		ldr	r3, [r8, #24]
 7871 0612 2722     		movs	r2, #39
 7872 0614 4FF4FA70 		mov	r0, #500
 7873 0618 0021     		movs	r1, #0
 814:src/main.cpp  ****         if(p<0)p=0;if(p>=w)p=w-1;
 7874              		.loc 6 814 59 view .LVU2370
 7875 061a C3FB0201 		smlal	r0, r1, r3, r2
 7876 061e 4FF47A72 		mov	r2, #1000
 7877 0622 0023     		movs	r3, #0
 7878 0624 FFF7FEFF 		bl	__aeabi_ldivmod
 7879              	.LVL623:
 815:src/main.cpp  ****         out[1+p]=(char)('1'+slot);
 7880              		.loc 6 815 9 is_stmt 1 view .LVU2371
 815:src/main.cpp  ****         out[1+p]=(char)('1'+slot);
 7881              		.loc 6 815 20 view .LVU2372
 7882 0628 2728     		cmp	r0, #39
 7883 062a 00F3D881 		bgt	.L576
 816:src/main.cpp  ****     }
 7884              		.loc 6 816 14 is_stmt 0 view .LVU2373
 7885 062e 20EAE073 		bic	r3, r0, r0, asr #31
 7886              	.LVL624:
 816:src/main.cpp  ****     }
ARM GAS  /tmp/claude-502/ccZj3JyB.s 			page 207


 7887              		.loc 6 816 14 view .LVU2374
 7888 0632 0133     		adds	r3, r3, #1
 7889              	.LVL625:
 7890              	.L516:
 816:src/main.cpp  ****     }
 7891              		.loc 6 816 9 is_stmt 1 view .LVU2375
 816:src/main.cpp  ****     }
 7892              		.loc 6 816 17 is_stmt 0 view .LVU2376
 7893 0634 03F5AC73 		add	r3, r3, #344
 7894 0638 3222     		movs	r2, #50
 7895 063a 6B44     		add	r3, sp, r3
 7896 063c 03F8342C 		strb	r2, [r3, #-52]
 7897              	.L515:
 7898              	.LBE1489:
 812:src/main.cpp  ****         if(!tracked[slot].alive)continue;
 7899              		.loc 6 812 5 is_stmt 1 view .LVU2377
 7900              	.LVL626:
 812:src/main.cpp  ****         if(!tracked[slot].alive)continue;
 7901              		.loc 6 812 24 view .LVU2378
 812:src/main.cpp  ****         if(!tracked[slot].alive)continue;
 7902              		.loc 6 812 24 is_stmt 0 view .LVU2379
 7903              	.LBE1491:
 7904              	.LBE1483:
 7905              	.LBE1482:
1305:src/main.cpp  ****         hw.PrintLine("\nPOS  %s",pos_bar);
 7906              		.loc 6 1305 9 is_stmt 1 view .LVU2380
 7907              	.LBB1494:
 7908              	.LBI1494:
 126:/Users/reza.kalfane/Workspaces/Daisy/DaisyExamples/libDaisy/src/daisy_seed.h ****     {
 7909              		.loc 1 126 17 view .LVU2381
 7910 0640 5E4D     		ldr	r5, .L669+24
 7911              	.LBB1495:
 128:/Users/reza.kalfane/Workspaces/Daisy/DaisyExamples/libDaisy/src/daisy_seed.h ****     }
 7912              		.loc 1 128 23 is_stmt 0 view .LVU2382
 7913 0642 0126     		movs	r6, #1
 7914 0644 49A9     		add	r1, sp, #292
 7915              	.LVL627:
 128:/Users/reza.kalfane/Workspaces/Daisy/DaisyExamples/libDaisy/src/daisy_seed.h ****     }
 7916              		.loc 1 128 23 view .LVU2383
 7917 0646 5E48     		ldr	r0, .L669+28
 7918 0648 FFF7FEFF 		bl	_ZN5daisy6LoggerILNS_17LoggerDestinationE1EE9PrintLineEPKcz
 7919              	.LVL628:
 128:/Users/reza.kalfane/Workspaces/Daisy/DaisyExamples/libDaisy/src/daisy_seed.h ****     }
 7920              		.loc 1 128 23 view .LVU2384
 7921              	.LBE1495:
 7922              	.LBE1494:
1306:src/main.cpp  **** 
1307:src/main.cpp  ****         // Always print both finger rows ŌĆö inactive shows dashes so line count is stable
1308:src/main.cpp  ****         for(int slot=0;slot<2;slot++){
 7923              		.loc 6 1308 9 is_stmt 1 view .LVU2385
 7924              	.LBB1496:
 7925              		.loc 6 1308 28 view .LVU2386
 7926              	.L522:
1309:src/main.cpp  ****             if(tracked[slot].alive){
 7927              		.loc 6 1309 13 view .LVU2387
 7928 064c 2B78     		ldrb	r3, [r5]	@ zero_extendqisi2
 7929 064e 002B     		cmp	r3, #0
ARM GAS  /tmp/claude-502/ccZj3JyB.s 			page 208


 7930 0650 78D0     		beq	.L517
1310:src/main.cpp  ****                 make_bar(bar,tracked[slot].pressure,100,16);
 7931              		.loc 6 1310 17 view .LVU2388
 7932              		.loc 6 1310 25 is_stmt 0 view .LVU2389
 7933 0652 AB68     		ldr	r3, [r5, #8]
 7934              	.LVL629:
 7935              	.LBB1497:
 7936              	.LBI1497:
 798:src/main.cpp  **** {
 7937              		.loc 6 798 6 is_stmt 1 view .LVU2390
 7938              	.LBB1498:
 800:src/main.cpp  ****     if(n>w)n=w;
 7939              		.loc 6 800 5 view .LVU2391
 800:src/main.cpp  ****     if(n>w)n=w;
 7940              		.loc 6 800 25 is_stmt 0 view .LVU2392
 7941 0654 002B     		cmp	r3, #0
 7942 0656 7FDD     		ble	.L577
 800:src/main.cpp  ****     if(n>w)n=w;
 7943              		.loc 6 800 36 view .LVU2393
 7944 0658 1901     		lsls	r1, r3, #4
 800:src/main.cpp  ****     if(n>w)n=w;
 7945              		.loc 6 800 25 view .LVU2394
 7946 065a 5A4A     		ldr	r2, .L669+32
 800:src/main.cpp  ****     if(n>w)n=w;
 7947              		.loc 6 800 38 view .LVU2395
 7948 065c 3231     		adds	r1, r1, #50
 800:src/main.cpp  ****     if(n>w)n=w;
 7949              		.loc 6 800 25 view .LVU2396
 7950 065e A2FB0121 		umull	r2, r1, r2, r1
 7951 0662 4909     		lsrs	r1, r1, #5
 7952 0664 1029     		cmp	r1, #16
 7953 0666 A8BF     		it	ge
 7954 0668 1021     		movge	r1, #16
 7955              	.L518:
 801:src/main.cpp  ****     out[0]='[';
 7956              		.loc 6 801 5 is_stmt 1 view .LVU2397
 802:src/main.cpp  ****     for(int i=0;i<w;i++)out[1+i]=(i<n)?'#':' ';
 7957              		.loc 6 802 5 view .LVU2398
 802:src/main.cpp  ****     for(int i=0;i<w;i++)out[1+i]=(i<n)?'#':' ';
 7958              		.loc 6 802 11 is_stmt 0 view .LVU2399
 7959 066a 5B22     		movs	r2, #91
 7960 066c 0AF11107 		add	r7, r10, #17
 7961 0670 8DF8AC20 		strb	r2, [sp, #172]
 803:src/main.cpp  ****     out[1+w]=']';out[2+w]='\0';
 7962              		.loc 6 803 5 is_stmt 1 view .LVU2400
 7963              	.LVL630:
 7964              	.LBB1499:
 803:src/main.cpp  ****     out[1+w]=']';out[2+w]='\0';
 7965              		.loc 6 803 18 view .LVU2401
 7966              	.LBE1499:
 802:src/main.cpp  ****     for(int i=0;i<w;i++)out[1+i]=(i<n)?'#':' ';
 7967              		.loc 6 802 11 is_stmt 0 view .LVU2402
 7968 0674 0DF1AD02 		add	r2, sp, #173
 7969              	.LVL631:
 7970              	.L520:
 7971              	.LBB1500:
 803:src/main.cpp  ****     out[1+w]=']';out[2+w]='\0';
ARM GAS  /tmp/claude-502/ccZj3JyB.s 			page 209


 7972              		.loc 6 803 25 is_stmt 1 view .LVU2403
 803:src/main.cpp  ****     out[1+w]=']';out[2+w]='\0';
 7973              		.loc 6 803 39 is_stmt 0 view .LVU2404
 7974 0678 1019     		adds	r0, r2, r4
 7975 067a 8842     		cmp	r0, r1
 7976 067c ACBF     		ite	ge
 7977 067e 2020     		movge	r0, #32
 7978 0680 2320     		movlt	r0, #35
 803:src/main.cpp  ****     out[1+w]=']';out[2+w]='\0';
 7979              		.loc 6 803 33 view .LVU2405
 7980 0682 02F8010B 		strb	r0, [r2], #1
 7981              	.LVL632:
 803:src/main.cpp  ****     out[1+w]=']';out[2+w]='\0';
 7982              		.loc 6 803 5 is_stmt 1 view .LVU2406
 803:src/main.cpp  ****     out[1+w]=']';out[2+w]='\0';
 7983              		.loc 6 803 18 view .LVU2407
 7984 0686 9742     		cmp	r7, r2
 7985 0688 F6D1     		bne	.L520
 7986              	.LBE1500:
 804:src/main.cpp  **** }
 7987              		.loc 6 804 5 view .LVU2408
 804:src/main.cpp  **** }
 7988              		.loc 6 804 13 is_stmt 0 view .LVU2409
 7989 068a 5D22     		movs	r2, #93
 7990              	.LVL633:
 804:src/main.cpp  **** }
 7991              		.loc 6 804 13 view .LVU2410
 7992              	.LBE1498:
 7993              	.LBE1497:
 7994              	.LBB1504:
 7995              	.LBB1505:
 128:/Users/reza.kalfane/Workspaces/Daisy/DaisyExamples/libDaisy/src/daisy_seed.h ****     }
 7996              		.loc 1 128 23 view .LVU2411
 7997 068c CDF800A0 		str	r10, [sp]
 7998 0690 3146     		mov	r1, r6
 7999 0692 4D48     		ldr	r0, .L669+36
 8000              	.LBE1505:
 8001              	.LBE1504:
 8002              	.LBB1507:
 8003              	.LBB1501:
 804:src/main.cpp  **** }
 8004              		.loc 6 804 13 view .LVU2412
 8005 0694 8DF8BD20 		strb	r2, [sp, #189]
 804:src/main.cpp  **** }
 8006              		.loc 6 804 18 is_stmt 1 view .LVU2413
 804:src/main.cpp  **** }
 8007              		.loc 6 804 26 is_stmt 0 view .LVU2414
 8008 0698 0022     		movs	r2, #0
 8009              	.LBE1501:
 8010              	.LBE1507:
1308:src/main.cpp  ****             if(tracked[slot].alive){
 8011              		.loc 6 1308 28 view .LVU2415
 8012 069a 1435     		adds	r5, r5, #20
 8013              	.LBB1508:
 8014              	.LBB1502:
 804:src/main.cpp  **** }
 8015              		.loc 6 804 26 view .LVU2416
ARM GAS  /tmp/claude-502/ccZj3JyB.s 			page 210


 8016 069c 8DF8BE20 		strb	r2, [sp, #190]
 8017              	.LVL634:
 804:src/main.cpp  **** }
 8018              		.loc 6 804 26 view .LVU2417
 8019              	.LBE1502:
 8020              	.LBE1508:
1311:src/main.cpp  ****                 hw.PrintLine("  %d  pos:%4d  prs:%3d%%  %s",
 8021              		.loc 6 1311 17 is_stmt 1 view .LVU2418
 8022              	.LBB1509:
 8023              	.LBI1504:
 126:/Users/reza.kalfane/Workspaces/Daisy/DaisyExamples/libDaisy/src/daisy_seed.h ****     {
 8024              		.loc 1 126 17 view .LVU2419
 8025              	.LBB1506:
 128:/Users/reza.kalfane/Workspaces/Daisy/DaisyExamples/libDaisy/src/daisy_seed.h ****     }
 8026              		.loc 1 128 23 is_stmt 0 view .LVU2420
 8027 06a0 55F8102C 		ldr	r2, [r5, #-16]
 8028 06a4 FFF7FEFF 		bl	_ZN5daisy6LoggerILNS_17LoggerDestinationE1EE9PrintLineEPKcz
 8029              	.LVL635:
 128:/Users/reza.kalfane/Workspaces/Daisy/DaisyExamples/libDaisy/src/daisy_seed.h ****     }
 8030              		.loc 1 128 23 view .LVU2421
 8031              	.LBE1506:
 8032              	.LBE1509:
1308:src/main.cpp  ****             if(tracked[slot].alive){
 8033              		.loc 6 1308 9 is_stmt 1 view .LVU2422
1308:src/main.cpp  ****             if(tracked[slot].alive){
 8034              		.loc 6 1308 28 view .LVU2423
 8035 06a8 022E     		cmp	r6, #2
 8036 06aa 53D1     		bne	.L579
 8037              	.LVL636:
 8038              	.L652:
1308:src/main.cpp  ****             if(tracked[slot].alive){
 8039              		.loc 6 1308 28 is_stmt 0 view .LVU2424
 8040              	.LBE1496:
1312:src/main.cpp  ****                     slot+1,(int)tracked[slot].pos,(int)tracked[slot].pressure,bar);
1313:src/main.cpp  ****             } else {
1314:src/main.cpp  ****                 hw.PrintLine("  %d  pos: ---  prs: --%%  [                ]",slot+1);
1315:src/main.cpp  ****             }
1316:src/main.cpp  ****         }
1317:src/main.cpp  **** 
1318:src/main.cpp  ****         // Audio param display ŌĆö fixed width, always same line count
1319:src/main.cpp  ****         int freq_i  = (int)g_target_freq;
 8041              		.loc 6 1319 9 is_stmt 1 view .LVU2425
 8042              		.loc 6 1319 23 is_stmt 0 view .LVU2426
 8043 06ac 474B     		ldr	r3, .L669+40
1320:src/main.cpp  ****         int cut_i   = (int)g_target_cutoff;
1321:src/main.cpp  ****         int det_i10 = (int)(g_target_detune*10);
 8044              		.loc 6 1321 44 view .LVU2427
 8045 06ae B2EE047A 		vmov.f32	s14, #1.0e+1
1322:src/main.cpp  ****         int bc_i    = (int)(g_bitcrush*100);
 8046              		.loc 6 1322 39 view .LVU2428
 8047 06b2 9FED475A 		vldr.32	s10, .L669+44
1319:src/main.cpp  ****         int cut_i   = (int)g_target_cutoff;
 8048              		.loc 6 1319 23 view .LVU2429
 8049 06b6 D3ED006A 		vldr.32	s13, [r3]
1320:src/main.cpp  ****         int cut_i   = (int)g_target_cutoff;
 8050              		.loc 6 1320 23 view .LVU2430
 8051 06ba 464B     		ldr	r3, .L669+48
ARM GAS  /tmp/claude-502/ccZj3JyB.s 			page 211


1319:src/main.cpp  ****         int cut_i   = (int)g_target_cutoff;
 8052              		.loc 6 1319 28 view .LVU2431
 8053 06bc FDEEE66A 		vcvt.s32.f32	s13, s13
1320:src/main.cpp  ****         int cut_i   = (int)g_target_cutoff;
 8054              		.loc 6 1320 23 view .LVU2432
 8055 06c0 93ED006A 		vldr.32	s12, [r3]
1321:src/main.cpp  ****         int bc_i    = (int)(g_bitcrush*100);
 8056              		.loc 6 1321 29 view .LVU2433
 8057 06c4 374B     		ldr	r3, .L669
1319:src/main.cpp  ****         int cut_i   = (int)g_target_cutoff;
 8058              		.loc 6 1319 28 view .LVU2434
 8059 06c6 16EE901A 		vmov	r1, s13	@ int
 8060              	.LVL637:
1320:src/main.cpp  ****         int det_i10 = (int)(g_target_detune*10);
 8061              		.loc 6 1320 9 is_stmt 1 view .LVU2435
1321:src/main.cpp  ****         int bc_i    = (int)(g_bitcrush*100);
 8062              		.loc 6 1321 29 is_stmt 0 view .LVU2436
 8063 06ca D3ED005A 		vldr.32	s11, [r3]
 8064              		.loc 6 1322 29 view .LVU2437
 8065 06ce 364B     		ldr	r3, .L669+4
1321:src/main.cpp  ****         int bc_i    = (int)(g_bitcrush*100);
 8066              		.loc 6 1321 44 view .LVU2438
 8067 06d0 65EE875A 		vmul.f32	s11, s11, s14
 8068              		.loc 6 1322 29 view .LVU2439
 8069 06d4 D3ED007A 		vldr.32	s15, [r3]
1323:src/main.cpp  ****         int vib_i   = (int)(g_vibrato_depth*100);
 8070              		.loc 6 1323 29 view .LVU2440
 8071 06d8 3F4B     		ldr	r3, .L669+52
1321:src/main.cpp  ****         int bc_i    = (int)(g_bitcrush*100);
 8072              		.loc 6 1321 47 view .LVU2441
 8073 06da FDEEE56A 		vcvt.s32.f32	s13, s11
 8074              		.loc 6 1323 29 view .LVU2442
 8075 06de 93ED007A 		vldr.32	s14, [r3]
1322:src/main.cpp  ****         int vib_i   = (int)(g_vibrato_depth*100);
 8076              		.loc 6 1322 39 view .LVU2443
 8077 06e2 67EE857A 		vmul.f32	s15, s15, s10
1321:src/main.cpp  ****         int bc_i    = (int)(g_bitcrush*100);
 8078              		.loc 6 1321 47 view .LVU2444
 8079 06e6 16EE900A 		vmov	r0, s13	@ int
 8080              		.loc 6 1323 44 view .LVU2445
 8081 06ea 27EE057A 		vmul.f32	s14, s14, s10
1320:src/main.cpp  ****         int det_i10 = (int)(g_target_detune*10);
 8082              		.loc 6 1320 28 view .LVU2446
 8083 06ee FDEEC66A 		vcvt.s32.f32	s13, s12
1324:src/main.cpp  ****         hw.PrintLine("  freq:%4dHz  cut:%5dHz  det:%c%d.%ds  fx:%2d%%  vib:%2d%%",
 8084              		.loc 6 1324 21 view .LVU2447
 8085 06f2 0028     		cmp	r0, #0
1322:src/main.cpp  ****         int vib_i   = (int)(g_vibrato_depth*100);
 8086              		.loc 6 1322 43 view .LVU2448
 8087 06f4 FDEEE77A 		vcvt.s32.f32	s15, s15
1323:src/main.cpp  ****         hw.PrintLine("  freq:%4dHz  cut:%5dHz  det:%c%d.%ds  fx:%2d%%  vib:%2d%%",
 8088              		.loc 6 1323 48 view .LVU2449
 8089 06f8 BDEEC77A 		vcvt.s32.f32	s14, s14
1320:src/main.cpp  ****         int det_i10 = (int)(g_target_detune*10);
 8090              		.loc 6 1320 28 view .LVU2450
 8091 06fc 16EE902A 		vmov	r2, s13	@ int
 8092              	.LVL638:
ARM GAS  /tmp/claude-502/ccZj3JyB.s 			page 212


1321:src/main.cpp  ****         int bc_i    = (int)(g_bitcrush*100);
 8093              		.loc 6 1321 9 is_stmt 1 view .LVU2451
1322:src/main.cpp  ****         int vib_i   = (int)(g_vibrato_depth*100);
 8094              		.loc 6 1322 9 view .LVU2452
1323:src/main.cpp  ****         hw.PrintLine("  freq:%4dHz  cut:%5dHz  det:%c%d.%ds  fx:%2d%%  vib:%2d%%",
 8095              		.loc 6 1323 9 view .LVU2453
 8096              		.loc 6 1324 9 view .LVU2454
 8097              		.loc 6 1324 21 is_stmt 0 view .LVU2455
 8098 0700 3EDB     		blt	.L651
 8099 0702 364B     		ldr	r3, .L669+56
 8100 0704 C517     		asrs	r5, r0, #31
 8101 0706 83FB0043 		smull	r4, r3, r3, r0
 8102 070a C5EBA305 		rsb	r5, r5, r3, asr #2
 8103 070e 2B23     		movs	r3, #43
 8104 0710 05EB8504 		add	r4, r5, r5, lsl #2
 8105 0714 A0EB4404 		sub	r4, r0, r4, lsl #1
 8106              	.LVL639:
 8107              	.L526:
 8108              	.LBB1513:
 8109              	.LBI1513:
 126:/Users/reza.kalfane/Workspaces/Daisy/DaisyExamples/libDaisy/src/daisy_seed.h ****     {
 8110              		.loc 1 126 17 is_stmt 1 discriminator 12 view .LVU2456
 8111              	.LBE1513:
1101:src/main.cpp  ****         if(f1_on) f1_last_seen_ms = System::GetNow();
 8112              		.loc 6 1101 14 is_stmt 0 discriminator 12 view .LVU2457
 8113 0718 0798     		ldr	r0, [sp, #28]
 8114              	.LBB1516:
 8115              	.LBB1514:
 128:/Users/reza.kalfane/Workspaces/Daisy/DaisyExamples/libDaisy/src/daisy_seed.h ****     }
 8116              		.loc 1 128 23 discriminator 12 view .LVU2458
 8117 071a 8DED037A 		vstr.32	s14, [sp, #12]	@ int
 8118 071e CDED027A 		vstr.32	s15, [sp, #8]	@ int
 8119              	.LBE1514:
 8120              	.LBE1516:
1101:src/main.cpp  ****         if(f1_on) f1_last_seen_ms = System::GetNow();
 8121              		.loc 6 1101 14 discriminator 12 view .LVU2459
 8122 0722 0590     		str	r0, [sp, #20]
 8123              	.LBB1517:
 8124              	.LBB1515:
 128:/Users/reza.kalfane/Workspaces/Daisy/DaisyExamples/libDaisy/src/daisy_seed.h ****     }
 8125              		.loc 1 128 23 discriminator 12 view .LVU2460
 8126 0724 2E48     		ldr	r0, .L669+60
 8127 0726 CDE90054 		strd	r5, r4, [sp]
 8128 072a FFF7FEFF 		bl	_ZN5daisy6LoggerILNS_17LoggerDestinationE1EE9PrintLineEPKcz
 8129              	.LVL640:
 128:/Users/reza.kalfane/Workspaces/Daisy/DaisyExamples/libDaisy/src/daisy_seed.h ****     }
 8130              		.loc 1 128 23 discriminator 12 view .LVU2461
 8131              	.LBE1515:
 8132              	.LBE1517:
1325:src/main.cpp  ****             freq_i, cut_i,
1326:src/main.cpp  ****             det_i10<0?'-':'+',
1327:src/main.cpp  ****             det_i10<0?(-det_i10)/10:det_i10/10,
1328:src/main.cpp  ****             det_i10<0?(-det_i10)%10:det_i10%10,
1329:src/main.cpp  ****             bc_i, vib_i);
1330:src/main.cpp  ****         hw.PrintLine("--------------------------------------------");
 8133              		.loc 6 1330 9 is_stmt 1 discriminator 12 view .LVU2462
 8134              	.LBB1518:
ARM GAS  /tmp/claude-502/ccZj3JyB.s 			page 213


 8135              	.LBI1518:
 126:/Users/reza.kalfane/Workspaces/Daisy/DaisyExamples/libDaisy/src/daisy_seed.h ****     {
 8136              		.loc 1 126 17 discriminator 12 view .LVU2463
 8137              	.LBB1519:
 128:/Users/reza.kalfane/Workspaces/Daisy/DaisyExamples/libDaisy/src/daisy_seed.h ****     }
 8138              		.loc 1 128 23 is_stmt 0 discriminator 12 view .LVU2464
 8139 072e 2D48     		ldr	r0, .L669+64
 8140 0730 FFF7FEFF 		bl	_ZN5daisy6LoggerILNS_17LoggerDestinationE1EE9PrintLineEPKcz
 8141              	.LVL641:
 128:/Users/reza.kalfane/Workspaces/Daisy/DaisyExamples/libDaisy/src/daisy_seed.h ****     }
 8142              		.loc 1 128 23 discriminator 12 view .LVU2465
 8143              	.LBE1519:
 8144              	.LBE1518:
1331:src/main.cpp  **** 
1332:src/main.cpp  ****         System::Delay(60);
 8145              		.loc 6 1332 9 is_stmt 1 discriminator 12 view .LVU2466
 8146              		.loc 6 1332 22 is_stmt 0 discriminator 12 view .LVU2467
 8147 0734 3C20     		movs	r0, #60
 8148 0736 FFF7FEFF 		bl	_ZN5daisy6System5DelayEm
 8149              	.LVL642:
 8150 073a 50E5     		b	.L525
 8151              	.LVL643:
 8152              	.L572:
 8153              	.LBB1520:
 8154              	.LBB1474:
1298:src/main.cpp  ****             for(int s=0;s<2;s++)
 8155              		.loc 6 1298 18 view .LVU2468
 8156 073c 2023     		movs	r3, #32
 8157 073e 29E7     		b	.L509
 8158              	.LVL644:
 8159              	.L570:
 8160              	.LBB1471:
 8161              	.LBB1460:
1298:src/main.cpp  ****             for(int s=0;s<2;s++)
 8162              		.loc 6 1298 18 view .LVU2469
 8163 0740 0020     		movs	r0, #0
 8164 0742 06E7     		b	.L506
 8165              	.LVL645:
 8166              	.L517:
1298:src/main.cpp  ****             for(int s=0;s<2;s++)
 8167              		.loc 6 1298 18 view .LVU2470
 8168              	.LBE1460:
 8169              	.LBE1471:
 8170              	.LBE1474:
 8171              	.LBE1520:
 8172              	.LBB1521:
1314:src/main.cpp  ****             }
 8173              		.loc 6 1314 17 is_stmt 1 view .LVU2471
 8174              	.LBB1510:
 8175              	.LBI1510:
 126:/Users/reza.kalfane/Workspaces/Daisy/DaisyExamples/libDaisy/src/daisy_seed.h ****     {
 8176              		.loc 1 126 17 view .LVU2472
 8177              	.LBB1511:
 128:/Users/reza.kalfane/Workspaces/Daisy/DaisyExamples/libDaisy/src/daisy_seed.h ****     }
 8178              		.loc 1 128 23 is_stmt 0 view .LVU2473
 8179 0744 3146     		mov	r1, r6
 8180 0746 2848     		ldr	r0, .L669+68
ARM GAS  /tmp/claude-502/ccZj3JyB.s 			page 214


 8181 0748 FFF7FEFF 		bl	_ZN5daisy6LoggerILNS_17LoggerDestinationE1EE9PrintLineEPKcz
 8182              	.LVL646:
 128:/Users/reza.kalfane/Workspaces/Daisy/DaisyExamples/libDaisy/src/daisy_seed.h ****     }
 8183              		.loc 1 128 23 view .LVU2474
 8184              	.LBE1511:
 8185              	.LBE1510:
1308:src/main.cpp  ****             if(tracked[slot].alive){
 8186              		.loc 6 1308 9 is_stmt 1 view .LVU2475
1308:src/main.cpp  ****             if(tracked[slot].alive){
 8187              		.loc 6 1308 28 view .LVU2476
 8188 074c 022E     		cmp	r6, #2
 8189 074e 05F11405 		add	r5, r5, #20
 8190 0752 ABD0     		beq	.L652
 8191              	.LVL647:
 8192              	.L579:
1308:src/main.cpp  ****             if(tracked[slot].alive){
 8193              		.loc 6 1308 28 is_stmt 0 view .LVU2477
 8194 0754 0226     		movs	r6, #2
 8195 0756 79E7     		b	.L522
 8196              	.LVL648:
 8197              	.L577:
 8198              	.LBB1512:
 8199              	.LBB1503:
1308:src/main.cpp  ****             if(tracked[slot].alive){
 8200              		.loc 6 1308 28 view .LVU2478
 8201 0758 0021     		movs	r1, #0
 8202 075a 86E7     		b	.L518
 8203              	.LVL649:
 8204              	.L643:
1308:src/main.cpp  ****             if(tracked[slot].alive){
 8205              		.loc 6 1308 28 view .LVU2479
 8206              	.LBE1503:
 8207              	.LBE1512:
 8208              	.LBE1521:
1031:src/main.cpp  ****         else                        vol = (float)(fsr_raw - FSR_MIN) * fsr_range_inv;
 8209              		.loc 6 1031 14 is_stmt 1 view .LVU2480
 8210 075c 0B9B     		ldr	r3, [sp, #44]
 8211 075e 8342     		cmp	r3, r0
 8212 0760 40F21D83 		bls	.L540
1032:src/main.cpp  ****         g_master_vol = vol;
 8213              		.loc 6 1032 37 view .LVU2481
1032:src/main.cpp  ****         g_master_vol = vol;
 8214              		.loc 6 1032 59 is_stmt 0 view .LVU2482
 8215 0764 A0F5FA50 		sub	r0, r0, #8000
 8216              	.LVL650:
1032:src/main.cpp  ****         g_master_vol = vol;
 8217              		.loc 6 1032 43 view .LVU2483
 8218 0768 07EE900A 		vmov	s15, r0	@ int
 8219 076c F8EEE77A 		vcvt.f32.s32	s15, s15
1032:src/main.cpp  ****         g_master_vol = vol;
 8220              		.loc 6 1032 41 view .LVU2484
 8221 0770 67EEAA7A 		vmul.f32	s15, s15, s21
 8222              	.LVL651:
 8223              	.L410:
1033:src/main.cpp  **** 
 8224              		.loc 6 1033 9 is_stmt 1 view .LVU2485
1033:src/main.cpp  **** 
ARM GAS  /tmp/claude-502/ccZj3JyB.s 			page 215


 8225              		.loc 6 1033 22 is_stmt 0 view .LVU2486
 8226 0774 1D4B     		ldr	r3, .L669+72
 8227 0776 C3ED007A 		vstr.32	s15, [r3]
1039:src/main.cpp  ****         if(!fsr_pressed){
 8228              		.loc 6 1039 9 is_stmt 1 view .LVU2487
1040:src/main.cpp  ****             fsr_hold_start = 0;                    // released ŌåÆ disarm
 8229              		.loc 6 1040 9 view .LVU2488
 8230              	.LBB1522:
1041:src/main.cpp  ****         } else {
 8231              		.loc 6 1041 28 is_stmt 0 view .LVU2489
 8232 077a 0023     		movs	r3, #0
 8233 077c 0A93     		str	r3, [sp, #40]
 8234              	.LVL652:
1041:src/main.cpp  ****         } else {
 8235              		.loc 6 1041 28 view .LVU2490
 8236 077e 48E5     		b	.L411
 8237              	.LVL653:
 8238              	.L651:
1041:src/main.cpp  ****         } else {
 8239              		.loc 6 1041 28 view .LVU2491
 8240              	.LBE1522:
1328:src/main.cpp  ****             bc_i, vib_i);
 8241              		.loc 6 1328 24 view .LVU2492
 8242 0780 4342     		rsbs	r3, r0, #0
1324:src/main.cpp  ****             freq_i, cut_i,
 8243              		.loc 6 1324 21 view .LVU2493
 8244 0782 1B4C     		ldr	r4, .L669+76
 8245 0784 A4FB0354 		umull	r5, r4, r4, r3
 8246 0788 E408     		lsrs	r4, r4, #3
 8247 078a 04EB8404 		add	r4, r4, r4, lsl #2
 8248 078e A3EB4404 		sub	r4, r3, r4, lsl #1
 8249 0792 124B     		ldr	r3, .L669+56
 8250 0794 83FB0053 		smull	r5, r3, r3, r0
 8251 0798 C017     		asrs	r0, r0, #31
 8252              	.LVL654:
1324:src/main.cpp  ****             freq_i, cut_i,
 8253              		.loc 6 1324 21 view .LVU2494
 8254 079a A0EBA305 		sub	r5, r0, r3, asr #2
 8255 079e 2D23     		movs	r3, #45
 8256 07a0 BAE7     		b	.L526
 8257              	.L670:
 8258 07a2 00BF     		.align	2
 8259              	.L669:
 8260 07a4 00000000 		.word	.LANCHOR3
 8261 07a8 00000000 		.word	.LANCHOR6
 8262 07ac 00000000 		.word	.LANCHOR7
 8263 07b0 50010000 		.word	.LC12
 8264 07b4 64010000 		.word	.LC13
 8265 07b8 88010000 		.word	.LC14
 8266 07bc 00000000 		.word	.LANCHOR43
 8267 07c0 9C010000 		.word	.LC15
 8268 07c4 1F85EB51 		.word	1374389535
 8269 07c8 A8010000 		.word	.LC16
 8270 07cc 00000000 		.word	.LANCHOR1
 8271 07d0 0000C842 		.word	1120403456
 8272 07d4 00000000 		.word	.LANCHOR2
 8273 07d8 00000000 		.word	.LANCHOR5
ARM GAS  /tmp/claude-502/ccZj3JyB.s 			page 216


 8274 07dc 67666666 		.word	1717986919
 8275 07e0 F8010000 		.word	.LC18
 8276 07e4 34020000 		.word	.LC19
 8277 07e8 C8010000 		.word	.LC17
 8278 07ec 00000000 		.word	.LANCHOR9
 8279 07f0 CDCCCCCC 		.word	-858993459
 8280              	.LVL655:
 8281              	.L417:
1080:src/main.cpp  ****                 tracked[0].alive=tracked[1].alive=false;
 8282              		.loc 6 1080 13 is_stmt 1 view .LVU2495
1080:src/main.cpp  ****                 tracked[0].alive=tracked[1].alive=false;
 8283              		.loc 6 1080 30 is_stmt 0 view .LVU2496
 8284 07f4 FFF7FEFF 		bl	_ZN5daisy6System6GetNowEv
 8285              	.LVL656:
1080:src/main.cpp  ****                 tracked[0].alive=tracked[1].alive=false;
 8286              		.loc 6 1080 32 view .LVU2497
 8287 07f8 069B     		ldr	r3, [sp, #24]
 8288 07fa C01A     		subs	r0, r0, r3
1080:src/main.cpp  ****                 tracked[0].alive=tracked[1].alive=false;
 8289              		.loc 6 1080 13 view .LVU2498
 8290 07fc B0F5FA6F 		cmp	r0, #2000
 8291 0800 80F0C083 		bcs	.L653
 8292              	.L419:
1089:src/main.cpp  ****             last_touch_ms = System::GetNow();
 8293              		.loc 6 1089 9 is_stmt 1 view .LVU2499
1091:src/main.cpp  ****             idle_chase_and_calibrate();
 8294              		.loc 6 1091 16 view .LVU2500
1091:src/main.cpp  ****             idle_chase_and_calibrate();
 8295              		.loc 6 1091 33 is_stmt 0 view .LVU2501
 8296 0804 FFF7FEFF 		bl	_ZN5daisy6System6GetNowEv
 8297              	.LVL657:
1091:src/main.cpp  ****             idle_chase_and_calibrate();
 8298              		.loc 6 1091 36 view .LVU2502
 8299 0808 089B     		ldr	r3, [sp, #32]
 8300 080a C01A     		subs	r0, r0, r3
1091:src/main.cpp  ****             idle_chase_and_calibrate();
 8301              		.loc 6 1091 16 view .LVU2503
 8302 080c 41F28733 		movw	r3, #4999
 8303 0810 9842     		cmp	r0, r3
 8304 0812 7FF667AD 		bls	.L418
1092:src/main.cpp  ****             last_touch_ms = System::GetNow();
 8305              		.loc 6 1092 13 is_stmt 1 view .LVU2504
 8306              	.LVL658:
 8307              	.LBB1523:
 8308              	.LBI1523:
 893:src/main.cpp  ****         uint32_t start = System::GetNow();
 8309              		.loc 6 893 37 view .LVU2505
 8310              	.LBB1524:
 8311              	.LBB1525:
 894:src/main.cpp  ****         uint32_t acc = 0; int n = 0;
 8312              		.loc 6 894 9 view .LVU2506
 896:src/main.cpp  ****         constexpr uint32_t SWEEP_PERIOD_MS = 12000;  // one 0ŌåÆ1ŌåÆ0 cycle
 8313              		.loc 6 896 18 is_stmt 0 view .LVU2507
 8314 0816 0023     		movs	r3, #0
 895:src/main.cpp  ****         bool     calibrated = false;
 8315              		.loc 6 895 18 view .LVU2508
 8316 0818 0CEE105A 		vmov	s24, r5	@ int
ARM GAS  /tmp/claude-502/ccZj3JyB.s 			page 217


 896:src/main.cpp  ****         constexpr uint32_t SWEEP_PERIOD_MS = 12000;  // one 0ŌåÆ1ŌåÆ0 cycle
 8317              		.loc 6 896 18 view .LVU2509
 8318 081c 1C46     		mov	r4, r3
 894:src/main.cpp  ****         uint32_t acc = 0; int n = 0;
 8319              		.loc 6 894 40 view .LVU2510
 8320 081e FFF7FEFF 		bl	_ZN5daisy6System6GetNowEv
 8321              	.LVL659:
 895:src/main.cpp  ****         bool     calibrated = false;
 8322              		.loc 6 895 9 is_stmt 1 view .LVU2511
 895:src/main.cpp  ****         bool     calibrated = false;
 8323              		.loc 6 895 27 view .LVU2512
 896:src/main.cpp  ****         constexpr uint32_t SWEEP_PERIOD_MS = 12000;  // one 0ŌåÆ1ŌåÆ0 cycle
 8324              		.loc 6 896 9 view .LVU2513
 897:src/main.cpp  ****         constexpr float    TAU             = 6.2831853f;
 8325              		.loc 6 897 9 view .LVU2514
 898:src/main.cpp  ****         uint16_t scan[N_CH];
 8326              		.loc 6 898 9 view .LVU2515
 895:src/main.cpp  ****         bool     calibrated = false;
 8327              		.loc 6 895 18 is_stmt 0 view .LVU2516
 8328 0822 0896     		str	r6, [sp, #32]
 8329              	.LVL660:
 895:src/main.cpp  ****         bool     calibrated = false;
 8330              		.loc 6 895 18 view .LVU2517
 8331 0824 0D97     		str	r7, [sp, #52]
 8332 0826 2646     		mov	r6, r4
 8333              	.LVL661:
 895:src/main.cpp  ****         bool     calibrated = false;
 8334              		.loc 6 895 18 view .LVU2518
 8335 0828 0746     		mov	r7, r0
 8336 082a 099D     		ldr	r5, [sp, #36]
 8337              	.LVL662:
 895:src/main.cpp  ****         bool     calibrated = false;
 8338              		.loc 6 895 18 view .LVU2519
 8339 082c CDE90644 		strd	r4, r4, [sp, #24]
 8340              	.LVL663:
 8341              	.L446:
 899:src/main.cpp  **** 
 8342              		.loc 6 899 9 is_stmt 1 view .LVU2520
 901:src/main.cpp  ****             uint32_t elapsed = System::GetNow() - start;
 8343              		.loc 6 901 9 view .LVU2521
 8344              	.LBB1526:
 902:src/main.cpp  **** 
 8345              		.loc 6 902 13 view .LVU2522
 902:src/main.cpp  **** 
 8346              		.loc 6 902 46 is_stmt 0 view .LVU2523
 8347 0830 FFF7FEFF 		bl	_ZN5daisy6System6GetNowEv
 8348              	.LVL664:
 906:src/main.cpp  ****             float p01   = 0.5f * (1.0f - cosf(phase * TAU));
 8349              		.loc 6 906 43 view .LVU2524
 8350 0834 6B4B     		ldr	r3, .L671
 902:src/main.cpp  **** 
 8351              		.loc 6 902 51 view .LVU2525
 8352 0836 C41B     		subs	r4, r0, r7
 8353              	.LVL665:
 906:src/main.cpp  ****             float p01   = 0.5f * (1.0f - cosf(phase * TAU));
 8354              		.loc 6 906 13 is_stmt 1 view .LVU2526
 907:src/main.cpp  **** 
ARM GAS  /tmp/claude-502/ccZj3JyB.s 			page 218


 8355              		.loc 6 907 13 view .LVU2527
 906:src/main.cpp  ****             float p01   = 0.5f * (1.0f - cosf(phase * TAU));
 8356              		.loc 6 906 19 is_stmt 0 view .LVU2528
 8357 0838 DFED6B6A 		vldr.32	s13, .L671+4
 907:src/main.cpp  **** 
 8358              		.loc 6 907 46 view .LVU2529
 8359 083c 9FED6B7A 		vldr.32	s14, .L671+8
 907:src/main.cpp  **** 
 8360              		.loc 6 907 40 view .LVU2530
 8361 0840 F7EE008A 		vmov.f32	s17, #1.0e+0
 906:src/main.cpp  ****             float p01   = 0.5f * (1.0f - cosf(phase * TAU));
 8362              		.loc 6 906 43 view .LVU2531
 8363 0844 A3FB0423 		umull	r2, r3, r3, r4
 8364 0848 42F6E062 		movw	r2, #12000
 8365 084c 1B0A     		lsrs	r3, r3, #8
 8366 084e 02FB1343 		mls	r3, r2, r3, r4
 906:src/main.cpp  ****             float p01   = 0.5f * (1.0f - cosf(phase * TAU));
 8367              		.loc 6 906 27 view .LVU2532
 8368 0852 07EE903A 		vmov	s15, r3	@ int
 8369 0856 F8EEE77A 		vcvt.f32.s32	s15, s15
 906:src/main.cpp  ****             float p01   = 0.5f * (1.0f - cosf(phase * TAU));
 8370              		.loc 6 906 19 view .LVU2533
 8371 085a 87EEA60A 		vdiv.f32	s0, s15, s13
 907:src/main.cpp  **** 
 8372              		.loc 6 907 46 view .LVU2534
 8373 085e 20EE070A 		vmul.f32	s0, s0, s14
 8374 0862 FFF7FEFF 		bl	cosf
 8375              	.LVL666:
 907:src/main.cpp  **** 
 8376              		.loc 6 907 19 view .LVU2535
 8377 0866 F6EE007A 		vmov.f32	s15, #5.0e-1
 907:src/main.cpp  **** 
 8378              		.loc 6 907 40 view .LVU2536
 8379 086a 38EEC00A 		vsub.f32	s0, s17, s0
 912:src/main.cpp  ****             float led1   = sqrtf(sqrtf(l2_raw));              // middle (DAC1)
 8380              		.loc 6 912 52 view .LVU2537
 8381 086e B6EE006A 		vmov.f32	s12, #5.0e-1
 911:src/main.cpp  ****             float l2_raw = 1.0f - 2.0f * fabsf(p01 - 0.5f);   if(l2_raw < 0) l2_raw = 0;
 8382              		.loc 6 911 19 view .LVU2538
 8383 0872 B7EE007A 		vmov.f32	s14, #1.0e+0
 907:src/main.cpp  **** 
 8384              		.loc 6 907 19 view .LVU2539
 8385 0876 60EE277A 		vmul.f32	s15, s0, s15
 8386              	.LVL667:
 910:src/main.cpp  ****             float l3_raw = 2.0f * p01 - 1.0f;                 if(l3_raw < 0) l3_raw = 0;
 8387              		.loc 6 910 13 is_stmt 1 view .LVU2540
 912:src/main.cpp  ****             float led1   = sqrtf(sqrtf(l2_raw));              // middle (DAC1)
 8388              		.loc 6 912 19 is_stmt 0 view .LVU2541
 8389 087a F0EE006A 		vmov.f32	s13, #2.0e+0
 910:src/main.cpp  ****             float l3_raw = 2.0f * p01 - 1.0f;                 if(l3_raw < 0) l3_raw = 0;
 8390              		.loc 6 910 40 view .LVU2542
 8391 087e 37EEA78A 		vadd.f32	s16, s15, s15
 912:src/main.cpp  ****             float led1   = sqrtf(sqrtf(l2_raw));              // middle (DAC1)
 8392              		.loc 6 912 52 view .LVU2543
 8393 0882 77EEC67A 		vsub.f32	s15, s15, s12
 8394              	.LVL668:
 910:src/main.cpp  ****             float l3_raw = 2.0f * p01 - 1.0f;                 if(l3_raw < 0) l3_raw = 0;
ARM GAS  /tmp/claude-502/ccZj3JyB.s 			page 219


 8395              		.loc 6 910 19 view .LVU2544
 8396 0886 78EEC88A 		vsub.f32	s17, s17, s16
 8397              	.LVL669:
 910:src/main.cpp  ****             float l3_raw = 2.0f * p01 - 1.0f;                 if(l3_raw < 0) l3_raw = 0;
 8398              		.loc 6 910 63 is_stmt 1 view .LVU2545
 912:src/main.cpp  ****             float led1   = sqrtf(sqrtf(l2_raw));              // middle (DAC1)
 8399              		.loc 6 912 47 is_stmt 0 view .LVU2546
 8400 088a F0EEE77A 		vabs.f32	s15, s15
 911:src/main.cpp  ****             float l2_raw = 1.0f - 2.0f * fabsf(p01 - 0.5f);   if(l2_raw < 0) l2_raw = 0;
 8401              		.loc 6 911 19 view .LVU2547
 8402 088e 38EE478A 		vsub.f32	s16, s16, s14
 912:src/main.cpp  ****             float led1   = sqrtf(sqrtf(l2_raw));              // middle (DAC1)
 8403              		.loc 6 912 19 view .LVU2548
 8404 0892 B7EE007A 		vmov.f32	s14, #1.0e+0
 910:src/main.cpp  ****             float l3_raw = 2.0f * p01 - 1.0f;                 if(l3_raw < 0) l3_raw = 0;
 8405              		.loc 6 910 63 view .LVU2549
 8406 0896 F5EEC08A 		vcmpe.f32	s17, #0
 912:src/main.cpp  ****             float led1   = sqrtf(sqrtf(l2_raw));              // middle (DAC1)
 8407              		.loc 6 912 19 view .LVU2550
 8408 089a A7EEE67A 		vfms.f32	s14, s15, s13
 910:src/main.cpp  ****             float l3_raw = 2.0f * p01 - 1.0f;                 if(l3_raw < 0) l3_raw = 0;
 8409              		.loc 6 910 63 view .LVU2551
 8410 089e F1EE10FA 		vmrs	APSR_nzcv, FPSCR
 911:src/main.cpp  ****             float l2_raw = 1.0f - 2.0f * fabsf(p01 - 0.5f);   if(l2_raw < 0) l2_raw = 0;
 8411              		.loc 6 911 63 view .LVU2552
 8412 08a2 B5EEC08A 		vcmpe.f32	s16, #0
 910:src/main.cpp  ****             float l3_raw = 2.0f * p01 - 1.0f;                 if(l3_raw < 0) l3_raw = 0;
 8413              		.loc 6 910 85 view .LVU2553
 8414 08a6 48BF     		it	mi
 8415 08a8 DFED518A 		vldrmi.32	s17, .L671+12
 8416              	.LVL670:
 911:src/main.cpp  ****             float l2_raw = 1.0f - 2.0f * fabsf(p01 - 0.5f);   if(l2_raw < 0) l2_raw = 0;
 8417              		.loc 6 911 13 is_stmt 1 view .LVU2554
 911:src/main.cpp  ****             float l2_raw = 1.0f - 2.0f * fabsf(p01 - 0.5f);   if(l2_raw < 0) l2_raw = 0;
 8418              		.loc 6 911 63 view .LVU2555
 8419 08ac F1EE10FA 		vmrs	APSR_nzcv, FPSCR
 912:src/main.cpp  ****             float led1   = sqrtf(sqrtf(l2_raw));              // middle (DAC1)
 8420              		.loc 6 912 63 is_stmt 0 view .LVU2556
 8421 08b0 B5EEC07A 		vcmpe.f32	s14, #0
 911:src/main.cpp  ****             float l2_raw = 1.0f - 2.0f * fabsf(p01 - 0.5f);   if(l2_raw < 0) l2_raw = 0;
 8422              		.loc 6 911 85 view .LVU2557
 8423 08b4 48BF     		it	mi
 8424 08b6 9FED4E8A 		vldrmi.32	s16, .L671+12
 8425              	.LVL671:
 912:src/main.cpp  ****             float led1   = sqrtf(sqrtf(l2_raw));              // middle (DAC1)
 8426              		.loc 6 912 13 is_stmt 1 view .LVU2558
 912:src/main.cpp  ****             float led1   = sqrtf(sqrtf(l2_raw));              // middle (DAC1)
 8427              		.loc 6 912 63 view .LVU2559
 8428 08ba F1EE10FA 		vmrs	APSR_nzcv, FPSCR
 8429 08be 66D4     		bmi	.L543
 913:src/main.cpp  ****             float led2   = sqrtf(sqrtf(l1_raw));              // pos 0  (DAC2)
 8430              		.loc 6 913 13 view .LVU2560
 8431 08c0 B5EE407A 		vcmp.f32	s14, #0
 8432 08c4 F1EE10FA 		vmrs	APSR_nzcv, FPSCR
 8433 08c8 00F10F84 		bmi	.L654
 8434              	.LVL672:
 8435              	.L424:
ARM GAS  /tmp/claude-502/ccZj3JyB.s 			page 220


 913:src/main.cpp  ****             float led2   = sqrtf(sqrtf(l1_raw));              // pos 0  (DAC2)
 8436              		.loc 6 913 33 is_stmt 0 view .LVU2561
 8437 08cc B1EEC70A 		vsqrt.f32	s0, s14
 8438              	.LVL673:
 8439              	.L427:
 913:src/main.cpp  ****             float led2   = sqrtf(sqrtf(l1_raw));              // pos 0  (DAC2)
 8440              		.loc 6 913 33 view .LVU2562
 8441 08d0 B5EE400A 		vcmp.f32	s0, #0
 8442 08d4 F1EE10FA 		vmrs	APSR_nzcv, FPSCR
 8443 08d8 00F10D84 		bmi	.L618
 8444 08dc B1EEC0BA 		vsqrt.f32	s22, s0
 8445              	.L430:
 914:src/main.cpp  ****             float led3   = sqrtf(sqrtf(l3_raw)) * LED3_INTENSITY; // pos 1 (PWM A0)
 8446              		.loc 6 914 13 is_stmt 1 view .LVU2563
 8447 08e0 F5EE408A 		vcmp.f32	s17, #0
 8448 08e4 F1EE10FA 		vmrs	APSR_nzcv, FPSCR
 8449 08e8 00F10B84 		bmi	.L619
 914:src/main.cpp  ****             float led3   = sqrtf(sqrtf(l3_raw)) * LED3_INTENSITY; // pos 1 (PWM A0)
 8450              		.loc 6 914 33 is_stmt 0 view .LVU2564
 8451 08ec B1EEE80A 		vsqrt.f32	s0, s17
 8452              	.L433:
 8453 08f0 B5EE400A 		vcmp.f32	s0, #0
 8454 08f4 F1EE10FA 		vmrs	APSR_nzcv, FPSCR
 8455 08f8 00F10984 		bmi	.L620
 8456 08fc F1EEC08A 		vsqrt.f32	s17, s0
 8457              	.LVL674:
 8458              	.L436:
 915:src/main.cpp  ****             hw.dac.WriteValue(DacHandle::Channel::ONE, (uint16_t)(led1 * 4095.0f));
 8459              		.loc 6 915 13 is_stmt 1 view .LVU2565
 8460 0900 B5EE408A 		vcmp.f32	s16, #0
 8461 0904 F1EE10FA 		vmrs	APSR_nzcv, FPSCR
 8462 0908 00F10784 		bmi	.L621
 915:src/main.cpp  ****             hw.dac.WriteValue(DacHandle::Channel::ONE, (uint16_t)(led1 * 4095.0f));
 8463              		.loc 6 915 33 is_stmt 0 view .LVU2566
 8464 090c B1EEC80A 		vsqrt.f32	s0, s16
 8465              	.L439:
 8466 0910 B5EE400A 		vcmp.f32	s0, #0
 8467 0914 F1EE10FA 		vmrs	APSR_nzcv, FPSCR
 8468 0918 00F10584 		bmi	.L622
 8469 091c B1EEC07A 		vsqrt.f32	s14, s0
 8470              	.L442:
 916:src/main.cpp  ****             hw.dac.WriteValue(DacHandle::Channel::TWO, (uint16_t)(led2 * 4095.0f));
 8471              		.loc 6 916 72 view .LVU2567
 8472 0920 DFED34BA 		vldr.32	s23, .L671+16
 916:src/main.cpp  ****             hw.dac.WriteValue(DacHandle::Channel::TWO, (uint16_t)(led2 * 4095.0f));
 8473              		.loc 6 916 30 view .LVU2568
 8474 0924 0021     		movs	r1, #0
 915:src/main.cpp  ****             hw.dac.WriteValue(DacHandle::Channel::ONE, (uint16_t)(led1 * 4095.0f));
 8475              		.loc 6 915 51 view .LVU2569
 8476 0926 9FED348A 		vldr.32	s16, .L671+20
 8477              	.LVL675:
 916:src/main.cpp  ****             hw.dac.WriteValue(DacHandle::Channel::TWO, (uint16_t)(led2 * 4095.0f));
 8478              		.loc 6 916 30 view .LVU2570
 8479 092a 3448     		ldr	r0, .L671+24
 916:src/main.cpp  ****             hw.dac.WriteValue(DacHandle::Channel::TWO, (uint16_t)(led2 * 4095.0f));
 8480              		.loc 6 916 72 view .LVU2571
 8481 092c 6BEE2B7A 		vmul.f32	s15, s22, s23
ARM GAS  /tmp/claude-502/ccZj3JyB.s 			page 221


 915:src/main.cpp  ****             hw.dac.WriteValue(DacHandle::Channel::ONE, (uint16_t)(led1 * 4095.0f));
 8482              		.loc 6 915 51 view .LVU2572
 8483 0930 27EE088A 		vmul.f32	s16, s14, s16
 8484              	.LVL676:
 916:src/main.cpp  ****             hw.dac.WriteValue(DacHandle::Channel::TWO, (uint16_t)(led2 * 4095.0f));
 8485              		.loc 6 916 13 is_stmt 1 view .LVU2573
 916:src/main.cpp  ****             hw.dac.WriteValue(DacHandle::Channel::TWO, (uint16_t)(led2 * 4095.0f));
 8486              		.loc 6 916 30 is_stmt 0 view .LVU2574
 8487 0934 FCEEE77A 		vcvt.u32.f32	s15, s15
 8488 0938 17EE903A 		vmov	r3, s15	@ int
 8489 093c 9AB2     		uxth	r2, r3
 8490 093e FFF7FEFF 		bl	_ZN5daisy9DacHandle10WriteValueENS0_7ChannelEt
 8491              	.LVL677:
 917:src/main.cpp  ****             g_led3_duty = led3;
 8492              		.loc 6 917 13 is_stmt 1 view .LVU2575
 917:src/main.cpp  ****             g_led3_duty = led3;
 8493              		.loc 6 917 72 is_stmt 0 view .LVU2576
 8494 0942 68EEAB7A 		vmul.f32	s15, s17, s23
 917:src/main.cpp  ****             g_led3_duty = led3;
 8495              		.loc 6 917 30 view .LVU2577
 8496 0946 0121     		movs	r1, #1
 8497 0948 2C48     		ldr	r0, .L671+24
 8498 094a FCEEE77A 		vcvt.u32.f32	s15, s15
 8499 094e 17EE903A 		vmov	r3, s15	@ int
 8500 0952 9AB2     		uxth	r2, r3
 8501 0954 FFF7FEFF 		bl	_ZN5daisy9DacHandle10WriteValueENS0_7ChannelEt
 8502              	.LVL678:
 918:src/main.cpp  **** 
 8503              		.loc 6 918 13 is_stmt 1 view .LVU2578
 918:src/main.cpp  **** 
 8504              		.loc 6 918 25 is_stmt 0 view .LVU2579
 8505 0958 294B     		ldr	r3, .L671+28
 8506 095a 83ED008A 		vstr.32	s16, [r3]
 921:src/main.cpp  ****                 acc += hw.adc.Get(0);
 8507              		.loc 6 921 13 is_stmt 1 view .LVU2580
 8508 095e CEB1     		cbz	r6, .L655
 8509              	.LVL679:
 8510              	.L443:
 931:src/main.cpp  ****             int32_t max_d = 0;
 8511              		.loc 6 931 13 view .LVU2581
 931:src/main.cpp  ****             int32_t max_d = 0;
 8512              		.loc 6 931 28 is_stmt 0 view .LVU2582
 8513 0960 25A8     		add	r0, sp, #148
 8514 0962 FFF7FEFF 		bl	_Z15read_electrodesPt
 8515              	.LVL680:
 932:src/main.cpp  ****             for(int i = 0; i < N_CH; i++) {
 8516              		.loc 6 932 13 is_stmt 1 view .LVU2583
 933:src/main.cpp  ****                 int32_t d = (int32_t)baseline[i] - (int32_t)scan[i];
 8517              		.loc 6 933 13 view .LVU2584
 8518              	.LBB1527:
 933:src/main.cpp  ****                 int32_t d = (int32_t)baseline[i] - (int32_t)scan[i];
 8519              		.loc 6 933 30 view .LVU2585
 8520 0966 25A8     		add	r0, sp, #148
 8521              	.LBE1527:
 931:src/main.cpp  ****             int32_t max_d = 0;
 8522              		.loc 6 931 28 is_stmt 0 view .LVU2586
 8523 0968 2A46     		mov	r2, r5
ARM GAS  /tmp/claude-502/ccZj3JyB.s 			page 222


 932:src/main.cpp  ****             for(int i = 0; i < N_CH; i++) {
 8524              		.loc 6 932 21 view .LVU2587
 8525 096a 0021     		movs	r1, #0
 8526              	.LVL681:
 8527              	.L444:
 8528              	.LBB1529:
 8529              	.LBB1528:
 934:src/main.cpp  ****                 if(d > max_d) max_d = d;
 8530              		.loc 6 934 17 is_stmt 1 view .LVU2588
 934:src/main.cpp  ****                 if(d > max_d) max_d = d;
 8531              		.loc 6 934 48 is_stmt 0 view .LVU2589
 8532 096c 32F8023B 		ldrh	r3, [r2], #2
 934:src/main.cpp  ****                 if(d > max_d) max_d = d;
 8533              		.loc 6 934 67 view .LVU2590
 8534 0970 30F8024B 		ldrh	r4, [r0], #2
 8535              	.LVL682:
 935:src/main.cpp  ****             }
 8536              		.loc 6 935 17 is_stmt 1 view .LVU2591
 934:src/main.cpp  ****                 if(d > max_d) max_d = d;
 8537              		.loc 6 934 25 is_stmt 0 view .LVU2592
 8538 0974 1B1B     		subs	r3, r3, r4
 8539              	.LVL683:
 934:src/main.cpp  ****                 if(d > max_d) max_d = d;
 8540              		.loc 6 934 25 view .LVU2593
 8541 0976 9942     		cmp	r1, r3
 8542 0978 B8BF     		it	lt
 8543 097a 1946     		movlt	r1, r3
 8544              	.LVL684:
 934:src/main.cpp  ****                 if(d > max_d) max_d = d;
 8545              		.loc 6 934 25 view .LVU2594
 8546              	.LBE1528:
 933:src/main.cpp  ****                 int32_t d = (int32_t)baseline[i] - (int32_t)scan[i];
 8547              		.loc 6 933 13 is_stmt 1 view .LVU2595
 933:src/main.cpp  ****                 int32_t d = (int32_t)baseline[i] - (int32_t)scan[i];
 8548              		.loc 6 933 30 view .LVU2596
 8549 097c 9145     		cmp	r9, r2
 8550 097e F5D1     		bne	.L444
 8551              	.LBE1529:
 937:src/main.cpp  **** 
 8552              		.loc 6 937 13 view .LVU2597
 8553 0980 0929     		cmp	r1, #9
 8554 0982 00F30E83 		bgt	.L445
 939:src/main.cpp  ****         }
 8555              		.loc 6 939 13 view .LVU2598
 939:src/main.cpp  ****         }
 8556              		.loc 6 939 26 is_stmt 0 view .LVU2599
 8557 0986 0A20     		movs	r0, #10
 8558 0988 FFF7FEFF 		bl	_ZN5daisy6System5DelayEm
 8559              	.LVL685:
 939:src/main.cpp  ****         }
 8560              		.loc 6 939 26 view .LVU2600
 8561              	.LBE1526:
 901:src/main.cpp  ****             uint32_t elapsed = System::GetNow() - start;
 8562              		.loc 6 901 9 is_stmt 1 view .LVU2601
 940:src/main.cpp  **** 
 8563              		.loc 6 940 9 is_stmt 0 view .LVU2602
 8564 098c 50E7     		b	.L446
ARM GAS  /tmp/claude-502/ccZj3JyB.s 			page 223


 8565              	.LVL686:
 8566              	.L543:
 8567              	.LBB1541:
 912:src/main.cpp  ****             float led1   = sqrtf(sqrtf(l2_raw));              // middle (DAC1)
 8568              		.loc 6 912 85 view .LVU2603
 8569 098e 9FED187A 		vldr.32	s14, .L671+12
 8570              	.LVL687:
 912:src/main.cpp  ****             float led1   = sqrtf(sqrtf(l2_raw));              // middle (DAC1)
 8571              		.loc 6 912 85 view .LVU2604
 8572 0992 9BE7     		b	.L424
 8573              	.LVL688:
 8574              	.L655:
 922:src/main.cpp  ****                 n++;
 8575              		.loc 6 922 17 is_stmt 1 view .LVU2605
 923:src/main.cpp  ****                 if(elapsed >= 2000) {
 8576              		.loc 6 923 18 is_stmt 0 view .LVU2606
 8577 0994 069B     		ldr	r3, [sp, #24]
 922:src/main.cpp  ****                 n++;
 8578              		.loc 6 922 34 view .LVU2607
 8579 0996 3146     		mov	r1, r6
 8580 0998 1A48     		ldr	r0, .L671+32
 923:src/main.cpp  ****                 if(elapsed >= 2000) {
 8581              		.loc 6 923 18 view .LVU2608
 8582 099a 0133     		adds	r3, r3, #1
 8583 099c 0693     		str	r3, [sp, #24]
 8584              	.LVL689:
 922:src/main.cpp  ****                 n++;
 8585              		.loc 6 922 34 view .LVU2609
 8586 099e FFF7FEFF 		bl	_ZNK5daisy9AdcHandle3GetEh
 8587              	.LVL690:
 922:src/main.cpp  ****                 n++;
 8588              		.loc 6 922 21 view .LVU2610
 8589 09a2 079A     		ldr	r2, [sp, #28]
 924:src/main.cpp  ****                     commit_fsr_avg(acc, n);
 8590              		.loc 6 924 17 view .LVU2611
 8591 09a4 B4F5FA6F 		cmp	r4, #2000
 922:src/main.cpp  ****                 n++;
 8592              		.loc 6 922 21 view .LVU2612
 8593 09a8 0244     		add	r2, r2, r0
 8594 09aa 0792     		str	r2, [sp, #28]
 8595              	.LVL691:
 923:src/main.cpp  ****                 if(elapsed >= 2000) {
 8596              		.loc 6 923 17 is_stmt 1 view .LVU2613
 924:src/main.cpp  ****                     commit_fsr_avg(acc, n);
 8597              		.loc 6 924 17 view .LVU2614
 8598 09ac D8D3     		bcc	.L443
 925:src/main.cpp  ****                     calibrated = true;
 8599              		.loc 6 925 21 view .LVU2615
 8600              	.LVL692:
 8601              	.LBB1530:
 8602              	.LBI1530:
 867:src/main.cpp  ****         if(n == 0) return;
 8603              		.loc 6 867 27 view .LVU2616
 8604              	.LBE1530:
 8605              	.LBE1541:
 8606              	.LBE1525:
 8607              	.LBE1524:
ARM GAS  /tmp/claude-502/ccZj3JyB.s 			page 224


 8608              	.LBE1523:
 8609              	.LBE1291:
 868:src/main.cpp  ****         uint16_t avg = (uint16_t)(acc / n);
 8610              		.loc 6 868 9 view .LVU2617
 8611              	.LBB1619:
 8612              	.LBB1550:
 8613              	.LBB1547:
 8614              	.LBB1544:
 8615              	.LBB1542:
 8616              	.LBB1539:
 8617              	.LBB1531:
 8618              	.LBB1532:
 8619              	.LBI1532:
 867:src/main.cpp  ****         if(n == 0) return;
 8620              		.loc 6 867 27 view .LVU2618
 8621              	.LBB1533:
 8622              	.LBB1534:
 869:src/main.cpp  ****         // Sanity floor ŌĆö without enough headroom over FSR_MIN the volume curve
 8623              		.loc 6 869 9 view .LVU2619
 869:src/main.cpp  ****         // Sanity floor ŌĆö without enough headroom over FSR_MIN the volume curve
 8624              		.loc 6 869 39 is_stmt 0 view .LVU2620
 8625 09ae 069B     		ldr	r3, [sp, #24]
 874:src/main.cpp  ****     };
 8626              		.loc 6 874 30 view .LVU2621
 8627 09b0 B7EE007A 		vmov.f32	s14, #1.0e+0
 874:src/main.cpp  ****     };
 8628              		.loc 6 874 30 view .LVU2622
 8629              	.LBE1534:
 8630              	.LBE1533:
 8631              	.LBE1532:
 8632              	.LBE1531:
 8633              	.LBE1539:
 926:src/main.cpp  ****                 }
 8634              		.loc 6 926 32 view .LVU2623
 8635 09b4 0126     		movs	r6, #1
 8636              	.LVL693:
 8637              	.LBB1540:
 8638              	.LBB1538:
 8639              	.LBB1537:
 8640              	.LBB1536:
 8641              	.LBB1535:
 869:src/main.cpp  ****         // Sanity floor ŌĆö without enough headroom over FSR_MIN the volume curve
 8642              		.loc 6 869 39 view .LVU2624
 8643 09b6 B2FBF3F3 		udiv	r3, r2, r3
 8644 09ba 42F23412 		movw	r2, #8500
 8645              	.LVL694:
 869:src/main.cpp  ****         // Sanity floor ŌĆö without enough headroom over FSR_MIN the volume curve
 8646              		.loc 6 869 18 view .LVU2625
 8647 09be 9BB2     		uxth	r3, r3
 8648              	.LVL695:
 872:src/main.cpp  ****         fsr_max       = avg;
 8649              		.loc 6 872 9 is_stmt 1 view .LVU2626
 8650 09c0 9342     		cmp	r3, r2
 8651 09c2 38BF     		it	cc
 8652 09c4 1346     		movcc	r3, r2
 8653              	.LVL696:
 872:src/main.cpp  ****         fsr_max       = avg;
ARM GAS  /tmp/claude-502/ccZj3JyB.s 			page 225


 8654              		.loc 6 872 9 is_stmt 0 view .LVU2627
 8655 09c6 0B93     		str	r3, [sp, #44]
 8656              	.LVL697:
 873:src/main.cpp  ****         fsr_range_inv = 1.0f / (float)(fsr_max - FSR_MIN);
 8657              		.loc 6 873 9 is_stmt 1 view .LVU2628
 874:src/main.cpp  ****     };
 8658              		.loc 6 874 9 view .LVU2629
 874:src/main.cpp  ****     };
 8659              		.loc 6 874 48 is_stmt 0 view .LVU2630
 8660 09c8 A3F5FA53 		sub	r3, r3, #8000
 8661              	.LVL698:
 874:src/main.cpp  ****     };
 8662              		.loc 6 874 48 view .LVU2631
 8663 09cc 07EE903A 		vmov	s15, r3	@ int
 874:src/main.cpp  ****     };
 8664              		.loc 6 874 32 view .LVU2632
 8665 09d0 F8EEE77A 		vcvt.f32.s32	s15, s15
 874:src/main.cpp  ****     };
 8666              		.loc 6 874 30 view .LVU2633
 8667 09d4 C7EE27AA 		vdiv.f32	s21, s14, s15
 8668              	.LVL699:
 874:src/main.cpp  ****     };
 8669              		.loc 6 874 30 view .LVU2634
 8670 09d8 C2E7     		b	.L443
 8671              	.LVL700:
 8672              	.L575:
 874:src/main.cpp  ****     };
 8673              		.loc 6 874 30 view .LVU2635
 8674              	.LBE1535:
 8675              	.LBE1536:
 8676              	.LBE1537:
 8677              	.LBE1538:
 8678              	.LBE1540:
 8679              	.LBE1542:
 8680              	.LBE1544:
 8681              	.LBE1547:
 8682              	.LBE1550:
 8683              	.LBB1551:
 8684              	.LBB1493:
 8685              	.LBB1492:
 8686              	.LBB1490:
 815:src/main.cpp  ****         out[1+p]=(char)('1'+slot);
 8687              		.loc 6 815 20 view .LVU2636
 8688 09da 2823     		movs	r3, #40
 8689 09dc 0EE6     		b	.L514
 8690              	.LVL701:
 8691              	.L576:
 815:src/main.cpp  ****         out[1+p]=(char)('1'+slot);
 8692              		.loc 6 815 20 view .LVU2637
 8693 09de 2823     		movs	r3, #40
 8694 09e0 28E6     		b	.L516
 8695              	.L672:
 8696 09e2 00BF     		.align	2
 8697              	.L671:
 8698 09e4 F1197605 		.word	91625969
 8699 09e8 00803B46 		.word	1178304512
 8700 09ec DB0FC940 		.word	1086918619
ARM GAS  /tmp/claude-502/ccZj3JyB.s 			page 226


 8701 09f0 00000000 		.word	0
 8702 09f4 00F07F45 		.word	1166012416
 8703 09f8 CDCCCC3D 		.word	1036831949
 8704 09fc 20000000 		.word	.LANCHOR10+32
 8705 0a00 00000000 		.word	.LANCHOR0
 8706 0a04 18000000 		.word	.LANCHOR10+24
 8707 0a08 00007A44 		.word	1148846080
 8708 0a0c 0000C842 		.word	1120403456
 8709              	.LVL702:
 8710              	.L647:
 815:src/main.cpp  ****         out[1+p]=(char)('1'+slot);
 8711              		.loc 6 815 20 view .LVU2638
 8712              	.LBE1490:
 8713              	.LBE1492:
 8714              	.LBE1493:
 8715              	.LBE1551:
1102:src/main.cpp  ****         bool f1_fresh = !f1_was_on && (System::GetNow() - f1_last_seen_ms >= F1_REQUANTIZE_MS);
 8716              		.loc 6 1102 19 is_stmt 1 discriminator 1 view .LVU2639
1102:src/main.cpp  ****         bool f1_fresh = !f1_was_on && (System::GetNow() - f1_last_seen_ms >= F1_REQUANTIZE_MS);
 8717              		.loc 6 1102 51 is_stmt 0 discriminator 1 view .LVU2640
 8718 0a10 FFF7FEFF 		bl	_ZN5daisy6System6GetNowEv
 8719              	.LVL703:
1103:src/main.cpp  **** 
 8720              		.loc 6 1103 9 is_stmt 1 discriminator 1 view .LVU2641
1103:src/main.cpp  **** 
 8721              		.loc 6 1103 36 is_stmt 0 discriminator 1 view .LVU2642
 8722 0a14 059B     		ldr	r3, [sp, #20]
 8723 0a16 002B     		cmp	r3, #0
 8724 0a18 00F00383 		beq	.L448
 8725              	.L537:
 8726              	.LBB1552:
 8727              	.LBB1307:
1107:src/main.cpp  ****             float prs01 = clampf((float)tracked[0].pressure / 100.0f, 0.0f, 1.0f); // hard clamp
 8728              		.loc 6 1107 13 is_stmt 1 view .LVU2643
1107:src/main.cpp  ****             float prs01 = clampf((float)tracked[0].pressure / 100.0f, 0.0f, 1.0f); // hard clamp
 8729              		.loc 6 1107 34 is_stmt 0 view .LVU2644
 8730 0a1c D8ED017A 		vldr.32	s15, [r8, #4]	@ int
1107:src/main.cpp  ****             float prs01 = clampf((float)tracked[0].pressure / 100.0f, 0.0f, 1.0f); // hard clamp
 8731              		.loc 6 1107 33 view .LVU2645
 8732 0a20 1FED077A 		vldr.32	s14, .L671+36
1107:src/main.cpp  ****             float prs01 = clampf((float)tracked[0].pressure / 100.0f, 0.0f, 1.0f); // hard clamp
 8733              		.loc 6 1107 34 view .LVU2646
 8734 0a24 F8EEE77A 		vcvt.f32.s32	s15, s15
1107:src/main.cpp  ****             float prs01 = clampf((float)tracked[0].pressure / 100.0f, 0.0f, 1.0f); // hard clamp
 8735              		.loc 6 1107 33 view .LVU2647
 8736 0a28 C7EE87BA 		vdiv.f32	s23, s15, s14
 8737              	.LVL704:
 8738              	.LBB1308:
 8739              	.LBI1308:
 470:src/main.cpp  ****     return v<lo?lo:v>hi?hi:v;
 8740              		.loc 6 470 21 is_stmt 1 view .LVU2648
 8741              	.LBB1309:
 471:src/main.cpp  **** }
 8742              		.loc 6 471 5 view .LVU2649
 471:src/main.cpp  **** }
 8743              		.loc 6 471 16 is_stmt 0 view .LVU2650
 8744 0a2c F5EEC0BA 		vcmpe.f32	s23, #0
ARM GAS  /tmp/claude-502/ccZj3JyB.s 			page 227


 8745 0a30 F1EE10FA 		vmrs	APSR_nzcv, FPSCR
 8746 0a34 00F1B981 		bmi	.L544
 471:src/main.cpp  **** }
 8747              		.loc 6 471 24 view .LVU2651
 8748 0a38 B7EE007A 		vmov.f32	s14, #1.0e+0
 8749 0a3c F4EEC7BA 		vcmpe.f32	s23, s14
 8750 0a40 F1EE10FA 		vmrs	APSR_nzcv, FPSCR
 8751 0a44 37FE2B7A 		vselgt.f32	s14, s14, s23
 8752              	.L449:
 8753              	.LVL705:
 471:src/main.cpp  **** }
 8754              		.loc 6 471 24 view .LVU2652
 8755              	.LBE1309:
 8756              	.LBE1308:
1108:src/main.cpp  **** 
 8757              		.loc 6 1108 13 is_stmt 1 view .LVU2653
1108:src/main.cpp  **** 
 8758              		.loc 6 1108 34 is_stmt 0 view .LVU2654
 8759 0a48 D8ED027A 		vldr.32	s15, [r8, #8]	@ int
1108:src/main.cpp  **** 
 8760              		.loc 6 1108 33 view .LVU2655
 8761 0a4c 5FED116A 		vldr.32	s13, .L671+40
1108:src/main.cpp  **** 
 8762              		.loc 6 1108 34 view .LVU2656
 8763 0a50 F8EEE77A 		vcvt.f32.s32	s15, s15
1108:src/main.cpp  **** 
 8764              		.loc 6 1108 33 view .LVU2657
 8765 0a54 87EEA6CA 		vdiv.f32	s24, s15, s13
 8766              	.LVL706:
 8767              	.LBB1311:
 8768              	.LBI1311:
 470:src/main.cpp  ****     return v<lo?lo:v>hi?hi:v;
 8769              		.loc 6 470 21 is_stmt 1 view .LVU2658
 8770              	.LBB1312:
 471:src/main.cpp  **** }
 8771              		.loc 6 471 5 view .LVU2659
 471:src/main.cpp  **** }
 8772              		.loc 6 471 16 is_stmt 0 view .LVU2660
 8773 0a58 B5EEC0CA 		vcmpe.f32	s24, #0
 8774 0a5c F1EE10FA 		vmrs	APSR_nzcv, FPSCR
 8775 0a60 00F1A081 		bmi	.L546
 471:src/main.cpp  **** }
 8776              		.loc 6 471 24 view .LVU2661
 8777 0a64 F7EE008A 		vmov.f32	s17, #1.0e+0
 8778 0a68 B4EEE8CA 		vcmpe.f32	s24, s17
 8779 0a6c F1EE10FA 		vmrs	APSR_nzcv, FPSCR
 8780 0a70 78FE8C8A 		vselgt.f32	s17, s17, s24
 8781              	.L450:
 8782              	.LVL707:
 471:src/main.cpp  **** }
 8783              		.loc 6 471 24 view .LVU2662
 8784              	.LBE1312:
 8785              	.LBE1311:
1113:src/main.cpp  ****             float ex   = 1.0f + earg*(1.0f + earg*(0.5f + earg*0.1667f));
 8786              		.loc 6 1113 13 is_stmt 1 view .LVU2663
1113:src/main.cpp  ****             float ex   = 1.0f + earg*(1.0f + earg*(0.5f + earg*0.1667f));
 8787              		.loc 6 1113 40 is_stmt 0 view .LVU2664
ARM GAS  /tmp/claude-502/ccZj3JyB.s 			page 228


 8788 0a74 049A     		ldr	r2, [sp, #16]
1114:src/main.cpp  ****             float freq_continuous = clampf(VOICE.freq_low * ex, VOICE.freq_low, VOICE.freq_high);
 8789              		.loc 6 1114 57 view .LVU2665
 8790 0a76 F6EE006A 		vmov.f32	s13, #5.0e-1
1113:src/main.cpp  ****             float ex   = 1.0f + earg*(1.0f + earg*(0.5f + earg*0.1667f));
 8791              		.loc 6 1113 40 view .LVU2666
 8792 0a7a CD49     		ldr	r1, .L673
1114:src/main.cpp  ****             float freq_continuous = clampf(VOICE.freq_low * ex, VOICE.freq_low, VOICE.freq_high);
 8793              		.loc 6 1114 44 view .LVU2667
 8794 0a7c F7EE007A 		vmov.f32	s15, #1.0e+0
1113:src/main.cpp  ****             float ex   = 1.0f + earg*(1.0f + earg*(0.5f + earg*0.1667f));
 8795              		.loc 6 1113 40 view .LVU2668
 8796 0a80 C2EBC203 		rsb	r3, r2, r2, lsl #3
1114:src/main.cpp  ****             float freq_continuous = clampf(VOICE.freq_low * ex, VOICE.freq_low, VOICE.freq_high);
 8797              		.loc 6 1114 57 view .LVU2669
 8798 0a84 9FEDCB6A 		vldr.32	s12, .L673+4
1113:src/main.cpp  ****             float ex   = 1.0f + earg*(1.0f + earg*(0.5f + earg*0.1667f));
 8799              		.loc 6 1113 40 view .LVU2670
 8800 0a88 D400     		lsls	r4, r2, #3
 8801 0a8a 01EB0313 		add	r3, r1, r3, lsl #4
1113:src/main.cpp  ****             float ex   = 1.0f + earg*(1.0f + earg*(0.5f + earg*0.1667f));
 8802              		.loc 6 1113 19 view .LVU2671
 8803 0a8e D3ED035A 		vldr.32	s11, [r3, #12]
1115:src/main.cpp  **** 
 8804              		.loc 6 1115 50 view .LVU2672
 8805 0a92 93ED018A 		vldr.32	s16, [r3, #4]
1113:src/main.cpp  ****             float ex   = 1.0f + earg*(1.0f + earg*(0.5f + earg*0.1667f));
 8806              		.loc 6 1113 19 view .LVU2673
 8807 0a96 27EE257A 		vmul.f32	s14, s14, s11
 8808              	.LVL708:
1114:src/main.cpp  ****             float freq_continuous = clampf(VOICE.freq_low * ex, VOICE.freq_low, VOICE.freq_high);
 8809              		.loc 6 1114 13 is_stmt 1 view .LVU2674
1115:src/main.cpp  **** 
 8810              		.loc 6 1115 87 is_stmt 0 view .LVU2675
 8811 0a9a 93ED02BA 		vldr.32	s22, [r3, #8]
1114:src/main.cpp  ****             float freq_continuous = clampf(VOICE.freq_low * ex, VOICE.freq_low, VOICE.freq_high);
 8812              		.loc 6 1114 57 view .LVU2676
 8813 0a9e E7EE066A 		vfma.f32	s13, s14, s12
1114:src/main.cpp  ****             float freq_continuous = clampf(VOICE.freq_low * ex, VOICE.freq_low, VOICE.freq_high);
 8814              		.loc 6 1114 44 view .LVU2677
 8815 0aa2 B0EE676A 		vmov.f32	s12, s15
 8816 0aa6 A6EE876A 		vfma.f32	s12, s13, s14
1114:src/main.cpp  ****             float freq_continuous = clampf(VOICE.freq_low * ex, VOICE.freq_low, VOICE.freq_high);
 8817              		.loc 6 1114 19 view .LVU2678
 8818 0aaa E6EE077A 		vfma.f32	s15, s12, s14
 8819              	.LVL709:
1115:src/main.cpp  **** 
 8820              		.loc 6 1115 13 is_stmt 1 view .LVU2679
1115:src/main.cpp  **** 
 8821              		.loc 6 1115 43 is_stmt 0 view .LVU2680
 8822 0aae 68EE277A 		vmul.f32	s15, s16, s15
 8823              	.LVL710:
 8824              	.LBB1314:
 8825              	.LBI1314:
 470:src/main.cpp  ****     return v<lo?lo:v>hi?hi:v;
 8826              		.loc 6 470 21 is_stmt 1 view .LVU2681
 8827              	.LBB1315:
ARM GAS  /tmp/claude-502/ccZj3JyB.s 			page 229


 471:src/main.cpp  **** }
 8828              		.loc 6 471 5 view .LVU2682
 471:src/main.cpp  **** }
 8829              		.loc 6 471 16 is_stmt 0 view .LVU2683
 8830 0ab2 B4EEE78A 		vcmpe.f32	s16, s15
 8831 0ab6 F1EE10FA 		vmrs	APSR_nzcv, FPSCR
 8832 0aba 00F35681 		bgt	.L548
 471:src/main.cpp  **** }
 8833              		.loc 6 471 24 view .LVU2684
 8834 0abe F4EE4B7A 		vcmp.f32	s15, s22
 8835 0ac2 F1EE10FA 		vmrs	APSR_nzcv, FPSCR
 8836 0ac6 7BFE277A 		vselgt.f32	s15, s22, s15
 8837              	.LVL711:
 471:src/main.cpp  **** }
 8838              		.loc 6 471 24 view .LVU2685
 8839              	.LBE1315:
 8840              	.LBE1314:
1119:src/main.cpp  ****             float y = (freq_ratio - 1.0f) / (freq_ratio + 1.0f);
 8841              		.loc 6 1119 13 is_stmt 1 view .LVU2686
1120:src/main.cpp  ****             float y2 = y*y;
 8842              		.loc 6 1120 13 view .LVU2687
1121:src/main.cpp  ****             float ln_ratio = 2.0f*y*(1.0f + y2*(0.3333f + y2*0.2f));
 8843              		.loc 6 1121 13 view .LVU2688
1122:src/main.cpp  ****             float midi_raw = 69.0f + 17.3123f * ln_ratio; // 17.3123 = 12/ln(2)
 8844              		.loc 6 1122 13 view .LVU2689
1123:src/main.cpp  **** 
 8845              		.loc 6 1123 13 view .LVU2690
1125:src/main.cpp  **** 
 8846              		.loc 6 1125 13 view .LVU2691
1127:src/main.cpp  ****             {
 8847              		.loc 6 1127 13 view .LVU2692
 8848              	.LBE1307:
 8849              	.LBE1552:
 8850              	.LBE1619:
1139:src/main.cpp  ****                 freq = freq_continuous;
 8851              		.loc 6 1139 17 view .LVU2693
1140:src/main.cpp  ****                 f1_sliding = true;
 8852              		.loc 6 1140 17 view .LVU2694
1141:src/main.cpp  ****             }
 8853              		.loc 6 1141 17 view .LVU2695
 8854              	.LBB1620:
 8855              	.LBB1553:
 8856              	.LBB1362:
1143:src/main.cpp  **** 
 8857              		.loc 6 1143 13 view .LVU2696
 8858              	.LBB1317:
 8859              	.LBI1317:
 470:src/main.cpp  ****     return v<lo?lo:v>hi?hi:v;
 8860              		.loc 6 470 21 view .LVU2697
 8861              	.LBB1318:
 471:src/main.cpp  **** }
 8862              		.loc 6 471 5 view .LVU2698
 471:src/main.cpp  **** }
 8863              		.loc 6 471 16 is_stmt 0 view .LVU2699
 8864 0aca B4EEE78A 		vcmpe.f32	s16, s15
 8865 0ace F1EE10FA 		vmrs	APSR_nzcv, FPSCR
 8866 0ad2 40F34C81 		ble	.L451
ARM GAS  /tmp/claude-502/ccZj3JyB.s 			page 230


 8867              	.LBE1318:
 8868              	.LBE1317:
 8869              	.LBB1322:
 8870              	.LBB1323:
1162:src/main.cpp  ****                 return x*x*x*(x*(x*6.0f - 15.0f) + 10.0f);
 8871              		.loc 6 1162 24 view .LVU2700
 8872 0ad6 F5EEC08A 		vcmpe.f32	s17, #0
 8873              	.LBE1323:
 8874              	.LBE1322:
 8875              	.LBB1327:
 8876              	.LBB1319:
 471:src/main.cpp  **** }
 8877              		.loc 6 471 16 view .LVU2701
 8878 0ada B0EE48BA 		vmov.f32	s22, s16
 8879              	.LVL712:
 471:src/main.cpp  **** }
 8880              		.loc 6 471 16 view .LVU2702
 8881              	.LBE1319:
 8882              	.LBE1327:
1157:src/main.cpp  ****                 x = x<0?0:x>1?1:x;
 8883              		.loc 6 1157 13 is_stmt 1 view .LVU2703
1161:src/main.cpp  ****                 x = x<0?0:x>1?1:x;
 8884              		.loc 6 1161 13 view .LVU2704
1168:src/main.cpp  ****             float cutoff_oct = VOICE.cutoff_oct_max * prs_cut;
 8885              		.loc 6 1168 13 view .LVU2705
 8886              	.LBB1328:
 8887              	.LBI1322:
1161:src/main.cpp  ****                 x = x<0?0:x>1?1:x;
 8888              		.loc 6 1161 33 view .LVU2706
 8889              	.LBB1324:
1162:src/main.cpp  ****                 return x*x*x*(x*(x*6.0f - 15.0f) + 10.0f);
 8890              		.loc 6 1162 17 view .LVU2707
1162:src/main.cpp  ****                 return x*x*x*(x*(x*6.0f - 15.0f) + 10.0f);
 8891              		.loc 6 1162 24 is_stmt 0 view .LVU2708
 8892 0ade F1EE10FA 		vmrs	APSR_nzcv, FPSCR
 8893 0ae2 00F15181 		bmi	.L551
 8894              	.LVL713:
 8895              	.L662:
1162:src/main.cpp  ****                 return x*x*x*(x*(x*6.0f - 15.0f) + 10.0f);
 8896              		.loc 6 1162 30 view .LVU2709
 8897 0ae6 B7EE007A 		vmov.f32	s14, #1.0e+0
 8898              	.LVL714:
1162:src/main.cpp  ****                 return x*x*x*(x*(x*6.0f - 15.0f) + 10.0f);
 8899              		.loc 6 1162 30 view .LVU2710
 8900 0aea F4EEC78A 		vcmpe.f32	s17, s14
 8901 0aee F1EE10FA 		vmrs	APSR_nzcv, FPSCR
 8902 0af2 0FDC     		bgt	.L454
1163:src/main.cpp  ****             };
 8903              		.loc 6 1163 41 view .LVU2711
 8904 0af4 B1EE086A 		vmov.f32	s12, #6.0e+0
1163:src/main.cpp  ****             };
 8905              		.loc 6 1163 41 view .LVU2712
 8906 0af8 FAEE0E6A 		vmov.f32	s13, #-1.5e+1
1163:src/main.cpp  ****             };
 8907              		.loc 6 1163 50 view .LVU2713
 8908 0afc F2EE047A 		vmov.f32	s15, #1.0e+1
 8909              	.LVL715:
ARM GAS  /tmp/claude-502/ccZj3JyB.s 			page 231


1163:src/main.cpp  ****             };
 8910              		.loc 6 1163 25 view .LVU2714
 8911 0b00 28EEA87A 		vmul.f32	s14, s17, s17
1163:src/main.cpp  ****             };
 8912              		.loc 6 1163 41 view .LVU2715
 8913 0b04 E8EE866A 		vfma.f32	s13, s17, s12
1163:src/main.cpp  ****             };
 8914              		.loc 6 1163 27 view .LVU2716
 8915 0b08 27EE287A 		vmul.f32	s14, s14, s17
1163:src/main.cpp  ****             };
 8916              		.loc 6 1163 50 view .LVU2717
 8917 0b0c E8EEA67A 		vfma.f32	s15, s17, s13
1163:src/main.cpp  ****             };
 8918              		.loc 6 1163 57 view .LVU2718
 8919 0b10 27EE277A 		vmul.f32	s14, s14, s15
 8920              	.L454:
 8921              	.LVL716:
1163:src/main.cpp  ****             };
 8922              		.loc 6 1163 17 is_stmt 1 view .LVU2719
1163:src/main.cpp  ****             };
 8923              		.loc 6 1163 17 is_stmt 0 view .LVU2720
 8924              	.LBE1324:
 8925              	.LBE1328:
1169:src/main.cpp  ****             float oct_arg  = cutoff_oct * 0.6931f;
 8926              		.loc 6 1169 13 is_stmt 1 view .LVU2721
1170:src/main.cpp  ****             float oct_mult = 1.0f + oct_arg*(1.0f + oct_arg*(0.5f + oct_arg*(0.1667f + oct_arg*0.04
 8927              		.loc 6 1170 13 view .LVU2722
1169:src/main.cpp  ****             float oct_arg  = cutoff_oct * 0.6931f;
 8928              		.loc 6 1169 38 is_stmt 0 view .LVU2723
 8929 0b14 049B     		ldr	r3, [sp, #16]
1171:src/main.cpp  ****             // Keytracking: how much the cutoff base follows pitch. keytrack=1 is
 8930              		.loc 6 1171 67 view .LVU2724
 8931 0b16 F6EE006A 		vmov.f32	s13, #5.0e-1
1169:src/main.cpp  ****             float oct_arg  = cutoff_oct * 0.6931f;
 8932              		.loc 6 1169 38 view .LVU2725
 8933 0b1a A54A     		ldr	r2, .L673
1171:src/main.cpp  ****             // Keytracking: how much the cutoff base follows pitch. keytrack=1 is
 8934              		.loc 6 1171 51 view .LVU2726
 8935 0b1c F7EE007A 		vmov.f32	s15, #1.0e+0
1169:src/main.cpp  ****             float oct_arg  = cutoff_oct * 0.6931f;
 8936              		.loc 6 1169 38 view .LVU2727
 8937 0b20 E31A     		subs	r3, r4, r3
1170:src/main.cpp  ****             float oct_mult = 1.0f + oct_arg*(1.0f + oct_arg*(0.5f + oct_arg*(0.1667f + oct_arg*0.04
 8938              		.loc 6 1170 19 view .LVU2728
 8939 0b22 DFEDA54A 		vldr.32	s9, .L673+8
1171:src/main.cpp  ****             // Keytracking: how much the cutoff base follows pitch. keytrack=1 is
 8940              		.loc 6 1171 86 view .LVU2729
 8941 0b26 9FEDA55A 		vldr.32	s10, .L673+12
1169:src/main.cpp  ****             float oct_arg  = cutoff_oct * 0.6931f;
 8942              		.loc 6 1169 38 view .LVU2730
 8943 0b2a 02EB0313 		add	r3, r2, r3, lsl #4
1171:src/main.cpp  ****             // Keytracking: how much the cutoff base follows pitch. keytrack=1 is
 8944              		.loc 6 1171 86 view .LVU2731
 8945 0b2e 9FEDA16A 		vldr.32	s12, .L673+4
1177:src/main.cpp  ****                 : VOICE.freq_low * powf(freq / VOICE.freq_low, VOICE.keytrack);
 8946              		.loc 6 1177 17 view .LVU2732
 8947 0b32 DFEDA35A 		vldr.32	s11, .L673+16
ARM GAS  /tmp/claude-502/ccZj3JyB.s 			page 232


1169:src/main.cpp  ****             float oct_arg  = cutoff_oct * 0.6931f;
 8948              		.loc 6 1169 19 view .LVU2733
 8949 0b36 93ED114A 		vldr.32	s8, [r3, #68]
1176:src/main.cpp  ****                 ? freq
 8950              		.loc 6 1176 39 view .LVU2734
 8951 0b3a D3ED150A 		vldr.32	s1, [r3, #84]
1169:src/main.cpp  ****             float oct_arg  = cutoff_oct * 0.6931f;
 8952              		.loc 6 1169 19 view .LVU2735
 8953 0b3e 27EE047A 		vmul.f32	s14, s14, s8
 8954              	.LVL717:
1177:src/main.cpp  ****                 : VOICE.freq_low * powf(freq / VOICE.freq_low, VOICE.keytrack);
 8955              		.loc 6 1177 17 view .LVU2736
 8956 0b42 F4EEE50A 		vcmpe.f32	s1, s11
1170:src/main.cpp  ****             float oct_mult = 1.0f + oct_arg*(1.0f + oct_arg*(0.5f + oct_arg*(0.1667f + oct_arg*0.04
 8957              		.loc 6 1170 19 view .LVU2737
 8958 0b46 27EE247A 		vmul.f32	s14, s14, s9
 8959              	.LVL718:
1171:src/main.cpp  ****             // Keytracking: how much the cutoff base follows pitch. keytrack=1 is
 8960              		.loc 6 1171 13 is_stmt 1 view .LVU2738
1177:src/main.cpp  ****                 : VOICE.freq_low * powf(freq / VOICE.freq_low, VOICE.keytrack);
 8961              		.loc 6 1177 17 is_stmt 0 view .LVU2739
 8962 0b4a F1EE10FA 		vmrs	APSR_nzcv, FPSCR
1171:src/main.cpp  ****             // Keytracking: how much the cutoff base follows pitch. keytrack=1 is
 8963              		.loc 6 1171 86 view .LVU2740
 8964 0b4e A7EE056A 		vfma.f32	s12, s14, s10
1171:src/main.cpp  ****             // Keytracking: how much the cutoff base follows pitch. keytrack=1 is
 8965              		.loc 6 1171 67 view .LVU2741
 8966 0b52 E6EE076A 		vfma.f32	s13, s12, s14
1171:src/main.cpp  ****             // Keytracking: how much the cutoff base follows pitch. keytrack=1 is
 8967              		.loc 6 1171 51 view .LVU2742
 8968 0b56 B0EE676A 		vmov.f32	s12, s15
 8969 0b5a A6EE876A 		vfma.f32	s12, s13, s14
1171:src/main.cpp  ****             // Keytracking: how much the cutoff base follows pitch. keytrack=1 is
 8970              		.loc 6 1171 19 view .LVU2743
 8971 0b5e E6EE077A 		vfma.f32	s15, s12, s14
 8972 0b62 F0EE67CA 		vmov.f32	s25, s15
 8973              	.LVL719:
1176:src/main.cpp  ****                 ? freq
 8974              		.loc 6 1176 13 is_stmt 1 view .LVU2744
1177:src/main.cpp  ****                 : VOICE.freq_low * powf(freq / VOICE.freq_low, VOICE.keytrack);
 8975              		.loc 6 1177 17 is_stmt 0 view .LVU2745
 8976 0b66 C0F20682 		blt	.L656
 8977 0b6a F0EE4B7A 		vmov.f32	s15, s22
 8978              	.LVL720:
 8979              	.L455:
1179:src/main.cpp  **** 
 8980              		.loc 6 1179 13 is_stmt 1 view .LVU2746
1179:src/main.cpp  **** 
 8981              		.loc 6 1179 56 is_stmt 0 view .LVU2747
 8982 0b6e 049B     		ldr	r3, [sp, #16]
 8983              	.LBB1329:
 8984              	.LBB1330:
 471:src/main.cpp  **** }
 8985              		.loc 6 471 16 view .LVU2748
 8986 0b70 B3EE047A 		vmov.f32	s14, #2.0e+1
 8987              	.LBE1330:
 8988              	.LBE1329:
ARM GAS  /tmp/claude-502/ccZj3JyB.s 			page 233


1179:src/main.cpp  **** 
 8989              		.loc 6 1179 56 view .LVU2749
 8990 0b74 8E4A     		ldr	r2, .L673
 8991 0b76 E31A     		subs	r3, r4, r3
 8992 0b78 02EB0313 		add	r3, r2, r3, lsl #4
1179:src/main.cpp  **** 
 8993              		.loc 6 1179 48 view .LVU2750
 8994 0b7c D3ED106A 		vldr.32	s13, [r3, #64]
 8995 0b80 67EEA67A 		vmul.f32	s15, s15, s13
 8996              	.LVL721:
1179:src/main.cpp  **** 
 8997              		.loc 6 1179 36 view .LVU2751
 8998 0b84 67EEAC7A 		vmul.f32	s15, s15, s25
 8999              	.LVL722:
 9000              	.LBB1333:
 9001              	.LBI1329:
 470:src/main.cpp  ****     return v<lo?lo:v>hi?hi:v;
 9002              		.loc 6 470 21 is_stmt 1 view .LVU2752
 9003              	.LBB1331:
 471:src/main.cpp  **** }
 9004              		.loc 6 471 5 view .LVU2753
 471:src/main.cpp  **** }
 9005              		.loc 6 471 16 is_stmt 0 view .LVU2754
 9006 0b88 F4EEC77A 		vcmpe.f32	s15, s14
 9007 0b8c F1EE10FA 		vmrs	APSR_nzcv, FPSCR
 9008 0b90 00F1E880 		bmi	.L554
 471:src/main.cpp  **** }
 9009              		.loc 6 471 24 view .LVU2755
 9010 0b94 9FED8B7A 		vldr.32	s14, .L673+20
 9011 0b98 F4EE477A 		vcmp.f32	s15, s14
 9012 0b9c F1EE10FA 		vmrs	APSR_nzcv, FPSCR
 9013 0ba0 77FE277A 		vselgt.f32	s15, s14, s15
 9014              	.LVL723:
 9015              	.L456:
 471:src/main.cpp  **** }
 9016              		.loc 6 471 24 view .LVU2756
 9017              	.LBE1331:
 9018              	.LBE1333:
1182:src/main.cpp  ****             float vib    = smoothstep(vib_in) * 0.8f;
 9019              		.loc 6 1182 13 is_stmt 1 view .LVU2757
1182:src/main.cpp  ****             float vib    = smoothstep(vib_in) * 0.8f;
 9020              		.loc 6 1182 42 is_stmt 0 view .LVU2758
 9021 0ba4 9FED887A 		vldr.32	s14, .L673+24
1182:src/main.cpp  ****             float vib    = smoothstep(vib_in) * 0.8f;
 9022              		.loc 6 1182 34 view .LVU2759
 9023 0ba8 9FED886A 		vldr.32	s12, .L673+28
1182:src/main.cpp  ****             float vib    = smoothstep(vib_in) * 0.8f;
 9024              		.loc 6 1182 42 view .LVU2760
 9025 0bac 38EEC77A 		vsub.f32	s14, s17, s14
1182:src/main.cpp  ****             float vib    = smoothstep(vib_in) * 0.8f;
 9026              		.loc 6 1182 34 view .LVU2761
 9027 0bb0 C7EE066A 		vdiv.f32	s13, s14, s12
 9028              	.LVL724:
 9029              	.LBB1334:
 9030              	.LBI1334:
 470:src/main.cpp  ****     return v<lo?lo:v>hi?hi:v;
 9031              		.loc 6 470 21 is_stmt 1 view .LVU2762
ARM GAS  /tmp/claude-502/ccZj3JyB.s 			page 234


 9032              	.LBB1335:
 471:src/main.cpp  **** }
 9033              		.loc 6 471 5 view .LVU2763
 471:src/main.cpp  **** }
 9034              		.loc 6 471 16 is_stmt 0 view .LVU2764
 9035 0bb4 F5EEC06A 		vcmpe.f32	s13, #0
 9036 0bb8 F1EE10FA 		vmrs	APSR_nzcv, FPSCR
 9037 0bbc 00F1C780 		bmi	.L556
 471:src/main.cpp  **** }
 9038              		.loc 6 471 24 view .LVU2765
 9039 0bc0 B7EE007A 		vmov.f32	s14, #1.0e+0
 9040 0bc4 F4EEC76A 		vcmpe.f32	s13, s14
 9041 0bc8 F1EE10FA 		vmrs	APSR_nzcv, FPSCR
 9042 0bcc 00F30A82 		bgt	.L557
 9043              	.LVL725:
 471:src/main.cpp  **** }
 9044              		.loc 6 471 24 view .LVU2766
 9045              	.LBE1335:
 9046              	.LBE1334:
1183:src/main.cpp  **** 
 9047              		.loc 6 1183 13 is_stmt 1 view .LVU2767
 9048              	.LBB1338:
 9049              	.LBI1338:
1157:src/main.cpp  ****                 x = x<0?0:x>1?1:x;
 9050              		.loc 6 1157 31 view .LVU2768
 9051              	.LBB1339:
1158:src/main.cpp  ****                 return x*x*(3.0f - 2.0f*x);
 9052              		.loc 6 1158 17 view .LVU2769
1159:src/main.cpp  ****             };
 9053              		.loc 6 1159 34 is_stmt 0 view .LVU2770
 9054 0bd0 B0EE005A 		vmov.f32	s10, #2.0e+0
 9055              	.LBE1339:
 9056              	.LBE1338:
1183:src/main.cpp  **** 
 9057              		.loc 6 1183 49 view .LVU2771
 9058 0bd4 DFED7E5A 		vldr.32	s11, .L673+32
 9059              	.LBB1343:
 9060              	.LBB1340:
1159:src/main.cpp  ****             };
 9061              		.loc 6 1159 34 view .LVU2772
 9062 0bd8 B0EE087A 		vmov.f32	s14, #3.0e+0
1159:src/main.cpp  ****             };
 9063              		.loc 6 1159 25 view .LVU2773
 9064 0bdc 26EEA66A 		vmul.f32	s12, s13, s13
1159:src/main.cpp  ****             };
 9065              		.loc 6 1159 34 view .LVU2774
 9066 0be0 A6EEC57A 		vfms.f32	s14, s13, s10
1159:src/main.cpp  ****             };
 9067              		.loc 6 1159 42 view .LVU2775
 9068 0be4 26EE076A 		vmul.f32	s12, s12, s14
 9069              	.LBE1340:
 9070              	.LBE1343:
1183:src/main.cpp  **** 
 9071              		.loc 6 1183 49 view .LVU2776
 9072 0be8 26EE256A 		vmul.f32	s12, s12, s11
 9073              	.LVL726:
 9074              	.L457:
ARM GAS  /tmp/claude-502/ccZj3JyB.s 			page 235


 9075              	.LBB1344:
 9076              	.LBB1341:
1159:src/main.cpp  ****             };
 9077              		.loc 6 1159 17 is_stmt 1 view .LVU2777
1159:src/main.cpp  ****             };
 9078              		.loc 6 1159 17 is_stmt 0 view .LVU2778
 9079              	.LBE1341:
 9080              	.LBE1344:
1186:src/main.cpp  **** 
 9081              		.loc 6 1186 13 is_stmt 1 view .LVU2779
 9082              	.LBB1345:
 9083              	.LBI1345:
1157:src/main.cpp  ****                 x = x<0?0:x>1?1:x;
 9084              		.loc 6 1157 31 view .LVU2780
 9085              	.LBB1346:
1158:src/main.cpp  ****                 return x*x*(3.0f - 2.0f*x);
 9086              		.loc 6 1158 17 view .LVU2781
1158:src/main.cpp  ****                 return x*x*(3.0f - 2.0f*x);
 9087              		.loc 6 1158 24 is_stmt 0 view .LVU2782
 9088 0bec F5EEC08A 		vcmpe.f32	s17, #0
 9089 0bf0 F1EE10FA 		vmrs	APSR_nzcv, FPSCR
 9090 0bf4 00F1B380 		bmi	.L558
 9091              	.L661:
1158:src/main.cpp  ****                 return x*x*(3.0f - 2.0f*x);
 9092              		.loc 6 1158 30 view .LVU2783
 9093 0bf8 F7EE006A 		vmov.f32	s13, #1.0e+0
 9094 0bfc F4EEE68A 		vcmpe.f32	s17, s13
 9095 0c00 F1EE10FA 		vmrs	APSR_nzcv, FPSCR
 9096 0c04 09DC     		bgt	.L458
1159:src/main.cpp  ****             };
 9097              		.loc 6 1159 34 view .LVU2784
 9098 0c06 F0EE005A 		vmov.f32	s11, #2.0e+0
 9099 0c0a B0EE087A 		vmov.f32	s14, #3.0e+0
1159:src/main.cpp  ****             };
 9100              		.loc 6 1159 25 view .LVU2785
 9101 0c0e 68EEA86A 		vmul.f32	s13, s17, s17
1159:src/main.cpp  ****             };
 9102              		.loc 6 1159 34 view .LVU2786
 9103 0c12 A8EEE57A 		vfms.f32	s14, s17, s11
1159:src/main.cpp  ****             };
 9104              		.loc 6 1159 42 view .LVU2787
 9105 0c16 66EE876A 		vmul.f32	s13, s13, s14
 9106              	.L458:
 9107              	.LVL727:
1159:src/main.cpp  ****             };
 9108              		.loc 6 1159 17 is_stmt 1 view .LVU2788
 9109              	.LBE1346:
 9110              	.LBE1345:
1188:src/main.cpp  ****             g_target_cutoff  = cutoff;
 9111              		.loc 6 1188 30 is_stmt 0 view .LVU2789
 9112 0c1a 6E4A     		ldr	r2, .L673+36
1186:src/main.cpp  **** 
 9113              		.loc 6 1186 60 view .LVU2790
 9114 0c1c B7EE007A 		vmov.f32	s14, #1.0e+0
 9115 0c20 049B     		ldr	r3, [sp, #16]
 9116              	.LBE1362:
 9117              	.LBE1553:
ARM GAS  /tmp/claude-502/ccZj3JyB.s 			page 236


 9118              	.LBB1554:
 9119              	.LBB1555:
 9120              	.LBB1556:
 471:src/main.cpp  **** }
 9121              		.loc 6 471 16 view .LVU2791
 9122 0c22 F5EEC0BA 		vcmpe.f32	s23, #0
 9123              	.LBE1556:
 9124              	.LBE1555:
 9125              	.LBE1554:
 9126              	.LBB1585:
 9127              	.LBB1363:
1188:src/main.cpp  ****             g_target_cutoff  = cutoff;
 9128              		.loc 6 1188 30 view .LVU2792
 9129 0c26 82ED00BA 		vstr.32	s22, [r2]
1189:src/main.cpp  ****             g_vibrato_depth  = vib;
 9130              		.loc 6 1189 30 view .LVU2793
 9131 0c2a 6B4A     		ldr	r2, .L673+40
1186:src/main.cpp  **** 
 9132              		.loc 6 1186 60 view .LVU2794
 9133 0c2c E31A     		subs	r3, r4, r3
 9134              	.LBE1363:
 9135              	.LBE1585:
 9136              	.LBB1586:
 9137              	.LBB1561:
 9138              	.LBB1557:
 471:src/main.cpp  **** }
 9139              		.loc 6 471 16 view .LVU2795
 9140 0c2e F1EE10FA 		vmrs	APSR_nzcv, FPSCR
 9141              	.LBE1557:
 9142              	.LBE1561:
 9143              	.LBE1586:
 9144              	.LBB1587:
 9145              	.LBB1364:
1189:src/main.cpp  ****             g_vibrato_depth  = vib;
 9146              		.loc 6 1189 30 view .LVU2796
 9147 0c32 C2ED007A 		vstr.32	s15, [r2]
1186:src/main.cpp  **** 
 9148              		.loc 6 1186 60 view .LVU2797
 9149 0c36 F0EE477A 		vmov.f32	s15, s14
 9150              	.LVL728:
1186:src/main.cpp  **** 
 9151              		.loc 6 1186 60 view .LVU2798
 9152 0c3a 5D4A     		ldr	r2, .L673
1186:src/main.cpp  **** 
 9153              		.loc 6 1186 60 view .LVU2799
 9154 0c3c 02EB0313 		add	r3, r2, r3, lsl #4
1192:src/main.cpp  ****             g_amp_target     = 0.72f;
 9155              		.loc 6 1192 30 view .LVU2800
 9156 0c40 664A     		ldr	r2, .L673+44
1186:src/main.cpp  **** 
 9157              		.loc 6 1186 60 view .LVU2801
 9158 0c42 D3ED135A 		vldr.32	s11, [r3, #76]
1190:src/main.cpp  ****             g_target_drive   = drive;
 9159              		.loc 6 1190 30 view .LVU2802
 9160 0c46 664B     		ldr	r3, .L673+48
1186:src/main.cpp  **** 
 9161              		.loc 6 1186 60 view .LVU2803
ARM GAS  /tmp/claude-502/ccZj3JyB.s 			page 237


 9162 0c48 E5EEA67A 		vfma.f32	s15, s11, s13
 9163              	.LVL729:
1188:src/main.cpp  ****             g_target_cutoff  = cutoff;
 9164              		.loc 6 1188 13 is_stmt 1 view .LVU2804
1189:src/main.cpp  ****             g_vibrato_depth  = vib;
 9165              		.loc 6 1189 13 view .LVU2805
1190:src/main.cpp  ****             g_target_drive   = drive;
 9166              		.loc 6 1190 13 view .LVU2806
1191:src/main.cpp  ****             g_finger_on      = true;
 9167              		.loc 6 1191 13 view .LVU2807
1190:src/main.cpp  ****             g_target_drive   = drive;
 9168              		.loc 6 1190 30 is_stmt 0 view .LVU2808
 9169 0c4c 83ED006A 		vstr.32	s12, [r3]
 9170              	.LVL730:
1191:src/main.cpp  ****             g_finger_on      = true;
 9171              		.loc 6 1191 30 view .LVU2809
 9172 0c50 644B     		ldr	r3, .L673+52
 9173 0c52 C3ED007A 		vstr.32	s15, [r3]
1192:src/main.cpp  ****             g_amp_target     = 0.72f;
 9174              		.loc 6 1192 13 is_stmt 1 view .LVU2810
1192:src/main.cpp  ****             g_amp_target     = 0.72f;
 9175              		.loc 6 1192 30 is_stmt 0 view .LVU2811
 9176 0c56 4FF00103 		mov	r3, #1
 9177 0c5a 1370     		strb	r3, [r2]
1193:src/main.cpp  **** 
 9178              		.loc 6 1193 13 is_stmt 1 view .LVU2812
1193:src/main.cpp  **** 
 9179              		.loc 6 1193 30 is_stmt 0 view .LVU2813
 9180 0c5c 624B     		ldr	r3, .L673+56
 9181 0c5e 634A     		ldr	r2, .L673+60
 9182 0c60 1360     		str	r3, [r2]	@ float
 9183              	.LBE1364:
 9184              	.LBE1587:
1214:src/main.cpp  ****         if(f1_on) {
 9185              		.loc 6 1214 9 is_stmt 1 view .LVU2814
 9186              	.LVL731:
1215:src/main.cpp  ****             float p01      = clampf((float)tracked[0].pos / 1000.0f, 0.0f, 1.0f);
 9187              		.loc 6 1215 9 view .LVU2815
 9188              	.LBB1588:
1216:src/main.cpp  ****             float pr01     = clampf((float)tracked[0].pressure / 100.0f, 0.0f, 1.0f);
 9189              		.loc 6 1216 13 view .LVU2816
 9190              	.LBB1562:
 9191              	.LBI1555:
 470:src/main.cpp  ****     return v<lo?lo:v>hi?hi:v;
 9192              		.loc 6 470 21 view .LVU2817
 9193              	.LBB1558:
 471:src/main.cpp  **** }
 9194              		.loc 6 471 5 view .LVU2818
 471:src/main.cpp  **** }
 9195              		.loc 6 471 16 is_stmt 0 view .LVU2819
 9196 0c62 40F1D180 		bpl	.L657
 9197              	.LVL732:
 471:src/main.cpp  **** }
 9198              		.loc 6 471 16 view .LVU2820
 9199              	.LBE1558:
 9200              	.LBE1562:
1217:src/main.cpp  ****             float prs_mult = 0.75f + 0.25f * pr01;
ARM GAS  /tmp/claude-502/ccZj3JyB.s 			page 238


 9201              		.loc 6 1217 13 is_stmt 1 view .LVU2821
 9202              	.LBB1563:
 9203              	.LBI1563:
 470:src/main.cpp  ****     return v<lo?lo:v>hi?hi:v;
 9204              		.loc 6 470 21 view .LVU2822
 9205              	.LBB1564:
 471:src/main.cpp  **** }
 9206              		.loc 6 471 5 view .LVU2823
 471:src/main.cpp  **** }
 9207              		.loc 6 471 16 is_stmt 0 view .LVU2824
 9208 0c66 B5EEC0CA 		vcmpe.f32	s24, #0
 9209 0c6a F1EE10FA 		vmrs	APSR_nzcv, FPSCR
 9210 0c6e 40F1BC81 		bpl	.L658
 9211              	.LBE1564:
 9212              	.LBE1563:
1219:src/main.cpp  ****             float l3_raw   = 2.0f * p01 - 1.0f;                 if(l3_raw < 0) l3_raw = 0;
 9213              		.loc 6 1219 19 view .LVU2825
 9214 0c72 F0EE478A 		vmov.f32	s17, s14
 9215              	.LVL733:
1220:src/main.cpp  ****             float l2_raw   = 1.0f - 2.0f * fabsf(p01 - 0.5f);   if(l2_raw < 0) l2_raw = 0;
 9216              		.loc 6 1220 87 view .LVU2826
 9217 0c76 9FED5FBA 		vldr.32	s22, .L673+68
 9218              	.LVL734:
 9219              	.L527:
1221:src/main.cpp  ****             led1_target    = sqrtf(sqrtf(l2_raw)) * prs_mult;  // middle tent
 9220              		.loc 6 1221 13 is_stmt 1 view .LVU2827
1221:src/main.cpp  ****             led1_target    = sqrtf(sqrtf(l2_raw)) * prs_mult;  // middle tent
 9221              		.loc 6 1221 65 view .LVU2828
1221:src/main.cpp  ****             led1_target    = sqrtf(sqrtf(l2_raw)) * prs_mult;  // middle tent
 9222              		.loc 6 1221 87 is_stmt 0 view .LVU2829
 9223 0c7a F6EE08CA 		vmov.f32	s25, #7.5e-1
 9224              	.LVL735:
1221:src/main.cpp  ****             led1_target    = sqrtf(sqrtf(l2_raw)) * prs_mult;  // middle tent
 9225              		.loc 6 1221 87 view .LVU2830
 9226 0c7e DFED5D6A 		vldr.32	s13, .L673+68
 9227              	.LVL736:
 9228              	.L472:
1222:src/main.cpp  ****             led2_target    = sqrtf(sqrtf(l1_raw)) * prs_mult;  // pos 0 ramp
 9229              		.loc 6 1222 35 view .LVU2831
 9230 0c82 B1EEE60A 		vsqrt.f32	s0, s13
 9231              	.LVL737:
 9232              	.L475:
1222:src/main.cpp  ****             led2_target    = sqrtf(sqrtf(l1_raw)) * prs_mult;  // pos 0 ramp
 9233              		.loc 6 1222 35 view .LVU2832
 9234 0c86 B5EE400A 		vcmp.f32	s0, #0
 9235 0c8a F1EE10FA 		vmrs	APSR_nzcv, FPSCR
 9236 0c8e 00F17A82 		bmi	.L627
 9237 0c92 F1EEC07A 		vsqrt.f32	s15, s0
 9238              	.L478:
 9239 0c96 F5EE408A 		vcmp.f32	s17, #0
1222:src/main.cpp  ****             led2_target    = sqrtf(sqrtf(l1_raw)) * prs_mult;  // pos 0 ramp
 9240              		.loc 6 1222 28 view .LVU2833
 9241 0c9a 27EEAC8A 		vmul.f32	s16, s15, s25
 9242              	.LVL738:
1223:src/main.cpp  ****             led3_target    = sqrtf(sqrtf(l3_raw)) * prs_mult * LED3_INTENSITY;
 9243              		.loc 6 1223 13 is_stmt 1 view .LVU2834
 9244 0c9e F1EE10FA 		vmrs	APSR_nzcv, FPSCR
ARM GAS  /tmp/claude-502/ccZj3JyB.s 			page 239


 9245 0ca2 00F16B82 		bmi	.L628
1223:src/main.cpp  ****             led3_target    = sqrtf(sqrtf(l3_raw)) * prs_mult * LED3_INTENSITY;
 9246              		.loc 6 1223 35 is_stmt 0 view .LVU2835
 9247 0ca6 B1EEE80A 		vsqrt.f32	s0, s17
 9248              	.L481:
 9249 0caa B5EE400A 		vcmp.f32	s0, #0
 9250 0cae F1EE10FA 		vmrs	APSR_nzcv, FPSCR
 9251 0cb2 00F15E82 		bmi	.L629
 9252 0cb6 F1EEC07A 		vsqrt.f32	s15, s0
 9253              	.L484:
 9254 0cba B5EE40BA 		vcmp.f32	s22, #0
1223:src/main.cpp  ****             led3_target    = sqrtf(sqrtf(l3_raw)) * prs_mult * LED3_INTENSITY;
 9255              		.loc 6 1223 28 view .LVU2836
 9256 0cbe 6CEEA78A 		vmul.f32	s17, s25, s15
 9257              	.LVL739:
1224:src/main.cpp  ****         }
 9258              		.loc 6 1224 13 is_stmt 1 view .LVU2837
 9259 0cc2 F1EE10FA 		vmrs	APSR_nzcv, FPSCR
 9260 0cc6 00F14F82 		bmi	.L630
1224:src/main.cpp  ****         }
 9261              		.loc 6 1224 35 is_stmt 0 view .LVU2838
 9262 0cca B1EECB0A 		vsqrt.f32	s0, s22
 9263              	.L487:
1224:src/main.cpp  ****         }
 9264              		.loc 6 1224 35 view .LVU2839
 9265 0cce B5EE400A 		vcmp.f32	s0, #0
 9266 0cd2 F1EE10FA 		vmrs	APSR_nzcv, FPSCR
 9267 0cd6 00F14282 		bmi	.L631
 9268 0cda F1EEC07A 		vsqrt.f32	s15, s0
 9269              	.L490:
1224:src/main.cpp  ****         }
 9270              		.loc 6 1224 28 view .LVU2840
 9271 0cde 9FED447A 		vldr.32	s14, .L673+64
 9272              	.LBE1588:
 9273              	.LBB1589:
1228:src/main.cpp  ****             s_led1 = led1_target;
 9274              		.loc 6 1228 9 view .LVU2841
 9275 0ce2 059B     		ldr	r3, [sp, #20]
 9276              	.LBE1589:
 9277              	.LBB1590:
1224:src/main.cpp  ****         }
 9278              		.loc 6 1224 51 view .LVU2842
 9279 0ce4 6CEEA77A 		vmul.f32	s15, s25, s15
1224:src/main.cpp  ****         }
 9280              		.loc 6 1224 28 view .LVU2843
 9281 0ce8 67EE877A 		vmul.f32	s15, s15, s14
 9282              	.LVL740:
1224:src/main.cpp  ****         }
 9283              		.loc 6 1224 28 view .LVU2844
 9284              	.LBE1590:
1228:src/main.cpp  ****             s_led1 = led1_target;
 9285              		.loc 6 1228 9 is_stmt 1 view .LVU2845
 9286              	.LBB1591:
 9287 0cec 002B     		cmp	r3, #0
 9288 0cee 40F0E480 		bne	.L659
 9289              	.LBE1591:
 9290              	.LBB1592:
ARM GAS  /tmp/claude-502/ccZj3JyB.s 			page 240


1224:src/main.cpp  ****         }
 9291              		.loc 6 1224 28 is_stmt 0 view .LVU2846
 9292 0cf2 B0EE679A 		vmov.f32	s18, s15
 9293              	.LVL741:
1223:src/main.cpp  ****             led3_target    = sqrtf(sqrtf(l3_raw)) * prs_mult * LED3_INTENSITY;
 9294              		.loc 6 1223 28 view .LVU2847
 9295 0cf6 B0EE68AA 		vmov.f32	s20, s17
 9296              	.LVL742:
1222:src/main.cpp  ****             led2_target    = sqrtf(sqrtf(l1_raw)) * prs_mult;  // pos 0 ramp
 9297              		.loc 6 1222 28 view .LVU2848
 9298 0cfa F0EE489A 		vmov.f32	s19, s16
 9299              	.LVL743:
1222:src/main.cpp  ****             led2_target    = sqrtf(sqrtf(l1_raw)) * prs_mult;  // pos 0 ramp
 9300              		.loc 6 1222 28 view .LVU2849
 9301 0cfe FFF71DBB 		b	.L491
 9302              	.LVL744:
 9303              	.L649:
1222:src/main.cpp  ****             led2_target    = sqrtf(sqrtf(l1_raw)) * prs_mult;  // pos 0 ramp
 9304              		.loc 6 1222 28 view .LVU2850
 9305              	.LBE1592:
 9306              	.LBB1593:
 9307              	.LBB1445:
1252:src/main.cpp  **** 
 9308              		.loc 6 1252 13 is_stmt 1 view .LVU2851
1255:src/main.cpp  ****                 x = x<0?0:x>1?1:x;
 9309              		.loc 6 1255 13 view .LVU2852
1261:src/main.cpp  ****             float ss3 = smootherstep2(ss2);   // triple smootherstep ŌĆö very lazy
 9310              		.loc 6 1261 13 view .LVU2853
 9311              	.LBB1428:
1161:src/main.cpp  ****                 x = x<0?0:x>1?1:x;
 9312              		.loc 6 1161 33 view .LVU2854
 9313              	.LBB1388:
1162:src/main.cpp  ****                 return x*x*x*(x*(x*6.0f - 15.0f) + 10.0f);
 9314              		.loc 6 1162 17 view .LVU2855
1163:src/main.cpp  ****             };
 9315              		.loc 6 1163 41 is_stmt 0 view .LVU2856
 9316 0d02 F1EE085A 		vmov.f32	s11, #6.0e+0
 9317              	.LBE1388:
 9318              	.LBE1428:
1274:src/main.cpp  ****             float rm    = smoothstep2(rm_in) * VOICE.ringmod_max;
 9319              		.loc 6 1274 41 view .LVU2857
 9320 0d06 9FED3C4A 		vldr.32	s8, .L673+72
 9321              	.LBB1429:
 9322              	.LBB1389:
1163:src/main.cpp  ****             };
 9323              		.loc 6 1163 41 view .LVU2858
 9324 0d0a FAEE0E4A 		vmov.f32	s9, #-1.5e+1
 9325              	.LBE1389:
 9326              	.LBE1429:
1274:src/main.cpp  ****             float rm    = smoothstep2(rm_in) * VOICE.ringmod_max;
 9327              		.loc 6 1274 33 view .LVU2859
 9328 0d0e DFED3B3A 		vldr.32	s7, .L673+76
 9329              	.LBB1430:
 9330              	.LBB1390:
1163:src/main.cpp  ****             };
 9331              		.loc 6 1163 50 view .LVU2860
 9332 0d12 B2EE045A 		vmov.f32	s10, #1.0e+1
ARM GAS  /tmp/claude-502/ccZj3JyB.s 			page 241


1163:src/main.cpp  ****             };
 9333              		.loc 6 1163 25 view .LVU2861
 9334 0d16 27EEA77A 		vmul.f32	s14, s15, s15
1163:src/main.cpp  ****             };
 9335              		.loc 6 1163 41 view .LVU2862
 9336 0d1a E7EEA54A 		vfma.f32	s9, s15, s11
 9337              	.LBE1390:
 9338              	.LBE1430:
1274:src/main.cpp  ****             float rm    = smoothstep2(rm_in) * VOICE.ringmod_max;
 9339              		.loc 6 1274 41 view .LVU2863
 9340 0d1e 37EEC44A 		vsub.f32	s8, s15, s8
 9341              	.LBB1431:
 9342              	.LBB1391:
1163:src/main.cpp  ****             };
 9343              		.loc 6 1163 27 view .LVU2864
 9344 0d22 27EE277A 		vmul.f32	s14, s14, s15
 9345              	.LBE1391:
 9346              	.LBE1431:
1274:src/main.cpp  ****             float rm    = smoothstep2(rm_in) * VOICE.ringmod_max;
 9347              		.loc 6 1274 33 view .LVU2865
 9348 0d26 C4EE235A 		vdiv.f32	s11, s8, s7
 9349              	.LBB1432:
 9350              	.LBB1392:
1163:src/main.cpp  ****             };
 9351              		.loc 6 1163 50 view .LVU2866
 9352 0d2a A7EEA45A 		vfma.f32	s10, s15, s9
1163:src/main.cpp  ****             };
 9353              		.loc 6 1163 57 view .LVU2867
 9354 0d2e 27EE057A 		vmul.f32	s14, s14, s10
1163:src/main.cpp  ****             };
 9355              		.loc 6 1163 17 is_stmt 1 view .LVU2868
 9356              	.LVL745:
1163:src/main.cpp  ****             };
 9357              		.loc 6 1163 17 is_stmt 0 view .LVU2869
 9358              	.LBE1392:
 9359              	.LBE1432:
1262:src/main.cpp  ****             float bc  = smootherstep2(ss3) * VOICE.fold_max; // ceiling is voice-defined
 9360              		.loc 6 1262 13 is_stmt 1 view .LVU2870
 9361              	.LBB1433:
1161:src/main.cpp  ****                 x = x<0?0:x>1?1:x;
 9362              		.loc 6 1161 33 view .LVU2871
 9363              	.LBB1396:
1162:src/main.cpp  ****                 return x*x*x*(x*(x*6.0f - 15.0f) + 10.0f);
 9364              		.loc 6 1162 17 view .LVU2872
1162:src/main.cpp  ****                 return x*x*x*(x*(x*6.0f - 15.0f) + 10.0f);
 9365              		.loc 6 1162 24 is_stmt 0 view .LVU2873
 9366 0d32 B5EEC07A 		vcmpe.f32	s14, #0
 9367 0d36 F1EE10FA 		vmrs	APSR_nzcv, FPSCR
 9368 0d3a 40F1B480 		bpl	.L660
 9369 0d3e 9FED2D7A 		vldr.32	s14, .L673+68
 9370 0d42 FFF777BB 		b	.L498
 9371              	.LVL746:
 9372              	.L564:
1162:src/main.cpp  ****                 return x*x*x*(x*(x*6.0f - 15.0f) + 10.0f);
 9373              		.loc 6 1162 24 view .LVU2874
 9374              	.LBE1396:
 9375              	.LBE1433:
ARM GAS  /tmp/claude-502/ccZj3JyB.s 			page 242


 9376              	.LBB1434:
 9377              	.LBB1384:
 471:src/main.cpp  **** }
 9378              		.loc 6 471 16 view .LVU2875
 9379 0d46 DFED2B7A 		vldr.32	s15, .L673+68
 9380 0d4a FFF74DBB 		b	.L494
 9381              	.LVL747:
 9382              	.L556:
 471:src/main.cpp  **** }
 9383              		.loc 6 471 16 view .LVU2876
 9384              	.LBE1384:
 9385              	.LBE1434:
 9386              	.LBE1445:
 9387              	.LBE1593:
 9388              	.LBB1594:
 9389              	.LBB1365:
 9390              	.LBB1349:
 9391              	.LBB1347:
1158:src/main.cpp  ****                 return x*x*(3.0f - 2.0f*x);
 9392              		.loc 6 1158 24 view .LVU2877
 9393 0d4e F5EEC08A 		vcmpe.f32	s17, #0
 9394              	.LBE1347:
 9395              	.LBE1349:
 9396              	.LBB1350:
 9397              	.LBB1336:
 9398 0d52 9FED286A 		vldr.32	s12, .L673+68
 9399              	.LVL748:
1158:src/main.cpp  ****                 return x*x*(3.0f - 2.0f*x);
 9400              		.loc 6 1158 24 view .LVU2878
 9401              	.LBE1336:
 9402              	.LBE1350:
 9403              	.LBB1351:
 9404              	.LBB1342:
1159:src/main.cpp  ****             };
 9405              		.loc 6 1159 17 is_stmt 1 view .LVU2879
1159:src/main.cpp  ****             };
 9406              		.loc 6 1159 17 is_stmt 0 view .LVU2880
 9407              	.LBE1342:
 9408              	.LBE1351:
1186:src/main.cpp  **** 
 9409              		.loc 6 1186 13 is_stmt 1 view .LVU2881
 9410              	.LBB1352:
1157:src/main.cpp  ****                 x = x<0?0:x>1?1:x;
 9411              		.loc 6 1157 31 view .LVU2882
 9412              	.LBB1348:
1158:src/main.cpp  ****                 return x*x*(3.0f - 2.0f*x);
 9413              		.loc 6 1158 17 view .LVU2883
1158:src/main.cpp  ****                 return x*x*(3.0f - 2.0f*x);
 9414              		.loc 6 1158 24 is_stmt 0 view .LVU2884
 9415 0d56 F1EE10FA 		vmrs	APSR_nzcv, FPSCR
 9416 0d5a 7FF54DAF 		bpl	.L661
 9417              	.L558:
1158:src/main.cpp  ****                 return x*x*(3.0f - 2.0f*x);
 9418              		.loc 6 1158 24 view .LVU2885
 9419 0d5e DFED256A 		vldr.32	s13, .L673+68
 9420 0d62 5AE7     		b	.L458
 9421              	.LVL749:
ARM GAS  /tmp/claude-502/ccZj3JyB.s 			page 243


 9422              	.L554:
1158:src/main.cpp  ****                 return x*x*(3.0f - 2.0f*x);
 9423              		.loc 6 1158 24 view .LVU2886
 9424              	.LBE1348:
 9425              	.LBE1352:
 9426              	.LBB1353:
 9427              	.LBB1332:
 471:src/main.cpp  **** }
 9428              		.loc 6 471 16 view .LVU2887
 9429 0d64 F0EE477A 		vmov.f32	s15, s14
 9430              	.LVL750:
 471:src/main.cpp  **** }
 9431              		.loc 6 471 16 view .LVU2888
 9432 0d68 1CE7     		b	.L456
 9433              	.LVL751:
 9434              	.L548:
 471:src/main.cpp  **** }
 9435              		.loc 6 471 16 view .LVU2889
 9436              	.LBE1332:
 9437              	.LBE1353:
 9438              	.LBB1354:
 9439              	.LBB1316:
 9440 0d6a F0EE487A 		vmov.f32	s15, s16
 9441              	.LVL752:
 9442              	.L451:
 471:src/main.cpp  **** }
 9443              		.loc 6 471 16 view .LVU2890
 9444              	.LBE1316:
 9445              	.LBE1354:
 9446              	.LBB1355:
 9447              	.LBB1320:
 471:src/main.cpp  **** }
 9448              		.loc 6 471 24 view .LVU2891
 9449 0d6e B4EEE7BA 		vcmpe.f32	s22, s15
 9450 0d72 F1EE10FA 		vmrs	APSR_nzcv, FPSCR
 9451              	.LBE1320:
 9452              	.LBE1355:
 9453              	.LBB1356:
 9454              	.LBB1325:
1162:src/main.cpp  ****                 return x*x*x*(x*(x*6.0f - 15.0f) + 10.0f);
 9455              		.loc 6 1162 24 view .LVU2892
 9456 0d76 F5EEC08A 		vcmpe.f32	s17, #0
 9457              	.LBE1325:
 9458              	.LBE1356:
 9459              	.LBB1357:
 9460              	.LBB1321:
 471:src/main.cpp  **** }
 9461              		.loc 6 471 24 view .LVU2893
 9462 0d7a 58BF     		it	pl
 9463 0d7c B0EE67BA 		vmovpl.f32	s22, s15
 9464              	.LVL753:
 471:src/main.cpp  **** }
 9465              		.loc 6 471 24 view .LVU2894
 9466              	.LBE1321:
 9467              	.LBE1357:
1157:src/main.cpp  ****                 x = x<0?0:x>1?1:x;
 9468              		.loc 6 1157 13 is_stmt 1 view .LVU2895
ARM GAS  /tmp/claude-502/ccZj3JyB.s 			page 244


1161:src/main.cpp  ****                 x = x<0?0:x>1?1:x;
 9469              		.loc 6 1161 13 view .LVU2896
1168:src/main.cpp  ****             float cutoff_oct = VOICE.cutoff_oct_max * prs_cut;
 9470              		.loc 6 1168 13 view .LVU2897
 9471              	.LBB1358:
1161:src/main.cpp  ****                 x = x<0?0:x>1?1:x;
 9472              		.loc 6 1161 33 view .LVU2898
 9473              	.LBB1326:
1162:src/main.cpp  ****                 return x*x*x*(x*(x*6.0f - 15.0f) + 10.0f);
 9474              		.loc 6 1162 17 view .LVU2899
1162:src/main.cpp  ****                 return x*x*x*(x*(x*6.0f - 15.0f) + 10.0f);
 9475              		.loc 6 1162 24 is_stmt 0 view .LVU2900
 9476 0d80 F1EE10FA 		vmrs	APSR_nzcv, FPSCR
 9477 0d84 7FF5AFAE 		bpl	.L662
 9478              	.LVL754:
 9479              	.L551:
1162:src/main.cpp  ****                 return x*x*x*(x*(x*6.0f - 15.0f) + 10.0f);
 9480              		.loc 6 1162 24 view .LVU2901
 9481 0d88 9FED1A7A 		vldr.32	s14, .L673+68
 9482              	.LVL755:
1162:src/main.cpp  ****                 return x*x*x*(x*(x*6.0f - 15.0f) + 10.0f);
 9483              		.loc 6 1162 24 view .LVU2902
 9484 0d8c C2E6     		b	.L454
 9485              	.LVL756:
 9486              	.L562:
1162:src/main.cpp  ****                 return x*x*x*(x*(x*6.0f - 15.0f) + 10.0f);
 9487              		.loc 6 1162 24 view .LVU2903
 9488              	.LBE1326:
 9489              	.LBE1358:
 9490              	.LBE1365:
 9491              	.LBE1594:
 9492              	.LBB1595:
 9493              	.LBB1446:
 9494              	.LBB1435:
 9495              	.LBB1380:
 9496 0d8e BFEE086A 		vmov.f32	s12, #-1.5e+0
 9497 0d92 FFF711BB 		b	.L493
 9498              	.LVL757:
 9499              	.L568:
1162:src/main.cpp  ****                 return x*x*x*(x*(x*6.0f - 15.0f) + 10.0f);
 9500              		.loc 6 1162 24 view .LVU2904
 9501              	.LBE1380:
 9502              	.LBE1435:
 9503              	.LBB1436:
 9504              	.LBB1425:
 9505 0d96 DFED177A 		vldr.32	s15, .L673+68
 9506 0d9a FFF788BB 		b	.L504
 9507              	.LVL758:
 9508              	.L540:
1162:src/main.cpp  ****                 return x*x*x*(x*(x*6.0f - 15.0f) + 10.0f);
 9509              		.loc 6 1162 24 view .LVU2905
 9510              	.LBE1425:
 9511              	.LBE1436:
 9512              	.LBE1446:
 9513              	.LBE1595:
1031:src/main.cpp  ****         else                        vol = (float)(fsr_raw - FSR_MIN) * fsr_range_inv;
 9514              		.loc 6 1031 41 view .LVU2906
ARM GAS  /tmp/claude-502/ccZj3JyB.s 			page 245


 9515 0d9e F7EE007A 		vmov.f32	s15, #1.0e+0
 9516 0da2 E7E4     		b	.L410
 9517              	.LVL759:
 9518              	.L546:
 9519              	.LBB1596:
 9520              	.LBB1366:
 9521              	.LBB1359:
 9522              	.LBB1313:
 471:src/main.cpp  **** }
 9523              		.loc 6 471 16 view .LVU2907
 9524 0da4 DFED138A 		vldr.32	s17, .L673+68
 9525 0da8 64E6     		b	.L450
 9526              	.LVL760:
 9527              	.L544:
 471:src/main.cpp  **** }
 9528              		.loc 6 471 16 view .LVU2908
 9529              	.LBE1313:
 9530              	.LBE1359:
 9531              	.LBB1360:
 9532              	.LBB1310:
 9533 0daa 9FED127A 		vldr.32	s14, .L673+68
 9534 0dae 4BE6     		b	.L449
 9535              	.L674:
 9536              		.align	2
 9537              	.L673:
 9538 0db0 00000000 		.word	.LANCHOR13
 9539 0db4 68B32A3E 		.word	1042985832
 9540 0db8 006F313F 		.word	1060204288
 9541 0dbc 9FCD2A3D 		.word	1026215327
 9542 0dc0 77BE7F3F 		.word	1065336439
 9543 0dc4 00A08C46 		.word	1183621120
 9544 0dc8 9A99193F 		.word	1058642330
 9545 0dcc CDCCCC3E 		.word	1053609165
 9546 0dd0 CDCC4C3F 		.word	1061997773
 9547 0dd4 00000000 		.word	.LANCHOR1
 9548 0dd8 00000000 		.word	.LANCHOR2
 9549 0ddc 00000000 		.word	.LANCHOR46
 9550 0de0 00000000 		.word	.LANCHOR5
 9551 0de4 00000000 		.word	.LANCHOR4
 9552 0de8 EC51383F 		.word	1060655596
 9553 0dec 00000000 		.word	.LANCHOR8
 9554 0df0 CDCCCC3D 		.word	1036831949
 9555 0df4 00000000 		.word	0
 9556 0df8 9A99593F 		.word	1062836634
 9557 0dfc 9A99193E 		.word	1041865114
 9558 0e00 CDCC0C3F 		.word	1057803469
 9559 0e04 6666E63E 		.word	1055286886
 9560              	.LVL761:
 9561              	.L657:
 471:src/main.cpp  **** }
 9562              		.loc 6 471 16 view .LVU2909
 9563              	.LBE1310:
 9564              	.LBE1360:
 9565              	.LBE1366:
 9566              	.LBE1596:
 9567              	.LBB1597:
 9568              	.LBB1574:
ARM GAS  /tmp/claude-502/ccZj3JyB.s 			page 246


 9569              	.LBB1559:
 471:src/main.cpp  **** }
 9570              		.loc 6 471 24 view .LVU2910
 9571 0e08 F4EEC7BA 		vcmpe.f32	s23, s14
 9572 0e0c F1EE10FA 		vmrs	APSR_nzcv, FPSCR
 9573              	.LBE1559:
 9574              	.LBE1574:
 9575              	.LBB1575:
 9576              	.LBB1565:
 471:src/main.cpp  **** }
 9577              		.loc 6 471 16 view .LVU2911
 9578 0e10 B5EEC0CA 		vcmpe.f32	s24, #0
 9579              	.LBE1565:
 9580              	.LBE1575:
 9581              	.LBB1576:
 9582              	.LBB1560:
 471:src/main.cpp  **** }
 9583              		.loc 6 471 24 view .LVU2912
 9584 0e14 00F3FD80 		bgt	.L462
 9585              	.LVL762:
 471:src/main.cpp  **** }
 9586              		.loc 6 471 24 view .LVU2913
 9587              	.LBE1560:
 9588              	.LBE1576:
1217:src/main.cpp  ****             float prs_mult = 0.75f + 0.25f * pr01;
 9589              		.loc 6 1217 13 is_stmt 1 view .LVU2914
 9590              	.LBB1577:
 470:src/main.cpp  ****     return v<lo?lo:v>hi?hi:v;
 9591              		.loc 6 470 21 view .LVU2915
 9592              	.LBB1566:
 471:src/main.cpp  **** }
 9593              		.loc 6 471 5 view .LVU2916
 471:src/main.cpp  **** }
 9594              		.loc 6 471 16 is_stmt 0 view .LVU2917
 9595 0e18 F1EE10FA 		vmrs	APSR_nzcv, FPSCR
 9596 0e1c 40F10481 		bpl	.L624
 9597              	.LBE1566:
 9598              	.LBE1577:
1221:src/main.cpp  ****             led1_target    = sqrtf(sqrtf(l2_raw)) * prs_mult;  // middle tent
 9599              		.loc 6 1221 54 view .LVU2918
 9600 0e20 F6EE007A 		vmov.f32	s15, #5.0e-1
 9601              	.LVL763:
1219:src/main.cpp  ****             float l3_raw   = 2.0f * p01 - 1.0f;                 if(l3_raw < 0) l3_raw = 0;
 9602              		.loc 6 1219 19 view .LVU2919
 9603 0e24 B0EE006A 		vmov.f32	s12, #2.0e+0
1220:src/main.cpp  ****             float l2_raw   = 1.0f - 2.0f * fabsf(p01 - 0.5f);   if(l2_raw < 0) l2_raw = 0;
 9604              		.loc 6 1220 19 view .LVU2920
 9605 0e28 BFEE00BA 		vmov.f32	s22, #-1.0e+0
 9606              	.LVL764:
1221:src/main.cpp  ****             led1_target    = sqrtf(sqrtf(l2_raw)) * prs_mult;  // middle tent
 9607              		.loc 6 1221 19 view .LVU2921
 9608 0e2c F6EE08CA 		vmov.f32	s25, #7.5e-1
 9609              	.LVL765:
 9610              	.L641:
1221:src/main.cpp  ****             led1_target    = sqrtf(sqrtf(l2_raw)) * prs_mult;  // middle tent
 9611              		.loc 6 1221 54 view .LVU2922
 9612 0e30 7BEEE77A 		vsub.f32	s15, s23, s15
ARM GAS  /tmp/claude-502/ccZj3JyB.s 			page 247


1219:src/main.cpp  ****             float l3_raw   = 2.0f * p01 - 1.0f;                 if(l3_raw < 0) l3_raw = 0;
 9613              		.loc 6 1219 19 view .LVU2923
 9614 0e34 F0EE478A 		vmov.f32	s17, s14
 9615              	.LVL766:
1220:src/main.cpp  ****             float l2_raw   = 1.0f - 2.0f * fabsf(p01 - 0.5f);   if(l2_raw < 0) l2_raw = 0;
 9616              		.loc 6 1220 19 view .LVU2924
 9617 0e38 ABEE86BA 		vfma.f32	s22, s23, s12
1221:src/main.cpp  ****             led1_target    = sqrtf(sqrtf(l2_raw)) * prs_mult;  // middle tent
 9618              		.loc 6 1221 49 view .LVU2925
 9619 0e3c F0EEE77A 		vabs.f32	s15, s15
1219:src/main.cpp  ****             float l3_raw   = 2.0f * p01 - 1.0f;                 if(l3_raw < 0) l3_raw = 0;
 9620              		.loc 6 1219 19 view .LVU2926
 9621 0e40 EBEEC68A 		vfms.f32	s17, s23, s12
1221:src/main.cpp  ****             led1_target    = sqrtf(sqrtf(l2_raw)) * prs_mult;  // middle tent
 9622              		.loc 6 1221 19 view .LVU2927
 9623 0e44 A7EEC67A 		vfms.f32	s14, s15, s12
 9624              	.LVL767:
1221:src/main.cpp  ****             led1_target    = sqrtf(sqrtf(l2_raw)) * prs_mult;  // middle tent
 9625              		.loc 6 1221 19 view .LVU2928
 9626 0e48 F0EE476A 		vmov.f32	s13, s14
 9627              	.LVL768:
 9628              	.L465:
1218:src/main.cpp  ****             float l1_raw   = 1.0f - 2.0f * p01;                 if(l1_raw < 0) l1_raw = 0;
 9629              		.loc 6 1218 13 is_stmt 1 view .LVU2929
1219:src/main.cpp  ****             float l3_raw   = 2.0f * p01 - 1.0f;                 if(l3_raw < 0) l3_raw = 0;
 9630              		.loc 6 1219 13 view .LVU2930
1219:src/main.cpp  ****             float l3_raw   = 2.0f * p01 - 1.0f;                 if(l3_raw < 0) l3_raw = 0;
 9631              		.loc 6 1219 65 view .LVU2931
 9632 0e4c F5EEC08A 		vcmpe.f32	s17, #0
 9633 0e50 F1EE10FA 		vmrs	APSR_nzcv, FPSCR
1220:src/main.cpp  ****             float l2_raw   = 1.0f - 2.0f * fabsf(p01 - 0.5f);   if(l2_raw < 0) l2_raw = 0;
 9634              		.loc 6 1220 65 is_stmt 0 view .LVU2932
 9635 0e54 B5EEC0BA 		vcmpe.f32	s22, #0
1219:src/main.cpp  ****             float l3_raw   = 2.0f * p01 - 1.0f;                 if(l3_raw < 0) l3_raw = 0;
 9636              		.loc 6 1219 87 view .LVU2933
 9637 0e58 48BF     		it	mi
 9638 0e5a 5FED1A8A 		vldrmi.32	s17, .L673+68
 9639              	.LVL769:
1220:src/main.cpp  ****             float l2_raw   = 1.0f - 2.0f * fabsf(p01 - 0.5f);   if(l2_raw < 0) l2_raw = 0;
 9640              		.loc 6 1220 13 is_stmt 1 view .LVU2934
1220:src/main.cpp  ****             float l2_raw   = 1.0f - 2.0f * fabsf(p01 - 0.5f);   if(l2_raw < 0) l2_raw = 0;
 9641              		.loc 6 1220 65 view .LVU2935
 9642 0e5e F1EE10FA 		vmrs	APSR_nzcv, FPSCR
1221:src/main.cpp  ****             led1_target    = sqrtf(sqrtf(l2_raw)) * prs_mult;  // middle tent
 9643              		.loc 6 1221 65 is_stmt 0 view .LVU2936
 9644 0e62 F5EEC06A 		vcmpe.f32	s13, #0
1220:src/main.cpp  ****             float l2_raw   = 1.0f - 2.0f * fabsf(p01 - 0.5f);   if(l2_raw < 0) l2_raw = 0;
 9645              		.loc 6 1220 87 view .LVU2937
 9646 0e66 48BF     		it	mi
 9647 0e68 1FED1EBA 		vldrmi.32	s22, .L673+68
 9648              	.LVL770:
1221:src/main.cpp  ****             led1_target    = sqrtf(sqrtf(l2_raw)) * prs_mult;  // middle tent
 9649              		.loc 6 1221 13 is_stmt 1 view .LVU2938
1221:src/main.cpp  ****             led1_target    = sqrtf(sqrtf(l2_raw)) * prs_mult;  // middle tent
 9650              		.loc 6 1221 65 view .LVU2939
 9651 0e6c F1EE10FA 		vmrs	APSR_nzcv, FPSCR
 9652 0e70 40F11981 		bpl	.L663
ARM GAS  /tmp/claude-502/ccZj3JyB.s 			page 248


1221:src/main.cpp  ****             led1_target    = sqrtf(sqrtf(l2_raw)) * prs_mult;  // middle tent
 9653              		.loc 6 1221 87 is_stmt 0 view .LVU2940
 9654 0e74 5FED216A 		vldr.32	s13, .L673+68
 9655 0e78 03E7     		b	.L472
 9656              	.LVL771:
 9657              	.L650:
1221:src/main.cpp  ****             led1_target    = sqrtf(sqrtf(l2_raw)) * prs_mult;  // middle tent
 9658              		.loc 6 1221 87 view .LVU2941
 9659              	.LBE1597:
 9660              	.LBB1598:
 9661              	.LBB1447:
1277:src/main.cpp  ****             g_bitcrush      = bc;
 9662              		.loc 6 1277 42 view .LVU2942
 9663 0e7a 26EE056A 		vmul.f32	s12, s12, s10
 9664 0e7e FFF7FFBA 		b	.L503
 9665              	.LVL772:
 9666              	.L632:
 9667              	.LBB1437:
 9668              	.LBB1403:
1162:src/main.cpp  ****                 return x*x*x*(x*(x*6.0f - 15.0f) + 10.0f);
 9669              		.loc 6 1162 30 view .LVU2943
 9670 0e82 B7EE007A 		vmov.f32	s14, #1.0e+0
 9671 0e86 F4EEC76A 		vcmpe.f32	s13, s14
 9672 0e8a F1EE10FA 		vmrs	APSR_nzcv, FPSCR
 9673 0e8e 40F35081 		ble	.L633
 9674              	.LBE1403:
 9675              	.LBE1437:
1274:src/main.cpp  ****             float rm    = smoothstep2(rm_in) * VOICE.ringmod_max;
 9676              		.loc 6 1274 41 view .LVU2944
 9677 0e92 5FED276A 		vldr.32	s13, .L673+72
 9678              	.LVL773:
1274:src/main.cpp  ****             float rm    = smoothstep2(rm_in) * VOICE.ringmod_max;
 9679              		.loc 6 1274 33 view .LVU2945
 9680 0e96 1FED275A 		vldr.32	s10, .L673+76
1274:src/main.cpp  ****             float rm    = smoothstep2(rm_in) * VOICE.ringmod_max;
 9681              		.loc 6 1274 41 view .LVU2946
 9682 0e9a 77EEE66A 		vsub.f32	s13, s15, s13
1274:src/main.cpp  ****             float rm    = smoothstep2(rm_in) * VOICE.ringmod_max;
 9683              		.loc 6 1274 33 view .LVU2947
 9684 0e9e C6EE855A 		vdiv.f32	s11, s13, s10
 9685 0ea2 FFF7C7BA 		b	.L498
 9686              	.LVL774:
 9687              	.L660:
 9688              	.LBB1438:
 9689              	.LBB1397:
1162:src/main.cpp  ****                 return x*x*x*(x*(x*6.0f - 15.0f) + 10.0f);
 9690              		.loc 6 1162 30 view .LVU2948
 9691 0ea6 B4EEE67A 		vcmpe.f32	s14, s13
 9692 0eaa F1EE10FA 		vmrs	APSR_nzcv, FPSCR
 9693 0eae 7FF79DAA 		ble	.L538
 9694 0eb2 B0EE667A 		vmov.f32	s14, s13
 9695              	.LVL775:
1163:src/main.cpp  ****             };
 9696              		.loc 6 1163 17 is_stmt 1 view .LVU2949
1163:src/main.cpp  ****             };
 9697              		.loc 6 1163 17 is_stmt 0 view .LVU2950
 9698              	.LBE1397:
ARM GAS  /tmp/claude-502/ccZj3JyB.s 			page 249


 9699              	.LBE1438:
1263:src/main.cpp  **** 
 9700              		.loc 6 1263 13 is_stmt 1 view .LVU2951
 9701              	.LBB1439:
1161:src/main.cpp  ****                 x = x<0?0:x>1?1:x;
 9702              		.loc 6 1161 33 view .LVU2952
 9703              	.LBB1404:
1162:src/main.cpp  ****                 return x*x*x*(x*(x*6.0f - 15.0f) + 10.0f);
 9704              		.loc 6 1162 17 view .LVU2953
 9705 0eb6 FFF7BDBA 		b	.L498
 9706              	.LVL776:
 9707              	.L659:
1162:src/main.cpp  ****                 return x*x*x*(x*(x*6.0f - 15.0f) + 10.0f);
 9708              		.loc 6 1162 17 is_stmt 0 view .LVU2954
 9709              	.LBE1404:
 9710              	.LBE1439:
 9711              	.LBE1447:
 9712              	.LBE1598:
 9713              	.LBB1599:
 9714              	.LBB1372:
1234:src/main.cpp  ****             s_led2 = s_led2 * LED_SMOOTH + led2_target * (1.0f - LED_SMOOTH);
 9715              		.loc 6 1234 56 view .LVU2955
 9716 0eba 1FED2F6A 		vldr.32	s12, .L673+80
1233:src/main.cpp  ****             s_led1 = s_led1 * LED_SMOOTH + led1_target * (1.0f - LED_SMOOTH);
 9717              		.loc 6 1233 35 view .LVU2956
 9718 0ebe 5FED2F5A 		vldr.32	s11, .L673+84
1234:src/main.cpp  ****             s_led2 = s_led2 * LED_SMOOTH + led2_target * (1.0f - LED_SMOOTH);
 9719              		.loc 6 1234 56 view .LVU2957
 9720 0ec2 28EE067A 		vmul.f32	s14, s16, s12
1235:src/main.cpp  ****             s_led3 = s_led3 * smooth3   + led3_target * (1.0f - smooth3);
 9721              		.loc 6 1235 56 view .LVU2958
 9722 0ec6 68EE866A 		vmul.f32	s13, s17, s12
1236:src/main.cpp  ****         }
 9723              		.loc 6 1236 55 view .LVU2959
 9724 0eca 67EE867A 		vmul.f32	s15, s15, s12
 9725              	.LVL777:
1236:src/main.cpp  ****         }
 9726              		.loc 6 1236 55 view .LVU2960
 9727 0ece FFF727BA 		b	.L461
 9728              	.LVL778:
 9729              	.L644:
1236:src/main.cpp  ****         }
 9730              		.loc 6 1236 55 view .LVU2961
 9731              	.LBE1372:
 9732              	.LBE1599:
 9733              	.LBB1600:
 9734              	.LBB1302:
1050:src/main.cpp  ****             last_touch_ms = now;
 9735              		.loc 6 1050 13 is_stmt 1 view .LVU2962
1051:src/main.cpp  ****             if((int32_t)(now - fsr_next_switch) >= 0){
 9736              		.loc 6 1051 13 view .LVU2963
1052:src/main.cpp  ****                 g_voice_idx = (g_voice_idx + 1) % NUM_VOICES;
 9737              		.loc 6 1052 13 view .LVU2964
1052:src/main.cpp  ****                 g_voice_idx = (g_voice_idx + 1) % NUM_VOICES;
 9738              		.loc 6 1052 30 is_stmt 0 view .LVU2965
 9739 0ed2 069B     		ldr	r3, [sp, #24]
 9740 0ed4 0C9A     		ldr	r2, [sp, #48]
ARM GAS  /tmp/claude-502/ccZj3JyB.s 			page 250


 9741 0ed6 9B1A     		subs	r3, r3, r2
1052:src/main.cpp  ****                 g_voice_idx = (g_voice_idx + 1) % NUM_VOICES;
 9742              		.loc 6 1052 13 view .LVU2966
 9743 0ed8 002B     		cmp	r3, #0
 9744 0eda C0F2E080 		blt	.L541
1053:src/main.cpp  ****                 hw.PrintLine("[voice %d/%d] %s",
 9745              		.loc 6 1053 17 is_stmt 1 view .LVU2967
1053:src/main.cpp  ****                 hw.PrintLine("[voice %d/%d] %s",
 9746              		.loc 6 1053 32 is_stmt 0 view .LVU2968
 9747 0ede AC48     		ldr	r0, .L675
 9748              	.LVL779:
1053:src/main.cpp  ****                 hw.PrintLine("[voice %d/%d] %s",
 9749              		.loc 6 1053 49 view .LVU2969
 9750 0ee0 AC4B     		ldr	r3, .L675+4
1053:src/main.cpp  ****                 hw.PrintLine("[voice %d/%d] %s",
 9751              		.loc 6 1053 32 view .LVU2970
 9752 0ee2 0268     		ldr	r2, [r0]
1055:src/main.cpp  ****                 flash_voice_leds(g_voice_idx + 1);            // count = voice number
 9753              		.loc 6 1055 66 view .LVU2971
 9754 0ee4 0446     		mov	r4, r0
1053:src/main.cpp  ****                 hw.PrintLine("[voice %d/%d] %s",
 9755              		.loc 6 1053 44 view .LVU2972
 9756 0ee6 0132     		adds	r2, r2, #1
1053:src/main.cpp  ****                 hw.PrintLine("[voice %d/%d] %s",
 9757              		.loc 6 1053 49 view .LVU2973
 9758 0ee8 83FB0213 		smull	r1, r3, r3, r2
 9759 0eec 9918     		adds	r1, r3, r2
 9760 0eee D317     		asrs	r3, r2, #31
 9761 0ef0 C3EBA103 		rsb	r3, r3, r1, asr #2
 9762 0ef4 C3EBC303 		rsb	r3, r3, r3, lsl #3
 9763 0ef8 D31A     		subs	r3, r2, r3
 9764              	.LBB1294:
 9765              	.LBB1295:
 128:/Users/reza.kalfane/Workspaces/Daisy/DaisyExamples/libDaisy/src/daisy_seed.h ****     }
 9766              		.loc 1 128 23 view .LVU2974
 9767 0efa A74A     		ldr	r2, .L675+8
 9768              	.LBE1295:
 9769              	.LBE1294:
1053:src/main.cpp  ****                 hw.PrintLine("[voice %d/%d] %s",
 9770              		.loc 6 1053 29 view .LVU2975
 9771 0efc 0360     		str	r3, [r0]
1054:src/main.cpp  ****                              g_voice_idx + 1, NUM_VOICES, VOICES[g_voice_idx].name);
 9772              		.loc 6 1054 17 is_stmt 1 view .LVU2976
1055:src/main.cpp  ****                 flash_voice_leds(g_voice_idx + 1);            // count = voice number
 9773              		.loc 6 1055 30 is_stmt 0 view .LVU2977
 9774 0efe 0168     		ldr	r1, [r0]
1055:src/main.cpp  ****                 flash_voice_leds(g_voice_idx + 1);            // count = voice number
 9775              		.loc 6 1055 66 view .LVU2978
 9776 0f00 0368     		ldr	r3, [r0]
 9777              	.LVL780:
 9778              	.LBB1298:
 9779              	.LBI1294:
 126:/Users/reza.kalfane/Workspaces/Daisy/DaisyExamples/libDaisy/src/daisy_seed.h ****     {
 9780              		.loc 1 126 17 is_stmt 1 view .LVU2979
 9781              	.LBB1296:
 128:/Users/reza.kalfane/Workspaces/Daisy/DaisyExamples/libDaisy/src/daisy_seed.h ****     }
 9782              		.loc 1 128 23 is_stmt 0 view .LVU2980
ARM GAS  /tmp/claude-502/ccZj3JyB.s 			page 251


 9783 0f02 0131     		adds	r1, r1, #1
 9784              	.LVL781:
 128:/Users/reza.kalfane/Workspaces/Daisy/DaisyExamples/libDaisy/src/daisy_seed.h ****     }
 9785              		.loc 1 128 23 view .LVU2981
 9786 0f04 A548     		ldr	r0, .L675+12
 9787              	.LBE1296:
 9788              	.LBE1298:
1055:src/main.cpp  ****                 flash_voice_leds(g_voice_idx + 1);            // count = voice number
 9789              		.loc 6 1055 79 view .LVU2982
 9790 0f06 C3EBC303 		rsb	r3, r3, r3, lsl #3
 9791              	.LVL782:
1055:src/main.cpp  ****                 flash_voice_leds(g_voice_idx + 1);            // count = voice number
 9792              		.loc 6 1055 79 view .LVU2983
 9793 0f0a 1B01     		lsls	r3, r3, #4
 9794              	.LBB1299:
 9795              	.LBB1297:
 128:/Users/reza.kalfane/Workspaces/Daisy/DaisyExamples/libDaisy/src/daisy_seed.h ****     }
 9796              		.loc 1 128 23 view .LVU2984
 9797 0f0c D358     		ldr	r3, [r2, r3]
 9798 0f0e 0722     		movs	r2, #7
 9799 0f10 FFF7FEFF 		bl	_ZN5daisy6LoggerILNS_17LoggerDestinationE1EE9PrintLineEPKcz
 9800              	.LVL783:
 128:/Users/reza.kalfane/Workspaces/Daisy/DaisyExamples/libDaisy/src/daisy_seed.h ****     }
 9801              		.loc 1 128 23 view .LVU2985
 9802              	.LBE1297:
 9803              	.LBE1299:
1056:src/main.cpp  ****                 fsr_next_switch = System::GetNow() + VOICE_SWITCH_REPEAT_MS; // re-time after flash
 9804              		.loc 6 1056 17 is_stmt 1 view .LVU2986
1056:src/main.cpp  ****                 fsr_next_switch = System::GetNow() + VOICE_SWITCH_REPEAT_MS; // re-time after flash
 9805              		.loc 6 1056 34 is_stmt 0 view .LVU2987
 9806 0f14 2468     		ldr	r4, [r4]
 9807              	.LVL784:
 9808              	.LBB1300:
 9809              	.LBI1300:
1012:src/main.cpp  ****         for(int f = 0; f < count; f++){
 9810              		.loc 6 1012 29 is_stmt 1 view .LVU2988
 9811              	.LBB1301:
1013:src/main.cpp  ****             hw.dac.WriteValue(DacHandle::Channel::ONE, 4095);
 9812              		.loc 6 1013 26 view .LVU2989
 9813 0f16 002C     		cmp	r4, #0
 9814 0f18 24DB     		blt	.L413
1013:src/main.cpp  ****             hw.dac.WriteValue(DacHandle::Channel::ONE, 4095);
 9815              		.loc 6 1013 17 is_stmt 0 view .LVU2990
 9816 0f1a 0025     		movs	r5, #0
 9817              	.LVL785:
 9818              	.L412:
1014:src/main.cpp  ****             hw.dac.WriteValue(DacHandle::Channel::TWO, 4095);
 9819              		.loc 6 1014 13 is_stmt 1 view .LVU2991
1014:src/main.cpp  ****             hw.dac.WriteValue(DacHandle::Channel::TWO, 4095);
 9820              		.loc 6 1014 30 is_stmt 0 view .LVU2992
 9821 0f1c 40F6FF72 		movw	r2, #4095
 9822 0f20 0021     		movs	r1, #0
 9823 0f22 9F48     		ldr	r0, .L675+16
1013:src/main.cpp  ****             hw.dac.WriteValue(DacHandle::Channel::ONE, 4095);
 9824              		.loc 6 1013 9 view .LVU2993
 9825 0f24 0135     		adds	r5, r5, #1
 9826              	.LVL786:
ARM GAS  /tmp/claude-502/ccZj3JyB.s 			page 252


1014:src/main.cpp  ****             hw.dac.WriteValue(DacHandle::Channel::TWO, 4095);
 9827              		.loc 6 1014 30 view .LVU2994
 9828 0f26 FFF7FEFF 		bl	_ZN5daisy9DacHandle10WriteValueENS0_7ChannelEt
 9829              	.LVL787:
1015:src/main.cpp  ****             g_led3_duty = LED3_INTENSITY;
 9830              		.loc 6 1015 13 is_stmt 1 view .LVU2995
1015:src/main.cpp  ****             g_led3_duty = LED3_INTENSITY;
 9831              		.loc 6 1015 30 is_stmt 0 view .LVU2996
 9832 0f2a 40F6FF72 		movw	r2, #4095
 9833 0f2e 0121     		movs	r1, #1
 9834 0f30 9B48     		ldr	r0, .L675+16
 9835 0f32 FFF7FEFF 		bl	_ZN5daisy9DacHandle10WriteValueENS0_7ChannelEt
 9836              	.LVL788:
1016:src/main.cpp  ****             System::Delay(110);
 9837              		.loc 6 1016 13 is_stmt 1 view .LVU2997
1016:src/main.cpp  ****             System::Delay(110);
 9838              		.loc 6 1016 25 is_stmt 0 view .LVU2998
 9839 0f36 9B4E     		ldr	r6, .L675+20
 9840 0f38 9B4B     		ldr	r3, .L675+24
1017:src/main.cpp  ****             hw.dac.WriteValue(DacHandle::Channel::ONE, 0);
 9841              		.loc 6 1017 26 view .LVU2999
 9842 0f3a 6E20     		movs	r0, #110
1016:src/main.cpp  ****             System::Delay(110);
 9843              		.loc 6 1016 25 view .LVU3000
 9844 0f3c 3360     		str	r3, [r6]	@ float
1017:src/main.cpp  ****             hw.dac.WriteValue(DacHandle::Channel::ONE, 0);
 9845              		.loc 6 1017 13 is_stmt 1 view .LVU3001
1017:src/main.cpp  ****             hw.dac.WriteValue(DacHandle::Channel::ONE, 0);
 9846              		.loc 6 1017 26 is_stmt 0 view .LVU3002
 9847 0f3e FFF7FEFF 		bl	_ZN5daisy6System5DelayEm
 9848              	.LVL789:
1018:src/main.cpp  ****             hw.dac.WriteValue(DacHandle::Channel::TWO, 0);
 9849              		.loc 6 1018 13 is_stmt 1 view .LVU3003
1018:src/main.cpp  ****             hw.dac.WriteValue(DacHandle::Channel::TWO, 0);
 9850              		.loc 6 1018 30 is_stmt 0 view .LVU3004
 9851 0f42 0022     		movs	r2, #0
 9852 0f44 9648     		ldr	r0, .L675+16
 9853 0f46 1146     		mov	r1, r2
 9854 0f48 FFF7FEFF 		bl	_ZN5daisy9DacHandle10WriteValueENS0_7ChannelEt
 9855              	.LVL790:
1019:src/main.cpp  ****             g_led3_duty = 0.0f;
 9856              		.loc 6 1019 13 is_stmt 1 view .LVU3005
1019:src/main.cpp  ****             g_led3_duty = 0.0f;
 9857              		.loc 6 1019 30 is_stmt 0 view .LVU3006
 9858 0f4c 0022     		movs	r2, #0
 9859 0f4e 0121     		movs	r1, #1
 9860 0f50 9348     		ldr	r0, .L675+16
 9861 0f52 FFF7FEFF 		bl	_ZN5daisy9DacHandle10WriteValueENS0_7ChannelEt
 9862              	.LVL791:
1020:src/main.cpp  ****             System::Delay(140);
 9863              		.loc 6 1020 13 is_stmt 1 view .LVU3007
1020:src/main.cpp  ****             System::Delay(140);
 9864              		.loc 6 1020 25 is_stmt 0 view .LVU3008
 9865 0f56 0023     		movs	r3, #0
1021:src/main.cpp  ****         }
 9866              		.loc 6 1021 26 view .LVU3009
 9867 0f58 8C20     		movs	r0, #140
ARM GAS  /tmp/claude-502/ccZj3JyB.s 			page 253


1020:src/main.cpp  ****             System::Delay(140);
 9868              		.loc 6 1020 25 view .LVU3010
 9869 0f5a 3360     		str	r3, [r6]	@ float
1021:src/main.cpp  ****         }
 9870              		.loc 6 1021 13 is_stmt 1 view .LVU3011
1021:src/main.cpp  ****         }
 9871              		.loc 6 1021 26 is_stmt 0 view .LVU3012
 9872 0f5c FFF7FEFF 		bl	_ZN5daisy6System5DelayEm
 9873              	.LVL792:
1013:src/main.cpp  ****             hw.dac.WriteValue(DacHandle::Channel::ONE, 4095);
 9874              		.loc 6 1013 9 is_stmt 1 view .LVU3013
1013:src/main.cpp  ****             hw.dac.WriteValue(DacHandle::Channel::ONE, 4095);
 9875              		.loc 6 1013 26 view .LVU3014
 9876 0f60 AC42     		cmp	r4, r5
 9877 0f62 DBDA     		bge	.L412
 9878              	.LVL793:
 9879              	.L413:
1013:src/main.cpp  ****             hw.dac.WriteValue(DacHandle::Channel::ONE, 4095);
 9880              		.loc 6 1013 26 is_stmt 0 view .LVU3015
 9881              	.LBE1301:
 9882              	.LBE1300:
1057:src/main.cpp  ****             }
 9883              		.loc 6 1057 17 is_stmt 1 view .LVU3016
1057:src/main.cpp  ****             }
 9884              		.loc 6 1057 49 is_stmt 0 view .LVU3017
 9885 0f64 FFF7FEFF 		bl	_ZN5daisy6System6GetNowEv
 9886              	.LVL794:
1057:src/main.cpp  ****             }
 9887              		.loc 6 1057 33 view .LVU3018
 9888 0f68 00F5FA63 		add	r3, r0, #2000
 9889 0f6c 0C93     		str	r3, [sp, #48]
 9890              	.LVL795:
1051:src/main.cpp  ****             if((int32_t)(now - fsr_next_switch) >= 0){
 9891              		.loc 6 1051 27 view .LVU3019
 9892 0f6e 069B     		ldr	r3, [sp, #24]
 9893              	.LVL796:
1051:src/main.cpp  ****             if((int32_t)(now - fsr_next_switch) >= 0){
 9894              		.loc 6 1051 27 view .LVU3020
 9895 0f70 0893     		str	r3, [sp, #32]
 9896 0f72 FFF74EB9 		b	.L411
 9897              	.LVL797:
 9898              	.L656:
1051:src/main.cpp  ****             if((int32_t)(now - fsr_next_switch) >= 0){
 9899              		.loc 6 1051 27 view .LVU3021
 9900              	.LBE1302:
 9901              	.LBE1600:
 9902              	.LBB1601:
 9903              	.LBB1367:
1178:src/main.cpp  ****             float cutoff   = clampf(track_freq * VOICE.cutoff_mult * oct_mult, 20.0f, 18000.0f);
 9904              		.loc 6 1178 40 discriminator 2 view .LVU3022
 9905 0f76 8BEE080A 		vdiv.f32	s0, s22, s16
 9906 0f7a FFF7FEFF 		bl	powf
 9907              	.LVL798:
1177:src/main.cpp  ****                 : VOICE.freq_low * powf(freq / VOICE.freq_low, VOICE.keytrack);
 9908              		.loc 6 1177 17 discriminator 2 view .LVU3023
 9909 0f7e 68EE007A 		vmul.f32	s15, s16, s0
 9910 0f82 F4E5     		b	.L455
ARM GAS  /tmp/claude-502/ccZj3JyB.s 			page 254


 9911              	.LVL799:
 9912              	.L653:
1177:src/main.cpp  ****                 : VOICE.freq_low * powf(freq / VOICE.freq_low, VOICE.keytrack);
 9913              		.loc 6 1177 17 discriminator 2 view .LVU3024
 9914              	.LBE1367:
 9915              	.LBE1601:
1081:src/main.cpp  ****                 capture_baseline(baseline);
 9916              		.loc 6 1081 17 is_stmt 1 view .LVU3025
1081:src/main.cpp  ****                 capture_baseline(baseline);
 9917              		.loc 6 1081 50 is_stmt 0 view .LVU3026
 9918 0f84 0023     		movs	r3, #0
1082:src/main.cpp  ****                 hw.PrintLine("[rebaseline]");
 9919              		.loc 6 1082 33 view .LVU3027
 9920 0f86 0998     		ldr	r0, [sp, #36]
1081:src/main.cpp  ****                 capture_baseline(baseline);
 9921              		.loc 6 1081 50 view .LVU3028
 9922 0f88 88F81430 		strb	r3, [r8, #20]
1081:src/main.cpp  ****                 capture_baseline(baseline);
 9923              		.loc 6 1081 33 view .LVU3029
 9924 0f8c 88F80030 		strb	r3, [r8]
1082:src/main.cpp  ****                 hw.PrintLine("[rebaseline]");
 9925              		.loc 6 1082 17 is_stmt 1 view .LVU3030
1082:src/main.cpp  ****                 hw.PrintLine("[rebaseline]");
 9926              		.loc 6 1082 33 is_stmt 0 view .LVU3031
 9927 0f90 FFF7FEFF 		bl	_Z16capture_baselinePt
 9928              	.LVL800:
1083:src/main.cpp  ****                 idle_since=System::GetNow();
 9929              		.loc 6 1083 17 is_stmt 1 view .LVU3032
 9930              	.LBB1602:
 9931              	.LBI1602:
 126:/Users/reza.kalfane/Workspaces/Daisy/DaisyExamples/libDaisy/src/daisy_seed.h ****     {
 9932              		.loc 1 126 17 view .LVU3033
 9933              	.LBB1603:
 128:/Users/reza.kalfane/Workspaces/Daisy/DaisyExamples/libDaisy/src/daisy_seed.h ****     }
 9934              		.loc 1 128 23 is_stmt 0 view .LVU3034
 9935 0f94 8548     		ldr	r0, .L675+28
 9936 0f96 FFF7FEFF 		bl	_ZN5daisy6LoggerILNS_17LoggerDestinationE1EE9PrintLineEPKcz
 9937              	.LVL801:
 128:/Users/reza.kalfane/Workspaces/Daisy/DaisyExamples/libDaisy/src/daisy_seed.h ****     }
 9938              		.loc 1 128 23 view .LVU3035
 9939              	.LBE1603:
 9940              	.LBE1602:
1084:src/main.cpp  ****             }
 9941              		.loc 6 1084 17 is_stmt 1 view .LVU3036
1084:src/main.cpp  ****             }
 9942              		.loc 6 1084 42 is_stmt 0 view .LVU3037
 9943 0f9a FFF7FEFF 		bl	_ZN5daisy6System6GetNowEv
 9944              	.LVL802:
 9945 0f9e 0690     		str	r0, [sp, #24]
 9946              	.LVL803:
1084:src/main.cpp  ****             }
 9947              		.loc 6 1084 42 view .LVU3038
 9948 0fa0 30E4     		b	.L419
 9949              	.LVL804:
 9950              	.L445:
 9951              	.LBB1604:
 9952              	.LBB1548:
ARM GAS  /tmp/claude-502/ccZj3JyB.s 			page 255


 9953              	.LBB1545:
 943:src/main.cpp  ****         hw.dac.WriteValue(DacHandle::Channel::TWO, 0);
 9954              		.loc 6 943 26 view .LVU3039
 9955 0fa2 0022     		movs	r2, #0
 9956              	.LVL805:
 943:src/main.cpp  ****         hw.dac.WriteValue(DacHandle::Channel::TWO, 0);
 9957              		.loc 6 943 26 view .LVU3040
 9958 0fa4 7E48     		ldr	r0, .L675+16
 9959 0fa6 089E     		ldr	r6, [sp, #32]
 9960              	.LVL806:
 943:src/main.cpp  ****         hw.dac.WriteValue(DacHandle::Channel::TWO, 0);
 9961              		.loc 6 943 26 view .LVU3041
 9962 0fa8 1CEE105A 		vmov	r5, s24	@ int
 9963 0fac 1146     		mov	r1, r2
 9964              	.LVL807:
 943:src/main.cpp  ****         hw.dac.WriteValue(DacHandle::Channel::TWO, 0);
 9965              		.loc 6 943 26 view .LVU3042
 9966 0fae 0D9F     		ldr	r7, [sp, #52]
 9967              	.LVL808:
 943:src/main.cpp  ****         hw.dac.WriteValue(DacHandle::Channel::TWO, 0);
 9968              		.loc 6 943 9 is_stmt 1 view .LVU3043
 943:src/main.cpp  ****         hw.dac.WriteValue(DacHandle::Channel::TWO, 0);
 9969              		.loc 6 943 26 is_stmt 0 view .LVU3044
 9970 0fb0 FFF7FEFF 		bl	_ZN5daisy9DacHandle10WriteValueENS0_7ChannelEt
 9971              	.LVL809:
 944:src/main.cpp  ****         g_led3_duty = 0.0f;
 9972              		.loc 6 944 9 is_stmt 1 view .LVU3045
 944:src/main.cpp  ****         g_led3_duty = 0.0f;
 9973              		.loc 6 944 26 is_stmt 0 view .LVU3046
 9974 0fb4 0121     		movs	r1, #1
 9975 0fb6 0022     		movs	r2, #0
 9976 0fb8 7948     		ldr	r0, .L675+16
 9977 0fba FFF7FEFF 		bl	_ZN5daisy9DacHandle10WriteValueENS0_7ChannelEt
 9978              	.LVL810:
 945:src/main.cpp  ****     };
 9979              		.loc 6 945 9 is_stmt 1 view .LVU3047
 945:src/main.cpp  ****     };
 9980              		.loc 6 945 21 is_stmt 0 view .LVU3048
 9981 0fbe 0023     		movs	r3, #0
 9982 0fc0 784A     		ldr	r2, .L675+20
 9983 0fc2 1360     		str	r3, [r2]	@ float
 9984              	.LVL811:
 945:src/main.cpp  ****     };
 9985              		.loc 6 945 21 view .LVU3049
 9986              	.LBE1545:
 9987              	.LBE1548:
 9988              	.LBE1604:
1093:src/main.cpp  ****             idle_since    = System::GetNow();
 9989              		.loc 6 1093 13 is_stmt 1 view .LVU3050
1093:src/main.cpp  ****             idle_since    = System::GetNow();
 9990              		.loc 6 1093 43 is_stmt 0 view .LVU3051
 9991 0fc4 FFF7FEFF 		bl	_ZN5daisy6System6GetNowEv
 9992              	.LVL812:
 9993 0fc8 0890     		str	r0, [sp, #32]
 9994              	.LVL813:
1094:src/main.cpp  ****             hw.PrintLine("[fsr recal] fsr_max=%d", (int)fsr_max);
 9995              		.loc 6 1094 13 is_stmt 1 view .LVU3052
ARM GAS  /tmp/claude-502/ccZj3JyB.s 			page 256


1094:src/main.cpp  ****             hw.PrintLine("[fsr recal] fsr_max=%d", (int)fsr_max);
 9996              		.loc 6 1094 43 is_stmt 0 view .LVU3053
 9997 0fca FFF7FEFF 		bl	_ZN5daisy6System6GetNowEv
 9998              	.LVL814:
 9999              	.LBB1605:
 10000              	.LBB1606:
 128:/Users/reza.kalfane/Workspaces/Daisy/DaisyExamples/libDaisy/src/daisy_seed.h ****     }
 10001              		.loc 1 128 23 view .LVU3054
 10002 0fce 0B99     		ldr	r1, [sp, #44]
 10003              	.LBE1606:
 10004              	.LBE1605:
1094:src/main.cpp  ****             hw.PrintLine("[fsr recal] fsr_max=%d", (int)fsr_max);
 10005              		.loc 6 1094 43 view .LVU3055
 10006 0fd0 0690     		str	r0, [sp, #24]
 10007              	.LVL815:
1095:src/main.cpp  ****         }
 10008              		.loc 6 1095 13 is_stmt 1 view .LVU3056
 10009              	.LBB1608:
 10010              	.LBI1605:
 126:/Users/reza.kalfane/Workspaces/Daisy/DaisyExamples/libDaisy/src/daisy_seed.h ****     {
 10011              		.loc 1 126 17 view .LVU3057
 10012              	.LBB1607:
 128:/Users/reza.kalfane/Workspaces/Daisy/DaisyExamples/libDaisy/src/daisy_seed.h ****     }
 10013              		.loc 1 128 23 is_stmt 0 view .LVU3058
 10014 0fd2 7748     		ldr	r0, .L675+32
 10015              	.LVL816:
 128:/Users/reza.kalfane/Workspaces/Daisy/DaisyExamples/libDaisy/src/daisy_seed.h ****     }
 10016              		.loc 1 128 23 view .LVU3059
 10017 0fd4 FFF7FEFF 		bl	_ZN5daisy6LoggerILNS_17LoggerDestinationE1EE9PrintLineEPKcz
 10018              	.LVL817:
 129:/Users/reza.kalfane/Workspaces/Daisy/DaisyExamples/libDaisy/src/daisy_seed.h **** 
 10019              		.loc 1 129 5 view .LVU3060
 10020 0fd8 FFF784B9 		b	.L418
 10021              	.LVL818:
 10022              	.L563:
 129:/Users/reza.kalfane/Workspaces/Daisy/DaisyExamples/libDaisy/src/daisy_seed.h **** 
 10023              		.loc 1 129 5 view .LVU3061
 10024              	.LBE1607:
 10025              	.LBE1608:
 10026              	.LBB1609:
 10027              	.LBB1448:
 10028              	.LBB1440:
 10029              	.LBB1381:
 10030 0fdc B7EE086A 		vmov.f32	s12, #1.5e+0
 10031 0fe0 FFF7EAB9 		b	.L493
 10032              	.LVL819:
 10033              	.L557:
 129:/Users/reza.kalfane/Workspaces/Daisy/DaisyExamples/libDaisy/src/daisy_seed.h **** 
 10034              		.loc 1 129 5 view .LVU3062
 10035              	.LBE1381:
 10036              	.LBE1440:
 10037              	.LBE1448:
 10038              	.LBE1609:
 10039              	.LBB1610:
 10040              	.LBB1368:
 10041              	.LBB1361:
 10042              	.LBB1337:
ARM GAS  /tmp/claude-502/ccZj3JyB.s 			page 257


 10043 0fe4 9FED736A 		vldr.32	s12, .L675+36
 10044 0fe8 00E6     		b	.L457
 10045              	.LVL820:
 10046              	.L658:
 129:/Users/reza.kalfane/Workspaces/Daisy/DaisyExamples/libDaisy/src/daisy_seed.h **** 
 10047              		.loc 1 129 5 view .LVU3063
 10048              	.LBE1337:
 10049              	.LBE1361:
 10050              	.LBE1368:
 10051              	.LBE1610:
 10052              	.LBB1611:
 10053              	.LBB1578:
 10054              	.LBB1567:
 471:src/main.cpp  **** }
 10055              		.loc 6 471 24 view .LVU3064
 10056 0fea B4EEC7CA 		vcmpe.f32	s24, s14
 10057 0fee F1EE10FA 		vmrs	APSR_nzcv, FPSCR
 10058 0ff2 27DC     		bgt	.L582
 10059 0ff4 BFEE00BA 		vmov.f32	s22, #-1.0e+0
 10060              	.LVL821:
 471:src/main.cpp  **** }
 10061              		.loc 6 471 24 view .LVU3065
 10062 0ff8 DFED6F6A 		vldr.32	s13, .L675+40
 10063 0ffc F0EE478A 		vmov.f32	s17, s14
 10064              	.LVL822:
 10065              	.L536:
 471:src/main.cpp  **** }
 10066              		.loc 6 471 24 view .LVU3066
 10067              	.LBE1567:
 10068              	.LBE1578:
1218:src/main.cpp  ****             float l1_raw   = 1.0f - 2.0f * p01;                 if(l1_raw < 0) l1_raw = 0;
 10069              		.loc 6 1218 19 view .LVU3067
 10070 1000 B5EE007A 		vmov.f32	s14, #2.5e-1
 10071 1004 F6EE087A 		vmov.f32	s15, #7.5e-1
 10072 1008 ECEE077A 		vfma.f32	s15, s24, s14
 10073 100c F0EE67CA 		vmov.f32	s25, s15
 10074              	.LVL823:
1218:src/main.cpp  ****             float l1_raw   = 1.0f - 2.0f * p01;                 if(l1_raw < 0) l1_raw = 0;
 10075              		.loc 6 1218 19 view .LVU3068
 10076 1010 1CE7     		b	.L465
 10077              	.LVL824:
 10078              	.L462:
1217:src/main.cpp  ****             float prs_mult = 0.75f + 0.25f * pr01;
 10079              		.loc 6 1217 13 is_stmt 1 view .LVU3069
 10080              	.LBB1579:
 470:src/main.cpp  ****     return v<lo?lo:v>hi?hi:v;
 10081              		.loc 6 470 21 view .LVU3070
 10082              	.LBB1568:
 471:src/main.cpp  **** }
 10083              		.loc 6 471 5 view .LVU3071
 471:src/main.cpp  **** }
 10084              		.loc 6 471 16 is_stmt 0 view .LVU3072
 10085 1012 F1EE10FA 		vmrs	APSR_nzcv, FPSCR
 10086 1016 1ED5     		bpl	.L664
 10087              	.LBE1568:
 10088              	.LBE1579:
1220:src/main.cpp  ****             float l2_raw   = 1.0f - 2.0f * fabsf(p01 - 0.5f);   if(l2_raw < 0) l2_raw = 0;
ARM GAS  /tmp/claude-502/ccZj3JyB.s 			page 258


 10089              		.loc 6 1220 19 view .LVU3073
 10090 1018 B0EE47BA 		vmov.f32	s22, s14
 10091              	.LVL825:
1219:src/main.cpp  ****             float l3_raw   = 2.0f * p01 - 1.0f;                 if(l3_raw < 0) l3_raw = 0;
 10092              		.loc 6 1219 87 view .LVU3074
 10093 101c DFED668A 		vldr.32	s17, .L675+40
 10094              	.LVL826:
1219:src/main.cpp  ****             float l3_raw   = 2.0f * p01 - 1.0f;                 if(l3_raw < 0) l3_raw = 0;
 10095              		.loc 6 1219 87 view .LVU3075
 10096 1020 2BE6     		b	.L527
 10097              	.LVL827:
 10098              	.L448:
1219:src/main.cpp  ****             float l3_raw   = 2.0f * p01 - 1.0f;                 if(l3_raw < 0) l3_raw = 0;
 10099              		.loc 6 1219 87 view .LVU3076
 10100              	.LBE1611:
1103:src/main.cpp  **** 
 10101              		.loc 6 1103 54 view .LVU3077
 10102 1022 FFF7FEFF 		bl	_ZN5daisy6System6GetNowEv
 10103              	.LVL828:
1105:src/main.cpp  ****         {
 10104              		.loc 6 1105 9 is_stmt 1 view .LVU3078
 10105 1026 F9E4     		b	.L537
 10106              	.LVL829:
 10107              	.L624:
 10108              	.LBB1612:
 10109              	.LBB1580:
 10110              	.LBB1569:
 471:src/main.cpp  **** }
 10111              		.loc 6 471 24 is_stmt 0 view .LVU3079
 10112 1028 B4EEC7CA 		vcmpe.f32	s24, s14
 10113              	.LBE1569:
 10114              	.LBE1580:
1221:src/main.cpp  ****             led1_target    = sqrtf(sqrtf(l2_raw)) * prs_mult;  // middle tent
 10115              		.loc 6 1221 54 view .LVU3080
 10116 102c F6EE007A 		vmov.f32	s15, #5.0e-1
 10117              	.LVL830:
1219:src/main.cpp  ****             float l3_raw   = 2.0f * p01 - 1.0f;                 if(l3_raw < 0) l3_raw = 0;
 10118              		.loc 6 1219 19 view .LVU3081
 10119 1030 B0EE006A 		vmov.f32	s12, #2.0e+0
 10120              	.LBB1581:
 10121              	.LBB1570:
 471:src/main.cpp  **** }
 10122              		.loc 6 471 24 view .LVU3082
 10123 1034 F1EE10FA 		vmrs	APSR_nzcv, FPSCR
 10124              	.LBE1570:
 10125              	.LBE1581:
1220:src/main.cpp  ****             float l2_raw   = 1.0f - 2.0f * fabsf(p01 - 0.5f);   if(l2_raw < 0) l2_raw = 0;
 10126              		.loc 6 1220 19 view .LVU3083
 10127 1038 BFEE00BA 		vmov.f32	s22, #-1.0e+0
 10128              	.LVL831:
 10129              	.LBB1582:
 10130              	.LBB1571:
 471:src/main.cpp  **** }
 10131              		.loc 6 471 24 view .LVU3084
 10132 103c 20DD     		ble	.L625
 10133              	.LBE1571:
 10134              	.LBE1582:
ARM GAS  /tmp/claude-502/ccZj3JyB.s 			page 259


1221:src/main.cpp  ****             led1_target    = sqrtf(sqrtf(l2_raw)) * prs_mult;  // middle tent
 10135              		.loc 6 1221 19 view .LVU3085
 10136 103e F0EE47CA 		vmov.f32	s25, s14
 10137              	.LVL832:
1221:src/main.cpp  ****             led1_target    = sqrtf(sqrtf(l2_raw)) * prs_mult;  // middle tent
 10138              		.loc 6 1221 19 view .LVU3086
 10139 1042 F5E6     		b	.L641
 10140              	.LVL833:
 10141              	.L582:
1219:src/main.cpp  ****             float l3_raw   = 2.0f * p01 - 1.0f;                 if(l3_raw < 0) l3_raw = 0;
 10142              		.loc 6 1219 19 view .LVU3087
 10143 1044 F0EE478A 		vmov.f32	s17, s14
 10144              	.LVL834:
1220:src/main.cpp  ****             float l2_raw   = 1.0f - 2.0f * fabsf(p01 - 0.5f);   if(l2_raw < 0) l2_raw = 0;
 10145              		.loc 6 1220 87 view .LVU3088
 10146 1048 9FED5BBA 		vldr.32	s22, .L675+40
 10147              	.LVL835:
 10148              	.L535:
1221:src/main.cpp  ****             led1_target    = sqrtf(sqrtf(l2_raw)) * prs_mult;  // middle tent
 10149              		.loc 6 1221 13 is_stmt 1 view .LVU3089
1221:src/main.cpp  ****             led1_target    = sqrtf(sqrtf(l2_raw)) * prs_mult;  // middle tent
 10150              		.loc 6 1221 65 view .LVU3090
1220:src/main.cpp  ****             float l2_raw   = 1.0f - 2.0f * fabsf(p01 - 0.5f);   if(l2_raw < 0) l2_raw = 0;
 10151              		.loc 6 1220 87 is_stmt 0 view .LVU3091
 10152 104c F7EE00CA 		vmov.f32	s25, #1.0e+0
 10153              	.LVL836:
1220:src/main.cpp  ****             float l2_raw   = 1.0f - 2.0f * fabsf(p01 - 0.5f);   if(l2_raw < 0) l2_raw = 0;
 10154              		.loc 6 1220 87 view .LVU3092
 10155 1050 DFED596A 		vldr.32	s13, .L675+40
 10156 1054 15E6     		b	.L472
 10157              	.LVL837:
 10158              	.L664:
 10159              	.LBB1583:
 10160              	.LBB1572:
 471:src/main.cpp  **** }
 10161              		.loc 6 471 24 view .LVU3093
 10162 1056 B4EEC7CA 		vcmpe.f32	s24, s14
 10163 105a F1EE10FA 		vmrs	APSR_nzcv, FPSCR
 10164 105e 0ADC     		bgt	.L583
 10165 1060 FFEE008A 		vmov.f32	s17, #-1.0e+0
 10166              	.LVL838:
 471:src/main.cpp  **** }
 10167              		.loc 6 471 24 view .LVU3094
 10168 1064 DFED546A 		vldr.32	s13, .L675+40
 10169 1068 B0EE47BA 		vmov.f32	s22, s14
 10170              	.LVL839:
 471:src/main.cpp  **** }
 10171              		.loc 6 471 24 view .LVU3095
 10172 106c C8E7     		b	.L536
 10173              	.LVL840:
 10174              	.L648:
 471:src/main.cpp  **** }
 10175              		.loc 6 471 24 view .LVU3096
 10176              	.LBE1572:
 10177              	.LBE1583:
 10178              	.LBE1612:
1103:src/main.cpp  **** 
ARM GAS  /tmp/claude-502/ccZj3JyB.s 			page 260


 10179              		.loc 6 1103 54 view .LVU3097
 10180 106e FFF7FEFF 		bl	_ZN5daisy6System6GetNowEv
 10181              	.LVL841:
1105:src/main.cpp  ****         {
 10182              		.loc 6 1105 9 is_stmt 1 view .LVU3098
 10183 1072 FFF745B9 		b	.L530
 10184              	.LVL842:
 10185              	.L583:
 10186              	.LBB1613:
 10187              	.LBB1584:
 10188              	.LBB1573:
 471:src/main.cpp  **** }
 10189              		.loc 6 471 24 is_stmt 0 view .LVU3099
 10190 1076 B0EE47BA 		vmov.f32	s22, s14
 10191              	.LVL843:
 471:src/main.cpp  **** }
 10192              		.loc 6 471 24 view .LVU3100
 10193              	.LBE1573:
 10194              	.LBE1584:
1219:src/main.cpp  ****             float l3_raw   = 2.0f * p01 - 1.0f;                 if(l3_raw < 0) l3_raw = 0;
 10195              		.loc 6 1219 87 view .LVU3101
 10196 107a DFED4F8A 		vldr.32	s17, .L675+40
 10197              	.LVL844:
1219:src/main.cpp  ****             float l3_raw   = 2.0f * p01 - 1.0f;                 if(l3_raw < 0) l3_raw = 0;
 10198              		.loc 6 1219 87 view .LVU3102
 10199 107e E5E7     		b	.L535
 10200              	.LVL845:
 10201              	.L625:
1221:src/main.cpp  ****             led1_target    = sqrtf(sqrtf(l2_raw)) * prs_mult;  // middle tent
 10202              		.loc 6 1221 54 view .LVU3103
 10203 1080 7BEEE77A 		vsub.f32	s15, s23, s15
1219:src/main.cpp  ****             float l3_raw   = 2.0f * p01 - 1.0f;                 if(l3_raw < 0) l3_raw = 0;
 10204              		.loc 6 1219 19 view .LVU3104
 10205 1084 F0EE478A 		vmov.f32	s17, s14
 10206              	.LVL846:
1220:src/main.cpp  ****             float l2_raw   = 1.0f - 2.0f * fabsf(p01 - 0.5f);   if(l2_raw < 0) l2_raw = 0;
 10207              		.loc 6 1220 19 view .LVU3105
 10208 1088 ABEE86BA 		vfma.f32	s22, s23, s12
1221:src/main.cpp  ****             led1_target    = sqrtf(sqrtf(l2_raw)) * prs_mult;  // middle tent
 10209              		.loc 6 1221 49 view .LVU3106
 10210 108c F0EEE77A 		vabs.f32	s15, s15
1219:src/main.cpp  ****             float l3_raw   = 2.0f * p01 - 1.0f;                 if(l3_raw < 0) l3_raw = 0;
 10211              		.loc 6 1219 19 view .LVU3107
 10212 1090 EBEEC68A 		vfms.f32	s17, s23, s12
1221:src/main.cpp  ****             led1_target    = sqrtf(sqrtf(l2_raw)) * prs_mult;  // middle tent
 10213              		.loc 6 1221 19 view .LVU3108
 10214 1094 A7EEC67A 		vfms.f32	s14, s15, s12
 10215              	.LVL847:
1221:src/main.cpp  ****             led1_target    = sqrtf(sqrtf(l2_raw)) * prs_mult;  // middle tent
 10216              		.loc 6 1221 19 view .LVU3109
 10217 1098 F0EE476A 		vmov.f32	s13, s14
 10218              	.LVL848:
1221:src/main.cpp  ****             led1_target    = sqrtf(sqrtf(l2_raw)) * prs_mult;  // middle tent
 10219              		.loc 6 1221 19 view .LVU3110
 10220 109c B0E7     		b	.L536
 10221              	.LVL849:
 10222              	.L541:
ARM GAS  /tmp/claude-502/ccZj3JyB.s 			page 261


1221:src/main.cpp  ****             led1_target    = sqrtf(sqrtf(l2_raw)) * prs_mult;  // middle tent
 10223              		.loc 6 1221 19 view .LVU3111
 10224              	.LBE1613:
 10225              	.LBB1614:
 10226              	.LBB1303:
1051:src/main.cpp  ****             if((int32_t)(now - fsr_next_switch) >= 0){
 10227              		.loc 6 1051 27 view .LVU3112
 10228 109e 069B     		ldr	r3, [sp, #24]
 10229 10a0 0893     		str	r3, [sp, #32]
 10230 10a2 FFF7B6B8 		b	.L411
 10231              	.LVL850:
 10232              	.L663:
1051:src/main.cpp  ****             if((int32_t)(now - fsr_next_switch) >= 0){
 10233              		.loc 6 1051 27 view .LVU3113
 10234              	.LBE1303:
 10235              	.LBE1614:
 10236              	.LBB1615:
1222:src/main.cpp  ****             led2_target    = sqrtf(sqrtf(l1_raw)) * prs_mult;  // pos 0 ramp
 10237              		.loc 6 1222 13 is_stmt 1 view .LVU3114
 10238 10a6 F5EE406A 		vcmp.f32	s13, #0
 10239 10aa F1EE10FA 		vmrs	APSR_nzcv, FPSCR
 10240 10ae 7FF5E8AD 		bpl	.L472
1222:src/main.cpp  ****             led2_target    = sqrtf(sqrtf(l1_raw)) * prs_mult;  // pos 0 ramp
 10241              		.loc 6 1222 35 is_stmt 0 view .LVU3115
 10242 10b2 B0EE660A 		vmov.f32	s0, s13
 10243 10b6 FFF7FEFF 		bl	sqrtf
 10244              	.LVL851:
1222:src/main.cpp  ****             led2_target    = sqrtf(sqrtf(l1_raw)) * prs_mult;  // pos 0 ramp
 10245              		.loc 6 1222 35 view .LVU3116
 10246 10ba E4E5     		b	.L475
 10247              	.LVL852:
 10248              	.L407:
1222:src/main.cpp  ****             led2_target    = sqrtf(sqrtf(l1_raw)) * prs_mult;  // pos 0 ramp
 10249              		.loc 6 1222 35 view .LVU3117
 10250              	.LBE1615:
 10251              	.LBE1620:
 980:src/main.cpp  ****     hw.PrintLine("Hold FSR pressed 5s to change voice (then every 2s)");
 10252              		.loc 6 980 9 is_stmt 1 view .LVU3118
 10253              	.LBB1621:
 10254              	.LBI1621:
 126:/Users/reza.kalfane/Workspaces/Daisy/DaisyExamples/libDaisy/src/daisy_seed.h ****     {
 10255              		.loc 1 126 17 view .LVU3119
 10256              	.LBB1622:
 128:/Users/reza.kalfane/Workspaces/Daisy/DaisyExamples/libDaisy/src/daisy_seed.h ****     }
 10257              		.loc 1 128 23 is_stmt 0 view .LVU3120
 10258 10bc 3F48     		ldr	r0, .L675+44
 10259 10be FFF7FEFF 		bl	_ZN5daisy6LoggerILNS_17LoggerDestinationE1EE9PrintLineEPKcz
 10260              	.LVL853:
 129:/Users/reza.kalfane/Workspaces/Daisy/DaisyExamples/libDaisy/src/daisy_seed.h **** 
 10261              		.loc 1 129 5 view .LVU3121
 10262 10c2 FFF76AB8 		b	.L408
 10263              	.LVL854:
 10264              	.L616:
 129:/Users/reza.kalfane/Workspaces/Daisy/DaisyExamples/libDaisy/src/daisy_seed.h **** 
 10265              		.loc 1 129 5 view .LVU3122
 10266              	.LBE1622:
 10267              	.LBE1621:
ARM GAS  /tmp/claude-502/ccZj3JyB.s 			page 262


 838:src/main.cpp  ****         capture_baseline(baseline);
 10268              		.loc 6 838 9 is_stmt 1 view .LVU3123
 839:src/main.cpp  ****     }
 10269              		.loc 6 839 25 is_stmt 0 view .LVU3124
 10270 10c6 1C46     		mov	r4, r3
 838:src/main.cpp  ****         capture_baseline(baseline);
 10271              		.loc 6 838 22 view .LVU3125
 10272 10c8 4FF49670 		mov	r0, #300
 839:src/main.cpp  ****     }
 10273              		.loc 6 839 25 view .LVU3126
 10274 10cc 0993     		str	r3, [sp, #36]
 838:src/main.cpp  ****         capture_baseline(baseline);
 10275              		.loc 6 838 22 view .LVU3127
 10276 10ce FFF7FEFF 		bl	_ZN5daisy6System5DelayEm
 10277              	.LVL855:
 839:src/main.cpp  ****     }
 10278              		.loc 6 839 9 is_stmt 1 view .LVU3128
 839:src/main.cpp  ****     }
 10279              		.loc 6 839 25 is_stmt 0 view .LVU3129
 10280 10d2 2046     		mov	r0, r4
 10281 10d4 FFF7FEFF 		bl	_Z16capture_baselinePt
 10282              	.LVL856:
 10283 10d8 FEF7BBBF 		b	.L403
 10284              	.LVL857:
 10285              	.L539:
 864:src/main.cpp  ****     float              fsr_range_inv = 1.0f / (float)(fsr_max - FSR_MIN);
 10286              		.loc 6 864 24 view .LVU3130
 10287 10dc 4DF2D863 		movw	r3, #55000
 865:src/main.cpp  **** 
 10288              		.loc 6 865 24 view .LVU3131
 10289 10e0 DFED37AA 		vldr.32	s21, .L675+48
 864:src/main.cpp  ****     float              fsr_range_inv = 1.0f / (float)(fsr_max - FSR_MIN);
 10290              		.loc 6 864 24 view .LVU3132
 10291 10e4 0B93     		str	r3, [sp, #44]
 10292 10e6 FFF70FB8 		b	.L406
 10293              	.LVL858:
 10294              	.L654:
 10295              	.LBB1623:
 10296              	.LBB1616:
 10297              	.LBB1549:
 10298              	.LBB1546:
 10299              	.LBB1543:
 913:src/main.cpp  ****             float led2   = sqrtf(sqrtf(l1_raw));              // pos 0  (DAC2)
 10300              		.loc 6 913 33 view .LVU3133
 10301 10ea B0EE470A 		vmov.f32	s0, s14
 10302              	.LVL859:
 913:src/main.cpp  ****             float led2   = sqrtf(sqrtf(l1_raw));              // pos 0  (DAC2)
 10303              		.loc 6 913 33 view .LVU3134
 10304 10ee FFF7FEFF 		bl	sqrtf
 10305              	.LVL860:
 913:src/main.cpp  ****             float led2   = sqrtf(sqrtf(l1_raw));              // pos 0  (DAC2)
 10306              		.loc 6 913 33 view .LVU3135
 10307 10f2 FFF7EDBB 		b	.L427
 10308              	.L618:
 913:src/main.cpp  ****             float led2   = sqrtf(sqrtf(l1_raw));              // pos 0  (DAC2)
 10309              		.loc 6 913 33 view .LVU3136
 10310 10f6 FFF7FEFF 		bl	sqrtf
ARM GAS  /tmp/claude-502/ccZj3JyB.s 			page 263


 10311              	.LVL861:
 10312 10fa B0EE40BA 		vmov.f32	s22, s0
 10313 10fe FFF7EFBB 		b	.L430
 10314              	.L619:
 914:src/main.cpp  ****             float led3   = sqrtf(sqrtf(l3_raw)) * LED3_INTENSITY; // pos 1 (PWM A0)
 10315              		.loc 6 914 33 view .LVU3137
 10316 1102 B0EE680A 		vmov.f32	s0, s17
 10317 1106 FFF7FEFF 		bl	sqrtf
 10318              	.LVL862:
 10319 110a FFF7F1BB 		b	.L433
 10320              	.L620:
 914:src/main.cpp  ****             float led3   = sqrtf(sqrtf(l3_raw)) * LED3_INTENSITY; // pos 1 (PWM A0)
 10321              		.loc 6 914 33 view .LVU3138
 10322 110e FFF7FEFF 		bl	sqrtf
 10323              	.LVL863:
 10324 1112 F0EE408A 		vmov.f32	s17, s0
 10325              	.LVL864:
 914:src/main.cpp  ****             float led3   = sqrtf(sqrtf(l3_raw)) * LED3_INTENSITY; // pos 1 (PWM A0)
 10326              		.loc 6 914 33 view .LVU3139
 10327 1116 FFF7F3BB 		b	.L436
 10328              	.L621:
 915:src/main.cpp  ****             hw.dac.WriteValue(DacHandle::Channel::ONE, (uint16_t)(led1 * 4095.0f));
 10329              		.loc 6 915 33 view .LVU3140
 10330 111a B0EE480A 		vmov.f32	s0, s16
 10331 111e FFF7FEFF 		bl	sqrtf
 10332              	.LVL865:
 10333 1122 FFF7F5BB 		b	.L439
 10334              	.L622:
 915:src/main.cpp  ****             hw.dac.WriteValue(DacHandle::Channel::ONE, (uint16_t)(led1 * 4095.0f));
 10335              		.loc 6 915 33 view .LVU3141
 10336 1126 FFF7FEFF 		bl	sqrtf
 10337              	.LVL866:
 10338 112a B0EE407A 		vmov.f32	s14, s0
 10339 112e FFF7F7BB 		b	.L442
 10340              	.LVL867:
 10341              	.L633:
 915:src/main.cpp  ****             hw.dac.WriteValue(DacHandle::Channel::ONE, (uint16_t)(led1 * 4095.0f));
 10342              		.loc 6 915 33 view .LVU3142
 10343              	.LBE1543:
 10344              	.LBE1546:
 10345              	.LBE1549:
 10346              	.LBE1616:
 10347              	.LBB1617:
 10348              	.LBB1449:
 10349              	.LBB1441:
 10350              	.LBB1405:
1163:src/main.cpp  ****             };
 10351              		.loc 6 1163 41 view .LVU3143
 10352 1132 E6EE845A 		vfma.f32	s11, s13, s8
 10353              	.LBE1405:
 10354              	.LBE1441:
1274:src/main.cpp  ****             float rm    = smoothstep2(rm_in) * VOICE.ringmod_max;
 10355              		.loc 6 1274 41 view .LVU3144
 10356 1136 DFED233A 		vldr.32	s7, .L675+52
 10357              	.LBB1442:
 10358              	.LBB1406:
1163:src/main.cpp  ****             };
ARM GAS  /tmp/claude-502/ccZj3JyB.s 			page 264


 10359              		.loc 6 1163 25 view .LVU3145
 10360 113a 26EEA67A 		vmul.f32	s14, s13, s13
 10361              	.LBE1406:
 10362              	.LBE1442:
1274:src/main.cpp  ****             float rm    = smoothstep2(rm_in) * VOICE.ringmod_max;
 10363              		.loc 6 1274 33 view .LVU3146
 10364 113e 9FED223A 		vldr.32	s6, .L675+56
1274:src/main.cpp  ****             float rm    = smoothstep2(rm_in) * VOICE.ringmod_max;
 10365              		.loc 6 1274 41 view .LVU3147
 10366 1142 37EEE34A 		vsub.f32	s8, s15, s7
 10367              	.LBB1443:
 10368              	.LBB1407:
1163:src/main.cpp  ****             };
 10369              		.loc 6 1163 27 view .LVU3148
 10370 1146 27EE267A 		vmul.f32	s14, s14, s13
1163:src/main.cpp  ****             };
 10371              		.loc 6 1163 41 view .LVU3149
 10372 114a F0EE654A 		vmov.f32	s9, s11
 10373              	.LBE1407:
 10374              	.LBE1443:
1274:src/main.cpp  ****             float rm    = smoothstep2(rm_in) * VOICE.ringmod_max;
 10375              		.loc 6 1274 33 view .LVU3150
 10376 114e C4EE035A 		vdiv.f32	s11, s8, s6
 10377              	.LBB1444:
 10378              	.LBB1408:
1163:src/main.cpp  ****             };
 10379              		.loc 6 1163 50 view .LVU3151
 10380 1152 A6EEA45A 		vfma.f32	s10, s13, s9
1163:src/main.cpp  ****             };
 10381              		.loc 6 1163 57 view .LVU3152
 10382 1156 27EE057A 		vmul.f32	s14, s14, s10
 10383 115a FFF76BB9 		b	.L498
 10384              	.LVL868:
 10385              	.L631:
1163:src/main.cpp  ****             };
 10386              		.loc 6 1163 57 view .LVU3153
 10387              	.LBE1408:
 10388              	.LBE1444:
 10389              	.LBE1449:
 10390              	.LBE1617:
 10391              	.LBB1618:
1224:src/main.cpp  ****         }
 10392              		.loc 6 1224 35 view .LVU3154
 10393 115e FFF7FEFF 		bl	sqrtf
 10394              	.LVL869:
 10395 1162 F0EE407A 		vmov.f32	s15, s0
 10396 1166 BAE5     		b	.L490
 10397              	.L630:
1224:src/main.cpp  ****         }
 10398              		.loc 6 1224 35 view .LVU3155
 10399 1168 B0EE4B0A 		vmov.f32	s0, s22
 10400 116c FFF7FEFF 		bl	sqrtf
 10401              	.LVL870:
 10402 1170 ADE5     		b	.L487
 10403              	.LVL871:
 10404              	.L629:
1223:src/main.cpp  ****             led3_target    = sqrtf(sqrtf(l3_raw)) * prs_mult * LED3_INTENSITY;
ARM GAS  /tmp/claude-502/ccZj3JyB.s 			page 265


 10405              		.loc 6 1223 35 view .LVU3156
 10406 1172 FFF7FEFF 		bl	sqrtf
 10407              	.LVL872:
 10408 1176 F0EE407A 		vmov.f32	s15, s0
 10409 117a 9EE5     		b	.L484
 10410              	.L628:
 10411 117c B0EE680A 		vmov.f32	s0, s17
 10412 1180 FFF7FEFF 		bl	sqrtf
 10413              	.LVL873:
 10414 1184 91E5     		b	.L481
 10415              	.LVL874:
 10416              	.L627:
1222:src/main.cpp  ****             led2_target    = sqrtf(sqrtf(l1_raw)) * prs_mult;  // pos 0 ramp
 10417              		.loc 6 1222 35 view .LVU3157
 10418 1186 FFF7FEFF 		bl	sqrtf
 10419              	.LVL875:
 10420 118a F0EE407A 		vmov.f32	s15, s0
 10421 118e 82E5     		b	.L478
 10422              	.L676:
 10423              		.align	2
 10424              	.L675:
 10425 1190 00000000 		.word	.LANCHOR11
 10426 1194 93244992 		.word	-1840700269
 10427 1198 00000000 		.word	.LANCHOR13
 10428 119c 14010000 		.word	.LC9
 10429 11a0 20000000 		.word	.LANCHOR10+32
 10430 11a4 00000000 		.word	.LANCHOR0
 10431 11a8 CDCCCC3D 		.word	1036831949
 10432 11ac 28010000 		.word	.LC10
 10433 11b0 38010000 		.word	.LC11
 10434 11b4 CDCC4C3F 		.word	1061997773
 10435 11b8 00000000 		.word	0
 10436 11bc 90000000 		.word	.LC5
 10437 11c0 247BB237 		.word	934443812
 10438 11c4 9A99593F 		.word	1062836634
 10439 11c8 9A99193E 		.word	1041865114
 10440              	.LBE1618:
 10441              	.LBE1623:
 10442              		.cfi_endproc
 10443              	.LFE2593:
 10445              		.section	.text.startup._GLOBAL__sub_I_hw,"ax",%progbits
 10446              		.align	1
 10447              		.p2align 2,,3
 10448              		.syntax unified
 10449              		.thumb
 10450              		.thumb_func
 10452              	_GLOBAL__sub_I_hw:
 10453              	.LFB2636:
1333:src/main.cpp  ****     }
1334:src/main.cpp  **** }
 10454              		.loc 6 1334 1 is_stmt 1 view -0
 10455              		.cfi_startproc
 10456              		@ args = 0, pretend = 0, frame = 0
 10457              		@ frame_needed = 0, uses_anonymous_args = 0
 10458              	.LBB1669:
 10459              	.LBI1669:
 10460              		.loc 6 1334 1 view .LVU3159
ARM GAS  /tmp/claude-502/ccZj3JyB.s 			page 266


 10461              	.LVL876:
 10462              	.LBB1670:
 10463              	.LBB1671:
 10464              	.LBI1671:
  21:/Users/reza.kalfane/Workspaces/Daisy/DaisyExamples/libDaisy/src/daisy_seed.h ****     ~DaisySeed() {}
 10465              		.loc 1 21 5 view .LVU3160
 10466              	.LBB1672:
 10467              	.LBB1673:
 10468              	.LBI1673:
 10469              		.file 7 "/Users/reza.kalfane/Workspaces/Daisy/DaisyExamples/libDaisy/src/per/qspi.h"
   1:/Users/reza.kalfane/Workspaces/Daisy/DaisyExamples/libDaisy/src/per/qspi.h **** #ifndef DSY_QSPI
   2:/Users/reza.kalfane/Workspaces/Daisy/DaisyExamples/libDaisy/src/per/qspi.h **** #define DSY_QSPI /**< Macro */
   3:/Users/reza.kalfane/Workspaces/Daisy/DaisyExamples/libDaisy/src/per/qspi.h **** 
   4:/Users/reza.kalfane/Workspaces/Daisy/DaisyExamples/libDaisy/src/per/qspi.h **** #ifndef UNIT_TEST // for unit tests, a dummy implementation
   5:/Users/reza.kalfane/Workspaces/Daisy/DaisyExamples/libDaisy/src/per/qspi.h **** 
   6:/Users/reza.kalfane/Workspaces/Daisy/DaisyExamples/libDaisy/src/per/qspi.h **** #include <cstdint>
   7:/Users/reza.kalfane/Workspaces/Daisy/DaisyExamples/libDaisy/src/per/qspi.h **** #include "daisy_core.h" // Added for dsy_gpio_pin typedef
   8:/Users/reza.kalfane/Workspaces/Daisy/DaisyExamples/libDaisy/src/per/qspi.h **** 
   9:/Users/reza.kalfane/Workspaces/Daisy/DaisyExamples/libDaisy/src/per/qspi.h **** #define DSY_QSPI_TEXT       \
  10:/Users/reza.kalfane/Workspaces/Daisy/DaisyExamples/libDaisy/src/per/qspi.h ****     __attribute__((section( \
  11:/Users/reza.kalfane/Workspaces/Daisy/DaisyExamples/libDaisy/src/per/qspi.h ****         ".qspiflash_text"))) /**< used for reading memory in memory_mapped mode. */
  12:/Users/reza.kalfane/Workspaces/Daisy/DaisyExamples/libDaisy/src/per/qspi.h **** #define DSY_QSPI_DATA       \
  13:/Users/reza.kalfane/Workspaces/Daisy/DaisyExamples/libDaisy/src/per/qspi.h ****     __attribute__((section( \
  14:/Users/reza.kalfane/Workspaces/Daisy/DaisyExamples/libDaisy/src/per/qspi.h ****         ".qspiflash_data"))) /**< used for reading memory in memory_mapped mode. */
  15:/Users/reza.kalfane/Workspaces/Daisy/DaisyExamples/libDaisy/src/per/qspi.h **** #define DSY_QSPI_BSS        \
  16:/Users/reza.kalfane/Workspaces/Daisy/DaisyExamples/libDaisy/src/per/qspi.h ****     __attribute__((section( \
  17:/Users/reza.kalfane/Workspaces/Daisy/DaisyExamples/libDaisy/src/per/qspi.h ****         ".qspiflash_bss"))) /**< used for reading memory in memory_mapped mode. */
  18:/Users/reza.kalfane/Workspaces/Daisy/DaisyExamples/libDaisy/src/per/qspi.h **** 
  19:/Users/reza.kalfane/Workspaces/Daisy/DaisyExamples/libDaisy/src/per/qspi.h **** namespace daisy
  20:/Users/reza.kalfane/Workspaces/Daisy/DaisyExamples/libDaisy/src/per/qspi.h **** {
  21:/Users/reza.kalfane/Workspaces/Daisy/DaisyExamples/libDaisy/src/per/qspi.h **** /** @addtogroup serial
  22:/Users/reza.kalfane/Workspaces/Daisy/DaisyExamples/libDaisy/src/per/qspi.h **** @{
  23:/Users/reza.kalfane/Workspaces/Daisy/DaisyExamples/libDaisy/src/per/qspi.h **** */
  24:/Users/reza.kalfane/Workspaces/Daisy/DaisyExamples/libDaisy/src/per/qspi.h **** 
  25:/Users/reza.kalfane/Workspaces/Daisy/DaisyExamples/libDaisy/src/per/qspi.h **** /** 
  26:/Users/reza.kalfane/Workspaces/Daisy/DaisyExamples/libDaisy/src/per/qspi.h ****  Driver for QSPI peripheral to interface with external flash memory. \n 
  27:/Users/reza.kalfane/Workspaces/Daisy/DaisyExamples/libDaisy/src/per/qspi.h ****     Currently supported QSPI Devices: \n 
  28:/Users/reza.kalfane/Workspaces/Daisy/DaisyExamples/libDaisy/src/per/qspi.h ****     * IS25LP080D
  29:/Users/reza.kalfane/Workspaces/Daisy/DaisyExamples/libDaisy/src/per/qspi.h **** */
  30:/Users/reza.kalfane/Workspaces/Daisy/DaisyExamples/libDaisy/src/per/qspi.h **** class QSPIHandle
  31:/Users/reza.kalfane/Workspaces/Daisy/DaisyExamples/libDaisy/src/per/qspi.h **** {
  32:/Users/reza.kalfane/Workspaces/Daisy/DaisyExamples/libDaisy/src/per/qspi.h ****   public:
  33:/Users/reza.kalfane/Workspaces/Daisy/DaisyExamples/libDaisy/src/per/qspi.h ****     enum Result
  34:/Users/reza.kalfane/Workspaces/Daisy/DaisyExamples/libDaisy/src/per/qspi.h ****     {
  35:/Users/reza.kalfane/Workspaces/Daisy/DaisyExamples/libDaisy/src/per/qspi.h ****         OK = 0,
  36:/Users/reza.kalfane/Workspaces/Daisy/DaisyExamples/libDaisy/src/per/qspi.h ****         ERR
  37:/Users/reza.kalfane/Workspaces/Daisy/DaisyExamples/libDaisy/src/per/qspi.h ****     };
  38:/Users/reza.kalfane/Workspaces/Daisy/DaisyExamples/libDaisy/src/per/qspi.h **** 
  39:/Users/reza.kalfane/Workspaces/Daisy/DaisyExamples/libDaisy/src/per/qspi.h ****     /** Indicates the current status of the module. 
  40:/Users/reza.kalfane/Workspaces/Daisy/DaisyExamples/libDaisy/src/per/qspi.h ****          *  Warnings are indicated by a leading W.
  41:/Users/reza.kalfane/Workspaces/Daisy/DaisyExamples/libDaisy/src/per/qspi.h ****          *  Errors are indicated by a leading E and cause an immediate exit.
  42:/Users/reza.kalfane/Workspaces/Daisy/DaisyExamples/libDaisy/src/per/qspi.h ****          * 
  43:/Users/reza.kalfane/Workspaces/Daisy/DaisyExamples/libDaisy/src/per/qspi.h ****          *  \param GOOD - No errors have been reported.
  44:/Users/reza.kalfane/Workspaces/Daisy/DaisyExamples/libDaisy/src/per/qspi.h ****          *  \param E_HAL_ERROR - HAL code did not return HAL_OK.
  45:/Users/reza.kalfane/Workspaces/Daisy/DaisyExamples/libDaisy/src/per/qspi.h ****          *  \param E_SWITCHING_MODES - An error was encountered while switching QSPI peripheral mod
  46:/Users/reza.kalfane/Workspaces/Daisy/DaisyExamples/libDaisy/src/per/qspi.h ****          *  \param E_INVALID_MODE - QSPI should not be written to while the program is executing fr
  47:/Users/reza.kalfane/Workspaces/Daisy/DaisyExamples/libDaisy/src/per/qspi.h ****          */
ARM GAS  /tmp/claude-502/ccZj3JyB.s 			page 267


  48:/Users/reza.kalfane/Workspaces/Daisy/DaisyExamples/libDaisy/src/per/qspi.h ****     enum Status
  49:/Users/reza.kalfane/Workspaces/Daisy/DaisyExamples/libDaisy/src/per/qspi.h ****     {
  50:/Users/reza.kalfane/Workspaces/Daisy/DaisyExamples/libDaisy/src/per/qspi.h ****         GOOD = 0,
  51:/Users/reza.kalfane/Workspaces/Daisy/DaisyExamples/libDaisy/src/per/qspi.h ****         E_HAL_ERROR,
  52:/Users/reza.kalfane/Workspaces/Daisy/DaisyExamples/libDaisy/src/per/qspi.h ****         E_SWITCHING_MODES,
  53:/Users/reza.kalfane/Workspaces/Daisy/DaisyExamples/libDaisy/src/per/qspi.h ****         E_INVALID_MODE,
  54:/Users/reza.kalfane/Workspaces/Daisy/DaisyExamples/libDaisy/src/per/qspi.h ****     };
  55:/Users/reza.kalfane/Workspaces/Daisy/DaisyExamples/libDaisy/src/per/qspi.h **** 
  56:/Users/reza.kalfane/Workspaces/Daisy/DaisyExamples/libDaisy/src/per/qspi.h ****     /** Configuration structure for interfacing with QSPI Driver */
  57:/Users/reza.kalfane/Workspaces/Daisy/DaisyExamples/libDaisy/src/per/qspi.h ****     struct Config
  58:/Users/reza.kalfane/Workspaces/Daisy/DaisyExamples/libDaisy/src/per/qspi.h ****     {
  59:/Users/reza.kalfane/Workspaces/Daisy/DaisyExamples/libDaisy/src/per/qspi.h ****         /** Flash Devices supported. (Both of these are more-or-less the same, just different sizes
  60:/Users/reza.kalfane/Workspaces/Daisy/DaisyExamples/libDaisy/src/per/qspi.h ****         enum Device
  61:/Users/reza.kalfane/Workspaces/Daisy/DaisyExamples/libDaisy/src/per/qspi.h ****         {
  62:/Users/reza.kalfane/Workspaces/Daisy/DaisyExamples/libDaisy/src/per/qspi.h ****             IS25LP080D,  /**< & */
  63:/Users/reza.kalfane/Workspaces/Daisy/DaisyExamples/libDaisy/src/per/qspi.h ****             IS25LP064A,  /**< & */
  64:/Users/reza.kalfane/Workspaces/Daisy/DaisyExamples/libDaisy/src/per/qspi.h ****             DEVICE_LAST, /**< & */
  65:/Users/reza.kalfane/Workspaces/Daisy/DaisyExamples/libDaisy/src/per/qspi.h ****         };
  66:/Users/reza.kalfane/Workspaces/Daisy/DaisyExamples/libDaisy/src/per/qspi.h **** 
  67:/Users/reza.kalfane/Workspaces/Daisy/DaisyExamples/libDaisy/src/per/qspi.h ****         /** 
  68:/Users/reza.kalfane/Workspaces/Daisy/DaisyExamples/libDaisy/src/per/qspi.h ****         Modes of operation.
  69:/Users/reza.kalfane/Workspaces/Daisy/DaisyExamples/libDaisy/src/per/qspi.h ****         Memory Mapped mode: QSPI configured so that the QSPI can be
  70:/Users/reza.kalfane/Workspaces/Daisy/DaisyExamples/libDaisy/src/per/qspi.h ****         read from starting address 0x90000000. Writing is not
  71:/Users/reza.kalfane/Workspaces/Daisy/DaisyExamples/libDaisy/src/per/qspi.h ****         possible in this mode. \n 
  72:/Users/reza.kalfane/Workspaces/Daisy/DaisyExamples/libDaisy/src/per/qspi.h ****         Indirect Polling mode: Device driver enabled. 
  73:/Users/reza.kalfane/Workspaces/Daisy/DaisyExamples/libDaisy/src/per/qspi.h ****         */
  74:/Users/reza.kalfane/Workspaces/Daisy/DaisyExamples/libDaisy/src/per/qspi.h ****         enum Mode
  75:/Users/reza.kalfane/Workspaces/Daisy/DaisyExamples/libDaisy/src/per/qspi.h ****         {
  76:/Users/reza.kalfane/Workspaces/Daisy/DaisyExamples/libDaisy/src/per/qspi.h ****             MEMORY_MAPPED,    /**< & */
  77:/Users/reza.kalfane/Workspaces/Daisy/DaisyExamples/libDaisy/src/per/qspi.h ****             INDIRECT_POLLING, /**< & */
  78:/Users/reza.kalfane/Workspaces/Daisy/DaisyExamples/libDaisy/src/per/qspi.h ****             MODE_LAST,
  79:/Users/reza.kalfane/Workspaces/Daisy/DaisyExamples/libDaisy/src/per/qspi.h ****         };
  80:/Users/reza.kalfane/Workspaces/Daisy/DaisyExamples/libDaisy/src/per/qspi.h **** 
  81:/Users/reza.kalfane/Workspaces/Daisy/DaisyExamples/libDaisy/src/per/qspi.h ****         //SCK,  CE# (active low)
  82:/Users/reza.kalfane/Workspaces/Daisy/DaisyExamples/libDaisy/src/per/qspi.h ****         struct
  83:/Users/reza.kalfane/Workspaces/Daisy/DaisyExamples/libDaisy/src/per/qspi.h ****         {
  84:/Users/reza.kalfane/Workspaces/Daisy/DaisyExamples/libDaisy/src/per/qspi.h ****             dsy_gpio_pin io0; /**< & */
  85:/Users/reza.kalfane/Workspaces/Daisy/DaisyExamples/libDaisy/src/per/qspi.h ****             dsy_gpio_pin io1; /**< & */
  86:/Users/reza.kalfane/Workspaces/Daisy/DaisyExamples/libDaisy/src/per/qspi.h ****             dsy_gpio_pin io2; /**< & */
  87:/Users/reza.kalfane/Workspaces/Daisy/DaisyExamples/libDaisy/src/per/qspi.h ****             dsy_gpio_pin io3; /**< & */
  88:/Users/reza.kalfane/Workspaces/Daisy/DaisyExamples/libDaisy/src/per/qspi.h ****             dsy_gpio_pin clk; /**< & */
  89:/Users/reza.kalfane/Workspaces/Daisy/DaisyExamples/libDaisy/src/per/qspi.h ****             dsy_gpio_pin ncs; /**< & */
  90:/Users/reza.kalfane/Workspaces/Daisy/DaisyExamples/libDaisy/src/per/qspi.h ****         } pin_config;
  91:/Users/reza.kalfane/Workspaces/Daisy/DaisyExamples/libDaisy/src/per/qspi.h **** 
  92:/Users/reza.kalfane/Workspaces/Daisy/DaisyExamples/libDaisy/src/per/qspi.h ****         Device device;
  93:/Users/reza.kalfane/Workspaces/Daisy/DaisyExamples/libDaisy/src/per/qspi.h ****         Mode   mode;
  94:/Users/reza.kalfane/Workspaces/Daisy/DaisyExamples/libDaisy/src/per/qspi.h ****     };
  95:/Users/reza.kalfane/Workspaces/Daisy/DaisyExamples/libDaisy/src/per/qspi.h **** 
  96:/Users/reza.kalfane/Workspaces/Daisy/DaisyExamples/libDaisy/src/per/qspi.h ****     /** 
  97:/Users/reza.kalfane/Workspaces/Daisy/DaisyExamples/libDaisy/src/per/qspi.h ****         Initializes QSPI peripheral, and Resets, and prepares memory for access.
  98:/Users/reza.kalfane/Workspaces/Daisy/DaisyExamples/libDaisy/src/per/qspi.h ****         \param config should be populated with the mode, device and pin_config before calling this 
  99:/Users/reza.kalfane/Workspaces/Daisy/DaisyExamples/libDaisy/src/per/qspi.h ****         \return Result::OK or Result::ERR
 100:/Users/reza.kalfane/Workspaces/Daisy/DaisyExamples/libDaisy/src/per/qspi.h ****         */
 101:/Users/reza.kalfane/Workspaces/Daisy/DaisyExamples/libDaisy/src/per/qspi.h ****     Result Init(const Config& config);
 102:/Users/reza.kalfane/Workspaces/Daisy/DaisyExamples/libDaisy/src/per/qspi.h **** 
 103:/Users/reza.kalfane/Workspaces/Daisy/DaisyExamples/libDaisy/src/per/qspi.h ****     /** Returns the current config. */
 104:/Users/reza.kalfane/Workspaces/Daisy/DaisyExamples/libDaisy/src/per/qspi.h ****     const Config& GetConfig() const;
ARM GAS  /tmp/claude-502/ccZj3JyB.s 			page 268


 105:/Users/reza.kalfane/Workspaces/Daisy/DaisyExamples/libDaisy/src/per/qspi.h **** 
 106:/Users/reza.kalfane/Workspaces/Daisy/DaisyExamples/libDaisy/src/per/qspi.h ****     // Couldn't this just be called before anything else in init? That
 107:/Users/reza.kalfane/Workspaces/Daisy/DaisyExamples/libDaisy/src/per/qspi.h ****     // would make manually calling it unnecessary.
 108:/Users/reza.kalfane/Workspaces/Daisy/DaisyExamples/libDaisy/src/per/qspi.h ****     /** 
 109:/Users/reza.kalfane/Workspaces/Daisy/DaisyExamples/libDaisy/src/per/qspi.h ****         Deinitializes the peripheral
 110:/Users/reza.kalfane/Workspaces/Daisy/DaisyExamples/libDaisy/src/per/qspi.h ****         This should be called before reinitializing QSPI in a different mode.
 111:/Users/reza.kalfane/Workspaces/Daisy/DaisyExamples/libDaisy/src/per/qspi.h ****         \return Result::OK or Result::ERR
 112:/Users/reza.kalfane/Workspaces/Daisy/DaisyExamples/libDaisy/src/per/qspi.h ****         */
 113:/Users/reza.kalfane/Workspaces/Daisy/DaisyExamples/libDaisy/src/per/qspi.h ****     Result DeInit();
 114:/Users/reza.kalfane/Workspaces/Daisy/DaisyExamples/libDaisy/src/per/qspi.h **** 
 115:/Users/reza.kalfane/Workspaces/Daisy/DaisyExamples/libDaisy/src/per/qspi.h ****     /** 
 116:/Users/reza.kalfane/Workspaces/Daisy/DaisyExamples/libDaisy/src/per/qspi.h ****         Writes a single page to to the specified address on the QSPI chip.
 117:/Users/reza.kalfane/Workspaces/Daisy/DaisyExamples/libDaisy/src/per/qspi.h ****         For IS25LP*, page size is 256 bytes.
 118:/Users/reza.kalfane/Workspaces/Daisy/DaisyExamples/libDaisy/src/per/qspi.h ****         \param address Address to write to
 119:/Users/reza.kalfane/Workspaces/Daisy/DaisyExamples/libDaisy/src/per/qspi.h ****         \param size Buffer size
 120:/Users/reza.kalfane/Workspaces/Daisy/DaisyExamples/libDaisy/src/per/qspi.h ****         \param buffer Buffer to write
 121:/Users/reza.kalfane/Workspaces/Daisy/DaisyExamples/libDaisy/src/per/qspi.h ****         \return Result::OK or Result::ERR
 122:/Users/reza.kalfane/Workspaces/Daisy/DaisyExamples/libDaisy/src/per/qspi.h ****         */
 123:/Users/reza.kalfane/Workspaces/Daisy/DaisyExamples/libDaisy/src/per/qspi.h ****     Result WritePage(uint32_t address, uint32_t size, uint8_t* buffer);
 124:/Users/reza.kalfane/Workspaces/Daisy/DaisyExamples/libDaisy/src/per/qspi.h **** 
 125:/Users/reza.kalfane/Workspaces/Daisy/DaisyExamples/libDaisy/src/per/qspi.h ****     /** 
 126:/Users/reza.kalfane/Workspaces/Daisy/DaisyExamples/libDaisy/src/per/qspi.h ****         Writes data in buffer to to the QSPI. Starting at address to address+size 
 127:/Users/reza.kalfane/Workspaces/Daisy/DaisyExamples/libDaisy/src/per/qspi.h ****         \param address Address to write to
 128:/Users/reza.kalfane/Workspaces/Daisy/DaisyExamples/libDaisy/src/per/qspi.h ****         \param size Buffer size
 129:/Users/reza.kalfane/Workspaces/Daisy/DaisyExamples/libDaisy/src/per/qspi.h ****         \param buffer Buffer to write
 130:/Users/reza.kalfane/Workspaces/Daisy/DaisyExamples/libDaisy/src/per/qspi.h ****         \return Result::OK or Result::ERR
 131:/Users/reza.kalfane/Workspaces/Daisy/DaisyExamples/libDaisy/src/per/qspi.h ****         */
 132:/Users/reza.kalfane/Workspaces/Daisy/DaisyExamples/libDaisy/src/per/qspi.h ****     Result Write(uint32_t address, uint32_t size, uint8_t* buffer);
 133:/Users/reza.kalfane/Workspaces/Daisy/DaisyExamples/libDaisy/src/per/qspi.h **** 
 134:/Users/reza.kalfane/Workspaces/Daisy/DaisyExamples/libDaisy/src/per/qspi.h ****     /** 
 135:/Users/reza.kalfane/Workspaces/Daisy/DaisyExamples/libDaisy/src/per/qspi.h ****         Erases the area specified on the chip.
 136:/Users/reza.kalfane/Workspaces/Daisy/DaisyExamples/libDaisy/src/per/qspi.h ****         Erasures will happen by 4K, 32K or 64K increments.
 137:/Users/reza.kalfane/Workspaces/Daisy/DaisyExamples/libDaisy/src/per/qspi.h ****         Smallest erase possible is 4kB at a time. (on IS25LP*)
 138:/Users/reza.kalfane/Workspaces/Daisy/DaisyExamples/libDaisy/src/per/qspi.h ****         \param start_addr Address to begin erasing from
 139:/Users/reza.kalfane/Workspaces/Daisy/DaisyExamples/libDaisy/src/per/qspi.h ****         \param end_addr  Address to stop erasing at
 140:/Users/reza.kalfane/Workspaces/Daisy/DaisyExamples/libDaisy/src/per/qspi.h ****         \return Result::OK or Result::ERR
 141:/Users/reza.kalfane/Workspaces/Daisy/DaisyExamples/libDaisy/src/per/qspi.h ****         */
 142:/Users/reza.kalfane/Workspaces/Daisy/DaisyExamples/libDaisy/src/per/qspi.h ****     Result Erase(uint32_t start_addr, uint32_t end_addr);
 143:/Users/reza.kalfane/Workspaces/Daisy/DaisyExamples/libDaisy/src/per/qspi.h **** 
 144:/Users/reza.kalfane/Workspaces/Daisy/DaisyExamples/libDaisy/src/per/qspi.h ****     /**  
 145:/Users/reza.kalfane/Workspaces/Daisy/DaisyExamples/libDaisy/src/per/qspi.h ****          Erases a single sector of the chip.  
 146:/Users/reza.kalfane/Workspaces/Daisy/DaisyExamples/libDaisy/src/per/qspi.h ****         TODO: Document the size of this function. 
 147:/Users/reza.kalfane/Workspaces/Daisy/DaisyExamples/libDaisy/src/per/qspi.h ****         \param address Address of sector to erase
 148:/Users/reza.kalfane/Workspaces/Daisy/DaisyExamples/libDaisy/src/per/qspi.h ****         \return Result::OK or Result::ERR
 149:/Users/reza.kalfane/Workspaces/Daisy/DaisyExamples/libDaisy/src/per/qspi.h ****         */
 150:/Users/reza.kalfane/Workspaces/Daisy/DaisyExamples/libDaisy/src/per/qspi.h ****     Result EraseSector(uint32_t address);
 151:/Users/reza.kalfane/Workspaces/Daisy/DaisyExamples/libDaisy/src/per/qspi.h **** 
 152:/Users/reza.kalfane/Workspaces/Daisy/DaisyExamples/libDaisy/src/per/qspi.h ****     /** Returns the current class status. Useful for debugging.
 153:/Users/reza.kalfane/Workspaces/Daisy/DaisyExamples/libDaisy/src/per/qspi.h ****      *  \returns Status
 154:/Users/reza.kalfane/Workspaces/Daisy/DaisyExamples/libDaisy/src/per/qspi.h ****      */
 155:/Users/reza.kalfane/Workspaces/Daisy/DaisyExamples/libDaisy/src/per/qspi.h ****     Status GetStatus();
 156:/Users/reza.kalfane/Workspaces/Daisy/DaisyExamples/libDaisy/src/per/qspi.h **** 
 157:/Users/reza.kalfane/Workspaces/Daisy/DaisyExamples/libDaisy/src/per/qspi.h ****     /** Returns a pointer to the actual memory used 
 158:/Users/reza.kalfane/Workspaces/Daisy/DaisyExamples/libDaisy/src/per/qspi.h ****      *  The memory at this address is read-only
 159:/Users/reza.kalfane/Workspaces/Daisy/DaisyExamples/libDaisy/src/per/qspi.h ****      *  to write to it use the Write function.
 160:/Users/reza.kalfane/Workspaces/Daisy/DaisyExamples/libDaisy/src/per/qspi.h ****      * 
 161:/Users/reza.kalfane/Workspaces/Daisy/DaisyExamples/libDaisy/src/per/qspi.h ****      *  \param offset returns the pointer starting this 
ARM GAS  /tmp/claude-502/ccZj3JyB.s 			page 269


 162:/Users/reza.kalfane/Workspaces/Daisy/DaisyExamples/libDaisy/src/per/qspi.h ****      *                many bytes into the memory
 163:/Users/reza.kalfane/Workspaces/Daisy/DaisyExamples/libDaisy/src/per/qspi.h ****     */
 164:/Users/reza.kalfane/Workspaces/Daisy/DaisyExamples/libDaisy/src/per/qspi.h ****     void* GetData(uint32_t offset = 0);
 165:/Users/reza.kalfane/Workspaces/Daisy/DaisyExamples/libDaisy/src/per/qspi.h **** 
 166:/Users/reza.kalfane/Workspaces/Daisy/DaisyExamples/libDaisy/src/per/qspi.h ****     QSPIHandle() : pimpl_(nullptr) {}
 10470              		.loc 7 166 5 view .LVU3161
 10471              	.LBE1673:
 10472              	.LBE1672:
 10473              	.LBE1671:
 10474              	.LBE1670:
 10475              	.LBE1669:
 10476              		.loc 6 1334 1 is_stmt 0 view .LVU3162
 10477 0000 10B5     		push	{r4, lr}
 10478              		.cfi_def_cfa_offset 8
 10479              		.cfi_offset 4, -8
 10480              		.cfi_offset 14, -4
 10481              	.LBB1734:
 10482              	.LBB1733:
 10483              	.LBB1694:
 10484              	.LBB1692:
 10485              	.LBB1678:
 10486              	.LBB1674:
 10487              	.LBB1675:
 10488              		.loc 7 166 34 view .LVU3163
 10489 0002 0E48     		ldr	r0, .L679
 10490 0004 0024     		movs	r4, #0
 10491              	.LBE1675:
 10492              	.LBE1674:
 10493              	.LBE1678:
 10494              	.LBE1692:
 10495              	.LBE1694:
 282:src/main.cpp  **** GPIO      sda, scl;
 10496              		.loc 6 282 11 view .LVU3164
 10497 0006 0E4A     		ldr	r2, .L679+4
 10498 0008 0E49     		ldr	r1, .L679+8
 10499              	.LBB1695:
 10500              	.LBB1693:
 10501              	.LBB1679:
 10502              	.LBB1677:
 10503              	.LBB1676:
 10504              		.loc 7 166 34 view .LVU3165
 10505 000a 0460     		str	r4, [r0]
 10506              	.LVL877:
 10507              		.loc 7 166 34 view .LVU3166
 10508              	.LBE1676:
 10509              	.LBE1677:
 10510              	.LBE1679:
 10511              	.LBB1680:
 10512              	.LBI1680:
  95:/Users/reza.kalfane/Workspaces/Daisy/DaisyExamples/libDaisy/src/hid/audio.h ****     ~AudioHandle() {}
 10513              		.loc 5 95 5 is_stmt 1 view .LVU3167
 10514              	.LBB1681:
 10515              	.LBB1682:
  95:/Users/reza.kalfane/Workspaces/Daisy/DaisyExamples/libDaisy/src/hid/audio.h ****     ~AudioHandle() {}
 10516              		.loc 5 95 35 is_stmt 0 view .LVU3168
 10517 000c 4461     		str	r4, [r0, #20]
 10518              	.LVL878:
ARM GAS  /tmp/claude-502/ccZj3JyB.s 			page 270


  95:/Users/reza.kalfane/Workspaces/Daisy/DaisyExamples/libDaisy/src/hid/audio.h ****     ~AudioHandle() {}
 10519              		.loc 5 95 35 view .LVU3169
 10520              	.LBE1682:
 10521              	.LBE1681:
 10522              	.LBE1680:
 10523              	.LBB1683:
 10524              	.LBI1683:
 109:/Users/reza.kalfane/Workspaces/Daisy/DaisyExamples/libDaisy/src/per/adc.h ****     ~AdcHandle() {}
 10525              		.loc 4 109 5 is_stmt 1 view .LVU3170
 109:/Users/reza.kalfane/Workspaces/Daisy/DaisyExamples/libDaisy/src/per/adc.h ****     ~AdcHandle() {}
 10526              		.loc 4 109 5 is_stmt 0 view .LVU3171
 10527              	.LBE1683:
 10528              	.LBB1684:
 10529              	.LBI1684:
 10530              		.file 8 "/Users/reza.kalfane/Workspaces/Daisy/DaisyExamples/libDaisy/src/per/dac.h"
   1:/Users/reza.kalfane/Workspaces/Daisy/DaisyExamples/libDaisy/src/per/dac.h **** #pragma once
   2:/Users/reza.kalfane/Workspaces/Daisy/DaisyExamples/libDaisy/src/per/dac.h **** #ifndef DSY_DAC_H
   3:/Users/reza.kalfane/Workspaces/Daisy/DaisyExamples/libDaisy/src/per/dac.h **** #define DSY_DAC_H
   4:/Users/reza.kalfane/Workspaces/Daisy/DaisyExamples/libDaisy/src/per/dac.h **** 
   5:/Users/reza.kalfane/Workspaces/Daisy/DaisyExamples/libDaisy/src/per/dac.h **** #include "daisy_core.h"
   6:/Users/reza.kalfane/Workspaces/Daisy/DaisyExamples/libDaisy/src/per/dac.h **** 
   7:/Users/reza.kalfane/Workspaces/Daisy/DaisyExamples/libDaisy/src/per/dac.h **** namespace daisy
   8:/Users/reza.kalfane/Workspaces/Daisy/DaisyExamples/libDaisy/src/per/dac.h **** {
   9:/Users/reza.kalfane/Workspaces/Daisy/DaisyExamples/libDaisy/src/per/dac.h **** /** @brief DAC handle for Built-in DAC Peripheral 
  10:/Users/reza.kalfane/Workspaces/Daisy/DaisyExamples/libDaisy/src/per/dac.h ****  *  @ingroup per_analog
  11:/Users/reza.kalfane/Workspaces/Daisy/DaisyExamples/libDaisy/src/per/dac.h ****  ** 
  12:/Users/reza.kalfane/Workspaces/Daisy/DaisyExamples/libDaisy/src/per/dac.h ****  ** For now only Normal Mode is supported,
  13:/Users/reza.kalfane/Workspaces/Daisy/DaisyExamples/libDaisy/src/per/dac.h ****  ** Sample and hold mode provides reduced power consumption, but requires a bit more setup.
  14:/Users/reza.kalfane/Workspaces/Daisy/DaisyExamples/libDaisy/src/per/dac.h ****  **
  15:/Users/reza.kalfane/Workspaces/Daisy/DaisyExamples/libDaisy/src/per/dac.h ****  ** For now connecting the DAC through other internal peripherals is also not supported.
  16:/Users/reza.kalfane/Workspaces/Daisy/DaisyExamples/libDaisy/src/per/dac.h ****  **
  17:/Users/reza.kalfane/Workspaces/Daisy/DaisyExamples/libDaisy/src/per/dac.h ****  ** Since the DAC channels have dedicated pins we don't need to pass in a pin config like with
  18:/Users/reza.kalfane/Workspaces/Daisy/DaisyExamples/libDaisy/src/per/dac.h ****  ** other modules. However, it is still important to not try to use the DAC pins for anything else.
  19:/Users/reza.kalfane/Workspaces/Daisy/DaisyExamples/libDaisy/src/per/dac.h ****  ** DAC Channel 1 is on PA4, and DAC Channel 2 is on PA5
  20:/Users/reza.kalfane/Workspaces/Daisy/DaisyExamples/libDaisy/src/per/dac.h ****  ***/
  21:/Users/reza.kalfane/Workspaces/Daisy/DaisyExamples/libDaisy/src/per/dac.h **** class DacHandle
  22:/Users/reza.kalfane/Workspaces/Daisy/DaisyExamples/libDaisy/src/per/dac.h **** {
  23:/Users/reza.kalfane/Workspaces/Daisy/DaisyExamples/libDaisy/src/per/dac.h ****   public:
  24:/Users/reza.kalfane/Workspaces/Daisy/DaisyExamples/libDaisy/src/per/dac.h ****     /** Return Values for the DacHandle class */
  25:/Users/reza.kalfane/Workspaces/Daisy/DaisyExamples/libDaisy/src/per/dac.h ****     enum class Result
  26:/Users/reza.kalfane/Workspaces/Daisy/DaisyExamples/libDaisy/src/per/dac.h ****     {
  27:/Users/reza.kalfane/Workspaces/Daisy/DaisyExamples/libDaisy/src/per/dac.h ****         OK,
  28:/Users/reza.kalfane/Workspaces/Daisy/DaisyExamples/libDaisy/src/per/dac.h ****         ERR,
  29:/Users/reza.kalfane/Workspaces/Daisy/DaisyExamples/libDaisy/src/per/dac.h ****     };
  30:/Users/reza.kalfane/Workspaces/Daisy/DaisyExamples/libDaisy/src/per/dac.h **** 
  31:/Users/reza.kalfane/Workspaces/Daisy/DaisyExamples/libDaisy/src/per/dac.h ****     /** Selects which channel(s) will be configured for use. */
  32:/Users/reza.kalfane/Workspaces/Daisy/DaisyExamples/libDaisy/src/per/dac.h ****     enum class Channel
  33:/Users/reza.kalfane/Workspaces/Daisy/DaisyExamples/libDaisy/src/per/dac.h ****     {
  34:/Users/reza.kalfane/Workspaces/Daisy/DaisyExamples/libDaisy/src/per/dac.h ****         ONE,
  35:/Users/reza.kalfane/Workspaces/Daisy/DaisyExamples/libDaisy/src/per/dac.h ****         TWO,
  36:/Users/reza.kalfane/Workspaces/Daisy/DaisyExamples/libDaisy/src/per/dac.h ****         BOTH,
  37:/Users/reza.kalfane/Workspaces/Daisy/DaisyExamples/libDaisy/src/per/dac.h ****     };
  38:/Users/reza.kalfane/Workspaces/Daisy/DaisyExamples/libDaisy/src/per/dac.h **** 
  39:/Users/reza.kalfane/Workspaces/Daisy/DaisyExamples/libDaisy/src/per/dac.h ****     /** Sets the Mode for the DAC channels.
  40:/Users/reza.kalfane/Workspaces/Daisy/DaisyExamples/libDaisy/src/per/dac.h ****      **
  41:/Users/reza.kalfane/Workspaces/Daisy/DaisyExamples/libDaisy/src/per/dac.h ****      ** Polling mode uses the blocking mode to transmit a single value at a time.
  42:/Users/reza.kalfane/Workspaces/Daisy/DaisyExamples/libDaisy/src/per/dac.h ****      **
ARM GAS  /tmp/claude-502/ccZj3JyB.s 			page 271


  43:/Users/reza.kalfane/Workspaces/Daisy/DaisyExamples/libDaisy/src/per/dac.h ****      ** DMA mode uses a buffer, and periodically transmits it triggering a 
  44:/Users/reza.kalfane/Workspaces/Daisy/DaisyExamples/libDaisy/src/per/dac.h ****      ** callback to fill the buffer when it is ready for more samples.
  45:/Users/reza.kalfane/Workspaces/Daisy/DaisyExamples/libDaisy/src/per/dac.h ****      ***/
  46:/Users/reza.kalfane/Workspaces/Daisy/DaisyExamples/libDaisy/src/per/dac.h ****     enum class Mode
  47:/Users/reza.kalfane/Workspaces/Daisy/DaisyExamples/libDaisy/src/per/dac.h ****     {
  48:/Users/reza.kalfane/Workspaces/Daisy/DaisyExamples/libDaisy/src/per/dac.h ****         POLLING,
  49:/Users/reza.kalfane/Workspaces/Daisy/DaisyExamples/libDaisy/src/per/dac.h ****         DMA,
  50:/Users/reza.kalfane/Workspaces/Daisy/DaisyExamples/libDaisy/src/per/dac.h ****     };
  51:/Users/reza.kalfane/Workspaces/Daisy/DaisyExamples/libDaisy/src/per/dac.h **** 
  52:/Users/reza.kalfane/Workspaces/Daisy/DaisyExamples/libDaisy/src/per/dac.h ****     /** Sets the number of bits per sample transmitted out of the DAC.
  53:/Users/reza.kalfane/Workspaces/Daisy/DaisyExamples/libDaisy/src/per/dac.h ****      ** The output range will be: 0V - VDDA
  54:/Users/reza.kalfane/Workspaces/Daisy/DaisyExamples/libDaisy/src/per/dac.h ****      ** The resolution will be roughly: bitdepth / (VDDA - 0V) 
  55:/Users/reza.kalfane/Workspaces/Daisy/DaisyExamples/libDaisy/src/per/dac.h ****      ***/
  56:/Users/reza.kalfane/Workspaces/Daisy/DaisyExamples/libDaisy/src/per/dac.h ****     enum class BitDepth
  57:/Users/reza.kalfane/Workspaces/Daisy/DaisyExamples/libDaisy/src/per/dac.h ****     {
  58:/Users/reza.kalfane/Workspaces/Daisy/DaisyExamples/libDaisy/src/per/dac.h ****         BITS_8,
  59:/Users/reza.kalfane/Workspaces/Daisy/DaisyExamples/libDaisy/src/per/dac.h ****         BITS_12
  60:/Users/reza.kalfane/Workspaces/Daisy/DaisyExamples/libDaisy/src/per/dac.h ****     };
  61:/Users/reza.kalfane/Workspaces/Daisy/DaisyExamples/libDaisy/src/per/dac.h **** 
  62:/Users/reza.kalfane/Workspaces/Daisy/DaisyExamples/libDaisy/src/per/dac.h ****     /** Sets whether the DAC output is buffered for higher drive ability. */
  63:/Users/reza.kalfane/Workspaces/Daisy/DaisyExamples/libDaisy/src/per/dac.h ****     enum class BufferState
  64:/Users/reza.kalfane/Workspaces/Daisy/DaisyExamples/libDaisy/src/per/dac.h ****     {
  65:/Users/reza.kalfane/Workspaces/Daisy/DaisyExamples/libDaisy/src/per/dac.h ****         ENABLED,
  66:/Users/reza.kalfane/Workspaces/Daisy/DaisyExamples/libDaisy/src/per/dac.h ****         DISABLED,
  67:/Users/reza.kalfane/Workspaces/Daisy/DaisyExamples/libDaisy/src/per/dac.h ****     };
  68:/Users/reza.kalfane/Workspaces/Daisy/DaisyExamples/libDaisy/src/per/dac.h **** 
  69:/Users/reza.kalfane/Workspaces/Daisy/DaisyExamples/libDaisy/src/per/dac.h ****     /** Configuration structure for initializing the DAC structure. */
  70:/Users/reza.kalfane/Workspaces/Daisy/DaisyExamples/libDaisy/src/per/dac.h ****     struct Config
  71:/Users/reza.kalfane/Workspaces/Daisy/DaisyExamples/libDaisy/src/per/dac.h ****     {
  72:/Users/reza.kalfane/Workspaces/Daisy/DaisyExamples/libDaisy/src/per/dac.h ****         /** Target Samplerate in Hz used to configure the internal 
  73:/Users/reza.kalfane/Workspaces/Daisy/DaisyExamples/libDaisy/src/per/dac.h ****          ** timebase for DMA mode. Does nothing in POLLING mode.
  74:/Users/reza.kalfane/Workspaces/Daisy/DaisyExamples/libDaisy/src/per/dac.h ****          ** If the value is 0 at Init time this will default to 48000Hz 
  75:/Users/reza.kalfane/Workspaces/Daisy/DaisyExamples/libDaisy/src/per/dac.h ****          ** otherwise the driver will attempt meet the target.*/
  76:/Users/reza.kalfane/Workspaces/Daisy/DaisyExamples/libDaisy/src/per/dac.h ****         uint32_t target_samplerate;
  77:/Users/reza.kalfane/Workspaces/Daisy/DaisyExamples/libDaisy/src/per/dac.h **** 
  78:/Users/reza.kalfane/Workspaces/Daisy/DaisyExamples/libDaisy/src/per/dac.h ****         Channel     chn;
  79:/Users/reza.kalfane/Workspaces/Daisy/DaisyExamples/libDaisy/src/per/dac.h ****         Mode        mode;
  80:/Users/reza.kalfane/Workspaces/Daisy/DaisyExamples/libDaisy/src/per/dac.h ****         BitDepth    bitdepth;
  81:/Users/reza.kalfane/Workspaces/Daisy/DaisyExamples/libDaisy/src/per/dac.h ****         BufferState buff_state;
  82:/Users/reza.kalfane/Workspaces/Daisy/DaisyExamples/libDaisy/src/per/dac.h ****     };
  83:/Users/reza.kalfane/Workspaces/Daisy/DaisyExamples/libDaisy/src/per/dac.h **** 
  84:/Users/reza.kalfane/Workspaces/Daisy/DaisyExamples/libDaisy/src/per/dac.h ****     DacHandle() : pimpl_(nullptr) {}
 10531              		.loc 8 84 5 is_stmt 1 view .LVU3172
 10532              	.LBB1685:
 10533              	.LBB1686:
 10534              		.loc 8 84 33 is_stmt 0 view .LVU3173
 10535 000e 0462     		str	r4, [r0, #32]
 10536              	.LVL879:
 10537              		.loc 8 84 33 view .LVU3174
 10538              	.LBE1686:
 10539              	.LBE1685:
 10540              	.LBE1684:
 10541              	.LBB1687:
 10542              	.LBI1687:
  40:/Users/reza.kalfane/Workspaces/Daisy/DaisyExamples/libDaisy/src/hid/usb.h **** 
 10543              		.loc 3 40 5 is_stmt 1 view .LVU3175
  40:/Users/reza.kalfane/Workspaces/Daisy/DaisyExamples/libDaisy/src/hid/usb.h **** 
ARM GAS  /tmp/claude-502/ccZj3JyB.s 			page 272


 10544              		.loc 3 40 5 is_stmt 0 view .LVU3176
 10545              	.LBE1687:
 10546              	.LBB1688:
 10547              	.LBI1688:
  96:/Users/reza.kalfane/Workspaces/Daisy/DaisyExamples/libDaisy/src/sys/system.h ****     ~System() {}
 10548              		.loc 2 96 5 is_stmt 1 view .LVU3177
  96:/Users/reza.kalfane/Workspaces/Daisy/DaisyExamples/libDaisy/src/sys/system.h ****     ~System() {}
 10549              		.loc 2 96 5 is_stmt 0 view .LVU3178
 10550              	.LBE1688:
 10551              	.LBB1689:
 10552              	.LBI1689:
 10553              		.file 9 "/Users/reza.kalfane/Workspaces/Daisy/DaisyExamples/libDaisy/src/per/sai.h"
   1:/Users/reza.kalfane/Workspaces/Daisy/DaisyExamples/libDaisy/src/per/sai.h **** #pragma once
   2:/Users/reza.kalfane/Workspaces/Daisy/DaisyExamples/libDaisy/src/per/sai.h **** #ifndef DSY_SAI_H
   3:/Users/reza.kalfane/Workspaces/Daisy/DaisyExamples/libDaisy/src/per/sai.h **** #define DSY_SAI_H
   4:/Users/reza.kalfane/Workspaces/Daisy/DaisyExamples/libDaisy/src/per/sai.h **** 
   5:/Users/reza.kalfane/Workspaces/Daisy/DaisyExamples/libDaisy/src/per/sai.h **** #include "daisy_core.h"
   6:/Users/reza.kalfane/Workspaces/Daisy/DaisyExamples/libDaisy/src/per/sai.h **** 
   7:/Users/reza.kalfane/Workspaces/Daisy/DaisyExamples/libDaisy/src/per/sai.h **** namespace daisy
   8:/Users/reza.kalfane/Workspaces/Daisy/DaisyExamples/libDaisy/src/per/sai.h **** {
   9:/Users/reza.kalfane/Workspaces/Daisy/DaisyExamples/libDaisy/src/per/sai.h **** /** 
  10:/Users/reza.kalfane/Workspaces/Daisy/DaisyExamples/libDaisy/src/per/sai.h ****  * Support for I2S Audio Protocol with different bit-depth, samplerate options
  11:/Users/reza.kalfane/Workspaces/Daisy/DaisyExamples/libDaisy/src/per/sai.h ****  * Allows for master or slave, as well as freedom of selecting direction, 
  12:/Users/reza.kalfane/Workspaces/Daisy/DaisyExamples/libDaisy/src/per/sai.h ****  * and other behavior for each peripheral, and block.
  13:/Users/reza.kalfane/Workspaces/Daisy/DaisyExamples/libDaisy/src/per/sai.h ****  * 
  14:/Users/reza.kalfane/Workspaces/Daisy/DaisyExamples/libDaisy/src/per/sai.h ****  * DMA Transfer commands must use buffers located within non-cached memory or use cache maintenance
  15:/Users/reza.kalfane/Workspaces/Daisy/DaisyExamples/libDaisy/src/per/sai.h ****  * To declare an unitialized global element in the DMA memory section:
  16:/Users/reza.kalfane/Workspaces/Daisy/DaisyExamples/libDaisy/src/per/sai.h ****  *    int32_t DSY_DMA_BUFFER_SECTOR my_buffer[96];
  17:/Users/reza.kalfane/Workspaces/Daisy/DaisyExamples/libDaisy/src/per/sai.h ****  *
  18:/Users/reza.kalfane/Workspaces/Daisy/DaisyExamples/libDaisy/src/per/sai.h ****  * Callback functions will be called once per half of the buffer. In the above example, 
  19:/Users/reza.kalfane/Workspaces/Daisy/DaisyExamples/libDaisy/src/per/sai.h ****  * the callback function would be called once for every 48 samples.
  20:/Users/reza.kalfane/Workspaces/Daisy/DaisyExamples/libDaisy/src/per/sai.h ****  * 
  21:/Users/reza.kalfane/Workspaces/Daisy/DaisyExamples/libDaisy/src/per/sai.h ****  * Use SAI Handle like this:
  22:/Users/reza.kalfane/Workspaces/Daisy/DaisyExamples/libDaisy/src/per/sai.h ****  * 
  23:/Users/reza.kalfane/Workspaces/Daisy/DaisyExamples/libDaisy/src/per/sai.h ****  *  SaiHandle::Config sai_config;
  24:/Users/reza.kalfane/Workspaces/Daisy/DaisyExamples/libDaisy/src/per/sai.h ****  *  sai_config.periph          = SaiHandle::Config::Peripheral::SAI_1;
  25:/Users/reza.kalfane/Workspaces/Daisy/DaisyExamples/libDaisy/src/per/sai.h ****  *  sai_config.sr              = SaiHandle::Config::SampleRate::SAI_48KHZ;
  26:/Users/reza.kalfane/Workspaces/Daisy/DaisyExamples/libDaisy/src/per/sai.h ****  *  sai_config.bit_depth       = SaiHandle::Config::BitDepth::SAI_24BIT;
  27:/Users/reza.kalfane/Workspaces/Daisy/DaisyExamples/libDaisy/src/per/sai.h ****  *  sai_config.a_sync          = SaiHandle::Config::Sync::MASTER;
  28:/Users/reza.kalfane/Workspaces/Daisy/DaisyExamples/libDaisy/src/per/sai.h ****  *  sai_config.b_sync          = SaiHandle::Config::Sync::SLAVE;
  29:/Users/reza.kalfane/Workspaces/Daisy/DaisyExamples/libDaisy/src/per/sai.h ****  *  sai_config.a_dir           = SaiHandle::Config::Direction::RECEIVE;
  30:/Users/reza.kalfane/Workspaces/Daisy/DaisyExamples/libDaisy/src/per/sai.h ****  *  sai_config.b_dir           = SaiHandle::Config::Direction::TRANSMIT;
  31:/Users/reza.kalfane/Workspaces/Daisy/DaisyExamples/libDaisy/src/per/sai.h ****  *  sai_config.pin_config.fs   = {DSY_GPIOE, 4};
  32:/Users/reza.kalfane/Workspaces/Daisy/DaisyExamples/libDaisy/src/per/sai.h ****  *  sai_config.pin_config.mclk = {DSY_GPIOE, 2};
  33:/Users/reza.kalfane/Workspaces/Daisy/DaisyExamples/libDaisy/src/per/sai.h ****  *  sai_config.pin_config.sck  = {DSY_GPIOE, 5};
  34:/Users/reza.kalfane/Workspaces/Daisy/DaisyExamples/libDaisy/src/per/sai.h ****  *  sai_config.pin_config.sa   = {DSY_GPIOE, 6};
  35:/Users/reza.kalfane/Workspaces/Daisy/DaisyExamples/libDaisy/src/per/sai.h ****  *  sai_config.pin_config.sb   = {DSY_GPIOE, 3};
  36:/Users/reza.kalfane/Workspaces/Daisy/DaisyExamples/libDaisy/src/per/sai.h ****  *  // Then Initialize
  37:/Users/reza.kalfane/Workspaces/Daisy/DaisyExamples/libDaisy/src/per/sai.h ****  *  SaiHandle sai;
  38:/Users/reza.kalfane/Workspaces/Daisy/DaisyExamples/libDaisy/src/per/sai.h ****  *  sai.Init(sai_config);
  39:/Users/reza.kalfane/Workspaces/Daisy/DaisyExamples/libDaisy/src/per/sai.h ****  *  // Now you can use it:
  40:/Users/reza.kalfane/Workspaces/Daisy/DaisyExamples/libDaisy/src/per/sai.h ****  *  sai.StartDma(. . .);
  41:/Users/reza.kalfane/Workspaces/Daisy/DaisyExamples/libDaisy/src/per/sai.h ****  */
  42:/Users/reza.kalfane/Workspaces/Daisy/DaisyExamples/libDaisy/src/per/sai.h **** class SaiHandle
  43:/Users/reza.kalfane/Workspaces/Daisy/DaisyExamples/libDaisy/src/per/sai.h **** {
  44:/Users/reza.kalfane/Workspaces/Daisy/DaisyExamples/libDaisy/src/per/sai.h ****   public:
  45:/Users/reza.kalfane/Workspaces/Daisy/DaisyExamples/libDaisy/src/per/sai.h ****     /** Contains settings for initialising an SAI Interface */
ARM GAS  /tmp/claude-502/ccZj3JyB.s 			page 273


  46:/Users/reza.kalfane/Workspaces/Daisy/DaisyExamples/libDaisy/src/per/sai.h ****     struct Config
  47:/Users/reza.kalfane/Workspaces/Daisy/DaisyExamples/libDaisy/src/per/sai.h ****     {
  48:/Users/reza.kalfane/Workspaces/Daisy/DaisyExamples/libDaisy/src/per/sai.h ****         /** Specifies the internal peripheral to use (mapped to different hardware pins) */
  49:/Users/reza.kalfane/Workspaces/Daisy/DaisyExamples/libDaisy/src/per/sai.h ****         enum class Peripheral
  50:/Users/reza.kalfane/Workspaces/Daisy/DaisyExamples/libDaisy/src/per/sai.h ****         {
  51:/Users/reza.kalfane/Workspaces/Daisy/DaisyExamples/libDaisy/src/per/sai.h ****             SAI_1,
  52:/Users/reza.kalfane/Workspaces/Daisy/DaisyExamples/libDaisy/src/per/sai.h ****             SAI_2,
  53:/Users/reza.kalfane/Workspaces/Daisy/DaisyExamples/libDaisy/src/per/sai.h ****         };
  54:/Users/reza.kalfane/Workspaces/Daisy/DaisyExamples/libDaisy/src/per/sai.h **** 
  55:/Users/reza.kalfane/Workspaces/Daisy/DaisyExamples/libDaisy/src/per/sai.h ****         /** Rate at which samples will be streaming to/from the device. */
  56:/Users/reza.kalfane/Workspaces/Daisy/DaisyExamples/libDaisy/src/per/sai.h ****         enum class SampleRate
  57:/Users/reza.kalfane/Workspaces/Daisy/DaisyExamples/libDaisy/src/per/sai.h ****         {
  58:/Users/reza.kalfane/Workspaces/Daisy/DaisyExamples/libDaisy/src/per/sai.h ****             SAI_8KHZ,
  59:/Users/reza.kalfane/Workspaces/Daisy/DaisyExamples/libDaisy/src/per/sai.h ****             SAI_16KHZ,
  60:/Users/reza.kalfane/Workspaces/Daisy/DaisyExamples/libDaisy/src/per/sai.h ****             SAI_32KHZ,
  61:/Users/reza.kalfane/Workspaces/Daisy/DaisyExamples/libDaisy/src/per/sai.h ****             SAI_48KHZ,
  62:/Users/reza.kalfane/Workspaces/Daisy/DaisyExamples/libDaisy/src/per/sai.h ****             SAI_96KHZ,
  63:/Users/reza.kalfane/Workspaces/Daisy/DaisyExamples/libDaisy/src/per/sai.h ****         };
  64:/Users/reza.kalfane/Workspaces/Daisy/DaisyExamples/libDaisy/src/per/sai.h **** 
  65:/Users/reza.kalfane/Workspaces/Daisy/DaisyExamples/libDaisy/src/per/sai.h ****         /** Bit Depth that the hardware expects to be transferred to/from the device. */
  66:/Users/reza.kalfane/Workspaces/Daisy/DaisyExamples/libDaisy/src/per/sai.h ****         enum class BitDepth
  67:/Users/reza.kalfane/Workspaces/Daisy/DaisyExamples/libDaisy/src/per/sai.h ****         {
  68:/Users/reza.kalfane/Workspaces/Daisy/DaisyExamples/libDaisy/src/per/sai.h ****             SAI_16BIT,
  69:/Users/reza.kalfane/Workspaces/Daisy/DaisyExamples/libDaisy/src/per/sai.h ****             SAI_24BIT,
  70:/Users/reza.kalfane/Workspaces/Daisy/DaisyExamples/libDaisy/src/per/sai.h ****             SAI_32BIT,
  71:/Users/reza.kalfane/Workspaces/Daisy/DaisyExamples/libDaisy/src/per/sai.h ****         };
  72:/Users/reza.kalfane/Workspaces/Daisy/DaisyExamples/libDaisy/src/per/sai.h **** 
  73:/Users/reza.kalfane/Workspaces/Daisy/DaisyExamples/libDaisy/src/per/sai.h ****         /** Specifies whether a particular block is the master or the slave 
  74:/Users/reza.kalfane/Workspaces/Daisy/DaisyExamples/libDaisy/src/per/sai.h ****          ** If both are set to slave, no MCLK signal will be used, and it is
  75:/Users/reza.kalfane/Workspaces/Daisy/DaisyExamples/libDaisy/src/per/sai.h ****          ** expected that the codec will have its own xtal.
  76:/Users/reza.kalfane/Workspaces/Daisy/DaisyExamples/libDaisy/src/per/sai.h ****          */
  77:/Users/reza.kalfane/Workspaces/Daisy/DaisyExamples/libDaisy/src/per/sai.h ****         enum class Sync
  78:/Users/reza.kalfane/Workspaces/Daisy/DaisyExamples/libDaisy/src/per/sai.h ****         {
  79:/Users/reza.kalfane/Workspaces/Daisy/DaisyExamples/libDaisy/src/per/sai.h ****             MASTER,
  80:/Users/reza.kalfane/Workspaces/Daisy/DaisyExamples/libDaisy/src/per/sai.h ****             SLAVE,
  81:/Users/reza.kalfane/Workspaces/Daisy/DaisyExamples/libDaisy/src/per/sai.h ****         };
  82:/Users/reza.kalfane/Workspaces/Daisy/DaisyExamples/libDaisy/src/per/sai.h **** 
  83:/Users/reza.kalfane/Workspaces/Daisy/DaisyExamples/libDaisy/src/per/sai.h ****         /** Specifies the direction for each peripheral block. */
  84:/Users/reza.kalfane/Workspaces/Daisy/DaisyExamples/libDaisy/src/per/sai.h ****         enum class Direction
  85:/Users/reza.kalfane/Workspaces/Daisy/DaisyExamples/libDaisy/src/per/sai.h ****         {
  86:/Users/reza.kalfane/Workspaces/Daisy/DaisyExamples/libDaisy/src/per/sai.h ****             TRANSMIT,
  87:/Users/reza.kalfane/Workspaces/Daisy/DaisyExamples/libDaisy/src/per/sai.h ****             RECEIVE,
  88:/Users/reza.kalfane/Workspaces/Daisy/DaisyExamples/libDaisy/src/per/sai.h ****         };
  89:/Users/reza.kalfane/Workspaces/Daisy/DaisyExamples/libDaisy/src/per/sai.h **** 
  90:/Users/reza.kalfane/Workspaces/Daisy/DaisyExamples/libDaisy/src/per/sai.h ****         Peripheral periph;
  91:/Users/reza.kalfane/Workspaces/Daisy/DaisyExamples/libDaisy/src/per/sai.h ****         struct
  92:/Users/reza.kalfane/Workspaces/Daisy/DaisyExamples/libDaisy/src/per/sai.h ****         {
  93:/Users/reza.kalfane/Workspaces/Daisy/DaisyExamples/libDaisy/src/per/sai.h ****             dsy_gpio_pin mclk, fs, sck, sa, sb;
  94:/Users/reza.kalfane/Workspaces/Daisy/DaisyExamples/libDaisy/src/per/sai.h ****         } pin_config;
  95:/Users/reza.kalfane/Workspaces/Daisy/DaisyExamples/libDaisy/src/per/sai.h ****         SampleRate sr;
  96:/Users/reza.kalfane/Workspaces/Daisy/DaisyExamples/libDaisy/src/per/sai.h ****         BitDepth   bit_depth;
  97:/Users/reza.kalfane/Workspaces/Daisy/DaisyExamples/libDaisy/src/per/sai.h ****         Sync       a_sync, b_sync;
  98:/Users/reza.kalfane/Workspaces/Daisy/DaisyExamples/libDaisy/src/per/sai.h ****         Direction  a_dir, b_dir;
  99:/Users/reza.kalfane/Workspaces/Daisy/DaisyExamples/libDaisy/src/per/sai.h ****     };
 100:/Users/reza.kalfane/Workspaces/Daisy/DaisyExamples/libDaisy/src/per/sai.h **** 
 101:/Users/reza.kalfane/Workspaces/Daisy/DaisyExamples/libDaisy/src/per/sai.h ****     /** Return values for SAI functions */
 102:/Users/reza.kalfane/Workspaces/Daisy/DaisyExamples/libDaisy/src/per/sai.h ****     enum class Result
ARM GAS  /tmp/claude-502/ccZj3JyB.s 			page 274


 103:/Users/reza.kalfane/Workspaces/Daisy/DaisyExamples/libDaisy/src/per/sai.h ****     {
 104:/Users/reza.kalfane/Workspaces/Daisy/DaisyExamples/libDaisy/src/per/sai.h ****         OK,
 105:/Users/reza.kalfane/Workspaces/Daisy/DaisyExamples/libDaisy/src/per/sai.h ****         ERR,
 106:/Users/reza.kalfane/Workspaces/Daisy/DaisyExamples/libDaisy/src/per/sai.h ****     };
 107:/Users/reza.kalfane/Workspaces/Daisy/DaisyExamples/libDaisy/src/per/sai.h **** 
 108:/Users/reza.kalfane/Workspaces/Daisy/DaisyExamples/libDaisy/src/per/sai.h ****     SaiHandle() : pimpl_(nullptr) {}
 10554              		.loc 9 108 5 is_stmt 1 view .LVU3179
 10555              	.LBB1690:
 10556              	.LBB1691:
 10557              		.loc 9 108 33 is_stmt 0 view .LVU3180
 10558 0010 C463     		str	r4, [r0, #60]
 10559              	.LVL880:
 10560              		.loc 9 108 33 view .LVU3181
 10561              	.LBE1691:
 10562              	.LBE1690:
 10563              	.LBE1689:
 10564              	.LBE1693:
 10565              	.LBE1695:
 282:src/main.cpp  **** GPIO      sda, scl;
 10566              		.loc 6 282 11 view .LVU3182
 10567 0012 FFF7FEFF 		bl	__aeabi_atexit
 10568              	.LVL881:
 10569              	.LBB1696:
 10570              	.LBI1696:
 10571              		.file 10 "/Users/reza.kalfane/Workspaces/Daisy/DaisyExamples/libDaisy/src/per/gpio.h"
   1:/Users/reza.kalfane/Workspaces/Daisy/DaisyExamples/libDaisy/src/per/gpio.h **** #pragma once
   2:/Users/reza.kalfane/Workspaces/Daisy/DaisyExamples/libDaisy/src/per/gpio.h **** #ifndef DSY_GPIO_H
   3:/Users/reza.kalfane/Workspaces/Daisy/DaisyExamples/libDaisy/src/per/gpio.h **** #define DSY_GPIO_H
   4:/Users/reza.kalfane/Workspaces/Daisy/DaisyExamples/libDaisy/src/per/gpio.h **** #include "daisy_core.h"
   5:/Users/reza.kalfane/Workspaces/Daisy/DaisyExamples/libDaisy/src/per/gpio.h **** 
   6:/Users/reza.kalfane/Workspaces/Daisy/DaisyExamples/libDaisy/src/per/gpio.h **** #ifdef __cplusplus
   7:/Users/reza.kalfane/Workspaces/Daisy/DaisyExamples/libDaisy/src/per/gpio.h **** 
   8:/Users/reza.kalfane/Workspaces/Daisy/DaisyExamples/libDaisy/src/per/gpio.h **** namespace daisy
   9:/Users/reza.kalfane/Workspaces/Daisy/DaisyExamples/libDaisy/src/per/gpio.h **** {
  10:/Users/reza.kalfane/Workspaces/Daisy/DaisyExamples/libDaisy/src/per/gpio.h **** /** @brief General Purpose I/O control 
  11:/Users/reza.kalfane/Workspaces/Daisy/DaisyExamples/libDaisy/src/per/gpio.h ****  *  @details peripheral control over a single GPIO
  12:/Users/reza.kalfane/Workspaces/Daisy/DaisyExamples/libDaisy/src/per/gpio.h ****  *  @ingroup peripheral
  13:/Users/reza.kalfane/Workspaces/Daisy/DaisyExamples/libDaisy/src/per/gpio.h ****  *   
  14:/Users/reza.kalfane/Workspaces/Daisy/DaisyExamples/libDaisy/src/per/gpio.h ****  *  Button Input (with internal Pullup resistor)
  15:/Users/reza.kalfane/Workspaces/Daisy/DaisyExamples/libDaisy/src/per/gpio.h ****  *  @include GPIO_Input.cpp 
  16:/Users/reza.kalfane/Workspaces/Daisy/DaisyExamples/libDaisy/src/per/gpio.h ****  * 
  17:/Users/reza.kalfane/Workspaces/Daisy/DaisyExamples/libDaisy/src/per/gpio.h ****  *  Output Example (perfect for blinking an LED)
  18:/Users/reza.kalfane/Workspaces/Daisy/DaisyExamples/libDaisy/src/per/gpio.h ****  *  @include GPIO_Output.cpp
  19:/Users/reza.kalfane/Workspaces/Daisy/DaisyExamples/libDaisy/src/per/gpio.h ****  * 
  20:/Users/reza.kalfane/Workspaces/Daisy/DaisyExamples/libDaisy/src/per/gpio.h **** */
  21:/Users/reza.kalfane/Workspaces/Daisy/DaisyExamples/libDaisy/src/per/gpio.h **** class GPIO
  22:/Users/reza.kalfane/Workspaces/Daisy/DaisyExamples/libDaisy/src/per/gpio.h **** {
  23:/Users/reza.kalfane/Workspaces/Daisy/DaisyExamples/libDaisy/src/per/gpio.h ****   public:
  24:/Users/reza.kalfane/Workspaces/Daisy/DaisyExamples/libDaisy/src/per/gpio.h ****     /** @brief Mode of operation for the specified GPIO */
  25:/Users/reza.kalfane/Workspaces/Daisy/DaisyExamples/libDaisy/src/per/gpio.h ****     enum class Mode
  26:/Users/reza.kalfane/Workspaces/Daisy/DaisyExamples/libDaisy/src/per/gpio.h ****     {
  27:/Users/reza.kalfane/Workspaces/Daisy/DaisyExamples/libDaisy/src/per/gpio.h ****         INPUT,     /**< Input for reading state of pin */
  28:/Users/reza.kalfane/Workspaces/Daisy/DaisyExamples/libDaisy/src/per/gpio.h ****         OUTPUT,    /**< Output w/ push-pull configuration */
  29:/Users/reza.kalfane/Workspaces/Daisy/DaisyExamples/libDaisy/src/per/gpio.h ****         OUTPUT_OD, /**< Output w/ open-drain configuration */
  30:/Users/reza.kalfane/Workspaces/Daisy/DaisyExamples/libDaisy/src/per/gpio.h ****         ANALOG,    /**< Analog for connection to ADC or DAC peripheral */
  31:/Users/reza.kalfane/Workspaces/Daisy/DaisyExamples/libDaisy/src/per/gpio.h ****     };
  32:/Users/reza.kalfane/Workspaces/Daisy/DaisyExamples/libDaisy/src/per/gpio.h **** 
ARM GAS  /tmp/claude-502/ccZj3JyB.s 			page 275


  33:/Users/reza.kalfane/Workspaces/Daisy/DaisyExamples/libDaisy/src/per/gpio.h ****     /** @brief Configures whether an internal Pull up or Pull down resistor is used. 
  34:/Users/reza.kalfane/Workspaces/Daisy/DaisyExamples/libDaisy/src/per/gpio.h ****      *  
  35:/Users/reza.kalfane/Workspaces/Daisy/DaisyExamples/libDaisy/src/per/gpio.h ****      * Internal Pull up/down resistors are typically 40k ohms, and will be between
  36:/Users/reza.kalfane/Workspaces/Daisy/DaisyExamples/libDaisy/src/per/gpio.h ****      * 30k and 50k
  37:/Users/reza.kalfane/Workspaces/Daisy/DaisyExamples/libDaisy/src/per/gpio.h ****      * 
  38:/Users/reza.kalfane/Workspaces/Daisy/DaisyExamples/libDaisy/src/per/gpio.h ****      * When the Pin is configured in Analog mode, the pull up/down resistors are
  39:/Users/reza.kalfane/Workspaces/Daisy/DaisyExamples/libDaisy/src/per/gpio.h ****      * disabled by hardware. 
  40:/Users/reza.kalfane/Workspaces/Daisy/DaisyExamples/libDaisy/src/per/gpio.h ****      */
  41:/Users/reza.kalfane/Workspaces/Daisy/DaisyExamples/libDaisy/src/per/gpio.h ****     enum class Pull
  42:/Users/reza.kalfane/Workspaces/Daisy/DaisyExamples/libDaisy/src/per/gpio.h ****     {
  43:/Users/reza.kalfane/Workspaces/Daisy/DaisyExamples/libDaisy/src/per/gpio.h ****         NOPULL,   /**< No pull up resistor */
  44:/Users/reza.kalfane/Workspaces/Daisy/DaisyExamples/libDaisy/src/per/gpio.h ****         PULLUP,   /**< Internal pull up enabled */
  45:/Users/reza.kalfane/Workspaces/Daisy/DaisyExamples/libDaisy/src/per/gpio.h ****         PULLDOWN, /**< Internal pull down enabled*/
  46:/Users/reza.kalfane/Workspaces/Daisy/DaisyExamples/libDaisy/src/per/gpio.h ****     };
  47:/Users/reza.kalfane/Workspaces/Daisy/DaisyExamples/libDaisy/src/per/gpio.h **** 
  48:/Users/reza.kalfane/Workspaces/Daisy/DaisyExamples/libDaisy/src/per/gpio.h ****     /** @brief Output speed controls the drive strength, and slew rate of the pin */
  49:/Users/reza.kalfane/Workspaces/Daisy/DaisyExamples/libDaisy/src/per/gpio.h ****     enum class Speed
  50:/Users/reza.kalfane/Workspaces/Daisy/DaisyExamples/libDaisy/src/per/gpio.h ****     {
  51:/Users/reza.kalfane/Workspaces/Daisy/DaisyExamples/libDaisy/src/per/gpio.h ****         LOW,
  52:/Users/reza.kalfane/Workspaces/Daisy/DaisyExamples/libDaisy/src/per/gpio.h ****         MEDIUM,
  53:/Users/reza.kalfane/Workspaces/Daisy/DaisyExamples/libDaisy/src/per/gpio.h ****         HIGH,
  54:/Users/reza.kalfane/Workspaces/Daisy/DaisyExamples/libDaisy/src/per/gpio.h ****         VERY_HIGH,
  55:/Users/reza.kalfane/Workspaces/Daisy/DaisyExamples/libDaisy/src/per/gpio.h ****     };
  56:/Users/reza.kalfane/Workspaces/Daisy/DaisyExamples/libDaisy/src/per/gpio.h **** 
  57:/Users/reza.kalfane/Workspaces/Daisy/DaisyExamples/libDaisy/src/per/gpio.h ****     /** @brief Configuration for a given GPIO */
  58:/Users/reza.kalfane/Workspaces/Daisy/DaisyExamples/libDaisy/src/per/gpio.h ****     struct Config
  59:/Users/reza.kalfane/Workspaces/Daisy/DaisyExamples/libDaisy/src/per/gpio.h ****     {
  60:/Users/reza.kalfane/Workspaces/Daisy/DaisyExamples/libDaisy/src/per/gpio.h ****         Pin   pin;
  61:/Users/reza.kalfane/Workspaces/Daisy/DaisyExamples/libDaisy/src/per/gpio.h ****         Mode  mode;
  62:/Users/reza.kalfane/Workspaces/Daisy/DaisyExamples/libDaisy/src/per/gpio.h ****         Pull  pull;
  63:/Users/reza.kalfane/Workspaces/Daisy/DaisyExamples/libDaisy/src/per/gpio.h ****         Speed speed;
  64:/Users/reza.kalfane/Workspaces/Daisy/DaisyExamples/libDaisy/src/per/gpio.h **** 
  65:/Users/reza.kalfane/Workspaces/Daisy/DaisyExamples/libDaisy/src/per/gpio.h ****         /** Constructor with no arguments will prepare an invalid GPIO set as
  66:/Users/reza.kalfane/Workspaces/Daisy/DaisyExamples/libDaisy/src/per/gpio.h ****          *  an input, with no pullup. 
  67:/Users/reza.kalfane/Workspaces/Daisy/DaisyExamples/libDaisy/src/per/gpio.h ****          */
  68:/Users/reza.kalfane/Workspaces/Daisy/DaisyExamples/libDaisy/src/per/gpio.h ****         Config()
  69:/Users/reza.kalfane/Workspaces/Daisy/DaisyExamples/libDaisy/src/per/gpio.h ****         : pin(), mode(Mode::INPUT), pull(Pull::NOPULL), speed(Speed::LOW)
  70:/Users/reza.kalfane/Workspaces/Daisy/DaisyExamples/libDaisy/src/per/gpio.h ****         {
  71:/Users/reza.kalfane/Workspaces/Daisy/DaisyExamples/libDaisy/src/per/gpio.h ****         }
  72:/Users/reza.kalfane/Workspaces/Daisy/DaisyExamples/libDaisy/src/per/gpio.h ****     };
  73:/Users/reza.kalfane/Workspaces/Daisy/DaisyExamples/libDaisy/src/per/gpio.h **** 
  74:/Users/reza.kalfane/Workspaces/Daisy/DaisyExamples/libDaisy/src/per/gpio.h ****     GPIO() {}
 10572              		.loc 10 74 5 is_stmt 1 view .LVU3183
 10573              	.LBB1697:
 10574              	.LBB1698:
 10575              	.LBI1698:
  68:/Users/reza.kalfane/Workspaces/Daisy/DaisyExamples/libDaisy/src/per/gpio.h ****         : pin(), mode(Mode::INPUT), pull(Pull::NOPULL), speed(Speed::LOW)
 10576              		.loc 10 68 9 view .LVU3184
 10577              	.LBB1699:
 10578              	.LBB1700:
 10579              	.LBB1701:
 10580              	.LBI1701:
 10581              		.file 11 "/Users/reza.kalfane/Workspaces/Daisy/DaisyExamples/libDaisy/src/daisy_core.h"
   1:/Users/reza.kalfane/Workspaces/Daisy/DaisyExamples/libDaisy/src/daisy_core.h **** #pragma once
   2:/Users/reza.kalfane/Workspaces/Daisy/DaisyExamples/libDaisy/src/daisy_core.h **** #ifndef DSY_CORE_HW_H
   3:/Users/reza.kalfane/Workspaces/Daisy/DaisyExamples/libDaisy/src/daisy_core.h **** #define DSY_CORE_HW_H /**< & */
   4:/Users/reza.kalfane/Workspaces/Daisy/DaisyExamples/libDaisy/src/daisy_core.h **** #include <stdint.h>
ARM GAS  /tmp/claude-502/ccZj3JyB.s 			page 276


   5:/Users/reza.kalfane/Workspaces/Daisy/DaisyExamples/libDaisy/src/daisy_core.h **** #include <stdlib.h>
   6:/Users/reza.kalfane/Workspaces/Daisy/DaisyExamples/libDaisy/src/daisy_core.h **** 
   7:/Users/reza.kalfane/Workspaces/Daisy/DaisyExamples/libDaisy/src/daisy_core.h **** #if defined(_MSC_VER)
   8:/Users/reza.kalfane/Workspaces/Daisy/DaisyExamples/libDaisy/src/daisy_core.h **** #define FORCE_INLINE __forceinline /**< & */
   9:/Users/reza.kalfane/Workspaces/Daisy/DaisyExamples/libDaisy/src/daisy_core.h **** #elif defined(__clang__)
  10:/Users/reza.kalfane/Workspaces/Daisy/DaisyExamples/libDaisy/src/daisy_core.h **** #define FORCE_INLINE inline __attribute__((always_inline)) /**< & */
  11:/Users/reza.kalfane/Workspaces/Daisy/DaisyExamples/libDaisy/src/daisy_core.h **** #pragma clang diagnostic ignored "-Wduplicate-decl-specifier"
  12:/Users/reza.kalfane/Workspaces/Daisy/DaisyExamples/libDaisy/src/daisy_core.h **** #elif defined(__GNUC__)
  13:/Users/reza.kalfane/Workspaces/Daisy/DaisyExamples/libDaisy/src/daisy_core.h **** #define FORCE_INLINE inline __attribute__((always_inline)) /**< & */
  14:/Users/reza.kalfane/Workspaces/Daisy/DaisyExamples/libDaisy/src/daisy_core.h **** #else
  15:/Users/reza.kalfane/Workspaces/Daisy/DaisyExamples/libDaisy/src/daisy_core.h **** #error unknown compiler
  16:/Users/reza.kalfane/Workspaces/Daisy/DaisyExamples/libDaisy/src/daisy_core.h **** #endif
  17:/Users/reza.kalfane/Workspaces/Daisy/DaisyExamples/libDaisy/src/daisy_core.h **** 
  18:/Users/reza.kalfane/Workspaces/Daisy/DaisyExamples/libDaisy/src/daisy_core.h **** /** @addtogroup utility
  19:/Users/reza.kalfane/Workspaces/Daisy/DaisyExamples/libDaisy/src/daisy_core.h ****     @{
  20:/Users/reza.kalfane/Workspaces/Daisy/DaisyExamples/libDaisy/src/daisy_core.h **** */
  21:/Users/reza.kalfane/Workspaces/Daisy/DaisyExamples/libDaisy/src/daisy_core.h **** 
  22:/Users/reza.kalfane/Workspaces/Daisy/DaisyExamples/libDaisy/src/daisy_core.h **** /** Macro for area of memory that is configured as cacheless
  23:/Users/reza.kalfane/Workspaces/Daisy/DaisyExamples/libDaisy/src/daisy_core.h **** This should be used primarily for DMA buffers, and the like.
  24:/Users/reza.kalfane/Workspaces/Daisy/DaisyExamples/libDaisy/src/daisy_core.h **** */
  25:/Users/reza.kalfane/Workspaces/Daisy/DaisyExamples/libDaisy/src/daisy_core.h **** #define DMA_BUFFER_MEM_SECTION __attribute__((section(".sram1_bss")))
  26:/Users/reza.kalfane/Workspaces/Daisy/DaisyExamples/libDaisy/src/daisy_core.h **** /** 
  27:/Users/reza.kalfane/Workspaces/Daisy/DaisyExamples/libDaisy/src/daisy_core.h **** THE DTCM RAM section is also non-cached. However, is not suitable 
  28:/Users/reza.kalfane/Workspaces/Daisy/DaisyExamples/libDaisy/src/daisy_core.h **** for DMA transfers. Performance is on par with internal SRAM w/ 
  29:/Users/reza.kalfane/Workspaces/Daisy/DaisyExamples/libDaisy/src/daisy_core.h **** cache enabled.
  30:/Users/reza.kalfane/Workspaces/Daisy/DaisyExamples/libDaisy/src/daisy_core.h **** */
  31:/Users/reza.kalfane/Workspaces/Daisy/DaisyExamples/libDaisy/src/daisy_core.h **** #define DTCM_MEM_SECTION __attribute__((section(".dtcmram_bss")))
  32:/Users/reza.kalfane/Workspaces/Daisy/DaisyExamples/libDaisy/src/daisy_core.h **** 
  33:/Users/reza.kalfane/Workspaces/Daisy/DaisyExamples/libDaisy/src/daisy_core.h **** #define FBIPMAX 0.999985f             /**< close to 1.0f-LSB at 16 bit */
  34:/Users/reza.kalfane/Workspaces/Daisy/DaisyExamples/libDaisy/src/daisy_core.h **** #define FBIPMIN (-FBIPMAX)            /**< - (1 - LSB) */
  35:/Users/reza.kalfane/Workspaces/Daisy/DaisyExamples/libDaisy/src/daisy_core.h **** #define U82F_SCALE 0.0078740f         /**< 1 / 127 */
  36:/Users/reza.kalfane/Workspaces/Daisy/DaisyExamples/libDaisy/src/daisy_core.h **** #define F2U8_SCALE 127.0f             /**< 128 - 1 */
  37:/Users/reza.kalfane/Workspaces/Daisy/DaisyExamples/libDaisy/src/daisy_core.h **** #define S82F_SCALE 0.0078125f         /**< 1 / (2**7) */
  38:/Users/reza.kalfane/Workspaces/Daisy/DaisyExamples/libDaisy/src/daisy_core.h **** #define F2S8_SCALE 127.0f             /**< (2 ** 7) - 1 */
  39:/Users/reza.kalfane/Workspaces/Daisy/DaisyExamples/libDaisy/src/daisy_core.h **** #define S162F_SCALE 3.0517578125e-05f /**< 1 / (2** 15) */
  40:/Users/reza.kalfane/Workspaces/Daisy/DaisyExamples/libDaisy/src/daisy_core.h **** #define F2S16_SCALE 32767.0f          /**< (2 ** 15) - 1 */
  41:/Users/reza.kalfane/Workspaces/Daisy/DaisyExamples/libDaisy/src/daisy_core.h **** #define F2S24_SCALE 8388608.0f        /**< 2 ** 23 */
  42:/Users/reza.kalfane/Workspaces/Daisy/DaisyExamples/libDaisy/src/daisy_core.h **** #define S242F_SCALE 1.192092896e-07f  /**< 1 / (2 ** 23) */
  43:/Users/reza.kalfane/Workspaces/Daisy/DaisyExamples/libDaisy/src/daisy_core.h **** #define S24SIGN 0x800000              /**< 2 ** 23 */
  44:/Users/reza.kalfane/Workspaces/Daisy/DaisyExamples/libDaisy/src/daisy_core.h **** #define S322F_SCALE 4.6566129e-10f    /**< 1 / (2** 31) */
  45:/Users/reza.kalfane/Workspaces/Daisy/DaisyExamples/libDaisy/src/daisy_core.h **** #define F2S32_SCALE 2147483647.f      /**< (2 ** 31) - 1 */
  46:/Users/reza.kalfane/Workspaces/Daisy/DaisyExamples/libDaisy/src/daisy_core.h **** 
  47:/Users/reza.kalfane/Workspaces/Daisy/DaisyExamples/libDaisy/src/daisy_core.h **** 
  48:/Users/reza.kalfane/Workspaces/Daisy/DaisyExamples/libDaisy/src/daisy_core.h **** /** shorthand macro for simplifying the reading of the left 
  49:/Users/reza.kalfane/Workspaces/Daisy/DaisyExamples/libDaisy/src/daisy_core.h ****  *  channel of a non-interleaved output buffer named out */
  50:/Users/reza.kalfane/Workspaces/Daisy/DaisyExamples/libDaisy/src/daisy_core.h **** #define OUT_L out[0]
  51:/Users/reza.kalfane/Workspaces/Daisy/DaisyExamples/libDaisy/src/daisy_core.h **** 
  52:/Users/reza.kalfane/Workspaces/Daisy/DaisyExamples/libDaisy/src/daisy_core.h **** /** shorthand macro for simplifying the reading of the right 
  53:/Users/reza.kalfane/Workspaces/Daisy/DaisyExamples/libDaisy/src/daisy_core.h ****  *  channel of a non-interleaved output buffer named out */
  54:/Users/reza.kalfane/Workspaces/Daisy/DaisyExamples/libDaisy/src/daisy_core.h **** #define OUT_R out[1]
  55:/Users/reza.kalfane/Workspaces/Daisy/DaisyExamples/libDaisy/src/daisy_core.h **** 
  56:/Users/reza.kalfane/Workspaces/Daisy/DaisyExamples/libDaisy/src/daisy_core.h **** /** shorthand macro for simplifying the reading of the left 
  57:/Users/reza.kalfane/Workspaces/Daisy/DaisyExamples/libDaisy/src/daisy_core.h ****  *  channel of a non-interleaved input buffer named in */
  58:/Users/reza.kalfane/Workspaces/Daisy/DaisyExamples/libDaisy/src/daisy_core.h **** #define IN_L in[0]
  59:/Users/reza.kalfane/Workspaces/Daisy/DaisyExamples/libDaisy/src/daisy_core.h **** 
  60:/Users/reza.kalfane/Workspaces/Daisy/DaisyExamples/libDaisy/src/daisy_core.h **** /** shorthand macro for simplifying the reading of the right 
  61:/Users/reza.kalfane/Workspaces/Daisy/DaisyExamples/libDaisy/src/daisy_core.h ****  *  channel of a non-interleaved input buffer named in */
ARM GAS  /tmp/claude-502/ccZj3JyB.s 			page 277


  62:/Users/reza.kalfane/Workspaces/Daisy/DaisyExamples/libDaisy/src/daisy_core.h **** #define IN_R in[1]
  63:/Users/reza.kalfane/Workspaces/Daisy/DaisyExamples/libDaisy/src/daisy_core.h **** 
  64:/Users/reza.kalfane/Workspaces/Daisy/DaisyExamples/libDaisy/src/daisy_core.h **** /** 
  65:/Users/reza.kalfane/Workspaces/Daisy/DaisyExamples/libDaisy/src/daisy_core.h ****     Computes cube.
  66:/Users/reza.kalfane/Workspaces/Daisy/DaisyExamples/libDaisy/src/daisy_core.h ****     \param x Number to be cubed
  67:/Users/reza.kalfane/Workspaces/Daisy/DaisyExamples/libDaisy/src/daisy_core.h ****     \return x ^ 3
  68:/Users/reza.kalfane/Workspaces/Daisy/DaisyExamples/libDaisy/src/daisy_core.h **** */
  69:/Users/reza.kalfane/Workspaces/Daisy/DaisyExamples/libDaisy/src/daisy_core.h **** FORCE_INLINE float cube(float x)
  70:/Users/reza.kalfane/Workspaces/Daisy/DaisyExamples/libDaisy/src/daisy_core.h **** {
  71:/Users/reza.kalfane/Workspaces/Daisy/DaisyExamples/libDaisy/src/daisy_core.h ****     return (x * x) * x;
  72:/Users/reza.kalfane/Workspaces/Daisy/DaisyExamples/libDaisy/src/daisy_core.h **** }
  73:/Users/reza.kalfane/Workspaces/Daisy/DaisyExamples/libDaisy/src/daisy_core.h **** 
  74:/Users/reza.kalfane/Workspaces/Daisy/DaisyExamples/libDaisy/src/daisy_core.h **** /** 
  75:/Users/reza.kalfane/Workspaces/Daisy/DaisyExamples/libDaisy/src/daisy_core.h ****     Converts unsigned 8-bit to float
  76:/Users/reza.kalfane/Workspaces/Daisy/DaisyExamples/libDaisy/src/daisy_core.h ****     \param x Number to be scaled.
  77:/Users/reza.kalfane/Workspaces/Daisy/DaisyExamples/libDaisy/src/daisy_core.h ****     \return Scaled number.
  78:/Users/reza.kalfane/Workspaces/Daisy/DaisyExamples/libDaisy/src/daisy_core.h **** */
  79:/Users/reza.kalfane/Workspaces/Daisy/DaisyExamples/libDaisy/src/daisy_core.h **** FORCE_INLINE float u82f(uint8_t x)
  80:/Users/reza.kalfane/Workspaces/Daisy/DaisyExamples/libDaisy/src/daisy_core.h **** {
  81:/Users/reza.kalfane/Workspaces/Daisy/DaisyExamples/libDaisy/src/daisy_core.h ****     return ((float)x - 127.f) * U82F_SCALE;
  82:/Users/reza.kalfane/Workspaces/Daisy/DaisyExamples/libDaisy/src/daisy_core.h **** }
  83:/Users/reza.kalfane/Workspaces/Daisy/DaisyExamples/libDaisy/src/daisy_core.h **** 
  84:/Users/reza.kalfane/Workspaces/Daisy/DaisyExamples/libDaisy/src/daisy_core.h **** /**
  85:/Users/reza.kalfane/Workspaces/Daisy/DaisyExamples/libDaisy/src/daisy_core.h ****     Converts float to unsigned 8-bit
  86:/Users/reza.kalfane/Workspaces/Daisy/DaisyExamples/libDaisy/src/daisy_core.h **** */
  87:/Users/reza.kalfane/Workspaces/Daisy/DaisyExamples/libDaisy/src/daisy_core.h **** FORCE_INLINE uint8_t f2u8(float x)
  88:/Users/reza.kalfane/Workspaces/Daisy/DaisyExamples/libDaisy/src/daisy_core.h **** {
  89:/Users/reza.kalfane/Workspaces/Daisy/DaisyExamples/libDaisy/src/daisy_core.h ****     x = x <= FBIPMIN ? FBIPMIN : x;
  90:/Users/reza.kalfane/Workspaces/Daisy/DaisyExamples/libDaisy/src/daisy_core.h ****     x = x >= FBIPMAX ? FBIPMAX : x;
  91:/Users/reza.kalfane/Workspaces/Daisy/DaisyExamples/libDaisy/src/daisy_core.h ****     return (uint8_t)((x * F2U8_SCALE) + F2U8_SCALE);
  92:/Users/reza.kalfane/Workspaces/Daisy/DaisyExamples/libDaisy/src/daisy_core.h **** }
  93:/Users/reza.kalfane/Workspaces/Daisy/DaisyExamples/libDaisy/src/daisy_core.h **** 
  94:/Users/reza.kalfane/Workspaces/Daisy/DaisyExamples/libDaisy/src/daisy_core.h **** 
  95:/Users/reza.kalfane/Workspaces/Daisy/DaisyExamples/libDaisy/src/daisy_core.h **** /** 
  96:/Users/reza.kalfane/Workspaces/Daisy/DaisyExamples/libDaisy/src/daisy_core.h ****     Converts Signed 8-bit to float
  97:/Users/reza.kalfane/Workspaces/Daisy/DaisyExamples/libDaisy/src/daisy_core.h ****     \param x Number to be scaled.
  98:/Users/reza.kalfane/Workspaces/Daisy/DaisyExamples/libDaisy/src/daisy_core.h ****     \return Scaled number.
  99:/Users/reza.kalfane/Workspaces/Daisy/DaisyExamples/libDaisy/src/daisy_core.h **** */
 100:/Users/reza.kalfane/Workspaces/Daisy/DaisyExamples/libDaisy/src/daisy_core.h **** FORCE_INLINE float s82f(int8_t x)
 101:/Users/reza.kalfane/Workspaces/Daisy/DaisyExamples/libDaisy/src/daisy_core.h **** {
 102:/Users/reza.kalfane/Workspaces/Daisy/DaisyExamples/libDaisy/src/daisy_core.h ****     return (float)x * S82F_SCALE;
 103:/Users/reza.kalfane/Workspaces/Daisy/DaisyExamples/libDaisy/src/daisy_core.h **** }
 104:/Users/reza.kalfane/Workspaces/Daisy/DaisyExamples/libDaisy/src/daisy_core.h **** 
 105:/Users/reza.kalfane/Workspaces/Daisy/DaisyExamples/libDaisy/src/daisy_core.h **** /**
 106:/Users/reza.kalfane/Workspaces/Daisy/DaisyExamples/libDaisy/src/daisy_core.h ****     Converts float to Signed 8-bit
 107:/Users/reza.kalfane/Workspaces/Daisy/DaisyExamples/libDaisy/src/daisy_core.h **** */
 108:/Users/reza.kalfane/Workspaces/Daisy/DaisyExamples/libDaisy/src/daisy_core.h **** FORCE_INLINE int8_t f2s8(float x)
 109:/Users/reza.kalfane/Workspaces/Daisy/DaisyExamples/libDaisy/src/daisy_core.h **** {
 110:/Users/reza.kalfane/Workspaces/Daisy/DaisyExamples/libDaisy/src/daisy_core.h ****     x = x <= FBIPMIN ? FBIPMIN : x;
 111:/Users/reza.kalfane/Workspaces/Daisy/DaisyExamples/libDaisy/src/daisy_core.h ****     x = x >= FBIPMAX ? FBIPMAX : x;
 112:/Users/reza.kalfane/Workspaces/Daisy/DaisyExamples/libDaisy/src/daisy_core.h ****     return (int32_t)(x * F2S8_SCALE);
 113:/Users/reza.kalfane/Workspaces/Daisy/DaisyExamples/libDaisy/src/daisy_core.h **** }
 114:/Users/reza.kalfane/Workspaces/Daisy/DaisyExamples/libDaisy/src/daisy_core.h **** 
 115:/Users/reza.kalfane/Workspaces/Daisy/DaisyExamples/libDaisy/src/daisy_core.h **** /** 
 116:/Users/reza.kalfane/Workspaces/Daisy/DaisyExamples/libDaisy/src/daisy_core.h ****     Converts Signed 16-bit to float
 117:/Users/reza.kalfane/Workspaces/Daisy/DaisyExamples/libDaisy/src/daisy_core.h ****     \param x Number to be scaled.
 118:/Users/reza.kalfane/Workspaces/Daisy/DaisyExamples/libDaisy/src/daisy_core.h ****     \return Scaled number.
ARM GAS  /tmp/claude-502/ccZj3JyB.s 			page 278


 119:/Users/reza.kalfane/Workspaces/Daisy/DaisyExamples/libDaisy/src/daisy_core.h **** */
 120:/Users/reza.kalfane/Workspaces/Daisy/DaisyExamples/libDaisy/src/daisy_core.h **** FORCE_INLINE float s162f(int16_t x)
 121:/Users/reza.kalfane/Workspaces/Daisy/DaisyExamples/libDaisy/src/daisy_core.h **** {
 122:/Users/reza.kalfane/Workspaces/Daisy/DaisyExamples/libDaisy/src/daisy_core.h ****     return (float)x * S162F_SCALE;
 123:/Users/reza.kalfane/Workspaces/Daisy/DaisyExamples/libDaisy/src/daisy_core.h **** }
 124:/Users/reza.kalfane/Workspaces/Daisy/DaisyExamples/libDaisy/src/daisy_core.h **** 
 125:/Users/reza.kalfane/Workspaces/Daisy/DaisyExamples/libDaisy/src/daisy_core.h **** /**
 126:/Users/reza.kalfane/Workspaces/Daisy/DaisyExamples/libDaisy/src/daisy_core.h ****     Converts float to Signed 16-bit
 127:/Users/reza.kalfane/Workspaces/Daisy/DaisyExamples/libDaisy/src/daisy_core.h **** */
 128:/Users/reza.kalfane/Workspaces/Daisy/DaisyExamples/libDaisy/src/daisy_core.h **** FORCE_INLINE int16_t f2s16(float x)
 129:/Users/reza.kalfane/Workspaces/Daisy/DaisyExamples/libDaisy/src/daisy_core.h **** {
 130:/Users/reza.kalfane/Workspaces/Daisy/DaisyExamples/libDaisy/src/daisy_core.h ****     x = x <= FBIPMIN ? FBIPMIN : x;
 131:/Users/reza.kalfane/Workspaces/Daisy/DaisyExamples/libDaisy/src/daisy_core.h ****     x = x >= FBIPMAX ? FBIPMAX : x;
 132:/Users/reza.kalfane/Workspaces/Daisy/DaisyExamples/libDaisy/src/daisy_core.h ****     return (int32_t)(x * F2S16_SCALE);
 133:/Users/reza.kalfane/Workspaces/Daisy/DaisyExamples/libDaisy/src/daisy_core.h **** }
 134:/Users/reza.kalfane/Workspaces/Daisy/DaisyExamples/libDaisy/src/daisy_core.h **** 
 135:/Users/reza.kalfane/Workspaces/Daisy/DaisyExamples/libDaisy/src/daisy_core.h **** /**
 136:/Users/reza.kalfane/Workspaces/Daisy/DaisyExamples/libDaisy/src/daisy_core.h ****     Converts Signed 24-bit to float
 137:/Users/reza.kalfane/Workspaces/Daisy/DaisyExamples/libDaisy/src/daisy_core.h ****  */
 138:/Users/reza.kalfane/Workspaces/Daisy/DaisyExamples/libDaisy/src/daisy_core.h **** FORCE_INLINE float s242f(int32_t x)
 139:/Users/reza.kalfane/Workspaces/Daisy/DaisyExamples/libDaisy/src/daisy_core.h **** {
 140:/Users/reza.kalfane/Workspaces/Daisy/DaisyExamples/libDaisy/src/daisy_core.h ****     x = (x ^ S24SIGN) - S24SIGN; //sign extend aka ((x<<8)>>8)
 141:/Users/reza.kalfane/Workspaces/Daisy/DaisyExamples/libDaisy/src/daisy_core.h ****     return (float)x * S242F_SCALE;
 142:/Users/reza.kalfane/Workspaces/Daisy/DaisyExamples/libDaisy/src/daisy_core.h **** }
 143:/Users/reza.kalfane/Workspaces/Daisy/DaisyExamples/libDaisy/src/daisy_core.h **** /**
 144:/Users/reza.kalfane/Workspaces/Daisy/DaisyExamples/libDaisy/src/daisy_core.h ****     Converts float to Signed 24-bit
 145:/Users/reza.kalfane/Workspaces/Daisy/DaisyExamples/libDaisy/src/daisy_core.h ****  */
 146:/Users/reza.kalfane/Workspaces/Daisy/DaisyExamples/libDaisy/src/daisy_core.h **** FORCE_INLINE int32_t f2s24(float x)
 147:/Users/reza.kalfane/Workspaces/Daisy/DaisyExamples/libDaisy/src/daisy_core.h **** {
 148:/Users/reza.kalfane/Workspaces/Daisy/DaisyExamples/libDaisy/src/daisy_core.h ****     x = x <= FBIPMIN ? FBIPMIN : x;
 149:/Users/reza.kalfane/Workspaces/Daisy/DaisyExamples/libDaisy/src/daisy_core.h ****     x = x >= FBIPMAX ? FBIPMAX : x;
 150:/Users/reza.kalfane/Workspaces/Daisy/DaisyExamples/libDaisy/src/daisy_core.h ****     return (int32_t)(x * F2S24_SCALE);
 151:/Users/reza.kalfane/Workspaces/Daisy/DaisyExamples/libDaisy/src/daisy_core.h **** }
 152:/Users/reza.kalfane/Workspaces/Daisy/DaisyExamples/libDaisy/src/daisy_core.h **** 
 153:/Users/reza.kalfane/Workspaces/Daisy/DaisyExamples/libDaisy/src/daisy_core.h **** /**
 154:/Users/reza.kalfane/Workspaces/Daisy/DaisyExamples/libDaisy/src/daisy_core.h ****     Converts Signed 32-bit to float
 155:/Users/reza.kalfane/Workspaces/Daisy/DaisyExamples/libDaisy/src/daisy_core.h ****  */
 156:/Users/reza.kalfane/Workspaces/Daisy/DaisyExamples/libDaisy/src/daisy_core.h **** FORCE_INLINE float s322f(int32_t x)
 157:/Users/reza.kalfane/Workspaces/Daisy/DaisyExamples/libDaisy/src/daisy_core.h **** {
 158:/Users/reza.kalfane/Workspaces/Daisy/DaisyExamples/libDaisy/src/daisy_core.h ****     return (float)x * S322F_SCALE;
 159:/Users/reza.kalfane/Workspaces/Daisy/DaisyExamples/libDaisy/src/daisy_core.h **** }
 160:/Users/reza.kalfane/Workspaces/Daisy/DaisyExamples/libDaisy/src/daisy_core.h **** /**
 161:/Users/reza.kalfane/Workspaces/Daisy/DaisyExamples/libDaisy/src/daisy_core.h ****     Converts float to Signed 24-bit
 162:/Users/reza.kalfane/Workspaces/Daisy/DaisyExamples/libDaisy/src/daisy_core.h ****  */
 163:/Users/reza.kalfane/Workspaces/Daisy/DaisyExamples/libDaisy/src/daisy_core.h **** FORCE_INLINE int32_t f2s32(float x)
 164:/Users/reza.kalfane/Workspaces/Daisy/DaisyExamples/libDaisy/src/daisy_core.h **** {
 165:/Users/reza.kalfane/Workspaces/Daisy/DaisyExamples/libDaisy/src/daisy_core.h ****     x = x <= FBIPMIN ? FBIPMIN : x;
 166:/Users/reza.kalfane/Workspaces/Daisy/DaisyExamples/libDaisy/src/daisy_core.h ****     x = x >= FBIPMAX ? FBIPMAX : x;
 167:/Users/reza.kalfane/Workspaces/Daisy/DaisyExamples/libDaisy/src/daisy_core.h ****     return (int32_t)(x * F2S32_SCALE);
 168:/Users/reza.kalfane/Workspaces/Daisy/DaisyExamples/libDaisy/src/daisy_core.h **** }
 169:/Users/reza.kalfane/Workspaces/Daisy/DaisyExamples/libDaisy/src/daisy_core.h **** 
 170:/Users/reza.kalfane/Workspaces/Daisy/DaisyExamples/libDaisy/src/daisy_core.h **** 
 171:/Users/reza.kalfane/Workspaces/Daisy/DaisyExamples/libDaisy/src/daisy_core.h **** /** Enums and a simple struct for defining a hardware pin on the MCU
 172:/Users/reza.kalfane/Workspaces/Daisy/DaisyExamples/libDaisy/src/daisy_core.h ****  *  These correlate with the stm32 datasheet, and are used to configure
 173:/Users/reza.kalfane/Workspaces/Daisy/DaisyExamples/libDaisy/src/daisy_core.h ****  *  the hardware.
 174:/Users/reza.kalfane/Workspaces/Daisy/DaisyExamples/libDaisy/src/daisy_core.h ****  * 
 175:/Users/reza.kalfane/Workspaces/Daisy/DaisyExamples/libDaisy/src/daisy_core.h ****  *  This along with the dsy_gpio_pin class should no longer be used.
ARM GAS  /tmp/claude-502/ccZj3JyB.s 			page 279


 176:/Users/reza.kalfane/Workspaces/Daisy/DaisyExamples/libDaisy/src/daisy_core.h ****  *  They are available for backwards compatability. 
 177:/Users/reza.kalfane/Workspaces/Daisy/DaisyExamples/libDaisy/src/daisy_core.h ****  * 
 178:/Users/reza.kalfane/Workspaces/Daisy/DaisyExamples/libDaisy/src/daisy_core.h ****  *  Please use GPIOPort enum and the Pin struct instead.
 179:/Users/reza.kalfane/Workspaces/Daisy/DaisyExamples/libDaisy/src/daisy_core.h ****  */
 180:/Users/reza.kalfane/Workspaces/Daisy/DaisyExamples/libDaisy/src/daisy_core.h **** typedef enum
 181:/Users/reza.kalfane/Workspaces/Daisy/DaisyExamples/libDaisy/src/daisy_core.h **** {
 182:/Users/reza.kalfane/Workspaces/Daisy/DaisyExamples/libDaisy/src/daisy_core.h ****     DSY_GPIOA, /**< & */
 183:/Users/reza.kalfane/Workspaces/Daisy/DaisyExamples/libDaisy/src/daisy_core.h ****     DSY_GPIOB, /**< & */
 184:/Users/reza.kalfane/Workspaces/Daisy/DaisyExamples/libDaisy/src/daisy_core.h ****     DSY_GPIOC, /**< & */
 185:/Users/reza.kalfane/Workspaces/Daisy/DaisyExamples/libDaisy/src/daisy_core.h ****     DSY_GPIOD, /**< & */
 186:/Users/reza.kalfane/Workspaces/Daisy/DaisyExamples/libDaisy/src/daisy_core.h ****     DSY_GPIOE, /**< & */
 187:/Users/reza.kalfane/Workspaces/Daisy/DaisyExamples/libDaisy/src/daisy_core.h ****     DSY_GPIOF, /**< & */
 188:/Users/reza.kalfane/Workspaces/Daisy/DaisyExamples/libDaisy/src/daisy_core.h ****     DSY_GPIOG, /**< & */
 189:/Users/reza.kalfane/Workspaces/Daisy/DaisyExamples/libDaisy/src/daisy_core.h ****     DSY_GPIOH, /**< & */
 190:/Users/reza.kalfane/Workspaces/Daisy/DaisyExamples/libDaisy/src/daisy_core.h ****     DSY_GPIOI, /**< & */
 191:/Users/reza.kalfane/Workspaces/Daisy/DaisyExamples/libDaisy/src/daisy_core.h ****     DSY_GPIOJ, /**< & */
 192:/Users/reza.kalfane/Workspaces/Daisy/DaisyExamples/libDaisy/src/daisy_core.h ****     DSY_GPIOK, /**< & */
 193:/Users/reza.kalfane/Workspaces/Daisy/DaisyExamples/libDaisy/src/daisy_core.h ****     DSY_GPIOX, /** This is a non-existant port for unsupported bits of hardware. */
 194:/Users/reza.kalfane/Workspaces/Daisy/DaisyExamples/libDaisy/src/daisy_core.h ****     DSY_GPIO_LAST, /** Final enum member */
 195:/Users/reza.kalfane/Workspaces/Daisy/DaisyExamples/libDaisy/src/daisy_core.h **** } dsy_gpio_port;
 196:/Users/reza.kalfane/Workspaces/Daisy/DaisyExamples/libDaisy/src/daisy_core.h **** 
 197:/Users/reza.kalfane/Workspaces/Daisy/DaisyExamples/libDaisy/src/daisy_core.h **** /** Hardware define pins 
 198:/Users/reza.kalfane/Workspaces/Daisy/DaisyExamples/libDaisy/src/daisy_core.h ****  *  
 199:/Users/reza.kalfane/Workspaces/Daisy/DaisyExamples/libDaisy/src/daisy_core.h ****  *  The dsy_gpio_pin struct should no longer be used, and is only available for
 200:/Users/reza.kalfane/Workspaces/Daisy/DaisyExamples/libDaisy/src/daisy_core.h ****  *  backwards compatability.
 201:/Users/reza.kalfane/Workspaces/Daisy/DaisyExamples/libDaisy/src/daisy_core.h ****  * 
 202:/Users/reza.kalfane/Workspaces/Daisy/DaisyExamples/libDaisy/src/daisy_core.h ****  *  Please use Pin struct instead.
 203:/Users/reza.kalfane/Workspaces/Daisy/DaisyExamples/libDaisy/src/daisy_core.h ****  */
 204:/Users/reza.kalfane/Workspaces/Daisy/DaisyExamples/libDaisy/src/daisy_core.h **** typedef struct
 205:/Users/reza.kalfane/Workspaces/Daisy/DaisyExamples/libDaisy/src/daisy_core.h **** {
 206:/Users/reza.kalfane/Workspaces/Daisy/DaisyExamples/libDaisy/src/daisy_core.h ****     dsy_gpio_port port; /**< & */
 207:/Users/reza.kalfane/Workspaces/Daisy/DaisyExamples/libDaisy/src/daisy_core.h ****     uint8_t       pin;  /**< number 0-15 */
 208:/Users/reza.kalfane/Workspaces/Daisy/DaisyExamples/libDaisy/src/daisy_core.h **** } dsy_gpio_pin;
 209:/Users/reza.kalfane/Workspaces/Daisy/DaisyExamples/libDaisy/src/daisy_core.h **** 
 210:/Users/reza.kalfane/Workspaces/Daisy/DaisyExamples/libDaisy/src/daisy_core.h **** /** Helper for creating pins from port/pin combos easily
 211:/Users/reza.kalfane/Workspaces/Daisy/DaisyExamples/libDaisy/src/daisy_core.h ****  * 
 212:/Users/reza.kalfane/Workspaces/Daisy/DaisyExamples/libDaisy/src/daisy_core.h ****  *  The dsy_gpio_pin struct should no longer be used, and is only available for
 213:/Users/reza.kalfane/Workspaces/Daisy/DaisyExamples/libDaisy/src/daisy_core.h ****  *  backwards compatability.
 214:/Users/reza.kalfane/Workspaces/Daisy/DaisyExamples/libDaisy/src/daisy_core.h ****  * 
 215:/Users/reza.kalfane/Workspaces/Daisy/DaisyExamples/libDaisy/src/daisy_core.h ****  *  Please use Pin struct instead.
 216:/Users/reza.kalfane/Workspaces/Daisy/DaisyExamples/libDaisy/src/daisy_core.h **** */
 217:/Users/reza.kalfane/Workspaces/Daisy/DaisyExamples/libDaisy/src/daisy_core.h **** FORCE_INLINE dsy_gpio_pin dsy_pin(dsy_gpio_port port, uint8_t pin)
 218:/Users/reza.kalfane/Workspaces/Daisy/DaisyExamples/libDaisy/src/daisy_core.h **** {
 219:/Users/reza.kalfane/Workspaces/Daisy/DaisyExamples/libDaisy/src/daisy_core.h ****     dsy_gpio_pin p;
 220:/Users/reza.kalfane/Workspaces/Daisy/DaisyExamples/libDaisy/src/daisy_core.h ****     p.port = port;
 221:/Users/reza.kalfane/Workspaces/Daisy/DaisyExamples/libDaisy/src/daisy_core.h ****     p.pin  = pin;
 222:/Users/reza.kalfane/Workspaces/Daisy/DaisyExamples/libDaisy/src/daisy_core.h ****     return p;
 223:/Users/reza.kalfane/Workspaces/Daisy/DaisyExamples/libDaisy/src/daisy_core.h **** }
 224:/Users/reza.kalfane/Workspaces/Daisy/DaisyExamples/libDaisy/src/daisy_core.h **** 
 225:/Users/reza.kalfane/Workspaces/Daisy/DaisyExamples/libDaisy/src/daisy_core.h **** /** Helper for testing sameness of two dsy_gpio_pins
 226:/Users/reza.kalfane/Workspaces/Daisy/DaisyExamples/libDaisy/src/daisy_core.h ****  *  \return    1 if same, 0 if different
 227:/Users/reza.kalfane/Workspaces/Daisy/DaisyExamples/libDaisy/src/daisy_core.h ****  * 
 228:/Users/reza.kalfane/Workspaces/Daisy/DaisyExamples/libDaisy/src/daisy_core.h ****  *  The dsy_gpio_pin struct should no longer be used, and is only available for
 229:/Users/reza.kalfane/Workspaces/Daisy/DaisyExamples/libDaisy/src/daisy_core.h ****  *  backwards compatability.
 230:/Users/reza.kalfane/Workspaces/Daisy/DaisyExamples/libDaisy/src/daisy_core.h ****  * 
 231:/Users/reza.kalfane/Workspaces/Daisy/DaisyExamples/libDaisy/src/daisy_core.h ****  *  Please use Pin struct instead.
 232:/Users/reza.kalfane/Workspaces/Daisy/DaisyExamples/libDaisy/src/daisy_core.h ****  */
ARM GAS  /tmp/claude-502/ccZj3JyB.s 			page 280


 233:/Users/reza.kalfane/Workspaces/Daisy/DaisyExamples/libDaisy/src/daisy_core.h **** FORCE_INLINE uint8_t dsy_pin_cmp(dsy_gpio_pin *a, dsy_gpio_pin *b)
 234:/Users/reza.kalfane/Workspaces/Daisy/DaisyExamples/libDaisy/src/daisy_core.h **** {
 235:/Users/reza.kalfane/Workspaces/Daisy/DaisyExamples/libDaisy/src/daisy_core.h ****     return ((a->port == b->port) && (a->pin == b->pin));
 236:/Users/reza.kalfane/Workspaces/Daisy/DaisyExamples/libDaisy/src/daisy_core.h **** }
 237:/Users/reza.kalfane/Workspaces/Daisy/DaisyExamples/libDaisy/src/daisy_core.h **** 
 238:/Users/reza.kalfane/Workspaces/Daisy/DaisyExamples/libDaisy/src/daisy_core.h **** #ifdef __cplusplus
 239:/Users/reza.kalfane/Workspaces/Daisy/DaisyExamples/libDaisy/src/daisy_core.h **** 
 240:/Users/reza.kalfane/Workspaces/Daisy/DaisyExamples/libDaisy/src/daisy_core.h **** namespace daisy
 241:/Users/reza.kalfane/Workspaces/Daisy/DaisyExamples/libDaisy/src/daisy_core.h **** {
 242:/Users/reza.kalfane/Workspaces/Daisy/DaisyExamples/libDaisy/src/daisy_core.h **** /** @brief GPIO Port names */
 243:/Users/reza.kalfane/Workspaces/Daisy/DaisyExamples/libDaisy/src/daisy_core.h **** enum GPIOPort
 244:/Users/reza.kalfane/Workspaces/Daisy/DaisyExamples/libDaisy/src/daisy_core.h **** {
 245:/Users/reza.kalfane/Workspaces/Daisy/DaisyExamples/libDaisy/src/daisy_core.h ****     PORTA, /**< Port A */
 246:/Users/reza.kalfane/Workspaces/Daisy/DaisyExamples/libDaisy/src/daisy_core.h ****     PORTB, /**< Port B */
 247:/Users/reza.kalfane/Workspaces/Daisy/DaisyExamples/libDaisy/src/daisy_core.h ****     PORTC, /**< Port C */
 248:/Users/reza.kalfane/Workspaces/Daisy/DaisyExamples/libDaisy/src/daisy_core.h ****     PORTD, /**< Port D */
 249:/Users/reza.kalfane/Workspaces/Daisy/DaisyExamples/libDaisy/src/daisy_core.h ****     PORTE, /**< Port E */
 250:/Users/reza.kalfane/Workspaces/Daisy/DaisyExamples/libDaisy/src/daisy_core.h ****     PORTF, /**< Port F */
 251:/Users/reza.kalfane/Workspaces/Daisy/DaisyExamples/libDaisy/src/daisy_core.h ****     PORTG, /**< Port G */
 252:/Users/reza.kalfane/Workspaces/Daisy/DaisyExamples/libDaisy/src/daisy_core.h ****     PORTH, /**< Port H */
 253:/Users/reza.kalfane/Workspaces/Daisy/DaisyExamples/libDaisy/src/daisy_core.h ****     PORTI, /**< Port I */
 254:/Users/reza.kalfane/Workspaces/Daisy/DaisyExamples/libDaisy/src/daisy_core.h ****     PORTJ, /**< Port J */
 255:/Users/reza.kalfane/Workspaces/Daisy/DaisyExamples/libDaisy/src/daisy_core.h ****     PORTK, /**< Port K */
 256:/Users/reza.kalfane/Workspaces/Daisy/DaisyExamples/libDaisy/src/daisy_core.h ****     PORTX, /**< Used as a dummy port to signal an invalid pin. */
 257:/Users/reza.kalfane/Workspaces/Daisy/DaisyExamples/libDaisy/src/daisy_core.h **** };
 258:/Users/reza.kalfane/Workspaces/Daisy/DaisyExamples/libDaisy/src/daisy_core.h **** 
 259:/Users/reza.kalfane/Workspaces/Daisy/DaisyExamples/libDaisy/src/daisy_core.h **** /** @brief representation of hardware port/pin combination */
 260:/Users/reza.kalfane/Workspaces/Daisy/DaisyExamples/libDaisy/src/daisy_core.h **** struct Pin
 261:/Users/reza.kalfane/Workspaces/Daisy/DaisyExamples/libDaisy/src/daisy_core.h **** {
 262:/Users/reza.kalfane/Workspaces/Daisy/DaisyExamples/libDaisy/src/daisy_core.h ****     GPIOPort port;
 263:/Users/reza.kalfane/Workspaces/Daisy/DaisyExamples/libDaisy/src/daisy_core.h ****     uint8_t  pin;
 264:/Users/reza.kalfane/Workspaces/Daisy/DaisyExamples/libDaisy/src/daisy_core.h **** 
 265:/Users/reza.kalfane/Workspaces/Daisy/DaisyExamples/libDaisy/src/daisy_core.h ****     /** @brief Constructor creates a valid pin. 
 266:/Users/reza.kalfane/Workspaces/Daisy/DaisyExamples/libDaisy/src/daisy_core.h ****      *  @param pt GPIOPort between PA, and PK corresponding to STM32 Port.
 267:/Users/reza.kalfane/Workspaces/Daisy/DaisyExamples/libDaisy/src/daisy_core.h ****      *  @param pn pin number in range of 0-15
 268:/Users/reza.kalfane/Workspaces/Daisy/DaisyExamples/libDaisy/src/daisy_core.h ****     */
 269:/Users/reza.kalfane/Workspaces/Daisy/DaisyExamples/libDaisy/src/daisy_core.h ****     constexpr Pin(const GPIOPort pt, const uint8_t pn) : port(pt), pin(pn) {}
 270:/Users/reza.kalfane/Workspaces/Daisy/DaisyExamples/libDaisy/src/daisy_core.h **** 
 271:/Users/reza.kalfane/Workspaces/Daisy/DaisyExamples/libDaisy/src/daisy_core.h ****     /** @brief Basic Constructor creates an invalid Pin object */
 272:/Users/reza.kalfane/Workspaces/Daisy/DaisyExamples/libDaisy/src/daisy_core.h ****     constexpr Pin() : port(PORTX), pin(255) {}
 10582              		.loc 11 272 15 view .LVU3185
 10583              		.loc 11 272 15 is_stmt 0 view .LVU3186
 10584              	.LBE1701:
 10585              	.LBE1700:
 10586              	.LBE1699:
 10587              	.LBE1698:
 10588              		.loc 10 74 12 view .LVU3187
 10589 0016 0C49     		ldr	r1, .L679+12
 10590 0018 4FF60B70 		movw	r0, #65291
 10591              	.LBE1697:
 10592              	.LBE1696:
 10593              	.LBB1710:
 10594              	.LBB1711:
 10595 001c 0B4A     		ldr	r2, .L679+16
 10596              	.LBE1711:
 10597              	.LBE1710:
 10598              	.LBB1721:
ARM GAS  /tmp/claude-502/ccZj3JyB.s 			page 281


 10599              	.LBB1722:
 10600 001e 0C4B     		ldr	r3, .L679+20
 10601              	.LBE1722:
 10602              	.LBE1721:
 10603              	.LBB1728:
 10604              	.LBB1708:
 10605 0020 0860     		str	r0, [r1]
 10606              	.LBB1706:
 10607              	.LBB1704:
 10608              	.LBB1702:
  69:/Users/reza.kalfane/Workspaces/Daisy/DaisyExamples/libDaisy/src/per/gpio.h ****         {
 10609              		.loc 10 69 73 view .LVU3188
 10610 0022 CC60     		str	r4, [r1, #12]
 10611              	.LVL882:
  69:/Users/reza.kalfane/Workspaces/Daisy/DaisyExamples/libDaisy/src/per/gpio.h ****         {
 10612              		.loc 10 69 73 view .LVU3189
 10613              	.LBE1702:
 10614              	.LBE1704:
 10615              	.LBE1706:
 10616              	.LBE1708:
 10617              	.LBE1728:
 10618              	.LBB1729:
 10619              	.LBI1710:
 10620              		.loc 10 74 5 is_stmt 1 view .LVU3190
 10621              	.LBB1719:
 10622              	.LBB1712:
 10623              	.LBI1712:
  68:/Users/reza.kalfane/Workspaces/Daisy/DaisyExamples/libDaisy/src/per/gpio.h ****         : pin(), mode(Mode::INPUT), pull(Pull::NOPULL), speed(Speed::LOW)
 10624              		.loc 10 68 9 view .LVU3191
 10625              	.LBB1713:
 10626              	.LBB1714:
 10627              	.LBB1715:
 10628              	.LBI1715:
 10629              		.loc 11 272 15 view .LVU3192
 10630              		.loc 11 272 15 is_stmt 0 view .LVU3193
 10631              	.LBE1715:
 10632              	.LBE1714:
 10633              	.LBE1713:
 10634              	.LBE1712:
 10635              	.LBE1719:
 10636              	.LBE1729:
 10637              	.LBB1730:
 10638              	.LBB1709:
 10639              	.LBB1707:
 10640              	.LBB1705:
 10641              	.LBB1703:
  69:/Users/reza.kalfane/Workspaces/Daisy/DaisyExamples/libDaisy/src/per/gpio.h ****         {
 10642              		.loc 10 69 73 view .LVU3194
 10643 0024 C1E90144 		strd	r4, r4, [r1, #4]
 10644              	.LBE1703:
 10645              	.LBE1705:
 10646              	.LBE1707:
 10647              	.LBE1709:
 10648              	.LBE1730:
 10649              	.LBB1731:
 10650              	.LBB1720:
 10651              	.LBB1718:
ARM GAS  /tmp/claude-502/ccZj3JyB.s 			page 282


 10652              	.LBB1717:
 10653              	.LBB1716:
 10654 0028 C2E90004 		strd	r0, r4, [r2]
 10655 002c C2E90244 		strd	r4, r4, [r2, #8]
 10656              	.LVL883:
  69:/Users/reza.kalfane/Workspaces/Daisy/DaisyExamples/libDaisy/src/per/gpio.h ****         {
 10657              		.loc 10 69 73 view .LVU3195
 10658              	.LBE1716:
 10659              	.LBE1717:
 10660              	.LBE1718:
 10661              	.LBE1720:
 10662              	.LBE1731:
 10663              	.LBB1732:
 10664              	.LBI1721:
 10665              		.loc 10 74 5 is_stmt 1 view .LVU3196
 10666              	.LBB1727:
 10667              	.LBB1723:
 10668              	.LBI1723:
  68:/Users/reza.kalfane/Workspaces/Daisy/DaisyExamples/libDaisy/src/per/gpio.h ****         : pin(), mode(Mode::INPUT), pull(Pull::NOPULL), speed(Speed::LOW)
 10669              		.loc 10 68 9 view .LVU3197
 10670              	.LBB1724:
 10671              	.LBB1725:
 10672              	.LBB1726:
 10673              	.LBI1726:
 10674              		.loc 11 272 15 view .LVU3198
 10675              		.loc 11 272 15 is_stmt 0 view .LVU3199
 10676              	.LBE1726:
  69:/Users/reza.kalfane/Workspaces/Daisy/DaisyExamples/libDaisy/src/per/gpio.h ****         {
 10677              		.loc 10 69 73 view .LVU3200
 10678 0030 C3E90004 		strd	r0, r4, [r3]
 10679 0034 C3E90244 		strd	r4, r4, [r3, #8]
 10680              	.LVL884:
  69:/Users/reza.kalfane/Workspaces/Daisy/DaisyExamples/libDaisy/src/per/gpio.h ****         {
 10681              		.loc 10 69 73 view .LVU3201
 10682              	.LBE1725:
 10683              	.LBE1724:
 10684              	.LBE1723:
 10685              	.LBE1727:
 10686              	.LBE1732:
 10687              	.LBE1733:
 10688              	.LBE1734:
 10689              		.loc 6 1334 1 view .LVU3202
 10690 0038 10BD     		pop	{r4, pc}
 10691              	.L680:
 10692 003a 00BF     		.align	2
 10693              	.L679:
 10694 003c 00000000 		.word	.LANCHOR10
 10695 0040 00000000 		.word	__dso_handle
 10696 0044 00000000 		.word	_ZN5daisy9DaisySeedD1Ev
 10697 0048 00000000 		.word	.LANCHOR39
 10698 004c 00000000 		.word	.LANCHOR41
 10699 0050 00000000 		.word	.LANCHOR37
 10700              		.cfi_endproc
 10701              	.LFE2636:
 10703              		.section	.init_array,"aw",%init_array
 10704              		.align	2
 10705 0000 00000000 		.word	_GLOBAL__sub_I_hw(target1)
ARM GAS  /tmp/claude-502/ccZj3JyB.s 			page 283


 10706              		.global	g_master_vol
 10707              		.global	g_led3_duty
 10708              		.global	g_amp_target
 10709              		.global	g_finger_on
 10710              		.global	g_ringmod
 10711              		.global	g_bitcrush
 10712              		.global	g_vibrato_depth
 10713              		.global	g_target_drive
 10714              		.global	g_target_detune
 10715              		.global	g_target_cutoff
 10716              		.global	g_target_freq
 10717              		.global	led3
 10718              		.global	scl
 10719              		.global	sda
 10720              		.global	hw
 10721              		.section	.rodata.str1.4,"aMS",%progbits,1
 10722              		.align	2
 10723              	.LC20:
 10724 0000 4C656164 		.ascii	"Lead\000"
 10724      00
 10725 0005 000000   		.align	2
 10726              	.LC21:
 10727 0008 42617373 		.ascii	"Bass\000"
 10727      00
 10728 000d 000000   		.align	2
 10729              	.LC22:
 10730 0010 4F70656E 		.ascii	"OpenBass\000"
 10730      42617373 
 10730      00
 10731 0019 000000   		.align	2
 10732              	.LC23:
 10733 001c 52696368 		.ascii	"RichBass\000"
 10733      42617373 
 10733      00
 10734 0025 000000   		.align	2
 10735              	.LC24:
 10736 0028 4F726761 		.ascii	"Organ\000"
 10736      6E00
 10737 002e 0000     		.align	2
 10738              	.LC25:
 10739 0030 53637265 		.ascii	"Scream\000"
 10739      616D00
 10740 0037 00       		.align	2
 10741              	.LC26:
 10742 0038 436C6F73 		.ascii	"ClosedBass\000"
 10742      65644261 
 10742      737300
 10743              		.section	.bss._ZL10s_bitcrush,"aw",%nobits
 10744              		.align	2
 10745              		.set	.LANCHOR22,. + 0
 10748              	_ZL10s_bitcrush:
 10749 0000 00000000 		.space	4
 10750              		.section	.bss._ZL10s_phase_rm,"aw",%nobits
 10751              		.align	2
 10752              		.set	.LANCHOR33,. + 0
 10755              	_ZL10s_phase_rm:
 10756 0000 00000000 		.space	4
ARM GAS  /tmp/claude-502/ccZj3JyB.s 			page 284


 10757              		.section	.bss._ZL10s_vibdepth,"aw",%nobits
 10758              		.align	2
 10759              		.set	.LANCHOR20,. + 0
 10762              	_ZL10s_vibdepth:
 10763 0000 00000000 		.space	4
 10764              		.section	.bss._ZL11g_voice_idx,"aw",%nobits
 10765              		.align	2
 10766              		.set	.LANCHOR11,. + 0
 10769              	_ZL11g_voice_idx:
 10770 0000 00000000 		.space	4
 10771              		.section	.bss._ZL11s_lfo_phase,"aw",%nobits
 10772              		.align	2
 10773              		.set	.LANCHOR27,. + 0
 10776              	_ZL11s_lfo_phase:
 10777 0000 00000000 		.space	4
 10778              		.section	.bss._ZL11s_phase_oct,"aw",%nobits
 10779              		.align	2
 10780              		.set	.LANCHOR31,. + 0
 10783              	_ZL11s_phase_oct:
 10784 0000 00000000 		.space	4
 10785              		.section	.bss._ZL11s_phase_sub,"aw",%nobits
 10786              		.align	2
 10787              		.set	.LANCHOR30,. + 0
 10790              	_ZL11s_phase_sub:
 10791 0000 00000000 		.space	4
 10792              		.section	.bss._ZL5s_amp,"aw",%nobits
 10793              		.align	2
 10794              		.set	.LANCHOR24,. + 0
 10797              	_ZL5s_amp:
 10798 0000 00000000 		.space	4
 10799              		.section	.bss._ZL5s_flt,"aw",%nobits
 10800              		.align	2
 10801              		.set	.LANCHOR26,. + 0
 10804              	_ZL5s_flt:
 10805 0000 00000000 		.space	16
 10805      00000000 
 10805      00000000 
 10805      00000000 
 10806              		.section	.bss._ZL7tracked,"aw",%nobits
 10807              		.align	2
 10808              		.set	.LANCHOR43,. + 0
 10811              	_ZL7tracked:
 10812 0000 00000000 		.space	40
 10812      00000000 
 10812      00000000 
 10812      00000000 
 10812      00000000 
 10813              		.section	.bss._ZL8s_detune,"aw",%nobits
 10814              		.align	2
 10815              		.set	.LANCHOR21,. + 0
 10818              	_ZL8s_detune:
 10819 0000 00000000 		.space	4
 10820              		.section	.bss._ZL8s_phase1,"aw",%nobits
 10821              		.align	2
 10822              		.set	.LANCHOR28,. + 0
 10825              	_ZL8s_phase1:
 10826 0000 00000000 		.space	4
ARM GAS  /tmp/claude-502/ccZj3JyB.s 			page 285


 10827              		.section	.bss._ZL8s_phase2,"aw",%nobits
 10828              		.align	2
 10829              		.set	.LANCHOR29,. + 0
 10832              	_ZL8s_phase2:
 10833 0000 00000000 		.space	4
 10834              		.section	.bss._ZL9s_ringmod,"aw",%nobits
 10835              		.align	2
 10836              		.set	.LANCHOR23,. + 0
 10839              	_ZL9s_ringmod:
 10840 0000 00000000 		.space	4
 10841              		.section	.bss._ZZ13AudioCallbackPKPKfPPfjE10led3_state,"aw",%nobits
 10842              		.set	.LANCHOR36,. + 0
 10845              	_ZZ13AudioCallbackPKPKfPPfjE10led3_state:
 10846 0000 00       		.space	1
 10847              		.section	.bss._ZZ13AudioCallbackPKPKfPPfjE11pwm_counter,"aw",%nobits
 10848              		.align	2
 10849              		.set	.LANCHOR35,. + 0
 10852              	_ZZ13AudioCallbackPKPKfPPfjE11pwm_counter:
 10853 0000 00000000 		.space	4
 10854              		.section	.bss._ZZ13AudioCallbackPKPKfPPfjE16led3_duty_smooth,"aw",%nobits
 10855              		.align	2
 10856              		.set	.LANCHOR34,. + 0
 10859              	_ZZ13AudioCallbackPKPKfPPfjE16led3_duty_smooth:
 10860 0000 00000000 		.space	4
 10861              		.section	.bss._ZZ13AudioCallbackPKPKfPPfjE7s_atk_c,"aw",%nobits
 10862              		.align	2
 10863              		.set	.LANCHOR15,. + 0
 10866              	_ZZ13AudioCallbackPKPKfPPfjE7s_atk_c:
 10867 0000 00000000 		.space	4
 10868              		.section	.bss._ZZ13AudioCallbackPKPKfPPfjE7s_rel_c,"aw",%nobits
 10869              		.align	2
 10870              		.set	.LANCHOR16,. + 0
 10873              	_ZZ13AudioCallbackPKPKfPPfjE7s_rel_c:
 10874 0000 00000000 		.space	4
 10875              		.section	.bss._ZZ13AudioCallbackPKPKfPPfjE9s_glide_c,"aw",%nobits
 10876              		.align	2
 10877              		.set	.LANCHOR14,. + 0
 10880              	_ZZ13AudioCallbackPKPKfPPfjE9s_glide_c:
 10881 0000 00000000 		.space	4
 10882              		.section	.bss.g_amp_target,"aw",%nobits
 10883              		.align	2
 10884              		.set	.LANCHOR8,. + 0
 10887              	g_amp_target:
 10888 0000 00000000 		.space	4
 10889              		.section	.bss.g_bitcrush,"aw",%nobits
 10890              		.align	2
 10891              		.set	.LANCHOR6,. + 0
 10894              	g_bitcrush:
 10895 0000 00000000 		.space	4
 10896              		.section	.bss.g_finger_on,"aw",%nobits
 10897              		.set	.LANCHOR46,. + 0
 10900              	g_finger_on:
 10901 0000 00       		.space	1
 10902              		.section	.bss.g_led3_duty,"aw",%nobits
 10903              		.align	2
 10904              		.set	.LANCHOR0,. + 0
 10907              	g_led3_duty:
ARM GAS  /tmp/claude-502/ccZj3JyB.s 			page 286


 10908 0000 00000000 		.space	4
 10909              		.section	.bss.g_ringmod,"aw",%nobits
 10910              		.align	2
 10911              		.set	.LANCHOR7,. + 0
 10914              	g_ringmod:
 10915 0000 00000000 		.space	4
 10916              		.section	.bss.g_target_detune,"aw",%nobits
 10917              		.align	2
 10918              		.set	.LANCHOR3,. + 0
 10921              	g_target_detune:
 10922 0000 00000000 		.space	4
 10923              		.section	.bss.g_vibrato_depth,"aw",%nobits
 10924              		.align	2
 10925              		.set	.LANCHOR5,. + 0
 10928              	g_vibrato_depth:
 10929 0000 00000000 		.space	4
 10930              		.section	.bss.hw,"aw",%nobits
 10931              		.align	2
 10932              		.set	.LANCHOR10,. + 0
 10935              	hw:
 10936 0000 00000000 		.space	64
 10936      00000000 
 10936      00000000 
 10936      00000000 
 10936      00000000 
 10937              		.section	.bss.led3,"aw",%nobits
 10938              		.align	2
 10939              		.set	.LANCHOR37,. + 0
 10942              	led3:
 10943 0000 00000000 		.space	20
 10943      00000000 
 10943      00000000 
 10943      00000000 
 10943      00000000 
 10944              		.section	.bss.scl,"aw",%nobits
 10945              		.align	2
 10946              		.set	.LANCHOR41,. + 0
 10949              	scl:
 10950 0000 00000000 		.space	20
 10950      00000000 
 10950      00000000 
 10950      00000000 
 10950      00000000 
 10951              		.section	.bss.sda,"aw",%nobits
 10952              		.align	2
 10953              		.set	.LANCHOR39,. + 0
 10956              	sda:
 10957 0000 00000000 		.space	20
 10957      00000000 
 10957      00000000 
 10957      00000000 
 10957      00000000 
 10958              		.section	.data._ZL11s_noise_rng,"aw"
 10959              		.align	2
 10960              		.set	.LANCHOR32,. + 0
 10963              	_ZL11s_noise_rng:
 10964 0000 67452301 		.word	19088743
ARM GAS  /tmp/claude-502/ccZj3JyB.s 			page 287


 10965              		.section	.data._ZL12s_master_vol,"aw"
 10966              		.align	2
 10967              		.set	.LANCHOR25,. + 0
 10970              	_ZL12s_master_vol:
 10971 0000 0000803F 		.word	1065353216
 10972              		.section	.data._ZL6s_freq,"aw"
 10973              		.align	2
 10974              		.set	.LANCHOR17,. + 0
 10977              	_ZL6s_freq:
 10978 0000 ECD18242 		.word	1115869676
 10979              		.section	.data._ZL7s_drive,"aw"
 10980              		.align	2
 10981              		.set	.LANCHOR19,. + 0
 10984              	_ZL7s_drive:
 10985 0000 0000803F 		.word	1065353216
 10986              		.section	.data._ZL8s_cutoff,"aw"
 10987              		.align	2
 10988              		.set	.LANCHOR18,. + 0
 10991              	_ZL8s_cutoff:
 10992 0000 0000C842 		.word	1120403456
 10993              		.section	.data._ZZ13AudioCallbackPKPKfPPfjE10s_coeff_vi,"aw"
 10994              		.align	2
 10995              		.set	.LANCHOR12,. + 0
 10998              	_ZZ13AudioCallbackPKPKfPPfjE10s_coeff_vi:
 10999 0000 FFFFFFFF 		.word	-1
 11000              		.section	.data.g_master_vol,"aw"
 11001              		.align	2
 11002              		.set	.LANCHOR9,. + 0
 11005              	g_master_vol:
 11006 0000 0000803F 		.word	1065353216
 11007              		.section	.data.g_target_cutoff,"aw"
 11008              		.align	2
 11009              		.set	.LANCHOR2,. + 0
 11012              	g_target_cutoff:
 11013 0000 0000C842 		.word	1120403456
 11014              		.section	.data.g_target_drive,"aw"
 11015              		.align	2
 11016              		.set	.LANCHOR4,. + 0
 11019              	g_target_drive:
 11020 0000 0000803F 		.word	1065353216
 11021              		.section	.data.g_target_freq,"aw"
 11022              		.align	2
 11023              		.set	.LANCHOR1,. + 0
 11026              	g_target_freq:
 11027 0000 ECD18242 		.word	1115869676
 11028              		.section	.rodata._ZL16PRESSURE_MAX_REF,"a"
 11029              		.align	2
 11030              		.set	.LANCHOR42,. + 0
 11033              	_ZL16PRESSURE_MAX_REF:
 11034 0000 2A000000 		.word	42
 11035 0004 23000000 		.word	35
 11036 0008 22000000 		.word	34
 11037 000c 22000000 		.word	34
 11038 0010 22000000 		.word	34
 11039 0014 22000000 		.word	34
 11040 0018 22000000 		.word	34
 11041 001c 22000000 		.word	34
ARM GAS  /tmp/claude-502/ccZj3JyB.s 			page 288


 11042 0020 21000000 		.word	33
 11043 0024 20000000 		.word	32
 11044 0028 1D000000 		.word	29
 11045 002c 1E000000 		.word	30
 11046              		.section	.rodata._ZL5SCALE,"a"
 11047              		.align	2
 11048              		.set	.LANCHOR44,. + 0
 11051              	_ZL5SCALE:
 11052 0000 00000000 		.word	0
 11053 0004 01000000 		.word	1
 11054 0008 02000000 		.word	2
 11055 000c 03000000 		.word	3
 11056 0010 04000000 		.word	4
 11057 0014 05000000 		.word	5
 11058 0018 06000000 		.word	6
 11059 001c 07000000 		.word	7
 11060 0020 08000000 		.word	8
 11061 0024 09000000 		.word	9
 11062 0028 0A000000 		.word	10
 11063 002c 0B000000 		.word	11
 11064              		.section	.rodata._ZL6VOICES,"a"
 11065              		.align	2
 11066              		.set	.LANCHOR13,. + 0
 11069              	_ZL6VOICES:
 11070 0000 00000000 		.word	.LC20
 11071 0004 00004842 		.word	1112014848
 11072 0008 00009643 		.word	1133903872
 11073 000c 6458E53F 		.word	1071994980
 11074 0010 0000803F 		.word	1065353216
 11075 0014 0000003F 		.word	1056964608
 11076 0018 00       		.byte	0
 11077 0019 000000   		.space	3
 11078 001c 0000803F 		.word	1065353216
 11079 0020 AE47613E 		.word	1046562734
 11080 0024 00       		.byte	0
 11081 0025 000000   		.space	3
 11082 0028 0000003F 		.word	1056964608
 11083 002c EC51383E 		.word	1043878380
 11084 0030 00       		.byte	0
 11085 0031 000000   		.space	3
 11086 0034 00000040 		.word	1073741824
 11087 0038 9A99193E 		.word	1041865114
 11088 003c 00       		.byte	0
 11089 003d 01       		.byte	1
 11090 003e 0000     		.space	2
 11091 0040 9A99993E 		.word	1050253722
 11092 0044 00004041 		.word	1094713344
 11093 0048 0000403F 		.word	1061158912
 11094 004c 00002040 		.word	1075838976
 11095 0050 00000000 		.word	0
 11096 0054 0000803F 		.word	1065353216
 11097 0058 0000803F 		.word	1065353216
 11098 005c 9A99193E 		.word	1041865114
 11099 0060 EC51383E 		.word	1043878380
 11100 0064 00008040 		.word	1082130432
 11101 0068 0000C843 		.word	1137180672
 11102 006c 00002042 		.word	1109393408
ARM GAS  /tmp/claude-502/ccZj3JyB.s 			page 289


 11103 0070 08000000 		.word	.LC21
 11104 0074 00002042 		.word	1109393408
 11105 0078 00002043 		.word	1126170624
 11106 007c F371B13F 		.word	1068593651
 11107 0080 0000803F 		.word	1065353216
 11108 0084 6666E63E 		.word	1055286886
 11109 0088 00       		.byte	0
 11110 0089 000000   		.space	3
 11111 008c 9FC8BF3F 		.word	1069533343
 11112 0090 9A99993E 		.word	1050253722
 11113 0094 00       		.byte	0
 11114 0095 000000   		.space	3
 11115 0098 0000003F 		.word	1056964608
 11116 009c 7B14AE3E 		.word	1051595899
 11117 00a0 00       		.byte	0
 11118 00a1 000000   		.space	3
 11119 00a4 00000040 		.word	1073741824
 11120 00a8 CDCC4C3E 		.word	1045220557
 11121 00ac 00       		.byte	0
 11122 00ad 00       		.byte	0
 11123 00ae 0000     		.space	2
 11124 00b0 0000803E 		.word	1048576000
 11125 00b4 0000E040 		.word	1088421888
 11126 00b8 0000003F 		.word	1056964608
 11127 00bc 0000803F 		.word	1065353216
 11128 00c0 00000000 		.word	0
 11129 00c4 0000803F 		.word	1065353216
 11130 00c8 0000803F 		.word	1065353216
 11131 00cc 8FC2F53D 		.word	1039516303
 11132 00d0 8FC2F53D 		.word	1039516303
 11133 00d4 0000C040 		.word	1086324736
 11134 00d8 00009643 		.word	1133903872
 11135 00dc 0000C841 		.word	1103626240
 11136 00e0 10000000 		.word	.LC22
 11137 00e4 00002042 		.word	1109393408
 11138 00e8 00003443 		.word	1127481344
 11139 00ec B285C03F 		.word	1069581746
 11140 00f0 0000803F 		.word	1065353216
 11141 00f4 6666E63E 		.word	1055286886
 11142 00f8 00       		.byte	0
 11143 00f9 000000   		.space	3
 11144 00fc 9FC8BF3F 		.word	1069533343
 11145 0100 9A99993E 		.word	1050253722
 11146 0104 00       		.byte	0
 11147 0105 000000   		.space	3
 11148 0108 0000003F 		.word	1056964608
 11149 010c 9A99993E 		.word	1050253722
 11150 0110 00       		.byte	0
 11151 0111 000000   		.space	3
 11152 0114 00000040 		.word	1073741824
 11153 0118 AE47613E 		.word	1046562734
 11154 011c 00       		.byte	0
 11155 011d 00       		.byte	0
 11156 011e 0000     		.space	2
 11157 0120 0000003F 		.word	1056964608
 11158 0124 00002041 		.word	1092616192
 11159 0128 6666263F 		.word	1059481190
ARM GAS  /tmp/claude-502/ccZj3JyB.s 			page 290


 11160 012c 6666E63F 		.word	1072064102
 11161 0130 00000000 		.word	0
 11162 0134 0000803F 		.word	1065353216
 11163 0138 0000803F 		.word	1065353216
 11164 013c 9A99193E 		.word	1041865114
 11165 0140 9A99193E 		.word	1041865114
 11166 0144 0000A040 		.word	1084227584
 11167 0148 0000AF43 		.word	1135542272
 11168 014c 0000C841 		.word	1103626240
 11169 0150 1C000000 		.word	.LC23
 11170 0154 00002042 		.word	1109393408
 11171 0158 00002043 		.word	1126170624
 11172 015c F371B13F 		.word	1068593651
 11173 0160 0000803F 		.word	1065353216
 11174 0164 CDCCCC3E 		.word	1053609165
 11175 0168 03       		.byte	3
 11176 0169 000000   		.space	3
 11177 016c 9FC8BF3F 		.word	1069533343
 11178 0170 B81E853E 		.word	1048911544
 11179 0174 02       		.byte	2
 11180 0175 000000   		.space	3
 11181 0178 0000003F 		.word	1056964608
 11182 017c 0AD7A33E 		.word	1050924810
 11183 0180 01       		.byte	1
 11184 0181 000000   		.space	3
 11185 0184 00000040 		.word	1073741824
 11186 0188 EC51383E 		.word	1043878380
 11187 018c 03       		.byte	3
 11188 018d 00       		.byte	0
 11189 018e 0000     		.space	2
 11190 0190 CDCC4C3E 		.word	1045220557
 11191 0194 00005041 		.word	1095761920
 11192 0198 85EB513F 		.word	1062333317
 11193 019c CDCC0C40 		.word	1074580685
 11194 01a0 00000000 		.word	0
 11195 01a4 0000803F 		.word	1065353216
 11196 01a8 0000803F 		.word	1065353216
 11197 01ac CDCC4C3E 		.word	1045220557
 11198 01b0 CDCC4C3E 		.word	1045220557
 11199 01b4 00004040 		.word	1077936128
 11200 01b8 00007A43 		.word	1132068864
 11201 01bc 00009041 		.word	1099956224
 11202 01c0 28000000 		.word	.LC24
 11203 01c4 00008242 		.word	1115815936
 11204 01c8 00000244 		.word	1140981760
 11205 01cc 8C150540 		.word	1074075020
 11206 01d0 0000803F 		.word	1065353216
 11207 01d4 6666E63E 		.word	1055286886
 11208 01d8 01       		.byte	1
 11209 01d9 000000   		.space	3
 11210 01dc D7A3803F 		.word	1065395159
 11211 01e0 CDCCCC3E 		.word	1053609165
 11212 01e4 01       		.byte	1
 11213 01e5 000000   		.space	3
 11214 01e8 0000003F 		.word	1056964608
 11215 01ec 9A99993E 		.word	1050253722
 11216 01f0 01       		.byte	1
ARM GAS  /tmp/claude-502/ccZj3JyB.s 			page 291


 11217 01f1 000000   		.space	3
 11218 01f4 00000040 		.word	1073741824
 11219 01f8 295C8F3E 		.word	1049582633
 11220 01fc 01       		.byte	1
 11221 01fd 00       		.byte	0
 11222 01fe 0000     		.space	2
 11223 0200 00000040 		.word	1073741824
 11224 0204 0000A040 		.word	1084227584
 11225 0208 CDCC4C3E 		.word	1045220557
 11226 020c CDCC4C3F 		.word	1061997773
 11227 0210 8FC2F53C 		.word	1022739087
 11228 0214 0000803F 		.word	1065353216
 11229 0218 0000803F 		.word	1065353216
 11230 021c CDCC4C3D 		.word	1028443341
 11231 0220 00000000 		.word	0
 11232 0224 00000041 		.word	1090519040
 11233 0228 0000F042 		.word	1123024896
 11234 022c 00000041 		.word	1090519040
 11235 0230 30000000 		.word	.LC25
 11236 0234 0000B442 		.word	1119092736
 11237 0238 00003444 		.word	1144258560
 11238 023c 8C150540 		.word	1074075020
 11239 0240 0000803F 		.word	1065353216
 11240 0244 3D0AD73E 		.word	1054280253
 11241 0248 03       		.byte	3
 11242 0249 000000   		.space	3
 11243 024c 2506813F 		.word	1065420325
 11244 0250 5C8FC23E 		.word	1052938076
 11245 0254 03       		.byte	3
 11246 0255 000000   		.space	3
 11247 0258 0000003F 		.word	1056964608
 11248 025c CDCC4C3E 		.word	1045220557
 11249 0260 03       		.byte	3
 11250 0261 000000   		.space	3
 11251 0264 00000040 		.word	1073741824
 11252 0268 9A99993E 		.word	1050253722
 11253 026c 03       		.byte	3
 11254 026d 00       		.byte	0
 11255 026e 0000     		.space	2
 11256 0270 00004040 		.word	1077936128
 11257 0274 00003041 		.word	1093664768
 11258 0278 6666663F 		.word	1063675494
 11259 027c 00008040 		.word	1082130432
 11260 0280 CDCC4C3D 		.word	1028443341
 11261 0284 0000803F 		.word	1065353216
 11262 0288 00002040 		.word	1075838976
 11263 028c CDCCCC3E 		.word	1053609165
 11264 0290 9A99993E 		.word	1050253722
 11265 0294 00000040 		.word	1073741824
 11266 0298 00004843 		.word	1128792064
 11267 029c 00000C42 		.word	1108082688
 11268 02a0 38000000 		.word	.LC26
 11269 02a4 00000C42 		.word	1108082688
 11270 02a8 00000C43 		.word	1124859904
 11271 02ac F371B13F 		.word	1068593651
 11272 02b0 0000803F 		.word	1065353216
 11273 02b4 3D0AD73E 		.word	1054280253
ARM GAS  /tmp/claude-502/ccZj3JyB.s 			page 292


 11274 02b8 00       		.byte	0
 11275 02b9 000000   		.space	3
 11276 02bc 9FC8BF3F 		.word	1069533343
 11277 02c0 EC51383E 		.word	1043878380
 11278 02c4 00       		.byte	0
 11279 02c5 000000   		.space	3
 11280 02c8 0000003F 		.word	1056964608
 11281 02cc AE47E13E 		.word	1054951342
 11282 02d0 01       		.byte	1
 11283 02d1 000000   		.space	3
 11284 02d4 00000040 		.word	1073741824
 11285 02d8 CDCCCC3D 		.word	1036831949
 11286 02dc 00       		.byte	0
 11287 02dd 00       		.byte	0
 11288 02de 0000     		.space	2
 11289 02e0 0000803F 		.word	1065353216
 11290 02e4 00000040 		.word	1073741824
 11291 02e8 9A99993E 		.word	1050253722
 11292 02ec 0000003F 		.word	1056964608
 11293 02f0 00000000 		.word	0
 11294 02f4 9A99193F 		.word	1058642330
 11295 02f8 0000803F 		.word	1065353216
 11296 02fc 00000000 		.word	0
 11297 0300 00000000 		.word	0
 11298 0304 00002041 		.word	1092616192
 11299 0308 0000FA43 		.word	1140457472
 11300 030c 0000F041 		.word	1106247680
 11301              		.section	.rodata._ZL7SCL_PIN,"a"
 11302              		.align	2
 11303              		.set	.LANCHOR40,. + 0
 11306              	_ZL7SCL_PIN:
 11307 0000 01       		.byte	1
 11308 0001 08       		.byte	8
 11309              		.section	.rodata._ZL7SDA_PIN,"a"
 11310              		.align	2
 11311              		.set	.LANCHOR38,. + 0
 11314              	_ZL7SDA_PIN:
 11315 0000 01       		.byte	1
 11316 0001 09       		.byte	9
 11317              		.section	.rodata._ZN5daisy4seedL2A0E,"a"
 11318              		.align	2
 11319              		.set	.LANCHOR45,. + 0
 11322              	_ZN5daisy4seedL2A0E:
 11323 0000 02       		.byte	2
 11324 0001 00       		.byte	0
 11325              		.text
 11326              	.Letext0:
 11327              		.file 12 "/Library/DaisyToolchain/0.2.0/arm/arm-none-eabi/include/machine/_default_types.h"
 11328              		.file 13 "/Library/DaisyToolchain/0.2.0/arm/arm-none-eabi/include/sys/_stdint.h"
 11329              		.file 14 "/Library/DaisyToolchain/0.2.0/arm/arm-none-eabi/include/stdint.h"
 11330              		.file 15 "/Library/DaisyToolchain/0.2.0/arm/lib/gcc/arm-none-eabi/10.3.1/include/stddef.h"
 11331              		.file 16 "/Library/DaisyToolchain/0.2.0/arm/arm-none-eabi/include/c++/10.3.1/cmath"
 11332              		.file 17 "/Library/DaisyToolchain/0.2.0/arm/arm-none-eabi/include/c++/10.3.1/bits/std_abs.h"
 11333              		.file 18 "/Library/DaisyToolchain/0.2.0/arm/arm-none-eabi/include/c++/10.3.1/cstdlib"
 11334              		.file 19 "/Library/DaisyToolchain/0.2.0/arm/arm-none-eabi/include/c++/10.3.1/cstdint"
 11335              		.file 20 "/Library/DaisyToolchain/0.2.0/arm/arm-none-eabi/include/c++/10.3.1/type_traits"
 11336              		.file 21 "/Library/DaisyToolchain/0.2.0/arm/arm-none-eabi/include/c++/10.3.1/debug/debug.h"
ARM GAS  /tmp/claude-502/ccZj3JyB.s 			page 293


 11337              		.file 22 "/Library/DaisyToolchain/0.2.0/arm/arm-none-eabi/include/c++/10.3.1/arm-none-eabi/thumb/v
 11338              		.file 23 "/Library/DaisyToolchain/0.2.0/arm/arm-none-eabi/include/c++/10.3.1/bits/algorithmfwd.h"
 11339              		.file 24 "/Library/DaisyToolchain/0.2.0/arm/arm-none-eabi/include/c++/10.3.1/bits/stl_pair.h"
 11340              		.file 25 "/Library/DaisyToolchain/0.2.0/arm/arm-none-eabi/include/c++/10.3.1/bits/exception_ptr.h"
 11341              		.file 26 "/Library/DaisyToolchain/0.2.0/arm/arm-none-eabi/include/c++/10.3.1/cstdarg"
 11342              		.file 27 "/Library/DaisyToolchain/0.2.0/arm/arm-none-eabi/include/c++/10.3.1/cstdio"
 11343              		.file 28 "/Library/DaisyToolchain/0.2.0/arm/arm-none-eabi/include/c++/10.3.1/cstring"
 11344              		.file 29 "/Library/DaisyToolchain/0.2.0/arm/arm-none-eabi/include/c++/10.3.1/bits/predefined_ops.h
 11345              		.file 30 "/Library/DaisyToolchain/0.2.0/arm/arm-none-eabi/include/sys/_types.h"
 11346              		.file 31 "/Library/DaisyToolchain/0.2.0/arm/arm-none-eabi/include/sys/reent.h"
 11347              		.file 32 "/Library/DaisyToolchain/0.2.0/arm/arm-none-eabi/include/sys/lock.h"
 11348              		.file 33 "/Library/DaisyToolchain/0.2.0/arm/arm-none-eabi/include/math.h"
 11349              		.file 34 "/Library/DaisyToolchain/0.2.0/arm/arm-none-eabi/include/stdlib.h"
 11350              		.file 35 "/Library/DaisyToolchain/0.2.0/arm/arm-none-eabi/include/c++/10.3.1/math.h"
 11351              		.file 36 "/Library/DaisyToolchain/0.2.0/arm/arm-none-eabi/include/c++/10.3.1/stdlib.h"
 11352              		.file 37 "/Users/reza.kalfane/Workspaces/Daisy/DaisyExamples/libDaisy/src/per/tim.h"
 11353              		.file 38 "/Users/reza.kalfane/Workspaces/Daisy/DaisyExamples/libDaisy/src/hid/logger_impl.h"
 11354              		.file 39 "/Users/reza.kalfane/Workspaces/Daisy/DaisyExamples/libDaisy/src/util/wav_format.h"
 11355              		.file 40 "/Users/reza.kalfane/Workspaces/Daisy/DaisyExamples/libDaisy/src/dev/max11300.h"
 11356              		.file 41 "/Users/reza.kalfane/Workspaces/Daisy/DaisyExamples/libDaisy/src/hid/logger.h"
 11357              		.file 42 "/Users/reza.kalfane/Workspaces/Daisy/DaisyExamples/libDaisy/src/dev/sdram.h"
 11358              		.file 43 "/Library/DaisyToolchain/0.2.0/arm/lib/gcc/arm-none-eabi/10.3.1/include/stdarg.h"
 11359              		.file 44 "/Library/DaisyToolchain/0.2.0/arm/arm-none-eabi/include/stdio.h"
 11360              		.file 45 "/Library/DaisyToolchain/0.2.0/arm/arm-none-eabi/include/string.h"
 11361              		.file 46 "/Users/reza.kalfane/Workspaces/Daisy/DaisyExamples/libDaisy/src/dev/sr_595.h"
 11362              		.file 47 "<built-in>"
ARM GAS  /tmp/claude-502/ccZj3JyB.s 			page 294


DEFINED SYMBOLS
                            *ABS*:0000000000000000 main.cpp
/tmp/claude-502/ccZj3JyB.s:19     .text._ZN5daisy9DaisySeedD2Ev:0000000000000000 $t
/tmp/claude-502/ccZj3JyB.s:26     .text._ZN5daisy9DaisySeedD2Ev:0000000000000000 _ZN5daisy9DaisySeedD2Ev
/tmp/claude-502/ccZj3JyB.s:26     .text._ZN5daisy9DaisySeedD2Ev:0000000000000000 _ZN5daisy9DaisySeedD1Ev
/tmp/claude-502/ccZj3JyB.s:67     .text._Z13AudioCallbackPKPKfPPfj:0000000000000000 $t
/tmp/claude-502/ccZj3JyB.s:74     .text._Z13AudioCallbackPKPKfPPfj:0000000000000000 _Z13AudioCallbackPKPKfPPfj
/tmp/claude-502/ccZj3JyB.s:514    .text._Z13AudioCallbackPKPKfPPfj:0000000000000208 $d
/tmp/claude-502/ccZj3JyB.s:547    .text._Z13AudioCallbackPKPKfPPfj:0000000000000278 $t
/tmp/claude-502/ccZj3JyB.s:1859   .text._Z13AudioCallbackPKPKfPPfj:0000000000000948 $d
/tmp/claude-502/ccZj3JyB.s:1894   .text._Z13AudioCallbackPKPKfPPfj:00000000000009c0 $t
/tmp/claude-502/ccZj3JyB.s:2710   .text._Z13AudioCallbackPKPKfPPfj:0000000000000d3c $d
/tmp/claude-502/ccZj3JyB.s:2741   .text._Z13AudioCallbackPKPKfPPfj:0000000000000d7c $t
/tmp/claude-502/ccZj3JyB.s:3219   .text._Z9i2c_startv:0000000000000000 $t
/tmp/claude-502/ccZj3JyB.s:3226   .text._Z9i2c_startv:0000000000000000 _Z9i2c_startv
/tmp/claude-502/ccZj3JyB.s:3420   .text._Z9i2c_startv:000000000000007c $d
/tmp/claude-502/ccZj3JyB.s:3430   .text._Z8i2c_stopv:0000000000000000 $t
/tmp/claude-502/ccZj3JyB.s:3437   .text._Z8i2c_stopv:0000000000000000 _Z8i2c_stopv
/tmp/claude-502/ccZj3JyB.s:3572   .text._Z8i2c_stopv:0000000000000058 $d
/tmp/claude-502/ccZj3JyB.s:3582   .text._Z14i2c_write_byteh:0000000000000000 $t
/tmp/claude-502/ccZj3JyB.s:3589   .text._Z14i2c_write_byteh:0000000000000000 _Z14i2c_write_byteh
/tmp/claude-502/ccZj3JyB.s:3914   .text._Z14i2c_write_byteh:00000000000000e4 $d
/tmp/claude-502/ccZj3JyB.s:3922   .text._Z13i2c_read_byteb:0000000000000000 $t
/tmp/claude-502/ccZj3JyB.s:3929   .text._Z13i2c_read_byteb:0000000000000000 _Z13i2c_read_byteb
/tmp/claude-502/ccZj3JyB.s:4279   .text._Z13i2c_read_byteb:00000000000000f4 $d
/tmp/claude-502/ccZj3JyB.s:4289   .text._Z9mpr_writehh:0000000000000000 $t
/tmp/claude-502/ccZj3JyB.s:4296   .text._Z9mpr_writehh:0000000000000000 _Z9mpr_writehh
/tmp/claude-502/ccZj3JyB.s:4372   .text._Z8mpr_readhPhh:0000000000000000 $t
/tmp/claude-502/ccZj3JyB.s:4379   .text._Z8mpr_readhPhh:0000000000000000 _Z8mpr_readhPhh
/tmp/claude-502/ccZj3JyB.s:4498   .text._Z8mpr_initv:0000000000000000 $t
/tmp/claude-502/ccZj3JyB.s:4505   .text._Z8mpr_initv:0000000000000000 _Z8mpr_initv
/tmp/claude-502/ccZj3JyB.s:4691   .text._Z15read_electrodesPt:0000000000000000 $t
/tmp/claude-502/ccZj3JyB.s:4698   .text._Z15read_electrodesPt:0000000000000000 _Z15read_electrodesPt
/tmp/claude-502/ccZj3JyB.s:4760   .text._Z16capture_baselinePt:0000000000000000 $t
/tmp/claude-502/ccZj3JyB.s:4767   .text._Z16capture_baselinePt:0000000000000000 _Z16capture_baselinePt
/tmp/claude-502/ccZj3JyB.s:4888   .text._Z15centroid_windowPliiS_Pi:0000000000000000 $t
/tmp/claude-502/ccZj3JyB.s:4895   .text._Z15centroid_windowPliiS_Pi:0000000000000000 _Z15centroid_windowPliiS_Pi
/tmp/claude-502/ccZj3JyB.s:5028   .text._Z12pressure_pctli:0000000000000000 $t
/tmp/claude-502/ccZj3JyB.s:5035   .text._Z12pressure_pctli:0000000000000000 _Z12pressure_pctli
/tmp/claude-502/ccZj3JyB.s:5158   .text._Z12pressure_pctli:0000000000000078 $d
/tmp/claude-502/ccZj3JyB.s:5163   .text._Z10detect_rawPlP6Finger:0000000000000000 $t
/tmp/claude-502/ccZj3JyB.s:5170   .text._Z10detect_rawPlP6Finger:0000000000000000 _Z10detect_rawPlP6Finger
/tmp/claude-502/ccZj3JyB.s:5662   .text._Z14update_trackedP6Fingeri:0000000000000000 $t
/tmp/claude-502/ccZj3JyB.s:5669   .text._Z14update_trackedP6Fingeri:0000000000000000 _Z14update_trackedP6Fingeri
/tmp/claude-502/ccZj3JyB.s:5909   .text._Z14update_trackedP6Fingeri:00000000000000e4 $d
/tmp/claude-502/ccZj3JyB.s:5916   .text._Z13quantize_midif:0000000000000000 $t
/tmp/claude-502/ccZj3JyB.s:5923   .text._Z13quantize_midif:0000000000000000 _Z13quantize_midif
/tmp/claude-502/ccZj3JyB.s:6041   .text._Z13quantize_midif:0000000000000074 $d
/tmp/claude-502/ccZj3JyB.s:6047   .text._Z8make_barPclli:0000000000000000 $t
/tmp/claude-502/ccZj3JyB.s:6054   .text._Z8make_barPclli:0000000000000000 _Z8make_barPclli
/tmp/claude-502/ccZj3JyB.s:6150   .text._Z12make_pos_barPci:0000000000000000 $t
/tmp/claude-502/ccZj3JyB.s:6157   .text._Z12make_pos_barPci:0000000000000000 _Z12make_pos_barPci
/tmp/claude-502/ccZj3JyB.s:6306   .text._Z12make_pos_barPci:0000000000000078 $d
/tmp/claude-502/ccZj3JyB.s:6311   .rodata.main.str1.4:0000000000000000 $d
/tmp/claude-502/ccZj3JyB.s:6374   .text.startup.main:0000000000000000 $t
/tmp/claude-502/ccZj3JyB.s:6381   .text.startup.main:0000000000000000 main
/tmp/claude-502/ccZj3JyB.s:7028   .text.startup.main:000000000000022c $d
ARM GAS  /tmp/claude-502/ccZj3JyB.s 			page 295


/tmp/claude-502/ccZj3JyB.s:7059   .text.startup.main:000000000000029c $t
/tmp/claude-502/ccZj3JyB.s:7549   .text.startup.main:00000000000004d4 $d
/tmp/claude-502/ccZj3JyB.s:7569   .text.startup.main:0000000000000514 $t
/tmp/claude-502/ccZj3JyB.s:8260   .text.startup.main:00000000000007a4 $d
/tmp/claude-502/ccZj3JyB.s:8284   .text.startup.main:00000000000007f4 $t
/tmp/claude-502/ccZj3JyB.s:8698   .text.startup.main:00000000000009e4 $d
/tmp/claude-502/ccZj3JyB.s:8718   .text.startup.main:0000000000000a10 $t
/tmp/claude-502/ccZj3JyB.s:9538   .text.startup.main:0000000000000db0 $d
/tmp/claude-502/ccZj3JyB.s:9571   .text.startup.main:0000000000000e08 $t
/tmp/claude-502/ccZj3JyB.s:10425  .text.startup.main:0000000000001190 $d
/tmp/claude-502/ccZj3JyB.s:10446  .text.startup._GLOBAL__sub_I_hw:0000000000000000 $t
/tmp/claude-502/ccZj3JyB.s:10452  .text.startup._GLOBAL__sub_I_hw:0000000000000000 _GLOBAL__sub_I_hw
/tmp/claude-502/ccZj3JyB.s:10694  .text.startup._GLOBAL__sub_I_hw:000000000000003c $d
/tmp/claude-502/ccZj3JyB.s:10704  .init_array:0000000000000000 $d
/tmp/claude-502/ccZj3JyB.s:11005  .data.g_master_vol:0000000000000000 g_master_vol
/tmp/claude-502/ccZj3JyB.s:10907  .bss.g_led3_duty:0000000000000000 g_led3_duty
/tmp/claude-502/ccZj3JyB.s:10887  .bss.g_amp_target:0000000000000000 g_amp_target
/tmp/claude-502/ccZj3JyB.s:10900  .bss.g_finger_on:0000000000000000 g_finger_on
/tmp/claude-502/ccZj3JyB.s:10914  .bss.g_ringmod:0000000000000000 g_ringmod
/tmp/claude-502/ccZj3JyB.s:10894  .bss.g_bitcrush:0000000000000000 g_bitcrush
/tmp/claude-502/ccZj3JyB.s:10928  .bss.g_vibrato_depth:0000000000000000 g_vibrato_depth
/tmp/claude-502/ccZj3JyB.s:11019  .data.g_target_drive:0000000000000000 g_target_drive
/tmp/claude-502/ccZj3JyB.s:10921  .bss.g_target_detune:0000000000000000 g_target_detune
/tmp/claude-502/ccZj3JyB.s:11012  .data.g_target_cutoff:0000000000000000 g_target_cutoff
/tmp/claude-502/ccZj3JyB.s:11026  .data.g_target_freq:0000000000000000 g_target_freq
/tmp/claude-502/ccZj3JyB.s:10942  .bss.led3:0000000000000000 led3
/tmp/claude-502/ccZj3JyB.s:10949  .bss.scl:0000000000000000 scl
/tmp/claude-502/ccZj3JyB.s:10956  .bss.sda:0000000000000000 sda
/tmp/claude-502/ccZj3JyB.s:10935  .bss.hw:0000000000000000 hw
/tmp/claude-502/ccZj3JyB.s:10722  .rodata.str1.4:0000000000000000 $d
/tmp/claude-502/ccZj3JyB.s:10744  .bss._ZL10s_bitcrush:0000000000000000 $d
/tmp/claude-502/ccZj3JyB.s:10748  .bss._ZL10s_bitcrush:0000000000000000 _ZL10s_bitcrush
/tmp/claude-502/ccZj3JyB.s:10751  .bss._ZL10s_phase_rm:0000000000000000 $d
/tmp/claude-502/ccZj3JyB.s:10755  .bss._ZL10s_phase_rm:0000000000000000 _ZL10s_phase_rm
/tmp/claude-502/ccZj3JyB.s:10758  .bss._ZL10s_vibdepth:0000000000000000 $d
/tmp/claude-502/ccZj3JyB.s:10762  .bss._ZL10s_vibdepth:0000000000000000 _ZL10s_vibdepth
/tmp/claude-502/ccZj3JyB.s:10765  .bss._ZL11g_voice_idx:0000000000000000 $d
/tmp/claude-502/ccZj3JyB.s:10769  .bss._ZL11g_voice_idx:0000000000000000 _ZL11g_voice_idx
/tmp/claude-502/ccZj3JyB.s:10772  .bss._ZL11s_lfo_phase:0000000000000000 $d
/tmp/claude-502/ccZj3JyB.s:10776  .bss._ZL11s_lfo_phase:0000000000000000 _ZL11s_lfo_phase
/tmp/claude-502/ccZj3JyB.s:10779  .bss._ZL11s_phase_oct:0000000000000000 $d
/tmp/claude-502/ccZj3JyB.s:10783  .bss._ZL11s_phase_oct:0000000000000000 _ZL11s_phase_oct
/tmp/claude-502/ccZj3JyB.s:10786  .bss._ZL11s_phase_sub:0000000000000000 $d
/tmp/claude-502/ccZj3JyB.s:10790  .bss._ZL11s_phase_sub:0000000000000000 _ZL11s_phase_sub
/tmp/claude-502/ccZj3JyB.s:10793  .bss._ZL5s_amp:0000000000000000 $d
/tmp/claude-502/ccZj3JyB.s:10797  .bss._ZL5s_amp:0000000000000000 _ZL5s_amp
/tmp/claude-502/ccZj3JyB.s:10800  .bss._ZL5s_flt:0000000000000000 $d
/tmp/claude-502/ccZj3JyB.s:10804  .bss._ZL5s_flt:0000000000000000 _ZL5s_flt
/tmp/claude-502/ccZj3JyB.s:10807  .bss._ZL7tracked:0000000000000000 $d
/tmp/claude-502/ccZj3JyB.s:10811  .bss._ZL7tracked:0000000000000000 _ZL7tracked
/tmp/claude-502/ccZj3JyB.s:10814  .bss._ZL8s_detune:0000000000000000 $d
/tmp/claude-502/ccZj3JyB.s:10818  .bss._ZL8s_detune:0000000000000000 _ZL8s_detune
/tmp/claude-502/ccZj3JyB.s:10821  .bss._ZL8s_phase1:0000000000000000 $d
/tmp/claude-502/ccZj3JyB.s:10825  .bss._ZL8s_phase1:0000000000000000 _ZL8s_phase1
/tmp/claude-502/ccZj3JyB.s:10828  .bss._ZL8s_phase2:0000000000000000 $d
/tmp/claude-502/ccZj3JyB.s:10832  .bss._ZL8s_phase2:0000000000000000 _ZL8s_phase2
/tmp/claude-502/ccZj3JyB.s:10835  .bss._ZL9s_ringmod:0000000000000000 $d
ARM GAS  /tmp/claude-502/ccZj3JyB.s 			page 296


/tmp/claude-502/ccZj3JyB.s:10839  .bss._ZL9s_ringmod:0000000000000000 _ZL9s_ringmod
/tmp/claude-502/ccZj3JyB.s:10845  .bss._ZZ13AudioCallbackPKPKfPPfjE10led3_state:0000000000000000 _ZZ13AudioCallbackPKPKfPPfjE10led3_state
/tmp/claude-502/ccZj3JyB.s:10846  .bss._ZZ13AudioCallbackPKPKfPPfjE10led3_state:0000000000000000 $d
/tmp/claude-502/ccZj3JyB.s:10848  .bss._ZZ13AudioCallbackPKPKfPPfjE11pwm_counter:0000000000000000 $d
/tmp/claude-502/ccZj3JyB.s:10852  .bss._ZZ13AudioCallbackPKPKfPPfjE11pwm_counter:0000000000000000 _ZZ13AudioCallbackPKPKfPPfjE11pwm_counter
/tmp/claude-502/ccZj3JyB.s:10855  .bss._ZZ13AudioCallbackPKPKfPPfjE16led3_duty_smooth:0000000000000000 $d
/tmp/claude-502/ccZj3JyB.s:10859  .bss._ZZ13AudioCallbackPKPKfPPfjE16led3_duty_smooth:0000000000000000 _ZZ13AudioCallbackPKPKfPPfjE16led3_duty_smooth
/tmp/claude-502/ccZj3JyB.s:10862  .bss._ZZ13AudioCallbackPKPKfPPfjE7s_atk_c:0000000000000000 $d
/tmp/claude-502/ccZj3JyB.s:10866  .bss._ZZ13AudioCallbackPKPKfPPfjE7s_atk_c:0000000000000000 _ZZ13AudioCallbackPKPKfPPfjE7s_atk_c
/tmp/claude-502/ccZj3JyB.s:10869  .bss._ZZ13AudioCallbackPKPKfPPfjE7s_rel_c:0000000000000000 $d
/tmp/claude-502/ccZj3JyB.s:10873  .bss._ZZ13AudioCallbackPKPKfPPfjE7s_rel_c:0000000000000000 _ZZ13AudioCallbackPKPKfPPfjE7s_rel_c
/tmp/claude-502/ccZj3JyB.s:10876  .bss._ZZ13AudioCallbackPKPKfPPfjE9s_glide_c:0000000000000000 $d
/tmp/claude-502/ccZj3JyB.s:10880  .bss._ZZ13AudioCallbackPKPKfPPfjE9s_glide_c:0000000000000000 _ZZ13AudioCallbackPKPKfPPfjE9s_glide_c
/tmp/claude-502/ccZj3JyB.s:10883  .bss.g_amp_target:0000000000000000 $d
/tmp/claude-502/ccZj3JyB.s:10890  .bss.g_bitcrush:0000000000000000 $d
/tmp/claude-502/ccZj3JyB.s:10901  .bss.g_finger_on:0000000000000000 $d
/tmp/claude-502/ccZj3JyB.s:10903  .bss.g_led3_duty:0000000000000000 $d
/tmp/claude-502/ccZj3JyB.s:10910  .bss.g_ringmod:0000000000000000 $d
/tmp/claude-502/ccZj3JyB.s:10917  .bss.g_target_detune:0000000000000000 $d
/tmp/claude-502/ccZj3JyB.s:10924  .bss.g_vibrato_depth:0000000000000000 $d
/tmp/claude-502/ccZj3JyB.s:10931  .bss.hw:0000000000000000 $d
/tmp/claude-502/ccZj3JyB.s:10938  .bss.led3:0000000000000000 $d
/tmp/claude-502/ccZj3JyB.s:10945  .bss.scl:0000000000000000 $d
/tmp/claude-502/ccZj3JyB.s:10952  .bss.sda:0000000000000000 $d
/tmp/claude-502/ccZj3JyB.s:10959  .data._ZL11s_noise_rng:0000000000000000 $d
/tmp/claude-502/ccZj3JyB.s:10963  .data._ZL11s_noise_rng:0000000000000000 _ZL11s_noise_rng
/tmp/claude-502/ccZj3JyB.s:10966  .data._ZL12s_master_vol:0000000000000000 $d
/tmp/claude-502/ccZj3JyB.s:10970  .data._ZL12s_master_vol:0000000000000000 _ZL12s_master_vol
/tmp/claude-502/ccZj3JyB.s:10973  .data._ZL6s_freq:0000000000000000 $d
/tmp/claude-502/ccZj3JyB.s:10977  .data._ZL6s_freq:0000000000000000 _ZL6s_freq
/tmp/claude-502/ccZj3JyB.s:10980  .data._ZL7s_drive:0000000000000000 $d
/tmp/claude-502/ccZj3JyB.s:10984  .data._ZL7s_drive:0000000000000000 _ZL7s_drive
/tmp/claude-502/ccZj3JyB.s:10987  .data._ZL8s_cutoff:0000000000000000 $d
/tmp/claude-502/ccZj3JyB.s:10991  .data._ZL8s_cutoff:0000000000000000 _ZL8s_cutoff
/tmp/claude-502/ccZj3JyB.s:10994  .data._ZZ13AudioCallbackPKPKfPPfjE10s_coeff_vi:0000000000000000 $d
/tmp/claude-502/ccZj3JyB.s:10998  .data._ZZ13AudioCallbackPKPKfPPfjE10s_coeff_vi:0000000000000000 _ZZ13AudioCallbackPKPKfPPfjE10s_coeff_vi
/tmp/claude-502/ccZj3JyB.s:11001  .data.g_master_vol:0000000000000000 $d
/tmp/claude-502/ccZj3JyB.s:11008  .data.g_target_cutoff:0000000000000000 $d
/tmp/claude-502/ccZj3JyB.s:11015  .data.g_target_drive:0000000000000000 $d
/tmp/claude-502/ccZj3JyB.s:11022  .data.g_target_freq:0000000000000000 $d
/tmp/claude-502/ccZj3JyB.s:11029  .rodata._ZL16PRESSURE_MAX_REF:0000000000000000 $d
/tmp/claude-502/ccZj3JyB.s:11033  .rodata._ZL16PRESSURE_MAX_REF:0000000000000000 _ZL16PRESSURE_MAX_REF
/tmp/claude-502/ccZj3JyB.s:11047  .rodata._ZL5SCALE:0000000000000000 $d
/tmp/claude-502/ccZj3JyB.s:11051  .rodata._ZL5SCALE:0000000000000000 _ZL5SCALE
/tmp/claude-502/ccZj3JyB.s:11065  .rodata._ZL6VOICES:0000000000000000 $d
/tmp/claude-502/ccZj3JyB.s:11069  .rodata._ZL6VOICES:0000000000000000 _ZL6VOICES
/tmp/claude-502/ccZj3JyB.s:11302  .rodata._ZL7SCL_PIN:0000000000000000 $d
/tmp/claude-502/ccZj3JyB.s:11306  .rodata._ZL7SCL_PIN:0000000000000000 _ZL7SCL_PIN
/tmp/claude-502/ccZj3JyB.s:11310  .rodata._ZL7SDA_PIN:0000000000000000 $d
/tmp/claude-502/ccZj3JyB.s:11314  .rodata._ZL7SDA_PIN:0000000000000000 _ZL7SDA_PIN
/tmp/claude-502/ccZj3JyB.s:11318  .rodata._ZN5daisy4seedL2A0E:0000000000000000 $d
/tmp/claude-502/ccZj3JyB.s:11322  .rodata._ZN5daisy4seedL2A0E:0000000000000000 _ZN5daisy4seedL2A0E
                           .group:0000000000000000 _ZN5daisy9DaisySeedD5Ev

UNDEFINED SYMBOLS
_ZN5daisy9DaisySeed15AudioSampleRateEv
expf
ARM GAS  /tmp/claude-502/ccZj3JyB.s 			page 297


_ZN5daisy4GPIO5WriteEb
_ZN5daisy4GPIO4InitENS_3PinENS0_4ModeENS0_4PullENS0_5SpeedE
_ZN5daisy6System7DelayUsEm
_ZN5daisy4GPIO4ReadEv
_ZN5daisy6System5DelayEm
memset
__aeabi_ldivmod
_ZN5daisy9DaisySeed4InitEb
_ZN5daisy9DaisySeed17SetAudioBlockSizeEj
_ZN5daisy9DacHandle4InitERKNS0_6ConfigE
_ZN5daisy9DacHandle10WriteValueENS0_7ChannelEt
_ZN5daisy16AdcChannelConfig10InitSingleE12dsy_gpio_pinNS0_15ConversionSpeedE
_ZN5daisy9AdcHandle4InitEPNS_16AdcChannelConfigEjNS0_12OverSamplingE
_ZN5daisy9AdcHandle5StartEv
_ZN5daisy6System6GetNowEv
_ZNK5daisy9AdcHandle3GetEh
_ZN5daisy9DaisySeed10StartAudioEPFvPKPKfPPfjE
_ZN5daisy6LoggerILNS_17LoggerDestinationE1EE8StartLogEb
_ZN5daisy6LoggerILNS_17LoggerDestinationE1EE9PrintLineEPKcz
cosf
powf
sqrtf
__aeabi_atexit
__dso_handle
