ARM GAS  /tmp/claude-502/ccJ8DnOJ.s 			page 1


   1              		.cpu cortex-m7
   2              		.arch armv7e-m
   3              		.fpu fpv5-d16
   4              		.eabi_attribute 28, 1
   5              		.eabi_attribute 20, 1
   6              		.eabi_attribute 21, 1
   7              		.eabi_attribute 23, 3
   8              		.eabi_attribute 24, 1
   9              		.eabi_attribute 25, 1
  10              		.eabi_attribute 26, 1
  11              		.eabi_attribute 30, 2
  12              		.eabi_attribute 34, 1
  13              		.eabi_attribute 18, 4
  14              		.file	"main.cpp"
  15              		.text
  16              	.Ltext0:
  17              		.cfi_sections	.debug_frame
  18              		.section	.text._ZN5daisy9DaisySeedD2Ev,"axG",%progbits,_ZN5daisy9DaisySeedD5Ev,comdat
  19              		.align	1
  20              		.p2align 2,,3
  21              		.weak	_ZN5daisy9DaisySeedD2Ev
  22              		.syntax unified
  23              		.thumb
  24              		.thumb_func
  26              	_ZN5daisy9DaisySeedD2Ev:
  27              	.LVL0:
  28              	.LFB2556:
  29              		.file 1 "/Users/reza.kalfane/Workspaces/Daisy/DaisyExamples/libDaisy/src/daisy_seed.h"
   1:/Users/reza.kalfane/Workspaces/Daisy/DaisyExamples/libDaisy/src/daisy_seed.h **** #pragma once
   2:/Users/reza.kalfane/Workspaces/Daisy/DaisyExamples/libDaisy/src/daisy_seed.h **** #ifndef DSY_SEED_H
   3:/Users/reza.kalfane/Workspaces/Daisy/DaisyExamples/libDaisy/src/daisy_seed.h **** #define DSY_SEED_H
   4:/Users/reza.kalfane/Workspaces/Daisy/DaisyExamples/libDaisy/src/daisy_seed.h **** 
   5:/Users/reza.kalfane/Workspaces/Daisy/DaisyExamples/libDaisy/src/daisy_seed.h **** #include "daisy.h"
   6:/Users/reza.kalfane/Workspaces/Daisy/DaisyExamples/libDaisy/src/daisy_seed.h **** 
   7:/Users/reza.kalfane/Workspaces/Daisy/DaisyExamples/libDaisy/src/daisy_seed.h **** //Uncomment this out if you're still using the rev2 hardware
   8:/Users/reza.kalfane/Workspaces/Daisy/DaisyExamples/libDaisy/src/daisy_seed.h **** //#define SEED_REV2
   9:/Users/reza.kalfane/Workspaces/Daisy/DaisyExamples/libDaisy/src/daisy_seed.h **** 
  10:/Users/reza.kalfane/Workspaces/Daisy/DaisyExamples/libDaisy/src/daisy_seed.h **** namespace daisy
  11:/Users/reza.kalfane/Workspaces/Daisy/DaisyExamples/libDaisy/src/daisy_seed.h **** {
  12:/Users/reza.kalfane/Workspaces/Daisy/DaisyExamples/libDaisy/src/daisy_seed.h **** /**
  13:/Users/reza.kalfane/Workspaces/Daisy/DaisyExamples/libDaisy/src/daisy_seed.h ****    @brief This is the higher-level interface for the Daisy board. \n 
  14:/Users/reza.kalfane/Workspaces/Daisy/DaisyExamples/libDaisy/src/daisy_seed.h ****     All basic peripheral configuration/initialization is setup here. \n
  15:/Users/reza.kalfane/Workspaces/Daisy/DaisyExamples/libDaisy/src/daisy_seed.h **** 
  16:/Users/reza.kalfane/Workspaces/Daisy/DaisyExamples/libDaisy/src/daisy_seed.h ****    @ingroup boards
  17:/Users/reza.kalfane/Workspaces/Daisy/DaisyExamples/libDaisy/src/daisy_seed.h **** */
  18:/Users/reza.kalfane/Workspaces/Daisy/DaisyExamples/libDaisy/src/daisy_seed.h **** class DaisySeed
  19:/Users/reza.kalfane/Workspaces/Daisy/DaisyExamples/libDaisy/src/daisy_seed.h **** {
  20:/Users/reza.kalfane/Workspaces/Daisy/DaisyExamples/libDaisy/src/daisy_seed.h ****   public:
  21:/Users/reza.kalfane/Workspaces/Daisy/DaisyExamples/libDaisy/src/daisy_seed.h ****     DaisySeed() {}
  22:/Users/reza.kalfane/Workspaces/Daisy/DaisyExamples/libDaisy/src/daisy_seed.h ****     ~DaisySeed() {}
  30              		.loc 1 22 5 view -0
  31              		.cfi_startproc
  32              		@ args = 0, pretend = 0, frame = 0
  33              		@ frame_needed = 0, uses_anonymous_args = 0
  34              		@ link register save eliminated.
  35              	.LBB264:
  36              	.LBI264:
ARM GAS  /tmp/claude-502/ccJ8DnOJ.s 			page 2


  37              		.file 2 "/Users/reza.kalfane/Workspaces/Daisy/DaisyExamples/libDaisy/src/sys/system.h"
   1:/Users/reza.kalfane/Workspaces/Daisy/DaisyExamples/libDaisy/src/sys/system.h **** #ifndef DSY_SYSTEM_H
   2:/Users/reza.kalfane/Workspaces/Daisy/DaisyExamples/libDaisy/src/sys/system.h **** #define DSY_SYSTEM_H
   3:/Users/reza.kalfane/Workspaces/Daisy/DaisyExamples/libDaisy/src/sys/system.h **** 
   4:/Users/reza.kalfane/Workspaces/Daisy/DaisyExamples/libDaisy/src/sys/system.h **** #ifndef UNIT_TEST // for unit tests, a dummy implementation is provided below
   5:/Users/reza.kalfane/Workspaces/Daisy/DaisyExamples/libDaisy/src/sys/system.h **** 
   6:/Users/reza.kalfane/Workspaces/Daisy/DaisyExamples/libDaisy/src/sys/system.h **** #include <cstdint>
   7:/Users/reza.kalfane/Workspaces/Daisy/DaisyExamples/libDaisy/src/sys/system.h **** #include "per/tim.h"
   8:/Users/reza.kalfane/Workspaces/Daisy/DaisyExamples/libDaisy/src/sys/system.h **** 
   9:/Users/reza.kalfane/Workspaces/Daisy/DaisyExamples/libDaisy/src/sys/system.h **** namespace daisy
  10:/Users/reza.kalfane/Workspaces/Daisy/DaisyExamples/libDaisy/src/sys/system.h **** {
  11:/Users/reza.kalfane/Workspaces/Daisy/DaisyExamples/libDaisy/src/sys/system.h **** /** A handle for interacting with the Core System.
  12:/Users/reza.kalfane/Workspaces/Daisy/DaisyExamples/libDaisy/src/sys/system.h ****  ** This includes the Clock tree, MPU, global DMA initialization,
  13:/Users/reza.kalfane/Workspaces/Daisy/DaisyExamples/libDaisy/src/sys/system.h ****  ** cache handling, and any other necessary global initiailzation
  14:/Users/reza.kalfane/Workspaces/Daisy/DaisyExamples/libDaisy/src/sys/system.h ****  **
  15:/Users/reza.kalfane/Workspaces/Daisy/DaisyExamples/libDaisy/src/sys/system.h ****  ** @author shensley
  16:/Users/reza.kalfane/Workspaces/Daisy/DaisyExamples/libDaisy/src/sys/system.h ****  ** @ingroup system
  17:/Users/reza.kalfane/Workspaces/Daisy/DaisyExamples/libDaisy/src/sys/system.h ****  */
  18:/Users/reza.kalfane/Workspaces/Daisy/DaisyExamples/libDaisy/src/sys/system.h **** class System
  19:/Users/reza.kalfane/Workspaces/Daisy/DaisyExamples/libDaisy/src/sys/system.h **** {
  20:/Users/reza.kalfane/Workspaces/Daisy/DaisyExamples/libDaisy/src/sys/system.h ****   public:
  21:/Users/reza.kalfane/Workspaces/Daisy/DaisyExamples/libDaisy/src/sys/system.h ****     /** Contains settings for initializing the System */
  22:/Users/reza.kalfane/Workspaces/Daisy/DaisyExamples/libDaisy/src/sys/system.h ****     struct Config
  23:/Users/reza.kalfane/Workspaces/Daisy/DaisyExamples/libDaisy/src/sys/system.h ****     {
  24:/Users/reza.kalfane/Workspaces/Daisy/DaisyExamples/libDaisy/src/sys/system.h ****         /** Specifies the system clock frequency that feeds APB/AHB clocks, etc. */
  25:/Users/reza.kalfane/Workspaces/Daisy/DaisyExamples/libDaisy/src/sys/system.h ****         enum class SysClkFreq
  26:/Users/reza.kalfane/Workspaces/Daisy/DaisyExamples/libDaisy/src/sys/system.h ****         {
  27:/Users/reza.kalfane/Workspaces/Daisy/DaisyExamples/libDaisy/src/sys/system.h ****             FREQ_400MHZ,
  28:/Users/reza.kalfane/Workspaces/Daisy/DaisyExamples/libDaisy/src/sys/system.h ****             FREQ_480MHZ,
  29:/Users/reza.kalfane/Workspaces/Daisy/DaisyExamples/libDaisy/src/sys/system.h ****         };
  30:/Users/reza.kalfane/Workspaces/Daisy/DaisyExamples/libDaisy/src/sys/system.h **** 
  31:/Users/reza.kalfane/Workspaces/Daisy/DaisyExamples/libDaisy/src/sys/system.h ****         /** Method to call on the struct to set to defaults
  32:/Users/reza.kalfane/Workspaces/Daisy/DaisyExamples/libDaisy/src/sys/system.h ****          ** CPU Freq set to 400MHz
  33:/Users/reza.kalfane/Workspaces/Daisy/DaisyExamples/libDaisy/src/sys/system.h ****          ** Cache Enabled
  34:/Users/reza.kalfane/Workspaces/Daisy/DaisyExamples/libDaisy/src/sys/system.h ****          ** */
  35:/Users/reza.kalfane/Workspaces/Daisy/DaisyExamples/libDaisy/src/sys/system.h ****         void Defaults()
  36:/Users/reza.kalfane/Workspaces/Daisy/DaisyExamples/libDaisy/src/sys/system.h ****         {
  37:/Users/reza.kalfane/Workspaces/Daisy/DaisyExamples/libDaisy/src/sys/system.h ****             cpu_freq    = SysClkFreq::FREQ_400MHZ;
  38:/Users/reza.kalfane/Workspaces/Daisy/DaisyExamples/libDaisy/src/sys/system.h ****             use_dcache  = true;
  39:/Users/reza.kalfane/Workspaces/Daisy/DaisyExamples/libDaisy/src/sys/system.h ****             use_icache  = true;
  40:/Users/reza.kalfane/Workspaces/Daisy/DaisyExamples/libDaisy/src/sys/system.h ****             skip_clocks = false;
  41:/Users/reza.kalfane/Workspaces/Daisy/DaisyExamples/libDaisy/src/sys/system.h ****         }
  42:/Users/reza.kalfane/Workspaces/Daisy/DaisyExamples/libDaisy/src/sys/system.h **** 
  43:/Users/reza.kalfane/Workspaces/Daisy/DaisyExamples/libDaisy/src/sys/system.h ****         /** Method to call on the struct to set to boost mode:
  44:/Users/reza.kalfane/Workspaces/Daisy/DaisyExamples/libDaisy/src/sys/system.h ****          ** CPU Freq set to 480MHz
  45:/Users/reza.kalfane/Workspaces/Daisy/DaisyExamples/libDaisy/src/sys/system.h ****          ** Cache Enabled
  46:/Users/reza.kalfane/Workspaces/Daisy/DaisyExamples/libDaisy/src/sys/system.h ****          ** */
  47:/Users/reza.kalfane/Workspaces/Daisy/DaisyExamples/libDaisy/src/sys/system.h ****         void Boost()
  48:/Users/reza.kalfane/Workspaces/Daisy/DaisyExamples/libDaisy/src/sys/system.h ****         {
  49:/Users/reza.kalfane/Workspaces/Daisy/DaisyExamples/libDaisy/src/sys/system.h ****             cpu_freq    = SysClkFreq::FREQ_480MHZ;
  50:/Users/reza.kalfane/Workspaces/Daisy/DaisyExamples/libDaisy/src/sys/system.h ****             use_dcache  = true;
  51:/Users/reza.kalfane/Workspaces/Daisy/DaisyExamples/libDaisy/src/sys/system.h ****             use_icache  = true;
  52:/Users/reza.kalfane/Workspaces/Daisy/DaisyExamples/libDaisy/src/sys/system.h ****             skip_clocks = false;
  53:/Users/reza.kalfane/Workspaces/Daisy/DaisyExamples/libDaisy/src/sys/system.h ****         }
  54:/Users/reza.kalfane/Workspaces/Daisy/DaisyExamples/libDaisy/src/sys/system.h **** 
  55:/Users/reza.kalfane/Workspaces/Daisy/DaisyExamples/libDaisy/src/sys/system.h ****         SysClkFreq cpu_freq;
  56:/Users/reza.kalfane/Workspaces/Daisy/DaisyExamples/libDaisy/src/sys/system.h ****         bool       use_dcache;
ARM GAS  /tmp/claude-502/ccJ8DnOJ.s 			page 3


  57:/Users/reza.kalfane/Workspaces/Daisy/DaisyExamples/libDaisy/src/sys/system.h ****         bool       use_icache;
  58:/Users/reza.kalfane/Workspaces/Daisy/DaisyExamples/libDaisy/src/sys/system.h ****         bool       skip_clocks;
  59:/Users/reza.kalfane/Workspaces/Daisy/DaisyExamples/libDaisy/src/sys/system.h ****     };
  60:/Users/reza.kalfane/Workspaces/Daisy/DaisyExamples/libDaisy/src/sys/system.h **** 
  61:/Users/reza.kalfane/Workspaces/Daisy/DaisyExamples/libDaisy/src/sys/system.h ****     /** Describes the different regions of memory available to the Daisy */
  62:/Users/reza.kalfane/Workspaces/Daisy/DaisyExamples/libDaisy/src/sys/system.h ****     enum MemoryRegion
  63:/Users/reza.kalfane/Workspaces/Daisy/DaisyExamples/libDaisy/src/sys/system.h ****     {
  64:/Users/reza.kalfane/Workspaces/Daisy/DaisyExamples/libDaisy/src/sys/system.h ****         INTERNAL_FLASH = 0,
  65:/Users/reza.kalfane/Workspaces/Daisy/DaisyExamples/libDaisy/src/sys/system.h ****         ITCMRAM,
  66:/Users/reza.kalfane/Workspaces/Daisy/DaisyExamples/libDaisy/src/sys/system.h ****         DTCMRAM,
  67:/Users/reza.kalfane/Workspaces/Daisy/DaisyExamples/libDaisy/src/sys/system.h ****         SRAM_D1,
  68:/Users/reza.kalfane/Workspaces/Daisy/DaisyExamples/libDaisy/src/sys/system.h ****         SRAM_D2,
  69:/Users/reza.kalfane/Workspaces/Daisy/DaisyExamples/libDaisy/src/sys/system.h ****         SRAM_D3,
  70:/Users/reza.kalfane/Workspaces/Daisy/DaisyExamples/libDaisy/src/sys/system.h ****         SDRAM,
  71:/Users/reza.kalfane/Workspaces/Daisy/DaisyExamples/libDaisy/src/sys/system.h ****         QSPI,
  72:/Users/reza.kalfane/Workspaces/Daisy/DaisyExamples/libDaisy/src/sys/system.h ****         INVALID_ADDRESS,
  73:/Users/reza.kalfane/Workspaces/Daisy/DaisyExamples/libDaisy/src/sys/system.h ****     };
  74:/Users/reza.kalfane/Workspaces/Daisy/DaisyExamples/libDaisy/src/sys/system.h **** 
  75:/Users/reza.kalfane/Workspaces/Daisy/DaisyExamples/libDaisy/src/sys/system.h ****     /** Bootloader struct for controlling bootloading parameters */
  76:/Users/reza.kalfane/Workspaces/Daisy/DaisyExamples/libDaisy/src/sys/system.h ****     struct BootInfo
  77:/Users/reza.kalfane/Workspaces/Daisy/DaisyExamples/libDaisy/src/sys/system.h ****     {
  78:/Users/reza.kalfane/Workspaces/Daisy/DaisyExamples/libDaisy/src/sys/system.h ****         enum class Type : uint32_t
  79:/Users/reza.kalfane/Workspaces/Daisy/DaisyExamples/libDaisy/src/sys/system.h ****         {
  80:/Users/reza.kalfane/Workspaces/Daisy/DaisyExamples/libDaisy/src/sys/system.h ****             INVALID      = 0x00000000,
  81:/Users/reza.kalfane/Workspaces/Daisy/DaisyExamples/libDaisy/src/sys/system.h ****             JUMP         = 0xDEADBEEF,
  82:/Users/reza.kalfane/Workspaces/Daisy/DaisyExamples/libDaisy/src/sys/system.h ****             SKIP_TIMEOUT = 0x5AFEB007,
  83:/Users/reza.kalfane/Workspaces/Daisy/DaisyExamples/libDaisy/src/sys/system.h ****             INF_TIMEOUT  = 0xB0074EFA,
  84:/Users/reza.kalfane/Workspaces/Daisy/DaisyExamples/libDaisy/src/sys/system.h ****         } status;
  85:/Users/reza.kalfane/Workspaces/Daisy/DaisyExamples/libDaisy/src/sys/system.h ****         uint32_t data;
  86:/Users/reza.kalfane/Workspaces/Daisy/DaisyExamples/libDaisy/src/sys/system.h ****         enum class Version : uint32_t
  87:/Users/reza.kalfane/Workspaces/Daisy/DaisyExamples/libDaisy/src/sys/system.h ****         {
  88:/Users/reza.kalfane/Workspaces/Daisy/DaisyExamples/libDaisy/src/sys/system.h ****             LT_v6_0 = 0, // Less than v6.0
  89:/Users/reza.kalfane/Workspaces/Daisy/DaisyExamples/libDaisy/src/sys/system.h ****             NONE,        // No bootloader present
  90:/Users/reza.kalfane/Workspaces/Daisy/DaisyExamples/libDaisy/src/sys/system.h ****             v6_0,        // v6.0
  91:/Users/reza.kalfane/Workspaces/Daisy/DaisyExamples/libDaisy/src/sys/system.h ****             v6_1,        // v6.1 or greater
  92:/Users/reza.kalfane/Workspaces/Daisy/DaisyExamples/libDaisy/src/sys/system.h ****             LAST
  93:/Users/reza.kalfane/Workspaces/Daisy/DaisyExamples/libDaisy/src/sys/system.h ****         } version;
  94:/Users/reza.kalfane/Workspaces/Daisy/DaisyExamples/libDaisy/src/sys/system.h ****     };
  95:/Users/reza.kalfane/Workspaces/Daisy/DaisyExamples/libDaisy/src/sys/system.h **** 
  96:/Users/reza.kalfane/Workspaces/Daisy/DaisyExamples/libDaisy/src/sys/system.h ****     System() {}
  97:/Users/reza.kalfane/Workspaces/Daisy/DaisyExamples/libDaisy/src/sys/system.h ****     ~System() {}
  38              		.loc 2 97 5 view .LVU1
  39              		.loc 2 97 5 is_stmt 0 view .LVU2
  40              	.LBE264:
  41              	.LBB265:
  42              	.LBI265:
  43              		.file 3 "/Users/reza.kalfane/Workspaces/Daisy/DaisyExamples/libDaisy/src/hid/usb.h"
   1:/Users/reza.kalfane/Workspaces/Daisy/DaisyExamples/libDaisy/src/hid/usb.h **** #pragma once
   2:/Users/reza.kalfane/Workspaces/Daisy/DaisyExamples/libDaisy/src/hid/usb.h **** #ifndef DSY_HID_USB_H
   3:/Users/reza.kalfane/Workspaces/Daisy/DaisyExamples/libDaisy/src/hid/usb.h **** #define DSY_HID_USB_H
   4:/Users/reza.kalfane/Workspaces/Daisy/DaisyExamples/libDaisy/src/hid/usb.h **** #include <stdint.h>
   5:/Users/reza.kalfane/Workspaces/Daisy/DaisyExamples/libDaisy/src/hid/usb.h **** #include <stdlib.h>
   6:/Users/reza.kalfane/Workspaces/Daisy/DaisyExamples/libDaisy/src/hid/usb.h **** 
   7:/Users/reza.kalfane/Workspaces/Daisy/DaisyExamples/libDaisy/src/hid/usb.h **** namespace daisy
   8:/Users/reza.kalfane/Workspaces/Daisy/DaisyExamples/libDaisy/src/hid/usb.h **** /** @addtogroup human_interface
   9:/Users/reza.kalfane/Workspaces/Daisy/DaisyExamples/libDaisy/src/hid/usb.h ****     @{
  10:/Users/reza.kalfane/Workspaces/Daisy/DaisyExamples/libDaisy/src/hid/usb.h **** */
ARM GAS  /tmp/claude-502/ccJ8DnOJ.s 			page 4


  11:/Users/reza.kalfane/Workspaces/Daisy/DaisyExamples/libDaisy/src/hid/usb.h **** 
  12:/Users/reza.kalfane/Workspaces/Daisy/DaisyExamples/libDaisy/src/hid/usb.h **** {
  13:/Users/reza.kalfane/Workspaces/Daisy/DaisyExamples/libDaisy/src/hid/usb.h **** /** 
  14:/Users/reza.kalfane/Workspaces/Daisy/DaisyExamples/libDaisy/src/hid/usb.h ****     @brief Interface for initializing and using the USB Peripherals on the daisy
  15:/Users/reza.kalfane/Workspaces/Daisy/DaisyExamples/libDaisy/src/hid/usb.h ****     @author Stephen Hensley
  16:/Users/reza.kalfane/Workspaces/Daisy/DaisyExamples/libDaisy/src/hid/usb.h ****     @date December 2019
  17:/Users/reza.kalfane/Workspaces/Daisy/DaisyExamples/libDaisy/src/hid/usb.h **** */
  18:/Users/reza.kalfane/Workspaces/Daisy/DaisyExamples/libDaisy/src/hid/usb.h **** class UsbHandle
  19:/Users/reza.kalfane/Workspaces/Daisy/DaisyExamples/libDaisy/src/hid/usb.h **** {
  20:/Users/reza.kalfane/Workspaces/Daisy/DaisyExamples/libDaisy/src/hid/usb.h ****   public:
  21:/Users/reza.kalfane/Workspaces/Daisy/DaisyExamples/libDaisy/src/hid/usb.h ****     /** Return values for USBHandle Functions */
  22:/Users/reza.kalfane/Workspaces/Daisy/DaisyExamples/libDaisy/src/hid/usb.h ****     enum class Result
  23:/Users/reza.kalfane/Workspaces/Daisy/DaisyExamples/libDaisy/src/hid/usb.h ****     {
  24:/Users/reza.kalfane/Workspaces/Daisy/DaisyExamples/libDaisy/src/hid/usb.h ****         OK,
  25:/Users/reza.kalfane/Workspaces/Daisy/DaisyExamples/libDaisy/src/hid/usb.h ****         ERR,
  26:/Users/reza.kalfane/Workspaces/Daisy/DaisyExamples/libDaisy/src/hid/usb.h ****     };
  27:/Users/reza.kalfane/Workspaces/Daisy/DaisyExamples/libDaisy/src/hid/usb.h **** 
  28:/Users/reza.kalfane/Workspaces/Daisy/DaisyExamples/libDaisy/src/hid/usb.h ****     /** Specified which of the two USB Peripherals to initialize. */
  29:/Users/reza.kalfane/Workspaces/Daisy/DaisyExamples/libDaisy/src/hid/usb.h ****     enum UsbPeriph
  30:/Users/reza.kalfane/Workspaces/Daisy/DaisyExamples/libDaisy/src/hid/usb.h ****     {
  31:/Users/reza.kalfane/Workspaces/Daisy/DaisyExamples/libDaisy/src/hid/usb.h ****         FS_INTERNAL, /**< Internal pin */
  32:/Users/reza.kalfane/Workspaces/Daisy/DaisyExamples/libDaisy/src/hid/usb.h ****         FS_EXTERNAL, /**< FS External D+ pin is Pin 38 (GPIO32). FS External D- pin is Pin 37 (GPIO
  33:/Users/reza.kalfane/Workspaces/Daisy/DaisyExamples/libDaisy/src/hid/usb.h ****         FS_BOTH,     /**< Both */
  34:/Users/reza.kalfane/Workspaces/Daisy/DaisyExamples/libDaisy/src/hid/usb.h ****     };
  35:/Users/reza.kalfane/Workspaces/Daisy/DaisyExamples/libDaisy/src/hid/usb.h **** 
  36:/Users/reza.kalfane/Workspaces/Daisy/DaisyExamples/libDaisy/src/hid/usb.h **** 
  37:/Users/reza.kalfane/Workspaces/Daisy/DaisyExamples/libDaisy/src/hid/usb.h ****     /** Function called upon reception of a buffer */
  38:/Users/reza.kalfane/Workspaces/Daisy/DaisyExamples/libDaisy/src/hid/usb.h ****     typedef void (*ReceiveCallback)(uint8_t* buff, uint32_t* len);
  39:/Users/reza.kalfane/Workspaces/Daisy/DaisyExamples/libDaisy/src/hid/usb.h **** 
  40:/Users/reza.kalfane/Workspaces/Daisy/DaisyExamples/libDaisy/src/hid/usb.h ****     UsbHandle() {}
  41:/Users/reza.kalfane/Workspaces/Daisy/DaisyExamples/libDaisy/src/hid/usb.h **** 
  42:/Users/reza.kalfane/Workspaces/Daisy/DaisyExamples/libDaisy/src/hid/usb.h ****     ~UsbHandle() {}
  44              		.loc 3 42 5 is_stmt 1 view .LVU3
  45              		.loc 3 42 5 is_stmt 0 view .LVU4
  46              	.LBE265:
  47              	.LBB266:
  48              	.LBI266:
  49              		.file 4 "/Users/reza.kalfane/Workspaces/Daisy/DaisyExamples/libDaisy/src/per/adc.h"
   1:/Users/reza.kalfane/Workspaces/Daisy/DaisyExamples/libDaisy/src/per/adc.h **** #pragma once
   2:/Users/reza.kalfane/Workspaces/Daisy/DaisyExamples/libDaisy/src/per/adc.h **** #ifndef DSY_ADC_H
   3:/Users/reza.kalfane/Workspaces/Daisy/DaisyExamples/libDaisy/src/per/adc.h **** #define DSY_ADC_H /**< Macro */
   4:/Users/reza.kalfane/Workspaces/Daisy/DaisyExamples/libDaisy/src/per/adc.h **** #include <stdint.h>
   5:/Users/reza.kalfane/Workspaces/Daisy/DaisyExamples/libDaisy/src/per/adc.h **** #include <stdlib.h>
   6:/Users/reza.kalfane/Workspaces/Daisy/DaisyExamples/libDaisy/src/per/adc.h **** #include "daisy_core.h"
   7:/Users/reza.kalfane/Workspaces/Daisy/DaisyExamples/libDaisy/src/per/adc.h **** #include "per/gpio.h"
   8:/Users/reza.kalfane/Workspaces/Daisy/DaisyExamples/libDaisy/src/per/adc.h **** 
   9:/Users/reza.kalfane/Workspaces/Daisy/DaisyExamples/libDaisy/src/per/adc.h **** #define DSY_ADC_MAX_CHANNELS 16 /**< Maximum number of ADC channels */
  10:/Users/reza.kalfane/Workspaces/Daisy/DaisyExamples/libDaisy/src/per/adc.h **** 
  11:/Users/reza.kalfane/Workspaces/Daisy/DaisyExamples/libDaisy/src/per/adc.h **** namespace daisy
  12:/Users/reza.kalfane/Workspaces/Daisy/DaisyExamples/libDaisy/src/per/adc.h **** {
  13:/Users/reza.kalfane/Workspaces/Daisy/DaisyExamples/libDaisy/src/per/adc.h **** /** @addtogroup per_analog
  14:/Users/reza.kalfane/Workspaces/Daisy/DaisyExamples/libDaisy/src/per/adc.h ****     @{
  15:/Users/reza.kalfane/Workspaces/Daisy/DaisyExamples/libDaisy/src/per/adc.h **** */
  16:/Users/reza.kalfane/Workspaces/Daisy/DaisyExamples/libDaisy/src/per/adc.h **** 
  17:/Users/reza.kalfane/Workspaces/Daisy/DaisyExamples/libDaisy/src/per/adc.h **** /* While there may not be many configuration options here,
  18:/Users/reza.kalfane/Workspaces/Daisy/DaisyExamples/libDaisy/src/per/adc.h **** using a struct like this allows us to add more configuration
  19:/Users/reza.kalfane/Workspaces/Daisy/DaisyExamples/libDaisy/src/per/adc.h **** later without breaking existing functionality.
ARM GAS  /tmp/claude-502/ccJ8DnOJ.s 			page 5


  20:/Users/reza.kalfane/Workspaces/Daisy/DaisyExamples/libDaisy/src/per/adc.h **** */
  21:/Users/reza.kalfane/Workspaces/Daisy/DaisyExamples/libDaisy/src/per/adc.h **** 
  22:/Users/reza.kalfane/Workspaces/Daisy/DaisyExamples/libDaisy/src/per/adc.h **** /** @brief   Configuration Structure for an ADC Channel 
  23:/Users/reza.kalfane/Workspaces/Daisy/DaisyExamples/libDaisy/src/per/adc.h ****  *  @details This can be used to configure a a single input, 
  24:/Users/reza.kalfane/Workspaces/Daisy/DaisyExamples/libDaisy/src/per/adc.h ****  *           or a multiplexed input, allowing up to 8 inputs on 
  25:/Users/reza.kalfane/Workspaces/Daisy/DaisyExamples/libDaisy/src/per/adc.h ****  *           one channel.
  26:/Users/reza.kalfane/Workspaces/Daisy/DaisyExamples/libDaisy/src/per/adc.h ****  *  @note    Sharing data lines to multiple muxes _is_ possible, but
  27:/Users/reza.kalfane/Workspaces/Daisy/DaisyExamples/libDaisy/src/per/adc.h ****  *           each channel sharing data lines must be set to the maximum
  28:/Users/reza.kalfane/Workspaces/Daisy/DaisyExamples/libDaisy/src/per/adc.h ****  *           number of channels, even if some multiplexers have fewer
  29:/Users/reza.kalfane/Workspaces/Daisy/DaisyExamples/libDaisy/src/per/adc.h ****  *           inputs connected.
  30:/Users/reza.kalfane/Workspaces/Daisy/DaisyExamples/libDaisy/src/per/adc.h **** */
  31:/Users/reza.kalfane/Workspaces/Daisy/DaisyExamples/libDaisy/src/per/adc.h **** struct AdcChannelConfig
  32:/Users/reza.kalfane/Workspaces/Daisy/DaisyExamples/libDaisy/src/per/adc.h **** {
  33:/Users/reza.kalfane/Workspaces/Daisy/DaisyExamples/libDaisy/src/per/adc.h ****     /** Which pin to use for multiplexing */
  34:/Users/reza.kalfane/Workspaces/Daisy/DaisyExamples/libDaisy/src/per/adc.h ****     enum MuxPin
  35:/Users/reza.kalfane/Workspaces/Daisy/DaisyExamples/libDaisy/src/per/adc.h ****     {
  36:/Users/reza.kalfane/Workspaces/Daisy/DaisyExamples/libDaisy/src/per/adc.h ****         MUX_SEL_0,    /**< & */
  37:/Users/reza.kalfane/Workspaces/Daisy/DaisyExamples/libDaisy/src/per/adc.h ****         MUX_SEL_1,    /**< & */
  38:/Users/reza.kalfane/Workspaces/Daisy/DaisyExamples/libDaisy/src/per/adc.h ****         MUX_SEL_2,    /**< & */
  39:/Users/reza.kalfane/Workspaces/Daisy/DaisyExamples/libDaisy/src/per/adc.h ****         MUX_SEL_LAST, /**< & */
  40:/Users/reza.kalfane/Workspaces/Daisy/DaisyExamples/libDaisy/src/per/adc.h ****     };
  41:/Users/reza.kalfane/Workspaces/Daisy/DaisyExamples/libDaisy/src/per/adc.h **** 
  42:/Users/reza.kalfane/Workspaces/Daisy/DaisyExamples/libDaisy/src/per/adc.h ****     /** \brief per channel conversion speed added to fixed time based on bitdepth, etc. */
  43:/Users/reza.kalfane/Workspaces/Daisy/DaisyExamples/libDaisy/src/per/adc.h ****     enum ConversionSpeed
  44:/Users/reza.kalfane/Workspaces/Daisy/DaisyExamples/libDaisy/src/per/adc.h ****     {
  45:/Users/reza.kalfane/Workspaces/Daisy/DaisyExamples/libDaisy/src/per/adc.h ****         SPEED_1CYCLES_5,
  46:/Users/reza.kalfane/Workspaces/Daisy/DaisyExamples/libDaisy/src/per/adc.h ****         SPEED_2CYCLES_5,
  47:/Users/reza.kalfane/Workspaces/Daisy/DaisyExamples/libDaisy/src/per/adc.h ****         SPEED_8CYCLES_5,
  48:/Users/reza.kalfane/Workspaces/Daisy/DaisyExamples/libDaisy/src/per/adc.h ****         SPEED_16CYCLES_5,
  49:/Users/reza.kalfane/Workspaces/Daisy/DaisyExamples/libDaisy/src/per/adc.h ****         SPEED_32CYCLES_5,
  50:/Users/reza.kalfane/Workspaces/Daisy/DaisyExamples/libDaisy/src/per/adc.h ****         SPEED_64CYCLES_5,
  51:/Users/reza.kalfane/Workspaces/Daisy/DaisyExamples/libDaisy/src/per/adc.h ****         SPEED_387CYCLES_5,
  52:/Users/reza.kalfane/Workspaces/Daisy/DaisyExamples/libDaisy/src/per/adc.h ****         SPEED_810CYCLES_5,
  53:/Users/reza.kalfane/Workspaces/Daisy/DaisyExamples/libDaisy/src/per/adc.h ****     };
  54:/Users/reza.kalfane/Workspaces/Daisy/DaisyExamples/libDaisy/src/per/adc.h **** 
  55:/Users/reza.kalfane/Workspaces/Daisy/DaisyExamples/libDaisy/src/per/adc.h ****     /** Initializes a single ADC pin as an ADC. 
  56:/Users/reza.kalfane/Workspaces/Daisy/DaisyExamples/libDaisy/src/per/adc.h ****     \param pin Pin to init.
  57:/Users/reza.kalfane/Workspaces/Daisy/DaisyExamples/libDaisy/src/per/adc.h ****     \param speed conversion speed for this pin defaults to 8.5 cycles
  58:/Users/reza.kalfane/Workspaces/Daisy/DaisyExamples/libDaisy/src/per/adc.h ****      */
  59:/Users/reza.kalfane/Workspaces/Daisy/DaisyExamples/libDaisy/src/per/adc.h ****     void InitSingle(dsy_gpio_pin pin, ConversionSpeed speed = SPEED_8CYCLES_5);
  60:/Users/reza.kalfane/Workspaces/Daisy/DaisyExamples/libDaisy/src/per/adc.h **** 
  61:/Users/reza.kalfane/Workspaces/Daisy/DaisyExamples/libDaisy/src/per/adc.h ****     /** 
  62:/Users/reza.kalfane/Workspaces/Daisy/DaisyExamples/libDaisy/src/per/adc.h ****     Initializes a single ADC pin as a Multiplexed ADC.
  63:/Users/reza.kalfane/Workspaces/Daisy/DaisyExamples/libDaisy/src/per/adc.h ****     Requires a CD405X Multiplexer connected to the pin.
  64:/Users/reza.kalfane/Workspaces/Daisy/DaisyExamples/libDaisy/src/per/adc.h ****     You only need to supply the mux pins that are required,
  65:/Users/reza.kalfane/Workspaces/Daisy/DaisyExamples/libDaisy/src/per/adc.h ****     e.g. a 4052 mux would only require mux_0 and mux_1.
  66:/Users/reza.kalfane/Workspaces/Daisy/DaisyExamples/libDaisy/src/per/adc.h ****     Internal Callbacks handle the pin addressing.
  67:/Users/reza.kalfane/Workspaces/Daisy/DaisyExamples/libDaisy/src/per/adc.h ****     \param adc_pin &
  68:/Users/reza.kalfane/Workspaces/Daisy/DaisyExamples/libDaisy/src/per/adc.h ****     \param mux_channels must be 1-8
  69:/Users/reza.kalfane/Workspaces/Daisy/DaisyExamples/libDaisy/src/per/adc.h ****     \param mux_0 First mux pin
  70:/Users/reza.kalfane/Workspaces/Daisy/DaisyExamples/libDaisy/src/per/adc.h ****     \param mux_1 Second mux pin
  71:/Users/reza.kalfane/Workspaces/Daisy/DaisyExamples/libDaisy/src/per/adc.h ****     \param mux_2 Third mux pin
  72:/Users/reza.kalfane/Workspaces/Daisy/DaisyExamples/libDaisy/src/per/adc.h ****     \param speed conversion speed for this pin defaults to 8.5 cycles
  73:/Users/reza.kalfane/Workspaces/Daisy/DaisyExamples/libDaisy/src/per/adc.h ****     */
  74:/Users/reza.kalfane/Workspaces/Daisy/DaisyExamples/libDaisy/src/per/adc.h ****     void InitMux(dsy_gpio_pin    adc_pin,
  75:/Users/reza.kalfane/Workspaces/Daisy/DaisyExamples/libDaisy/src/per/adc.h ****                  size_t          mux_channels,
  76:/Users/reza.kalfane/Workspaces/Daisy/DaisyExamples/libDaisy/src/per/adc.h ****                  dsy_gpio_pin    mux_0,
ARM GAS  /tmp/claude-502/ccJ8DnOJ.s 			page 6


  77:/Users/reza.kalfane/Workspaces/Daisy/DaisyExamples/libDaisy/src/per/adc.h ****                  dsy_gpio_pin    mux_1 = {DSY_GPIOX, 0},
  78:/Users/reza.kalfane/Workspaces/Daisy/DaisyExamples/libDaisy/src/per/adc.h ****                  dsy_gpio_pin    mux_2 = {DSY_GPIOX, 0},
  79:/Users/reza.kalfane/Workspaces/Daisy/DaisyExamples/libDaisy/src/per/adc.h ****                  ConversionSpeed speed = SPEED_8CYCLES_5);
  80:/Users/reza.kalfane/Workspaces/Daisy/DaisyExamples/libDaisy/src/per/adc.h **** 
  81:/Users/reza.kalfane/Workspaces/Daisy/DaisyExamples/libDaisy/src/per/adc.h ****     dsy_gpio        pin_;                   /**< & */
  82:/Users/reza.kalfane/Workspaces/Daisy/DaisyExamples/libDaisy/src/per/adc.h ****     dsy_gpio        mux_pin_[MUX_SEL_LAST]; /**< & */
  83:/Users/reza.kalfane/Workspaces/Daisy/DaisyExamples/libDaisy/src/per/adc.h ****     uint8_t         mux_channels_;          /**< & */
  84:/Users/reza.kalfane/Workspaces/Daisy/DaisyExamples/libDaisy/src/per/adc.h ****     ConversionSpeed speed_;
  85:/Users/reza.kalfane/Workspaces/Daisy/DaisyExamples/libDaisy/src/per/adc.h **** };
  86:/Users/reza.kalfane/Workspaces/Daisy/DaisyExamples/libDaisy/src/per/adc.h **** 
  87:/Users/reza.kalfane/Workspaces/Daisy/DaisyExamples/libDaisy/src/per/adc.h **** /**
  88:/Users/reza.kalfane/Workspaces/Daisy/DaisyExamples/libDaisy/src/per/adc.h ****    @brief Handler for analog to digital conversion
  89:/Users/reza.kalfane/Workspaces/Daisy/DaisyExamples/libDaisy/src/per/adc.h **** */
  90:/Users/reza.kalfane/Workspaces/Daisy/DaisyExamples/libDaisy/src/per/adc.h **** class AdcHandle
  91:/Users/reza.kalfane/Workspaces/Daisy/DaisyExamples/libDaisy/src/per/adc.h **** {
  92:/Users/reza.kalfane/Workspaces/Daisy/DaisyExamples/libDaisy/src/per/adc.h ****   public:
  93:/Users/reza.kalfane/Workspaces/Daisy/DaisyExamples/libDaisy/src/per/adc.h ****     /** Supported oversampling amounts */
  94:/Users/reza.kalfane/Workspaces/Daisy/DaisyExamples/libDaisy/src/per/adc.h ****     enum OverSampling
  95:/Users/reza.kalfane/Workspaces/Daisy/DaisyExamples/libDaisy/src/per/adc.h ****     {
  96:/Users/reza.kalfane/Workspaces/Daisy/DaisyExamples/libDaisy/src/per/adc.h ****         OVS_NONE, /**< & */
  97:/Users/reza.kalfane/Workspaces/Daisy/DaisyExamples/libDaisy/src/per/adc.h ****         OVS_4,    /**< & */
  98:/Users/reza.kalfane/Workspaces/Daisy/DaisyExamples/libDaisy/src/per/adc.h ****         OVS_8,    /**< & */
  99:/Users/reza.kalfane/Workspaces/Daisy/DaisyExamples/libDaisy/src/per/adc.h ****         OVS_16,   /**< & */
 100:/Users/reza.kalfane/Workspaces/Daisy/DaisyExamples/libDaisy/src/per/adc.h ****         OVS_32,   /**< & */
 101:/Users/reza.kalfane/Workspaces/Daisy/DaisyExamples/libDaisy/src/per/adc.h ****         OVS_64,   /**< & */
 102:/Users/reza.kalfane/Workspaces/Daisy/DaisyExamples/libDaisy/src/per/adc.h ****         OVS_128,  /**< & */
 103:/Users/reza.kalfane/Workspaces/Daisy/DaisyExamples/libDaisy/src/per/adc.h ****         OVS_256,  /**< & */
 104:/Users/reza.kalfane/Workspaces/Daisy/DaisyExamples/libDaisy/src/per/adc.h ****         OVS_512,  /**< & */
 105:/Users/reza.kalfane/Workspaces/Daisy/DaisyExamples/libDaisy/src/per/adc.h ****         OVS_1024, /**< & */
 106:/Users/reza.kalfane/Workspaces/Daisy/DaisyExamples/libDaisy/src/per/adc.h ****         OVS_LAST, /**< & */
 107:/Users/reza.kalfane/Workspaces/Daisy/DaisyExamples/libDaisy/src/per/adc.h ****     };
 108:/Users/reza.kalfane/Workspaces/Daisy/DaisyExamples/libDaisy/src/per/adc.h **** 
 109:/Users/reza.kalfane/Workspaces/Daisy/DaisyExamples/libDaisy/src/per/adc.h ****     AdcHandle() {}
 110:/Users/reza.kalfane/Workspaces/Daisy/DaisyExamples/libDaisy/src/per/adc.h ****     ~AdcHandle() {}
  50              		.loc 4 110 5 is_stmt 1 view .LVU5
  51              		.loc 4 110 5 is_stmt 0 view .LVU6
  52              	.LBE266:
  53              	.LBB267:
  54              	.LBI267:
  55              		.file 5 "/Users/reza.kalfane/Workspaces/Daisy/DaisyExamples/libDaisy/src/hid/audio.h"
   1:/Users/reza.kalfane/Workspaces/Daisy/DaisyExamples/libDaisy/src/hid/audio.h **** #ifndef DSY_AUDIO_H
   2:/Users/reza.kalfane/Workspaces/Daisy/DaisyExamples/libDaisy/src/hid/audio.h **** #define DSY_AUDIO_H /**< & */
   3:/Users/reza.kalfane/Workspaces/Daisy/DaisyExamples/libDaisy/src/hid/audio.h **** 
   4:/Users/reza.kalfane/Workspaces/Daisy/DaisyExamples/libDaisy/src/hid/audio.h **** #include "per/sai.h"
   5:/Users/reza.kalfane/Workspaces/Daisy/DaisyExamples/libDaisy/src/hid/audio.h **** 
   6:/Users/reza.kalfane/Workspaces/Daisy/DaisyExamples/libDaisy/src/hid/audio.h **** namespace daisy
   7:/Users/reza.kalfane/Workspaces/Daisy/DaisyExamples/libDaisy/src/hid/audio.h **** {
   8:/Users/reza.kalfane/Workspaces/Daisy/DaisyExamples/libDaisy/src/hid/audio.h **** /** @brief Audio Engine Handle
   9:/Users/reza.kalfane/Workspaces/Daisy/DaisyExamples/libDaisy/src/hid/audio.h ****  *  @ingroup audio 
  10:/Users/reza.kalfane/Workspaces/Daisy/DaisyExamples/libDaisy/src/hid/audio.h ****  *  @details This class allows for higher level access to an audio engine.
  11:/Users/reza.kalfane/Workspaces/Daisy/DaisyExamples/libDaisy/src/hid/audio.h ****  *           If you're using a SOM like the DaisySeed or DaisyPatchSM (or any 
  12:/Users/reza.kalfane/Workspaces/Daisy/DaisyExamples/libDaisy/src/hid/audio.h ****  *            board that includes one of those objects) then the intialization
  13:/Users/reza.kalfane/Workspaces/Daisy/DaisyExamples/libDaisy/src/hid/audio.h ****  *            is already taken  care of.
  14:/Users/reza.kalfane/Workspaces/Daisy/DaisyExamples/libDaisy/src/hid/audio.h ****  *           If you're setting up your own custom hardware, or need to make changes
  15:/Users/reza.kalfane/Workspaces/Daisy/DaisyExamples/libDaisy/src/hid/audio.h ****  *           you will have to take the following steps:
  16:/Users/reza.kalfane/Workspaces/Daisy/DaisyExamples/libDaisy/src/hid/audio.h ****  *             1. Create and Initialize an SaiHandle or two depending on your requirements
  17:/Users/reza.kalfane/Workspaces/Daisy/DaisyExamples/libDaisy/src/hid/audio.h ****  *             2. Initialize the Audio Handle with the desired settings and the Initialized SaiHand
ARM GAS  /tmp/claude-502/ccJ8DnOJ.s 			page 7


  18:/Users/reza.kalfane/Workspaces/Daisy/DaisyExamples/libDaisy/src/hid/audio.h ****  *             3. If the connected codec requires special configuration or initialization, do so
  19:/Users/reza.kalfane/Workspaces/Daisy/DaisyExamples/libDaisy/src/hid/audio.h ****  *             4. Write a callback method using either the AudioCallback or the InterleavingAudioCa
  20:/Users/reza.kalfane/Workspaces/Daisy/DaisyExamples/libDaisy/src/hid/audio.h ****  *             5. Start the Audio using one of the StartAudio function
  21:/Users/reza.kalfane/Workspaces/Daisy/DaisyExamples/libDaisy/src/hid/audio.h ****  */
  22:/Users/reza.kalfane/Workspaces/Daisy/DaisyExamples/libDaisy/src/hid/audio.h **** class AudioHandle
  23:/Users/reza.kalfane/Workspaces/Daisy/DaisyExamples/libDaisy/src/hid/audio.h **** {
  24:/Users/reza.kalfane/Workspaces/Daisy/DaisyExamples/libDaisy/src/hid/audio.h ****   public:
  25:/Users/reza.kalfane/Workspaces/Daisy/DaisyExamples/libDaisy/src/hid/audio.h ****     /** Manually configurable details about the Audio Engine */
  26:/Users/reza.kalfane/Workspaces/Daisy/DaisyExamples/libDaisy/src/hid/audio.h ****     /** TODO: Figure out how to get samplerate in here. */
  27:/Users/reza.kalfane/Workspaces/Daisy/DaisyExamples/libDaisy/src/hid/audio.h ****     struct Config
  28:/Users/reza.kalfane/Workspaces/Daisy/DaisyExamples/libDaisy/src/hid/audio.h ****     {
  29:/Users/reza.kalfane/Workspaces/Daisy/DaisyExamples/libDaisy/src/hid/audio.h ****         /** number of samples to process per callback */
  30:/Users/reza.kalfane/Workspaces/Daisy/DaisyExamples/libDaisy/src/hid/audio.h ****         size_t blocksize;
  31:/Users/reza.kalfane/Workspaces/Daisy/DaisyExamples/libDaisy/src/hid/audio.h **** 
  32:/Users/reza.kalfane/Workspaces/Daisy/DaisyExamples/libDaisy/src/hid/audio.h ****         /**< Sample rate of audio */
  33:/Users/reza.kalfane/Workspaces/Daisy/DaisyExamples/libDaisy/src/hid/audio.h ****         SaiHandle::Config::SampleRate samplerate;
  34:/Users/reza.kalfane/Workspaces/Daisy/DaisyExamples/libDaisy/src/hid/audio.h **** 
  35:/Users/reza.kalfane/Workspaces/Daisy/DaisyExamples/libDaisy/src/hid/audio.h ****         /** factor for adjustment before and after callback for hardware that may have extra headro
  36:/Users/reza.kalfane/Workspaces/Daisy/DaisyExamples/libDaisy/src/hid/audio.h ****         float postgain;
  37:/Users/reza.kalfane/Workspaces/Daisy/DaisyExamples/libDaisy/src/hid/audio.h **** 
  38:/Users/reza.kalfane/Workspaces/Daisy/DaisyExamples/libDaisy/src/hid/audio.h ****         /** factor for additional one-sided compensation to audio path for hardware that may
  39:/Users/reza.kalfane/Workspaces/Daisy/DaisyExamples/libDaisy/src/hid/audio.h ****          *  have unequal input/output ranges
  40:/Users/reza.kalfane/Workspaces/Daisy/DaisyExamples/libDaisy/src/hid/audio.h ****          */
  41:/Users/reza.kalfane/Workspaces/Daisy/DaisyExamples/libDaisy/src/hid/audio.h ****         float output_compensation;
  42:/Users/reza.kalfane/Workspaces/Daisy/DaisyExamples/libDaisy/src/hid/audio.h **** 
  43:/Users/reza.kalfane/Workspaces/Daisy/DaisyExamples/libDaisy/src/hid/audio.h ****         /** Sets default values for config struct */
  44:/Users/reza.kalfane/Workspaces/Daisy/DaisyExamples/libDaisy/src/hid/audio.h ****         Config()
  45:/Users/reza.kalfane/Workspaces/Daisy/DaisyExamples/libDaisy/src/hid/audio.h ****         : blocksize(48),
  46:/Users/reza.kalfane/Workspaces/Daisy/DaisyExamples/libDaisy/src/hid/audio.h ****           samplerate(SaiHandle::Config::SampleRate::SAI_48KHZ),
  47:/Users/reza.kalfane/Workspaces/Daisy/DaisyExamples/libDaisy/src/hid/audio.h ****           postgain(1.f),
  48:/Users/reza.kalfane/Workspaces/Daisy/DaisyExamples/libDaisy/src/hid/audio.h ****           output_compensation(1.f)
  49:/Users/reza.kalfane/Workspaces/Daisy/DaisyExamples/libDaisy/src/hid/audio.h ****         {
  50:/Users/reza.kalfane/Workspaces/Daisy/DaisyExamples/libDaisy/src/hid/audio.h ****         }
  51:/Users/reza.kalfane/Workspaces/Daisy/DaisyExamples/libDaisy/src/hid/audio.h ****     };
  52:/Users/reza.kalfane/Workspaces/Daisy/DaisyExamples/libDaisy/src/hid/audio.h **** 
  53:/Users/reza.kalfane/Workspaces/Daisy/DaisyExamples/libDaisy/src/hid/audio.h ****     enum class Result
  54:/Users/reza.kalfane/Workspaces/Daisy/DaisyExamples/libDaisy/src/hid/audio.h ****     {
  55:/Users/reza.kalfane/Workspaces/Daisy/DaisyExamples/libDaisy/src/hid/audio.h ****         OK,
  56:/Users/reza.kalfane/Workspaces/Daisy/DaisyExamples/libDaisy/src/hid/audio.h ****         ERR,
  57:/Users/reza.kalfane/Workspaces/Daisy/DaisyExamples/libDaisy/src/hid/audio.h ****     };
  58:/Users/reza.kalfane/Workspaces/Daisy/DaisyExamples/libDaisy/src/hid/audio.h **** 
  59:/Users/reza.kalfane/Workspaces/Daisy/DaisyExamples/libDaisy/src/hid/audio.h ****     /** Non-Interleaving input buffer
  60:/Users/reza.kalfane/Workspaces/Daisy/DaisyExamples/libDaisy/src/hid/audio.h ****      * Buffer arranged by float[chn][sample] 
  61:/Users/reza.kalfane/Workspaces/Daisy/DaisyExamples/libDaisy/src/hid/audio.h ****      * const so that the user can't modify the input
  62:/Users/reza.kalfane/Workspaces/Daisy/DaisyExamples/libDaisy/src/hid/audio.h ****      */
  63:/Users/reza.kalfane/Workspaces/Daisy/DaisyExamples/libDaisy/src/hid/audio.h ****     typedef const float* const* InputBuffer;
  64:/Users/reza.kalfane/Workspaces/Daisy/DaisyExamples/libDaisy/src/hid/audio.h **** 
  65:/Users/reza.kalfane/Workspaces/Daisy/DaisyExamples/libDaisy/src/hid/audio.h ****     /** Non-Interleaving output buffer
  66:/Users/reza.kalfane/Workspaces/Daisy/DaisyExamples/libDaisy/src/hid/audio.h ****      * Arranged by float[chn][sample] 
  67:/Users/reza.kalfane/Workspaces/Daisy/DaisyExamples/libDaisy/src/hid/audio.h ****      */
  68:/Users/reza.kalfane/Workspaces/Daisy/DaisyExamples/libDaisy/src/hid/audio.h ****     typedef float** OutputBuffer;
  69:/Users/reza.kalfane/Workspaces/Daisy/DaisyExamples/libDaisy/src/hid/audio.h **** 
  70:/Users/reza.kalfane/Workspaces/Daisy/DaisyExamples/libDaisy/src/hid/audio.h ****     /** Type for a Non-Interleaving audio callback 
  71:/Users/reza.kalfane/Workspaces/Daisy/DaisyExamples/libDaisy/src/hid/audio.h ****      * Non-Interleaving audio callbacks in daisy will be of this type
  72:/Users/reza.kalfane/Workspaces/Daisy/DaisyExamples/libDaisy/src/hid/audio.h ****      */
  73:/Users/reza.kalfane/Workspaces/Daisy/DaisyExamples/libDaisy/src/hid/audio.h ****     typedef void (*AudioCallback)(InputBuffer  in,
  74:/Users/reza.kalfane/Workspaces/Daisy/DaisyExamples/libDaisy/src/hid/audio.h ****                                   OutputBuffer out,
ARM GAS  /tmp/claude-502/ccJ8DnOJ.s 			page 8


  75:/Users/reza.kalfane/Workspaces/Daisy/DaisyExamples/libDaisy/src/hid/audio.h ****                                   size_t       size);
  76:/Users/reza.kalfane/Workspaces/Daisy/DaisyExamples/libDaisy/src/hid/audio.h **** 
  77:/Users/reza.kalfane/Workspaces/Daisy/DaisyExamples/libDaisy/src/hid/audio.h ****     /** Interleaving Input buffer
  78:/Users/reza.kalfane/Workspaces/Daisy/DaisyExamples/libDaisy/src/hid/audio.h ****      ** audio is prepared as { L0, R0, L1, R1, . . . LN, RN }]
  79:/Users/reza.kalfane/Workspaces/Daisy/DaisyExamples/libDaisy/src/hid/audio.h ****      ** this is const, as the user shouldn't modify it
  80:/Users/reza.kalfane/Workspaces/Daisy/DaisyExamples/libDaisy/src/hid/audio.h ****     */
  81:/Users/reza.kalfane/Workspaces/Daisy/DaisyExamples/libDaisy/src/hid/audio.h ****     typedef const float* InterleavingInputBuffer;
  82:/Users/reza.kalfane/Workspaces/Daisy/DaisyExamples/libDaisy/src/hid/audio.h **** 
  83:/Users/reza.kalfane/Workspaces/Daisy/DaisyExamples/libDaisy/src/hid/audio.h ****     /** Interleaving Output buffer 
  84:/Users/reza.kalfane/Workspaces/Daisy/DaisyExamples/libDaisy/src/hid/audio.h ****      ** audio is prepared as { L0, R0, L1, R1, . . . LN, RN }
  85:/Users/reza.kalfane/Workspaces/Daisy/DaisyExamples/libDaisy/src/hid/audio.h ****     */
  86:/Users/reza.kalfane/Workspaces/Daisy/DaisyExamples/libDaisy/src/hid/audio.h ****     typedef float* InterleavingOutputBuffer;
  87:/Users/reza.kalfane/Workspaces/Daisy/DaisyExamples/libDaisy/src/hid/audio.h **** 
  88:/Users/reza.kalfane/Workspaces/Daisy/DaisyExamples/libDaisy/src/hid/audio.h ****     /** Interleaving Audio Callback 
  89:/Users/reza.kalfane/Workspaces/Daisy/DaisyExamples/libDaisy/src/hid/audio.h ****      * Interleaving audio callbacks in daisy must be of this type
  90:/Users/reza.kalfane/Workspaces/Daisy/DaisyExamples/libDaisy/src/hid/audio.h ****      */
  91:/Users/reza.kalfane/Workspaces/Daisy/DaisyExamples/libDaisy/src/hid/audio.h ****     typedef void (*InterleavingAudioCallback)(InterleavingInputBuffer  in,
  92:/Users/reza.kalfane/Workspaces/Daisy/DaisyExamples/libDaisy/src/hid/audio.h ****                                               InterleavingOutputBuffer out,
  93:/Users/reza.kalfane/Workspaces/Daisy/DaisyExamples/libDaisy/src/hid/audio.h ****                                               size_t                   size);
  94:/Users/reza.kalfane/Workspaces/Daisy/DaisyExamples/libDaisy/src/hid/audio.h **** 
  95:/Users/reza.kalfane/Workspaces/Daisy/DaisyExamples/libDaisy/src/hid/audio.h ****     AudioHandle() : pimpl_(nullptr) {}
  96:/Users/reza.kalfane/Workspaces/Daisy/DaisyExamples/libDaisy/src/hid/audio.h ****     ~AudioHandle() {}
  56              		.loc 5 96 5 is_stmt 1 view .LVU7
  57              		.loc 5 96 5 is_stmt 0 view .LVU8
  58              	.LBE267:
  59              		.loc 1 22 19 view .LVU9
  60 0000 7047     		bx	lr
  61              		.cfi_endproc
  62              	.LFE2556:
  64              		.weak	_ZN5daisy9DaisySeedD1Ev
  65              		.thumb_set _ZN5daisy9DaisySeedD1Ev,_ZN5daisy9DaisySeedD2Ev
  66 0002 00BF     		.section	.text._Z13quantize_midifPKai,"ax",%progbits
  67              		.align	1
  68              		.p2align 2,,3
  69              		.global	_Z13quantize_midifPKai
  70              		.syntax unified
  71              		.thumb
  72              		.thumb_func
  74              	_Z13quantize_midifPKai:
  75              	.LVL1:
  76              	.LFB2580:
  77              		.file 6 "src/main.cpp"
   1:src/main.cpp  **** /**
   2:src/main.cpp  ****  * mpr121_synth.cpp ŌĆö Glass Touch Moog Synth
   3:src/main.cpp  ****  * Daisy Seed ŌĆö Bit-Bang I2C  SDA=D12  SCL=D11
   4:src/main.cpp  ****  *
   5:src/main.cpp  ****  * FINGER 1:
   6:src/main.cpp  ****  *   Position  ŌåÆ Pitch (quantized on touch-down, continuous slide after)
   7:src/main.cpp  ****  *   Pressure  ŌåÆ Filter cutoff (light=dark/closed, hard=bright/open)
   8:src/main.cpp  ****  *               + Vibrato depth (press harder for more wobble)
   9:src/main.cpp  ****  *
  10:src/main.cpp  ****  * FINGER 2:
  11:src/main.cpp  ****  *   Position  ŌåÆ Oscillator detune (spread between osc1 and osc2)
  12:src/main.cpp  ****  *   Pressure  ŌåÆ Wavefold distortion (gentle saturation to complex fold)
  13:src/main.cpp  ****  *               + Ring mod amount (extreme pressure adds metallic edge)
  14:src/main.cpp  ****  *
  15:src/main.cpp  ****  * EXPRESSION:
ARM GAS  /tmp/claude-502/ccJ8DnOJ.s 			page 9


  16:src/main.cpp  ****  *   - Note quantize on initial touch, then free pitch bend on slide
  17:src/main.cpp  ****  *   - Pressure-controlled vibrato (LFO depth from finger 1 pressure)
  18:src/main.cpp  ****  *   - Portamento / glide between quantized notes
  19:src/main.cpp  ****  *   - Sub oscillator one octave below (adds weight)
  20:src/main.cpp  ****  *   - Soft-clip waveshaper before output
  21:src/main.cpp  ****  *   - Amplitude envelope: fast attack, pressure-controlled release
  22:src/main.cpp  ****  */
  23:src/main.cpp  **** 
  24:src/main.cpp  **** #include "daisy_seed.h"
  25:src/main.cpp  **** #include <math.h>
  26:src/main.cpp  **** #include <string.h>
  27:src/main.cpp  **** 
  28:src/main.cpp  **** using namespace daisy;
  29:src/main.cpp  **** using namespace daisy::seed;
  30:src/main.cpp  **** 
  31:src/main.cpp  **** #include "config.h"   // tuning constants
  32:src/main.cpp  **** #include "dsp.h"      // oscillators, filters, math (Waveform)
  33:src/main.cpp  **** #include "voice.h"    // Voice struct, presets, bank, cycling
  34:src/main.cpp  **** #include "mpr121.h"   // capacitive sensor driver (bit-bang I2C)
  35:src/main.cpp  **** #include "touch.h"    // finger detection / tracking
  36:src/main.cpp  **** #include "engine.h"   // audio engine: synth state, drum voices, AudioCallback
  37:src/main.cpp  **** #include "usb_glue.h" // TinyUSB CDC: usb_fs_init / usb_task / usb_log (replaces hw logger)
  38:src/main.cpp  **** #include "serialtune.h" // live voice tuning over USB serial
  39:src/main.cpp  **** #include "persist.h"  // editable, persistent voice bank (g_bank)
  40:src/main.cpp  **** 
  41:src/main.cpp  **** // Selected voice index ŌĆö set by the FSR-hold gesture, shown in the header.
  42:src/main.cpp  **** // Change the initial value to pick the boot voice.
  43:src/main.cpp  **** volatile int g_voice_idx = 2;                  // 2 = OpenBass (extern in engine.h)
  44:src/main.cpp  **** 
  45:src/main.cpp  **** // Active voice index ŌĆö what the audio engine actually plays. Normally tracks
  46:src/main.cpp  **** // g_voice_idx; in MultiVoice mode the touch loop routes it per tap to a drum.
  47:src/main.cpp  **** volatile int g_active_voice = 2;               // matches the boot voice (extern in engine.h)
  48:src/main.cpp  **** 
  49:src/main.cpp  **** 
  50:src/main.cpp  **** 
  51:src/main.cpp  **** 
  52:src/main.cpp  **** // ŌöĆŌöĆ Globals ŌöĆŌöĆŌöĆŌöĆŌöĆŌöĆŌöĆŌöĆŌöĆŌöĆŌöĆŌöĆŌöĆŌöĆŌöĆŌöĆŌöĆŌöĆŌöĆŌöĆŌöĆŌöĆŌöĆŌöĆŌöĆŌöĆŌöĆ
  53:src/main.cpp  **** DaisySeed hw;
  54:src/main.cpp  **** GPIO      led3;  // software-PWM LED on A0 (ADC0 / D15 / pin 22)
  55:src/main.cpp  **** 
  56:src/main.cpp  **** 
  57:src/main.cpp  **** 
  58:src/main.cpp  **** 
  59:src/main.cpp  **** // ŌöĆŌöĆ Note quantizer ŌöĆŌöĆŌöĆŌöĆŌöĆŌöĆŌöĆŌöĆŌöĆŌöĆŌöĆŌöĆŌöĆŌöĆŌöĆŌöĆŌöĆŌöĆŌöĆŌöĆŌöĆŌöĆŌöĆŌöĆŌö
  60:src/main.cpp  **** // Returns the nearest MIDI note in the given scale for a raw float MIDI pitch.
  61:src/main.cpp  **** // The scale is the voice's (Voice::scale / scale_len); a null/empty scale leaves
  62:src/main.cpp  **** // the pitch continuous.
  63:src/main.cpp  **** float quantize_midi(float midi, const int8_t* scale, int scale_len)
  64:src/main.cpp  **** {
  78              		.loc 6 64 1 is_stmt 1 view -0
  79              		.cfi_startproc
  80              		@ args = 0, pretend = 0, frame = 0
  81              		@ frame_needed = 0, uses_anonymous_args = 0
  65:src/main.cpp  ****     if(!scale || scale_len <= 0) return midi;
  82              		.loc 6 65 5 view .LVU11
  83 0000 0028     		cmp	r0, #0
  84 0002 40D0     		beq	.L11
ARM GAS  /tmp/claude-502/ccJ8DnOJ.s 			page 10


  85 0004 0029     		cmp	r1, #0
  64:src/main.cpp  ****     if(!scale || scale_len <= 0) return midi;
  86              		.loc 6 64 1 is_stmt 0 view .LVU12
  87 0006 2DE9F043 		push	{r4, r5, r6, r7, r8, r9, lr}
  88              		.cfi_def_cfa_offset 28
  89              		.cfi_offset 4, -28
  90              		.cfi_offset 5, -24
  91              		.cfi_offset 6, -20
  92              		.cfi_offset 7, -16
  93              		.cfi_offset 8, -12
  94              		.cfi_offset 9, -8
  95              		.cfi_offset 14, -4
  96              		.loc 6 65 5 view .LVU13
  97 000a CCBF     		ite	gt
  98 000c 0026     		movgt	r6, #0
  99 000e 0126     		movle	r6, #1
 100 0010 BEBB     		cbnz	r6, .L3
 101              	.LVL2:
 102              	.LBB272:
 103              	.LBI272:
  63:src/main.cpp  **** {
 104              		.loc 6 63 7 is_stmt 1 view .LVU14
 105              	.LBB273:
  66:src/main.cpp  ****     int root = (int)midi;
 106              		.loc 6 66 5 view .LVU15
 107              		.loc 6 66 9 is_stmt 0 view .LVU16
 108 0012 FDEEC07A 		vcvt.s32.f32	s15, s0
  67:src/main.cpp  ****     int pc   = root % 12;
 109              		.loc 6 67 9 view .LVU17
 110 0016 1C4B     		ldr	r3, .L14
 111 0018 441E     		subs	r4, r0, #1
  68:src/main.cpp  ****     int oct  = root / 12;
  69:src/main.cpp  ****     // find nearest scale degree
  70:src/main.cpp  ****     int best_deg=0, best_dist=127;
 112              		.loc 6 70 21 view .LVU18
 113 001a 7F27     		movs	r7, #127
  66:src/main.cpp  ****     int pc   = root % 12;
 114              		.loc 6 66 9 view .LVU19
 115 001c 17EE909A 		vmov	r9, s15	@ int
 116              	.LVL3:
  67:src/main.cpp  ****     int pc   = root % 12;
 117              		.loc 6 67 5 is_stmt 1 view .LVU20
  67:src/main.cpp  ****     int pc   = root % 12;
 118              		.loc 6 67 9 is_stmt 0 view .LVU21
 119 0020 83FB0923 		smull	r2, r3, r3, r9
 120 0024 4FEAE97E 		asr	lr, r9, #31
 121 0028 CEEB630E 		rsb	lr, lr, r3, asr #1
 122 002c 0EEB4E03 		add	r3, lr, lr, lsl #1
 123 0030 F046     		mov	r8, lr
 124 0032 A9EB830E 		sub	lr, r9, r3, lsl #2
 125              	.LVL4:
  68:src/main.cpp  ****     int oct  = root / 12;
 126              		.loc 6 68 5 is_stmt 1 view .LVU22
 127              		.loc 6 70 5 view .LVU23
  71:src/main.cpp  ****     for(int i=0;i<scale_len;i++){
 128              		.loc 6 71 5 view .LVU24
 129              	.LBB274:
ARM GAS  /tmp/claude-502/ccJ8DnOJ.s 			page 11


 130              		.loc 6 71 18 view .LVU25
 131              	.L7:
 132              	.LBB275:
  72:src/main.cpp  ****         int d=scale[i]-pc; if(d<0)d=-d;
 133              		.loc 6 72 9 view .LVU26
 134              		.loc 6 72 35 view .LVU27
 135 0036 2346     		mov	r3, r4
 136              		.loc 6 72 22 is_stmt 0 view .LVU28
 137 0038 14F901CF 		ldrsb	ip, [r4, #1]!
 138              	.LVL5:
 139              		.loc 6 72 28 is_stmt 1 view .LVU29
 140 003c BCEB0E02 		subs	r2, ip, lr
 141              	.LVL6:
 142              		.loc 6 72 28 is_stmt 0 view .LVU30
 143              	.LBE275:
  71:src/main.cpp  ****     for(int i=0;i<scale_len;i++){
 144              		.loc 6 71 18 view .LVU31
 145 0040 03F10203 		add	r3, r3, #2
 146              	.LBB276:
 147              		.loc 6 72 36 view .LVU32
 148 0044 48BF     		it	mi
 149 0046 AEEB0C02 		submi	r2, lr, ip
 150              	.LVL7:
  73:src/main.cpp  ****         int d2=12-d; if(d2<d)d=d2;
 151              		.loc 6 73 9 is_stmt 1 view .LVU33
 152              	.LBE276:
  71:src/main.cpp  ****     for(int i=0;i<scale_len;i++){
 153              		.loc 6 71 18 is_stmt 0 view .LVU34
 154 004a 1B1A     		subs	r3, r3, r0
 155              	.LBB277:
 156              		.loc 6 73 13 view .LVU35
 157 004c C2F10C05 		rsb	r5, r2, #12
 158              	.LVL8:
 159              		.loc 6 73 22 is_stmt 1 view .LVU36
 160 0050 AA42     		cmp	r2, r5
 161 0052 A8BF     		it	ge
 162 0054 2A46     		movge	r2, r5
 163              	.LVL9:
  74:src/main.cpp  ****         if(d<best_dist){best_dist=d;best_deg=scale[i];}
 164              		.loc 6 74 9 view .LVU37
 165 0056 BA42     		cmp	r2, r7
 166 0058 01DA     		bge	.L6
 167 005a 1746     		mov	r7, r2
 168              	.LVL10:
 169              		.loc 6 74 45 is_stmt 0 view .LVU38
 170 005c 6646     		mov	r6, ip
 171              	.L6:
 172              	.LVL11:
 173              		.loc 6 74 45 view .LVU39
 174              	.LBE277:
  71:src/main.cpp  ****         int d=scale[i]-pc; if(d<0)d=-d;
 175              		.loc 6 71 5 is_stmt 1 view .LVU40
  71:src/main.cpp  ****         int d=scale[i]-pc; if(d<0)d=-d;
 176              		.loc 6 71 18 view .LVU41
 177 005e 9942     		cmp	r1, r3
 178 0060 E9DC     		bgt	.L7
 179              	.LBE274:
ARM GAS  /tmp/claude-502/ccJ8DnOJ.s 			page 12


  75:src/main.cpp  ****     }
  76:src/main.cpp  ****     float q=(float)(oct*12+best_deg);
 180              		.loc 6 76 5 view .LVU42
 181              	.LVL12:
  77:src/main.cpp  ****     // fractional semitone from the quantized note (for slide expression)
  78:src/main.cpp  ****     float frac=midi-(float)root;
 182              		.loc 6 78 5 view .LVU43
  79:src/main.cpp  ****     return q+frac;
 183              		.loc 6 79 5 view .LVU44
  78:src/main.cpp  ****     return q+frac;
 184              		.loc 6 78 21 is_stmt 0 view .LVU45
 185 0062 07EE909A 		vmov	s15, r9	@ int
  76:src/main.cpp  ****     // fractional semitone from the quantized note (for slide expression)
 186              		.loc 6 76 24 view .LVU46
 187 0066 08EB4808 		add	r8, r8, r8, lsl #1
 188              	.LVL13:
  78:src/main.cpp  ****     return q+frac;
 189              		.loc 6 78 21 view .LVU47
 190 006a F8EEE77A 		vcvt.f32.s32	s15, s15
  76:src/main.cpp  ****     // fractional semitone from the quantized note (for slide expression)
 191              		.loc 6 76 27 view .LVU48
 192 006e 06EB8806 		add	r6, r6, r8, lsl #2
 193              	.LVL14:
  78:src/main.cpp  ****     return q+frac;
 194              		.loc 6 78 11 view .LVU49
 195 0072 30EE670A 		vsub.f32	s0, s0, s15
 196              	.LVL15:
  76:src/main.cpp  ****     // fractional semitone from the quantized note (for slide expression)
 197              		.loc 6 76 11 view .LVU50
 198 0076 07EE906A 		vmov	s15, r6	@ int
 199 007a F8EEE77A 		vcvt.f32.s32	s15, s15
 200              		.loc 6 79 14 view .LVU51
 201 007e 37EE800A 		vadd.f32	s0, s15, s0
 202              	.LVL16:
 203              	.L3:
 204              		.loc 6 79 14 view .LVU52
 205              	.LBE273:
 206              	.LBE272:
  80:src/main.cpp  **** }
 207              		.loc 6 80 1 view .LVU53
 208 0082 BDE8F083 		pop	{r4, r5, r6, r7, r8, r9, pc}
 209              	.LVL17:
 210              	.L11:
 211              		.cfi_def_cfa_offset 0
 212              		.cfi_restore 4
 213              		.cfi_restore 5
 214              		.cfi_restore 6
 215              		.cfi_restore 7
 216              		.cfi_restore 8
 217              		.cfi_restore 9
 218              		.cfi_restore 14
 219              		.loc 6 80 1 view .LVU54
 220 0086 7047     		bx	lr
 221              	.L15:
 222              		.align	2
 223              	.L14:
 224 0088 ABAAAA2A 		.word	715827883
ARM GAS  /tmp/claude-502/ccJ8DnOJ.s 			page 13


 225              		.cfi_endproc
 226              	.LFE2580:
 228              		.section	.text._Z8make_barPclli,"ax",%progbits
 229              		.align	1
 230              		.p2align 2,,3
 231              		.global	_Z8make_barPclli
 232              		.syntax unified
 233              		.thumb
 234              		.thumb_func
 236              	_Z8make_barPclli:
 237              	.LVL18:
 238              	.LFB2581:
  81:src/main.cpp  **** 
  82:src/main.cpp  **** 
  83:src/main.cpp  **** // ŌöĆŌöĆ Bar helpers ŌöĆŌöĆŌöĆŌöĆŌöĆŌöĆŌöĆŌöĆŌöĆŌöĆŌöĆŌöĆŌöĆŌöĆŌöĆŌöĆŌöĆŌöĆŌöĆŌöĆŌöĆŌöĆŌöĆŌöĆŌöĆŌö
  84:src/main.cpp  **** void make_bar(char* out,int32_t val,int32_t max,int w)
  85:src/main.cpp  **** {
 239              		.loc 6 85 1 is_stmt 1 view -0
 240              		.cfi_startproc
 241              		@ args = 0, pretend = 0, frame = 0
 242              		@ frame_needed = 0, uses_anonymous_args = 0
  86:src/main.cpp  ****     int n=(max>0&&val>0)?(int)((val*w+max/2)/max):0;
 243              		.loc 6 86 5 view .LVU56
 244              		.loc 6 86 25 is_stmt 0 view .LVU57
 245 0000 002A     		cmp	r2, #0
  85:src/main.cpp  ****     int n=(max>0&&val>0)?(int)((val*w+max/2)/max):0;
 246              		.loc 6 85 1 view .LVU58
 247 0002 10B5     		push	{r4, lr}
 248              		.cfi_def_cfa_offset 8
 249              		.cfi_offset 4, -8
 250              		.cfi_offset 14, -4
 251              		.loc 6 86 25 view .LVU59
 252 0004 23DD     		ble	.L21
 253 0006 0029     		cmp	r1, #0
 254 0008 21DD     		ble	.L21
 255              		.loc 6 86 42 discriminator 1 view .LVU60
 256 000a 4FEA620E 		asr	lr, r2, #1
 257              		.loc 6 86 38 discriminator 1 view .LVU61
 258 000e 03FB01E1 		mla	r1, r3, r1, lr
 259              	.LVL19:
 260              		.loc 6 86 25 discriminator 1 view .LVU62
 261 0012 91FBF2FC 		sdiv	ip, r1, r2
 262              	.L17:
 263              	.LVL20:
  87:src/main.cpp  ****     if(n>w)n=w;
 264              		.loc 6 87 5 is_stmt 1 discriminator 4 view .LVU63
 265 0016 9C45     		cmp	ip, r3
  88:src/main.cpp  ****     out[0]='[';
 266              		.loc 6 88 11 is_stmt 0 discriminator 4 view .LVU64
 267 0018 4FF05B02 		mov	r2, #91
 268              	.LVL21:
 269              		.loc 6 88 11 discriminator 4 view .LVU65
 270 001c A8BF     		it	ge
 271 001e 9C46     		movge	ip, r3
 272              	.LVL22:
 273              		.loc 6 88 5 is_stmt 1 discriminator 4 view .LVU66
 274              	.LBB279:
ARM GAS  /tmp/claude-502/ccJ8DnOJ.s 			page 14


  89:src/main.cpp  ****     for(int i=0;i<w;i++)out[1+i]=(i<n)?'#':' ';
 275              		.loc 6 89 18 is_stmt 0 discriminator 4 view .LVU67
 276 0020 002B     		cmp	r3, #0
 277              	.LBE279:
  88:src/main.cpp  ****     out[0]='[';
 278              		.loc 6 88 11 discriminator 4 view .LVU68
 279 0022 0270     		strb	r2, [r0]
 280              		.loc 6 89 5 is_stmt 1 discriminator 4 view .LVU69
 281              	.LVL23:
 282              	.LBB280:
 283              		.loc 6 89 18 discriminator 4 view .LVU70
 284 0024 0DDD     		ble	.L18
 285 0026 421C     		adds	r2, r0, #1
 286 0028 6FEA000E 		mvn	lr, r0
 287 002c D418     		adds	r4, r2, r3
 288              	.LVL24:
 289              	.L20:
 290              		.loc 6 89 25 discriminator 2 view .LVU71
 291              		.loc 6 89 39 is_stmt 0 discriminator 2 view .LVU72
 292 002e 0EEB0201 		add	r1, lr, r2
 293 0032 8C45     		cmp	ip, r1
 294 0034 D4BF     		ite	le
 295 0036 2021     		movle	r1, #32
 296 0038 2321     		movgt	r1, #35
 297              		.loc 6 89 33 discriminator 2 view .LVU73
 298 003a 02F8011B 		strb	r1, [r2], #1
 299              		.loc 6 89 5 is_stmt 1 discriminator 2 view .LVU74
 300              		.loc 6 89 18 discriminator 2 view .LVU75
 301 003e A242     		cmp	r2, r4
 302 0040 F5D1     		bne	.L20
 303              	.L18:
 304              		.loc 6 89 18 is_stmt 0 discriminator 2 view .LVU76
 305              	.LBE280:
  90:src/main.cpp  ****     out[1+w]=']';out[2+w]='\0';
 306              		.loc 6 90 5 is_stmt 1 view .LVU77
 307              		.loc 6 90 13 is_stmt 0 view .LVU78
 308 0042 1844     		add	r0, r0, r3
 309              	.LVL25:
 310              		.loc 6 90 13 view .LVU79
 311 0044 5D22     		movs	r2, #93
 312              		.loc 6 90 26 view .LVU80
 313 0046 0023     		movs	r3, #0
 314              	.LVL26:
 315              		.loc 6 90 13 view .LVU81
 316 0048 4270     		strb	r2, [r0, #1]
 317              		.loc 6 90 18 is_stmt 1 view .LVU82
 318              		.loc 6 90 26 is_stmt 0 view .LVU83
 319 004a 8370     		strb	r3, [r0, #2]
  91:src/main.cpp  **** }
 320              		.loc 6 91 1 view .LVU84
 321 004c 10BD     		pop	{r4, pc}
 322              	.LVL27:
 323              	.L21:
  86:src/main.cpp  ****     if(n>w)n=w;
 324              		.loc 6 86 25 view .LVU85
 325 004e 4FF0000C 		mov	ip, #0
 326 0052 E0E7     		b	.L17
ARM GAS  /tmp/claude-502/ccJ8DnOJ.s 			page 15


 327              		.cfi_endproc
 328              	.LFE2581:
 330              		.global	__aeabi_ldivmod
 331              		.section	.text._Z12make_pos_barPci,"ax",%progbits
 332              		.align	1
 333              		.p2align 2,,3
 334              		.global	_Z12make_pos_barPci
 335              		.syntax unified
 336              		.thumb
 337              		.thumb_func
 339              	_Z12make_pos_barPci:
 340              	.LVL28:
 341              	.LFB2582:
  92:src/main.cpp  **** 
  93:src/main.cpp  **** void make_pos_bar(char* out,int w)
  94:src/main.cpp  **** {
 342              		.loc 6 94 1 is_stmt 1 view -0
 343              		.cfi_startproc
 344              		@ args = 0, pretend = 0, frame = 0
 345              		@ frame_needed = 0, uses_anonymous_args = 0
  95:src/main.cpp  ****     out[0]='|';
 346              		.loc 6 95 5 view .LVU87
  94:src/main.cpp  ****     out[0]='|';
 347              		.loc 6 94 1 is_stmt 0 view .LVU88
 348 0000 2DE9F041 		push	{r4, r5, r6, r7, r8, lr}
 349              		.cfi_def_cfa_offset 24
 350              		.cfi_offset 4, -24
 351              		.cfi_offset 5, -20
 352              		.cfi_offset 6, -16
 353              		.cfi_offset 7, -12
 354              		.cfi_offset 8, -8
 355              		.cfi_offset 14, -4
 356              		.loc 6 95 11 view .LVU89
 357 0004 7C23     		movs	r3, #124
 358              	.LBB284:
  96:src/main.cpp  ****     for(int i=0;i<w;i++)out[1+i]='-';
 359              		.loc 6 96 18 view .LVU90
 360 0006 0E1E     		subs	r6, r1, #0
 361              	.LBE284:
  94:src/main.cpp  ****     out[0]='|';
 362              		.loc 6 94 1 view .LVU91
 363 0008 8046     		mov	r8, r0
  95:src/main.cpp  ****     out[0]='|';
 364              		.loc 6 95 11 view .LVU92
 365 000a 0370     		strb	r3, [r0]
 366              		.loc 6 96 5 is_stmt 1 view .LVU93
 367              	.LVL29:
 368              	.LBB285:
 369              		.loc 6 96 18 view .LVU94
 370 000c 04DD     		ble	.L34
 371              		.loc 6 96 33 is_stmt 0 view .LVU95
 372 000e 3246     		mov	r2, r6
 373 0010 2D21     		movs	r1, #45
 374              	.LVL30:
 375              		.loc 6 96 33 view .LVU96
 376 0012 0130     		adds	r0, r0, #1
 377              	.LVL31:
ARM GAS  /tmp/claude-502/ccJ8DnOJ.s 			page 16


 378              		.loc 6 96 33 view .LVU97
 379 0014 FFF7FEFF 		bl	memset
 380              	.LVL32:
 381              	.L34:
 382              		.loc 6 96 33 view .LVU98
 383              	.LBE285:
  97:src/main.cpp  ****     out[1+w]='|';out[2+w]='\0';
 384              		.loc 6 97 5 is_stmt 1 view .LVU99
 385              		.loc 6 97 13 is_stmt 0 view .LVU100
 386 0018 08EB0603 		add	r3, r8, r6
 387 001c 7C21     		movs	r1, #124
 388              		.loc 6 97 26 view .LVU101
 389 001e 0022     		movs	r2, #0
 390 0020 124D     		ldr	r5, .L43
 391 0022 3124     		movs	r4, #49
 392              		.loc 6 97 13 view .LVU102
 393 0024 5970     		strb	r1, [r3, #1]
 394              		.loc 6 97 18 is_stmt 1 view .LVU103
 395              		.loc 6 97 26 is_stmt 0 view .LVU104
 396 0026 9A70     		strb	r2, [r3, #2]
  98:src/main.cpp  ****     for(int slot=0;slot<MAX_FINGERS;slot++){
 397              		.loc 6 98 5 is_stmt 1 view .LVU105
 398              	.LVL33:
 399              	.LBB286:
 400              		.loc 6 98 24 view .LVU106
 401              	.L33:
 402              	.LBB287:
  99:src/main.cpp  ****         if(!tracked[slot].alive)continue;
 403              		.loc 6 99 9 view .LVU107
 100:src/main.cpp  ****         int p=(int)(((int64_t)tracked[slot].pos*(w-1)+500)/1000);
 404              		.loc 6 100 9 view .LVU108
  99:src/main.cpp  ****         if(!tracked[slot].alive)continue;
 405              		.loc 6 99 9 is_stmt 0 view .LVU109
 406 0028 95F800E0 		ldrb	lr, [r5]	@ zero_extendqisi2
 407              		.loc 6 100 51 view .LVU110
 408 002c 06F1FF3C 		add	ip, r6, #-1
 409              		.loc 6 100 54 view .LVU111
 410 0030 4FF4FA70 		mov	r0, #500
 411 0034 0021     		movs	r1, #0
 412              		.loc 6 100 59 view .LVU112
 413 0036 4FF47A72 		mov	r2, #1000
 414 003a 0023     		movs	r3, #0
  99:src/main.cpp  ****         if(!tracked[slot].alive)continue;
 415              		.loc 6 99 9 view .LVU113
 416 003c BEF1000F 		cmp	lr, #0
 417 0040 0CD0     		beq	.L35
 418              		.loc 6 100 59 view .LVU114
 419 0042 6F68     		ldr	r7, [r5, #4]
 420 0044 C7FB0C01 		smlal	r0, r1, r7, ip
 421 0048 FFF7FEFF 		bl	__aeabi_ldivmod
 422              	.LVL34:
 101:src/main.cpp  ****         if(p<0)p=0;if(p>=w)p=w-1;
 423              		.loc 6 101 9 is_stmt 1 view .LVU115
 424 004c 20EAE073 		bic	r3, r0, r0, asr #31
 425              	.LVL35:
 426              		.loc 6 101 20 view .LVU116
 427 0050 3246     		mov	r2, r6
ARM GAS  /tmp/claude-502/ccJ8DnOJ.s 			page 17


 428 0052 B342     		cmp	r3, r6
 102:src/main.cpp  ****         out[1+p]=(char)('1'+slot);
 429              		.loc 6 102 14 is_stmt 0 view .LVU117
 430 0054 B8BF     		it	lt
 431 0056 5A1C     		addlt	r2, r3, #1
 432              	.LVL36:
 433              		.loc 6 102 9 is_stmt 1 view .LVU118
 434              		.loc 6 102 17 is_stmt 0 view .LVU119
 435 0058 08F80240 		strb	r4, [r8, r2]
 436              	.L35:
 437              		.loc 6 102 17 view .LVU120
 438              	.LBE287:
  98:src/main.cpp  ****         if(!tracked[slot].alive)continue;
 439              		.loc 6 98 5 is_stmt 1 discriminator 2 view .LVU121
  98:src/main.cpp  ****         if(!tracked[slot].alive)continue;
 440              		.loc 6 98 24 discriminator 2 view .LVU122
 441 005c 0134     		adds	r4, r4, #1
 442 005e 1435     		adds	r5, r5, #20
 443 0060 E4B2     		uxtb	r4, r4
 444 0062 352C     		cmp	r4, #53
 445 0064 E0D1     		bne	.L33
 446              	.LBE286:
 103:src/main.cpp  ****     }
 104:src/main.cpp  **** }
 447              		.loc 6 104 1 is_stmt 0 view .LVU123
 448 0066 BDE8F081 		pop	{r4, r5, r6, r7, r8, pc}
 449              	.LVL37:
 450              	.L44:
 451              		.loc 6 104 1 view .LVU124
 452 006a 00BF     		.align	2
 453              	.L43:
 454 006c 00000000 		.word	tracked
 455              		.cfi_endproc
 456              	.LFE2582:
 458              		.section	.rodata.main.str1.4,"aMS",%progbits,1
 459              		.align	2
 460              	.LC0:
 461 0000 00       		.ascii	"\000"
 462 0001 000000   		.align	2
 463              	.LC1:
 464 0004 463100   		.ascii	"F1\000"
 465 0007 00       		.align	2
 466              	.LC2:
 467 0008 463200   		.ascii	"F2\000"
 468 000b 00       		.align	2
 469              	.LC3:
 470 000c 476C6173 		.ascii	"Glass Moog Synth\000"
 470      73204D6F 
 470      6F672053 
 470      796E7468 
 470      00
 471 001d 000000   		.align	2
 472              	.LC4:
 473 0020 3D3D3D3D 		.ascii	"================\000"
 473      3D3D3D3D 
 473      3D3D3D3D 
 473      3D3D3D3D 
ARM GAS  /tmp/claude-502/ccJ8DnOJ.s 			page 18


 473      00
 474 0031 000000   		.align	2
 475              	.LC5:
 476 0034 566F6963 		.ascii	"Voice %d/%d: %s  (%d-%dHz)\000"
 476      65202564 
 476      2F25643A 
 476      20257320 
 476      20282564 
 477 004f 00       		.align	2
 478              	.LC6:
 479 0050 46312070 		.ascii	"F1 pos=pitch  F1 prs=cutoff+vibrato\000"
 479      6F733D70 
 479      69746368 
 479      20204631 
 479      20707273 
 480              		.align	2
 481              	.LC7:
 482 0074 46322070 		.ascii	"F2 pos=detune F2 prs=wavefold+ringmod\000"
 482      6F733D64 
 482      6574756E 
 482      65204632 
 482      20707273 
 483 009a 0000     		.align	2
 484              	.LC8:
 485 009c 46322070 		.ascii	"F2 prs=wavefold+ringmod (osc2=fixed)\000"
 485      72733D77 
 485      61766566 
 485      6F6C642B 
 485      72696E67 
 486 00c1 000000   		.align	2
 487              	.LC9:
 488 00c4 50726573 		.ascii	"Press FSR fully (no touch) 2s -> select; tap to cyc"
 488      73204653 
 488      52206675 
 488      6C6C7920 
 488      286E6F20 
 489 00f7 6C653B20 		.ascii	"le; release to keep\000"
 489      72656C65 
 489      61736520 
 489      746F206B 
 489      65657000 
 490 010b 00       		.align	2
 491              	.LC10:
 492 010c 4D505231 		.ascii	"MPR121 OK \342\200\224 baseline captured\000"
 492      3231204F 
 492      4B20E280 
 492      94206261 
 492      73656C69 
 493              		.align	2
 494              	.LC11:
 495 012c 52656164 		.ascii	"Ready.\012\000"
 495      792E0A00 
 496              		.align	2
 497              	.LC12:
 498 0134 5B766F69 		.ascii	"[voice select] %s (%d/%d) - tap/slide glass; releas"
 498      63652073 
 498      656C6563 
ARM GAS  /tmp/claude-502/ccJ8DnOJ.s 			page 19


 498      745D2025 
 498      73202825 
 499 0167 65204653 		.ascii	"e FSR to keep\000"
 499      5220746F 
 499      206B6565 
 499      7000
 500 0175 000000   		.align	2
 501              	.LC13:
 502 0178 5B766F69 		.ascii	"[voice kept %d/%d] %s\000"
 502      6365206B 
 502      65707420 
 502      25642F25 
 502      645D2025 
 503 018e 0000     		.align	2
 504              	.LC14:
 505 0190 766F6963 		.ascii	"voice %d\000"
 505      65202564 
 505      00
 506 0199 000000   		.align	2
 507              	.LC15:
 508 019c 5B766F69 		.ascii	"[voice %d/%d] %s\000"
 508      63652025 
 508      642F2564 
 508      5D202573 
 508      00
 509 01ad 000000   		.align	2
 510              	.LC16:
 511 01b0 5B726562 		.ascii	"[rebaseline]\000"
 511      6173656C 
 511      696E655D 
 511      00
 512 01bd 000000   		.align	2
 513              	.LC17:
 514 01c0 5B667372 		.ascii	"[fsr recal] fsr_max=%d\000"
 514      20726563 
 514      616C5D20 
 514      6673725F 
 514      6D61783D 
 515 01d7 00       		.align	2
 516              	.LC18:
 517 01d8 564F4943 		.ascii	"VOICE %d/%d  Drums [Kick|Snare|Tom|Hat]  -> %s\000"
 517      45202564 
 517      2F256420 
 517      20447275 
 517      6D73205B 
 518 0207 00       		.align	2
 519              	.LC19:
 520 0208 564F4943 		.ascii	"VOICE %d/%d  %s  (%d-%dHz)\000"
 520      45202564 
 520      2F256420 
 520      20257320 
 520      20282564 
 521 0223 00       		.align	2
 522              	.LC20:
 523 0224 20434820 		.ascii	" CH | DELTA | BAR\000"
 523      7C204445 
 523      4C544120 
ARM GAS  /tmp/claude-502/ccJ8DnOJ.s 			page 20


 523      7C204241 
 523      5200
 524 0236 0000     		.align	2
 525              	.LC21:
 526 0238 2D2D2D2D 		.ascii	"----+-------+----------------------\000"
 526      2B2D2D2D 
 526      2D2D2D2D 
 526      2B2D2D2D 
 526      2D2D2D2D 
 527              		.align	2
 528              	.LC22:
 529 025c 20253032 		.ascii	" %02d | %5d | %s  %s\000"
 529      64207C20 
 529      25356420 
 529      7C202573 
 529      20202573 
 530 0271 000000   		.align	2
 531              	.LC23:
 532 0274 0A504F53 		.ascii	"\012POS  %s\000"
 532      20202573 
 532      00
 533 027d 000000   		.align	2
 534              	.LC24:
 535 0280 20462564 		.ascii	" F%d  pos:%4d  prs:%3d%%  %s\000"
 535      2020706F 
 535      733A2534 
 535      64202070 
 535      72733A25 
 536 029d 000000   		.align	2
 537              	.LC25:
 538 02a0 20462564 		.ascii	" F%d  pos: ---  prs: --%%  [                ]\000"
 538      2020706F 
 538      733A202D 
 538      2D2D2020 
 538      7072733A 
 539 02ce 0000     		.align	2
 540              	.LC26:
 541 02d0 20465352 		.ascii	" FSR pressure  %3d%%  %s\000"
 541      20707265 
 541      73737572 
 541      65202025 
 541      33642525 
 542 02e9 000000   		.align	2
 543              	.LC27:
 544 02ec 20206672 		.ascii	"  freq:%4dHz  cut:%5dHz  det:%c%d.%ds  fx:%2d%%  vi"
 544      65713A25 
 544      3464487A 
 544      20206375 
 544      743A2535 
 545 031f 623A2532 		.ascii	"b:%2d%%\000"
 545      64252500 
 546 0327 00       		.align	2
 547              	.LC28:
 548 0328 2D2D2D2D 		.ascii	"--------------------------------------------\000"
 548      2D2D2D2D 
 548      2D2D2D2D 
 548      2D2D2D2D 
ARM GAS  /tmp/claude-502/ccJ8DnOJ.s 			page 21


 548      2D2D2D2D 
 549              		.section	.text.startup.main,"ax",%progbits
 550              		.align	1
 551              		.p2align 2,,3
 552              		.global	main
 553              		.syntax unified
 554              		.thumb
 555              		.thumb_func
 557              	main:
 558              	.LFB2583:
 105:src/main.cpp  **** 
 106:src/main.cpp  **** // Our vector table (startup_stm32h750xx.c, placed at the start of SRAM by the
 107:src/main.cpp  **** // BOOT_SRAM linker). Used to fix SCB->VTOR below.
 108:src/main.cpp  **** extern "C" void* g_pfnVectors[];
 109:src/main.cpp  **** 
 110:src/main.cpp  **** // ŌöĆŌöĆ Main ŌöĆŌöĆŌöĆŌöĆŌöĆŌöĆŌöĆŌöĆŌöĆŌöĆŌöĆŌöĆŌöĆŌöĆŌöĆŌöĆŌöĆŌöĆŌöĆŌöĆŌöĆŌöĆŌöĆŌöĆŌöĆŌöĆŌöĆŌöĆ
 111:src/main.cpp  **** int main()
 112:src/main.cpp  **** {
 559              		.loc 6 112 1 is_stmt 1 view -0
 560              		.cfi_startproc
 561              		@ args = 0, pretend = 0, frame = 504
 562              		@ frame_needed = 0, uses_anonymous_args = 0
 113:src/main.cpp  ****     // BOOT_SRAM persistence fix: the Daisy bootloader can leave SCB->VTOR at the
 114:src/main.cpp  ****     // QSPI image base, so libDaisy's GetProgramMemoryRegion() reports QSPI and
 115:src/main.cpp  ****     // refuses QSPI writes (storage.Save() silently no-ops ŌåÆ the selected voice
 116:src/main.cpp  ****     // never persists). Point VTOR at our real SRAM vector table so the program
 117:src/main.cpp  ****     // region reads as SRAM and QSPI flash writes are allowed. (Do this before
 118:src/main.cpp  ****     // persist_init(), which may Save() on a first-boot magic mismatch.)
 119:src/main.cpp  ****     SCB->VTOR = (uint32_t)g_pfnVectors;
 563              		.loc 6 119 5 view .LVU126
 564              		.loc 6 119 15 is_stmt 0 view .LVU127
 565 0000 324B     		ldr	r3, .L552
 120:src/main.cpp  **** 
 121:src/main.cpp  ****     hw.Init();
 566              		.loc 6 121 12 view .LVU128
 567 0002 0021     		movs	r1, #0
 119:src/main.cpp  **** 
 568              		.loc 6 119 15 view .LVU129
 569 0004 324A     		ldr	r2, .L552+4
 570              		.loc 6 121 12 view .LVU130
 571 0006 3348     		ldr	r0, .L552+8
 112:src/main.cpp  ****     // BOOT_SRAM persistence fix: the Daisy bootloader can leave SCB->VTOR at the
 572              		.loc 6 112 1 view .LVU131
 573 0008 2DE9F04F 		push	{r4, r5, r6, r7, r8, r9, r10, fp, lr}
 574              		.cfi_def_cfa_offset 36
 575              		.cfi_offset 4, -36
 576              		.cfi_offset 5, -32
 577              		.cfi_offset 6, -28
 578              		.cfi_offset 7, -24
 579              		.cfi_offset 8, -20
 580              		.cfi_offset 9, -16
 581              		.cfi_offset 10, -12
 582              		.cfi_offset 11, -8
 583              		.cfi_offset 14, -4
 584 000c 2DED0C8B 		vpush.64	{d8, d9, d10, d11, d12, d13}
 585              		.cfi_def_cfa_offset 84
 586              		.cfi_offset 80, -84
ARM GAS  /tmp/claude-502/ccJ8DnOJ.s 			page 22


 587              		.cfi_offset 81, -80
 588              		.cfi_offset 82, -76
 589              		.cfi_offset 83, -72
 590              		.cfi_offset 84, -68
 591              		.cfi_offset 85, -64
 592              		.cfi_offset 86, -60
 593              		.cfi_offset 87, -56
 594              		.cfi_offset 88, -52
 595              		.cfi_offset 89, -48
 596              		.cfi_offset 90, -44
 597              		.cfi_offset 91, -40
 119:src/main.cpp  **** 
 598              		.loc 6 119 15 view .LVU132
 599 0010 9A60     		str	r2, [r3, #8]
 600              		.loc 6 121 5 is_stmt 1 view .LVU133
 112:src/main.cpp  ****     // BOOT_SRAM persistence fix: the Daisy bootloader can leave SCB->VTOR at the
 601              		.loc 6 112 1 is_stmt 0 view .LVU134
 602 0012 ADF5037D 		sub	sp, sp, #524
 603              		.cfi_def_cfa_offset 608
 604              		.loc 6 121 12 view .LVU135
 605 0016 FFF7FEFF 		bl	_ZN5daisy9DaisySeed4InitEb
 606              	.LVL38:
 122:src/main.cpp  ****     hw.SetAudioBlockSize(4);
 607              		.loc 6 122 5 is_stmt 1 view .LVU136
 608              		.loc 6 122 25 is_stmt 0 view .LVU137
 609 001a 0421     		movs	r1, #4
 610 001c 2D48     		ldr	r0, .L552+8
 611 001e FFF7FEFF 		bl	_ZN5daisy9DaisySeed17SetAudioBlockSizeEj
 612              	.LVL39:
 123:src/main.cpp  **** 
 124:src/main.cpp  ****     // ŌöĆŌöĆ Persisted voice bank (QSPI flash) ŌöĆŌöĆŌöĆŌöĆŌöĆŌöĆŌöĆŌöĆŌöĆŌöĆŌöĆŌöĆŌöĆŌöĆŌöĆŌöĆŌöĆ
 125:src/main.cpp  ****     // Build the factory bank, load any saved per-voice edits over it, and restore
 126:src/main.cpp  ****     // the last selected voice. g_bank is what the engine plays from here on.
 127:src/main.cpp  ****     persist_init();
 613              		.loc 6 127 5 is_stmt 1 view .LVU138
 614              		.loc 6 127 17 is_stmt 0 view .LVU139
 615 0022 FFF7FEFF 		bl	_Z12persist_initv
 616              	.LVL40:
 128:src/main.cpp  **** 
 129:src/main.cpp  ****     // Power-on grace period so the lid can be closed before baseline capture.
 130:src/main.cpp  ****     System::Delay(5000);
 617              		.loc 6 130 5 is_stmt 1 view .LVU140
 618              		.loc 6 130 18 is_stmt 0 view .LVU141
 619 0026 41F28830 		movw	r0, #5000
 620 002a FFF7FEFF 		bl	_ZN5daisy6System5DelayEm
 621              	.LVL41:
 131:src/main.cpp  **** 
 132:src/main.cpp  ****     // ŌöĆŌöĆ I2C pins + MPR121 init BEFORE audio starts ŌöĆŌöĆŌöĆŌöĆŌöĆŌöĆŌöĆŌöĆŌöĆŌöĆŌöĆŌöĆŌöĆŌöĆ
 133:src/main.cpp  ****     // The audio ISR firing during bit-bang I2C corrupts I2C timing.
 134:src/main.cpp  ****     // Do all sensor work first, then start the audio engine.
 135:src/main.cpp  ****     mpr_idle_pins();
 622              		.loc 6 135 5 is_stmt 1 view .LVU142
 623              		.loc 6 135 18 is_stmt 0 view .LVU143
 624 002e FFF7FEFF 		bl	_Z13mpr_idle_pinsv
 625              	.LVL42:
 136:src/main.cpp  **** 
 137:src/main.cpp  ****     uint16_t baseline[N_CH];
ARM GAS  /tmp/claude-502/ccJ8DnOJ.s 			page 23


 626              		.loc 6 137 5 is_stmt 1 view .LVU144
 138:src/main.cpp  ****     if(mpr_init())
 627              		.loc 6 138 5 view .LVU145
 628              		.loc 6 138 16 is_stmt 0 view .LVU146
 629 0032 FFF7FEFF 		bl	_Z8mpr_initv
 630              	.LVL43:
 139:src/main.cpp  ****     {
 140:src/main.cpp  ****         System::Delay(300);
 141:src/main.cpp  ****         capture_baseline(baseline);
 631              		.loc 6 141 25 view .LVU147
 632 0036 3BAB     		add	r3, sp, #236
 138:src/main.cpp  ****     if(mpr_init())
 633              		.loc 6 138 5 view .LVU148
 634 0038 0028     		cmp	r0, #0
 635 003a 42F0A780 		bne	.L478
 636 003e 0F93     		str	r3, [sp, #60]
 637              	.L46:
 142:src/main.cpp  ****     }
 143:src/main.cpp  ****     // If MPR121 fails we still start audio so the problem is audible (silence)
 144:src/main.cpp  **** 
 145:src/main.cpp  ****     // ŌöĆŌöĆ DAC LEDs (pin 30 = DAC1, pin 31 = DAC2) + PWM LED (A0 = pin 22) ŌöĆŌöĆŌöĆŌöĆŌöĆŌöĆ
 146:src/main.cpp  ****     DacHandle::Config dac_cfg;
 638              		.loc 6 146 5 is_stmt 1 view .LVU149
 147:src/main.cpp  ****     dac_cfg.bitdepth   = DacHandle::BitDepth::BITS_12;
 639              		.loc 6 147 5 view .LVU150
 148:src/main.cpp  ****     dac_cfg.buff_state = DacHandle::BufferState::ENABLED;
 640              		.loc 6 148 24 is_stmt 0 view .LVU151
 641 0040 0025     		movs	r5, #0
 147:src/main.cpp  ****     dac_cfg.bitdepth   = DacHandle::BitDepth::BITS_12;
 642              		.loc 6 147 24 view .LVU152
 643 0042 0124     		movs	r4, #1
 149:src/main.cpp  ****     dac_cfg.mode       = DacHandle::Mode::POLLING;
 150:src/main.cpp  ****     dac_cfg.chn        = DacHandle::Channel::BOTH;
 644              		.loc 6 150 24 view .LVU153
 645 0044 0226     		movs	r6, #2
 151:src/main.cpp  ****     hw.dac.Init(dac_cfg);
 646              		.loc 6 151 16 view .LVU154
 647 0046 36A9     		add	r1, sp, #216
 648 0048 2348     		ldr	r0, .L552+12
 150:src/main.cpp  ****     hw.dac.Init(dac_cfg);
 649              		.loc 6 150 24 view .LVU155
 650 004a 3796     		str	r6, [sp, #220]
 148:src/main.cpp  ****     dac_cfg.mode       = DacHandle::Mode::POLLING;
 651              		.loc 6 148 24 view .LVU156
 652 004c 3A95     		str	r5, [sp, #232]
 147:src/main.cpp  ****     dac_cfg.buff_state = DacHandle::BufferState::ENABLED;
 653              		.loc 6 147 24 view .LVU157
 654 004e CDE93854 		strd	r5, r4, [sp, #224]
 148:src/main.cpp  ****     dac_cfg.mode       = DacHandle::Mode::POLLING;
 655              		.loc 6 148 5 is_stmt 1 view .LVU158
 149:src/main.cpp  ****     dac_cfg.chn        = DacHandle::Channel::BOTH;
 656              		.loc 6 149 5 view .LVU159
 150:src/main.cpp  ****     hw.dac.Init(dac_cfg);
 657              		.loc 6 150 5 view .LVU160
 658              		.loc 6 151 5 view .LVU161
 659              		.loc 6 151 16 is_stmt 0 view .LVU162
 660 0052 FFF7FEFF 		bl	_ZN5daisy9DacHandle4InitERKNS0_6ConfigE
ARM GAS  /tmp/claude-502/ccJ8DnOJ.s 			page 24


 661              	.LVL44:
 152:src/main.cpp  ****     hw.dac.WriteValue(DacHandle::Channel::BOTH, 0);
 662              		.loc 6 152 5 is_stmt 1 view .LVU163
 663              		.loc 6 152 22 is_stmt 0 view .LVU164
 664 0056 3146     		mov	r1, r6
 665 0058 2A46     		mov	r2, r5
 666 005a 1F48     		ldr	r0, .L552+12
 667 005c FFF7FEFF 		bl	_ZN5daisy9DacHandle10WriteValueENS0_7ChannelEt
 668              	.LVL45:
 153:src/main.cpp  **** 
 154:src/main.cpp  ****     led3.Init(seed::A0, GPIO::Mode::OUTPUT, GPIO::Pull::NOPULL);
 669              		.loc 6 154 5 is_stmt 1 view .LVU165
 670              		.loc 6 154 14 is_stmt 0 view .LVU166
 671 0060 1E4B     		ldr	r3, .L552+16
 672 0062 2246     		mov	r2, r4
 673 0064 1E48     		ldr	r0, .L552+20
 674 0066 1968     		ldr	r1, [r3]
 675 0068 2B46     		mov	r3, r5
 676 006a 0095     		str	r5, [sp]
 677 006c FFF7FEFF 		bl	_ZN5daisy4GPIO4InitENS_3PinENS0_4ModeENS0_4PullENS0_5SpeedE
 678              	.LVL46:
 155:src/main.cpp  ****     led3.Write(false);
 679              		.loc 6 155 5 is_stmt 1 view .LVU167
 680              		.loc 6 155 15 is_stmt 0 view .LVU168
 681 0070 2946     		mov	r1, r5
 682 0072 1B48     		ldr	r0, .L552+20
 683 0074 FFF7FEFF 		bl	_ZN5daisy4GPIO5WriteEb
 684              	.LVL47:
 156:src/main.cpp  **** 
 157:src/main.cpp  ****     // ŌöĆŌöĆ FSR (A1 / ADC1) ŌöĆŌöĆŌöĆŌöĆŌöĆŌöĆŌöĆŌöĆŌöĆŌöĆŌöĆŌöĆŌöĆŌöĆŌöĆŌöĆŌöĆŌöĆŌöĆŌöĆŌöĆŌöĆŌöĆ
 158:src/main.cpp  ****     // Wired so unpressed reads ~max (3.3V). Press pulls ADC down. Fixed
 159:src/main.cpp  ****     // thresholds: raw Ōēż FSR_MIN ŌåÆ 0%, raw Ōēź FSR_MAX ŌåÆ 100%, linear between.
 160:src/main.cpp  ****     AdcChannelConfig fsr_cfg;
 685              		.loc 6 160 5 is_stmt 1 view .LVU169
 161:src/main.cpp  ****     fsr_cfg.InitSingle(seed::A1);
 686              		.loc 6 161 5 view .LVU170
 687              		.loc 6 161 23 is_stmt 0 view .LVU171
 688 0078 0323     		movs	r3, #3
 689 007a 8DF87450 		strb	r5, [sp, #116]
 690 007e 3246     		mov	r2, r6
 691 0080 8DF87530 		strb	r3, [sp, #117]
 692 0084 31A8     		add	r0, sp, #196
 693 0086 1D99     		ldr	r1, [sp, #116]
 694 0088 FFF7FEFF 		bl	_ZN5daisy16AdcChannelConfig10InitSingleE12dsy_gpio_pinNS0_15ConversionSpeedE
 695              	.LVL48:
 162:src/main.cpp  ****     hw.adc.Init(&fsr_cfg, 1);
 696              		.loc 6 162 5 is_stmt 1 view .LVU172
 697              		.loc 6 162 16 is_stmt 0 view .LVU173
 698 008c 2246     		mov	r2, r4
 699 008e 0423     		movs	r3, #4
 700 0090 31A9     		add	r1, sp, #196
 701 0092 1448     		ldr	r0, .L552+24
 702              	.LBB528:
 703              	.LBB529:
 704              	.LBB530:
 163:src/main.cpp  ****     hw.adc.Start();
 164:src/main.cpp  **** 
ARM GAS  /tmp/claude-502/ccJ8DnOJ.s 			page 25


 165:src/main.cpp  ****     constexpr uint16_t FSR_MIN       = 8000;
 166:src/main.cpp  ****     constexpr float    FSR_DEADZONE  = 0.10f;  // top 10% of travel = full volume (no change)
 167:src/main.cpp  ****     uint16_t           fsr_max       = 55000;
 168:src/main.cpp  ****     // Volume stays 100% until pressure passes the deadzone (raw drops below
 169:src/main.cpp  ****     // fsr_dead), then ramps linearly to 0% at FSR_MIN.
 170:src/main.cpp  ****     uint16_t           fsr_dead       = (uint16_t)(fsr_max - FSR_DEADZONE * (fsr_max - FSR_MIN));
 171:src/main.cpp  ****     float              fsr_active_inv = 1.0f / (float)(fsr_dead - FSR_MIN);
 172:src/main.cpp  **** 
 173:src/main.cpp  ****     auto commit_fsr_avg = [&](uint32_t acc, int n) {
 174:src/main.cpp  ****         if(n == 0) return;
 175:src/main.cpp  ****         uint16_t avg = (uint16_t)(acc / n);
 176:src/main.cpp  ****         // Sanity floor ŌĆö without enough headroom over FSR_MIN the volume curve
 177:src/main.cpp  ****         // becomes hyper-sensitive to noise.
 178:src/main.cpp  ****         if(avg < FSR_MIN + 500) avg = FSR_MIN + 500;
 179:src/main.cpp  ****         fsr_max        = avg;
 180:src/main.cpp  ****         fsr_dead       = (uint16_t)(fsr_max - FSR_DEADZONE * (fsr_max - FSR_MIN));
 181:src/main.cpp  ****         fsr_active_inv = 1.0f / (float)(fsr_dead - FSR_MIN);
 182:src/main.cpp  ****     };
 183:src/main.cpp  **** 
 184:src/main.cpp  ****     // Startup calibration: 2 s silent FSR average ŌåÆ fsr_max.
 185:src/main.cpp  ****     auto calibrate_fsr_silent = [&]() {
 186:src/main.cpp  ****         uint32_t start = System::GetNow();
 187:src/main.cpp  ****         uint32_t acc = 0; int n = 0;
 705              		.loc 6 187 18 view .LVU174
 706 0094 2C46     		mov	r4, r5
 707              	.LBE530:
 708              	.LBE529:
 709              	.LBE528:
 162:src/main.cpp  ****     hw.adc.Init(&fsr_cfg, 1);
 710              		.loc 6 162 16 view .LVU175
 711 0096 FFF7FEFF 		bl	_ZN5daisy9AdcHandle4InitEPNS_16AdcChannelConfigEjNS0_12OverSamplingE
 712              	.LVL49:
 163:src/main.cpp  ****     hw.adc.Start();
 713              		.loc 6 163 5 is_stmt 1 view .LVU176
 163:src/main.cpp  ****     hw.adc.Start();
 714              		.loc 6 163 17 is_stmt 0 view .LVU177
 715 009a 1248     		ldr	r0, .L552+24
 716 009c FFF7FEFF 		bl	_ZN5daisy9AdcHandle5StartEv
 717              	.LVL50:
 165:src/main.cpp  ****     constexpr float    FSR_DEADZONE  = 0.10f;  // top 10% of travel = full volume (no change)
 718              		.loc 6 165 5 is_stmt 1 view .LVU178
 166:src/main.cpp  ****     uint16_t           fsr_max       = 55000;
 719              		.loc 6 166 5 view .LVU179
 167:src/main.cpp  ****     // Volume stays 100% until pressure passes the deadzone (raw drops below
 720              		.loc 6 167 5 view .LVU180
 167:src/main.cpp  ****     // Volume stays 100% until pressure passes the deadzone (raw drops below
 721              		.loc 6 167 24 is_stmt 0 view .LVU181
 722 00a0 4DF2D863 		movw	r3, #55000
 723 00a4 ADF87830 		strh	r3, [sp, #120]	@ movhi
 170:src/main.cpp  ****     float              fsr_active_inv = 1.0f / (float)(fsr_dead - FSR_MIN);
 724              		.loc 6 170 5 is_stmt 1 view .LVU182
 170:src/main.cpp  ****     float              fsr_active_inv = 1.0f / (float)(fsr_dead - FSR_MIN);
 725              		.loc 6 170 24 is_stmt 0 view .LVU183
 726 00a8 4CF27C43 		movw	r3, #50300
 727 00ac ADF87A30 		strh	r3, [sp, #122]	@ movhi
 171:src/main.cpp  **** 
 728              		.loc 6 171 5 is_stmt 1 view .LVU184
ARM GAS  /tmp/claude-502/ccJ8DnOJ.s 			page 26


 182:src/main.cpp  **** 
 729              		.loc 6 182 5 is_stmt 0 view .LVU185
 730 00b0 1EAB     		add	r3, sp, #120
 731 00b2 2293     		str	r3, [sp, #136]
 732 00b4 0DF17A03 		add	r3, sp, #122
 733 00b8 2393     		str	r3, [sp, #140]
 734 00ba 1FAB     		add	r3, sp, #124
 735 00bc 2493     		str	r3, [sp, #144]
 171:src/main.cpp  **** 
 736              		.loc 6 171 24 view .LVU186
 737 00be 0A4B     		ldr	r3, .L552+28
 738 00c0 1F93     		str	r3, [sp, #124]	@ float
 173:src/main.cpp  ****         if(n == 0) return;
 739              		.loc 6 173 5 is_stmt 1 view .LVU187
 185:src/main.cpp  ****         uint32_t start = System::GetNow();
 740              		.loc 6 185 5 view .LVU188
 188:src/main.cpp  ****         while(System::GetNow() - start < 2000) {
 189:src/main.cpp  ****             acc += hw.adc.Get(0);
 190:src/main.cpp  ****             n++;
 191:src/main.cpp  ****             System::Delay(10);
 192:src/main.cpp  ****         }
 193:src/main.cpp  ****         commit_fsr_avg(acc, n);
 194:src/main.cpp  ****     };
 195:src/main.cpp  **** 
 196:src/main.cpp  ****     // Idle behaviour: sweep a virtual position 0ŌåÆ1000ŌåÆ0 through the same
 197:src/main.cpp  ****     // LED-tent math as the pitch mapping (LED2=pos 0, LED1=middle, LED3=pos 1),
 198:src/main.cpp  ****     // recalibrate fsr_max during the first 2 s, then keep sweeping until any
 199:src/main.cpp  ****     // electrode crosses TOUCH_THRESHOLD.
 200:src/main.cpp  ****     auto idle_chase_and_calibrate = [&]() {
 741              		.loc 6 200 5 view .LVU189
 742              	.LVL51:
 201:src/main.cpp  ****         uint32_t start = System::GetNow();
 202:src/main.cpp  ****         uint32_t acc = 0; int n = 0;
 203:src/main.cpp  ****         bool     calibrated = false;
 204:src/main.cpp  ****         constexpr uint32_t SWEEP_PERIOD_MS = 12000;  // one 0ŌåÆ1ŌåÆ0 cycle
 205:src/main.cpp  ****         constexpr float    TAU             = 6.2831853f;
 206:src/main.cpp  ****         uint16_t scan[N_CH];
 207:src/main.cpp  **** 
 208:src/main.cpp  ****         while(true) {
 209:src/main.cpp  ****             // Stay responsive to a host tuner while idling: this loop would
 210:src/main.cpp  ****             // otherwise spin until a glass touch / FSR press, leaving serial
 211:src/main.cpp  ****             // commands (dump/select/save) unparsed in the RX ring. Poll them
 212:src/main.cpp  ****             // here, and leave the chase the instant tune mode is entered.
 213:src/main.cpp  ****             serial_tune_poll();
 214:src/main.cpp  ****             if(g_live_tune) break;
 215:src/main.cpp  **** 
 216:src/main.cpp  ****             uint32_t elapsed = System::GetNow() - start;
 217:src/main.cpp  **** 
 218:src/main.cpp  ****             // Sinusoidal position 0ŌåÆ1ŌåÆ0 over SWEEP_PERIOD_MS ŌĆö eases at the
 219:src/main.cpp  ****             // endpoints so the reversal is gentle instead of a triangle kink.
 220:src/main.cpp  ****             float phase = (float)(elapsed % SWEEP_PERIOD_MS) / (float)SWEEP_PERIOD_MS;
 221:src/main.cpp  ****             float p01   = 0.5f * (1.0f - cosf(phase * TAU));
 222:src/main.cpp  **** 
 223:src/main.cpp  ****             // Same tent + gamma-0.25 math as the pitch LED mapping.
 224:src/main.cpp  ****             float l1_raw = 1.0f - 2.0f * p01;                 if(l1_raw < 0) l1_raw = 0;
 225:src/main.cpp  ****             float l3_raw = 2.0f * p01 - 1.0f;                 if(l3_raw < 0) l3_raw = 0;
 226:src/main.cpp  ****             float l2_raw = 1.0f - 2.0f * fabsf(p01 - 0.5f);   if(l2_raw < 0) l2_raw = 0;
ARM GAS  /tmp/claude-502/ccJ8DnOJ.s 			page 27


 227:src/main.cpp  ****             float led1   = sqrtf(sqrtf(l2_raw));              // middle (DAC1)
 228:src/main.cpp  ****             float led2   = sqrtf(sqrtf(l1_raw));              // pos 0  (DAC2)
 229:src/main.cpp  ****             float led3   = sqrtf(sqrtf(l3_raw)) * LED3_INTENSITY; // pos 1 (PWM A0)
 230:src/main.cpp  ****             hw.dac.WriteValue(DacHandle::Channel::ONE, (uint16_t)(led1 * LED1_MAX));
 231:src/main.cpp  ****             hw.dac.WriteValue(DacHandle::Channel::TWO, (uint16_t)(led2 * LED2_MAX));
 232:src/main.cpp  ****             g_led3_duty = led3;
 233:src/main.cpp  **** 
 234:src/main.cpp  ****             // FSR: drive calibration, and also break out if it's pressed to the
 235:src/main.cpp  ****             // floor ŌĆö so the voice-select gesture (hold FSR) works straight from
 236:src/main.cpp  ****             // idle, without having to touch the glass first to exit the chase.
 237:src/main.cpp  ****             uint16_t fsr_now = hw.adc.Get(0);
 238:src/main.cpp  ****             if(fsr_now <= FSR_MIN) break;
 239:src/main.cpp  ****             if(!calibrated) {
 240:src/main.cpp  ****                 acc += fsr_now;
 241:src/main.cpp  ****                 n++;
 242:src/main.cpp  ****                 if(elapsed >= 2000) {
 243:src/main.cpp  ****                     commit_fsr_avg(acc, n);
 244:src/main.cpp  ****                     calibrated = true;
 245:src/main.cpp  ****                 }
 246:src/main.cpp  ****             }
 247:src/main.cpp  **** 
 248:src/main.cpp  ****             // Exit on any touch.
 249:src/main.cpp  ****             read_electrodes(scan);
 250:src/main.cpp  ****             int32_t max_d = 0;
 251:src/main.cpp  ****             for(int i = 0; i < N_CH; i++) {
 252:src/main.cpp  ****                 int32_t d = (int32_t)baseline[i] - (int32_t)scan[i];
 253:src/main.cpp  ****                 if(d > max_d) max_d = d;
 254:src/main.cpp  ****             }
 255:src/main.cpp  ****             if(max_d >= TOUCH_THRESHOLD) break;
 256:src/main.cpp  **** 
 257:src/main.cpp  ****             System::Delay(10);
 258:src/main.cpp  ****         }
 259:src/main.cpp  **** 
 260:src/main.cpp  ****         // Clean handoff back to the main loop's LED writer.
 261:src/main.cpp  ****         hw.dac.WriteValue(DacHandle::Channel::ONE, 0);
 262:src/main.cpp  ****         hw.dac.WriteValue(DacHandle::Channel::TWO, 0);
 263:src/main.cpp  ****         g_led3_duty = 0.0f;
 264:src/main.cpp  ****     };
 265:src/main.cpp  **** 
 266:src/main.cpp  ****     calibrate_fsr_silent();
 743              		.loc 6 266 5 view .LVU190
 744              	.LBB539:
 745              	.LBI528:
 185:src/main.cpp  ****         uint32_t start = System::GetNow();
 746              		.loc 6 185 33 view .LVU191
 747              	.LBB538:
 748              	.LBB537:
 186:src/main.cpp  ****         uint32_t acc = 0; int n = 0;
 749              		.loc 6 186 9 view .LVU192
 186:src/main.cpp  ****         uint32_t acc = 0; int n = 0;
 750              		.loc 6 186 40 is_stmt 0 view .LVU193
 751 00c2 FFF7FEFF 		bl	_ZN5daisy6System6GetNowEv
 752              	.LVL52:
 753 00c6 0646     		mov	r6, r0
 754              	.LVL53:
 187:src/main.cpp  ****         while(System::GetNow() - start < 2000) {
 755              		.loc 6 187 9 is_stmt 1 view .LVU194
ARM GAS  /tmp/claude-502/ccJ8DnOJ.s 			page 28


 187:src/main.cpp  ****         while(System::GetNow() - start < 2000) {
 756              		.loc 6 187 27 view .LVU195
 187:src/main.cpp  ****         while(System::GetNow() - start < 2000) {
 757              		.loc 6 187 27 is_stmt 0 view .LVU196
 758 00c8 18E0     		b	.L48
 759              	.L553:
 760 00ca 00BF     		.align	2
 761              	.L552:
 762 00cc 00ED00E0 		.word	-536810240
 763 00d0 00000000 		.word	g_pfnVectors
 764 00d4 00000000 		.word	.LANCHOR0
 765 00d8 20000000 		.word	.LANCHOR0+32
 766 00dc 00000000 		.word	.LANCHOR1
 767 00e0 00000000 		.word	.LANCHOR2
 768 00e4 18000000 		.word	.LANCHOR0+24
 769 00e8 EF4FC637 		.word	935743471
 770              	.LVL54:
 771              	.L510:
 189:src/main.cpp  ****             n++;
 772              		.loc 6 189 30 view .LVU197
 773 00ec FFF7FEFF 		bl	_ZNK5daisy9AdcHandle3GetEh
 774              	.LVL55:
 775 00f0 0346     		mov	r3, r0
 191:src/main.cpp  ****         }
 776              		.loc 6 191 26 view .LVU198
 777 00f2 0A20     		movs	r0, #10
 190:src/main.cpp  ****             System::Delay(10);
 778              		.loc 6 190 14 view .LVU199
 779 00f4 0135     		adds	r5, r5, #1
 780              	.LVL56:
 189:src/main.cpp  ****             n++;
 781              		.loc 6 189 17 view .LVU200
 782 00f6 1C44     		add	r4, r4, r3
 783              	.LVL57:
 190:src/main.cpp  ****             System::Delay(10);
 784              		.loc 6 190 13 is_stmt 1 view .LVU201
 191:src/main.cpp  ****         }
 785              		.loc 6 191 13 view .LVU202
 191:src/main.cpp  ****         }
 786              		.loc 6 191 26 is_stmt 0 view .LVU203
 787 00f8 FFF7FEFF 		bl	_ZN5daisy6System5DelayEm
 788              	.LVL58:
 789              	.L48:
 188:src/main.cpp  ****             acc += hw.adc.Get(0);
 790              		.loc 6 188 9 is_stmt 1 view .LVU204
 188:src/main.cpp  ****             acc += hw.adc.Get(0);
 791              		.loc 6 188 40 view .LVU205
 188:src/main.cpp  ****             acc += hw.adc.Get(0);
 792              		.loc 6 188 29 is_stmt 0 view .LVU206
 793 00fc FFF7FEFF 		bl	_ZN5daisy6System6GetNowEv
 794              	.LVL59:
 189:src/main.cpp  ****             n++;
 795              		.loc 6 189 13 is_stmt 1 view .LVU207
 188:src/main.cpp  ****             acc += hw.adc.Get(0);
 796              		.loc 6 188 29 is_stmt 0 view .LVU208
 797 0100 0346     		mov	r3, r0
 189:src/main.cpp  ****             n++;
ARM GAS  /tmp/claude-502/ccJ8DnOJ.s 			page 29


 798              		.loc 6 189 30 view .LVU209
 799 0102 0021     		movs	r1, #0
 800 0104 A048     		ldr	r0, .L554
 188:src/main.cpp  ****             acc += hw.adc.Get(0);
 801              		.loc 6 188 32 view .LVU210
 802 0106 9B1B     		subs	r3, r3, r6
 188:src/main.cpp  ****             acc += hw.adc.Get(0);
 803              		.loc 6 188 40 view .LVU211
 804 0108 B3F5FA6F 		cmp	r3, #2000
 805 010c EED3     		bcc	.L510
 193:src/main.cpp  ****     };
 806              		.loc 6 193 9 is_stmt 1 view .LVU212
 807              	.LVL60:
 808              	.LBB531:
 809              	.LBI531:
 173:src/main.cpp  ****         if(n == 0) return;
 810              		.loc 6 173 27 view .LVU213
 811              	.LBB532:
 812              	.LBB533:
 174:src/main.cpp  ****         uint16_t avg = (uint16_t)(acc / n);
 813              		.loc 6 174 9 view .LVU214
 814 010e 55B3     		cbz	r5, .L49
 815              	.LVL61:
 174:src/main.cpp  ****         uint16_t avg = (uint16_t)(acc / n);
 816              		.loc 6 174 9 is_stmt 0 view .LVU215
 817              	.LBE533:
 818              	.LBB534:
 819              	.LBI534:
 173:src/main.cpp  ****         if(n == 0) return;
 820              		.loc 6 173 27 is_stmt 1 view .LVU216
 821              	.LBB535:
 822              	.LBB536:
 175:src/main.cpp  ****         // Sanity floor ŌĆö without enough headroom over FSR_MIN the volume curve
 823              		.loc 6 175 9 view .LVU217
 824 0110 42F23412 		movw	r2, #8500
 180:src/main.cpp  ****         fsr_active_inv = 1.0f / (float)(fsr_dead - FSR_MIN);
 825              		.loc 6 180 45 is_stmt 0 view .LVU218
 826 0114 9FED9D6A 		vldr.32	s12, .L554+4
 181:src/main.cpp  ****     };
 827              		.loc 6 181 31 view .LVU219
 828 0118 F7EE006A 		vmov.f32	s13, #1.0e+0
 175:src/main.cpp  ****         // Sanity floor ŌĆö without enough headroom over FSR_MIN the volume curve
 829              		.loc 6 175 39 view .LVU220
 830 011c B4FBF5F3 		udiv	r3, r4, r5
 175:src/main.cpp  ****         // Sanity floor ŌĆö without enough headroom over FSR_MIN the volume curve
 831              		.loc 6 175 18 view .LVU221
 832 0120 9BB2     		uxth	r3, r3
 833              	.LVL62:
 178:src/main.cpp  ****         fsr_max        = avg;
 834              		.loc 6 178 9 is_stmt 1 view .LVU222
 835 0122 9342     		cmp	r3, r2
 836 0124 38BF     		it	cc
 837 0126 1346     		movcc	r3, r2
 838              	.LVL63:
 179:src/main.cpp  ****         fsr_dead       = (uint16_t)(fsr_max - FSR_DEADZONE * (fsr_max - FSR_MIN));
 839              		.loc 6 179 9 view .LVU223
 180:src/main.cpp  ****         fsr_active_inv = 1.0f / (float)(fsr_dead - FSR_MIN);
ARM GAS  /tmp/claude-502/ccJ8DnOJ.s 			page 30


 840              		.loc 6 180 45 is_stmt 0 view .LVU224
 841 0128 07EE903A 		vmov	s15, r3	@ int
 179:src/main.cpp  ****         fsr_dead       = (uint16_t)(fsr_max - FSR_DEADZONE * (fsr_max - FSR_MIN));
 842              		.loc 6 179 24 view .LVU225
 843 012c ADF87830 		strh	r3, [sp, #120]	@ movhi
 180:src/main.cpp  ****         fsr_active_inv = 1.0f / (float)(fsr_dead - FSR_MIN);
 844              		.loc 6 180 9 is_stmt 1 view .LVU226
 180:src/main.cpp  ****         fsr_active_inv = 1.0f / (float)(fsr_dead - FSR_MIN);
 845              		.loc 6 180 71 is_stmt 0 view .LVU227
 846 0130 A3F5FA53 		sub	r3, r3, #8000
 847              	.LVL64:
 180:src/main.cpp  ****         fsr_active_inv = 1.0f / (float)(fsr_dead - FSR_MIN);
 848              		.loc 6 180 45 view .LVU228
 849 0134 B8EEE77A 		vcvt.f32.s32	s14, s15
 180:src/main.cpp  ****         fsr_active_inv = 1.0f / (float)(fsr_dead - FSR_MIN);
 850              		.loc 6 180 60 view .LVU229
 851 0138 07EE903A 		vmov	s15, r3	@ int
 852 013c F8EEE77A 		vcvt.f32.s32	s15, s15
 180:src/main.cpp  ****         fsr_active_inv = 1.0f / (float)(fsr_dead - FSR_MIN);
 853              		.loc 6 180 45 view .LVU230
 854 0140 A7EEC67A 		vfms.f32	s14, s15, s12
 180:src/main.cpp  ****         fsr_active_inv = 1.0f / (float)(fsr_dead - FSR_MIN);
 855              		.loc 6 180 26 view .LVU231
 856 0144 FCEEC77A 		vcvt.u32.f32	s15, s14
 857 0148 17EE903A 		vmov	r3, s15	@ int
 858 014c 9BB2     		uxth	r3, r3
 180:src/main.cpp  ****         fsr_active_inv = 1.0f / (float)(fsr_dead - FSR_MIN);
 859              		.loc 6 180 24 view .LVU232
 860 014e ADF87A30 		strh	r3, [sp, #122]	@ movhi
 181:src/main.cpp  ****     };
 861              		.loc 6 181 9 is_stmt 1 view .LVU233
 181:src/main.cpp  ****     };
 862              		.loc 6 181 50 is_stmt 0 view .LVU234
 863 0152 A3F5FA53 		sub	r3, r3, #8000
 181:src/main.cpp  ****     };
 864              		.loc 6 181 33 view .LVU235
 865 0156 07EE903A 		vmov	s15, r3	@ int
 866 015a F8EEE77A 		vcvt.f32.s32	s15, s15
 181:src/main.cpp  ****     };
 867              		.loc 6 181 31 view .LVU236
 868 015e 86EEA77A 		vdiv.f32	s14, s13, s15
 181:src/main.cpp  ****     };
 869              		.loc 6 181 24 view .LVU237
 870 0162 8DED1F7A 		vstr.32	s14, [sp, #124]
 871              	.LVL65:
 872              	.L49:
 181:src/main.cpp  ****     };
 873              		.loc 6 181 24 view .LVU238
 874              	.LBE536:
 875              	.LBE535:
 876              	.LBE534:
 877              	.LBE532:
 878              	.LBE531:
 879              	.LBE537:
 880              	.LBE538:
 881              	.LBE539:
 267:src/main.cpp  **** 
ARM GAS  /tmp/claude-502/ccJ8DnOJ.s 			page 31


 268:src/main.cpp  ****     // Boot-voice snapshot for the startup banner / initial targets. The main
 269:src/main.cpp  ****     // loop rebinds its own `VOICE` each frame so it always reflects the current
 270:src/main.cpp  ****     // voice index (which the FSR gesture can change live).
 271:src/main.cpp  ****     const Voice& VOICE = g_bank[g_voice_idx];
 882              		.loc 6 271 5 is_stmt 1 view .LVU239
 883              		.loc 6 271 33 is_stmt 0 view .LVU240
 884 0166 8A4F     		ldr	r7, .L554+8
 272:src/main.cpp  **** 
 273:src/main.cpp  ****     // ŌöĆŌöĆ Start audio ŌöĆŌöĆŌöĆŌöĆŌöĆŌöĆŌöĆŌöĆŌöĆŌöĆŌöĆŌöĆŌöĆŌöĆŌöĆŌöĆŌöĆŌöĆŌöĆŌöĆŌöĆŌöĆŌöĆŌöĆŌ
 274:src/main.cpp  ****     // Set initial targets before callback fires (voice-relative starting pitch)
 275:src/main.cpp  ****     g_target_freq   = VOICE.freq_low * 2.0f;
 276:src/main.cpp  ****     g_target_cutoff = 100.0f;
 277:src/main.cpp  ****     g_amp_target    = 0.0f;
 885              		.loc 6 277 21 view .LVU241
 886 0168 0025     		movs	r5, #0
 275:src/main.cpp  ****     g_target_cutoff = 100.0f;
 887              		.loc 6 275 29 view .LVU242
 888 016a 8A49     		ldr	r1, .L554+12
 271:src/main.cpp  **** 
 889              		.loc 6 271 33 view .LVU243
 890 016c 3C68     		ldr	r4, [r7]
 891              	.LVL66:
 275:src/main.cpp  ****     g_target_cutoff = 100.0f;
 892              		.loc 6 275 5 is_stmt 1 view .LVU244
 276:src/main.cpp  ****     g_amp_target    = 0.0f;
 893              		.loc 6 276 21 is_stmt 0 view .LVU245
 894 016e 8A4A     		ldr	r2, .L554+16
 275:src/main.cpp  ****     g_target_cutoff = 100.0f;
 895              		.loc 6 275 29 view .LVU246
 896 0170 04EB4403 		add	r3, r4, r4, lsl #1
 897              		.loc 6 277 21 view .LVU247
 898 0174 894E     		ldr	r6, .L554+20
 275:src/main.cpp  ****     g_target_cutoff = 100.0f;
 899              		.loc 6 275 29 view .LVU248
 900 0176 01EB8313 		add	r3, r1, r3, lsl #6
 275:src/main.cpp  ****     g_target_cutoff = 100.0f;
 901              		.loc 6 275 38 view .LVU249
 902 017a D3ED017A 		vldr.32	s15, [r3, #4]
 275:src/main.cpp  ****     g_target_cutoff = 100.0f;
 903              		.loc 6 275 21 view .LVU250
 904 017e 884B     		ldr	r3, .L554+24
 275:src/main.cpp  ****     g_target_cutoff = 100.0f;
 905              		.loc 6 275 38 view .LVU251
 906 0180 77EEA77A 		vadd.f32	s15, s15, s15
 275:src/main.cpp  ****     g_target_cutoff = 100.0f;
 907              		.loc 6 275 21 view .LVU252
 908 0184 C3ED007A 		vstr.32	s15, [r3]
 276:src/main.cpp  ****     g_amp_target    = 0.0f;
 909              		.loc 6 276 5 is_stmt 1 view .LVU253
 276:src/main.cpp  ****     g_amp_target    = 0.0f;
 910              		.loc 6 276 21 is_stmt 0 view .LVU254
 911 0188 864B     		ldr	r3, .L554+28
 912 018a 1A60     		str	r2, [r3]	@ float
 913              		.loc 6 277 5 is_stmt 1 view .LVU255
 914              		.loc 6 277 21 is_stmt 0 view .LVU256
 915 018c 3560     		str	r5, [r6]	@ float
 278:src/main.cpp  ****     engine_init();   // zero the SDRAM-resident reverb/delay buffers before audio
ARM GAS  /tmp/claude-502/ccJ8DnOJ.s 			page 32


 916              		.loc 6 278 5 is_stmt 1 view .LVU257
 917              		.loc 6 278 16 is_stmt 0 view .LVU258
 918 018e FFF7FEFF 		bl	_Z11engine_initv
 919              	.LVL67:
 279:src/main.cpp  ****     hw.StartAudio(AudioCallback);
 920              		.loc 6 279 5 is_stmt 1 view .LVU259
 921              		.loc 6 279 18 is_stmt 0 view .LVU260
 922 0192 8549     		ldr	r1, .L554+32
 923 0194 8548     		ldr	r0, .L554+36
 924 0196 FFF7FEFF 		bl	_ZN5daisy9DaisySeed10StartAudioEPFvPKPKfPPfjE
 925              	.LVL68:
 280:src/main.cpp  **** 
 281:src/main.cpp  ****     // Boot beep ŌĆö 200ms tone so you can confirm headphone audio is working
 282:src/main.cpp  ****     g_amp_target = 0.4f;
 926              		.loc 6 282 5 is_stmt 1 view .LVU261
 927              		.loc 6 282 18 is_stmt 0 view .LVU262
 928 019a 854B     		ldr	r3, .L554+40
 283:src/main.cpp  ****     System::Delay(200);
 929              		.loc 6 283 18 view .LVU263
 930 019c C820     		movs	r0, #200
 282:src/main.cpp  ****     System::Delay(200);
 931              		.loc 6 282 18 view .LVU264
 932 019e 3360     		str	r3, [r6]	@ float
 933              		.loc 6 283 5 is_stmt 1 view .LVU265
 934              		.loc 6 283 18 is_stmt 0 view .LVU266
 935 01a0 FFF7FEFF 		bl	_ZN5daisy6System5DelayEm
 936              	.LVL69:
 284:src/main.cpp  ****     g_amp_target = 0.0f;
 937              		.loc 6 284 5 is_stmt 1 view .LVU267
 285:src/main.cpp  ****     System::Delay(50);
 938              		.loc 6 285 18 is_stmt 0 view .LVU268
 939 01a4 3220     		movs	r0, #50
 284:src/main.cpp  ****     g_amp_target = 0.0f;
 940              		.loc 6 284 18 view .LVU269
 941 01a6 3560     		str	r5, [r6]	@ float
 942              		.loc 6 285 5 is_stmt 1 view .LVU270
 943              		.loc 6 285 18 is_stmt 0 view .LVU271
 944 01a8 FFF7FEFF 		bl	_ZN5daisy6System5DelayEm
 945              	.LVL70:
 286:src/main.cpp  **** 
 287:src/main.cpp  ****     // ŌöĆŌöĆ USB serial (blocks until host connects) ŌöĆŌöĆŌöĆŌöĆŌöĆŌöĆŌöĆŌöĆŌöĆŌöĆŌöĆŌöĆŌöĆŌöĆŌöĆ
 288:src/main.cpp  ****     usb_fs_init();      // bring up the TinyUSB CDC device (replaces hw.StartLog)
 946              		.loc 6 288 5 is_stmt 1 view .LVU272
 947              		.loc 6 288 16 is_stmt 0 view .LVU273
 948 01ac FFF7FEFF 		bl	usb_fs_init
 949              	.LVL71:
 289:src/main.cpp  ****     serial_tune_init(); // (no-op now ŌĆö TinyUSB owns the USB port)
 950              		.loc 6 289 5 is_stmt 1 view .LVU274
 951              		.loc 6 289 21 is_stmt 0 view .LVU275
 952 01b0 FFF7FEFF 		bl	_Z16serial_tune_initv
 953              	.LVL72:
 290:src/main.cpp  **** 
 291:src/main.cpp  ****     usb_log("Glass Moog Synth");
 954              		.loc 6 291 5 is_stmt 1 view .LVU276
 955              		.loc 6 291 12 is_stmt 0 view .LVU277
 956 01b4 7F48     		ldr	r0, .L554+44
 957 01b6 FFF7FEFF 		bl	usb_log
ARM GAS  /tmp/claude-502/ccJ8DnOJ.s 			page 33


 958              	.LVL73:
 292:src/main.cpp  ****     usb_log("================");
 959              		.loc 6 292 5 is_stmt 1 view .LVU278
 960              		.loc 6 292 12 is_stmt 0 view .LVU279
 961 01ba 7F48     		ldr	r0, .L554+48
 962 01bc FFF7FEFF 		bl	usb_log
 963              	.LVL74:
 293:src/main.cpp  ****     usb_log("Voice %d/%d: %s  (%d-%dHz)",
 964              		.loc 6 293 5 is_stmt 1 view .LVU280
 965              		.loc 6 293 12 is_stmt 0 view .LVU281
 966 01c0 3B68     		ldr	r3, [r7]
 967              	.LVL75:
 968              	.LBB540:
 969              	.LBI540:
 970              		.file 7 "src/voice.h"
   1:src/voice.h   **** #pragma once
   2:src/voice.h   **** // The voice model: the Voice struct, all presets, the VOICES[] bank, the
   3:src/voice.h   **** // Drums MultiVoice config, and the FSR-cycle helpers.
   4:src/voice.h   **** #include "dsp.h" // Waveform
   5:src/voice.h   **** #include <cstdint>
   6:src/voice.h   **** 
   7:src/voice.h   **** struct Voice {
   8:src/voice.h   ****   const char *name;
   9:src/voice.h   **** 
  10:src/voice.h   ****   // Pitch range. Finger-1 position 0ŌĆō1000 maps exponentially across this.
  11:src/voice.h   ****   float freq_low;
  12:src/voice.h   ****   float freq_high;
  13:src/voice.h   ****   float log_freq_ratio; // = ln(freq_high / freq_low), precomputed (logf isn't
  14:src/voice.h   ****                         // constexpr)
  15:src/voice.h   **** 
  16:src/voice.h   ****   // Oscillator stack. Each oscillator's pitch = fundamental * ratio, and each
  17:src/voice.h   ****   // has its own waveform. Set a level to 0 to silence an oscillator.
  18:src/voice.h   ****   float osc1_ratio, osc1_level;
  19:src/voice.h   ****   Waveform osc1_wave; // primary
  20:src/voice.h   ****   float osc2_ratio, osc2_level;
  21:src/voice.h   ****   Waveform osc2_wave; // second osc (see osc2_detune)
  22:src/voice.h   ****   float sub_ratio, sub_level;
  23:src/voice.h   ****   Waveform sub_wave; // weight below
  24:src/voice.h   ****   float oct_ratio, oct_level;
  25:src/voice.h   ****   Waveform oct_wave; // shimmer / chord top
  26:src/voice.h   ****   bool osc2_detune;  // true  ŌåÆ finger-2 detune controls osc2 pitch (lead)
  27:src/voice.h   ****                      // false ŌåÆ osc2 stays at osc2_ratio (e.g. a fixed 5th)
  28:src/voice.h   **** 
  29:src/voice.h   ****   // Filter character. Base cutoff = freq * cutoff_mult; pressure opens it
  30:src/voice.h   ****   // by up to cutoff_oct_max octaves on top.
  31:src/voice.h   ****   float cutoff_mult;
  32:src/voice.h   ****   float cutoff_oct_max;
  33:src/voice.h   ****   float resonance;
  34:src/voice.h   **** 
  35:src/voice.h   ****   // Drive ŌĆö pressure-controlled waveshaper gain added on top of 1.0.
  36:src/voice.h   ****   float drive_max;
  37:src/voice.h   **** 
  38:src/voice.h   ****   // ŌöĆŌöĆ Extras (appended so existing field order stays stable) ŌöĆŌöĆŌöĆŌöĆŌöĆŌöĆŌöĆŌöĆŌöĆŌöĆŌö
  39:src/voice.h   ****   float noise_level;   // white noise mixed into the oscillator stack (0 = none)
  40:src/voice.h   ****   float keytrack;      // 0..1 ŌĆö how much the cutoff follows pitch (1 = full)
  41:src/voice.h   ****   float ringmod_ratio; // ring-mod carrier pitch ratio (1.0 = unison; non-int =
  42:src/voice.h   ****                        // bell/metallic)
ARM GAS  /tmp/claude-502/ccJ8DnOJ.s 			page 34


  43:src/voice.h   ****   float ringmod_max;   // max ring-mod wet from finger-2 pressure
  44:src/voice.h   ****   float fold_max;      // max wavefold amount from finger-2 pressure
  45:src/voice.h   ****   float attack_ms;     // amp envelope attack time
  46:src/voice.h   ****   float release_ms;    // amp envelope + filter-close release time
  47:src/voice.h   ****   float glide_ms;      // portamento (pitch glide) time
  48:src/voice.h   **** 
  49:src/voice.h   ****   // Pitch envelope ŌĆö a fast downward pitch sweep at note onset (kick "boom",
  50:src/voice.h   ****   // zap, tom thump). Left at 0 (the default for voices that omit them) = off.
  51:src/voice.h   ****   float pitch_env_oct; // octaves the pitch starts ABOVE the note at onset (0 =
  52:src/voice.h   ****                        // none)
  53:src/voice.h   ****   float pitch_env_ms;  // time the pitch sweep takes to settle to the note
  54:src/voice.h   **** 
  55:src/voice.h   ****   // Noise tone: 0 = full white noise ("shhh"), 1 = high-passed/bright ("tsss",
  56:src/voice.h   ****   // for hi-hats/cymbals). Default 0 leaves the noise white. See NOISE_HP_COEF.
  57:src/voice.h   ****   float noise_hp;
  58:src/voice.h   **** 
  59:src/voice.h   ****   // FSR-gesture cycling: true = skip this voice in the cycle (still reachable
  60:src/voice.h   ****   // as the boot voice or via the Drums MultiVoice). Default false = in cycle.
  61:src/voice.h   ****   // The raw drums set this so the gesture cycles instruments + Drums only.
  62:src/voice.h   ****   bool no_cycle;
  63:src/voice.h   **** 
  64:src/voice.h   ****   // Velocity sensitivity 0..1: how much the onset hit strength (peak pressure
  65:src/voice.h   ****   // in the first few ms) scales loudness. 0 = fixed loudness (default ŌĆö the
  66:src/voice.h   ****   // sustained instruments); ~0.85 on drums for accents/ghost notes. Loudness
  67:src/voice.h   ****   // floor = (1 - vel_sens), so soft taps stay audible.
  68:src/voice.h   ****   float vel_sens;
  69:src/voice.h   **** 
  70:src/voice.h   ****   // Re-attack speed on hold: minimum ms between bounce-retriggers (the cap on
  71:src/voice.h   ****   // how fast a held finger can repeat by pulsing pressure). SMALLER = faster
  72:src/voice.h   ****   // repeats allowed; LARGER = slower. 0 = off (only a full lift + re-tap
  73:src/voice.h   ****   // retriggers). A full lift always retriggers regardless. Default 0 keeps the
  74:src/voice.h   ****   // melodic voices free of accidental re-articulation; drums set a value.
  75:src/voice.h   ****   float retrig_ms;
  76:src/voice.h   **** 
  77:src/voice.h   ****   // Pitch quantize: true = snap finger-1 to the nearest note of `scale` on
  78:src/voice.h   ****   // touch-down, then bend freely while sliding (see quantize_midi in main.cpp).
  79:src/voice.h   ****   // false = fully continuous pitch. Default false; the Organ (minor) and Guitar
  80:src/voice.h   ****   // (major) enable it.
  81:src/voice.h   ****   bool quantize;
  82:src/voice.h   **** 
  83:src/voice.h   ****   // Quantize scale: the scale degrees (semitone offsets within an octave) that
  84:src/voice.h   ****   // finger-1 snaps to when quantize is true. Point at one of the SCALE_* tables
  85:src/voice.h   ****   // below (or your own). null/0 = no snap (continuous). Ignored when quantize
  86:src/voice.h   ****   // is false, so non-quantizing voices leave these at their defaults.
  87:src/voice.h   ****   const int8_t *scale;
  88:src/voice.h   ****   int scale_len;
  89:src/voice.h   **** 
  90:src/voice.h   ****   // Amp decay-to-sustain ŌĆö for plucked sounds (e.g. the guitar). decay_ms = 0
  91:src/voice.h   ****   // (default) ŌåÆ NO decay: the note holds at full while the finger is down, exactly
  92:src/voice.h   ****   // as before (every other voice). decay_ms > 0 ŌåÆ after the attack the level falls
  93:src/voice.h   ****   // to `sustain` (0..1 fraction of full; default 0 = decays to silence, a clean
  94:src/voice.h   ****   // pluck) over decay_ms. The release still applies on lift. Appended last so the
  95:src/voice.h   ****   // positional initializers of the existing presets are unchanged.
  96:src/voice.h   ****   float decay_ms;
  97:src/voice.h   ****   float sustain;
  98:src/voice.h   **** 
  99:src/voice.h   ****   // Chords: true ŌåÆ play a 3-note diatonic triad instead of a single note. The
ARM GAS  /tmp/claude-502/ccJ8DnOJ.s 			page 35


 100:src/voice.h   ****   // root is the quantized finger-1 note; the engine adds the scale's 3rd and 5th
 101:src/voice.h   ****   // above it (stacking scale-thirds ŌĆö see diatonic_triad below), so the chord
 102:src/voice.h   ****   // stays in key. Requires a musical `scale` (major/minor) ŌĆö over a chromatic
 103:src/voice.h   ****   // scale stacking thirds degenerates to a whole-tone cluster, not a triad.
 104:src/voice.h   ****   // Appended after the older fields so every non-chord preset zero-inits to false
 105:src/voice.h   ****   // (single-note, unchanged). The upper two notes use osc1+osc2 only (sub and
 106:src/voice.h   ****   // noise stay on the root) ŌĆö see engine.cpp. The two SH-101 twins set this.
 107:src/voice.h   ****   bool chords;
 108:src/voice.h   ****   // chord_level: level of the two added chord notes vs the root's osc levels.
 109:src/voice.h   ****   // <1 keeps the root dominant and leaves the drive/filter headroom; 1.0 = equal
 110:src/voice.h   ****   // weight (fatter, more saturated). Only meaningful when chords is true; a chord
 111:src/voice.h   ****   // voice must set it (>0) or the upper notes are silent.
 112:src/voice.h   ****   float chord_level;
 113:src/voice.h   ****   // chord_spread: octaves to lift the 3rd, for the voicing width. 0 = close
 114:src/voice.h   ****   // (rootŌĆō3rdŌĆō5th cluster); 1 = open (rootŌĆō5thŌĆō10th ŌĆö clearer over the sub-osc);
 115:src/voice.h   ****   // 2+ wider still. Only meaningful when chords is true.
 116:src/voice.h   ****   int chord_spread;
 117:src/voice.h   **** 
 118:src/voice.h   ****   // reverb_send: how much of this voice's signal feeds the shared reverb (0 =
 119:src/voice.h   ****   // dry, no reverb; ~0.3 a hint of space; ~0.7 a wet wash). The reverb itself
 120:src/voice.h   ****   // (tail length / damping / return level) is global ŌĆö see g_reverb_* in the
 121:src/voice.h   ****   // engine ŌĆö so this is just the per-voice aux send.
 122:src/voice.h   ****   float reverb_send;
 123:src/voice.h   ****   // delay_send: per-voice aux send into the shared echo/delay (0 = dry). The
 124:src/voice.h   ****   // delay's time / feedback / level are global (g_delay_* in the engine). Same
 125:src/voice.h   ****   // idea as reverb_send. Appended last; every voice but the Organ zero-inits to 0.
 126:src/voice.h   ****   float delay_send;
 127:src/voice.h   **** 
 128:src/voice.h   ****   // ŌöĆŌöĆ LFO (per-voice modulation) ŌöĆŌöĆŌöĆŌöĆŌöĆŌöĆŌöĆŌöĆŌöĆŌöĆŌöĆŌöĆŌöĆŌöĆŌöĆŌöĆŌöĆŌöĆŌöĆŌöĆ
 129:src/voice.h   ****   // One triangle LFO per voice, routed to any of three destinations by its own
 130:src/voice.h   ****   // depth (0 = that destination off) ŌĆö so a voice can do vibrato, auto-wah,
 131:src/voice.h   ****   // tremolo, or any combination. All default 0, and lfo_rate 0 falls back to the
 132:src/voice.h   ****   // classic 6 Hz, so existing presets are unchanged: they keep only the finger-
 133:src/voice.h   ****   // pressure vibrato on pitch. Appended last to keep positional initializers stable.
 134:src/voice.h   ****   float lfo_rate;    // LFO speed in Hz (0 ŌåÆ 6 Hz). Shared by all destinations below.
 135:src/voice.h   ****   float lfo_pitch;   // pitch-mod depth 0..1 ŌåÆ always-on VIBRATO (sums with the
 136:src/voice.h   ****                      // finger-pressure vibrato). ~0.2 = a gentle wobble.
 137:src/voice.h   ****   float lfo_filter;  // cutoff-mod depth 0..1 ŌåÆ AUTO-WAH (the Moog cutoff sweeps up
 138:src/voice.h   ****                      // to ┬▒~90% around its current value at full depth).
 139:src/voice.h   ****   float lfo_amp;     // amp-mod depth 0..1 ŌåÆ TREMOLO (1 = level dips to silence on
 140:src/voice.h   ****                      // each trough; ~0.3 = a subtle throb).
 141:src/voice.h   **** };
 142:src/voice.h   **** 
 143:src/voice.h   **** // ŌöĆŌöĆ Diatonic triad ŌöĆŌöĆŌöĆŌöĆŌöĆŌöĆŌöĆŌöĆŌöĆŌöĆŌöĆŌöĆŌöĆŌöĆŌöĆŌöĆŌöĆŌöĆŌöĆŌöĆŌöĆŌöĆŌöĆŌöĆŌö
 144:src/voice.h   **** // For a root pitch class (0ŌĆō11 semitones within an octave) that belongs to
 145:src/voice.h   **** // `scale`, return the semitone offsets of the 3rd and 5th scale-degrees above it
 146:src/voice.h   **** // (stacking thirds: degrees i, i+2, i+4). Wrapping past the top of the scale
 147:src/voice.h   **** // adds an octave. Used by chord voices (Voice::chords). With no scale it falls
 148:src/voice.h   **** // back to a fixed major triad (4, 7). Pure (no Hz, no note-number line) so it
 149:src/voice.h   **** // runs in the host tests.
 150:src/voice.h   **** static inline void diatonic_triad(int root_pc, const int8_t *scale, int n,
 151:src/voice.h   ****                                   int &semis_third, int &semis_fifth) {
 152:src/voice.h   ****   if (!scale || n <= 0) {
 153:src/voice.h   ****     semis_third = 4;
 154:src/voice.h   ****     semis_fifth = 7;
 155:src/voice.h   ****     return;
 156:src/voice.h   ****   }
ARM GAS  /tmp/claude-502/ccJ8DnOJ.s 			page 36


 157:src/voice.h   ****   int pc = ((root_pc % 12) + 12) % 12;
 158:src/voice.h   ****   // Nearest scale degree to the root pitch class.
 159:src/voice.h   ****   int idx = 0, best = 127;
 160:src/voice.h   ****   for (int i = 0; i < n; i++) {
 161:src/voice.h   ****     int d = scale[i] - pc;
 162:src/voice.h   ****     if (d < 0)
 163:src/voice.h   ****       d = -d;
 164:src/voice.h   ****     if (d < best) {
 165:src/voice.h   ****       best = d;
 166:src/voice.h   ****       idx = i;
 167:src/voice.h   ****     }
 168:src/voice.h   ****   }
 169:src/voice.h   ****   auto deg = [&](int k) { return scale[k % n] + 12 * (k / n); };
 170:src/voice.h   ****   int base = deg(idx);
 171:src/voice.h   ****   semis_third = deg(idx + 2) - base;
 172:src/voice.h   ****   semis_fifth = deg(idx + 4) - base;
 173:src/voice.h   **** }
 174:src/voice.h   **** 
 175:src/voice.h   **** // ŌöĆŌöĆ Quantize scales ŌöĆŌöĆŌöĆŌöĆŌöĆŌöĆŌöĆŌöĆŌöĆŌöĆŌöĆŌöĆŌöĆŌöĆŌöĆŌöĆŌöĆŌöĆŌöĆŌöĆŌöĆŌöĆŌöĆŌöĆŌ
 176:src/voice.h   **** // Semitone offsets within an octave. A voice with quantize = true snaps finger-1
 177:src/voice.h   **** // to the nearest degree of its `scale` (see Voice::scale / quantize_midi).
 178:src/voice.h   **** static constexpr int8_t SCALE_CHROMATIC[] = {0, 1, 2, 3, 4,  5,
 179:src/voice.h   ****                                              6, 7, 8, 9, 10, 11};
 180:src/voice.h   **** static constexpr int8_t SCALE_MAJOR[] = {0, 2, 4, 5, 7, 9, 11};
 181:src/voice.h   **** static constexpr int8_t SCALE_MINOR[] = {0, 2, 3, 5, 7, 8, 10};
 182:src/voice.h   **** 
 183:src/voice.h   **** // Perfect-fifth frequency ratio = 2^(7/12).
 184:src/voice.h   **** static constexpr float RATIO_FIFTH = 1.49831f;
 185:src/voice.h   **** 
 186:src/voice.h   **** // The presets below are hand-formatted one-field-per-line with section headers;
 187:src/voice.h   **** // clang-format is disabled across the bank so it can't collapse the layout.
 188:src/voice.h   **** // clang-format off
 189:src/voice.h   **** 
 190:src/voice.h   **** // ŌöĆŌöĆ Voice 0: the original glass-Moog lead ŌöĆŌöĆŌöĆŌöĆŌöĆŌöĆŌöĆŌöĆŌöĆŌöĆŌöĆŌöĆŌöĆŌöĆŌöĆŌöĆŌöĆ
 191:src/voice.h   **** //   F1 posŌåÆpitch, F1 prsŌåÆcutoff+vibrato; F2 posŌåÆdetune, F2 prsŌåÆwavefold+ringmod.
 192:src/voice.h   **** static constexpr Voice VOICE_LEAD = {
 193:src/voice.h   ****     "Lead",
 194:src/voice.h   ****     // FREQUENCY RANGE
 195:src/voice.h   ****     50.0f,
 196:src/voice.h   ****     300.0f,
 197:src/voice.h   ****     1.79176f,            // precomputed ln(freq_high/freq_low)
 198:src/voice.h   ****     // OSCILLATOR STACK
 199:src/voice.h   ****     1.0f,
 200:src/voice.h   ****     0.50f,
 201:src/voice.h   ****     WAVE_TRI,            // primary oscillator: root
 202:src/voice.h   ****     // SECONDARY OSCILLATOR
 203:src/voice.h   ****     1.0f,
 204:src/voice.h   ****     0.22f,
 205:src/voice.h   ****     WAVE_TRI,            // secondary oscillator: detune-controlled, ratio is just the base
 206:src/voice.h   ****     // SUB OSCILLATOR
 207:src/voice.h   ****     0.5f,
 208:src/voice.h   ****     0.18f,
 209:src/voice.h   ****     WAVE_TRI,            // sub   ŌĆö one octave below
 210:src/voice.h   ****     // OCTAVE OSCILLATOR
 211:src/voice.h   ****     2.0f,
 212:src/voice.h   ****     0.15f,
 213:src/voice.h   ****     WAVE_TRI,            // oct   ŌĆö one octave above
ARM GAS  /tmp/claude-502/ccJ8DnOJ.s 			page 37


 214:src/voice.h   ****     // FILTER
 215:src/voice.h   ****     true,                // osc2 follows finger-2 detune
 216:src/voice.h   ****     0.3f,
 217:src/voice.h   ****     12.0f,
 218:src/voice.h   ****     0.75f,
 219:src/voice.h   ****     // DRIVE
 220:src/voice.h   ****     2.5f,
 221:src/voice.h   ****     // NOISE
 222:src/voice.h   ****     0.0f,                // noise level
 223:src/voice.h   ****     1.0f,                // keytrack
 224:src/voice.h   ****     1.0f,                // ringmod ratio (1.0 = unison; non-int = bell/metallic)
 225:src/voice.h   ****     0.15f,               // ringmod max
 226:src/voice.h   ****     0.18f,               // fold max
 227:src/voice.h   ****     4.0f,                // attack
 228:src/voice.h   ****     400.0f,              // release
 229:src/voice.h   ****     40.0f                // glide
 230:src/voice.h   ****     // PITCH ENVELOPE
 231:src/voice.h   ****     // PITCH QUANTIZE
 232:src/voice.h   **** };
 233:src/voice.h   **** 
 234:src/voice.h   **** // ŌöĆŌöĆ Voice 1: round & dark power-chord bass (root + 5th + octave + sub) ŌöĆŌöĆŌöĆŌöĆŌöĆŌöĆŌöĆŌ
 235:src/voice.h   **** //   Same touch mappings, but osc2 is a fixed perfect fifth instead of a detune,
 236:src/voice.h   **** //   so every note sounds as a power chord. Lower range, gentler filter, less
 237:src/voice.h   **** //   drive ŌåÆ deep and round rather than bright and screaming.
 238:src/voice.h   **** static constexpr Voice VOICE_BASS = {
 239:src/voice.h   ****     "Bass",
 240:src/voice.h   ****     // FREQUENCY RANGE
 241:src/voice.h   ****     40.0f,
 242:src/voice.h   ****     160.0f,
 243:src/voice.h   ****     1.38629f,            // 40ŌĆō160 Hz, ln(4) ŌĆö sits under the lead
 244:src/voice.h   ****     // OSCILLATOR STACK
 245:src/voice.h   ****     1.0f,
 246:src/voice.h   ****     0.45f,
 247:src/voice.h   ****     WAVE_TRI,            // osc1  ŌĆö root
 248:src/voice.h   ****     // SECONDARY OSCILLATOR
 249:src/voice.h   ****     RATIO_FIFTH,
 250:src/voice.h   ****     0.30f,
 251:src/voice.h   ****     WAVE_TRI,            // osc2  ŌĆö fixed perfect fifth (the power chord)
 252:src/voice.h   ****     // SUB OSCILLATOR
 253:src/voice.h   ****     0.5f,
 254:src/voice.h   ****     0.34f,
 255:src/voice.h   ****     WAVE_TRI,            // sub   ŌĆö extra weight for a round bottom
 256:src/voice.h   ****     // OCTAVE OSCILLATOR
 257:src/voice.h   ****     2.0f,
 258:src/voice.h   ****     0.20f,
 259:src/voice.h   ****     WAVE_TRI,            // oct   ŌĆö top of the power chord
 260:src/voice.h   ****     // FILTER
 261:src/voice.h   ****     false,               // osc2 is a fixed fifth, not finger-2 detune
 262:src/voice.h   ****     0.25f,
 263:src/voice.h   ****     7.0f,
 264:src/voice.h   ****     0.50f,               // darker: lower base cutoff, gentler sweep, less res
 265:src/voice.h   ****     // DRIVE
 266:src/voice.h   ****     1.0f,                // less drive ŌĆö keep it clean and round
 267:src/voice.h   ****     // NOISE
 268:src/voice.h   ****     0.0f,                // noise level
 269:src/voice.h   ****     1.0f,                // keytrack
 270:src/voice.h   ****     1.0f,                // ringmod ratio
ARM GAS  /tmp/claude-502/ccJ8DnOJ.s 			page 38


 271:src/voice.h   ****     0.12f,               // ringmod max
 272:src/voice.h   ****     0.12f,               // fold max
 273:src/voice.h   ****     6.0f,                // attack
 274:src/voice.h   ****     300.0f,              // release
 275:src/voice.h   ****     25.0f                // glide
 276:src/voice.h   ****     // PITCH ENVELOPE
 277:src/voice.h   ****     // PITCH QUANTIZE
 278:src/voice.h   **** };
 279:src/voice.h   **** 
 280:src/voice.h   **** // ŌöĆŌöĆ Voice 2: open power-chord bass ŌöĆŌöĆŌöĆŌöĆŌöĆŌöĆŌöĆŌöĆŌöĆŌöĆŌöĆŌöĆŌöĆŌöĆŌöĆŌöĆŌöĆŌöĆŌöĆŌ
 281:src/voice.h   **** //   Same chord stack as VOICE_BASS, but the filter starts brighter and sweeps
 282:src/voice.h   **** //   much further with pressure ŌĆö light touch is still warm, hard press opens it
 283:src/voice.h   **** //   wide. A touch more resonance and drive for presence as it opens.
 284:src/voice.h   **** static constexpr Voice VOICE_BASS_OPEN = {
 285:src/voice.h   ****     "OpenBass",
 286:src/voice.h   ****     // FREQUENCY RANGE
 287:src/voice.h   ****     40.0f,
 288:src/voice.h   ****     180.0f,
 289:src/voice.h   ****     1.50408f,            // 40ŌĆō180 Hz, ln(4.5) ŌĆö a little more reach up top
 290:src/voice.h   ****     // OSCILLATOR STACK
 291:src/voice.h   ****     1.0f,
 292:src/voice.h   ****     0.45f,
 293:src/voice.h   ****     WAVE_TRI,            // osc1  ŌĆö root
 294:src/voice.h   ****     // SECONDARY OSCILLATOR
 295:src/voice.h   ****     RATIO_FIFTH,
 296:src/voice.h   ****     0.30f,
 297:src/voice.h   ****     WAVE_TRI,            // osc2  ŌĆö fixed perfect fifth (the power chord)
 298:src/voice.h   ****     // SUB OSCILLATOR
 299:src/voice.h   ****     0.5f,
 300:src/voice.h   ****     0.30f,
 301:src/voice.h   ****     WAVE_TRI,            // sub   ŌĆö slightly less so the openness reads
 302:src/voice.h   ****     // OCTAVE OSCILLATOR
 303:src/voice.h   ****     2.0f,
 304:src/voice.h   ****     0.22f,
 305:src/voice.h   ****     WAVE_TRI,            // oct   ŌĆö top of the power chord
 306:src/voice.h   ****     // FILTER
 307:src/voice.h   ****     false,               // osc2 is a fixed fifth, not finger-2 detune
 308:src/voice.h   ****     0.5f,
 309:src/voice.h   ****     10.0f,
 310:src/voice.h   ****     0.65f,               // brighter base + wider pressure sweep + more resonance
 311:src/voice.h   ****     // DRIVE
 312:src/voice.h   ****     1.8f,                // more drive ŌĆö grit comes in as you press
 313:src/voice.h   ****     // NOISE
 314:src/voice.h   ****     0.0f,                // noise level
 315:src/voice.h   ****     1.0f,                // keytrack
 316:src/voice.h   ****     1.0f,                // ringmod ratio
 317:src/voice.h   ****     0.15f,               // ringmod max
 318:src/voice.h   ****     0.15f,               // fold max
 319:src/voice.h   ****     5.0f,                // attack
 320:src/voice.h   ****     350.0f,              // release
 321:src/voice.h   ****     25.0f                // glide
 322:src/voice.h   ****     // PITCH ENVELOPE
 323:src/voice.h   ****     // PITCH QUANTIZE
 324:src/voice.h   **** };
 325:src/voice.h   **** 
 326:src/voice.h   **** // ŌöĆŌöĆ Voice 3: rich power-chord bass with mixed waveforms + huge filter sweep ŌöĆŌöĆŌöĆŌöĆ
 327:src/voice.h   **** //   Mixed shapes for body: saw root (harmonic-rich), square fifth (hollow), a
ARM GAS  /tmp/claude-502/ccJ8DnOJ.s 			page 39


 328:src/voice.h   **** //   clean sine sub (tight low end), saw octave on top. Starts dark, then
 329:src/voice.h   **** //   pressure opens the cutoff dramatically (13 octaves) with high resonance ŌĆö
 330:src/voice.h   **** //   a vocal, acid-style "wow" as you press harder.
 331:src/voice.h   **** static constexpr Voice VOICE_BASS_RICH = {
 332:src/voice.h   ****     "RichBass",
 333:src/voice.h   ****     // FREQUENCY RANGE
 334:src/voice.h   ****     40.0f,
 335:src/voice.h   ****     160.0f,
 336:src/voice.h   ****     1.38629f,            // 40ŌĆō160 Hz, ln(4)
 337:src/voice.h   ****     // OSCILLATOR STACK
 338:src/voice.h   ****     1.0f,
 339:src/voice.h   ****     0.40f,
 340:src/voice.h   ****     WAVE_SAW,            // osc1  ŌĆö saw root (rich harmonics)
 341:src/voice.h   ****     // SECONDARY OSCILLATOR
 342:src/voice.h   ****     RATIO_FIFTH,
 343:src/voice.h   ****     0.26f,
 344:src/voice.h   ****     WAVE_SQUARE,         // osc2  ŌĆö square fifth (hollow contrast)
 345:src/voice.h   ****     // SUB OSCILLATOR
 346:src/voice.h   ****     0.5f,
 347:src/voice.h   ****     0.32f,
 348:src/voice.h   ****     WAVE_SINE,           // sub   ŌĆö clean sine for a tight low end
 349:src/voice.h   ****     // OCTAVE OSCILLATOR
 350:src/voice.h   ****     2.0f,
 351:src/voice.h   ****     0.18f,
 352:src/voice.h   ****     WAVE_SAW,            // oct   ŌĆö saw top of the power chord
 353:src/voice.h   ****     // FILTER
 354:src/voice.h   ****     false,               // osc2 is a fixed fifth, not finger-2 detune
 355:src/voice.h   ****     0.2f,
 356:src/voice.h   ****     13.0f,
 357:src/voice.h   ****     0.82f,               // dark base + enormous pressure sweep + high resonance
 358:src/voice.h   ****     // DRIVE
 359:src/voice.h   ****     2.2f,                // generous drive ŌĆö grit blooms with pressure
 360:src/voice.h   ****     // NOISE
 361:src/voice.h   ****     0.0f,                // noise level
 362:src/voice.h   ****     1.0f,                // keytrack
 363:src/voice.h   ****     1.0f,                // ringmod ratio
 364:src/voice.h   ****     0.20f,               // ringmod max
 365:src/voice.h   ****     0.20f,               // fold max
 366:src/voice.h   ****     3.0f,                // attack
 367:src/voice.h   ****     250.0f,              // release
 368:src/voice.h   ****     18.0f                // glide ŌĆö snappy + fast acid glide
 369:src/voice.h   ****     // PITCH ENVELOPE
 370:src/voice.h   ****     // PITCH QUANTIZE
 371:src/voice.h   **** };
 372:src/voice.h   **** 
 373:src/voice.h   **** // ŌöĆŌöĆ Voice 4: clean sine organ / flute (a melodic, non-bass departure) ŌöĆŌöĆŌöĆŌöĆŌöĆŌöĆŌöĆŌö
 374:src/voice.h   **** //   Pure sine oscillators stacked like organ drawbars: octave-down body, root,
 375:src/voice.h   **** //   octave-up air, plus a second osc tuned a hair sharp (1.005├Ś) for a slow,
 376:src/voice.h   **** //   warm chorus shimmer instead of a chord. Higher register than the basses, a
 377:src/voice.h   **** //   mostly-open clean filter, and just a touch of drive so pressure adds gentle
 378:src/voice.h   **** //   harmonic warmth. Sines never alias, so it stays smooth all the way up.
 379:src/voice.h   **** static constexpr Voice VOICE_ORGAN = {
 380:src/voice.h   ****     "Organ",
 381:src/voice.h   ****     // FREQUENCY RANGE
 382:src/voice.h   ****     65.0f,
 383:src/voice.h   ****     520.0f,
 384:src/voice.h   ****     2.07944f,            // 65ŌĆō520 Hz, ln(8) ŌĆö a melodic keyboard register
ARM GAS  /tmp/claude-502/ccJ8DnOJ.s 			page 40


 385:src/voice.h   ****     // OSCILLATOR STACK
 386:src/voice.h   ****     1.0f,
 387:src/voice.h   ****     0.45f,
 388:src/voice.h   ****     WAVE_SINE,           // osc1  ŌĆö root (8')
 389:src/voice.h   ****     // SECONDARY OSCILLATOR
 390:src/voice.h   ****     1.005f,
 391:src/voice.h   ****     0.40f,
 392:src/voice.h   ****     WAVE_SINE,           // osc2  ŌĆö slightly sharp unison ŌåÆ slow chorus shimmer
 393:src/voice.h   ****     // SUB OSCILLATOR
 394:src/voice.h   ****     0.5f,
 395:src/voice.h   ****     0.30f,
 396:src/voice.h   ****     WAVE_SINE,           // sub   ŌĆö octave-down body (16')
 397:src/voice.h   ****     // OCTAVE OSCILLATOR
 398:src/voice.h   ****     2.0f,
 399:src/voice.h   ****     0.28f,
 400:src/voice.h   ****     WAVE_SINE,           // oct   ŌĆö octave-up air (4')
 401:src/voice.h   ****     // FILTER
 402:src/voice.h   ****     false,               // osc2 is a fixed chorus detune, not finger-2 detune
 403:src/voice.h   ****     2.0f,
 404:src/voice.h   ****     5.0f,
 405:src/voice.h   ****     0.20f,               // mostly-open clean filter, gentle pressure lift, low res
 406:src/voice.h   ****     // DRIVE
 407:src/voice.h   ****     0.8f,                // light drive ŌĆö pressure adds subtle warmth, stays pure
 408:src/voice.h   ****     // NOISE
 409:src/voice.h   ****     0.03f,               // noise level ŌĆö breath chiff
 410:src/voice.h   ****     1.0f,                // keytrack
 411:src/voice.h   ****     1.0f,                // ringmod ratio
 412:src/voice.h   ****     0.05f,               // ringmod max
 413:src/voice.h   ****     0.0f,                // fold max
 414:src/voice.h   ****     8.0f,                // attack
 415:src/voice.h   ****     120.0f,              // release
 416:src/voice.h   ****     8.0f,                // glide ŌĆö fast on/off, no glide
 417:src/voice.h   ****     // PITCH ENVELOPE
 418:src/voice.h   ****     0.0f,                // pitch env octaves (off)
 419:src/voice.h   ****     0.0f,                // pitch env time
 420:src/voice.h   ****     // NOISE TONE
 421:src/voice.h   ****     0.0f,                // noise_hp (white)
 422:src/voice.h   ****     // CYCLING
 423:src/voice.h   ****     false,               // no_cycle (stays in the FSR cycle)
 424:src/voice.h   ****     // VELOCITY
 425:src/voice.h   ****     0.0f,                // vel_sens (fixed loudness)
 426:src/voice.h   ****     // RETRIGGER
 427:src/voice.h   ****     0.0f,                // retrig_ms (off)
 428:src/voice.h   ****     // PITCH QUANTIZE
 429:src/voice.h   ****     true,                // quantize ŌĆö snap on touch-down (organ/keyboard feel)
 430:src/voice.h   ****     SCALE_MINOR,         // scale
 431:src/voice.h   ****     (int)(sizeof(SCALE_MINOR) / sizeof(SCALE_MINOR[0])), // scale_len ŌĆö minor
 432:src/voice.h   ****     // (decay_ms, sustain, chords, chord_level, chord_spread) ŌĆö defaults
 433:src/voice.h   ****     0.0f, 0.0f, false, 0.0f, 0,
 434:src/voice.h   ****     // SENDS ŌĆö Organ is the test voice for the shared reverb + delay
 435:src/voice.h   ****     0.6f,                // reverb_send (a roomy wash)
 436:src/voice.h   ****     0.45f                // delay_send  (warm repeats)
 437:src/voice.h   **** };
 438:src/voice.h   **** 
 439:src/voice.h   **** // ŌöĆŌöĆ Voice 5: screaming aggressive lead ŌöĆŌöĆŌöĆŌöĆŌöĆŌöĆŌöĆŌöĆŌöĆŌöĆŌöĆŌöĆŌöĆŌöĆŌöĆŌöĆŌöĆŌöĆ
 440:src/voice.h   **** //   Detuned sawtooth stack (root + a hair-sharp twin + octave) for a thick,
 441:src/voice.h   **** //   buzzing supersaw bite, pushed up into a cutting register. Heavy drive and a
ARM GAS  /tmp/claude-502/ccJ8DnOJ.s 			page 41


 442:src/voice.h   **** //   very high filter resonance make the cutoff whistle and scream as pressure
 443:src/voice.h   **** //   sweeps it wide open. Finger-2 pressure piles on ring-mod + wavefold for
 444:src/voice.h   **** //   extra snarl. Loud and nasty ŌĆö the output soft-clip keeps it from blowing up.
 445:src/voice.h   **** static constexpr Voice VOICE_SCREAM = {
 446:src/voice.h   ****     "Scream",
 447:src/voice.h   ****     // FREQUENCY RANGE
 448:src/voice.h   ****     90.0f,
 449:src/voice.h   ****     720.0f,
 450:src/voice.h   ****     2.07944f,            // 90ŌĆō720 Hz, ln(8) ŌĆö high, cutting register
 451:src/voice.h   ****     // OSCILLATOR STACK
 452:src/voice.h   ****     1.0f,
 453:src/voice.h   ****     0.42f,
 454:src/voice.h   ****     WAVE_SAW,            // osc1  ŌĆö saw root
 455:src/voice.h   ****     // SECONDARY OSCILLATOR
 456:src/voice.h   ****     1.008f,
 457:src/voice.h   ****     0.38f,
 458:src/voice.h   ****     WAVE_SAW,            // osc2  ŌĆö slightly sharp twin ŌåÆ thick beating buzz
 459:src/voice.h   ****     // SUB OSCILLATOR
 460:src/voice.h   ****     0.5f,
 461:src/voice.h   ****     0.20f,
 462:src/voice.h   ****     WAVE_SAW,            // sub   ŌĆö a little weight underneath
 463:src/voice.h   ****     // OCTAVE OSCILLATOR
 464:src/voice.h   ****     2.0f,
 465:src/voice.h   ****     0.30f,
 466:src/voice.h   ****     WAVE_SAW,            // oct   ŌĆö octave up for bright, cutting scream
 467:src/voice.h   ****     // FILTER
 468:src/voice.h   ****     false,               // osc2 is a fixed detune, not finger-2 controlled
 469:src/voice.h   ****     3.0f,
 470:src/voice.h   ****     11.0f,
 471:src/voice.h   ****     0.90f,               // bright base + wide sweep + near-self-osc resonance
 472:src/voice.h   ****     // DRIVE
 473:src/voice.h   ****     4.0f,                // heavy drive ŌĆö saturated and aggressive
 474:src/voice.h   ****     // NOISE
 475:src/voice.h   ****     0.05f,               // noise level ŌĆö hiss
 476:src/voice.h   ****     1.0f,                // keytrack
 477:src/voice.h   ****     2.5f,                // ringmod ratio ŌĆö inharmonic metallic
 478:src/voice.h   ****     0.40f,               // ringmod max
 479:src/voice.h   ****     0.30f,               // fold max
 480:src/voice.h   ****     2.0f,                // attack
 481:src/voice.h   ****     200.0f,              // release
 482:src/voice.h   ****     35.0f                // glide
 483:src/voice.h   ****     // PITCH ENVELOPE
 484:src/voice.h   ****     // PITCH QUANTIZE
 485:src/voice.h   **** };
 486:src/voice.h   **** 
 487:src/voice.h   **** // ŌöĆŌöĆ Voice 6: electric guitar power chord ŌöĆŌöĆŌöĆŌöĆŌöĆŌöĆŌöĆŌöĆŌöĆŌöĆŌöĆŌöĆŌöĆŌöĆŌöĆŌöĆŌöĆŌ
 488:src/voice.h   **** //   A driven sawtooth power chord ŌĆö each note is a root + fixed perfect fifth +
 489:src/voice.h   **** //   octave-up jangle over a saw octave-down body, so it plays as a chord like a
 490:src/voice.h   **** //   rock guitar. Heavy-ish drive adds overdrive crunch; the filter sits a touch
 491:src/voice.h   **** //   above the fundamental and sweeps wide open with pressure (dig in = bright,
 492:src/voice.h   **** //   pick-attack bite), with resonance for a vocal amp "quack". A fast pitch-env
 493:src/voice.h   **** //   "twang" + a little pick-grit noise on the onset, then amp decay-to-silence
 494:src/voice.h   **** //   (decay_ms/sustain below) so each note plucks and rings out over ~1.2 s while
 495:src/voice.h   **** //   held ŌĆö like a struck string, not an organ. Quantized to a major scale so
 496:src/voice.h   **** //   tapped chords land in key. For a BASS guitar instead: drop freq_low/high ~┬Į,
 497:src/voice.h   **** //   cut drive to ~1.5, use WAVE_TRI, and raise `sustain` if you want it to hold.
 498:src/voice.h   **** static constexpr Voice VOICE_GUITAR = {
ARM GAS  /tmp/claude-502/ccJ8DnOJ.s 			page 42


 499:src/voice.h   ****     "Guitar",
 500:src/voice.h   ****     // FREQUENCY RANGE
 501:src/voice.h   ****     80.0f,
 502:src/voice.h   ****     320.0f,
 503:src/voice.h   ****     1.38629f,            // 80ŌĆō320 Hz, ln(4) ŌĆö E2-ish up two octaves
 504:src/voice.h   ****     // OSCILLATOR STACK
 505:src/voice.h   ****     1.0f,
 506:src/voice.h   ****     0.40f,
 507:src/voice.h   ****     WAVE_SAW,            // osc1  ŌĆö saw root (bright, string-like)
 508:src/voice.h   ****     // SECONDARY OSCILLATOR
 509:src/voice.h   ****     RATIO_FIFTH,
 510:src/voice.h   ****     0.30f,
 511:src/voice.h   ****     WAVE_SAW,            // osc2  ŌĆö fixed perfect fifth (the power chord)
 512:src/voice.h   ****     // SUB OSCILLATOR
 513:src/voice.h   ****     0.5f,
 514:src/voice.h   ****     0.22f,
 515:src/voice.h   ****     WAVE_SAW,            // sub   ŌĆö octave-down body/weight
 516:src/voice.h   ****     // OCTAVE OSCILLATOR
 517:src/voice.h   ****     2.0f,
 518:src/voice.h   ****     0.18f,
 519:src/voice.h   ****     WAVE_SAW,            // oct   ŌĆö octave-up jangle / pick brightness
 520:src/voice.h   ****     // FILTER
 521:src/voice.h   ****     false,               // osc2 is a fixed fifth, not finger-2 detune
 522:src/voice.h   ****     1.5f,
 523:src/voice.h   ****     6.0f,
 524:src/voice.h   ****     0.42f,               // bright-ish base, wide sweep, resonant mid "quack" (amp-like)
 525:src/voice.h   ****     // DRIVE
 526:src/voice.h   ****     3.6f,                // overdrive crunch ŌĆö the electric-guitar grit
 527:src/voice.h   ****     // NOISE
 528:src/voice.h   ****     0.03f,               // noise level ŌĆö a little pick grit (rides the amp decay)
 529:src/voice.h   ****     1.0f,                // keytrack
 530:src/voice.h   ****     1.0f,                // ringmod ratio
 531:src/voice.h   ****     0.12f,               // ringmod max
 532:src/voice.h   ****     0.15f,               // fold max
 533:src/voice.h   ****     3.0f,                // attack ŌĆö fast pluck onset
 534:src/voice.h   ****     280.0f,              // release ŌĆö ring tail after lift
 535:src/voice.h   ****     8.0f,                // glide ŌĆö quick, distinct chord changes
 536:src/voice.h   ****     // PITCH ENVELOPE ŌĆö fast pick-attack "twang": start ~0.12 oct sharp, settle 18 ms
 537:src/voice.h   ****     0.12f, 18.0f,        // pitch_env_oct, pitch_env_ms
 538:src/voice.h   ****     // noise_hp, no_cycle, vel_sens, retrig_ms (defaults)
 539:src/voice.h   ****     0.0f, false, 0.0f, 0.0f,
 540:src/voice.h   ****     // PITCH QUANTIZE ŌĆö snap to a major scale on touch-down so chords land in key
 541:src/voice.h   ****     true,
 542:src/voice.h   ****     SCALE_MAJOR, (int)(sizeof(SCALE_MAJOR) / sizeof(SCALE_MAJOR[0])),
 543:src/voice.h   ****     // AMP DECAY ŌĆö the pluck: ring out to silence over ~1.2 s while held
 544:src/voice.h   ****     1200.0f,             // decay_ms
 545:src/voice.h   ****     0.0f                 // sustain (0 = decays to silence)
 546:src/voice.h   **** };
 547:src/voice.h   **** 
 548:src/voice.h   **** // ŌöĆŌöĆ Voice 7: warm ensemble pad ŌöĆŌöĆŌöĆŌöĆŌöĆŌöĆŌöĆŌöĆŌöĆŌöĆŌöĆŌöĆŌöĆŌöĆŌöĆŌöĆŌöĆŌöĆŌöĆŌöĆŌö
 549:src/voice.h   **** //   A lush, evolving pad. Two saws a hair apart (1.006├Ś) give an ensemble/chorus
 550:src/voice.h   **** //   width, a soft triangle sub adds body, an airy sine octave sits on top. A
 551:src/voice.h   **** //   moderate, low-resonance filter keeps it warm rather than bright. The pad
 552:src/voice.h   **** //   character comes from the envelope: a slow ~2.2 s swell in and a long ~2 s
 553:src/voice.h   **** //   tail, so notes bloom and linger. A whisper of noise adds air.
 554:src/voice.h   **** static constexpr Voice VOICE_PAD = {
 555:src/voice.h   ****     "Pad",
ARM GAS  /tmp/claude-502/ccJ8DnOJ.s 			page 43


 556:src/voice.h   ****     // FREQUENCY RANGE
 557:src/voice.h   ****     70.0f,
 558:src/voice.h   ****     560.0f,
 559:src/voice.h   ****     2.07944f,            // 70ŌĆō560 Hz, ln(8) ŌĆö mid melodic register
 560:src/voice.h   ****     // OSCILLATOR STACK
 561:src/voice.h   ****     1.0f,
 562:src/voice.h   ****     0.32f,
 563:src/voice.h   ****     WAVE_SAW,            // osc1  ŌĆö saw root
 564:src/voice.h   ****     // SECONDARY OSCILLATOR
 565:src/voice.h   ****     1.006f,
 566:src/voice.h   ****     0.30f,
 567:src/voice.h   ****     WAVE_SAW,            // osc2  ŌĆö detuned saw ŌåÆ lush ensemble width
 568:src/voice.h   ****     // SUB OSCILLATOR
 569:src/voice.h   ****     0.5f,
 570:src/voice.h   ****     0.22f,
 571:src/voice.h   ****     WAVE_TRI,            // sub   ŌĆö soft triangle body
 572:src/voice.h   ****     // OCTAVE OSCILLATOR
 573:src/voice.h   ****     2.0f,
 574:src/voice.h   ****     0.18f,
 575:src/voice.h   ****     WAVE_SINE,           // oct   ŌĆö airy sine top
 576:src/voice.h   ****     // FILTER
 577:src/voice.h   ****     false,               // osc2 is a fixed chorus detune, not finger-2
 578:src/voice.h   ****     1.2f,
 579:src/voice.h   ****     3.0f,
 580:src/voice.h   ****     0.20f,               // warm & closed: low base cutoff, gentle sweep, low res
 581:src/voice.h   ****     // DRIVE
 582:src/voice.h   ****     0.6f,                // gentle drive ŌĆö stays smooth
 583:src/voice.h   ****     // NOISE
 584:src/voice.h   ****     0.015f,              // noise level ŌĆö air
 585:src/voice.h   ****     1.0f,                // keytrack
 586:src/voice.h   ****     1.0f,                // ringmod ratio
 587:src/voice.h   ****     0.0f,                // ringmod max
 588:src/voice.h   ****     0.08f,               // fold max
 589:src/voice.h   ****     2200.0f,             // attack ŌĆö slow swell
 590:src/voice.h   ****     2000.0f,             // release ŌĆö long tail
 591:src/voice.h   ****     80.0f                // glide
 592:src/voice.h   ****     // PITCH ENVELOPE
 593:src/voice.h   ****     // PITCH QUANTIZE
 594:src/voice.h   **** };
 595:src/voice.h   **** 
 596:src/voice.h   **** // ŌöĆŌöĆ Voice 8: tom / percussion (noise-driven) ŌöĆŌöĆŌöĆŌöĆŌöĆŌöĆŌöĆŌöĆŌöĆŌöĆŌöĆŌöĆŌöĆŌöĆŌöĆŌöĆ
 597:src/voice.h   **** //   A drum, not a sustained note ŌĆö PLAY IT BY TAPPING the glass. Noise over two
 598:src/voice.h   **** //   low sine modes (body + an inharmonic 1.6├Ś ring) and a little sub thump. An
 599:src/voice.h   **** //   instant attack and a short ~150 ms release make each tap a percussive hit.
 600:src/voice.h   **** //   A closed, dark filter keeps it round and muffled (tom, not bright snare);
 601:src/voice.h   **** //   harder presses open it a touch. Finger-1 position tunes the drum.
 602:src/voice.h   **** static constexpr Voice VOICE_TOM = {
 603:src/voice.h   ****     "Tom",
 604:src/voice.h   ****     // FREQUENCY RANGE
 605:src/voice.h   ****     40.0f,
 606:src/voice.h   ****     400.0f,
 607:src/voice.h   ****     2.30259f,            // 40ŌĆō400 Hz, ln(10) ŌĆö finger-1 tunes from kick/tom up
 608:src/voice.h   ****     // OSCILLATOR STACK
 609:src/voice.h   ****     1.0f,
 610:src/voice.h   ****     0.22f,
 611:src/voice.h   ****     WAVE_SINE,           // osc1  ŌĆö body (lower mode)
 612:src/voice.h   ****     // SECONDARY OSCILLATOR
ARM GAS  /tmp/claude-502/ccJ8DnOJ.s 			page 44


 613:src/voice.h   ****     1.6f,
 614:src/voice.h   ****     0.15f,
 615:src/voice.h   ****     WAVE_SINE,           // osc2  ŌĆö upper mode (inharmonic ring)
 616:src/voice.h   ****     // SUB OSCILLATOR
 617:src/voice.h   ****     0.5f,
 618:src/voice.h   ****     0.10f,
 619:src/voice.h   ****     WAVE_SINE,           // sub   ŌĆö a little thump
 620:src/voice.h   ****     // OCTAVE OSCILLATOR
 621:src/voice.h   ****     2.0f,
 622:src/voice.h   ****     0.0f,
 623:src/voice.h   ****     WAVE_SINE,           // oct   ŌĆö off
 624:src/voice.h   ****     // FILTER
 625:src/voice.h   ****     false,               // osc2 is a fixed ratio, not finger-2 detune
 626:src/voice.h   ****     3.0f,
 627:src/voice.h   ****     3.0f,
 628:src/voice.h   ****     0.30f,               // tom ŌĆö low 1-pole cutoff for a dark, round body
 629:src/voice.h   ****     // DRIVE
 630:src/voice.h   ****     1.5f,                // drive ŌĆö snap and saturation on hard hits
 631:src/voice.h   ****     // NOISE
 632:src/voice.h   ****     0.70f,               // noise level ŌĆö noise-dominant
 633:src/voice.h   ****     0.3f,                // keytrack
 634:src/voice.h   ****     1.0f,                // ringmod ratio
 635:src/voice.h   ****     0.0f,                // ringmod max
 636:src/voice.h   ****     0.10f,               // fold max
 637:src/voice.h   ****     1.0f,                // attack ŌĆö instant hit
 638:src/voice.h   ****     150.0f,              // release ŌĆö short tail
 639:src/voice.h   ****     5.0f,                // glide
 640:src/voice.h   ****     // PITCH ENVELOPE
 641:src/voice.h   ****     1.0f,                // pitch env octaves ŌĆö tom "boww": start 1 oct up
 642:src/voice.h   ****     80.0f,               // pitch env time ŌĆö drop in 80 ms
 643:src/voice.h   ****     // NOISE TONE
 644:src/voice.h   ****     0.0f,                // noise_hp (white)
 645:src/voice.h   ****     // CYCLING
 646:src/voice.h   ****     true,                // no_cycle ŌĆö reached via the Drums MultiVoice
 647:src/voice.h   ****     // VELOCITY
 648:src/voice.h   ****     0.85f,               // vel_sens ŌĆö dynamic taps
 649:src/voice.h   ****     // RETRIGGER
 650:src/voice.h   ****     400.0f               // retrig_ms ŌĆö dedupe strike + cap repeat rate
 651:src/voice.h   ****     // PITCH QUANTIZE
 652:src/voice.h   **** };
 653:src/voice.h   **** 
 654:src/voice.h   **** // ŌöĆŌöĆ Voice 9: kick drum (noise-driven) ŌöĆŌöĆŌöĆŌöĆŌöĆŌöĆŌöĆŌöĆŌöĆŌöĆŌöĆŌöĆŌöĆŌöĆŌöĆŌöĆŌöĆŌöĆŌ
 655:src/voice.h   **** //   A deep, punchy thud ŌĆö PLAY IT BY TAPPING. A low sine body with a sub-octave
 656:src/voice.h   **** //   for weight and a quiet octave "click" for beater attack; a whisper of noise
 657:src/voice.h   **** //   adds beater texture. Very closed dark filter + a little drive keep it round
 658:src/voice.h   **** //   and punchy. Instant attack, short tail. Finger-1 position tunes the kick.
 659:src/voice.h   **** //   A pitch envelope (start 2 oct up, drop in 45 ms) gives the classic "boom".
 660:src/voice.h   **** static constexpr Voice VOICE_KICK = {
 661:src/voice.h   ****     "Kick",
 662:src/voice.h   ****     // FREQUENCY RANGE
 663:src/voice.h   ****     30.0f,
 664:src/voice.h   ****     80.0f,
 665:src/voice.h   ****     0.98083f,            // 30ŌĆō80 Hz, ln(2.67) ŌĆö deep, position tunes the kick
 666:src/voice.h   ****     // OSCILLATOR STACK
 667:src/voice.h   ****     1.0f,
 668:src/voice.h   ****     0.55f,
 669:src/voice.h   ****     WAVE_SINE,           // osc1  ŌĆö deep sine body
ARM GAS  /tmp/claude-502/ccJ8DnOJ.s 			page 45


 670:src/voice.h   ****     // SECONDARY OSCILLATOR
 671:src/voice.h   ****     2.0f,
 672:src/voice.h   ****     0.10f,
 673:src/voice.h   ****     WAVE_SINE,           // osc2  ŌĆö octave "click" for attack punch
 674:src/voice.h   ****     // SUB OSCILLATOR
 675:src/voice.h   ****     0.5f,
 676:src/voice.h   ****     0.15f,
 677:src/voice.h   ****     WAVE_SINE,           // sub   ŌĆö sub-octave rumble
 678:src/voice.h   ****     // OCTAVE OSCILLATOR
 679:src/voice.h   ****     2.0f,
 680:src/voice.h   ****     0.0f,
 681:src/voice.h   ****     WAVE_SINE,           // oct   ŌĆö off
 682:src/voice.h   ****     // FILTER
 683:src/voice.h   ****     false,               // osc2 is a fixed ratio, not finger-2 detune
 684:src/voice.h   ****     3.0f,
 685:src/voice.h   ****     2.0f,
 686:src/voice.h   ****     0.20f,               // very closed/dark ŌĆö round; tiny pressure sweep
 687:src/voice.h   ****     // DRIVE
 688:src/voice.h   ****     1.8f,                // drive ŌĆö punch and saturation
 689:src/voice.h   ****     // NOISE
 690:src/voice.h   ****     0.08f,               // noise level ŌĆö soft beater click
 691:src/voice.h   ****     0.5f,                // keytrack
 692:src/voice.h   ****     1.0f,                // ringmod ratio
 693:src/voice.h   ****     0.0f,                // ringmod max
 694:src/voice.h   ****     0.0f,                // fold max
 695:src/voice.h   ****     1.0f,                // attack ŌĆö instant
 696:src/voice.h   ****     160.0f,              // release ŌĆö short
 697:src/voice.h   ****     5.0f,                // glide
 698:src/voice.h   ****     // PITCH ENVELOPE
 699:src/voice.h   ****     2.0f,                // pitch env octaves ŌĆö kick "boom": start 2 oct up
 700:src/voice.h   ****     45.0f,               // pitch env time ŌĆö drop in 45 ms
 701:src/voice.h   ****     // NOISE TONE
 702:src/voice.h   ****     0.0f,                // noise_hp (white)
 703:src/voice.h   ****     // CYCLING
 704:src/voice.h   ****     true,                // no_cycle ŌĆö reached via the Drums MultiVoice
 705:src/voice.h   ****     // VELOCITY
 706:src/voice.h   ****     0.85f,               // vel_sens ŌĆö dynamic taps
 707:src/voice.h   ****     // RETRIGGER
 708:src/voice.h   ****     400.0f               // retrig_ms ŌĆö dedupe strike + cap repeat rate
 709:src/voice.h   ****     // PITCH QUANTIZE
 710:src/voice.h   **** };
 711:src/voice.h   **** 
 712:src/voice.h   **** // ŌöĆŌöĆ Voice 10: snare (noise-driven) ŌöĆŌöĆŌöĆŌöĆŌöĆŌöĆŌöĆŌöĆŌöĆŌöĆŌöĆŌöĆŌöĆŌöĆŌöĆŌöĆŌöĆŌöĆŌöĆŌ
 713:src/voice.h   **** //   The bright, noisy cousin of the Tom ŌĆö PLAY IT BY TAPPING. Broadband noise
 714:src/voice.h   **** //   (the "wires" rattle) dominates over two tonal modes (body + a 1.8├Ś ring); a
 715:src/voice.h   **** //   wide-open filter keeps it crisp and cracking. Instant attack, short tail,
 716:src/voice.h   **** //   and a quick subtle pitch snap (0.7 oct in 30 ms) for the hit. Harder presses
 717:src/voice.h   **** //   open it further. Finger-1 position tunes the drum.
 718:src/voice.h   **** static constexpr Voice VOICE_SNARE = {
 719:src/voice.h   ****     "Snare",
 720:src/voice.h   ****     // FREQUENCY RANGE
 721:src/voice.h   ****     150.0f,
 722:src/voice.h   ****     500.0f,
 723:src/voice.h   ****     1.20397f,            // 150ŌĆō500 Hz, ln(3.33) ŌĆö snare tuning range
 724:src/voice.h   ****     // OSCILLATOR STACK
 725:src/voice.h   ****     1.0f,
 726:src/voice.h   ****     0.15f,
ARM GAS  /tmp/claude-502/ccJ8DnOJ.s 			page 46


 727:src/voice.h   ****     WAVE_SINE,           // osc1  ŌĆö body (lower mode)
 728:src/voice.h   ****     // SECONDARY OSCILLATOR
 729:src/voice.h   ****     1.8f,
 730:src/voice.h   ****     0.12f,
 731:src/voice.h   ****     WAVE_TRI,            // osc2  ŌĆö upper mode/ring (triangle = more harmonics)
 732:src/voice.h   ****     // SUB OSCILLATOR
 733:src/voice.h   ****     0.5f,
 734:src/voice.h   ****     0.05f,
 735:src/voice.h   ****     WAVE_SINE,           // sub   ŌĆö slight body weight
 736:src/voice.h   ****     // OCTAVE OSCILLATOR
 737:src/voice.h   ****     2.0f,
 738:src/voice.h   ****     0.0f,
 739:src/voice.h   ****     WAVE_SINE,           // oct   ŌĆö off
 740:src/voice.h   ****     // FILTER
 741:src/voice.h   ****     false,               // osc2 is a fixed ratio, not finger-2 detune
 742:src/voice.h   ****     18.0f,
 743:src/voice.h   ****     4.0f,
 744:src/voice.h   ****     0.30f,               // wide open & bright ŌĆö the noise rattle cracks through
 745:src/voice.h   ****     // DRIVE
 746:src/voice.h   ****     1.5f,                // drive ŌĆö snap
 747:src/voice.h   ****     // NOISE
 748:src/voice.h   ****     0.72f,               // noise level ŌĆö noise-dominant rattle
 749:src/voice.h   ****     0.3f,                // keytrack
 750:src/voice.h   ****     1.0f,                // ringmod ratio
 751:src/voice.h   ****     0.0f,                // ringmod max
 752:src/voice.h   ****     0.10f,               // fold max
 753:src/voice.h   ****     1.0f,                // attack ŌĆö instant
 754:src/voice.h   ****     140.0f,              // release ŌĆö short
 755:src/voice.h   ****     5.0f,                // glide
 756:src/voice.h   ****     // PITCH ENVELOPE
 757:src/voice.h   ****     0.7f,                // pitch env octaves ŌĆö quick subtle snap
 758:src/voice.h   ****     30.0f,               // pitch env time ŌĆö 30 ms
 759:src/voice.h   ****     // NOISE TONE
 760:src/voice.h   ****     0.0f,                // noise_hp (white)
 761:src/voice.h   ****     // CYCLING
 762:src/voice.h   ****     true,                // no_cycle ŌĆö reached via the Drums MultiVoice
 763:src/voice.h   ****     // VELOCITY
 764:src/voice.h   ****     0.85f,               // vel_sens ŌĆö dynamic taps
 765:src/voice.h   ****     // RETRIGGER
 766:src/voice.h   ****     400.0f               // retrig_ms ŌĆö dedupe strike + cap repeat rate
 767:src/voice.h   ****     // PITCH QUANTIZE
 768:src/voice.h   **** };
 769:src/voice.h   **** 
 770:src/voice.h   **** // ŌöĆŌöĆ Voice 11: hi-hat (noise-driven) ŌöĆŌöĆŌöĆŌöĆŌöĆŌöĆŌöĆŌöĆŌöĆŌöĆŌöĆŌöĆŌöĆŌöĆŌöĆŌöĆŌöĆŌöĆŌöĆ
 771:src/voice.h   **** //   A crisp "tss" ŌĆö PLAY IT BY TAPPING. Almost pure high-frequency noise through
 772:src/voice.h   **** //   a wide-open filter, with three inharmonic square partials for metallic edge
 773:src/voice.h   **** //   and no low end. Instant attack and a very short ~55 ms tail = a tight closed
 774:src/voice.h   **** //   hat. Finger-1 position tunes the metallic pitch. (Raise release_ms for an
 775:src/voice.h   **** //   open-hat feel.)
 776:src/voice.h   **** static constexpr Voice VOICE_HIHAT = {
 777:src/voice.h   ****     "HiHat",
 778:src/voice.h   ****     // FREQUENCY RANGE
 779:src/voice.h   ****     4000.0f,
 780:src/voice.h   ****     11000.0f,
 781:src/voice.h   ****     1.01160f,            // 4000ŌĆō11000 Hz, ln(2.75) ŌĆö metallic edge pitch
 782:src/voice.h   ****     // OSCILLATOR STACK
 783:src/voice.h   ****     1.0f,
ARM GAS  /tmp/claude-502/ccJ8DnOJ.s 			page 47


 784:src/voice.h   ****     0.10f,
 785:src/voice.h   ****     WAVE_SQUARE,         // osc1  ŌĆö quiet metallic edge (the tss noise leads)
 786:src/voice.h   ****     // SECONDARY OSCILLATOR
 787:src/voice.h   ****     1.68f,
 788:src/voice.h   ****     0.08f,
 789:src/voice.h   ****     WAVE_SQUARE,         // osc2  ŌĆö inharmonic metallic partial
 790:src/voice.h   ****     // SUB OSCILLATOR
 791:src/voice.h   ****     0.5f,
 792:src/voice.h   ****     0.0f,
 793:src/voice.h   ****     WAVE_SINE,           // sub   ŌĆö off (no low end on a hat)
 794:src/voice.h   ****     // OCTAVE OSCILLATOR
 795:src/voice.h   ****     2.0f,
 796:src/voice.h   ****     0.06f,
 797:src/voice.h   ****     WAVE_SQUARE,         // oct   ŌĆö high partial (2.0├Ś keeps it under Nyquist)
 798:src/voice.h   ****     // FILTER
 799:src/voice.h   ****     false,               // osc2 is a fixed ratio, not finger-2 detune
 800:src/voice.h   ****     25.0f,
 801:src/voice.h   ****     2.0f,
 802:src/voice.h   ****     0.20f,               // wide open
 803:src/voice.h   ****     // DRIVE
 804:src/voice.h   ****     1.2f,                // light drive
 805:src/voice.h   ****     // NOISE
 806:src/voice.h   ****     0.80f,               // noise level ŌĆö noise-led
 807:src/voice.h   ****     0.2f,                // keytrack
 808:src/voice.h   ****     1.0f,                // ringmod ratio
 809:src/voice.h   ****     0.0f,                // ringmod max
 810:src/voice.h   ****     0.05f,               // fold max
 811:src/voice.h   ****     1.0f,                // attack ŌĆö instant
 812:src/voice.h   ****     160.0f,              // release ŌĆö sizzly tail
 813:src/voice.h   ****     3.0f,                // glide
 814:src/voice.h   ****     // PITCH ENVELOPE
 815:src/voice.h   ****     0.0f,                // pitch env octaves (off)
 816:src/voice.h   ****     0.0f,                // pitch env time
 817:src/voice.h   ****     // NOISE TONE
 818:src/voice.h   ****     1.0f,                // noise_hp ŌĆö high-passed bright "tsss"
 819:src/voice.h   ****     // CYCLING
 820:src/voice.h   ****     true,                // no_cycle ŌĆö reached via the Drums MultiVoice
 821:src/voice.h   ****     // VELOCITY
 822:src/voice.h   ****     0.85f,               // vel_sens ŌĆö dynamic taps
 823:src/voice.h   ****     // RETRIGGER
 824:src/voice.h   ****     400.0f               // retrig_ms ŌĆö dedupe strike + cap repeat rate
 825:src/voice.h   ****     // PITCH QUANTIZE
 826:src/voice.h   **** };
 827:src/voice.h   **** 
 828:src/voice.h   **** // ŌöĆŌöĆ Voice 12: SH-101-style mono synth ŌöĆŌöĆŌöĆŌöĆŌöĆŌöĆŌöĆŌöĆŌöĆŌöĆŌöĆŌöĆŌöĆŌöĆŌöĆŌöĆŌöĆŌöĆŌ
 829:src/voice.h   **** //   A Roland SH-101 homage: one "VCO" putting out saw + square (pulse) together
 830:src/voice.h   **** //   over a square sub-oscillator an octave down ŌĆö the fat single-osc stack the
 831:src/voice.h   **** //   SH-101 is loved for ŌĆö through the resonant 4-pole ladder. The cutoff sits
 832:src/voice.h   **** //   fairly closed and pressure sweeps it wide open with high resonance for the
 833:src/voice.h   **** //   squelchy acid "wow" (the SH-101's filter-env squelch, here played by finger
 834:src/voice.h   **** //   pressure). A whisper of noise, portamento glide between notes. Plays diatonic
 835:src/voice.h   **** //   triads (chords = true) quantized to a MINOR scale so acid chords stay in key
 836:src/voice.h   **** //   while slides bend the whole chord. Bass + leads. (Major twin: VOICE_SH101_MAJ.)
 837:src/voice.h   **** static constexpr Voice VOICE_SH101 = {
 838:src/voice.h   ****     "SH-101 min",
 839:src/voice.h   ****     // FREQUENCY RANGE
 840:src/voice.h   ****     40.0f,
ARM GAS  /tmp/claude-502/ccJ8DnOJ.s 			page 48


 841:src/voice.h   ****     400.0f,
 842:src/voice.h   ****     2.30259f,            // 40ŌĆō400 Hz, ln(10) ŌĆö bass up to lead
 843:src/voice.h   ****     // OSCILLATOR STACK
 844:src/voice.h   ****     1.0f,
 845:src/voice.h   ****     0.42f,
 846:src/voice.h   ****     WAVE_SAW,            // osc1  ŌĆö the saw VCO
 847:src/voice.h   ****     // SECONDARY OSCILLATOR
 848:src/voice.h   ****     1.0f,
 849:src/voice.h   ****     0.28f,
 850:src/voice.h   ****     WAVE_SQUARE,         // osc2  ŌĆö pulse, in unison (saw + pulse = the SH-101 blend)
 851:src/voice.h   ****     // SUB OSCILLATOR
 852:src/voice.h   ****     0.5f,
 853:src/voice.h   ****     0.40f,
 854:src/voice.h   ****     WAVE_SQUARE,         // sub   ŌĆö the iconic square sub-osc, one octave down
 855:src/voice.h   ****     // OCTAVE OSCILLATOR
 856:src/voice.h   ****     2.0f,
 857:src/voice.h   ****     0.0f,
 858:src/voice.h   ****     WAVE_SQUARE,         // oct   ŌĆö off (the SH-101 has no up-octave)
 859:src/voice.h   ****     // FILTER
 860:src/voice.h   ****     false,               // osc2 is a fixed unison, not finger-2 detune
 861:src/voice.h   ****     0.8f,
 862:src/voice.h   ****     9.0f,
 863:src/voice.h   ****     0.80f,               // closed-ish base, huge pressure sweep, squelchy acid res
 864:src/voice.h   ****     // DRIVE
 865:src/voice.h   ****     1.8f,                // a little drive for warmth/grit
 866:src/voice.h   ****     // NOISE
 867:src/voice.h   ****     0.02f,               // noise level ŌĆö a whisper (the SH-101 noise source)
 868:src/voice.h   ****     1.0f,                // keytrack
 869:src/voice.h   ****     1.0f,                // ringmod ratio
 870:src/voice.h   ****     0.10f,               // ringmod max
 871:src/voice.h   ****     0.12f,               // fold max
 872:src/voice.h   ****     2.0f,                // attack ŌĆö snappy
 873:src/voice.h   ****     220.0f,              // release
 874:src/voice.h   ****     30.0f,               // glide ŌĆö portamento slide between notes
 875:src/voice.h   ****     // PITCH ENVELOPE
 876:src/voice.h   ****     0.0f, 0.0f,          // pitch_env_oct, pitch_env_ms (none)
 877:src/voice.h   ****     // noise_hp, no_cycle, vel_sens, retrig_ms (defaults)
 878:src/voice.h   ****     0.0f, false, 0.0f, 0.0f,
 879:src/voice.h   ****     // PITCH QUANTIZE ŌĆö minor scale: chords land as diatonic triads (i, ii┬░, IIIŌĆ”)
 880:src/voice.h   ****     // and stay in key; slides still bend between notes
 881:src/voice.h   ****     true,
 882:src/voice.h   ****     SCALE_MINOR, (int)(sizeof(SCALE_MINOR) / sizeof(SCALE_MINOR[0])),
 883:src/voice.h   ****     // AMP DECAY ŌĆö none: sustained mono synth (hold the note; pressure does the wow)
 884:src/voice.h   ****     0.0f,                // decay_ms
 885:src/voice.h   ****     0.0f,                // sustain (ignored when decay_ms == 0)
 886:src/voice.h   ****     // CHORDS ŌĆö 3-note diatonic triad; upper notes near-full level, open voicing
 887:src/voice.h   ****     true,                // chords
 888:src/voice.h   ****     0.9f,                // chord_level (upper two notes vs root)
 889:src/voice.h   ****     1                    // chord_spread (octaves on the 3rd: 1 = rootŌĆō5thŌĆō10th)
 890:src/voice.h   **** };
 891:src/voice.h   **** 
 892:src/voice.h   **** // ŌöĆŌöĆ Voice 13: SH-101, major twin ŌöĆŌöĆŌöĆŌöĆŌöĆŌöĆŌöĆŌöĆŌöĆŌöĆŌöĆŌöĆŌöĆŌöĆŌöĆŌöĆŌöĆŌöĆŌöĆŌöĆ
 893:src/voice.h   **** //   Identical to VOICE_SH101 in every way except the quantize scale: MAJOR, so
 894:src/voice.h   **** //   the diatonic triads come out bright (I, ii, iii, IVŌĆ”) instead of the minor
 895:src/voice.h   **** //   set. Cycle to it to switch the chord flavor live ŌĆö no other change.
 896:src/voice.h   **** static constexpr Voice VOICE_SH101_MAJ = {
 897:src/voice.h   ****     "SH-101 maj",
ARM GAS  /tmp/claude-502/ccJ8DnOJ.s 			page 49


 898:src/voice.h   ****     // FREQUENCY RANGE
 899:src/voice.h   ****     40.0f,
 900:src/voice.h   ****     400.0f,
 901:src/voice.h   ****     2.30259f,            // 40ŌĆō400 Hz, ln(10) ŌĆö bass up to lead
 902:src/voice.h   ****     // OSCILLATOR STACK
 903:src/voice.h   ****     1.0f,
 904:src/voice.h   ****     0.42f,
 905:src/voice.h   ****     WAVE_SAW,            // osc1  ŌĆö the saw VCO
 906:src/voice.h   ****     // SECONDARY OSCILLATOR
 907:src/voice.h   ****     1.0f,
 908:src/voice.h   ****     0.28f,
 909:src/voice.h   ****     WAVE_SQUARE,         // osc2  ŌĆö pulse, in unison (saw + pulse = the SH-101 blend)
 910:src/voice.h   ****     // SUB OSCILLATOR
 911:src/voice.h   ****     0.5f,
 912:src/voice.h   ****     0.40f,
 913:src/voice.h   ****     WAVE_SQUARE,         // sub   ŌĆö the iconic square sub-osc, one octave down
 914:src/voice.h   ****     // OCTAVE OSCILLATOR
 915:src/voice.h   ****     2.0f,
 916:src/voice.h   ****     0.0f,
 917:src/voice.h   ****     WAVE_SQUARE,         // oct   ŌĆö off (the SH-101 has no up-octave)
 918:src/voice.h   ****     // FILTER
 919:src/voice.h   ****     false,               // osc2 is a fixed unison, not finger-2 detune
 920:src/voice.h   ****     0.8f,
 921:src/voice.h   ****     9.0f,
 922:src/voice.h   ****     0.80f,               // closed-ish base, huge pressure sweep, squelchy acid res
 923:src/voice.h   ****     // DRIVE
 924:src/voice.h   ****     1.8f,                // a little drive for warmth/grit
 925:src/voice.h   ****     // NOISE
 926:src/voice.h   ****     0.02f,               // noise level ŌĆö a whisper (the SH-101 noise source)
 927:src/voice.h   ****     1.0f,                // keytrack
 928:src/voice.h   ****     1.0f,                // ringmod ratio
 929:src/voice.h   ****     0.10f,               // ringmod max
 930:src/voice.h   ****     0.12f,               // fold max
 931:src/voice.h   ****     2.0f,                // attack ŌĆö snappy
 932:src/voice.h   ****     220.0f,              // release
 933:src/voice.h   ****     30.0f,               // glide ŌĆö portamento slide between notes
 934:src/voice.h   ****     // PITCH ENVELOPE
 935:src/voice.h   ****     0.0f, 0.0f,          // pitch_env_oct, pitch_env_ms (none)
 936:src/voice.h   ****     // noise_hp, no_cycle, vel_sens, retrig_ms (defaults)
 937:src/voice.h   ****     0.0f, false, 0.0f, 0.0f,
 938:src/voice.h   ****     // PITCH QUANTIZE ŌĆö MAJOR scale: the only difference from VOICE_SH101
 939:src/voice.h   ****     true,
 940:src/voice.h   ****     SCALE_MAJOR, (int)(sizeof(SCALE_MAJOR) / sizeof(SCALE_MAJOR[0])),
 941:src/voice.h   ****     // AMP DECAY ŌĆö none
 942:src/voice.h   ****     0.0f,                // decay_ms
 943:src/voice.h   ****     0.0f,                // sustain (ignored when decay_ms == 0)
 944:src/voice.h   ****     // CHORDS ŌĆö diatonic triads, same level/voicing as the minor twin
 945:src/voice.h   ****     true,                // chords
 946:src/voice.h   ****     0.9f,                // chord_level
 947:src/voice.h   ****     1                    // chord_spread
 948:src/voice.h   **** };
 949:src/voice.h   **** 
 950:src/voice.h   **** // ŌöĆŌöĆ Voice 14: MultiVoice "Drums" ŌöĆŌöĆŌöĆŌöĆŌöĆŌöĆŌöĆŌöĆŌöĆŌöĆŌöĆŌöĆŌöĆŌöĆŌöĆŌöĆŌöĆŌöĆŌöĆŌöĆ
 951:src/voice.h   **** //   A meta-voice: when selected, the slider splits into 4 equal zones, each
 952:src/voice.h   **** //   triggering one drum on tap, with the fine position snapping the pitch to an
 953:src/voice.h   **** //   interval (see MULTI_* below). This struct is just a placeholder so it lives
 954:src/voice.h   **** //   in the bank / FSR cycle and shows "Drums" in the header ŌĆö the actual audio
ARM GAS  /tmp/claude-502/ccJ8DnOJ.s 			page 50


 955:src/voice.h   **** //   per tap comes from the zone's real drum voice (g_active_voice). Kick-like so
 956:src/voice.h   **** //   it's harmless if briefly active before the first tap.
 957:src/voice.h   **** static constexpr Voice VOICE_DRUMS = {
 958:src/voice.h   ****     "Drums",
 959:src/voice.h   ****     // FREQUENCY RANGE
 960:src/voice.h   ****     30.0f,
 961:src/voice.h   ****     80.0f,
 962:src/voice.h   ****     0.98083f,
 963:src/voice.h   ****     // OSCILLATOR STACK
 964:src/voice.h   ****     1.0f,
 965:src/voice.h   ****     0.55f,
 966:src/voice.h   ****     WAVE_SINE,
 967:src/voice.h   ****     // SECONDARY OSCILLATOR
 968:src/voice.h   ****     1.0f,
 969:src/voice.h   ****     0.0f,
 970:src/voice.h   ****     WAVE_SINE,
 971:src/voice.h   ****     // SUB OSCILLATOR
 972:src/voice.h   ****     0.5f,
 973:src/voice.h   ****     0.0f,
 974:src/voice.h   ****     WAVE_SINE,
 975:src/voice.h   ****     // OCTAVE OSCILLATOR
 976:src/voice.h   ****     2.0f,
 977:src/voice.h   ****     0.0f,
 978:src/voice.h   ****     WAVE_SINE,
 979:src/voice.h   ****     // FILTER
 980:src/voice.h   ****     false,
 981:src/voice.h   ****     3.0f,
 982:src/voice.h   ****     2.0f,
 983:src/voice.h   ****     0.20f,
 984:src/voice.h   ****     // DRIVE
 985:src/voice.h   ****     1.0f,
 986:src/voice.h   ****     // NOISE
 987:src/voice.h   ****     0.0f,                // noise level
 988:src/voice.h   ****     0.5f,                // keytrack
 989:src/voice.h   ****     1.0f,                // ringmod ratio
 990:src/voice.h   ****     0.0f,                // ringmod max
 991:src/voice.h   ****     0.0f,                // fold max
 992:src/voice.h   ****     1.0f,                // attack
 993:src/voice.h   ****     160.0f,              // release
 994:src/voice.h   ****     5.0f,                // glide
 995:src/voice.h   ****     // PITCH ENVELOPE
 996:src/voice.h   ****     0.0f,                // pitch env octaves (placeholder ŌĆö zone drums play)
 997:src/voice.h   ****     0.0f,                // pitch env time
 998:src/voice.h   ****     // NOISE TONE
 999:src/voice.h   ****     0.0f                 // noise_hp
1000:src/voice.h   ****     // CYCLING
1001:src/voice.h   ****     // VELOCITY
1002:src/voice.h   ****     // RETRIGGER
1003:src/voice.h   ****     // PITCH QUANTIZE
1004:src/voice.h   **** };
1005:src/voice.h   **** 
1006:src/voice.h   **** // clang-format on
1007:src/voice.h   **** 
1008:src/voice.h   **** // ŌöĆŌöĆ Voice bank ŌöĆŌöĆŌöĆŌöĆŌöĆŌöĆŌöĆŌöĆŌöĆŌöĆŌöĆŌöĆŌöĆŌöĆŌöĆŌöĆŌöĆŌöĆŌöĆŌöĆŌöĆŌöĆŌöĆŌöĆŌöĆŌöĆ
1009:src/voice.h   **** // All voices, in cycle order. Holding the FSR pressed steps through these live
1010:src/voice.h   **** // (see the voice-switch gesture in the main loop). Edit the order here to taste.
1011:src/voice.h   **** static constexpr Voice VOICES[] = {
ARM GAS  /tmp/claude-502/ccJ8DnOJ.s 			page 51


1012:src/voice.h   ****     VOICE_LEAD,  VOICE_BASS,   VOICE_BASS_OPEN,   VOICE_BASS_RICH,
1013:src/voice.h   ****     VOICE_ORGAN, VOICE_SCREAM, VOICE_GUITAR,      VOICE_PAD,
1014:src/voice.h   ****     VOICE_TOM,   VOICE_KICK,   VOICE_SNARE,       VOICE_HIHAT,
1015:src/voice.h   ****     VOICE_SH101,     // SH-101 mono synth, minor-scale chords (cyclable; kept after
1016:src/voice.h   ****                      // the raw drums so their bank indices ŌĆö and MULTI_ZONES ŌĆö stay put)
1017:src/voice.h   ****     VOICE_SH101_MAJ, // same synth, major-scale chords ŌĆö cycle here to flip the flavor
1018:src/voice.h   ****     VOICE_DRUMS,     // MultiVoice ŌĆö must stay last (MULTI_IDX = NUM_VOICES-1)
1019:src/voice.h   **** };
1020:src/voice.h   **** static constexpr int NUM_VOICES = (int)(sizeof(VOICES) / sizeof(VOICES[0]));
1021:src/voice.h   **** 
1022:src/voice.h   **** // ŌöĆŌöĆ MultiVoice "Drums" config ŌöĆŌöĆŌöĆŌöĆŌöĆŌöĆŌöĆŌöĆŌöĆŌöĆŌöĆŌöĆŌöĆŌöĆŌöĆŌöĆŌöĆŌöĆŌöĆŌöĆŌöĆ
1023:src/voice.h   **** // MULTI_IDX is the bank slot of VOICE_DRUMS (kept last). When that voice is
1024:src/voice.h   **** // selected, the slider splits into 4 equal zones mapped to these drum voices
1025:src/voice.h   **** // (leftŌåÆright), and the fine position within a zone snaps the pitch to one of
1026:src/voice.h   **** // MULTI_INTERVALS above the drum's base pitch (freq_low).
1027:src/voice.h   **** static constexpr int MULTI_IDX = NUM_VOICES - 1;
1028:src/voice.h   **** static constexpr int MULTI_ZONES[4] = {
1029:src/voice.h   ****     9, 10, 8, 11}; // Kick, Snare, Tom, HiHat (bank indices)
1030:src/voice.h   **** static constexpr float MULTI_INTERVALS[] = {1.0f, 1.33484f, 1.49831f,
1031:src/voice.h   ****                                             2.0f}; // root, 4th, 5th, octave
1032:src/voice.h   **** static constexpr int MULTI_NINTERVALS =
1033:src/voice.h   ****     (int)(sizeof(MULTI_INTERVALS) / sizeof(MULTI_INTERVALS[0]));
1034:src/voice.h   **** 
1035:src/voice.h   **** // Drums: when true, every tap is treated as full (100%) pressure ŌĆö consistent
1036:src/voice.h   **** // hits regardless of how hard the glass reads. Set false for velocity dynamics
1037:src/voice.h   **** // (uses the drum's vel_sens). Drums only.
1038:src/voice.h   **** static constexpr bool FIX_DRUM = false;
1039:src/voice.h   **** 
1040:src/voice.h   **** // ŌöĆŌöĆ Voice cycling ŌöĆŌöĆŌöĆŌöĆŌöĆŌöĆŌöĆŌöĆŌöĆŌöĆŌöĆŌöĆŌöĆŌöĆŌöĆŌöĆŌöĆŌöĆŌöĆŌöĆŌöĆŌöĆŌöĆŌöĆŌöĆ
1041:src/voice.h   **** // Voices with no_cycle = true are skipped by the FSR-hold gesture. These helpers
1042:src/voice.h   **** // give the count of cyclable voices and the 1-based position of an index among
1043:src/voice.h   **** // them (used for the LED flash count and the serial display).
1044:src/voice.h   **** static int cycle_total() {
1045:src/voice.h   ****   int n = 0;
1046:src/voice.h   ****   for (int i = 0; i < NUM_VOICES; i++)
1047:src/voice.h   ****     if (!VOICES[i].no_cycle)
1048:src/voice.h   ****       n++;
1049:src/voice.h   ****   return n;
1050:src/voice.h   **** }
1051:src/voice.h   **** static int cycle_pos(int idx) {
 971              		.loc 7 1051 12 is_stmt 1 view .LVU282
 972              	.LBB541:
1052:src/voice.h   ****   int p = 0;
 973              		.loc 7 1052 3 view .LVU283
1053:src/voice.h   ****   for (int i = 0; i <= idx && i < NUM_VOICES; i++)
 974              		.loc 7 1053 3 view .LVU284
 975              	.LBB542:
 976              		.loc 7 1053 28 view .LVU285
 977              	.LBE542:
 978              	.LBE541:
 979              	.LBE540:
 275:src/main.cpp  ****     g_target_cutoff = 100.0f;
 980              		.loc 6 275 29 is_stmt 0 view .LVU286
 981 01c2 6600     		lsls	r6, r4, #1
 982 01c4 0E2B     		cmp	r3, #14
 983 01c6 1D46     		mov	r5, r3
 984 01c8 A8BF     		it	ge
ARM GAS  /tmp/claude-502/ccJ8DnOJ.s 			page 52


 985 01ca 0E25     		movge	r5, #14
 986              	.LBB548:
 987              	.LBB545:
 988              	.LBB543:
 989              		.loc 7 1053 28 view .LVU287
 990 01cc 002B     		cmp	r3, #0
 991 01ce C1F2FA87 		blt	.L295
 992              		.loc 7 1053 12 view .LVU288
 993 01d2 0023     		movs	r3, #0
 994              	.LVL76:
 995              		.loc 7 1053 12 view .LVU289
 996 01d4 794A     		ldr	r2, .L554+52
 997              	.LBE543:
1052:src/voice.h   ****   int p = 0;
 998              		.loc 7 1052 7 view .LVU290
 999 01d6 1946     		mov	r1, r3
 1000              	.LVL77:
 1001              	.L52:
 1002              	.LBB544:
1054:src/voice.h   ****     if (!VOICES[i].no_cycle)
 1003              		.loc 7 1054 5 is_stmt 1 view .LVU291
1055:src/voice.h   ****       p++;
 1004              		.loc 7 1055 7 view .LVU292
1054:src/voice.h   ****     if (!VOICES[i].no_cycle)
 1005              		.loc 7 1054 5 is_stmt 0 view .LVU293
 1006 01d8 92F87C00 		ldrb	r0, [r2, #124]	@ zero_extendqisi2
1053:src/voice.h   ****     if (!VOICES[i].no_cycle)
 1007              		.loc 7 1053 3 view .LVU294
 1008 01dc 0133     		adds	r3, r3, #1
 1009              	.LVL78:
1053:src/voice.h   ****     if (!VOICES[i].no_cycle)
 1010              		.loc 7 1053 28 view .LVU295
 1011 01de C032     		adds	r2, r2, #192
1054:src/voice.h   ****     if (!VOICES[i].no_cycle)
 1012              		.loc 7 1054 5 view .LVU296
 1013 01e0 00B9     		cbnz	r0, .L51
 1014              		.loc 7 1055 8 view .LVU297
 1015 01e2 0131     		adds	r1, r1, #1
 1016              	.LVL79:
 1017              	.L51:
1053:src/voice.h   ****     if (!VOICES[i].no_cycle)
 1018              		.loc 7 1053 3 is_stmt 1 view .LVU298
1053:src/voice.h   ****     if (!VOICES[i].no_cycle)
 1019              		.loc 7 1053 28 view .LVU299
 1020 01e4 9D42     		cmp	r5, r3
 1021 01e6 F7DA     		bge	.L52
 1022              	.LVL80:
 1023              	.L50:
1053:src/voice.h   ****     if (!VOICES[i].no_cycle)
 1024              		.loc 7 1053 28 is_stmt 0 view .LVU300
 1025              	.LBE544:
 1026              	.LBE545:
 1027              	.LBE548:
 1028              	.LBB549:
 1029              	.LBB550:
1045:src/voice.h   ****   for (int i = 0; i < NUM_VOICES; i++)
 1030              		.loc 7 1045 7 view .LVU301
ARM GAS  /tmp/claude-502/ccJ8DnOJ.s 			page 53


 1031 01e8 0022     		movs	r2, #0
 1032              	.LBE550:
 1033              	.LBE549:
 1034              	.LBB553:
 1035              	.LBB546:
1052:src/voice.h   ****   for (int i = 0; i <= idx && i < NUM_VOICES; i++)
 1036              		.loc 7 1052 7 view .LVU302
 1037 01ea 744B     		ldr	r3, .L554+52
 1038              	.L54:
 1039              	.LVL81:
1052:src/voice.h   ****   for (int i = 0; i <= idx && i < NUM_VOICES; i++)
 1040              		.loc 7 1052 7 view .LVU303
 1041              	.LBE546:
 1042              	.LBE553:
 1043              	.LBB554:
 1044              	.LBB552:
 1045              	.LBB551:
1047:src/voice.h   ****       n++;
 1046              		.loc 7 1047 5 is_stmt 1 view .LVU304
1048:src/voice.h   ****   return n;
 1047              		.loc 7 1048 7 view .LVU305
1047:src/voice.h   ****       n++;
 1048              		.loc 7 1047 5 is_stmt 0 view .LVU306
 1049 01ec 93F87C00 		ldrb	r0, [r3, #124]	@ zero_extendqisi2
1046:src/voice.h   ****     if (!VOICES[i].no_cycle)
 1050              		.loc 7 1046 21 view .LVU307
 1051 01f0 C033     		adds	r3, r3, #192
1047:src/voice.h   ****       n++;
 1052              		.loc 7 1047 5 view .LVU308
 1053 01f2 00B9     		cbnz	r0, .L53
1048:src/voice.h   ****   return n;
 1054              		.loc 7 1048 8 view .LVU309
 1055 01f4 0132     		adds	r2, r2, #1
 1056              	.LVL82:
 1057              	.L53:
1046:src/voice.h   ****     if (!VOICES[i].no_cycle)
 1058              		.loc 7 1046 3 is_stmt 1 view .LVU310
1046:src/voice.h   ****     if (!VOICES[i].no_cycle)
 1059              		.loc 7 1046 21 view .LVU311
 1060 01f6 7248     		ldr	r0, .L554+56
 1061 01f8 9842     		cmp	r0, r3
 1062 01fa F7D1     		bne	.L54
1046:src/voice.h   ****     if (!VOICES[i].no_cycle)
 1063              		.loc 7 1046 21 is_stmt 0 view .LVU312
 1064              	.LBE551:
1049:src/voice.h   **** }
 1065              		.loc 7 1049 3 is_stmt 1 view .LVU313
 1066              	.LVL83:
1049:src/voice.h   **** }
 1067              		.loc 7 1049 3 is_stmt 0 view .LVU314
 1068              	.LBE552:
 1069              	.LBE554:
 294:src/main.cpp  ****                  cycle_pos(g_voice_idx), cycle_total(),
 295:src/main.cpp  ****                  VOICE.name, (int)VOICE.freq_low, (int)VOICE.freq_high);
 1070              		.loc 6 295 24 view .LVU315
 1071 01fc 2644     		add	r6, r6, r4
 1072 01fe 654B     		ldr	r3, .L554+12
ARM GAS  /tmp/claude-502/ccJ8DnOJ.s 			page 54


 293:src/main.cpp  ****                  cycle_pos(g_voice_idx), cycle_total(),
 1073              		.loc 6 293 12 view .LVU316
 1074 0200 7048     		ldr	r0, .L554+60
 1075              		.loc 6 295 24 view .LVU317
 1076 0202 03EB8614 		add	r4, r3, r6, lsl #6
 1077              	.LVL84:
 1078              		.loc 6 295 24 view .LVU318
 1079 0206 B601     		lsls	r6, r6, #6
 293:src/main.cpp  ****                  cycle_pos(g_voice_idx), cycle_total(),
 1080              		.loc 6 293 12 view .LVU319
 1081 0208 94ED027A 		vldr.32	s14, [r4, #8]
 1082 020c D4ED017A 		vldr.32	s15, [r4, #4]
 1083 0210 BDEEC77A 		vcvt.s32.f32	s14, s14
 1084 0214 9B59     		ldr	r3, [r3, r6]
 1085 0216 FDEEE77A 		vcvt.s32.f32	s15, s15
 1086 021a 8DED017A 		vstr.32	s14, [sp, #4]	@ int
 1087 021e CDED007A 		vstr.32	s15, [sp]	@ int
 1088 0222 FFF7FEFF 		bl	usb_log
 1089              	.LVL85:
 296:src/main.cpp  ****     usb_log("F1 pos=pitch  F1 prs=cutoff+vibrato");
 1090              		.loc 6 296 5 is_stmt 1 view .LVU320
 1091              		.loc 6 296 12 is_stmt 0 view .LVU321
 1092 0226 6848     		ldr	r0, .L554+64
 1093 0228 FFF7FEFF 		bl	usb_log
 1094              	.LVL86:
 297:src/main.cpp  ****     if(VOICE.osc2_detune)
 1095              		.loc 6 297 5 is_stmt 1 view .LVU322
 1096 022c 94F83D30 		ldrb	r3, [r4, #61]	@ zero_extendqisi2
 1097 0230 002B     		cmp	r3, #0
 1098 0232 01F0A687 		beq	.L55
 298:src/main.cpp  ****         usb_log("F2 pos=detune F2 prs=wavefold+ringmod");
 1099              		.loc 6 298 9 view .LVU323
 1100              		.loc 6 298 16 is_stmt 0 view .LVU324
 1101 0236 6548     		ldr	r0, .L554+68
 1102 0238 FFF7FEFF 		bl	usb_log
 1103              	.LVL87:
 1104              	.L56:
 299:src/main.cpp  ****     else
 300:src/main.cpp  ****         usb_log("F2 prs=wavefold+ringmod (osc2=fixed)");
 301:src/main.cpp  ****     usb_log("Press FSR fully (no touch) 2s -> select; tap to cycle; release to keep");
 1105              		.loc 6 301 5 is_stmt 1 view .LVU325
 1106              		.loc 6 301 12 is_stmt 0 view .LVU326
 1107 023c 6448     		ldr	r0, .L554+72
 1108 023e FFF7FEFF 		bl	usb_log
 1109              	.LVL88:
 302:src/main.cpp  ****     usb_log("MPR121 OK ŌĆö baseline captured");
 1110              		.loc 6 302 5 is_stmt 1 view .LVU327
 1111              		.loc 6 302 12 is_stmt 0 view .LVU328
 1112 0242 6448     		ldr	r0, .L554+76
 1113 0244 FFF7FEFF 		bl	usb_log
 1114              	.LVL89:
 303:src/main.cpp  ****     usb_log("Ready.\n");
 1115              		.loc 6 303 5 is_stmt 1 view .LVU329
 1116              		.loc 6 303 12 is_stmt 0 view .LVU330
 1117 0248 6348     		ldr	r0, .L554+80
 1118 024a FFF7FEFF 		bl	usb_log
 1119              	.LVL90:
ARM GAS  /tmp/claude-502/ccJ8DnOJ.s 			page 55


 304:src/main.cpp  **** 
 305:src/main.cpp  ****     uint16_t data[N_CH];
 1120              		.loc 6 305 5 is_stmt 1 view .LVU331
 306:src/main.cpp  ****     int32_t  delta[N_CH];
 1121              		.loc 6 306 5 view .LVU332
 307:src/main.cpp  ****     char     bar[32], pos_bar[52];
 1122              		.loc 6 307 5 view .LVU333
 308:src/main.cpp  ****     Finger   raw[MAX_FINGERS];
 1123              		.loc 6 308 5 view .LVU334
 309:src/main.cpp  **** 
 310:src/main.cpp  ****     uint32_t idle_since      = System::GetNow();
 1124              		.loc 6 310 5 view .LVU335
 1125              		.loc 6 310 46 is_stmt 0 view .LVU336
 1126 024e FFF7FEFF 		bl	_ZN5daisy6System6GetNowEv
 1127              	.LVL91:
 1128 0252 1190     		str	r0, [sp, #68]
 1129              	.LVL92:
 311:src/main.cpp  ****     uint32_t last_touch_ms   = System::GetNow();
 1130              		.loc 6 311 5 is_stmt 1 view .LVU337
 1131              		.loc 6 311 46 is_stmt 0 view .LVU338
 1132 0254 FFF7FEFF 		bl	_ZN5daisy6System6GetNowEv
 1133              	.LVL93:
 1134              		.loc 6 311 46 view .LVU339
 1135 0258 0D90     		str	r0, [sp, #52]
 1136              	.LVL94:
 312:src/main.cpp  ****     bool     f1_was_on       = false;
 1137              		.loc 6 312 5 is_stmt 1 view .LVU340
 313:src/main.cpp  ****     uint32_t f1_last_seen_ms = 0;
 1138              		.loc 6 313 5 view .LVU341
 314:src/main.cpp  ****     static constexpr uint32_t F1_REQUANTIZE_MS = 200; // re-quantize only after this long off
 1139              		.loc 6 314 5 view .LVU342
 315:src/main.cpp  ****     float    f1_midi_base    = 60.0f; // last quantized note
 1140              		.loc 6 315 5 view .LVU343
 316:src/main.cpp  ****     bool     f1_sliding      = false; // true after first touch settles
 1141              		.loc 6 316 5 view .LVU344
 317:src/main.cpp  **** 
 318:src/main.cpp  ****     // Control loop runs as fast as the sensor allows (~150-200 Hz) for tight
 319:src/main.cpp  ****     // timing; the serial display is throttled to a readable rate independently.
 320:src/main.cpp  ****     static constexpr uint32_t PRINT_INTERVAL_MS = 120;  // ~8 display refreshes/sec
 1142              		.loc 6 320 5 view .LVU345
 321:src/main.cpp  ****     static constexpr uint32_t CONTROL_DELAY_MS  = 3;    // small cap so we don't hammer I2C
 1143              		.loc 6 321 5 view .LVU346
 322:src/main.cpp  ****     uint32_t last_print_ms = System::GetNow();
 1144              		.loc 6 322 5 view .LVU347
 1145              		.loc 6 322 44 is_stmt 0 view .LVU348
 1146 025a FFF7FEFF 		bl	_ZN5daisy6System6GetNowEv
 1147              	.LVL95:
 323:src/main.cpp  **** 
 324:src/main.cpp  ****     // Velocity: capture peak pressure over a short window at each tap onset, then
 325:src/main.cpp  ****     // hold it for the note. Scales loudness by the voice's vel_sens.
 326:src/main.cpp  ****     static constexpr uint32_t VEL_WINDOW_MS = 0;   // latch velocity on the onset frame ŌĆö snappie
 327:src/main.cpp  ****     float    vel         = 1.0f;   // latched hit velocity 0..1
 328:src/main.cpp  ****     float    vel_peak    = 0.0f;   // running peak pressure during the window
 329:src/main.cpp  ****     uint32_t vel_start   = 0;      // window start
 330:src/main.cpp  ****     bool     vel_active  = false;  // capturing
 331:src/main.cpp  **** 
 332:src/main.cpp  ****     // Smoothed LED brightness state (0..1), slewed toward per-frame targets.
ARM GAS  /tmp/claude-502/ccJ8DnOJ.s 			page 56


 333:src/main.cpp  ****     // LED1 = DAC1 (pos 0 end), LED2 = DAC2 (middle), LED3 = PWM A0 (pos 1000 end).
 334:src/main.cpp  ****     float s_led1 = 0.0f, s_led2 = 0.0f, s_led3 = 0.0f;
 335:src/main.cpp  **** 
 336:src/main.cpp  ****     // ŌöĆŌöĆ FSR voice-select gesture state (tap-to-cycle) ŌöĆŌöĆŌöĆŌöĆŌöĆŌöĆŌöĆŌöĆŌöĆŌöĆŌöĆŌöĆŌöĆ
 337:src/main.cpp  ****     int      sel_mode      = 0;      // 0 = normal play, 1 = voice-select mode
 338:src/main.cpp  ****     bool     full_state    = false;  // schmitt-latched "FSR pressed to the floor"
 339:src/main.cpp  ****     uint32_t full_since    = 0;      // when full_state went true (enter timer; 0 = not full)
 340:src/main.cpp  ****     bool     prev_held     = false;  // bridged glass-touch state last loop (tap edge detect)
 341:src/main.cpp  ****     uint32_t touch_last_ms = 0;      // last loop the glass read as touched (lift bridge)
 342:src/main.cpp  ****     uint32_t last_tap_ms   = 0;      // last glass-tap advance (debounce)
 343:src/main.cpp  ****     uint32_t drum2_at      = 0;      // scheduled 2nd drum hit (snare) for the kit preview
 344:src/main.cpp  ****     // Non-blocking LED blinker: blink_start(n) queues n flashes, blink_tick()
 345:src/main.cpp  ****     // advances them between loops so glass taps still register (the old blocking
 346:src/main.cpp  ****     // flash stalled the loop up to ~2 s). Voice-select blinks the position on
 347:src/main.cpp  ****     // enter and on save (which voice), and a single blink per tap-advance (the
 348:src/main.cpp  ****     // audio preview IDs it). Startup uses the blocking flasher for the boot voice.
 349:src/main.cpp  ****     int      blink_left    = 0;
 350:src/main.cpp  ****     bool     blink_on      = false;
 351:src/main.cpp  ****     uint32_t blink_t       = 0;
 352:src/main.cpp  ****     auto leds_write = [&](bool on){
 353:src/main.cpp  ****         hw.dac.WriteValue(DacHandle::Channel::ONE, on ? (uint16_t)LED1_MAX : 0);
 354:src/main.cpp  ****         hw.dac.WriteValue(DacHandle::Channel::TWO, on ? (uint16_t)LED2_MAX : 0);
 355:src/main.cpp  ****         g_led3_duty = on ? LED3_INTENSITY : 0.0f;
 356:src/main.cpp  ****     };
 357:src/main.cpp  ****     auto blink_start = [&](int n, uint32_t now){
 358:src/main.cpp  ****         blink_left = n;
 359:src/main.cpp  ****         if(n > 0){ leds_write(true); blink_on = true; blink_t = now + 110; }
 360:src/main.cpp  ****         else     { leds_write(false); blink_on = false; }
 361:src/main.cpp  ****     };
 362:src/main.cpp  ****     auto blink_tick = [&](uint32_t now){
 363:src/main.cpp  ****         if(blink_left == 0 && !blink_on) return;
 364:src/main.cpp  ****         if((int32_t)(now - blink_t) < 0)  return;
 365:src/main.cpp  ****         if(blink_on){ leds_write(false); blink_on = false; blink_left--; blink_t = now + 140; }
 366:src/main.cpp  ****         else if(blink_left > 0){ leds_write(true); blink_on = true; blink_t = now + 110; }
 367:src/main.cpp  ****     };
 368:src/main.cpp  **** 
 369:src/main.cpp  ****     // Blocking flash used only at startup to announce the boot/restored voice.
 370:src/main.cpp  ****     auto flash_voice_leds = [&](int count){
 371:src/main.cpp  ****         for(int f = 0; f < count; f++){
 372:src/main.cpp  ****             leds_write(true);  System::Delay(110);
 373:src/main.cpp  ****             leds_write(false); System::Delay(140);
 374:src/main.cpp  ****         }
 375:src/main.cpp  ****     };
 376:src/main.cpp  **** 
 377:src/main.cpp  ****     // Startup: flash the LEDs to announce the boot/restored voice (its cycle
 378:src/main.cpp  ****     // position) ŌĆö same gesture as a live voice switch.
 379:src/main.cpp  ****     flash_voice_leds(cycle_pos(g_voice_idx));
 1148              		.loc 6 379 21 view .LVU349
 1149 025e 4C4B     		ldr	r3, .L554+8
 322:src/main.cpp  ****     uint32_t last_print_ms = System::GetNow();
 1150              		.loc 6 322 44 view .LVU350
 1151 0260 1990     		str	r0, [sp, #100]
 1152              	.LVL96:
 326:src/main.cpp  ****     float    vel         = 1.0f;   // latched hit velocity 0..1
 1153              		.loc 6 326 5 is_stmt 1 view .LVU351
 327:src/main.cpp  ****     float    vel_peak    = 0.0f;   // running peak pressure during the window
 1154              		.loc 6 327 5 view .LVU352
ARM GAS  /tmp/claude-502/ccJ8DnOJ.s 			page 57


 328:src/main.cpp  ****     uint32_t vel_start   = 0;      // window start
 1155              		.loc 6 328 5 view .LVU353
 329:src/main.cpp  ****     bool     vel_active  = false;  // capturing
 1156              		.loc 6 329 5 view .LVU354
 330:src/main.cpp  **** 
 1157              		.loc 6 330 5 view .LVU355
 334:src/main.cpp  **** 
 1158              		.loc 6 334 5 view .LVU356
 337:src/main.cpp  ****     bool     full_state    = false;  // schmitt-latched "FSR pressed to the floor"
 1159              		.loc 6 337 5 view .LVU357
 338:src/main.cpp  ****     uint32_t full_since    = 0;      // when full_state went true (enter timer; 0 = not full)
 1160              		.loc 6 338 5 view .LVU358
 339:src/main.cpp  ****     bool     prev_held     = false;  // bridged glass-touch state last loop (tap edge detect)
 1161              		.loc 6 339 5 view .LVU359
 340:src/main.cpp  ****     uint32_t touch_last_ms = 0;      // last loop the glass read as touched (lift bridge)
 1162              		.loc 6 340 5 view .LVU360
 341:src/main.cpp  ****     uint32_t last_tap_ms   = 0;      // last glass-tap advance (debounce)
 1163              		.loc 6 341 5 view .LVU361
 342:src/main.cpp  ****     uint32_t drum2_at      = 0;      // scheduled 2nd drum hit (snare) for the kit preview
 1164              		.loc 6 342 5 view .LVU362
 343:src/main.cpp  ****     // Non-blocking LED blinker: blink_start(n) queues n flashes, blink_tick()
 1165              		.loc 6 343 5 view .LVU363
 349:src/main.cpp  ****     bool     blink_on      = false;
 1166              		.loc 6 349 5 view .LVU364
 350:src/main.cpp  ****     uint32_t blink_t       = 0;
 1167              		.loc 6 350 5 view .LVU365
 351:src/main.cpp  ****     auto leds_write = [&](bool on){
 1168              		.loc 6 351 5 view .LVU366
 352:src/main.cpp  ****         hw.dac.WriteValue(DacHandle::Channel::ONE, on ? (uint16_t)LED1_MAX : 0);
 1169              		.loc 6 352 5 view .LVU367
 357:src/main.cpp  ****         blink_left = n;
 1170              		.loc 6 357 5 view .LVU368
 362:src/main.cpp  ****         if(blink_left == 0 && !blink_on) return;
 1171              		.loc 6 362 5 view .LVU369
 370:src/main.cpp  ****         for(int f = 0; f < count; f++){
 1172              		.loc 6 370 5 view .LVU370
 1173              		.loc 6 379 5 view .LVU371
 1174              		.loc 6 379 21 is_stmt 0 view .LVU372
 1175 0262 1B68     		ldr	r3, [r3]
 1176              	.LVL97:
 1177              	.LBB555:
 1178              	.LBI555:
1051:src/voice.h   ****   int p = 0;
 1179              		.loc 7 1051 12 is_stmt 1 view .LVU373
 1180              	.LBB556:
1052:src/voice.h   ****   for (int i = 0; i <= idx && i < NUM_VOICES; i++)
 1181              		.loc 7 1052 3 view .LVU374
1053:src/voice.h   ****     if (!VOICES[i].no_cycle)
 1182              		.loc 7 1053 3 view .LVU375
 1183              	.LBB557:
1053:src/voice.h   ****     if (!VOICES[i].no_cycle)
 1184              		.loc 7 1053 28 view .LVU376
 1185 0264 0E2B     		cmp	r3, #14
 1186 0266 1846     		mov	r0, r3
 1187              	.LVL98:
1053:src/voice.h   ****     if (!VOICES[i].no_cycle)
 1188              		.loc 7 1053 28 is_stmt 0 view .LVU377
ARM GAS  /tmp/claude-502/ccJ8DnOJ.s 			page 58


 1189 0268 A8BF     		it	ge
 1190 026a 0E20     		movge	r0, #14
 1191 026c 002B     		cmp	r3, #0
 1192 026e C1F2A687 		blt	.L508
1053:src/voice.h   ****     if (!VOICES[i].no_cycle)
 1193              		.loc 7 1053 12 view .LVU378
 1194 0272 0023     		movs	r3, #0
 1195              	.LVL99:
1053:src/voice.h   ****     if (!VOICES[i].no_cycle)
 1196              		.loc 7 1053 28 view .LVU379
 1197 0274 514A     		ldr	r2, .L554+52
 1198              	.LBE557:
1052:src/voice.h   ****   for (int i = 0; i <= idx && i < NUM_VOICES; i++)
 1199              		.loc 7 1052 7 view .LVU380
 1200 0276 1D46     		mov	r5, r3
 1201              	.LVL100:
 1202              	.L57:
 1203              	.LBB558:
1054:src/voice.h   ****       p++;
 1204              		.loc 7 1054 5 is_stmt 1 view .LVU381
 1205              		.loc 7 1055 7 view .LVU382
1054:src/voice.h   ****       p++;
 1206              		.loc 7 1054 5 is_stmt 0 view .LVU383
 1207 0278 92F87C10 		ldrb	r1, [r2, #124]	@ zero_extendqisi2
1053:src/voice.h   ****     if (!VOICES[i].no_cycle)
 1208              		.loc 7 1053 3 view .LVU384
 1209 027c 0133     		adds	r3, r3, #1
 1210              	.LVL101:
1053:src/voice.h   ****     if (!VOICES[i].no_cycle)
 1211              		.loc 7 1053 28 view .LVU385
 1212 027e C032     		adds	r2, r2, #192
1054:src/voice.h   ****       p++;
 1213              		.loc 7 1054 5 view .LVU386
 1214 0280 01B9     		cbnz	r1, .L61
 1215              		.loc 7 1055 8 view .LVU387
 1216 0282 0135     		adds	r5, r5, #1
 1217              	.LVL102:
 1218              	.L61:
1053:src/voice.h   ****     if (!VOICES[i].no_cycle)
 1219              		.loc 7 1053 3 is_stmt 1 view .LVU388
1053:src/voice.h   ****     if (!VOICES[i].no_cycle)
 1220              		.loc 7 1053 28 view .LVU389
 1221 0284 9842     		cmp	r0, r3
 1222 0286 F7DA     		bge	.L57
 1223              	.LVL103:
1053:src/voice.h   ****     if (!VOICES[i].no_cycle)
 1224              		.loc 7 1053 28 is_stmt 0 view .LVU390
 1225              	.LBE558:
 1226              	.LBE556:
 1227              	.LBE555:
 1228              	.LBB559:
 1229              	.LBB560:
 1230              	.LBB561:
 371:src/main.cpp  ****             leds_write(true);  System::Delay(110);
 1231              		.loc 6 371 26 is_stmt 1 view .LVU391
 1232 0288 002D     		cmp	r5, #0
 1233 028a 01F09887 		beq	.L508
ARM GAS  /tmp/claude-502/ccJ8DnOJ.s 			page 59


 1234 028e 534E     		ldr	r6, .L554+84
 371:src/main.cpp  ****             leds_write(true);  System::Delay(110);
 1235              		.loc 6 371 17 is_stmt 0 view .LVU392
 1236 0290 0024     		movs	r4, #0
 1237 0292 1696     		str	r6, [sp, #88]
 1238              	.LVL104:
 1239              	.L60:
 372:src/main.cpp  ****             leds_write(false); System::Delay(140);
 1240              		.loc 6 372 13 is_stmt 1 view .LVU393
 1241              	.LBB562:
 1242              	.LBI562:
 352:src/main.cpp  ****         hw.dac.WriteValue(DacHandle::Channel::ONE, on ? (uint16_t)LED1_MAX : 0);
 1243              		.loc 6 352 23 view .LVU394
 1244              	.LBB563:
 353:src/main.cpp  ****         hw.dac.WriteValue(DacHandle::Channel::TWO, on ? (uint16_t)LED2_MAX : 0);
 1245              		.loc 6 353 9 view .LVU395
 353:src/main.cpp  ****         hw.dac.WriteValue(DacHandle::Channel::TWO, on ? (uint16_t)LED2_MAX : 0);
 1246              		.loc 6 353 26 is_stmt 0 view .LVU396
 1247 0294 40F6FF72 		movw	r2, #4095
 1248 0298 0021     		movs	r1, #0
 1249 029a 5148     		ldr	r0, .L554+88
 1250              	.LBE563:
 1251              	.LBE562:
 371:src/main.cpp  ****             leds_write(true);  System::Delay(110);
 1252              		.loc 6 371 9 view .LVU397
 1253 029c 0134     		adds	r4, r4, #1
 1254              	.LVL105:
 1255              	.LBB566:
 1256              	.LBB564:
 353:src/main.cpp  ****         hw.dac.WriteValue(DacHandle::Channel::TWO, on ? (uint16_t)LED2_MAX : 0);
 1257              		.loc 6 353 26 view .LVU398
 1258 029e FFF7FEFF 		bl	_ZN5daisy9DacHandle10WriteValueENS0_7ChannelEt
 1259              	.LVL106:
 354:src/main.cpp  ****         g_led3_duty = on ? LED3_INTENSITY : 0.0f;
 1260              		.loc 6 354 9 is_stmt 1 view .LVU399
 354:src/main.cpp  ****         g_led3_duty = on ? LED3_INTENSITY : 0.0f;
 1261              		.loc 6 354 26 is_stmt 0 view .LVU400
 1262 02a2 40F6FF72 		movw	r2, #4095
 1263 02a6 0121     		movs	r1, #1
 1264 02a8 4D48     		ldr	r0, .L554+88
 1265 02aa FFF7FEFF 		bl	_ZN5daisy9DacHandle10WriteValueENS0_7ChannelEt
 1266              	.LVL107:
 355:src/main.cpp  ****     };
 1267              		.loc 6 355 9 is_stmt 1 view .LVU401
 355:src/main.cpp  ****     };
 1268              		.loc 6 355 21 is_stmt 0 view .LVU402
 1269 02ae 4D4B     		ldr	r3, .L554+92
 1270              	.LBE564:
 1271              	.LBE566:
 372:src/main.cpp  ****             leds_write(false); System::Delay(140);
 1272              		.loc 6 372 45 view .LVU403
 1273 02b0 6E20     		movs	r0, #110
 1274              	.LBB567:
 1275              	.LBB565:
 355:src/main.cpp  ****     };
 1276              		.loc 6 355 21 view .LVU404
 1277 02b2 3360     		str	r3, [r6]	@ float
ARM GAS  /tmp/claude-502/ccJ8DnOJ.s 			page 60


 1278              	.LVL108:
 355:src/main.cpp  ****     };
 1279              		.loc 6 355 21 view .LVU405
 1280              	.LBE565:
 1281              	.LBE567:
 372:src/main.cpp  ****             leds_write(false); System::Delay(140);
 1282              		.loc 6 372 32 is_stmt 1 view .LVU406
 372:src/main.cpp  ****             leds_write(false); System::Delay(140);
 1283              		.loc 6 372 45 is_stmt 0 view .LVU407
 1284 02b4 FFF7FEFF 		bl	_ZN5daisy6System5DelayEm
 1285              	.LVL109:
 373:src/main.cpp  ****         }
 1286              		.loc 6 373 13 is_stmt 1 view .LVU408
 1287              	.LBB568:
 1288              	.LBI568:
 352:src/main.cpp  ****         hw.dac.WriteValue(DacHandle::Channel::ONE, on ? (uint16_t)LED1_MAX : 0);
 1289              		.loc 6 352 23 view .LVU409
 1290              	.LBB569:
 353:src/main.cpp  ****         hw.dac.WriteValue(DacHandle::Channel::TWO, on ? (uint16_t)LED2_MAX : 0);
 1291              		.loc 6 353 9 view .LVU410
 353:src/main.cpp  ****         hw.dac.WriteValue(DacHandle::Channel::TWO, on ? (uint16_t)LED2_MAX : 0);
 1292              		.loc 6 353 26 is_stmt 0 view .LVU411
 1293 02b8 0022     		movs	r2, #0
 1294 02ba 4948     		ldr	r0, .L554+88
 1295 02bc 1146     		mov	r1, r2
 1296 02be FFF7FEFF 		bl	_ZN5daisy9DacHandle10WriteValueENS0_7ChannelEt
 1297              	.LVL110:
 354:src/main.cpp  ****         g_led3_duty = on ? LED3_INTENSITY : 0.0f;
 1298              		.loc 6 354 9 is_stmt 1 view .LVU412
 354:src/main.cpp  ****         g_led3_duty = on ? LED3_INTENSITY : 0.0f;
 1299              		.loc 6 354 26 is_stmt 0 view .LVU413
 1300 02c2 0022     		movs	r2, #0
 1301 02c4 0121     		movs	r1, #1
 1302 02c6 4648     		ldr	r0, .L554+88
 1303 02c8 FFF7FEFF 		bl	_ZN5daisy9DacHandle10WriteValueENS0_7ChannelEt
 1304              	.LVL111:
 355:src/main.cpp  ****     };
 1305              		.loc 6 355 9 is_stmt 1 view .LVU414
 355:src/main.cpp  ****     };
 1306              		.loc 6 355 21 is_stmt 0 view .LVU415
 1307 02cc 0023     		movs	r3, #0
 1308              	.LBE569:
 1309              	.LBE568:
 373:src/main.cpp  ****         }
 1310              		.loc 6 373 45 view .LVU416
 1311 02ce 8C20     		movs	r0, #140
 1312              	.LBB571:
 1313              	.LBB570:
 355:src/main.cpp  ****     };
 1314              		.loc 6 355 21 view .LVU417
 1315 02d0 3360     		str	r3, [r6]	@ float
 1316              	.LVL112:
 355:src/main.cpp  ****     };
 1317              		.loc 6 355 21 view .LVU418
 1318              	.LBE570:
 1319              	.LBE571:
 373:src/main.cpp  ****         }
ARM GAS  /tmp/claude-502/ccJ8DnOJ.s 			page 61


 1320              		.loc 6 373 32 is_stmt 1 view .LVU419
 373:src/main.cpp  ****         }
 1321              		.loc 6 373 45 is_stmt 0 view .LVU420
 1322 02d2 FFF7FEFF 		bl	_ZN5daisy6System5DelayEm
 1323              	.LVL113:
 371:src/main.cpp  ****             leds_write(true);  System::Delay(110);
 1324              		.loc 6 371 9 is_stmt 1 view .LVU421
 371:src/main.cpp  ****             leds_write(true);  System::Delay(110);
 1325              		.loc 6 371 26 view .LVU422
 1326 02d6 A542     		cmp	r5, r4
 1327 02d8 DCD1     		bne	.L60
 1328              	.LVL114:
 1329              	.L59:
 371:src/main.cpp  ****             leds_write(true);  System::Delay(110);
 1330              		.loc 6 371 26 is_stmt 0 view .LVU423
 1331              	.LBE561:
 1332              	.LBE560:
 1333              	.LBE559:
 380:src/main.cpp  **** 
 381:src/main.cpp  ****     // ŌöĆŌöĆ Polyphonic Drums state ŌöĆŌöĆŌöĆŌöĆŌöĆŌöĆŌöĆŌöĆŌöĆŌöĆŌöĆŌöĆŌöĆŌöĆŌöĆŌöĆŌöĆŌöĆŌöĆŌöĆŌö
 382:src/main.cpp  ****     bool     hit_was_alive[MAX_FINGERS] = {};   // debounced-alive, previous frame
 1334              		.loc 6 382 5 is_stmt 1 view .LVU424
 334:src/main.cpp  **** 
 1335              		.loc 6 334 41 is_stmt 0 view .LVU425
 1336 02da 9FED439A 		vldr.32	s18, .L554+96
 327:src/main.cpp  ****     float    vel_peak    = 0.0f;   // running peak pressure during the window
 1337              		.loc 6 327 14 view .LVU426
 1338 02de F7EE008A 		vmov.f32	s17, #1.0e+0
 1339              		.loc 6 382 14 view .LVU427
 1340 02e2 0023     		movs	r3, #0
 1341 02e4 DFF80CB1 		ldr	fp, .L554+108
 334:src/main.cpp  **** 
 1342              		.loc 6 334 26 view .LVU428
 1343 02e8 B0EE49AA 		vmov.f32	s20, s18
 1344              	.LBB572:
 383:src/main.cpp  ****     uint32_t hit_last_alive[MAX_FINGERS]= {};   // last RAW-alive time (for lift debounce)
 384:src/main.cpp  ****     float    prs_sm[MAX_FINGERS]        = {};   // lightly-smoothed pressure
 385:src/main.cpp  ****     uint32_t last_retrig[MAX_FINGERS]   = {};   // last held re-attack time (refractory)
 386:src/main.cpp  ****     // Genuine taps (a real lift + re-tap) retrigger with NO limit. A tracker
 387:src/main.cpp  ****     // dropout shorter than TAP_GAP_MS is treated as a flicker ŌĆö the note keeps
 388:src/main.cpp  ****     // holding, no spurious retrigger. While HELD, a sharp pressure rise
 389:src/main.cpp  ****     // re-attacks but is rate-limited by the voice's retrig_ms.
 390:src/main.cpp  ****     static constexpr uint32_t TAP_GAP_MS  = 40;    // min off-time to count as a real lift
 391:src/main.cpp  ****     static constexpr float    PRS_SMOOTH  = 0.5f;  // light smoothing (preserve the attack edge)
 392:src/main.cpp  ****     static constexpr float    RISE_THRESH = 18.0f; // % pressure rise/frame = a held re-attack
 393:src/main.cpp  **** 
 394:src/main.cpp  ****     // Trigger drum slot `s` from a tap at (pos, pressure): zone ŌåÆ drum, fine
 395:src/main.cpp  ****     // position ŌåÆ interval pitch, pressure ŌåÆ velocity (loudness/brightness/drive).
 396:src/main.cpp  ****     auto trigger_drum = [&](int s, int32_t pos, int32_t pressure){
 397:src/main.cpp  ****         float p    = clampf((float)pos / 1000.0f, 0.0f, 1.0f);
 398:src/main.cpp  ****         int   zone = (int)(p * 4.0f); if(zone > 3) zone = 3;
 399:src/main.cpp  ****         int   vidx = MULTI_ZONES[zone];
 400:src/main.cpp  ****         const Voice& V = g_bank[vidx];
 401:src/main.cpp  ****         float subp = p * 4.0f - (float)zone;
 402:src/main.cpp  ****         int   step = (int)(subp * (float)MULTI_NINTERVALS);
 403:src/main.cpp  ****         if(step >= MULTI_NINTERVALS) step = MULTI_NINTERVALS - 1;
 404:src/main.cpp  ****         float freq = V.freq_low * MULTI_INTERVALS[step];
ARM GAS  /tmp/claude-502/ccJ8DnOJ.s 			page 62


 405:src/main.cpp  ****         float v    = FIX_DRUM ? 1.0f : clampf((float)pressure / 100.0f, 0.0f, 1.0f);
 406:src/main.cpp  ****         float amp  = 0.72f * ((1.0f - V.vel_sens) + V.vel_sens * v);
 407:src/main.cpp  ****         // Cutoff from velocity, same curve as the mono path.
 408:src/main.cpp  ****         float cutoff_oct = V.cutoff_oct_max * smootherstep_f(v);
 409:src/main.cpp  ****         float oa = cutoff_oct * 0.6931f;
 410:src/main.cpp  ****         float om = 1.0f + oa*(1.0f + oa*(0.5f + oa*(0.1667f + oa*0.0417f)));
 411:src/main.cpp  ****         float tf = (V.keytrack >= 0.999f) ? freq
 412:src/main.cpp  ****                    : V.freq_low * powf(freq / V.freq_low, V.keytrack);
 413:src/main.cpp  ****         float cutoff = clampf(tf * V.cutoff_mult * om, 20.0f, 18000.0f);
 414:src/main.cpp  ****         float drive  = 1.0f + smoothstep_f(v) * V.drive_max;
 415:src/main.cpp  ****         drum_trigger(g_hits[s], vidx, freq, amp, cutoff, drive, hw.AudioSampleRate());
 416:src/main.cpp  ****         g_active_voice = vidx;   // header shows the last-hit drum
 417:src/main.cpp  ****     };
 418:src/main.cpp  **** 
 419:src/main.cpp  ****     // Fire one drum (bank index `bankidx`) on hit-pool slot `slot` at full
 420:src/main.cpp  ****     // velocity, at its natural low pitch. Used by the kit preview below.
 421:src/main.cpp  ****     auto preview_drum = [&](int slot, int bankidx){
 422:src/main.cpp  ****         const Voice& V = g_bank[bankidx];
 423:src/main.cpp  ****         float freq   = V.freq_low;
 424:src/main.cpp  ****         // Bright enough that the noisy drums (snare/hat) crack through; the
 425:src/main.cpp  ****         // tonal drums stay dark via their own low cutoff_mult.
 426:src/main.cpp  ****         float cutoff = clampf(freq * V.cutoff_mult * 3.0f, 60.0f, 16000.0f);
 427:src/main.cpp  ****         float drive  = 1.0f + 0.6f * V.drive_max;
 428:src/main.cpp  ****         drum_trigger(g_hits[slot], bankidx, freq, 0.85f, cutoff, drive, hw.AudioSampleRate());
 429:src/main.cpp  ****         // ONE-SHOT: jump to full amp and immediately ungate so the hit decays on
 430:src/main.cpp  ****         // its own. A preview has no finger-lift to clear the gate, so leaving it
 431:src/main.cpp  ****         // gated would sustain the drum's noise forever (the "100% noise when Drums
 432:src/main.cpp  ****         // selected" bug). attack_ms (~1 ms) makes skipping the ramp inaudible.
 433:src/main.cpp  ****         g_hits[slot].amp  = g_hits[slot].amp_tgt;
 434:src/main.cpp  ****         g_hits[slot].gate = false;
 435:src/main.cpp  ****     };
 436:src/main.cpp  **** 
 437:src/main.cpp  ****     while(true)
 438:src/main.cpp  ****     {
 439:src/main.cpp  ****         // Drain any pending USB serial commands (live voice tuning).
 440:src/main.cpp  ****         serial_tune_poll();
 441:src/main.cpp  **** 
 442:src/main.cpp  ****         // ŌöĆŌöĆ FSR ŌåÆ master volume ŌöĆŌöĆŌöĆŌöĆŌöĆŌöĆŌöĆŌöĆŌöĆŌöĆŌöĆŌöĆŌöĆŌöĆŌöĆŌöĆŌöĆŌöĆŌöĆŌö
 443:src/main.cpp  ****         // Full volume through the deadzone (light pressure), then ramps to 0 as
 444:src/main.cpp  ****         // pressure increases down to FSR_MIN.
 445:src/main.cpp  ****         uint16_t fsr_raw = hw.adc.Get(0);
 446:src/main.cpp  ****         float    vol;
 447:src/main.cpp  ****         if(fsr_raw >= fsr_dead)     vol = 1.0f;
 1345              		.loc 6 447 20 view .LVU429
 1346 02ec BDF87A80 		ldrh	r8, [sp, #122]
 1347              	.LBE572:
 334:src/main.cpp  **** 
 1348              		.loc 6 334 11 view .LVU430
 1349 02f0 F0EE499A 		vmov.f32	s19, s18
 1350 02f4 0DF58279 		add	r9, sp, #260
 351:src/main.cpp  ****     auto leds_write = [&](bool on){
 1351              		.loc 6 351 14 view .LVU431
 1352 02f8 1093     		str	r3, [sp, #64]
 382:src/main.cpp  ****     uint32_t hit_last_alive[MAX_FINGERS]= {};   // last RAW-alive time (for lift debounce)
 1353              		.loc 6 382 14 view .LVU432
 1354 02fa 2093     		str	r3, [sp, #128]
 383:src/main.cpp  ****     float    prs_sm[MAX_FINGERS]        = {};   // lightly-smoothed pressure
ARM GAS  /tmp/claude-502/ccJ8DnOJ.s 			page 63


 1355              		.loc 6 383 5 is_stmt 1 view .LVU433
 384:src/main.cpp  ****     uint32_t last_retrig[MAX_FINGERS]   = {};   // last held re-attack time (refractory)
 1356              		.loc 6 384 5 view .LVU434
 385:src/main.cpp  ****     // Genuine taps (a real lift + re-tap) retrigger with NO limit. A tracker
 1357              		.loc 6 385 5 view .LVU435
 341:src/main.cpp  ****     uint32_t last_tap_ms   = 0;      // last glass-tap advance (debounce)
 1358              		.loc 6 341 14 is_stmt 0 view .LVU436
 1359 02fc 1493     		str	r3, [sp, #80]
 340:src/main.cpp  ****     uint32_t touch_last_ms = 0;      // last loop the glass read as touched (lift bridge)
 1360              		.loc 6 340 14 view .LVU437
 1361 02fe 0993     		str	r3, [sp, #36]
 339:src/main.cpp  ****     bool     prev_held     = false;  // bridged glass-touch state last loop (tap edge detect)
 1362              		.loc 6 339 14 view .LVU438
 1363 0300 1793     		str	r3, [sp, #92]
 338:src/main.cpp  ****     uint32_t full_since    = 0;      // when full_state went true (enter timer; 0 = not full)
 1364              		.loc 6 338 14 view .LVU439
 1365 0302 0793     		str	r3, [sp, #28]
 337:src/main.cpp  ****     bool     full_state    = false;  // schmitt-latched "FSR pressed to the floor"
 1366              		.loc 6 337 14 view .LVU440
 1367 0304 0C93     		str	r3, [sp, #48]
 313:src/main.cpp  ****     static constexpr uint32_t F1_REQUANTIZE_MS = 200; // re-quantize only after this long off
 1368              		.loc 6 313 14 view .LVU441
 1369 0306 1893     		str	r3, [sp, #96]
 312:src/main.cpp  ****     uint32_t f1_last_seen_ms = 0;
 1370              		.loc 6 312 14 view .LVU442
 1371 0308 0693     		str	r3, [sp, #24]
 383:src/main.cpp  ****     float    prs_sm[MAX_FINGERS]        = {};   // lightly-smoothed pressure
 1372              		.loc 6 383 14 view .LVU443
 1373 030a CDE92533 		strd	r3, r3, [sp, #148]
 1374 030e CDE92733 		strd	r3, r3, [sp, #156]
 384:src/main.cpp  ****     uint32_t last_retrig[MAX_FINGERS]   = {};   // last held re-attack time (refractory)
 1375              		.loc 6 384 14 view .LVU444
 1376 0312 CDE92933 		strd	r3, r3, [sp, #164]
 1377 0316 CDE92B33 		strd	r3, r3, [sp, #172]
 385:src/main.cpp  ****     // Genuine taps (a real lift + re-tap) retrigger with NO limit. A tracker
 1378              		.loc 6 385 14 view .LVU445
 1379 031a CDE92D33 		strd	r3, r3, [sp, #180]
 1380 031e CDE92F33 		strd	r3, r3, [sp, #188]
 349:src/main.cpp  ****     bool     blink_on      = false;
 1381              		.loc 6 349 14 view .LVU446
 1382 0322 CDE90A33 		strd	r3, r3, [sp, #40]
 342:src/main.cpp  ****     uint32_t drum2_at      = 0;      // scheduled 2nd drum hit (snare) for the kit preview
 1383              		.loc 6 342 14 view .LVU447
 1384 0326 CDE91A33 		strd	r3, r3, [sp, #104]
 1385              	.LVL115:
 1386              	.L58:
 390:src/main.cpp  ****     static constexpr float    PRS_SMOOTH  = 0.5f;  // light smoothing (preserve the attack edge)
 1387              		.loc 6 390 5 is_stmt 1 view .LVU448
 391:src/main.cpp  ****     static constexpr float    RISE_THRESH = 18.0f; // % pressure rise/frame = a held re-attack
 1388              		.loc 6 391 5 view .LVU449
 392:src/main.cpp  **** 
 1389              		.loc 6 392 5 view .LVU450
 396:src/main.cpp  ****         float p    = clampf((float)pos / 1000.0f, 0.0f, 1.0f);
 1390              		.loc 6 396 5 view .LVU451
 421:src/main.cpp  ****         const Voice& V = g_bank[bankidx];
 1391              		.loc 6 421 5 view .LVU452
 437:src/main.cpp  ****     {
ARM GAS  /tmp/claude-502/ccJ8DnOJ.s 			page 64


 1392              		.loc 6 437 5 view .LVU453
 1393              	.LBB1307:
 440:src/main.cpp  **** 
 1394              		.loc 6 440 9 view .LVU454
 440:src/main.cpp  **** 
 1395              		.loc 6 440 25 is_stmt 0 view .LVU455
 1396 032a FFF7FEFF 		bl	_Z16serial_tune_pollv
 1397              	.LVL116:
 445:src/main.cpp  ****         float    vol;
 1398              		.loc 6 445 9 is_stmt 1 view .LVU456
 445:src/main.cpp  ****         float    vol;
 1399              		.loc 6 445 38 is_stmt 0 view .LVU457
 1400 032e 0021     		movs	r1, #0
 1401 0330 1548     		ldr	r0, .L554
 1402 0332 FFF7FEFF 		bl	_ZNK5daisy9AdcHandle3GetEh
 1403              	.LVL117:
 446:src/main.cpp  ****         if(fsr_raw >= fsr_dead)     vol = 1.0f;
 1404              		.loc 6 446 9 is_stmt 1 view .LVU458
 1405              		.loc 6 447 9 view .LVU459
 1406 0336 4045     		cmp	r0, r8
 1407 0338 80F06485 		bcs	.L63
 448:src/main.cpp  ****         else if(fsr_raw <= FSR_MIN) vol = 0.0f;
 1408              		.loc 6 448 14 view .LVU460
 1409 033c B0F5FA5F 		cmp	r0, #8000
 1410 0340 41F25580 		bls	.L64
 449:src/main.cpp  ****         else                        vol = (float)(fsr_raw - FSR_MIN) * fsr_active_inv;
 1411              		.loc 6 449 37 view .LVU461
 1412              		.loc 6 449 59 is_stmt 0 view .LVU462
 1413 0344 A0F5FA50 		sub	r0, r0, #8000
 1414              	.LVL118:
 1415              		.loc 6 449 41 view .LVU463
 1416 0348 9DED1F7A 		vldr.32	s14, [sp, #124]
 450:src/main.cpp  ****         g_master_vol = vol;
 1417              		.loc 6 450 22 view .LVU464
 1418 034c 274B     		ldr	r3, .L554+100
 449:src/main.cpp  ****         else                        vol = (float)(fsr_raw - FSR_MIN) * fsr_active_inv;
 1419              		.loc 6 449 43 view .LVU465
 1420 034e 07EE900A 		vmov	s15, r0	@ int
 1421 0352 B8EEE78A 		vcvt.f32.s32	s16, s15
 451:src/main.cpp  **** 
 452:src/main.cpp  ****         // Schmitt-latch "FSR pressed to the floor" (hysteresis so a steady hard
 453:src/main.cpp  ****         // press doesn't chatter the tap edge). Note the FSR reads INVERSELY: a
 454:src/main.cpp  ****         // hard press drives fsr_raw down to/below FSR_MIN (vol -> 0), while easing
 455:src/main.cpp  ****         // off raises it (vol -> 1). The voice-select gesture is handled below,
 456:src/main.cpp  ****         // after touch detection, so it can require no glass touch.
 457:src/main.cpp  ****         if(fsr_raw <= FSR_MIN) full_state = true;    // pressed to the floor = "full"
 458:src/main.cpp  ****         else if(vol >= 0.4f)   full_state = false;   // clearly eased off
 1422              		.loc 6 458 14 view .LVU466
 1423 0356 DFED267A 		vldr.32	s15, .L554+104
 449:src/main.cpp  ****         g_master_vol = vol;
 1424              		.loc 6 449 41 view .LVU467
 1425 035a 28EE078A 		vmul.f32	s16, s16, s14
 1426              	.LVL119:
 450:src/main.cpp  ****         g_master_vol = vol;
 1427              		.loc 6 450 9 is_stmt 1 view .LVU468
 1428              		.loc 6 458 43 is_stmt 0 view .LVU469
 1429 035e B4EE678A 		vcmp.f32	s16, s15
ARM GAS  /tmp/claude-502/ccJ8DnOJ.s 			page 65


 450:src/main.cpp  ****         g_master_vol = vol;
 1430              		.loc 6 450 22 view .LVU470
 1431 0362 83ED008A 		vstr.32	s16, [r3]
 457:src/main.cpp  ****         else if(vol >= 0.4f)   full_state = false;   // clearly eased off
 1432              		.loc 6 457 9 is_stmt 1 view .LVU471
 1433              		.loc 6 458 14 view .LVU472
 1434              		.loc 6 458 43 is_stmt 0 view .LVU473
 1435 0366 079B     		ldr	r3, [sp, #28]
 1436 0368 F1EE10FA 		vmrs	APSR_nzcv, FPSCR
 1437 036c A8BF     		it	ge
 1438 036e 0023     		movge	r3, #0
 1439 0370 0793     		str	r3, [sp, #28]
 1440              	.LVL120:
 1441              	.L65:
 459:src/main.cpp  ****         // else: hold previous state in the dead band
 460:src/main.cpp  **** 
 461:src/main.cpp  ****         read_electrodes(data);
 1442              		.loc 6 461 9 is_stmt 1 view .LVU474
 1443              		.loc 6 461 24 is_stmt 0 view .LVU475
 1444 0372 4846     		mov	r0, r9
 462:src/main.cpp  **** 
 463:src/main.cpp  ****         int32_t max_delta=1;
 1445              		.loc 6 463 17 view .LVU476
 1446 0374 0124     		movs	r4, #1
 461:src/main.cpp  **** 
 1447              		.loc 6 461 24 view .LVU477
 1448 0376 FFF7FEFF 		bl	_Z15read_electrodesPt
 1449              	.LVL121:
 1450              		.loc 6 463 9 is_stmt 1 view .LVU478
 464:src/main.cpp  ****         for(int i=0;i<N_CH;i++){
 1451              		.loc 6 464 9 view .LVU479
 1452              	.LBB573:
 1453              		.loc 6 464 22 view .LVU480
 1454 037a 55AB     		add	r3, sp, #340
 1455 037c 4846     		mov	r0, r9
 1456              	.LBE573:
 461:src/main.cpp  **** 
 1457              		.loc 6 461 24 is_stmt 0 view .LVU481
 1458 037e 0F9A     		ldr	r2, [sp, #60]
 1459 0380 1946     		mov	r1, r3
 1460 0382 1393     		str	r3, [sp, #76]
 1461 0384 40E0     		b	.L69
 1462              	.L555:
 1463 0386 00BF     		.align	2
 1464              	.L554:
 1465 0388 18000000 		.word	.LANCHOR0+24
 1466 038c CDCCCC3D 		.word	1036831949
 1467 0390 00000000 		.word	.LANCHOR3
 1468 0394 00000000 		.word	g_bank
 1469 0398 0000C842 		.word	1120403456
 1470 039c 00000000 		.word	g_amp_target
 1471 03a0 00000000 		.word	g_target_freq
 1472 03a4 00000000 		.word	g_target_cutoff
 1473 03a8 00000000 		.word	_Z13AudioCallbackPKPKfPPfj
 1474 03ac 00000000 		.word	.LANCHOR0
 1475 03b0 CDCCCC3E 		.word	1053609165
 1476 03b4 0C000000 		.word	.LC3
ARM GAS  /tmp/claude-502/ccJ8DnOJ.s 			page 66


 1477 03b8 20000000 		.word	.LC4
 1478 03bc 00000000 		.word	.LANCHOR4
 1479 03c0 400B0000 		.word	.LANCHOR4+2880
 1480 03c4 34000000 		.word	.LC5
 1481 03c8 50000000 		.word	.LC6
 1482 03cc 74000000 		.word	.LC7
 1483 03d0 C4000000 		.word	.LC9
 1484 03d4 0C010000 		.word	.LC10
 1485 03d8 2C010000 		.word	.LC11
 1486 03dc 00000000 		.word	g_led3_duty
 1487 03e0 20000000 		.word	.LANCHOR0+32
 1488 03e4 CDCC4C3D 		.word	1028443341
 1489 03e8 00000000 		.word	0
 1490 03ec 00000000 		.word	g_master_vol
 1491 03f0 CDCCCC3E 		.word	1053609165
 1492 03f4 00000000 		.word	tracked
 1493              	.LVL122:
 1494              	.L512:
 461:src/main.cpp  **** 
 1495              		.loc 6 461 24 view .LVU482
 1496 03f8 9C42     		cmp	r4, r3
 1497              	.LBB574:
 465:src/main.cpp  ****             delta[i]=(int32_t)baseline[i]-(int32_t)data[i];
 1498              		.loc 6 465 21 view .LVU483
 1499 03fa 0B60     		str	r3, [r1]
 466:src/main.cpp  ****             if(delta[i]<0)delta[i]=0;
 467:src/main.cpp  ****             if(delta[i]>max_delta)max_delta=delta[i];
 1500              		.loc 6 467 13 is_stmt 1 view .LVU484
 464:src/main.cpp  ****             delta[i]=(int32_t)baseline[i]-(int32_t)data[i];
 1501              		.loc 6 464 22 is_stmt 0 view .LVU485
 1502 03fc 01F10401 		add	r1, r1, #4
 1503 0400 B8BF     		it	lt
 1504 0402 1C46     		movlt	r4, r3
 1505              	.LVL123:
 464:src/main.cpp  ****             delta[i]=(int32_t)baseline[i]-(int32_t)data[i];
 1506              		.loc 6 464 9 is_stmt 1 view .LVU486
 464:src/main.cpp  ****             delta[i]=(int32_t)baseline[i]-(int32_t)data[i];
 1507              		.loc 6 464 22 view .LVU487
 1508 0404 9145     		cmp	r9, r2
 1509 0406 0ED0     		beq	.L511
 1510              	.LVL124:
 1511              	.L69:
 465:src/main.cpp  ****             delta[i]=(int32_t)baseline[i]-(int32_t)data[i];
 1512              		.loc 6 465 13 view .LVU488
 466:src/main.cpp  ****             if(delta[i]<0)delta[i]=0;
 1513              		.loc 6 466 13 view .LVU489
 466:src/main.cpp  ****             if(delta[i]<0)delta[i]=0;
 1514              		.loc 6 466 27 view .LVU490
 465:src/main.cpp  ****             delta[i]=(int32_t)baseline[i]-(int32_t)data[i];
 1515              		.loc 6 465 41 is_stmt 0 view .LVU491
 1516 0408 32F8023B 		ldrh	r3, [r2], #2
 466:src/main.cpp  ****             if(delta[i]<0)delta[i]=0;
 1517              		.loc 6 466 35 view .LVU492
 1518 040c 0026     		movs	r6, #0
 465:src/main.cpp  ****             delta[i]=(int32_t)baseline[i]-(int32_t)data[i];
 1519              		.loc 6 465 58 view .LVU493
 1520 040e 30F8025B 		ldrh	r5, [r0], #2
ARM GAS  /tmp/claude-502/ccJ8DnOJ.s 			page 67


 466:src/main.cpp  ****             if(delta[i]<0)delta[i]=0;
 1521              		.loc 6 466 13 view .LVU494
 1522 0412 5B1B     		subs	r3, r3, r5
 1523 0414 F0D5     		bpl	.L512
 1524 0416 3346     		mov	r3, r6
 466:src/main.cpp  ****             if(delta[i]<0)delta[i]=0;
 1525              		.loc 6 466 35 discriminator 1 view .LVU495
 1526 0418 0E60     		str	r6, [r1]
 1527              		.loc 6 467 13 is_stmt 1 discriminator 1 view .LVU496
 464:src/main.cpp  ****             delta[i]=(int32_t)baseline[i]-(int32_t)data[i];
 1528              		.loc 6 464 22 is_stmt 0 discriminator 1 view .LVU497
 1529 041a 0431     		adds	r1, r1, #4
 1530 041c 9C42     		cmp	r4, r3
 1531 041e B8BF     		it	lt
 1532 0420 1C46     		movlt	r4, r3
 1533              	.LVL125:
 464:src/main.cpp  ****             delta[i]=(int32_t)baseline[i]-(int32_t)data[i];
 1534              		.loc 6 464 9 is_stmt 1 discriminator 1 view .LVU498
 464:src/main.cpp  ****             delta[i]=(int32_t)baseline[i]-(int32_t)data[i];
 1535              		.loc 6 464 22 discriminator 1 view .LVU499
 1536 0422 9145     		cmp	r9, r2
 1537 0424 F0D1     		bne	.L69
 1538              	.L511:
 464:src/main.cpp  ****             delta[i]=(int32_t)baseline[i]-(int32_t)data[i];
 1539              		.loc 6 464 22 is_stmt 0 discriminator 1 view .LVU500
 1540              	.LBE574:
 468:src/main.cpp  ****         }
 469:src/main.cpp  **** 
 470:src/main.cpp  ****         int n_raw=detect_raw(delta,raw,MAX_FINGERS);
 1541              		.loc 6 470 9 is_stmt 1 view .LVU501
 1542              		.loc 6 470 29 is_stmt 0 view .LVU502
 1543 0426 0422     		movs	r2, #4
 1544 0428 6EA9     		add	r1, sp, #440
 1545 042a 55A8     		add	r0, sp, #340
 1546 042c FFF7FEFF 		bl	_Z10detect_rawPlP6Fingeri
 1547              	.LVL126:
 1548 0430 0546     		mov	r5, r0
 1549              	.LVL127:
 471:src/main.cpp  ****         bool touching=(n_raw>0);
 1550              		.loc 6 471 9 is_stmt 1 view .LVU503
 472:src/main.cpp  **** 
 473:src/main.cpp  ****         // ŌöĆŌöĆ FSR voice-select gesture (hold FSR + tap/play the glass) ŌöĆŌöĆŌöĆŌöĆŌöĆŌöĆŌöĆŌöĆ
 474:src/main.cpp  ****         // ENTER: press the FSR fully (to the mute floor) with NO glass touch for
 475:src/main.cpp  ****         //   ENTER_MS. LEDs blink the current voice's position.
 476:src/main.cpp  ****         // PLAY/ADVANCE: with the FSR held, each GLASS TAP advances to the next
 477:src/main.cpp  ****         //   voice (wrapping, single blink); the voice then plays through the REAL
 478:src/main.cpp  ****         //   note path driven by your actual glass pressure/position, so every
 479:src/main.cpp  ****         //   filter/effect matches ŌĆö press for the Moog cutoff sweep, slide for
 480:src/main.cpp  ****         //   pitch, lift to release. The Drums kit plays a canned kick + snare
 481:src/main.cpp  ****         //   "one-two" instead.
 482:src/main.cpp  ****         // KEEP: release the FSR ŌåÆ persist + exit; the saved position blinks
 483:src/main.cpp  ****         //   NON-blocking, so you can start playing immediately.
 484:src/main.cpp  ****         {
 1551              		.loc 6 484 9 view .LVU504
 1552              	.LBB575:
 485:src/main.cpp  ****             uint32_t now = System::GetNow();
 1553              		.loc 6 485 13 view .LVU505
ARM GAS  /tmp/claude-502/ccJ8DnOJ.s 			page 68


 1554              		.loc 6 485 42 is_stmt 0 view .LVU506
 1555 0432 FFF7FEFF 		bl	_ZN5daisy6System6GetNowEv
 1556              	.LVL128:
 1557              		.loc 6 485 42 view .LVU507
 1558 0436 0646     		mov	r6, r0
 1559              	.LVL129:
 486:src/main.cpp  ****             // Bridge brief touch dropouts so a flicker mid-slide isn't read as a
 487:src/main.cpp  ****             // lift + new tap (advancing unintentionally).
 488:src/main.cpp  ****             if(touching) touch_last_ms = now;
 1560              		.loc 6 488 13 is_stmt 1 view .LVU508
 1561 0438 002D     		cmp	r5, #0
 1562 043a 40F32F85 		ble	.L513
 1563              		.loc 6 488 26 view .LVU509
 1564              	.LVL130:
 489:src/main.cpp  ****             bool held = touching || (int32_t)(now - touch_last_ms) < 60;
 1565              		.loc 6 489 13 view .LVU510
 490:src/main.cpp  **** 
 491:src/main.cpp  ****             if(sel_mode == 0){
 1566              		.loc 6 491 13 view .LVU511
 1567              	.LBB576:
 1568 043e 0C9B     		ldr	r3, [sp, #48]
 1569              	.LBE576:
 488:src/main.cpp  ****             bool held = touching || (int32_t)(now - touch_last_ms) < 60;
 1570              		.loc 6 488 40 is_stmt 0 view .LVU512
 1571 0440 1490     		str	r0, [sp, #80]
 1572              	.LBB768:
 1573              		.loc 6 491 13 view .LVU513
 1574 0442 002B     		cmp	r3, #0
 1575 0444 00F0DE87 		beq	.L367
 1576              	.LBE768:
 489:src/main.cpp  ****             bool held = touching || (int32_t)(now - touch_last_ms) < 60;
 1577              		.loc 6 489 34 view .LVU514
 1578 0448 0127     		movs	r7, #1
 1579              	.LVL131:
 1580              	.L284:
 1581              	.LBB769:
 1582              	.LBB577:
 492:src/main.cpp  ****                 if(full_state && !touching){
 493:src/main.cpp  ****                     if(full_since == 0) full_since = now;
 494:src/main.cpp  ****                     idle_since = now; last_touch_ms = now;   // freeze idle/rebaseline
 495:src/main.cpp  ****                     if(now - full_since >= VOICE_SELECT_ENTER_MS){
 496:src/main.cpp  ****                         sel_mode     = 1;
 497:src/main.cpp  ****                         g_amp_target = 0.0f;                 // silence any held note
 498:src/main.cpp  ****                         if(!g_serial_quiet)
 499:src/main.cpp  ****                           usb_log("[voice select] %s (%d/%d) - tap/slide glass; release FSR to keep
 500:src/main.cpp  ****                                      g_bank[g_voice_idx].name, cycle_pos(g_voice_idx), cycle_total(
 501:src/main.cpp  ****                         blink_start(cycle_pos(g_voice_idx), now);  // blink the current voice numbe
 502:src/main.cpp  ****                     }
 503:src/main.cpp  ****                 } else {
 504:src/main.cpp  ****                     full_since = 0;                          // touched or not full ŌåÆ disarm
 505:src/main.cpp  ****                 }
 506:src/main.cpp  ****             } else {
 507:src/main.cpp  ****                 idle_since = now; last_touch_ms = now;       // freeze idle while selecting
 1583              		.loc 6 507 17 is_stmt 1 view .LVU515
 1584              		.loc 6 507 35 view .LVU516
 508:src/main.cpp  ****                 g_master_vol = 0.85f;                        // monitor level (the FSR mutes)
 1585              		.loc 6 508 17 view .LVU517
ARM GAS  /tmp/claude-502/ccJ8DnOJ.s 			page 69


 1586              		.loc 6 508 30 is_stmt 0 view .LVU518
 1587 044a C34B     		ldr	r3, .L556
 1588 044c C34A     		ldr	r2, .L556+4
 1589 044e 1360     		str	r3, [r2]	@ float
 509:src/main.cpp  ****                 if(!full_state){
 1590              		.loc 6 509 17 is_stmt 1 view .LVU519
 1591              	.LBB578:
 1592 0450 079B     		ldr	r3, [sp, #28]
 1593 0452 002B     		cmp	r3, #0
 1594 0454 01F02283 		beq	.L514
 1595              	.LBB579:
 510:src/main.cpp  ****                     // FSR released ŌåÆ keep the shown voice (persist) and exit. The
 511:src/main.cpp  ****                     // saved-position blink is NON-blocking (driven from the LED
 512:src/main.cpp  ****                     // section) so playing isn't stalled.
 513:src/main.cpp  ****                     persist_save_bank();                     // persists g_voice_idx (+ bank), QSPI
 514:src/main.cpp  ****                     if(!g_serial_quiet){
 515:src/main.cpp  ****                         usb_log("[voice kept %d/%d] %s",
 516:src/main.cpp  ****                                      cycle_pos(g_voice_idx), cycle_total(), g_bank[g_voice_idx].nam
 517:src/main.cpp  ****                         // Machine event so a connected host tuner follows the change.
 518:src/main.cpp  ****                         usb_log("voice %d", g_voice_idx);
 519:src/main.cpp  ****                     }
 520:src/main.cpp  ****                     drum2_at = 0;
 521:src/main.cpp  ****                     sel_mode = 0; full_since = 0;
 522:src/main.cpp  ****                     blink_start(cycle_pos(g_voice_idx), now); // confirm saved voice (non-blocking)
 523:src/main.cpp  ****                 } else {
 524:src/main.cpp  ****                     bool tap = held && !prev_held &&
 1596              		.loc 6 524 21 view .LVU520
 1597              		.loc 6 524 40 is_stmt 0 view .LVU521
 1598 0458 099B     		ldr	r3, [sp, #36]
 1599 045a 83F00103 		eor	r3, r3, #1
 1600              		.loc 6 524 51 view .LVU522
 1601 045e 3B40     		ands	r3, r7, r3
 1602 0460 0993     		str	r3, [sp, #36]
 1603              	.LVL132:
 1604              		.loc 6 524 51 view .LVU523
 1605 0462 01F00C80 		beq	.L93
 525:src/main.cpp  ****                                (int32_t)(now - last_tap_ms) >= (int32_t)VOICE_SELECT_TAP_GAP_MS;
 1606              		.loc 6 525 46 discriminator 1 view .LVU524
 1607 0466 1A9B     		ldr	r3, [sp, #104]
 1608 0468 F31A     		subs	r3, r6, r3
 524:src/main.cpp  ****                                (int32_t)(now - last_tap_ms) >= (int32_t)VOICE_SELECT_TAP_GAP_MS;
 1609              		.loc 6 524 51 discriminator 1 view .LVU525
 1610 046a 952B     		cmp	r3, #149
 526:src/main.cpp  ****                     if(tap){
 527:src/main.cpp  ****                         // glass tap (debounced rising edge) ŌåÆ advance one voice (wraps)
 528:src/main.cpp  ****                         last_tap_ms = now;
 529:src/main.cpp  ****                         g_voice_idx = cycle_next(g_voice_idx);
 1611              		.loc 6 529 49 discriminator 1 view .LVU526
 1612 046c BC4B     		ldr	r3, .L556+8
 524:src/main.cpp  ****                                (int32_t)(now - last_tap_ms) >= (int32_t)VOICE_SELECT_TAP_GAP_MS;
 1613              		.loc 6 524 51 discriminator 1 view .LVU527
 1614 046e 01F31B84 		bgt	.L515
 530:src/main.cpp  ****                         if(!g_serial_quiet)
 531:src/main.cpp  ****                           usb_log("[voice %d/%d] %s",
 532:src/main.cpp  ****                                      cycle_pos(g_voice_idx), cycle_total(), g_bank[g_voice_idx].nam
 533:src/main.cpp  ****                         blink_start(1, now);                 // single blink per advance
 534:src/main.cpp  ****                     }
ARM GAS  /tmp/claude-502/ccJ8DnOJ.s 			page 70


 535:src/main.cpp  ****                     if(!VOICE_PREVIEW_ENABLED){
 1615              		.loc 6 535 21 is_stmt 1 view .LVU528
 536:src/main.cpp  ****                         g_finger_on = false; g_amp_target = 0.0f;   // silent cycling
 537:src/main.cpp  ****                         prev_held = held;
 538:src/main.cpp  ****                         blink_tick(now); System::Delay(CONTROL_DELAY_MS); continue;
 539:src/main.cpp  ****                     }
 540:src/main.cpp  ****                     if(g_voice_idx == MULTI_IDX){
 1616              		.loc 6 540 21 view .LVU529
 1617              		.loc 6 540 36 is_stmt 0 view .LVU530
 1618 0472 1B68     		ldr	r3, [r3]
 1619              		.loc 6 540 21 view .LVU531
 1620 0474 0E2B     		cmp	r3, #14
 1621 0476 01F07E83 		beq	.L104
 1622              	.LVL133:
 1623              	.L92:
 1624              		.loc 6 540 21 view .LVU532
 1625              	.LBE579:
 1626              	.LBE578:
 1627              	.LBE577:
 1628              	.LBE769:
 541:src/main.cpp  ****                         // Drums kit: a tap fires a kick + snare "one-two" (one-shots).
 542:src/main.cpp  ****                         if(tap){
 543:src/main.cpp  ****                             g_finger_on = false; g_amp_target = 0.0f;   // hush mono
 544:src/main.cpp  ****                             preview_drum(0, MULTI_ZONES[0]);
 545:src/main.cpp  ****                             drum2_at = now + 150;
 546:src/main.cpp  ****                         }
 547:src/main.cpp  ****                         if(drum2_at && (int32_t)(now - drum2_at) >= 0){
 548:src/main.cpp  ****                             preview_drum(1, MULTI_ZONES[1]);            // delayed snare
 549:src/main.cpp  ****                             drum2_at = 0;
 550:src/main.cpp  ****                         }
 551:src/main.cpp  ****                         prev_held = held;
 552:src/main.cpp  ****                         blink_tick(now); System::Delay(CONTROL_DELAY_MS); continue;
 553:src/main.cpp  ****                     }
 554:src/main.cpp  ****                     // Mono voice: fall through to the REAL note path below (pressure
 555:src/main.cpp  ****                     // pinned to 100%) ŌĆö the preview is the actual voice, all effects.
 556:src/main.cpp  ****                 }
 557:src/main.cpp  ****             }
 558:src/main.cpp  ****             prev_held = held;   // for next loop's tap edge detection
 1629              		.loc 6 558 13 is_stmt 1 view .LVU533
 1630              		.loc 6 558 13 is_stmt 0 view .LVU534
 1631              	.LBE575:
 559:src/main.cpp  ****         }
 560:src/main.cpp  **** 
 561:src/main.cpp  ****         // ŌöĆŌöĆ Auto-rebaseline ŌöĆŌöĆŌöĆŌöĆŌöĆŌöĆŌöĆŌöĆŌöĆŌöĆŌöĆŌöĆŌöĆŌöĆŌöĆŌöĆŌöĆŌöĆŌöĆŌöĆŌöĆŌö
 562:src/main.cpp  ****         if(touching){
 1632              		.loc 6 562 9 is_stmt 1 view .LVU535
 1633 047a 002D     		cmp	r5, #0
 1634 047c 41F30880 		ble	.L516
 1635              	.LVL134:
 1636              	.L285:
 563:src/main.cpp  ****             idle_since=System::GetNow();
 1637              		.loc 6 563 13 view .LVU536
 1638              		.loc 6 563 38 is_stmt 0 view .LVU537
 1639 0480 FFF7FEFF 		bl	_ZN5daisy6System6GetNowEv
 1640              	.LVL135:
 1641 0484 1190     		str	r0, [sp, #68]
 1642              	.LVL136:
ARM GAS  /tmp/claude-502/ccJ8DnOJ.s 			page 71


 564:src/main.cpp  ****         } else {
 565:src/main.cpp  ****             if(System::GetNow()-idle_since>=REBASELINE_IDLE_MS){
 566:src/main.cpp  ****                 tracked[0].alive=tracked[1].alive=false;
 567:src/main.cpp  ****                 capture_baseline(baseline);
 568:src/main.cpp  ****                 if(!serial_display_muted()) usb_log("[rebaseline]");
 569:src/main.cpp  ****                 idle_since=System::GetNow();
 570:src/main.cpp  ****             }
 571:src/main.cpp  ****         }
 572:src/main.cpp  **** 
 573:src/main.cpp  ****         // ŌöĆŌöĆ 5 s idle ŌåÆ chase + FSR recalibration, loops until touch ŌöĆŌöĆŌöĆŌöĆŌöĆŌöĆŌöĆŌö
 574:src/main.cpp  ****         // Suppressed while a host tuner is connected (g_live_tune): the chase is
 575:src/main.cpp  ****         // a blocking idle animation, and we must keep servicing serial instead.
 576:src/main.cpp  ****         if(touching){
 1643              		.loc 6 576 9 is_stmt 1 view .LVU538
 577:src/main.cpp  ****             last_touch_ms = System::GetNow();
 1644              		.loc 6 577 13 view .LVU539
 1645              		.loc 6 577 43 is_stmt 0 view .LVU540
 1646 0486 FFF7FEFF 		bl	_ZN5daisy6System6GetNowEv
 1647              	.LVL137:
 1648              		.loc 6 577 43 view .LVU541
 1649 048a 0D90     		str	r0, [sp, #52]
 1650              	.LVL138:
 1651              	.L113:
 578:src/main.cpp  ****         } else if(!g_live_tune && System::GetNow() - last_touch_ms >= 5000){
 579:src/main.cpp  ****             idle_chase_and_calibrate();
 580:src/main.cpp  ****             last_touch_ms = System::GetNow();
 581:src/main.cpp  ****             idle_since    = System::GetNow();
 582:src/main.cpp  ****             if(!serial_display_muted()) usb_log("[fsr recal] fsr_max=%d", (int)fsr_max);
 583:src/main.cpp  ****         }
 584:src/main.cpp  **** 
 585:src/main.cpp  ****         update_tracked(raw,n_raw);
 1652              		.loc 6 585 9 is_stmt 1 view .LVU542
 1653              		.loc 6 585 23 is_stmt 0 view .LVU543
 1654 048c 2946     		mov	r1, r5
 1655 048e 6EA8     		add	r0, sp, #440
 1656 0490 FFF7FEFF 		bl	_Z14update_trackedP6Fingeri
 1657              	.LVL139:
 586:src/main.cpp  **** 
 587:src/main.cpp  ****         // ŌöĆŌöĆ Finger 1 ŌåÆ Pitch + Filter cutoff + Vibrato ŌöĆŌöĆŌöĆŌöĆŌöĆŌöĆŌöĆŌöĆŌöĆŌöĆŌöĆŌöĆ
 588:src/main.cpp  ****         bool f1_on = tracked[0].alive;
 1658              		.loc 6 588 9 is_stmt 1 view .LVU544
 1659              		.loc 6 588 14 is_stmt 0 view .LVU545
 1660 0494 9BF80030 		ldrb	r3, [fp]	@ zero_extendqisi2
 1661 0498 0593     		str	r3, [sp, #20]
 1662              	.LVL140:
 589:src/main.cpp  ****         if(f1_on) f1_last_seen_ms = System::GetNow();
 1663              		.loc 6 589 9 is_stmt 1 view .LVU546
 1664 049a 002B     		cmp	r3, #0
 1665 049c 40F0EE86 		bne	.L517
 1666              	.LVL141:
 1667              	.L143:
 590:src/main.cpp  ****         bool f1_fresh = !f1_was_on && (System::GetNow() - f1_last_seen_ms >= F1_REQUANTIZE_MS);
 1668              		.loc 6 590 9 view .LVU547
 1669              		.loc 6 590 36 is_stmt 0 view .LVU548
 1670 04a0 069B     		ldr	r3, [sp, #24]
 1671 04a2 002B     		cmp	r3, #0
 1672 04a4 00F0DF86 		beq	.L518
ARM GAS  /tmp/claude-502/ccJ8DnOJ.s 			page 72


 1673 04a8 0023     		movs	r3, #0
 1674 04aa 0E93     		str	r3, [sp, #56]
 1675              	.L144:
 1676              	.LVL142:
 591:src/main.cpp  **** 
 592:src/main.cpp  ****         // ŌöĆŌöĆ MultiVoice routing ŌöĆŌöĆŌöĆŌöĆŌöĆŌöĆŌöĆŌöĆŌöĆŌöĆŌöĆŌöĆŌöĆŌöĆŌöĆŌöĆŌöĆŌöĆŌöĆŌöĆŌö
 593:src/main.cpp  ****         // Drums mode is polyphonic: each of up to 4 fingers drives its own drum
 594:src/main.cpp  ****         // slot ŌĆö a fresh touch triggers the zone's drum (pitch from the fine
 595:src/main.cpp  ****         // position), lifting it releases that slot. The mono engine is held
 596:src/main.cpp  ****         // silent. Other voices stay monophonic and use the finger-1 path below.
 597:src/main.cpp  ****         bool multi = (g_voice_idx == MULTI_IDX);
 1677              		.loc 6 597 9 is_stmt 1 discriminator 6 view .LVU549
 1678              		.loc 6 597 35 is_stmt 0 discriminator 6 view .LVU550
 1679 04ac AC4B     		ldr	r3, .L556+8
 1680 04ae D3F80080 		ldr	r8, [r3]
 1681              	.LVL143:
 598:src/main.cpp  ****         if(!multi) g_active_voice = g_voice_idx;
 1682              		.loc 6 598 9 is_stmt 1 discriminator 6 view .LVU551
 1683 04b2 B8F10E0F 		cmp	r8, #14
 1684 04b6 02D0     		beq	.L145
 1685              		.loc 6 598 20 discriminator 1 view .LVU552
 1686              		.loc 6 598 35 is_stmt 0 discriminator 1 view .LVU553
 1687 04b8 1B68     		ldr	r3, [r3]
 1688 04ba AA4A     		ldr	r2, .L556+12
 1689 04bc 1360     		str	r3, [r2]
 1690              	.L145:
 599:src/main.cpp  **** 
 600:src/main.cpp  ****         // ŌöĆŌöĆ Re-attack detector (all fingers, with lift debounce) ŌöĆŌöĆŌöĆŌöĆŌöĆŌöĆŌöĆŌöĆŌöĆŌ
 601:src/main.cpp  ****         // deb_alive[] = alive after debouncing brief dropouts. A debounced
 602:src/main.cpp  ****         // rising edge is a genuine tap (fires with NO limit); a sharp pressure
 603:src/main.cpp  ****         // rise while held re-attacks (rate-limited by retrig_ms).
 604:src/main.cpp  ****         bool     reatk[MAX_FINGERS] = {};
 1691              		.loc 6 604 9 is_stmt 1 view .LVU554
 1692              		.loc 6 604 18 is_stmt 0 view .LVU555
 1693 04be 0023     		movs	r3, #0
 1694 04c0 2DAF     		add	r7, sp, #180
 1695 04c2 29AE     		add	r6, sp, #164
 1696 04c4 20AD     		add	r5, sp, #128
 1697 04c6 2193     		str	r3, [sp, #132]
 605:src/main.cpp  ****         bool     deb_alive[MAX_FINGERS] = {};
 1698              		.loc 6 605 9 is_stmt 1 view .LVU556
 1699              		.loc 6 605 18 is_stmt 0 view .LVU557
 1700 04c8 4793     		str	r3, [sp, #284]
 606:src/main.cpp  ****         uint32_t now_ms = System::GetNow();
 1701              		.loc 6 606 9 is_stmt 1 view .LVU558
 1702 04ca A74B     		ldr	r3, .L556+16
 1703 04cc 1593     		str	r3, [sp, #84]
 1704              		.loc 6 606 41 is_stmt 0 view .LVU559
 1705 04ce FFF7FEFF 		bl	_ZN5daisy6System6GetNowEv
 1706              	.LVL144:
 1707 04d2 21AA     		add	r2, sp, #132
 1708 04d4 A44B     		ldr	r3, .L556+16
 1709 04d6 8646     		mov	lr, r0
 1710              	.LVL145:
 607:src/main.cpp  ****         for(int i = 0; i < MAX_FINGERS; i++){
 1711              		.loc 6 607 9 is_stmt 1 view .LVU560
 1712              	.LBB784:
ARM GAS  /tmp/claude-502/ccJ8DnOJ.s 			page 73


 1713              		.loc 6 607 26 view .LVU561
 1714 04d8 47A9     		add	r1, sp, #284
 1715 04da 1292     		str	r2, [sp, #72]
 1716              	.LBE784:
 606:src/main.cpp  ****         uint32_t now_ms = System::GetNow();
 1717              		.loc 6 606 41 is_stmt 0 view .LVU562
 1718 04dc 0DF1840C 		add	ip, sp, #132
 1719 04e0 25AA     		add	r2, sp, #148
 1720 04e2 9B46     		mov	fp, r3
 1721 04e4 0894     		str	r4, [sp, #32]
 1722 04e6 0497     		str	r7, [sp, #16]
 1723              	.LVL146:
 1724              	.L157:
 1725              	.LBB827:
 1726              	.LBB785:
 608:src/main.cpp  ****             bool raw = tracked[i].alive;
 1727              		.loc 6 608 13 is_stmt 1 view .LVU563
 1728              		.loc 6 608 18 is_stmt 0 view .LVU564
 1729 04e8 1878     		ldrb	r0, [r3]	@ zero_extendqisi2
 1730              	.LVL147:
 609:src/main.cpp  ****             if(raw) hit_last_alive[i] = now_ms;
 1731              		.loc 6 609 13 is_stmt 1 view .LVU565
 1732 04ea 0028     		cmp	r0, #0
 1733 04ec 00F01B84 		beq	.L146
 1734              		.loc 6 609 21 discriminator 1 view .LVU566
 610:src/main.cpp  ****             // Bridge sub-TAP_GAP_MS dropouts so a flicker isn't seen as a lift.
 611:src/main.cpp  ****             bool deb = raw || (int32_t)(now_ms - hit_last_alive[i]) < (int32_t)TAP_GAP_MS;
 612:src/main.cpp  ****             deb_alive[i] = deb;
 1735              		.loc 6 612 26 is_stmt 0 discriminator 1 view .LVU567
 1736 04f0 0124     		movs	r4, #1
 1737              	.LBB786:
 613:src/main.cpp  ****             if(!deb) continue;                              // truly lifted
 614:src/main.cpp  **** 
 615:src/main.cpp  ****             int vidx;
 616:src/main.cpp  ****             if(multi){
 1738              		.loc 6 616 13 discriminator 1 view .LVU568
 1739 04f2 B8F10E0F 		cmp	r8, #14
 1740              	.LBE786:
 609:src/main.cpp  ****             // Bridge sub-TAP_GAP_MS dropouts so a flicker isn't seen as a lift.
 1741              		.loc 6 609 39 discriminator 1 view .LVU569
 1742 04f6 C2F800E0 		str	lr, [r2]
 611:src/main.cpp  ****             deb_alive[i] = deb;
 1743              		.loc 6 611 13 is_stmt 1 discriminator 1 view .LVU570
 1744              	.LVL148:
 612:src/main.cpp  ****             if(!deb) continue;                              // truly lifted
 1745              		.loc 6 612 13 discriminator 1 view .LVU571
 612:src/main.cpp  ****             if(!deb) continue;                              // truly lifted
 1746              		.loc 6 612 26 is_stmt 0 discriminator 1 view .LVU572
 1747 04fa 0C70     		strb	r4, [r1]
 613:src/main.cpp  **** 
 1748              		.loc 6 613 13 is_stmt 1 discriminator 1 view .LVU573
 615:src/main.cpp  ****             if(multi){
 1749              		.loc 6 615 13 discriminator 1 view .LVU574
 1750              		.loc 6 616 13 discriminator 1 view .LVU575
 1751              	.LBB799:
 1752 04fc 00F01E84 		beq	.L519
 1753              	.L149:
ARM GAS  /tmp/claude-502/ccJ8DnOJ.s 			page 74


 617:src/main.cpp  ****                 int z = (int)(clampf((float)tracked[i].pos/1000.0f,0.0f,1.0f) * 4.0f);
 618:src/main.cpp  ****                 if(z > 3) z = 3; vidx = MULTI_ZONES[z];
 619:src/main.cpp  ****             } else vidx = g_active_voice;
 1754              		.loc 6 619 20 view .LVU576
 1755              		.loc 6 619 25 is_stmt 0 view .LVU577
 1756 0500 984C     		ldr	r4, .L556+12
 1757 0502 2468     		ldr	r4, [r4]
 1758              	.LVL149:
 1759              	.L151:
 1760              		.loc 6 619 25 view .LVU578
 1761              	.LBE799:
 620:src/main.cpp  ****             float rms = g_bank[vidx].retrig_ms;
 1762              		.loc 6 620 13 is_stmt 1 view .LVU579
 621:src/main.cpp  ****             float prs = (float)tracked[i].pressure;
 1763              		.loc 6 621 13 view .LVU580
 1764              		.loc 6 621 19 is_stmt 0 view .LVU581
 1765 0504 D3ED027A 		vldr.32	s15, [r3, #8]	@ int
 1766              	.LBB800:
 622:src/main.cpp  **** 
 623:src/main.cpp  ****             if(!hit_was_alive[i]){
 1767              		.loc 6 623 13 view .LVU582
 1768 0508 95F800A0 		ldrb	r10, [r5]	@ zero_extendqisi2
 1769              	.LBE800:
 621:src/main.cpp  ****             float prs = (float)tracked[i].pressure;
 1770              		.loc 6 621 19 view .LVU583
 1771 050c F8EEE77A 		vcvt.f32.s32	s15, s15
 1772              	.LVL150:
 1773              		.loc 6 623 13 is_stmt 1 view .LVU584
 1774              	.LBB809:
 1775 0510 BAF1000F 		cmp	r10, #0
 1776 0514 40F03D84 		bne	.L152
 1777              	.LVL151:
 1778              	.L530:
 624:src/main.cpp  ****                 // Genuine new tap (after a real lift) ŌĆö fire immediately, no cap.
 625:src/main.cpp  ****                 prs_sm[i] = prs; reatk[i] = true; last_retrig[i] = now_ms;
 1779              		.loc 6 625 17 view .LVU585
 1780              		.loc 6 625 66 is_stmt 0 view .LVU586
 1781 0518 0498     		ldr	r0, [sp, #16]
 1782              	.LVL152:
 1783              		.loc 6 625 27 view .LVU587
 1784 051a C6ED007A 		vstr.32	s15, [r6]
 1785              		.loc 6 625 34 is_stmt 1 view .LVU588
 1786              		.loc 6 625 66 is_stmt 0 view .LVU589
 1787 051e C0F800E0 		str	lr, [r0]
 1788              		.loc 6 625 43 view .LVU590
 1789 0522 0120     		movs	r0, #1
 1790 0524 8CF80000 		strb	r0, [ip]
 1791              		.loc 6 625 51 is_stmt 1 view .LVU591
 1792              	.LVL153:
 1793              	.L148:
 1794              		.loc 6 625 51 is_stmt 0 view .LVU592
 1795              	.LBE809:
 1796              	.LBE785:
 607:src/main.cpp  ****             bool raw = tracked[i].alive;
 1797              		.loc 6 607 9 is_stmt 1 discriminator 2 view .LVU593
 607:src/main.cpp  ****             bool raw = tracked[i].alive;
 1798              		.loc 6 607 26 discriminator 2 view .LVU594
ARM GAS  /tmp/claude-502/ccJ8DnOJ.s 			page 75


 1799 0528 0498     		ldr	r0, [sp, #16]
 1800 052a 1433     		adds	r3, r3, #20
 1801 052c 0131     		adds	r1, r1, #1
 1802              	.LVL154:
 607:src/main.cpp  ****             bool raw = tracked[i].alive;
 1803              		.loc 6 607 26 is_stmt 0 discriminator 2 view .LVU595
 1804 052e 0436     		adds	r6, r6, #4
 1805 0530 0430     		adds	r0, r0, #4
 1806 0532 0CF1010C 		add	ip, ip, #1
 1807 0536 0135     		adds	r5, r5, #1
 1808 0538 0432     		adds	r2, r2, #4
 1809 053a 0490     		str	r0, [sp, #16]
 1810 053c 8B48     		ldr	r0, .L556+20
 1811 053e 9842     		cmp	r0, r3
 1812 0540 D2D1     		bne	.L157
 1813              	.LBE827:
 1814              	.LBB828:
 626:src/main.cpp  ****             } else if(raw){
 627:src/main.cpp  ****                 // Held: re-attack on a sharp pressure rise, capped by retrig_ms.
 628:src/main.cpp  ****                 float prev = prs_sm[i];
 629:src/main.cpp  ****                 prs_sm[i] = prev*PRS_SMOOTH + prs*(1.0f - PRS_SMOOTH);
 630:src/main.cpp  ****                 if(rms > 0.0f && (prs_sm[i] - prev) > RISE_THRESH
 631:src/main.cpp  ****                    && (int32_t)(now_ms - last_retrig[i]) >= (int32_t)rms){
 632:src/main.cpp  ****                     reatk[i] = true; last_retrig[i] = now_ms;
 633:src/main.cpp  ****                 }
 634:src/main.cpp  ****             }
 635:src/main.cpp  ****         }
 636:src/main.cpp  **** 
 637:src/main.cpp  ****         if(multi){
 1815              		.loc 6 637 9 view .LVU596
 1816 0542 B8F10E0F 		cmp	r8, #14
 1817 0546 089C     		ldr	r4, [sp, #32]
 1818              	.LBE828:
 1819              		.loc 6 637 9 is_stmt 1 view .LVU597
 1820              	.LBB897:
 1821 0548 01F01480 		beq	.L520
 638:src/main.cpp  ****             // Poly drums: each finger drives its own slot.
 639:src/main.cpp  ****             for(int i = 0; i < POLY; i++){
 640:src/main.cpp  ****                 if(reatk[i])                                  trigger_drum(i, tracked[i].pos, track
 641:src/main.cpp  ****                 else if(!deb_alive[i] && hit_was_alive[i])    g_hits[i].gate = false;  // lifted Ōå
 642:src/main.cpp  ****             }
 643:src/main.cpp  ****             g_amp_target = 0.0f;   // mono engine silent; the poly drums play in the callback
 644:src/main.cpp  ****         } else {
 645:src/main.cpp  ****             // Mono: a re-attack mid-note re-articulates it (initial touch is
 646:src/main.cpp  ****             // handled by the amp gate below).
 647:src/main.cpp  ****             if(reatk[0] && hit_was_alive[0]) g_retrig = true;
 1822              		.loc 6 647 13 view .LVU598
 1823 054c 9DF88430 		ldrb	r3, [sp, #132]	@ zero_extendqisi2
 1824 0550 2BB1     		cbz	r3, .L169
 1825              		.loc 6 647 25 is_stmt 0 discriminator 1 view .LVU599
 1826 0552 9DF88030 		ldrb	r3, [sp, #128]	@ zero_extendqisi2
 1827 0556 13B1     		cbz	r3, .L169
 1828              		.loc 6 647 46 is_stmt 1 discriminator 2 view .LVU600
 1829              		.loc 6 647 55 is_stmt 0 discriminator 2 view .LVU601
 1830 0558 0123     		movs	r3, #1
 1831 055a 854A     		ldr	r2, .L556+24
 1832 055c 1370     		strb	r3, [r2]
ARM GAS  /tmp/claude-502/ccJ8DnOJ.s 			page 76


 1833              	.L169:
 1834              	.LVL155:
 1835              		.loc 6 647 55 discriminator 2 view .LVU602
 1836              	.LBE897:
 1837              	.LBB898:
 648:src/main.cpp  ****         }
 649:src/main.cpp  **** 
 650:src/main.cpp  ****         for(int i = 0; i < MAX_FINGERS; i++) hit_was_alive[i] = deb_alive[i];
 1838              		.loc 6 650 26 is_stmt 1 discriminator 3 view .LVU603
 1839              		.loc 6 650 46 discriminator 3 view .LVU604
 1840              		.loc 6 650 63 is_stmt 0 discriminator 3 view .LVU605
 1841 055e 9DF81C31 		ldrb	r3, [sp, #284]	@ zero_extendqisi2
 1842 0562 8DF88030 		strb	r3, [sp, #128]
 1843              		.loc 6 650 9 is_stmt 1 discriminator 3 view .LVU606
 1844              	.LVL156:
 1845              		.loc 6 650 26 discriminator 3 view .LVU607
 1846              		.loc 6 650 46 discriminator 3 view .LVU608
 1847              		.loc 6 650 63 is_stmt 0 discriminator 3 view .LVU609
 1848 0566 9DF81D31 		ldrb	r3, [sp, #285]	@ zero_extendqisi2
 1849 056a 8DF88130 		strb	r3, [sp, #129]
 1850              		.loc 6 650 9 is_stmt 1 discriminator 3 view .LVU610
 1851              	.LVL157:
 1852              		.loc 6 650 26 discriminator 3 view .LVU611
 1853              		.loc 6 650 46 discriminator 3 view .LVU612
 1854              		.loc 6 650 63 is_stmt 0 discriminator 3 view .LVU613
 1855 056e 9DF81E31 		ldrb	r3, [sp, #286]	@ zero_extendqisi2
 1856 0572 8DF88230 		strb	r3, [sp, #130]
 1857              		.loc 6 650 9 is_stmt 1 discriminator 3 view .LVU614
 1858              	.LVL158:
 1859              		.loc 6 650 26 discriminator 3 view .LVU615
 1860              		.loc 6 650 46 discriminator 3 view .LVU616
 1861              		.loc 6 650 63 is_stmt 0 discriminator 3 view .LVU617
 1862 0576 9DF81F31 		ldrb	r3, [sp, #287]	@ zero_extendqisi2
 1863 057a 8DF88330 		strb	r3, [sp, #131]
 1864              		.loc 6 650 9 is_stmt 1 discriminator 3 view .LVU618
 1865              	.LVL159:
 1866              		.loc 6 650 26 discriminator 3 view .LVU619
 1867              	.LBE898:
 651:src/main.cpp  **** 
 652:src/main.cpp  ****         // Bind the active voice (last-hit drum in MultiVoice mode) for finger-2 / header.
 653:src/main.cpp  ****         const Voice& VOICE = g_live_tune ? g_live_voice : g_bank[g_active_voice];
 1868              		.loc 6 653 9 discriminator 3 view .LVU620
 1869              		.loc 6 653 30 is_stmt 0 discriminator 3 view .LVU621
 1870 057e 7D4B     		ldr	r3, .L556+28
 1871 0580 1B78     		ldrb	r3, [r3]	@ zero_extendqisi2
 1872              		.loc 6 653 80 discriminator 3 view .LVU622
 1873 0582 002B     		cmp	r3, #0
 1874 0584 00F03886 		beq	.L521
 1875              	.LVL160:
 654:src/main.cpp  **** 
 655:src/main.cpp  ****         if(f1_on && !multi)
 1876              		.loc 6 655 9 is_stmt 1 view .LVU623
 1877              	.LBB899:
 1878 0588 059B     		ldr	r3, [sp, #20]
 1879              	.LBE899:
 653:src/main.cpp  **** 
 1880              		.loc 6 653 80 is_stmt 0 view .LVU624
ARM GAS  /tmp/claude-502/ccJ8DnOJ.s 			page 77


 1881 058a 7B4D     		ldr	r5, .L556+32
 1882              	.LBB1007:
 1883              		.loc 6 655 9 view .LVU625
 1884 058c 002B     		cmp	r3, #0
 1885 058e 00F03E86 		beq	.L291
 1886              	.LVL161:
 1887              	.L290:
 1888              	.LBB900:
 656:src/main.cpp  ****         {
 657:src/main.cpp  ****             float pos01 = clampf((float)tracked[0].pos / 1000.0f, 0.0f, 1.0f);
 1889              		.loc 6 657 13 is_stmt 1 view .LVU626
 1890              		.loc 6 657 34 is_stmt 0 view .LVU627
 1891 0592 DBED017A 		vldr.32	s15, [fp, #4]	@ int
 1892              		.loc 6 657 33 view .LVU628
 1893 0596 DFED796A 		vldr.32	s13, .L556+36
 1894              		.loc 6 657 34 view .LVU629
 1895 059a B8EEE77A 		vcvt.f32.s32	s14, s15
 1896              		.loc 6 657 33 view .LVU630
 1897 059e C7EE267A 		vdiv.f32	s15, s14, s13
 1898              	.LVL162:
 1899              	.LBB901:
 1900              	.LBI901:
 1901              		.file 8 "src/dsp.h"
   1:src/dsp.h     **** #pragma once
   2:src/dsp.h     **** // Pure DSP/math primitives ŌĆö no hardware, no global state (except moog()
   3:src/dsp.h     **** // which lives in the engine). Header-only & inline for the audio hot path.
   4:src/dsp.h     **** #include <math.h>
   5:src/dsp.h     **** 
   6:src/dsp.h     **** // Oscillator shape ŌĆö set per oscillator, so one voice can mix (e.g. saw root +
   7:src/dsp.h     **** // square fifth + sine sub). SQUARE and SAW are naive (not band-limited) ŌĆö they
   8:src/dsp.h     **** // alias at high pitch, but on a low bass voice that just reads as rich harmonics
   9:src/dsp.h     **** // for the filter to chew.
  10:src/dsp.h     **** enum Waveform { WAVE_TRI, WAVE_SINE, WAVE_SQUARE, WAVE_SAW };
  11:src/dsp.h     **** 
  12:src/dsp.h     **** static inline float clampf(float v,float lo,float hi){
 1902              		.loc 8 12 21 is_stmt 1 view .LVU631
 1903              	.LBB902:
  13:src/dsp.h     ****     return v<lo?lo:v>hi?hi:v;
 1904              		.loc 8 13 5 view .LVU632
 1905              		.loc 8 13 16 is_stmt 0 view .LVU633
 1906 05a2 F5EEC07A 		vcmpe.f32	s15, #0
 1907 05a6 F1EE10FA 		vmrs	APSR_nzcv, FPSCR
 1908 05aa 00F13187 		bmi	.L324
 1909              		.loc 8 13 24 view .LVU634
 1910 05ae B7EE007A 		vmov.f32	s14, #1.0e+0
 1911 05b2 F4EE477A 		vcmp.f32	s15, s14
 1912 05b6 F1EE10FA 		vmrs	APSR_nzcv, FPSCR
 1913 05ba 77FE277A 		vselgt.f32	s15, s14, s15
 1914              	.LVL163:
 1915              	.L172:
 1916              		.loc 8 13 24 view .LVU635
 1917              	.LBE902:
 1918              	.LBE901:
 658:src/main.cpp  ****             float prs01 = clampf((float)tracked[0].pressure / 100.0f, 0.0f, 1.0f); // hard clamp
 1919              		.loc 6 658 13 is_stmt 1 view .LVU636
 1920              		.loc 6 658 34 is_stmt 0 view .LVU637
 1921 05be 9BED027A 		vldr.32	s14, [fp, #8]	@ int
ARM GAS  /tmp/claude-502/ccJ8DnOJ.s 			page 78


 1922              		.loc 6 658 33 view .LVU638
 1923 05c2 DFED6F6A 		vldr.32	s13, .L556+40
 1924              		.loc 6 658 34 view .LVU639
 1925 05c6 B8EEC77A 		vcvt.f32.s32	s14, s14
 1926              		.loc 6 658 33 view .LVU640
 1927 05ca 87EE26BA 		vdiv.f32	s22, s14, s13
 1928              	.LVL164:
 1929              	.LBB904:
 1930              	.LBI904:
  12:src/dsp.h     ****     return v<lo?lo:v>hi?hi:v;
 1931              		.loc 8 12 21 is_stmt 1 view .LVU641
 1932              	.LBB905:
 1933              		.loc 8 13 5 view .LVU642
 1934              		.loc 8 13 16 is_stmt 0 view .LVU643
 1935 05ce B5EEC0BA 		vcmpe.f32	s22, #0
 1936 05d2 F1EE10FA 		vmrs	APSR_nzcv, FPSCR
 1937 05d6 00F14B87 		bmi	.L326
 1938              		.loc 8 13 24 view .LVU644
 1939 05da B7EE007A 		vmov.f32	s14, #1.0e+0
 1940 05de B4EE47BA 		vcmp.f32	s22, s14
 1941 05e2 F1EE10FA 		vmrs	APSR_nzcv, FPSCR
 1942 05e6 37FE0BBA 		vselgt.f32	s22, s14, s22
 1943              	.LVL165:
 1944              	.L173:
 1945              		.loc 8 13 24 view .LVU645
 1946              	.LBE905:
 1947              	.LBE904:
 659:src/main.cpp  **** 
 660:src/main.cpp  ****             // ŌöĆŌöĆ Direct exponential frequency mapping across the voice range ŌöĆŌöĆ
 661:src/main.cpp  ****             // freq = freq_low * (freq_high/freq_low)^pos01
 662:src/main.cpp  ****             //      = freq_low * e^(pos01 * log_freq_ratio)
 663:src/main.cpp  ****             float earg = pos01 * VOICE.log_freq_ratio;
 1948              		.loc 6 663 13 is_stmt 1 view .LVU646
 1949              		.loc 6 663 19 is_stmt 0 view .LVU647
 1950 05ea 95ED036A 		vldr.32	s12, [r5, #12]
 664:src/main.cpp  ****             float ex   = 1.0f + earg*(1.0f + earg*(0.5f + earg*0.1667f));
 1951              		.loc 6 664 57 view .LVU648
 1952 05ee B6EE007A 		vmov.f32	s14, #5.0e-1
 1953 05f2 DFED646A 		vldr.32	s13, .L556+44
 1954              		.loc 6 664 44 view .LVU649
 1955 05f6 F7EE00AA 		vmov.f32	s21, #1.0e+0
 663:src/main.cpp  ****             float ex   = 1.0f + earg*(1.0f + earg*(0.5f + earg*0.1667f));
 1956              		.loc 6 663 19 view .LVU650
 1957 05fa 67EE867A 		vmul.f32	s15, s15, s12
 1958              	.LVL166:
 1959              		.loc 6 664 13 is_stmt 1 view .LVU651
 665:src/main.cpp  ****             float freq_continuous = clampf(VOICE.freq_low * ex, VOICE.freq_low, VOICE.freq_high);
 1960              		.loc 6 665 50 is_stmt 0 view .LVU652
 1961 05fe 95ED01CA 		vldr.32	s24, [r5, #4]
 1962              		.loc 6 665 87 view .LVU653
 1963 0602 D5ED02BA 		vldr.32	s23, [r5, #8]
 664:src/main.cpp  ****             float ex   = 1.0f + earg*(1.0f + earg*(0.5f + earg*0.1667f));
 1964              		.loc 6 664 57 view .LVU654
 1965 0606 A7EEA67A 		vfma.f32	s14, s15, s13
 664:src/main.cpp  ****             float ex   = 1.0f + earg*(1.0f + earg*(0.5f + earg*0.1667f));
 1966              		.loc 6 664 44 view .LVU655
 1967 060a F0EE6A6A 		vmov.f32	s13, s21
ARM GAS  /tmp/claude-502/ccJ8DnOJ.s 			page 79


 1968 060e E7EE276A 		vfma.f32	s13, s14, s15
 664:src/main.cpp  ****             float ex   = 1.0f + earg*(1.0f + earg*(0.5f + earg*0.1667f));
 1969              		.loc 6 664 19 view .LVU656
 1970 0612 E6EEA7AA 		vfma.f32	s21, s13, s15
 1971              	.LVL167:
 1972              		.loc 6 665 13 is_stmt 1 view .LVU657
 1973              		.loc 6 665 43 is_stmt 0 view .LVU658
 1974 0616 6CEE2AAA 		vmul.f32	s21, s24, s21
 1975              	.LVL168:
 1976              	.LBB907:
 1977              	.LBI907:
  12:src/dsp.h     ****     return v<lo?lo:v>hi?hi:v;
 1978              		.loc 8 12 21 is_stmt 1 view .LVU659
 1979              	.LBB908:
 1980              		.loc 8 13 5 view .LVU660
 1981              		.loc 8 13 16 is_stmt 0 view .LVU661
 1982 061a B4EEEACA 		vcmpe.f32	s24, s21
 1983 061e F1EE10FA 		vmrs	APSR_nzcv, FPSCR
 1984 0622 00F32187 		bgt	.L328
 1985              		.loc 8 13 24 view .LVU662
 1986 0626 F4EE6BAA 		vcmp.f32	s21, s23
 1987 062a F1EE10FA 		vmrs	APSR_nzcv, FPSCR
 1988 062e 7BFEAAAA 		vselgt.f32	s21, s23, s21
 1989              	.LVL169:
 1990              	.L174:
 1991              		.loc 8 13 24 view .LVU663
 1992              	.LBE908:
 1993              	.LBE907:
 666:src/main.cpp  **** 
 667:src/main.cpp  ****             // Convert to MIDI for quantizer: midi = 69 + 12*log2(freq/440)
 668:src/main.cpp  ****             // log2(x) = ln(x)/ln(2); ln approx via y=(x-1)/(x+1) series
 669:src/main.cpp  ****             float freq_ratio = freq_continuous / 440.0f;
 1994              		.loc 6 669 13 is_stmt 1 view .LVU664
 670:src/main.cpp  ****             float y = (freq_ratio - 1.0f) / (freq_ratio + 1.0f);
 1995              		.loc 6 670 13 view .LVU665
 671:src/main.cpp  ****             float y2 = y*y;
 1996              		.loc 6 671 13 view .LVU666
 672:src/main.cpp  ****             float ln_ratio = 2.0f*y*(1.0f + y2*(0.3333f + y2*0.2f));
 1997              		.loc 6 672 13 view .LVU667
 673:src/main.cpp  ****             float midi_raw = 69.0f + 17.3123f * ln_ratio; // 17.3123 = 12/ln(2)
 1998              		.loc 6 673 13 view .LVU668
 674:src/main.cpp  **** 
 675:src/main.cpp  ****             float freq; // final frequency to use
 1999              		.loc 6 675 13 view .LVU669
 676:src/main.cpp  **** 
 677:src/main.cpp  ****             if(QUANTIZE_ENABLED && VOICE.quantize && f1_fresh)
 2000              		.loc 6 677 13 view .LVU670
 2001              	.LBB910:
 2002              		.loc 6 677 51 is_stmt 0 view .LVU671
 2003 0632 95F88830 		ldrb	r3, [r5, #136]	@ zero_extendqisi2
 2004 0636 1BB1     		cbz	r3, .L175
 2005 0638 0E9B     		ldr	r3, [sp, #56]
 2006 063a 002B     		cmp	r3, #0
 2007 063c 41F03681 		bne	.L522
 2008              	.LVL170:
 2009              	.L175:
 2010              		.loc 6 677 51 view .LVU672
ARM GAS  /tmp/claude-502/ccJ8DnOJ.s 			page 80


 2011              	.LBE910:
 678:src/main.cpp  ****             {
 679:src/main.cpp  ****                 // Touch-down: snap to nearest scale note
 680:src/main.cpp  ****                 f1_midi_base = quantize_midi(midi_raw, VOICE.scale, VOICE.scale_len);
 681:src/main.cpp  ****                 // Convert quantized note number back to Hz
 682:src/main.cpp  ****                 float qe = (f1_midi_base - 69.0f) * 0.05776f;
 683:src/main.cpp  ****                 freq = clampf(440.0f*(1.0f+qe*(1.0f+qe*(0.5f+qe*0.1667f))), VOICE.freq_low, VOICE.f
 684:src/main.cpp  ****                 f1_sliding = false;
 685:src/main.cpp  ****                 // Chord voices: build the diatonic triad from the snapped root and
 686:src/main.cpp  ****                 // hand the engine the 3rd/5th frequency ratios (it adds those notes
 687:src/main.cpp  ****                 // above the root). Recomputed only on a fresh note; while sliding the
 688:src/main.cpp  ****                 // ratios hold so the whole chord bends together.
 689:src/main.cpp  ****                 if(VOICE.chords){
 690:src/main.cpp  ****                     int third, fifth;
 691:src/main.cpp  ****                     diatonic_triad((int)f1_midi_base, VOICE.scale, VOICE.scale_len, third, fifth);
 692:src/main.cpp  ****                     // Voicing width: lift the 3rd by chord_spread octaves (0 = close
 693:src/main.cpp  ****                     // rootŌĆō3rdŌĆō5th cluster; 1 = open rootŌĆō5thŌĆō10th, clearer over the
 694:src/main.cpp  ****                     // sub-osc). Per-voice (Voice::chord_spread).
 695:src/main.cpp  ****                     third += 12 * VOICE.chord_spread;
 696:src/main.cpp  ****                     g_chord_ratio2 = exp2f((float)third / 12.0f);
 697:src/main.cpp  ****                     g_chord_ratio3 = exp2f((float)fifth / 12.0f);
 698:src/main.cpp  ****                 }
 699:src/main.cpp  ****             }
 700:src/main.cpp  ****             else
 701:src/main.cpp  ****             {
 702:src/main.cpp  ****                 // Sliding or quantize disabled: follow continuous frequency directly
 703:src/main.cpp  ****                 f1_midi_base = f1_midi_base*0.88f + midi_raw*0.12f;
 704:src/main.cpp  ****                 freq = freq_continuous;
 705:src/main.cpp  ****                 f1_sliding = true;
 706:src/main.cpp  ****             }
 707:src/main.cpp  ****             freq = clampf(freq, VOICE.freq_low, VOICE.freq_high);
 2012              		.loc 6 707 13 is_stmt 1 view .LVU673
 2013              	.LBB953:
 2014              	.LBI953:
  12:src/dsp.h     ****     return v<lo?lo:v>hi?hi:v;
 2015              		.loc 8 12 21 view .LVU674
 2016              	.LBB954:
 2017              		.loc 8 13 5 view .LVU675
 2018              		.loc 8 13 16 is_stmt 0 view .LVU676
 2019 0640 F4EECCAA 		vcmpe.f32	s21, s24
 2020 0644 F1EE10FA 		vmrs	APSR_nzcv, FPSCR
 2021 0648 40F1FD86 		bpl	.L289
 2022              	.LBE954:
 2023              	.LBE953:
 2024              	.LBB957:
 2025              	.LBB958:
 708:src/main.cpp  **** 
 709:src/main.cpp  ****             // Cutoff: base tracks 2├Ś pitch, pressure opens it up
 710:src/main.cpp  ****             // Light press = 1├Ś pitch (dark, Moog-like tracking)
 711:src/main.cpp  ****             // Hard press = up to 12000 Hz (wide open)
 712:src/main.cpp  ****             // ŌöĆŌöĆ Moog-style exponential cutoff ŌöĆŌöĆŌöĆŌöĆŌöĆŌöĆŌöĆŌöĆŌöĆŌöĆŌöĆŌöĆŌöĆŌöĆŌöĆŌö
 713:src/main.cpp  ****             // At zero pressure: cutoff = 0.5x pitch (below fundamental, very dark)
 714:src/main.cpp  ****             // At full pressure: cutoff = 0.5x * 2^(6*prs) ŌĆö exponential opening
 715:src/main.cpp  ****             // 6 octaves of sweep = factor of 64x, so fully open = 32x pitch
 716:src/main.cpp  ****             // This gives the classic Moog "closed ŌåÆ wah ŌåÆ bright" feel.
 717:src/main.cpp  ****             // Power-3 on pressure so the bottom half stays dark and controlled.
 718:src/main.cpp  ****             // ŌöĆŌöĆ Smootherstep pressure curves (6xŌüĄ - 15xŌü┤ + 10x┬│) ŌöĆŌöĆŌöĆŌöĆŌöĆŌöĆŌöĆŌö
ARM GAS  /tmp/claude-502/ccJ8DnOJ.s 			page 81


 719:src/main.cpp  ****             // Starts slow, steep in the middle, eases gently at the top.
 720:src/main.cpp  ****             // Much more playable than power curves ŌĆö feels like a real knob.
 721:src/main.cpp  ****             auto smoothstep = [](float x) -> float {
 722:src/main.cpp  ****                 x = x<0?0:x>1?1:x;
 723:src/main.cpp  ****                 return x*x*(3.0f - 2.0f*x);
 724:src/main.cpp  ****             };
 725:src/main.cpp  ****             auto smootherstep = [](float x) -> float {
 726:src/main.cpp  ****                 x = x<0?0:x>1?1:x;
 2026              		.loc 6 726 24 view .LVU677
 2027 064c B5EEC0BA 		vcmpe.f32	s22, #0
 2028              	.LBE958:
 2029              	.LBE957:
 707:src/main.cpp  **** 
 2030              		.loc 6 707 39 view .LVU678
 2031 0650 F0EE4CBA 		vmov.f32	s23, s24
 2032              	.LVL171:
 721:src/main.cpp  ****                 x = x<0?0:x>1?1:x;
 2033              		.loc 6 721 13 is_stmt 1 view .LVU679
 725:src/main.cpp  ****                 x = x<0?0:x>1?1:x;
 2034              		.loc 6 725 13 view .LVU680
 727:src/main.cpp  ****                 return x*x*x*(x*(x*6.0f - 15.0f) + 10.0f);
 728:src/main.cpp  ****             };
 729:src/main.cpp  **** 
 730:src/main.cpp  ****             // Cutoff: smootherstep ŌĆö very dark at low, dramatic in mid, eases at top.
 731:src/main.cpp  ****             // Base cutoff and sweep depth are voice-defined.
 732:src/main.cpp  ****             float prs_cut  = smootherstep(prs01);
 2035              		.loc 6 732 13 view .LVU681
 2036              	.LBB962:
 2037              	.LBI957:
 725:src/main.cpp  ****                 x = x<0?0:x>1?1:x;
 2038              		.loc 6 725 33 view .LVU682
 2039              	.LBB959:
 726:src/main.cpp  ****                 return x*x*x*(x*(x*6.0f - 15.0f) + 10.0f);
 2040              		.loc 6 726 17 view .LVU683
 726:src/main.cpp  ****                 return x*x*x*(x*(x*6.0f - 15.0f) + 10.0f);
 2041              		.loc 6 726 24 is_stmt 0 view .LVU684
 2042 0654 F1EE10FA 		vmrs	APSR_nzcv, FPSCR
 2043 0658 00F10287 		bmi	.L333
 2044              	.L540:
 726:src/main.cpp  ****                 return x*x*x*(x*(x*6.0f - 15.0f) + 10.0f);
 2045              		.loc 6 726 30 view .LVU685
 2046 065c F7EE007A 		vmov.f32	s15, #1.0e+0
 2047 0660 B4EEE7BA 		vcmpe.f32	s22, s15
 2048 0664 F1EE10FA 		vmrs	APSR_nzcv, FPSCR
 2049 0668 0FDC     		bgt	.L183
 727:src/main.cpp  ****                 return x*x*x*(x*(x*6.0f - 15.0f) + 10.0f);
 2050              		.loc 6 727 41 view .LVU686
 2051 066a B1EE086A 		vmov.f32	s12, #6.0e+0
 2052 066e FAEE0E6A 		vmov.f32	s13, #-1.5e+1
 727:src/main.cpp  ****                 return x*x*x*(x*(x*6.0f - 15.0f) + 10.0f);
 2053              		.loc 6 727 50 view .LVU687
 2054 0672 F2EE047A 		vmov.f32	s15, #1.0e+1
 727:src/main.cpp  ****                 return x*x*x*(x*(x*6.0f - 15.0f) + 10.0f);
 2055              		.loc 6 727 25 view .LVU688
 2056 0676 2BEE0B7A 		vmul.f32	s14, s22, s22
 727:src/main.cpp  ****                 return x*x*x*(x*(x*6.0f - 15.0f) + 10.0f);
 2057              		.loc 6 727 41 view .LVU689
ARM GAS  /tmp/claude-502/ccJ8DnOJ.s 			page 82


 2058 067a EBEE066A 		vfma.f32	s13, s22, s12
 727:src/main.cpp  ****                 return x*x*x*(x*(x*6.0f - 15.0f) + 10.0f);
 2059              		.loc 6 727 27 view .LVU690
 2060 067e 27EE0B7A 		vmul.f32	s14, s14, s22
 727:src/main.cpp  ****                 return x*x*x*(x*(x*6.0f - 15.0f) + 10.0f);
 2061              		.loc 6 727 50 view .LVU691
 2062 0682 EBEE267A 		vfma.f32	s15, s22, s13
 727:src/main.cpp  ****                 return x*x*x*(x*(x*6.0f - 15.0f) + 10.0f);
 2063              		.loc 6 727 57 view .LVU692
 2064 0686 67EE277A 		vmul.f32	s15, s14, s15
 2065              	.L183:
 2066              	.LVL172:
 727:src/main.cpp  ****                 return x*x*x*(x*(x*6.0f - 15.0f) + 10.0f);
 2067              		.loc 6 727 17 is_stmt 1 view .LVU693
 727:src/main.cpp  ****                 return x*x*x*(x*(x*6.0f - 15.0f) + 10.0f);
 2068              		.loc 6 727 17 is_stmt 0 view .LVU694
 2069              	.LBE959:
 2070              	.LBE962:
 733:src/main.cpp  ****             float cutoff_oct = VOICE.cutoff_oct_max * prs_cut;
 2071              		.loc 6 733 13 is_stmt 1 view .LVU695
 734:src/main.cpp  ****             float oct_arg  = cutoff_oct * 0.6931f;
 2072              		.loc 6 734 13 view .LVU696
 733:src/main.cpp  ****             float cutoff_oct = VOICE.cutoff_oct_max * prs_cut;
 2073              		.loc 6 733 19 is_stmt 0 view .LVU697
 2074 068a 95ED117A 		vldr.32	s14, [r5, #68]
 735:src/main.cpp  ****             float oct_mult = 1.0f + oct_arg*(1.0f + oct_arg*(0.5f + oct_arg*(0.1667f + oct_arg*0.04
 2075              		.loc 6 735 51 view .LVU698
 2076 068e F7EE00AA 		vmov.f32	s21, #1.0e+0
 734:src/main.cpp  ****             float oct_arg  = cutoff_oct * 0.6931f;
 2077              		.loc 6 734 19 view .LVU699
 2078 0692 9FED3D5A 		vldr.32	s10, .L556+48
 733:src/main.cpp  ****             float cutoff_oct = VOICE.cutoff_oct_max * prs_cut;
 2079              		.loc 6 733 19 view .LVU700
 2080 0696 67EE877A 		vmul.f32	s15, s15, s14
 2081              	.LVL173:
 2082              		.loc 6 735 86 view .LVU701
 2083 069a DFED3C5A 		vldr.32	s11, .L556+52
 2084 069e DFED396A 		vldr.32	s13, .L556+44
 2085              		.loc 6 735 67 view .LVU702
 2086 06a2 B6EE007A 		vmov.f32	s14, #5.0e-1
 736:src/main.cpp  ****             // Keytracking: how much the cutoff base follows pitch. keytrack=1 is
 737:src/main.cpp  ****             // full tracking (cutoff ŌłØ freq); <1 holds the cutoff lower as pitch
 738:src/main.cpp  ****             // rises, for a more consistent tone across the range. (constexpr ŌåÆ
 739:src/main.cpp  ****             // the common keytrack=1 case folds to no powf.)
 740:src/main.cpp  ****             float track_freq = (VOICE.keytrack >= 0.999f)
 2087              		.loc 6 740 39 view .LVU703
 2088 06a6 D5ED150A 		vldr.32	s1, [r5, #84]
 734:src/main.cpp  ****             float oct_mult = 1.0f + oct_arg*(1.0f + oct_arg*(0.5f + oct_arg*(0.1667f + oct_arg*0.04
 2089              		.loc 6 734 19 view .LVU704
 2090 06aa 67EE857A 		vmul.f32	s15, s15, s10
 2091              	.LVL174:
 735:src/main.cpp  ****             float oct_mult = 1.0f + oct_arg*(1.0f + oct_arg*(0.5f + oct_arg*(0.1667f + oct_arg*0.04
 2092              		.loc 6 735 13 is_stmt 1 view .LVU705
 741:src/main.cpp  ****                 ? freq
 2093              		.loc 6 741 17 is_stmt 0 view .LVU706
 2094 06ae 9FED386A 		vldr.32	s12, .L556+56
 2095 06b2 F4EEC60A 		vcmpe.f32	s1, s12
ARM GAS  /tmp/claude-502/ccJ8DnOJ.s 			page 83


 735:src/main.cpp  ****             // Keytracking: how much the cutoff base follows pitch. keytrack=1 is
 2096              		.loc 6 735 86 view .LVU707
 2097 06b6 E7EEA56A 		vfma.f32	s13, s15, s11
 2098              		.loc 6 741 17 view .LVU708
 2099 06ba F1EE10FA 		vmrs	APSR_nzcv, FPSCR
 735:src/main.cpp  ****             // Keytracking: how much the cutoff base follows pitch. keytrack=1 is
 2100              		.loc 6 735 67 view .LVU709
 2101 06be A6EEA77A 		vfma.f32	s14, s13, s15
 735:src/main.cpp  ****             // Keytracking: how much the cutoff base follows pitch. keytrack=1 is
 2102              		.loc 6 735 51 view .LVU710
 2103 06c2 F0EE6A6A 		vmov.f32	s13, s21
 2104 06c6 E7EE276A 		vfma.f32	s13, s14, s15
 735:src/main.cpp  ****             // Keytracking: how much the cutoff base follows pitch. keytrack=1 is
 2105              		.loc 6 735 19 view .LVU711
 2106 06ca E6EEA7AA 		vfma.f32	s21, s13, s15
 2107              	.LVL175:
 740:src/main.cpp  ****                 ? freq
 2108              		.loc 6 740 13 is_stmt 1 view .LVU712
 2109              		.loc 6 741 17 is_stmt 0 view .LVU713
 2110 06ce C0F22987 		blt	.L523
 2111 06d2 F0EE6B7A 		vmov.f32	s15, s23
 2112              	.LVL176:
 2113              	.L184:
 742:src/main.cpp  ****                 : VOICE.freq_low * powf(freq / VOICE.freq_low, VOICE.keytrack);
 743:src/main.cpp  ****             float cutoff   = clampf(track_freq * VOICE.cutoff_mult * oct_mult, 20.0f, 18000.0f);
 2114              		.loc 6 743 13 is_stmt 1 view .LVU714
 2115              		.loc 6 743 48 is_stmt 0 view .LVU715
 2116 06d6 D5ED106A 		vldr.32	s13, [r5, #64]
 2117              	.LBB963:
 2118              	.LBB964:
 2119              		.loc 8 13 16 view .LVU716
 2120 06da B3EE047A 		vmov.f32	s14, #2.0e+1
 2121              	.LBE964:
 2122              	.LBE963:
 2123              		.loc 6 743 48 view .LVU717
 2124 06de 67EEA67A 		vmul.f32	s15, s15, s13
 2125              	.LVL177:
 2126              		.loc 6 743 36 view .LVU718
 2127 06e2 67EEAAAA 		vmul.f32	s21, s15, s21
 2128              	.LVL178:
 2129              	.LBB967:
 2130              	.LBI963:
  12:src/dsp.h     ****     return v<lo?lo:v>hi?hi:v;
 2131              		.loc 8 12 21 is_stmt 1 view .LVU719
 2132              	.LBB965:
 2133              		.loc 8 13 5 view .LVU720
 2134              		.loc 8 13 16 is_stmt 0 view .LVU721
 2135 06e6 F4EEC7AA 		vcmpe.f32	s21, s14
 2136 06ea F1EE10FA 		vmrs	APSR_nzcv, FPSCR
 2137 06ee 00F19F86 		bmi	.L336
 2138              		.loc 8 13 24 view .LVU722
 2139 06f2 DFED287A 		vldr.32	s15, .L556+60
 2140 06f6 F4EE67AA 		vcmp.f32	s21, s15
 2141 06fa F1EE10FA 		vmrs	APSR_nzcv, FPSCR
 2142 06fe 77FEAAAA 		vselgt.f32	s21, s15, s21
 2143              	.LVL179:
 2144              	.L185:
ARM GAS  /tmp/claude-502/ccJ8DnOJ.s 			page 84


 2145              		.loc 8 13 24 view .LVU723
 2146              	.LBE965:
 2147              	.LBE967:
 744:src/main.cpp  **** 
 745:src/main.cpp  ****             // Vibrato: smoothstep, only activates above 60% pressure
 746:src/main.cpp  ****             float vib_in = clampf((prs01 - 0.6f) / 0.4f, 0.0f, 1.0f);
 2148              		.loc 6 746 13 is_stmt 1 view .LVU724
 2149              		.loc 6 746 42 is_stmt 0 view .LVU725
 2150 0702 DFED257A 		vldr.32	s15, .L556+64
 2151              		.loc 6 746 34 view .LVU726
 2152 0706 DFED256A 		vldr.32	s13, .L556+68
 2153              		.loc 6 746 42 view .LVU727
 2154 070a 7BEE677A 		vsub.f32	s15, s22, s15
 2155              		.loc 6 746 34 view .LVU728
 2156 070e 87EEA67A 		vdiv.f32	s14, s15, s13
 2157              	.LVL180:
 2158              	.LBB968:
 2159              	.LBI968:
  12:src/dsp.h     ****     return v<lo?lo:v>hi?hi:v;
 2160              		.loc 8 12 21 is_stmt 1 view .LVU729
 2161              	.LBB969:
 2162              		.loc 8 13 5 view .LVU730
 2163              		.loc 8 13 16 is_stmt 0 view .LVU731
 2164 0712 B5EEC07A 		vcmpe.f32	s14, #0
 2165 0716 F1EE10FA 		vmrs	APSR_nzcv, FPSCR
 2166 071a 00F17D86 		bmi	.L338
 2167              		.loc 8 13 24 view .LVU732
 2168 071e F7EE007A 		vmov.f32	s15, #1.0e+0
 2169 0722 B4EEE77A 		vcmpe.f32	s14, s15
 2170 0726 F1EE10FA 		vmrs	APSR_nzcv, FPSCR
 2171 072a 01F38580 		bgt	.L339
 2172              	.LVL181:
 2173              		.loc 8 13 24 view .LVU733
 2174              	.LBE969:
 2175              	.LBE968:
 747:src/main.cpp  ****             float vib    = smoothstep(vib_in) * 0.8f;
 2176              		.loc 6 747 13 is_stmt 1 view .LVU734
 2177              	.LBB972:
 2178              	.LBI972:
 721:src/main.cpp  ****                 x = x<0?0:x>1?1:x;
 2179              		.loc 6 721 31 view .LVU735
 2180              	.LBB973:
 722:src/main.cpp  ****                 return x*x*(3.0f - 2.0f*x);
 2181              		.loc 6 722 17 view .LVU736
 723:src/main.cpp  ****             };
 2182              		.loc 6 723 34 is_stmt 0 view .LVU737
 2183 072e B0EE006A 		vmov.f32	s12, #2.0e+0
 2184              	.LBE973:
 2185              	.LBE972:
 2186              		.loc 6 747 49 view .LVU738
 2187 0732 DFED1B6A 		vldr.32	s13, .L556+72
 2188              	.LBB977:
 2189              	.LBB974:
 723:src/main.cpp  ****             };
 2190              		.loc 6 723 34 view .LVU739
 2191 0736 F0EE087A 		vmov.f32	s15, #3.0e+0
 723:src/main.cpp  ****             };
ARM GAS  /tmp/claude-502/ccJ8DnOJ.s 			page 85


 2192              		.loc 6 723 25 view .LVU740
 2193 073a 67EE07CA 		vmul.f32	s25, s14, s14
 723:src/main.cpp  ****             };
 2194              		.loc 6 723 34 view .LVU741
 2195 073e E7EE467A 		vfms.f32	s15, s14, s12
 723:src/main.cpp  ****             };
 2196              		.loc 6 723 42 view .LVU742
 2197 0742 6CEEA7CA 		vmul.f32	s25, s25, s15
 2198              	.LBE974:
 2199              	.LBE977:
 2200              		.loc 6 747 49 view .LVU743
 2201 0746 6CEEA6CA 		vmul.f32	s25, s25, s13
 2202              	.LVL182:
 2203              	.L186:
 2204              	.LBB978:
 2205              	.LBB975:
 723:src/main.cpp  ****             };
 2206              		.loc 6 723 17 is_stmt 1 view .LVU744
 723:src/main.cpp  ****             };
 2207              		.loc 6 723 17 is_stmt 0 view .LVU745
 2208              	.LBE975:
 2209              	.LBE978:
 748:src/main.cpp  **** 
 749:src/main.cpp  ****             // Drive: smoothstep ŌĆö clean at low, progressively warmer (voice-defined max)
 750:src/main.cpp  ****             float drive = 1.0f + smoothstep(prs01) * VOICE.drive_max;
 2210              		.loc 6 750 13 is_stmt 1 view .LVU746
 2211              	.LBB979:
 2212              	.LBI979:
 721:src/main.cpp  ****                 x = x<0?0:x>1?1:x;
 2213              		.loc 6 721 31 view .LVU747
 2214              	.LBB980:
 722:src/main.cpp  ****                 return x*x*(3.0f - 2.0f*x);
 2215              		.loc 6 722 17 view .LVU748
 722:src/main.cpp  ****                 return x*x*(3.0f - 2.0f*x);
 2216              		.loc 6 722 24 is_stmt 0 view .LVU749
 2217 074a B5EEC0BA 		vcmpe.f32	s22, #0
 2218 074e F1EE10FA 		vmrs	APSR_nzcv, FPSCR
 2219 0752 00F16986 		bmi	.L340
 2220 0756 25E0     		b	.L557
 2221              	.L558:
 2222              		.align	2
 2223              	.L556:
 2224 0758 9A99593F 		.word	1062836634
 2225 075c 00000000 		.word	g_master_vol
 2226 0760 00000000 		.word	.LANCHOR3
 2227 0764 00000000 		.word	.LANCHOR5
 2228 0768 00000000 		.word	tracked
 2229 076c 50000000 		.word	tracked+80
 2230 0770 00000000 		.word	g_retrig
 2231 0774 00000000 		.word	g_live_tune
 2232 0778 00000000 		.word	g_live_voice
 2233 077c 00007A44 		.word	1148846080
 2234 0780 0000C842 		.word	1120403456
 2235 0784 68B32A3E 		.word	1042985832
 2236 0788 006F313F 		.word	1060204288
 2237 078c 9FCD2A3D 		.word	1026215327
 2238 0790 77BE7F3F 		.word	1065336439
ARM GAS  /tmp/claude-502/ccJ8DnOJ.s 			page 86


 2239 0794 00A08C46 		.word	1183621120
 2240 0798 9A99193F 		.word	1058642330
 2241 079c CDCCCC3E 		.word	1053609165
 2242 07a0 CDCC4C3F 		.word	1061997773
 2243              	.L557:
 2244              	.L539:
 722:src/main.cpp  ****                 return x*x*(3.0f - 2.0f*x);
 2245              		.loc 6 722 30 view .LVU750
 2246 07a4 F7EE007A 		vmov.f32	s15, #1.0e+0
 2247 07a8 B4EEE7BA 		vcmpe.f32	s22, s15
 2248 07ac F1EE10FA 		vmrs	APSR_nzcv, FPSCR
 2249 07b0 09DC     		bgt	.L187
 723:src/main.cpp  ****             };
 2250              		.loc 6 723 34 view .LVU751
 2251 07b2 F0EE006A 		vmov.f32	s13, #2.0e+0
 2252 07b6 B0EE087A 		vmov.f32	s14, #3.0e+0
 723:src/main.cpp  ****             };
 2253              		.loc 6 723 25 view .LVU752
 2254 07ba 6BEE0B7A 		vmul.f32	s15, s22, s22
 723:src/main.cpp  ****             };
 2255              		.loc 6 723 34 view .LVU753
 2256 07be ABEE667A 		vfms.f32	s14, s22, s13
 723:src/main.cpp  ****             };
 2257              		.loc 6 723 42 view .LVU754
 2258 07c2 67EE877A 		vmul.f32	s15, s15, s14
 2259              	.L187:
 2260              	.LVL183:
 723:src/main.cpp  ****             };
 2261              		.loc 6 723 17 is_stmt 1 view .LVU755
 2262              	.LBE980:
 2263              	.LBE979:
 2264              		.loc 6 750 60 is_stmt 0 view .LVU756
 2265 07c6 B7EE00CA 		vmov.f32	s24, #1.0e+0
 2266 07ca 95ED137A 		vldr.32	s14, [r5, #76]
 751:src/main.cpp  **** 
 752:src/main.cpp  ****             // ŌöĆŌöĆ Velocity ŌåÆ loudness ŌöĆŌöĆŌöĆŌöĆŌöĆŌöĆŌöĆŌöĆŌöĆŌöĆŌöĆŌöĆŌöĆŌöĆŌöĆŌöĆŌöĆŌöĆŌ
 753:src/main.cpp  ****             // Capture peak pressure for a short window at onset, then hold it.
 754:src/main.cpp  ****             if(!f1_was_on){ vel_active = true; vel_peak = prs01; vel_start = System::GetNow(); }
 2267              		.loc 6 754 13 view .LVU757
 2268 07ce 069B     		ldr	r3, [sp, #24]
 750:src/main.cpp  **** 
 2269              		.loc 6 750 60 view .LVU758
 2270 07d0 A7EE27CA 		vfma.f32	s24, s14, s15
 2271              	.LVL184:
 2272              		.loc 6 754 13 is_stmt 1 view .LVU759
 2273 07d4 2BB9     		cbnz	r3, .L188
 2274              		.loc 6 754 29 discriminator 1 view .LVU760
 2275              	.LVL185:
 2276              		.loc 6 754 48 discriminator 1 view .LVU761
 2277              		.loc 6 754 66 discriminator 1 view .LVU762
 755:src/main.cpp  ****             if(vel_active){
 756:src/main.cpp  ****                 if(prs01 > vel_peak) vel_peak = prs01;
 757:src/main.cpp  ****                 if(System::GetNow() - vel_start >= VEL_WINDOW_MS) vel_active = false;
 758:src/main.cpp  ****                 vel = vel_peak;
 2278              		.loc 6 758 21 is_stmt 0 discriminator 1 view .LVU763
 2279 07d6 F0EE4B8A 		vmov.f32	s17, s22
 2280              	.LVL186:
ARM GAS  /tmp/claude-502/ccJ8DnOJ.s 			page 87


 754:src/main.cpp  ****             if(vel_active){
 2281              		.loc 6 754 92 discriminator 1 view .LVU764
 2282 07da FFF7FEFF 		bl	_ZN5daisy6System6GetNowEv
 2283              	.LVL187:
 755:src/main.cpp  ****             if(vel_active){
 2284              		.loc 6 755 13 is_stmt 1 discriminator 1 view .LVU765
 756:src/main.cpp  ****                 if(System::GetNow() - vel_start >= VEL_WINDOW_MS) vel_active = false;
 2285              		.loc 6 756 17 discriminator 1 view .LVU766
 757:src/main.cpp  ****                 vel = vel_peak;
 2286              		.loc 6 757 17 discriminator 1 view .LVU767
 757:src/main.cpp  ****                 vel = vel_peak;
 2287              		.loc 6 757 34 is_stmt 0 discriminator 1 view .LVU768
 2288 07de FFF7FEFF 		bl	_ZN5daisy6System6GetNowEv
 2289              	.LVL188:
 757:src/main.cpp  ****                 vel = vel_peak;
 2290              		.loc 6 757 67 is_stmt 1 discriminator 1 view .LVU769
 2291              		.loc 6 758 17 discriminator 1 view .LVU770
 2292              	.L188:
 759:src/main.cpp  ****             }
 760:src/main.cpp  ****             float vel_scale = (1.0f - VOICE.vel_sens) + VOICE.vel_sens * vel;
 2293              		.loc 6 760 13 view .LVU771
 2294              		.loc 6 760 37 is_stmt 0 view .LVU772
 2295 07e2 F7EE007A 		vmov.f32	s15, #1.0e+0
 2296              		.loc 6 760 45 view .LVU773
 2297 07e6 95ED207A 		vldr.32	s14, [r5, #128]
 761:src/main.cpp  **** 
 762:src/main.cpp  ****             g_target_freq    = freq;
 2298              		.loc 6 762 30 view .LVU774
 2299 07ea C34B     		ldr	r3, .L559
 763:src/main.cpp  ****             g_target_cutoff  = cutoff;
 764:src/main.cpp  ****             g_vibrato_depth  = vib;
 765:src/main.cpp  ****             g_target_drive   = drive;
 766:src/main.cpp  ****             g_finger_on      = true;
 2300              		.loc 6 766 30 view .LVU775
 2301 07ec 0126     		movs	r6, #1
 767:src/main.cpp  ****             g_amp_target     = 0.72f * vel_scale;
 2302              		.loc 6 767 38 view .LVU776
 2303 07ee DFEDC36A 		vldr.32	s13, .L559+4
 760:src/main.cpp  **** 
 2304              		.loc 6 760 37 view .LVU777
 2305 07f2 77EEC77A 		vsub.f32	s15, s15, s14
 762:src/main.cpp  ****             g_target_cutoff  = cutoff;
 2306              		.loc 6 762 30 view .LVU778
 2307 07f6 C3ED00BA 		vstr.32	s23, [r3]
 763:src/main.cpp  ****             g_vibrato_depth  = vib;
 2308              		.loc 6 763 30 view .LVU779
 2309 07fa C14B     		ldr	r3, .L559+8
 760:src/main.cpp  **** 
 2310              		.loc 6 760 19 view .LVU780
 2311 07fc E7EE287A 		vfma.f32	s15, s14, s17
 2312              	.LVL189:
 762:src/main.cpp  ****             g_target_cutoff  = cutoff;
 2313              		.loc 6 762 13 is_stmt 1 view .LVU781
 763:src/main.cpp  ****             g_vibrato_depth  = vib;
 2314              		.loc 6 763 13 view .LVU782
 764:src/main.cpp  ****             g_target_drive   = drive;
 2315              		.loc 6 764 13 view .LVU783
ARM GAS  /tmp/claude-502/ccJ8DnOJ.s 			page 88


 765:src/main.cpp  ****             g_finger_on      = true;
 2316              		.loc 6 765 13 view .LVU784
 766:src/main.cpp  ****             g_amp_target     = 0.72f * vel_scale;
 2317              		.loc 6 766 13 view .LVU785
 763:src/main.cpp  ****             g_vibrato_depth  = vib;
 2318              		.loc 6 763 30 is_stmt 0 view .LVU786
 2319 0800 C3ED00AA 		vstr.32	s21, [r3]
 764:src/main.cpp  ****             g_target_drive   = drive;
 2320              		.loc 6 764 30 view .LVU787
 2321 0804 BF4B     		ldr	r3, .L559+12
 2322 0806 C3ED00CA 		vstr.32	s25, [r3]
 765:src/main.cpp  ****             g_finger_on      = true;
 2323              		.loc 6 765 30 view .LVU788
 2324 080a BF4B     		ldr	r3, .L559+16
 2325 080c 83ED00CA 		vstr.32	s24, [r3]
 2326              		.loc 6 767 38 view .LVU789
 2327 0810 67EEA67A 		vmul.f32	s15, s15, s13
 2328              	.LVL190:
 766:src/main.cpp  ****             g_amp_target     = 0.72f * vel_scale;
 2329              		.loc 6 766 30 view .LVU790
 2330 0814 BD4B     		ldr	r3, .L559+20
 2331 0816 1E70     		strb	r6, [r3]
 2332              		.loc 6 767 13 is_stmt 1 view .LVU791
 2333              		.loc 6 767 30 is_stmt 0 view .LVU792
 2334 0818 BD4B     		ldr	r3, .L559+24
 2335 081a C3ED007A 		vstr.32	s15, [r3]
 2336              	.LVL191:
 2337              	.L167:
 2338              		.loc 6 767 30 view .LVU793
 2339              	.LBE900:
 2340              	.LBE1007:
 768:src/main.cpp  **** 
 769:src/main.cpp  ****         }
 770:src/main.cpp  ****         else if(!multi)
 771:src/main.cpp  ****         {
 772:src/main.cpp  ****             // Finger lifted: gate off, reset slide state
 773:src/main.cpp  ****             f1_sliding = false;
 774:src/main.cpp  ****             g_finger_on  = false;
 775:src/main.cpp  ****             g_amp_target = 0.0f;
 776:src/main.cpp  ****             // Do NOT reset cutoff here ŌĆö let it close with the amplitude
 777:src/main.cpp  ****             // in the audio callback to avoid discontinuity clicks
 778:src/main.cpp  ****         }
 779:src/main.cpp  **** 
 780:src/main.cpp  ****         // ŌöĆŌöĆ LED targets + slew ŌöĆŌöĆŌöĆŌöĆŌöĆŌöĆŌöĆŌöĆŌöĆŌöĆŌöĆŌöĆŌöĆŌöĆŌöĆŌöĆŌöĆŌöĆŌöĆŌöĆŌö
 781:src/main.cpp  ****         // Three-LED position indicator. Linear "tents" hand off cleanly:
 782:src/main.cpp  ****         //   LED1 (DAC1, middle)       ŌåÆ 1 - 2*|p - 0.5|
 783:src/main.cpp  ****         //   LED2 (DAC2, pos 0 end)    ŌåÆ max(0, 1 - 2*p)
 784:src/main.cpp  ****         //   LED3 (PWM A0, pos 1 end)  ŌåÆ max(0, 2*p - 1)
 785:src/main.cpp  ****         // Fourth-root curve (gamma=0.25) keeps each LED above its forward-voltage
 786:src/main.cpp  ****         // floor at the handoff points (50% raw ŌåÆ ~84% drive). Pressure adds a
 787:src/main.cpp  ****         // subtle ~75%ŌåÆ100% intensity scale.
 788:src/main.cpp  ****         // The voice-select blink overlays the position display only while a blink
 789:src/main.cpp  ****         // is actually animating (entry count, per-advance tick, saved-voice
 790:src/main.cpp  ****         // confirm). Otherwise the normal position display runs ŌĆö so the LEDs follow
 791:src/main.cpp  ****         // the finger during the live preview too, and resume after the save blink.
 792:src/main.cpp  ****         if(blink_left > 0 || blink_on){
 2341              		.loc 6 792 9 is_stmt 1 view .LVU794
ARM GAS  /tmp/claude-502/ccJ8DnOJ.s 			page 89


 2342              	.LBB1008:
 2343 081e 0A9B     		ldr	r3, [sp, #40]
 2344 0820 002B     		cmp	r3, #0
 2345 0822 00F3FF84 		bgt	.L189
 2346              	.L536:
 2347              		.loc 6 792 27 is_stmt 0 discriminator 1 view .LVU795
 2348 0826 0B9B     		ldr	r3, [sp, #44]
 2349 0828 002B     		cmp	r3, #0
 2350 082a 00F03185 		beq	.L524
 793:src/main.cpp  ****             blink_tick(System::GetNow());
 2351              		.loc 6 793 13 is_stmt 1 view .LVU796
 2352              		.loc 6 793 23 is_stmt 0 view .LVU797
 2353 082e FFF7FEFF 		bl	_ZN5daisy6System6GetNowEv
 2354              	.LVL192:
 2355              	.LBB1009:
 2356              	.LBI1009:
 362:src/main.cpp  ****         if(blink_left == 0 && !blink_on) return;
 2357              		.loc 6 362 23 is_stmt 1 view .LVU798
 2358              	.LBB1010:
 363:src/main.cpp  ****         if((int32_t)(now - blink_t) < 0)  return;
 2359              		.loc 6 363 9 view .LVU799
 364:src/main.cpp  ****         if(blink_on){ leds_write(false); blink_on = false; blink_left--; blink_t = now + 140; }
 2360              		.loc 6 364 9 view .LVU800
 364:src/main.cpp  ****         if(blink_on){ leds_write(false); blink_on = false; blink_left--; blink_t = now + 140; }
 2361              		.loc 6 364 26 is_stmt 0 view .LVU801
 2362 0832 109B     		ldr	r3, [sp, #64]
 2363 0834 C31A     		subs	r3, r0, r3
 364:src/main.cpp  ****         if(blink_on){ leds_write(false); blink_on = false; blink_left--; blink_t = now + 140; }
 2364              		.loc 6 364 9 view .LVU802
 2365 0836 002B     		cmp	r3, #0
 2366 0838 13DB     		blt	.L192
 2367              	.L293:
 365:src/main.cpp  ****         else if(blink_left > 0){ leds_write(true); blink_on = true; blink_t = now + 110; }
 2368              		.loc 6 365 23 is_stmt 1 view .LVU803
 2369              	.LVL193:
 2370              	.LBB1011:
 2371              	.LBI1011:
 352:src/main.cpp  ****         hw.dac.WriteValue(DacHandle::Channel::ONE, on ? (uint16_t)LED1_MAX : 0);
 2372              		.loc 6 352 23 view .LVU804
 2373              	.LBB1012:
 353:src/main.cpp  ****         hw.dac.WriteValue(DacHandle::Channel::TWO, on ? (uint16_t)LED2_MAX : 0);
 2374              		.loc 6 353 9 view .LVU805
 2375              	.LBE1012:
 2376              	.LBE1011:
 365:src/main.cpp  ****         else if(blink_left > 0){ leds_write(true); blink_on = true; blink_t = now + 110; }
 2377              		.loc 6 365 70 is_stmt 0 view .LVU806
 2378 083a 0A9B     		ldr	r3, [sp, #40]
 2379              	.LBB1017:
 2380              	.LBB1013:
 353:src/main.cpp  ****         hw.dac.WriteValue(DacHandle::Channel::TWO, on ? (uint16_t)LED2_MAX : 0);
 2381              		.loc 6 353 26 view .LVU807
 2382 083c 0022     		movs	r2, #0
 2383              	.LBE1013:
 2384              	.LBE1017:
 365:src/main.cpp  ****         else if(blink_left > 0){ leds_write(true); blink_on = true; blink_t = now + 110; }
 2385              		.loc 6 365 70 view .LVU808
 2386 083e 013B     		subs	r3, r3, #1
ARM GAS  /tmp/claude-502/ccJ8DnOJ.s 			page 90


 2387              	.LBB1018:
 2388              	.LBB1014:
 353:src/main.cpp  ****         hw.dac.WriteValue(DacHandle::Channel::TWO, on ? (uint16_t)LED2_MAX : 0);
 2389              		.loc 6 353 26 view .LVU809
 2390 0840 1146     		mov	r1, r2
 2391              	.LBE1014:
 2392              	.LBE1018:
 365:src/main.cpp  ****         else if(blink_left > 0){ leds_write(true); blink_on = true; blink_t = now + 110; }
 2393              		.loc 6 365 51 view .LVU810
 2394 0842 0B92     		str	r2, [sp, #44]
 2395              	.LVL194:
 365:src/main.cpp  ****         else if(blink_left > 0){ leds_write(true); blink_on = true; blink_t = now + 110; }
 2396              		.loc 6 365 70 view .LVU811
 2397 0844 0A93     		str	r3, [sp, #40]
 2398              	.LVL195:
 365:src/main.cpp  ****         else if(blink_left > 0){ leds_write(true); blink_on = true; blink_t = now + 110; }
 2399              		.loc 6 365 88 view .LVU812
 2400 0846 00F18C03 		add	r3, r0, #140
 2401              	.LBB1019:
 2402              	.LBB1015:
 353:src/main.cpp  ****         hw.dac.WriteValue(DacHandle::Channel::TWO, on ? (uint16_t)LED2_MAX : 0);
 2403              		.loc 6 353 26 view .LVU813
 2404 084a B248     		ldr	r0, .L559+28
 2405              	.LVL196:
 353:src/main.cpp  ****         hw.dac.WriteValue(DacHandle::Channel::TWO, on ? (uint16_t)LED2_MAX : 0);
 2406              		.loc 6 353 26 view .LVU814
 2407              	.LBE1015:
 2408              	.LBE1019:
 365:src/main.cpp  ****         else if(blink_left > 0){ leds_write(true); blink_on = true; blink_t = now + 110; }
 2409              		.loc 6 365 88 view .LVU815
 2410 084c 1093     		str	r3, [sp, #64]
 2411              	.LVL197:
 2412              	.LBB1020:
 2413              	.LBB1016:
 353:src/main.cpp  ****         hw.dac.WriteValue(DacHandle::Channel::TWO, on ? (uint16_t)LED2_MAX : 0);
 2414              		.loc 6 353 26 view .LVU816
 2415 084e FFF7FEFF 		bl	_ZN5daisy9DacHandle10WriteValueENS0_7ChannelEt
 2416              	.LVL198:
 354:src/main.cpp  ****         g_led3_duty = on ? LED3_INTENSITY : 0.0f;
 2417              		.loc 6 354 9 is_stmt 1 view .LVU817
 354:src/main.cpp  ****         g_led3_duty = on ? LED3_INTENSITY : 0.0f;
 2418              		.loc 6 354 26 is_stmt 0 view .LVU818
 2419 0852 0022     		movs	r2, #0
 2420 0854 0121     		movs	r1, #1
 2421 0856 AF48     		ldr	r0, .L559+28
 2422 0858 FFF7FEFF 		bl	_ZN5daisy9DacHandle10WriteValueENS0_7ChannelEt
 2423              	.LVL199:
 355:src/main.cpp  ****     };
 2424              		.loc 6 355 9 is_stmt 1 view .LVU819
 355:src/main.cpp  ****     };
 2425              		.loc 6 355 21 is_stmt 0 view .LVU820
 2426 085c 0023     		movs	r3, #0
 2427 085e 169A     		ldr	r2, [sp, #88]
 2428 0860 1360     		str	r3, [r2]	@ float
 2429              	.LVL200:
 355:src/main.cpp  ****     };
 2430              		.loc 6 355 21 view .LVU821
ARM GAS  /tmp/claude-502/ccJ8DnOJ.s 			page 91


 2431              	.LBE1016:
 2432              	.LBE1020:
 365:src/main.cpp  ****         else if(blink_left > 0){ leds_write(true); blink_on = true; blink_t = now + 110; }
 2433              		.loc 6 365 42 is_stmt 1 view .LVU822
 365:src/main.cpp  ****         else if(blink_left > 0){ leds_write(true); blink_on = true; blink_t = now + 110; }
 2434              		.loc 6 365 60 view .LVU823
 365:src/main.cpp  ****         else if(blink_left > 0){ leds_write(true); blink_on = true; blink_t = now + 110; }
 2435              		.loc 6 365 74 view .LVU824
 2436              	.L192:
 365:src/main.cpp  ****         else if(blink_left > 0){ leds_write(true); blink_on = true; blink_t = now + 110; }
 2437              		.loc 6 365 74 is_stmt 0 view .LVU825
 2438              	.LBE1010:
 2439              	.LBE1009:
 2440              	.LBE1008:
 794:src/main.cpp  ****         } else {
 795:src/main.cpp  ****             float led1_target = 0.0f, led2_target = 0.0f, led3_target = 0.0f;
 796:src/main.cpp  ****             if(f1_on) {
 797:src/main.cpp  ****                 float p01      = clampf((float)tracked[0].pos / 1000.0f, 0.0f, 1.0f);
 798:src/main.cpp  ****                 float pr01     = clampf((float)tracked[0].pressure / 100.0f, 0.0f, 1.0f);
 799:src/main.cpp  ****                 float prs_mult = 0.75f + 0.25f * pr01;
 800:src/main.cpp  ****                 float l1_raw   = 1.0f - 2.0f * p01;                 if(l1_raw < 0) l1_raw = 0;
 801:src/main.cpp  ****                 float l3_raw   = 2.0f * p01 - 1.0f;                 if(l3_raw < 0) l3_raw = 0;
 802:src/main.cpp  ****                 float l2_raw   = 1.0f - 2.0f * fabsf(p01 - 0.5f);   if(l2_raw < 0) l2_raw = 0;
 803:src/main.cpp  ****                 led1_target    = sqrtf(sqrtf(l2_raw)) * prs_mult;  // middle tent
 804:src/main.cpp  ****                 led2_target    = sqrtf(sqrtf(l1_raw)) * prs_mult;  // pos 0 ramp
 805:src/main.cpp  ****                 led3_target    = sqrtf(sqrtf(l3_raw)) * prs_mult * LED3_INTENSITY;
 806:src/main.cpp  ****             }
 807:src/main.cpp  ****             // Snap on touch onset so the LEDs respond instantly to the initial touch;
 808:src/main.cpp  ****             // smooth during sustained touch and on lift-off.
 809:src/main.cpp  ****             if(f1_on && !f1_was_on) {
 810:src/main.cpp  ****                 s_led1 = led1_target;
 811:src/main.cpp  ****                 s_led2 = led2_target;
 812:src/main.cpp  ****                 s_led3 = led3_target;
 813:src/main.cpp  ****             } else {
 814:src/main.cpp  ****                 float smooth3 = f1_on ? LED_SMOOTH : LED3_RELEASE_SMOOTH;
 815:src/main.cpp  ****                 s_led1 = s_led1 * LED_SMOOTH + led1_target * (1.0f - LED_SMOOTH);
 816:src/main.cpp  ****                 s_led2 = s_led2 * LED_SMOOTH + led2_target * (1.0f - LED_SMOOTH);
 817:src/main.cpp  ****                 s_led3 = s_led3 * smooth3   + led3_target * (1.0f - smooth3);
 818:src/main.cpp  ****             }
 819:src/main.cpp  ****             hw.dac.WriteValue(DacHandle::Channel::ONE, (uint16_t)(s_led1 * LED1_MAX));
 820:src/main.cpp  ****             hw.dac.WriteValue(DacHandle::Channel::TWO, (uint16_t)(s_led2 * LED2_MAX));
 821:src/main.cpp  ****             g_led3_duty = s_led3;  // audio callback sigma-delta's this onto A0
 822:src/main.cpp  ****         }
 823:src/main.cpp  **** 
 824:src/main.cpp  ****         f1_was_on = f1_on;
 2441              		.loc 6 824 9 is_stmt 1 view .LVU826
 825:src/main.cpp  **** 
 826:src/main.cpp  ****         // ŌöĆŌöĆ Finger 2 ŌåÆ Detune + Bitcrush + Ring mod (mono voices only) ŌöĆŌöĆŌöĆŌöĆŌöĆŌöĆŌö
 827:src/main.cpp  ****         if(tracked[1].alive && !multi)
 2442              		.loc 6 827 9 view .LVU827
 2443              	.LBB1085:
 2444              		.loc 6 827 29 is_stmt 0 view .LVU828
 2445 0862 9BF81430 		ldrb	r3, [fp, #20]	@ zero_extendqisi2
 2446 0866 002B     		cmp	r3, #0
 2447 0868 00F0DB82 		beq	.L226
 2448              		.loc 6 827 29 view .LVU829
 2449 086c 002E     		cmp	r6, #0
ARM GAS  /tmp/claude-502/ccJ8DnOJ.s 			page 92


 2450 086e 00F0D882 		beq	.L226
 2451              	.LBB1086:
 828:src/main.cpp  ****         {
 829:src/main.cpp  ****             float pos01 = clampf((float)tracked[1].pos / 1000.0f, 0.0f, 1.0f);
 2452              		.loc 6 829 13 is_stmt 1 view .LVU830
 2453              		.loc 6 829 34 is_stmt 0 view .LVU831
 2454 0872 DBED067A 		vldr.32	s15, [fp, #24]	@ int
 2455              		.loc 6 829 33 view .LVU832
 2456 0876 DFEDA86A 		vldr.32	s13, .L559+32
 2457              		.loc 6 829 34 view .LVU833
 2458 087a F8EEE77A 		vcvt.f32.s32	s15, s15
 2459              		.loc 6 829 33 view .LVU834
 2460 087e 87EEA67A 		vdiv.f32	s14, s15, s13
 2461              	.LVL201:
 2462              	.LBB1087:
 2463              	.LBI1087:
  12:src/dsp.h     ****     return v<lo?lo:v>hi?hi:v;
 2464              		.loc 8 12 21 is_stmt 1 view .LVU835
 2465              	.LBB1088:
 2466              		.loc 8 13 5 view .LVU836
 2467              		.loc 8 13 16 is_stmt 0 view .LVU837
 2468 0882 B5EEC07A 		vcmpe.f32	s14, #0
 2469 0886 F1EE10FA 		vmrs	APSR_nzcv, FPSCR
 2470 088a 00F14386 		bmi	.L345
 2471              		.loc 8 13 24 view .LVU838
 2472 088e F7EE007A 		vmov.f32	s15, #1.0e+0
 2473 0892 B4EEE77A 		vcmpe.f32	s14, s15
 2474 0896 F1EE10FA 		vmrs	APSR_nzcv, FPSCR
 2475 089a 01F33C81 		bgt	.L346
 2476              	.LBE1088:
 2477              	.LBE1087:
 830:src/main.cpp  ****             float prs01 = clampf((float)tracked[1].pressure / 100.0f, 0.0f, 1.0f); // hard clamp
 831:src/main.cpp  **** 
 832:src/main.cpp  ****             // Detune: finger 2 position maps to ┬▒7 semitones (┬▒1 fifth)
 833:src/main.cpp  ****             // Centre (pos=0.5) = no detune, left = flat, right = sharp
 834:src/main.cpp  ****             float detune_pos  = (pos01 - 0.5f) * 3.0f;  // ┬▒1.5 semitones raw
 2478              		.loc 6 834 40 view .LVU839
 2479 089e F6EE007A 		vmov.f32	s15, #5.0e-1
 2480              		.loc 6 834 19 view .LVU840
 2481 08a2 F0EE085A 		vmov.f32	s11, #3.0e+0
 2482              		.loc 6 834 40 view .LVU841
 2483 08a6 37EE677A 		vsub.f32	s14, s14, s15
 2484              	.LVL202:
 2485              		.loc 6 834 19 view .LVU842
 2486 08aa 67EE255A 		vmul.f32	s11, s14, s11
 2487              	.L227:
 2488              	.LVL203:
 830:src/main.cpp  ****             float prs01 = clampf((float)tracked[1].pressure / 100.0f, 0.0f, 1.0f); // hard clamp
 2489              		.loc 6 830 13 is_stmt 1 view .LVU843
 830:src/main.cpp  ****             float prs01 = clampf((float)tracked[1].pressure / 100.0f, 0.0f, 1.0f); // hard clamp
 2490              		.loc 6 830 34 is_stmt 0 view .LVU844
 2491 08ae DBED077A 		vldr.32	s15, [fp, #28]	@ int
 830:src/main.cpp  ****             float prs01 = clampf((float)tracked[1].pressure / 100.0f, 0.0f, 1.0f); // hard clamp
 2492              		.loc 6 830 33 view .LVU845
 2493 08b2 9FED9A7A 		vldr.32	s14, .L559+36
 830:src/main.cpp  ****             float prs01 = clampf((float)tracked[1].pressure / 100.0f, 0.0f, 1.0f); // hard clamp
 2494              		.loc 6 830 34 view .LVU846
ARM GAS  /tmp/claude-502/ccJ8DnOJ.s 			page 93


 2495 08b6 F8EEE77A 		vcvt.f32.s32	s15, s15
 830:src/main.cpp  ****             float prs01 = clampf((float)tracked[1].pressure / 100.0f, 0.0f, 1.0f); // hard clamp
 2496              		.loc 6 830 33 view .LVU847
 2497 08ba 87EE876A 		vdiv.f32	s12, s15, s14
 2498              	.LVL204:
 2499              	.LBB1092:
 2500              	.LBI1092:
  12:src/dsp.h     ****     return v<lo?lo:v>hi?hi:v;
 2501              		.loc 8 12 21 is_stmt 1 view .LVU848
 2502              	.LBB1093:
 2503              		.loc 8 13 5 view .LVU849
 2504              		.loc 8 13 16 is_stmt 0 view .LVU850
 2505 08be B5EEC06A 		vcmpe.f32	s12, #0
 2506 08c2 F1EE10FA 		vmrs	APSR_nzcv, FPSCR
 2507 08c6 00F12186 		bmi	.L347
 2508              		.loc 8 13 24 view .LVU851
 2509 08ca F7EE006A 		vmov.f32	s13, #1.0e+0
 2510 08ce B4EEE66A 		vcmpe.f32	s12, s13
 2511 08d2 F1EE10FA 		vmrs	APSR_nzcv, FPSCR
 2512 08d6 40F3F785 		ble	.L525
 2513 08da F0EE667A 		vmov.f32	s15, s13
 2514              	.L228:
 2515              	.LVL205:
 2516              		.loc 8 13 24 view .LVU852
 2517              	.LBE1093:
 2518              	.LBE1092:
 2519              		.loc 6 834 13 is_stmt 1 view .LVU853
 835:src/main.cpp  **** 
 836:src/main.cpp  ****             // Wavefold: smootherstep ŌĆö barely there until deliberate pressure
 837:src/main.cpp  ****             auto smootherstep2 = [](float x) -> float {
 2520              		.loc 6 837 13 view .LVU854
 838:src/main.cpp  ****                 x = x<0?0:x>1?1:x;
 839:src/main.cpp  ****                 return x*x*x*(x*(x*6.0f - 15.0f) + 10.0f);
 840:src/main.cpp  ****             };
 841:src/main.cpp  ****             // Apply smootherstep twice and cap at 0.20 ŌĆö effect only arrives
 842:src/main.cpp  ****             // with real deliberate pressure, stays subtle even at max
 843:src/main.cpp  ****             float ss2 = smootherstep2(prs01);
 2521              		.loc 6 843 13 view .LVU855
 2522              	.LBB1095:
 2523              	.LBI1095:
 725:src/main.cpp  ****                 x = x<0?0:x>1?1:x;
 2524              		.loc 6 725 33 view .LVU856
 2525              	.LBB1096:
 726:src/main.cpp  ****                 return x*x*x*(x*(x*6.0f - 15.0f) + 10.0f);
 2526              		.loc 6 726 17 view .LVU857
 727:src/main.cpp  ****             };
 2527              		.loc 6 727 17 view .LVU858
 727:src/main.cpp  ****             };
 2528              		.loc 6 727 17 is_stmt 0 view .LVU859
 2529              	.LBE1096:
 2530              	.LBE1095:
 844:src/main.cpp  ****             float ss3 = smootherstep2(ss2);   // triple smootherstep ŌĆö very lazy
 2531              		.loc 6 844 13 is_stmt 1 view .LVU860
 2532              	.LBB1103:
 2533              	.LBI1103:
 725:src/main.cpp  ****                 x = x<0?0:x>1?1:x;
 2534              		.loc 6 725 33 view .LVU861
ARM GAS  /tmp/claude-502/ccJ8DnOJ.s 			page 94


 2535              	.LBB1104:
 726:src/main.cpp  ****                 return x*x*x*(x*(x*6.0f - 15.0f) + 10.0f);
 2536              		.loc 6 726 17 view .LVU862
 726:src/main.cpp  ****                 return x*x*x*(x*(x*6.0f - 15.0f) + 10.0f);
 2537              		.loc 6 726 17 is_stmt 0 view .LVU863
 2538              	.LBE1104:
 2539              	.LBE1103:
 2540              	.LBB1108:
 2541              	.LBB1089:
 2542 08de B0EE676A 		vmov.f32	s12, s15
 2543              	.LVL206:
 2544              	.L294:
 726:src/main.cpp  ****                 return x*x*x*(x*(x*6.0f - 15.0f) + 10.0f);
 2545              		.loc 6 726 17 view .LVU864
 2546              	.LBE1089:
 2547              	.LBE1108:
 2548              	.LBB1109:
 2549              	.LBB1105:
 727:src/main.cpp  ****             };
 2550              		.loc 6 727 17 is_stmt 1 view .LVU865
 727:src/main.cpp  ****             };
 2551              		.loc 6 727 41 is_stmt 0 view .LVU866
 2552 08e2 BAEE0E5A 		vmov.f32	s10, #-1.5e+1
 2553 08e6 B1EE084A 		vmov.f32	s8, #6.0e+0
 727:src/main.cpp  ****             };
 2554              		.loc 6 727 50 view .LVU867
 2555 08ea F2EE046A 		vmov.f32	s13, #1.0e+1
 727:src/main.cpp  ****             };
 2556              		.loc 6 727 41 view .LVU868
 2557 08ee F0EE453A 		vmov.f32	s7, s10
 727:src/main.cpp  ****             };
 2558              		.loc 6 727 25 view .LVU869
 2559 08f2 27EEA77A 		vmul.f32	s14, s15, s15
 727:src/main.cpp  ****             };
 2560              		.loc 6 727 50 view .LVU870
 2561 08f6 F0EE664A 		vmov.f32	s9, s13
 727:src/main.cpp  ****             };
 2562              		.loc 6 727 41 view .LVU871
 2563 08fa E7EE843A 		vfma.f32	s7, s15, s8
 727:src/main.cpp  ****             };
 2564              		.loc 6 727 27 view .LVU872
 2565 08fe 27EE277A 		vmul.f32	s14, s14, s15
 727:src/main.cpp  ****             };
 2566              		.loc 6 727 50 view .LVU873
 2567 0902 E7EEA34A 		vfma.f32	s9, s15, s7
 727:src/main.cpp  ****             };
 2568              		.loc 6 727 57 view .LVU874
 2569 0906 27EE247A 		vmul.f32	s14, s14, s9
 2570              	.LVL207:
 727:src/main.cpp  ****             };
 2571              		.loc 6 727 57 view .LVU875
 2572              	.LBE1105:
 2573              	.LBE1109:
 845:src/main.cpp  ****             float bc  = smootherstep2(ss3) * VOICE.fold_max; // ceiling is voice-defined
 2574              		.loc 6 845 13 is_stmt 1 view .LVU876
 2575              	.LBB1110:
 2576              	.LBI1110:
ARM GAS  /tmp/claude-502/ccJ8DnOJ.s 			page 95


 725:src/main.cpp  ****                 x = x<0?0:x>1?1:x;
 2577              		.loc 6 725 33 view .LVU877
 2578              	.LBB1111:
 726:src/main.cpp  ****                 return x*x*x*(x*(x*6.0f - 15.0f) + 10.0f);
 2579              		.loc 6 726 17 view .LVU878
 726:src/main.cpp  ****                 return x*x*x*(x*(x*6.0f - 15.0f) + 10.0f);
 2580              		.loc 6 726 24 is_stmt 0 view .LVU879
 2581 090a B5EEC07A 		vcmpe.f32	s14, #0
 2582 090e F1EE10FA 		vmrs	APSR_nzcv, FPSCR
 2583 0912 41F19580 		bpl	.L498
 2584              	.LBE1111:
 2585              	.LBE1110:
 846:src/main.cpp  **** 
 847:src/main.cpp  ****             // Detune: smoothstep on position offset from centre
 848:src/main.cpp  ****             auto smoothstep2 = [](float x) -> float {
 849:src/main.cpp  ****                 x = x<0?0:x>1?1:x;
 850:src/main.cpp  ****                 return x*x*(3.0f - 2.0f*x);
 851:src/main.cpp  ****             };
 852:src/main.cpp  ****             // Detune amount scales with pressure via smoothstep ŌĆö no detune at low pressure
 853:src/main.cpp  ****             float det_prs = smoothstep2(prs01);
 854:src/main.cpp  **** 
 855:src/main.cpp  ****             // Ring mod: smoothstep, only above 85% pressure (ceiling voice-defined)
 856:src/main.cpp  ****             float rm_in = clampf((prs01 - 0.85f) / 0.15f, 0.0f, 1.0f);
 2586              		.loc 6 856 41 view .LVU880
 2587 0916 9FED827A 		vldr.32	s14, .L559+40
 2588              	.LVL208:
 2589              		.loc 6 856 33 view .LVU881
 2590 091a DFED826A 		vldr.32	s13, .L559+44
 2591              		.loc 6 856 41 view .LVU882
 2592 091e 36EE477A 		vsub.f32	s14, s12, s14
 2593              		.loc 6 856 33 view .LVU883
 2594 0922 DFED817A 		vldr.32	s15, .L559+48
 2595              	.LVL209:
 2596              		.loc 6 856 33 view .LVU884
 2597 0926 87EE265A 		vdiv.f32	s10, s14, s13
 2598              	.LVL210:
 2599              	.L232:
 2600              	.LBB1119:
 2601              	.LBB1112:
 727:src/main.cpp  ****             };
 2602              		.loc 6 727 17 is_stmt 1 view .LVU885
 2603              	.LBE1112:
 2604              	.LBE1119:
 2605              	.LBB1120:
 2606              	.LBB1121:
 849:src/main.cpp  ****                 return x*x*(3.0f - 2.0f*x);
 2607              		.loc 6 849 24 is_stmt 0 view .LVU886
 2608 092a DFED7F6A 		vldr.32	s13, .L559+48
 2609              	.LBE1121:
 2610              	.LBE1120:
 845:src/main.cpp  **** 
 2611              		.loc 6 845 52 view .LVU887
 2612 092e 95ED187A 		vldr.32	s14, [r5, #96]
 2613              	.LBB1126:
 2614              	.LBB1122:
 849:src/main.cpp  ****                 return x*x*(3.0f - 2.0f*x);
 2615              		.loc 6 849 24 view .LVU888
ARM GAS  /tmp/claude-502/ccJ8DnOJ.s 			page 96


 2616 0932 B4EEE66A 		vcmpe.f32	s12, s13
 2617              	.LBE1122:
 2618              	.LBE1126:
 845:src/main.cpp  **** 
 2619              		.loc 6 845 52 view .LVU889
 2620 0936 67EE877A 		vmul.f32	s15, s15, s14
 2621              	.LVL211:
 848:src/main.cpp  ****                 x = x<0?0:x>1?1:x;
 2622              		.loc 6 848 13 is_stmt 1 view .LVU890
 853:src/main.cpp  **** 
 2623              		.loc 6 853 13 view .LVU891
 2624              	.LBB1127:
 2625              	.LBI1120:
 848:src/main.cpp  ****                 x = x<0?0:x>1?1:x;
 2626              		.loc 6 848 32 view .LVU892
 2627              	.LBB1123:
 849:src/main.cpp  ****                 return x*x*(3.0f - 2.0f*x);
 2628              		.loc 6 849 17 view .LVU893
 849:src/main.cpp  ****                 return x*x*(3.0f - 2.0f*x);
 2629              		.loc 6 849 24 is_stmt 0 view .LVU894
 2630 093a F1EE10FA 		vmrs	APSR_nzcv, FPSCR
 2631 093e 00F17787 		bmi	.L526
 849:src/main.cpp  ****                 return x*x*(3.0f - 2.0f*x);
 2632              		.loc 6 849 30 view .LVU895
 2633 0942 B7EE007A 		vmov.f32	s14, #1.0e+0
 2634 0946 B4EEC76A 		vcmpe.f32	s12, s14
 2635 094a F1EE10FA 		vmrs	APSR_nzcv, FPSCR
 2636 094e 0BDC     		bgt	.L237
 850:src/main.cpp  ****             };
 2637              		.loc 6 850 34 view .LVU896
 2638 0950 F0EE004A 		vmov.f32	s9, #2.0e+0
 2639 0954 F0EE086A 		vmov.f32	s13, #3.0e+0
 2640              	.LBE1123:
 2641              	.LBE1127:
 2642              	.LBB1128:
 2643              	.LBB1097:
 727:src/main.cpp  ****             };
 2644              		.loc 6 727 25 view .LVU897
 2645 0958 26EE067A 		vmul.f32	s14, s12, s12
 2646              	.LBE1097:
 2647              	.LBE1128:
 2648              	.LBB1129:
 2649              	.LBB1124:
 850:src/main.cpp  ****             };
 2650              		.loc 6 850 34 view .LVU898
 2651 095c E6EE646A 		vfms.f32	s13, s12, s9
 850:src/main.cpp  ****             };
 2652              		.loc 6 850 42 view .LVU899
 2653 0960 27EE267A 		vmul.f32	s14, s14, s13
 2654              	.LBE1124:
 2655              	.LBE1129:
 857:src/main.cpp  ****             float rm    = smoothstep2(rm_in) * VOICE.ringmod_max;
 858:src/main.cpp  **** 
 859:src/main.cpp  ****             g_target_detune = detune_pos * det_prs; // pressure gates detune amount
 2656              		.loc 6 859 42 view .LVU900
 2657 0964 65EE875A 		vmul.f32	s11, s11, s14
 2658              	.L237:
ARM GAS  /tmp/claude-502/ccJ8DnOJ.s 			page 97


 2659              	.LVL212:
 2660              	.LBB1130:
 2661              	.LBB1125:
 850:src/main.cpp  ****             };
 2662              		.loc 6 850 17 is_stmt 1 view .LVU901
 850:src/main.cpp  ****             };
 2663              		.loc 6 850 17 is_stmt 0 view .LVU902
 2664              	.LBE1125:
 2665              	.LBE1130:
 856:src/main.cpp  ****             float rm    = smoothstep2(rm_in) * VOICE.ringmod_max;
 2666              		.loc 6 856 13 is_stmt 1 view .LVU903
 2667              	.LBB1131:
 2668              	.LBI1131:
  12:src/dsp.h     ****     return v<lo?lo:v>hi?hi:v;
 2669              		.loc 8 12 21 view .LVU904
 2670              	.LBB1132:
 2671              		.loc 8 13 5 view .LVU905
 2672              		.loc 8 13 16 is_stmt 0 view .LVU906
 2673 0968 B5EEC05A 		vcmpe.f32	s10, #0
 2674 096c F1EE10FA 		vmrs	APSR_nzcv, FPSCR
 2675 0970 00F1D485 		bmi	.L351
 2676              		.loc 8 13 24 view .LVU907
 2677 0974 B7EE007A 		vmov.f32	s14, #1.0e+0
 2678 0978 B4EEC75A 		vcmpe.f32	s10, s14
 2679 097c F1EE10FA 		vmrs	APSR_nzcv, FPSCR
 2680 0980 09DC     		bgt	.L238
 2681              	.LVL213:
 2682              		.loc 8 13 24 view .LVU908
 2683              	.LBE1132:
 2684              	.LBE1131:
 857:src/main.cpp  **** 
 2685              		.loc 6 857 13 is_stmt 1 view .LVU909
 2686              	.LBB1134:
 2687              	.LBI1134:
 848:src/main.cpp  ****                 x = x<0?0:x>1?1:x;
 2688              		.loc 6 848 32 view .LVU910
 2689              	.LBB1135:
 849:src/main.cpp  ****                 return x*x*(3.0f - 2.0f*x);
 2690              		.loc 6 849 17 view .LVU911
 850:src/main.cpp  ****             };
 2691              		.loc 6 850 34 is_stmt 0 view .LVU912
 2692 0982 B0EE006A 		vmov.f32	s12, #2.0e+0
 2693              	.LVL214:
 850:src/main.cpp  ****             };
 2694              		.loc 6 850 34 view .LVU913
 2695 0986 F0EE086A 		vmov.f32	s13, #3.0e+0
 850:src/main.cpp  ****             };
 2696              		.loc 6 850 25 view .LVU914
 2697 098a 25EE057A 		vmul.f32	s14, s10, s10
 850:src/main.cpp  ****             };
 2698              		.loc 6 850 34 view .LVU915
 2699 098e E5EE466A 		vfms.f32	s13, s10, s12
 850:src/main.cpp  ****             };
 2700              		.loc 6 850 42 view .LVU916
 2701 0992 27EE267A 		vmul.f32	s14, s14, s13
 2702              	.LVL215:
 2703              	.L238:
ARM GAS  /tmp/claude-502/ccJ8DnOJ.s 			page 98


 850:src/main.cpp  ****             };
 2704              		.loc 6 850 17 is_stmt 1 view .LVU917
 2705              	.LBE1135:
 2706              	.LBE1134:
 2707              		.loc 6 859 29 is_stmt 0 view .LVU918
 2708 0996 654B     		ldr	r3, .L559+52
 857:src/main.cpp  **** 
 2709              		.loc 6 857 54 view .LVU919
 2710 0998 D5ED176A 		vldr.32	s13, [r5, #92]
 2711              		.loc 6 859 29 view .LVU920
 2712 099c C3ED005A 		vstr.32	s11, [r3]
 860:src/main.cpp  ****             g_bitcrush      = bc;
 2713              		.loc 6 860 29 view .LVU921
 2714 09a0 634B     		ldr	r3, .L559+56
 2715 09a2 C3ED007A 		vstr.32	s15, [r3]
 857:src/main.cpp  **** 
 2716              		.loc 6 857 54 view .LVU922
 2717 09a6 67EE267A 		vmul.f32	s15, s14, s13
 2718              	.LVL216:
 859:src/main.cpp  ****             g_bitcrush      = bc;
 2719              		.loc 6 859 13 is_stmt 1 view .LVU923
 2720              		.loc 6 860 13 view .LVU924
 861:src/main.cpp  ****             g_ringmod       = rm;
 2721              		.loc 6 861 13 view .LVU925
 2722              		.loc 6 861 29 is_stmt 0 view .LVU926
 2723 09aa 624B     		ldr	r3, .L559+60
 2724              	.LVL217:
 2725              		.loc 6 861 29 view .LVU927
 2726 09ac C3ED007A 		vstr.32	s15, [r3]
 2727              	.LVL218:
 2728              		.loc 6 861 29 view .LVU928
 2729              	.LBE1086:
 2730              	.LBE1085:
 862:src/main.cpp  ****         }
 863:src/main.cpp  ****         else
 864:src/main.cpp  ****         {
 865:src/main.cpp  ****             // No second finger: return detune to zero, clear effects
 866:src/main.cpp  ****             g_target_detune = 0.0f;
 867:src/main.cpp  ****             g_bitcrush      = 0.0f;
 868:src/main.cpp  ****             g_ringmod       = 0.0f;
 869:src/main.cpp  ****         }
 870:src/main.cpp  **** 
 871:src/main.cpp  ****         // ŌöĆŌöĆ Serial display (throttled; the control loop above runs much faster) ŌöĆ
 872:src/main.cpp  ****         // Suppressed while live-tuning so the protocol channel stays clean
 873:src/main.cpp  ****         // (re-enable with `mon 1`).
 874:src/main.cpp  ****         if(serial_display_muted() ||
 2731              		.loc 6 874 9 is_stmt 1 view .LVU929
 2732              		.loc 6 874 32 is_stmt 0 view .LVU930
 2733 09b0 FFF7FEFF 		bl	_Z20serial_display_mutedv
 2734              	.LVL219:
 2735              		.loc 6 874 35 view .LVU931
 2736 09b4 0646     		mov	r6, r0
 2737 09b6 0028     		cmp	r0, #0
 2738 09b8 40F04082 		bne	.L240
 2739              	.LVL220:
 2740              	.L531:
 875:src/main.cpp  ****            System::GetNow() - last_print_ms < PRINT_INTERVAL_MS){
ARM GAS  /tmp/claude-502/ccJ8DnOJ.s 			page 99


 2741              		.loc 6 875 26 discriminator 2 view .LVU932
 2742 09bc FFF7FEFF 		bl	_ZN5daisy6System6GetNowEv
 2743              	.LVL221:
 2744              		.loc 6 875 29 discriminator 2 view .LVU933
 2745 09c0 199B     		ldr	r3, [sp, #100]
 2746 09c2 C01A     		subs	r0, r0, r3
 874:src/main.cpp  ****            System::GetNow() - last_print_ms < PRINT_INTERVAL_MS){
 2747              		.loc 6 874 35 discriminator 2 view .LVU934
 2748 09c4 7728     		cmp	r0, #119
 2749 09c6 40F23982 		bls	.L240
 876:src/main.cpp  ****             System::Delay(CONTROL_DELAY_MS);
 877:src/main.cpp  ****             continue;
 878:src/main.cpp  ****         }
 879:src/main.cpp  ****         last_print_ms = System::GetNow();
 2750              		.loc 6 879 9 is_stmt 1 view .LVU935
 2751              		.loc 6 879 39 is_stmt 0 view .LVU936
 2752 09ca FFF7FEFF 		bl	_ZN5daisy6System6GetNowEv
 2753              	.LVL222:
 880:src/main.cpp  **** 
 881:src/main.cpp  ****         if(g_voice_idx == MULTI_IDX)
 2754              		.loc 6 881 24 view .LVU937
 2755 09ce 5A4B     		ldr	r3, .L559+64
 879:src/main.cpp  **** 
 2756              		.loc 6 879 39 view .LVU938
 2757 09d0 1990     		str	r0, [sp, #100]
 2758              	.LVL223:
 2759              		.loc 6 881 9 is_stmt 1 view .LVU939
 2760              		.loc 6 881 24 is_stmt 0 view .LVU940
 2761 09d2 1B68     		ldr	r3, [r3]
 2762              		.loc 6 881 9 view .LVU941
 2763 09d4 0E2B     		cmp	r3, #14
 2764 09d6 01F04383 		beq	.L527
 882:src/main.cpp  ****             usb_log("VOICE %d/%d  Drums [Kick|Snare|Tom|Hat]  -> %s",
 883:src/main.cpp  ****                 cycle_pos(g_voice_idx), cycle_total(), VOICE.name);
 884:src/main.cpp  ****         else
 885:src/main.cpp  ****             usb_log("VOICE %d/%d  %s  (%d-%dHz)",
 2765              		.loc 6 885 13 is_stmt 1 view .LVU942
 2766              		.loc 6 885 20 is_stmt 0 view .LVU943
 2767 09da 574B     		ldr	r3, .L559+64
 2768              	.LBB1158:
 2769              	.LBB1159:
1052:src/voice.h   ****   for (int i = 0; i <= idx && i < NUM_VOICES; i++)
 2770              		.loc 7 1052 7 view .LVU944
 2771 09dc 3146     		mov	r1, r6
 2772              	.LBE1159:
 2773              	.LBE1158:
 2774              		.loc 6 885 20 view .LVU945
 2775 09de 1B68     		ldr	r3, [r3]
 2776              	.LVL224:
 2777              	.LBB1162:
 2778              	.LBI1158:
1051:src/voice.h   ****   int p = 0;
 2779              		.loc 7 1051 12 is_stmt 1 view .LVU946
 2780              	.LBB1161:
1052:src/voice.h   ****   for (int i = 0; i <= idx && i < NUM_VOICES; i++)
 2781              		.loc 7 1052 3 view .LVU947
1053:src/voice.h   ****     if (!VOICES[i].no_cycle)
ARM GAS  /tmp/claude-502/ccJ8DnOJ.s 			page 100


 2782              		.loc 7 1053 3 view .LVU948
 2783              	.LBB1160:
1053:src/voice.h   ****     if (!VOICES[i].no_cycle)
 2784              		.loc 7 1053 28 view .LVU949
 2785 09e0 0E2B     		cmp	r3, #14
 2786 09e2 1F46     		mov	r7, r3
 2787 09e4 A8BF     		it	ge
 2788 09e6 0E27     		movge	r7, #14
 2789 09e8 002B     		cmp	r3, #0
 2790 09ea 09DB     		blt	.L249
 2791 09ec 534A     		ldr	r2, .L559+68
1053:src/voice.h   ****     if (!VOICES[i].no_cycle)
 2792              		.loc 7 1053 12 is_stmt 0 view .LVU950
 2793 09ee 3346     		mov	r3, r6
 2794              	.LVL225:
 2795              	.L251:
1054:src/voice.h   ****       p++;
 2796              		.loc 7 1054 5 is_stmt 1 view .LVU951
 2797              		.loc 7 1055 7 view .LVU952
1054:src/voice.h   ****       p++;
 2798              		.loc 7 1054 5 is_stmt 0 view .LVU953
 2799 09f0 92F87C00 		ldrb	r0, [r2, #124]	@ zero_extendqisi2
1053:src/voice.h   ****     if (!VOICES[i].no_cycle)
 2800              		.loc 7 1053 3 view .LVU954
 2801 09f4 0133     		adds	r3, r3, #1
 2802              	.LVL226:
1053:src/voice.h   ****     if (!VOICES[i].no_cycle)
 2803              		.loc 7 1053 28 view .LVU955
 2804 09f6 C032     		adds	r2, r2, #192
1054:src/voice.h   ****       p++;
 2805              		.loc 7 1054 5 view .LVU956
 2806 09f8 00B9     		cbnz	r0, .L250
 2807              		.loc 7 1055 8 view .LVU957
 2808 09fa 0131     		adds	r1, r1, #1
 2809              	.LVL227:
 2810              	.L250:
1053:src/voice.h   ****     if (!VOICES[i].no_cycle)
 2811              		.loc 7 1053 3 is_stmt 1 view .LVU958
1053:src/voice.h   ****     if (!VOICES[i].no_cycle)
 2812              		.loc 7 1053 28 view .LVU959
 2813 09fc BB42     		cmp	r3, r7
 2814 09fe F7DD     		ble	.L251
 2815              	.LVL228:
 2816              	.L249:
1053:src/voice.h   ****     if (!VOICES[i].no_cycle)
 2817              		.loc 7 1053 28 is_stmt 0 view .LVU960
 2818              	.LBE1160:
1052:src/voice.h   ****   for (int i = 0; i <= idx && i < NUM_VOICES; i++)
 2819              		.loc 7 1052 7 view .LVU961
 2820 0a00 4E4B     		ldr	r3, .L559+68
 2821              	.LBE1161:
 2822              	.LBE1162:
 2823              	.LBB1163:
 2824              	.LBB1164:
1045:src/voice.h   ****   for (int i = 0; i < NUM_VOICES; i++)
 2825              		.loc 7 1045 7 view .LVU962
 2826 0a02 0022     		movs	r2, #0
ARM GAS  /tmp/claude-502/ccJ8DnOJ.s 			page 101


 2827              	.L253:
 2828              	.LVL229:
 2829              	.LBB1165:
1047:src/voice.h   ****       n++;
 2830              		.loc 7 1047 5 is_stmt 1 view .LVU963
1048:src/voice.h   ****   return n;
 2831              		.loc 7 1048 7 view .LVU964
1047:src/voice.h   ****       n++;
 2832              		.loc 7 1047 5 is_stmt 0 view .LVU965
 2833 0a04 93F87C00 		ldrb	r0, [r3, #124]	@ zero_extendqisi2
1046:src/voice.h   ****     if (!VOICES[i].no_cycle)
 2834              		.loc 7 1046 21 view .LVU966
 2835 0a08 C033     		adds	r3, r3, #192
1047:src/voice.h   ****       n++;
 2836              		.loc 7 1047 5 view .LVU967
 2837 0a0a 00B9     		cbnz	r0, .L252
1048:src/voice.h   ****   return n;
 2838              		.loc 7 1048 8 view .LVU968
 2839 0a0c 0132     		adds	r2, r2, #1
 2840              	.LVL230:
 2841              	.L252:
1046:src/voice.h   ****     if (!VOICES[i].no_cycle)
 2842              		.loc 7 1046 3 is_stmt 1 view .LVU969
1046:src/voice.h   ****     if (!VOICES[i].no_cycle)
 2843              		.loc 7 1046 21 view .LVU970
 2844 0a0e 4C48     		ldr	r0, .L559+72
 2845 0a10 9842     		cmp	r0, r3
 2846 0a12 F7D1     		bne	.L253
1046:src/voice.h   ****     if (!VOICES[i].no_cycle)
 2847              		.loc 7 1046 21 is_stmt 0 view .LVU971
 2848              	.LBE1165:
1049:src/voice.h   **** }
 2849              		.loc 7 1049 3 is_stmt 1 view .LVU972
 2850              	.LVL231:
1049:src/voice.h   **** }
 2851              		.loc 7 1049 3 is_stmt 0 view .LVU973
 2852              	.LBE1164:
 2853              	.LBE1163:
 2854              		.loc 6 885 20 view .LVU974
 2855 0a14 D5ED027A 		vldr.32	s15, [r5, #8]
 2856 0a18 2B68     		ldr	r3, [r5]
 2857 0a1a FDEEE77A 		vcvt.s32.f32	s15, s15
 2858 0a1e 4948     		ldr	r0, .L559+76
 2859 0a20 CDED017A 		vstr.32	s15, [sp, #4]	@ int
 2860 0a24 D5ED017A 		vldr.32	s15, [r5, #4]
 2861 0a28 FDEEE77A 		vcvt.s32.f32	s15, s15
 2862 0a2c CDED007A 		vstr.32	s15, [sp]	@ int
 2863 0a30 FFF7FEFF 		bl	usb_log
 2864              	.LVL232:
 2865              	.L248:
 886:src/main.cpp  ****                 cycle_pos(g_voice_idx), cycle_total(), VOICE.name,
 887:src/main.cpp  ****                 (int)VOICE.freq_low, (int)VOICE.freq_high);
 888:src/main.cpp  ****         usb_log(" CH | DELTA | BAR");
 2866              		.loc 6 888 9 is_stmt 1 view .LVU975
 2867              		.loc 6 888 16 is_stmt 0 view .LVU976
 2868 0a34 4448     		ldr	r0, .L559+80
 2869              	.LBB1166:
ARM GAS  /tmp/claude-502/ccJ8DnOJ.s 			page 102


 2870              	.LBB1167:
 2871              	.LBB1168:
 2872              	.LBB1169:
  86:src/main.cpp  ****     if(n>w)n=w;
 2873              		.loc 6 86 42 view .LVU977
 2874 0a36 4FEA6408 		asr	r8, r4, #1
 2875              	.LBE1169:
 2876              	.LBE1168:
 2877              	.LBE1167:
 2878              	.LBE1166:
 2879              		.loc 6 888 16 view .LVU978
 2880 0a3a FFF7FEFF 		bl	usb_log
 2881              	.LVL233:
 889:src/main.cpp  ****         usb_log("----+-------+----------------------");
 2882              		.loc 6 889 9 is_stmt 1 view .LVU979
 2883              		.loc 6 889 16 is_stmt 0 view .LVU980
 2884 0a3e 4348     		ldr	r0, .L559+84
 2885 0a40 FFF7FEFF 		bl	usb_log
 2886              	.LVL234:
 890:src/main.cpp  ****         for(int i=0;i<N_CH;i++){
 2887              		.loc 6 890 9 is_stmt 1 view .LVU981
 2888              	.LBB1181:
 2889              		.loc 6 890 22 view .LVU982
 2890              		.loc 6 890 17 is_stmt 0 view .LVU983
 2891 0a44 0026     		movs	r6, #0
 2892              	.LBE1181:
 889:src/main.cpp  ****         usb_log("----+-------+----------------------");
 2893              		.loc 6 889 16 view .LVU984
 2894 0a46 DDF84CA0 		ldr	r10, [sp, #76]
 2895              	.LVL235:
 2896              	.L259:
 2897              	.LBB1182:
 2898              	.LBB1178:
 891:src/main.cpp  ****             make_bar(bar,delta[i],max_delta,20);
 2899              		.loc 6 891 13 is_stmt 1 view .LVU985
 2900              		.loc 6 891 21 is_stmt 0 view .LVU986
 2901 0a4a 5AF8042B 		ldr	r2, [r10], #4
 2902              	.LVL236:
 2903              	.LBB1174:
 2904              	.LBI1168:
  84:src/main.cpp  **** {
 2905              		.loc 6 84 6 is_stmt 1 view .LVU987
 2906              	.LBB1172:
  86:src/main.cpp  ****     if(n>w)n=w;
 2907              		.loc 6 86 5 view .LVU988
  86:src/main.cpp  ****     if(n>w)n=w;
 2908              		.loc 6 86 25 is_stmt 0 view .LVU989
 2909 0a4e 002A     		cmp	r2, #0
 2910 0a50 40F31B84 		ble	.L355
  86:src/main.cpp  ****     if(n>w)n=w;
 2911              		.loc 6 86 36 view .LVU990
 2912 0a54 02EB8200 		add	r0, r2, r2, lsl #2
  86:src/main.cpp  ****     if(n>w)n=w;
 2913              		.loc 6 86 38 view .LVU991
 2914 0a58 08EB8000 		add	r0, r8, r0, lsl #2
  86:src/main.cpp  ****     if(n>w)n=w;
 2915              		.loc 6 86 25 view .LVU992
ARM GAS  /tmp/claude-502/ccJ8DnOJ.s 			page 103


 2916 0a5c B0FBF4F0 		udiv	r0, r0, r4
 2917 0a60 1428     		cmp	r0, #20
 2918 0a62 A8BF     		it	ge
 2919 0a64 1420     		movge	r0, #20
 2920              	.L254:
  87:src/main.cpp  ****     out[0]='[';
 2921              		.loc 6 87 5 is_stmt 1 view .LVU993
  88:src/main.cpp  ****     for(int i=0;i<w;i++)out[1+i]=(i<n)?'#':' ';
 2922              		.loc 6 88 5 view .LVU994
  88:src/main.cpp  ****     for(int i=0;i<w;i++)out[1+i]=(i<n)?'#':' ';
 2923              		.loc 6 88 11 is_stmt 0 view .LVU995
 2924 0a66 5B23     		movs	r3, #91
 2925 0a68 0DF23517 		addw	r7, sp, #309
 2926 0a6c 4DA9     		add	r1, sp, #308
 2927              	.LVL237:
  88:src/main.cpp  ****     for(int i=0;i<w;i++)out[1+i]=(i<n)?'#':' ';
 2928              		.loc 6 88 11 view .LVU996
 2929 0a6e 8DF83431 		strb	r3, [sp, #308]
  89:src/main.cpp  ****     out[1+w]=']';out[2+w]='\0';
 2930              		.loc 6 89 5 is_stmt 1 view .LVU997
 2931              	.LVL238:
 2932              	.LBB1170:
  89:src/main.cpp  ****     out[1+w]=']';out[2+w]='\0';
 2933              		.loc 6 89 18 view .LVU998
 2934              	.LBE1170:
  88:src/main.cpp  ****     for(int i=0;i<w;i++)out[1+i]=(i<n)?'#':' ';
 2935              		.loc 6 88 11 is_stmt 0 view .LVU999
 2936 0a72 3B46     		mov	r3, r7
 2937 0a74 CD43     		mvns	r5, r1
 2938              	.LVL239:
 2939              	.L256:
 2940              	.LBB1171:
  89:src/main.cpp  ****     out[1+w]=']';out[2+w]='\0';
 2941              		.loc 6 89 25 is_stmt 1 view .LVU1000
  89:src/main.cpp  ****     out[1+w]=']';out[2+w]='\0';
 2942              		.loc 6 89 39 is_stmt 0 view .LVU1001
 2943 0a76 E918     		adds	r1, r5, r3
 2944 0a78 8142     		cmp	r1, r0
 2945 0a7a ACBF     		ite	ge
 2946 0a7c 2021     		movge	r1, #32
 2947 0a7e 2321     		movlt	r1, #35
  89:src/main.cpp  ****     out[1+w]=']';out[2+w]='\0';
 2948              		.loc 6 89 33 view .LVU1002
 2949 0a80 03F8011B 		strb	r1, [r3], #1
 2950              	.LVL240:
  89:src/main.cpp  ****     out[1+w]=']';out[2+w]='\0';
 2951              		.loc 6 89 5 is_stmt 1 view .LVU1003
  89:src/main.cpp  ****     out[1+w]=']';out[2+w]='\0';
 2952              		.loc 6 89 18 view .LVU1004
 2953 0a84 0DF24911 		addw	r1, sp, #329
 2954 0a88 9942     		cmp	r1, r3
 2955 0a8a F4D1     		bne	.L256
 2956              	.LBE1171:
  90:src/main.cpp  **** }
 2957              		.loc 6 90 5 view .LVU1005
  90:src/main.cpp  **** }
 2958              		.loc 6 90 13 is_stmt 0 view .LVU1006
ARM GAS  /tmp/claude-502/ccJ8DnOJ.s 			page 104


 2959 0a8c 5D23     		movs	r3, #93
 2960              	.LVL241:
  90:src/main.cpp  **** }
 2961              		.loc 6 90 13 view .LVU1007
 2962 0a8e 8DF84931 		strb	r3, [sp, #329]
  90:src/main.cpp  **** }
 2963              		.loc 6 90 18 is_stmt 1 view .LVU1008
  90:src/main.cpp  **** }
 2964              		.loc 6 90 26 is_stmt 0 view .LVU1009
 2965 0a92 0023     		movs	r3, #0
 2966 0a94 8DF84A31 		strb	r3, [sp, #330]
 2967              	.LVL242:
  90:src/main.cpp  **** }
 2968              		.loc 6 90 26 view .LVU1010
 2969              	.LBE1172:
 2970              	.LBE1174:
 2971              	.LBB1175:
 892:src/main.cpp  ****             const char* mk="";     // finger marker on the channel each finger peaks at
 893:src/main.cpp  ****             for(int s=0;s<2;s++)
 2972              		.loc 6 893 26 is_stmt 1 view .LVU1011
 894:src/main.cpp  ****                 if(tracked[s].alive&&i==tracked[s].peak_ch)mk=(s==0)?"F1":"F2";
 2973              		.loc 6 894 17 view .LVU1012
 2974 0a98 9BF80030 		ldrb	r3, [fp]	@ zero_extendqisi2
 2975 0a9c 002B     		cmp	r3, #0
 2976 0a9e 00F0F283 		beq	.L357
 2977              		.loc 6 894 36 is_stmt 0 view .LVU1013
 2978 0aa2 DBF80C10 		ldr	r1, [fp, #12]
 2979              	.LBE1175:
 892:src/main.cpp  ****             const char* mk="";     // finger marker on the channel each finger peaks at
 2980              		.loc 6 892 25 view .LVU1014
 2981 0aa6 2A4B     		ldr	r3, .L559+88
 2982 0aa8 2A48     		ldr	r0, .L559+92
 2983 0aaa B142     		cmp	r1, r6
 2984 0aac 18BF     		it	ne
 2985 0aae 0346     		movne	r3, r0
 2986              	.L257:
 2987              	.LVL243:
 2988              	.LBB1176:
 893:src/main.cpp  ****                 if(tracked[s].alive&&i==tracked[s].peak_ch)mk=(s==0)?"F1":"F2";
 2989              		.loc 6 893 13 is_stmt 1 view .LVU1015
 893:src/main.cpp  ****                 if(tracked[s].alive&&i==tracked[s].peak_ch)mk=(s==0)?"F1":"F2";
 2990              		.loc 6 893 26 view .LVU1016
 2991              		.loc 6 894 17 view .LVU1017
 2992 0ab0 9BF81410 		ldrb	r1, [fp, #20]	@ zero_extendqisi2
 2993 0ab4 29B1     		cbz	r1, .L258
 2994              		.loc 6 894 36 is_stmt 0 view .LVU1018
 2995 0ab6 DBF82000 		ldr	r0, [fp, #32]
 2996              		.loc 6 894 62 view .LVU1019
 2997 0aba 2749     		ldr	r1, .L559+96
 2998 0abc B042     		cmp	r0, r6
 2999 0abe 08BF     		it	eq
 3000 0ac0 0B46     		moveq	r3, r1
 3001              	.LVL244:
 3002              	.L258:
 893:src/main.cpp  ****                 if(tracked[s].alive&&i==tracked[s].peak_ch)mk=(s==0)?"F1":"F2";
 3003              		.loc 6 893 13 is_stmt 1 view .LVU1020
 893:src/main.cpp  ****                 if(tracked[s].alive&&i==tracked[s].peak_ch)mk=(s==0)?"F1":"F2";
ARM GAS  /tmp/claude-502/ccJ8DnOJ.s 			page 105


 3004              		.loc 6 893 26 view .LVU1021
 3005              	.LBE1176:
 895:src/main.cpp  ****             usb_log(" %02d | %5d | %s  %s",i,(int)delta[i],bar,mk);
 3006              		.loc 6 895 13 view .LVU1022
 3007              		.loc 6 895 20 is_stmt 0 view .LVU1023
 3008 0ac2 3146     		mov	r1, r6
 3009              	.LBE1178:
 890:src/main.cpp  ****             make_bar(bar,delta[i],max_delta,20);
 3010              		.loc 6 890 9 view .LVU1024
 3011 0ac4 0136     		adds	r6, r6, #1
 3012              	.LVL245:
 3013              	.LBB1179:
 3014              		.loc 6 895 20 view .LVU1025
 3015 0ac6 0093     		str	r3, [sp]
 3016 0ac8 4DAB     		add	r3, sp, #308
 3017              	.LVL246:
 3018              		.loc 6 895 20 view .LVU1026
 3019 0aca 2448     		ldr	r0, .L559+100
 3020 0acc FFF7FEFF 		bl	usb_log
 3021              	.LVL247:
 3022              		.loc 6 895 20 view .LVU1027
 3023              	.LBE1179:
 890:src/main.cpp  ****             make_bar(bar,delta[i],max_delta,20);
 3024              		.loc 6 890 9 is_stmt 1 view .LVU1028
 890:src/main.cpp  ****             make_bar(bar,delta[i],max_delta,20);
 3025              		.loc 6 890 22 view .LVU1029
 3026 0ad0 0C2E     		cmp	r6, #12
 3027 0ad2 BAD1     		bne	.L259
 3028              	.LBE1182:
 896:src/main.cpp  ****         }
 897:src/main.cpp  **** 
 898:src/main.cpp  ****         make_pos_bar(pos_bar,40);
 3029              		.loc 6 898 9 view .LVU1030
 3030              	.LVL248:
 3031              	.LBB1183:
 3032              	.LBI1183:
  93:src/main.cpp  **** {
 3033              		.loc 6 93 6 view .LVU1031
 3034              	.LBB1184:
  95:src/main.cpp  ****     for(int i=0;i<w;i++)out[1+i]='-';
 3035              		.loc 6 95 5 view .LVU1032
  95:src/main.cpp  ****     for(int i=0;i<w;i++)out[1+i]='-';
 3036              		.loc 6 95 11 is_stmt 0 view .LVU1033
 3037 0ad4 7C24     		movs	r4, #124
 3038              	.LBB1185:
  96:src/main.cpp  ****     out[1+w]='|';out[2+w]='\0';
 3039              		.loc 6 96 33 view .LVU1034
 3040 0ad6 2822     		movs	r2, #40
 3041 0ad8 2D21     		movs	r1, #45
 3042 0ada 0DF28510 		addw	r0, sp, #389
 3043              	.LBE1185:
  95:src/main.cpp  ****     for(int i=0;i<w;i++)out[1+i]='-';
 3044              		.loc 6 95 11 view .LVU1035
 3045 0ade 8DF88441 		strb	r4, [sp, #388]
  96:src/main.cpp  ****     out[1+w]='|';out[2+w]='\0';
 3046              		.loc 6 96 5 is_stmt 1 view .LVU1036
 3047              	.LVL249:
ARM GAS  /tmp/claude-502/ccJ8DnOJ.s 			page 106


 3048              	.LBB1186:
  96:src/main.cpp  ****     out[1+w]='|';out[2+w]='\0';
 3049              		.loc 6 96 18 view .LVU1037
 3050              	.LBE1186:
  97:src/main.cpp  ****     for(int slot=0;slot<MAX_FINGERS;slot++){
 3051              		.loc 6 97 26 is_stmt 0 view .LVU1038
 3052 0ae2 A846     		mov	r8, r5
 3053              	.LBB1187:
  96:src/main.cpp  ****     out[1+w]='|';out[2+w]='\0';
 3054              		.loc 6 96 33 view .LVU1039
 3055 0ae4 FFF7FEFF 		bl	memset
 3056              	.LVL250:
  96:src/main.cpp  ****     out[1+w]='|';out[2+w]='\0';
 3057              		.loc 6 96 33 view .LVU1040
 3058              	.LBE1187:
  97:src/main.cpp  ****     for(int slot=0;slot<MAX_FINGERS;slot++){
 3059              		.loc 6 97 5 is_stmt 1 view .LVU1041
  97:src/main.cpp  ****     for(int slot=0;slot<MAX_FINGERS;slot++){
 3060              		.loc 6 97 26 is_stmt 0 view .LVU1042
 3061 0ae8 1D4E     		ldr	r6, .L559+104
 3062              	.LVL251:
  97:src/main.cpp  ****     for(int slot=0;slot<MAX_FINGERS;slot++){
 3063              		.loc 6 97 26 view .LVU1043
 3064 0aea 0023     		movs	r3, #0
  97:src/main.cpp  ****     for(int slot=0;slot<MAX_FINGERS;slot++){
 3065              		.loc 6 97 13 view .LVU1044
 3066 0aec 8DF8AD41 		strb	r4, [sp, #429]
  97:src/main.cpp  ****     for(int slot=0;slot<MAX_FINGERS;slot++){
 3067              		.loc 6 97 18 is_stmt 1 view .LVU1045
  97:src/main.cpp  ****     for(int slot=0;slot<MAX_FINGERS;slot++){
 3068              		.loc 6 97 26 is_stmt 0 view .LVU1046
 3069 0af0 3124     		movs	r4, #49
 3070 0af2 8DF8AE31 		strb	r3, [sp, #430]
 3071 0af6 35E0     		b	.L560
 3072              	.L561:
 3073              		.align	2
 3074              	.L559:
 3075 0af8 00000000 		.word	g_target_freq
 3076 0afc EC51383F 		.word	1060655596
 3077 0b00 00000000 		.word	g_target_cutoff
 3078 0b04 00000000 		.word	g_vibrato_depth
 3079 0b08 00000000 		.word	g_target_drive
 3080 0b0c 00000000 		.word	g_finger_on
 3081 0b10 00000000 		.word	g_amp_target
 3082 0b14 20000000 		.word	.LANCHOR0+32
 3083 0b18 00007A44 		.word	1148846080
 3084 0b1c 0000C842 		.word	1120403456
 3085 0b20 9A99593F 		.word	1062836634
 3086 0b24 9A99193E 		.word	1041865114
 3087 0b28 00000000 		.word	0
 3088 0b2c 00000000 		.word	g_target_detune
 3089 0b30 00000000 		.word	g_bitcrush
 3090 0b34 00000000 		.word	g_ringmod
 3091 0b38 00000000 		.word	.LANCHOR3
 3092 0b3c 00000000 		.word	.LANCHOR4
 3093 0b40 400B0000 		.word	.LANCHOR4+2880
 3094 0b44 08020000 		.word	.LC19
ARM GAS  /tmp/claude-502/ccJ8DnOJ.s 			page 107


 3095 0b48 24020000 		.word	.LC20
 3096 0b4c 38020000 		.word	.LC21
 3097 0b50 04000000 		.word	.LC1
 3098 0b54 00000000 		.word	.LC0
 3099 0b58 08000000 		.word	.LC2
 3100 0b5c 5C020000 		.word	.LC22
 3101 0b60 00000000 		.word	tracked
 3102              	.L560:
  98:src/main.cpp  ****         if(!tracked[slot].alive)continue;
 3103              		.loc 6 98 5 is_stmt 1 view .LVU1047
 3104              	.LVL252:
 3105              	.LBB1188:
  98:src/main.cpp  ****         if(!tracked[slot].alive)continue;
 3106              		.loc 6 98 24 view .LVU1048
 3107              	.L262:
 3108              	.LBB1189:
  99:src/main.cpp  ****         int p=(int)(((int64_t)tracked[slot].pos*(w-1)+500)/1000);
 3109              		.loc 6 99 9 view .LVU1049
 100:src/main.cpp  ****         if(p<0)p=0;if(p>=w)p=w-1;
 3110              		.loc 6 100 9 view .LVU1050
  99:src/main.cpp  ****         int p=(int)(((int64_t)tracked[slot].pos*(w-1)+500)/1000);
 3111              		.loc 6 99 9 is_stmt 0 view .LVU1051
 3112 0b64 96F800E0 		ldrb	lr, [r6]	@ zero_extendqisi2
 100:src/main.cpp  ****         if(p<0)p=0;if(p>=w)p=w-1;
 3113              		.loc 6 100 54 view .LVU1052
 3114 0b68 4FF0270C 		mov	ip, #39
 3115 0b6c 4FF4FA70 		mov	r0, #500
 3116 0b70 0021     		movs	r1, #0
 100:src/main.cpp  ****         if(p<0)p=0;if(p>=w)p=w-1;
 3117              		.loc 6 100 59 view .LVU1053
 3118 0b72 4FF47A72 		mov	r2, #1000
 3119 0b76 0023     		movs	r3, #0
  99:src/main.cpp  ****         int p=(int)(((int64_t)tracked[slot].pos*(w-1)+500)/1000);
 3120              		.loc 6 99 9 view .LVU1054
 3121 0b78 BEF1000F 		cmp	lr, #0
 3122 0b7c 10D0     		beq	.L260
 100:src/main.cpp  ****         if(p<0)p=0;if(p>=w)p=w-1;
 3123              		.loc 6 100 59 view .LVU1055
 3124 0b7e 7568     		ldr	r5, [r6, #4]
 3125 0b80 C5FB0C01 		smlal	r0, r1, r5, ip
 3126 0b84 FFF7FEFF 		bl	__aeabi_ldivmod
 3127              	.LVL253:
 101:src/main.cpp  ****         out[1+p]=(char)('1'+slot);
 3128              		.loc 6 101 20 view .LVU1056
 3129 0b88 2728     		cmp	r0, #39
 102:src/main.cpp  ****     }
 3130              		.loc 6 102 14 view .LVU1057
 3131 0b8a 20EAE070 		bic	r0, r0, r0, asr #31
 3132 0b8e 4FF02803 		mov	r3, #40
 101:src/main.cpp  ****         out[1+p]=(char)('1'+slot);
 3133              		.loc 6 101 9 is_stmt 1 view .LVU1058
 101:src/main.cpp  ****         out[1+p]=(char)('1'+slot);
 3134              		.loc 6 101 20 view .LVU1059
 102:src/main.cpp  ****     }
 3135              		.loc 6 102 14 is_stmt 0 view .LVU1060
 3136 0b92 D8BF     		it	le
 3137 0b94 431C     		addle	r3, r0, #1
ARM GAS  /tmp/claude-502/ccJ8DnOJ.s 			page 108


 102:src/main.cpp  ****     }
 3138              		.loc 6 102 9 is_stmt 1 view .LVU1061
 102:src/main.cpp  ****     }
 3139              		.loc 6 102 17 is_stmt 0 view .LVU1062
 3140 0b96 03F50273 		add	r3, r3, #520
 3141 0b9a 6B44     		add	r3, sp, r3
 3142 0b9c 03F8844C 		strb	r4, [r3, #-132]
 3143              	.L260:
 3144              	.LBE1189:
  98:src/main.cpp  ****         if(!tracked[slot].alive)continue;
 3145              		.loc 6 98 5 is_stmt 1 view .LVU1063
  98:src/main.cpp  ****         if(!tracked[slot].alive)continue;
 3146              		.loc 6 98 24 view .LVU1064
 3147 0ba0 0134     		adds	r4, r4, #1
 3148 0ba2 1436     		adds	r6, r6, #20
 3149 0ba4 E4B2     		uxtb	r4, r4
 3150 0ba6 352C     		cmp	r4, #53
 3151 0ba8 DCD1     		bne	.L262
 3152              	.LBE1188:
 3153              	.LBE1184:
 3154              	.LBE1183:
 899:src/main.cpp  ****         usb_log("\nPOS  %s",pos_bar);
 3155              		.loc 6 899 16 is_stmt 0 view .LVU1065
 3156 0baa 61A9     		add	r1, sp, #388
 3157              	.LVL254:
 3158              		.loc 6 899 16 view .LVU1066
 3159 0bac A948     		ldr	r0, .L562
 3160 0bae 4546     		mov	r5, r8
 3161              	.LVL255:
 3162              		.loc 6 899 9 is_stmt 1 view .LVU1067
 3163              		.loc 6 899 16 is_stmt 0 view .LVU1068
 3164 0bb0 FFF7FEFF 		bl	usb_log
 3165              	.LVL256:
 900:src/main.cpp  **** 
 901:src/main.cpp  ****         // Always print both finger rows ŌĆö inactive shows dashes so line count is stable
 902:src/main.cpp  ****         for(int slot=0;slot<2;slot++){
 3166              		.loc 6 902 9 is_stmt 1 view .LVU1069
 3167              	.LBB1190:
 3168              		.loc 6 902 28 view .LVU1070
 3169              	.LBE1190:
 899:src/main.cpp  ****         usb_log("\nPOS  %s",pos_bar);
 3170              		.loc 6 899 16 is_stmt 0 view .LVU1071
 3171 0bb4 0126     		movs	r6, #1
 3172 0bb6 0DF24514 		addw	r4, sp, #325
 3173 0bba DDF85480 		ldr	r8, [sp, #84]
 3174              	.LVL257:
 3175              	.L268:
 3176              	.LBB1199:
 903:src/main.cpp  ****             if(tracked[slot].alive){
 3177              		.loc 6 903 13 is_stmt 1 view .LVU1072
 3178 0bbe 98F80030 		ldrb	r3, [r8]	@ zero_extendqisi2
 3179 0bc2 002B     		cmp	r3, #0
 3180 0bc4 01F0B980 		beq	.L263
 904:src/main.cpp  ****                 make_bar(bar,tracked[slot].pressure,100,16);
 3181              		.loc 6 904 17 view .LVU1073
 3182              		.loc 6 904 25 is_stmt 0 view .LVU1074
 3183 0bc8 D8F80830 		ldr	r3, [r8, #8]
ARM GAS  /tmp/claude-502/ccJ8DnOJ.s 			page 109


 3184              	.LVL258:
 3185              	.LBB1191:
 3186              	.LBI1191:
  84:src/main.cpp  **** {
 3187              		.loc 6 84 6 is_stmt 1 view .LVU1075
 3188              	.LBB1192:
  86:src/main.cpp  ****     if(n>w)n=w;
 3189              		.loc 6 86 5 view .LVU1076
  86:src/main.cpp  ****     if(n>w)n=w;
 3190              		.loc 6 86 25 is_stmt 0 view .LVU1077
 3191 0bcc 002B     		cmp	r3, #0
 3192 0bce 41F37281 		ble	.L360
  86:src/main.cpp  ****     if(n>w)n=w;
 3193              		.loc 6 86 36 view .LVU1078
 3194 0bd2 1901     		lsls	r1, r3, #4
  86:src/main.cpp  ****     if(n>w)n=w;
 3195              		.loc 6 86 25 view .LVU1079
 3196 0bd4 A04A     		ldr	r2, .L562+4
  86:src/main.cpp  ****     if(n>w)n=w;
 3197              		.loc 6 86 38 view .LVU1080
 3198 0bd6 3231     		adds	r1, r1, #50
  86:src/main.cpp  ****     if(n>w)n=w;
 3199              		.loc 6 86 25 view .LVU1081
 3200 0bd8 A2FB0121 		umull	r2, r1, r2, r1
 3201 0bdc 4909     		lsrs	r1, r1, #5
 3202 0bde 1029     		cmp	r1, #16
 3203 0be0 A8BF     		it	ge
 3204 0be2 1021     		movge	r1, #16
 3205              	.L264:
  87:src/main.cpp  ****     out[0]='[';
 3206              		.loc 6 87 5 is_stmt 1 view .LVU1082
  88:src/main.cpp  ****     for(int i=0;i<w;i++)out[1+i]=(i<n)?'#':' ';
 3207              		.loc 6 88 5 view .LVU1083
  88:src/main.cpp  ****     for(int i=0;i<w;i++)out[1+i]=(i<n)?'#':' ';
 3208              		.loc 6 88 11 is_stmt 0 view .LVU1084
 3209 0be4 5B22     		movs	r2, #91
 3210 0be6 8DF83421 		strb	r2, [sp, #308]
  89:src/main.cpp  ****     out[1+w]=']';out[2+w]='\0';
 3211              		.loc 6 89 5 is_stmt 1 view .LVU1085
 3212              	.LVL259:
 3213              	.LBB1193:
  89:src/main.cpp  ****     out[1+w]=']';out[2+w]='\0';
 3214              		.loc 6 89 18 view .LVU1086
 3215              	.LBE1193:
  88:src/main.cpp  ****     for(int i=0;i<w;i++)out[1+i]=(i<n)?'#':' ';
 3216              		.loc 6 88 11 is_stmt 0 view .LVU1087
 3217 0bea 0DF23512 		addw	r2, sp, #309
 3218              	.LVL260:
 3219              	.L266:
 3220              	.LBB1194:
  89:src/main.cpp  ****     out[1+w]=']';out[2+w]='\0';
 3221              		.loc 6 89 25 is_stmt 1 view .LVU1088
  89:src/main.cpp  ****     out[1+w]=']';out[2+w]='\0';
 3222              		.loc 6 89 39 is_stmt 0 view .LVU1089
 3223 0bee 5019     		adds	r0, r2, r5
 3224 0bf0 8842     		cmp	r0, r1
 3225 0bf2 ACBF     		ite	ge
ARM GAS  /tmp/claude-502/ccJ8DnOJ.s 			page 110


 3226 0bf4 2020     		movge	r0, #32
 3227 0bf6 2320     		movlt	r0, #35
  89:src/main.cpp  ****     out[1+w]=']';out[2+w]='\0';
 3228              		.loc 6 89 33 view .LVU1090
 3229 0bf8 02F8010B 		strb	r0, [r2], #1
 3230              	.LVL261:
  89:src/main.cpp  ****     out[1+w]=']';out[2+w]='\0';
 3231              		.loc 6 89 5 is_stmt 1 view .LVU1091
  89:src/main.cpp  ****     out[1+w]=']';out[2+w]='\0';
 3232              		.loc 6 89 18 view .LVU1092
 3233 0bfc 9442     		cmp	r4, r2
 3234 0bfe F6D1     		bne	.L266
 3235              	.LBE1194:
  90:src/main.cpp  **** }
 3236              		.loc 6 90 5 view .LVU1093
 3237              	.LBE1192:
 3238              	.LBE1191:
 905:src/main.cpp  ****                 usb_log(" F%d  pos:%4d  prs:%3d%%  %s",
 3239              		.loc 6 905 24 is_stmt 0 view .LVU1094
 3240 0c00 4DAA     		add	r2, sp, #308
 3241              	.LVL262:
 3242              		.loc 6 905 24 view .LVU1095
 3243 0c02 3146     		mov	r1, r6
 3244 0c04 9548     		ldr	r0, .L562+8
 902:src/main.cpp  ****             if(tracked[slot].alive){
 3245              		.loc 6 902 28 view .LVU1096
 3246 0c06 08F11408 		add	r8, r8, #20
 3247              		.loc 6 905 24 view .LVU1097
 3248 0c0a 0092     		str	r2, [sp]
 3249              	.LBB1197:
 3250              	.LBB1195:
  90:src/main.cpp  **** }
 3251              		.loc 6 90 13 view .LVU1098
 3252 0c0c 5D22     		movs	r2, #93
 3253              	.LVL263:
  90:src/main.cpp  **** }
 3254              		.loc 6 90 13 view .LVU1099
 3255 0c0e 8DF84521 		strb	r2, [sp, #325]
  90:src/main.cpp  **** }
 3256              		.loc 6 90 18 is_stmt 1 view .LVU1100
  90:src/main.cpp  **** }
 3257              		.loc 6 90 26 is_stmt 0 view .LVU1101
 3258 0c12 0022     		movs	r2, #0
 3259 0c14 8DF84621 		strb	r2, [sp, #326]
 3260              	.LVL264:
  90:src/main.cpp  **** }
 3261              		.loc 6 90 26 view .LVU1102
 3262              	.LBE1195:
 3263              	.LBE1197:
 3264              		.loc 6 905 17 is_stmt 1 view .LVU1103
 3265              		.loc 6 905 24 is_stmt 0 view .LVU1104
 3266 0c18 58F8102C 		ldr	r2, [r8, #-16]
 3267 0c1c FFF7FEFF 		bl	usb_log
 3268              	.LVL265:
 902:src/main.cpp  ****             if(tracked[slot].alive){
 3269              		.loc 6 902 9 is_stmt 1 view .LVU1105
 902:src/main.cpp  ****             if(tracked[slot].alive){
ARM GAS  /tmp/claude-502/ccJ8DnOJ.s 			page 111


 3270              		.loc 6 902 28 view .LVU1106
 3271 0c20 022E     		cmp	r6, #2
 3272 0c22 41F09380 		bne	.L362
 3273              	.LVL266:
 3274              	.L550:
 902:src/main.cpp  ****             if(tracked[slot].alive){
 3275              		.loc 6 902 28 is_stmt 0 view .LVU1107
 3276              	.LBE1199:
 906:src/main.cpp  ****                     slot+1,(int)tracked[slot].pos,(int)tracked[slot].pressure,bar);
 907:src/main.cpp  ****             } else {
 908:src/main.cpp  ****                 usb_log(" F%d  pos: ---  prs: --%%  [                ]",slot+1);
 909:src/main.cpp  ****             }
 910:src/main.cpp  ****         }
 911:src/main.cpp  **** 
 912:src/main.cpp  ****         // FSR (master-volume) pressure: unpressed = 0%, pressed to mute = 100%.
 913:src/main.cpp  ****         int fsr_pct = (int)((1.0f - vol) * 100.0f + 0.5f);
 3277              		.loc 6 913 9 is_stmt 1 view .LVU1108
 3278              		.loc 6 913 35 is_stmt 0 view .LVU1109
 3279 0c26 B7EE007A 		vmov.f32	s14, #1.0e+0
 3280              		.loc 6 913 51 view .LVU1110
 3281 0c2a DFED8D6A 		vldr.32	s13, .L562+12
 3282 0c2e F6EE007A 		vmov.f32	s15, #5.0e-1
 3283              		.loc 6 913 35 view .LVU1111
 3284 0c32 37EE488A 		vsub.f32	s16, s14, s16
 3285              		.loc 6 913 51 view .LVU1112
 3286 0c36 E8EE267A 		vfma.f32	s15, s16, s13
 3287              		.loc 6 913 13 view .LVU1113
 3288 0c3a FDEEE77A 		vcvt.s32.f32	s15, s15
 3289 0c3e 17EE903A 		vmov	r3, s15	@ int
 3290              	.LVL267:
 914:src/main.cpp  ****         if(fsr_pct < 0) fsr_pct = 0; else if(fsr_pct > 100) fsr_pct = 100;
 3291              		.loc 6 914 9 is_stmt 1 view .LVU1114
 3292 0c42 17EE901A 		vmov	r1, s15	@ int
 3293 0c46 642B     		cmp	r3, #100
 3294 0c48 A8BF     		it	ge
 3295 0c4a 6421     		movge	r1, #100
 3296              	.LBB1200:
 3297              	.LBB1201:
  86:src/main.cpp  ****     if(n>w)n=w;
 3298              		.loc 6 86 25 is_stmt 0 view .LVU1115
 3299 0c4c 002B     		cmp	r3, #0
 3300 0c4e 21EAE171 		bic	r1, r1, r1, asr #31
 3301              	.LVL268:
  86:src/main.cpp  ****     if(n>w)n=w;
 3302              		.loc 6 86 25 view .LVU1116
 3303              	.LBE1201:
 3304              	.LBE1200:
 915:src/main.cpp  ****         make_bar(bar, fsr_pct, 100, 16);
 3305              		.loc 6 915 9 is_stmt 1 view .LVU1117
 3306              	.LBB1206:
 3307              	.LBI1200:
  84:src/main.cpp  **** {
 3308              		.loc 6 84 6 view .LVU1118
 3309              	.LBB1203:
  86:src/main.cpp  ****     if(n>w)n=w;
 3310              		.loc 6 86 5 view .LVU1119
  86:src/main.cpp  ****     if(n>w)n=w;
ARM GAS  /tmp/claude-502/ccJ8DnOJ.s 			page 112


 3311              		.loc 6 86 25 is_stmt 0 view .LVU1120
 3312 0c52 41F33381 		ble	.L363
  86:src/main.cpp  ****     if(n>w)n=w;
 3313              		.loc 6 86 36 view .LVU1121
 3314 0c56 0A01     		lsls	r2, r1, #4
  86:src/main.cpp  ****     if(n>w)n=w;
 3315              		.loc 6 86 25 view .LVU1122
 3316 0c58 7F4B     		ldr	r3, .L562+4
  86:src/main.cpp  ****     if(n>w)n=w;
 3317              		.loc 6 86 38 view .LVU1123
 3318 0c5a 3232     		adds	r2, r2, #50
  86:src/main.cpp  ****     if(n>w)n=w;
 3319              		.loc 6 86 25 view .LVU1124
 3320 0c5c A3FB0232 		umull	r3, r2, r3, r2
 3321 0c60 5209     		lsrs	r2, r2, #5
 3322              	.L269:
 3323              	.LVL269:
  87:src/main.cpp  ****     out[0]='[';
 3324              		.loc 6 87 5 is_stmt 1 view .LVU1125
  88:src/main.cpp  ****     for(int i=0;i<w;i++)out[1+i]=(i<n)?'#':' ';
 3325              		.loc 6 88 5 view .LVU1126
  88:src/main.cpp  ****     for(int i=0;i<w;i++)out[1+i]=(i<n)?'#':' ';
 3326              		.loc 6 88 11 is_stmt 0 view .LVU1127
 3327 0c62 5B23     		movs	r3, #91
 3328 0c64 8DF83431 		strb	r3, [sp, #308]
  89:src/main.cpp  ****     out[1+w]=']';out[2+w]='\0';
 3329              		.loc 6 89 5 is_stmt 1 view .LVU1128
 3330              	.LVL270:
 3331              	.LBB1202:
  89:src/main.cpp  ****     out[1+w]=']';out[2+w]='\0';
 3332              		.loc 6 89 18 view .LVU1129
 3333              	.L271:
  89:src/main.cpp  ****     out[1+w]=']';out[2+w]='\0';
 3334              		.loc 6 89 25 view .LVU1130
  89:src/main.cpp  ****     out[1+w]=']';out[2+w]='\0';
 3335              		.loc 6 89 39 is_stmt 0 view .LVU1131
 3336 0c68 EB19     		adds	r3, r5, r7
 3337 0c6a 9342     		cmp	r3, r2
 3338 0c6c ACBF     		ite	ge
 3339 0c6e 2023     		movge	r3, #32
 3340 0c70 2323     		movlt	r3, #35
  89:src/main.cpp  ****     out[1+w]=']';out[2+w]='\0';
 3341              		.loc 6 89 33 view .LVU1132
 3342 0c72 07F8013B 		strb	r3, [r7], #1
 3343              	.LVL271:
  89:src/main.cpp  ****     out[1+w]=']';out[2+w]='\0';
 3344              		.loc 6 89 5 is_stmt 1 view .LVU1133
  89:src/main.cpp  ****     out[1+w]=']';out[2+w]='\0';
 3345              		.loc 6 89 18 view .LVU1134
 3346 0c76 A742     		cmp	r7, r4
 3347 0c78 F6D1     		bne	.L271
 3348              	.LBE1202:
  90:src/main.cpp  **** }
 3349              		.loc 6 90 5 view .LVU1135
  90:src/main.cpp  **** }
 3350              		.loc 6 90 13 is_stmt 0 view .LVU1136
 3351 0c7a 5D23     		movs	r3, #93
ARM GAS  /tmp/claude-502/ccJ8DnOJ.s 			page 113


 3352              	.LBE1203:
 3353              	.LBE1206:
 916:src/main.cpp  ****         usb_log(" FSR pressure  %3d%%  %s", fsr_pct, bar);
 3354              		.loc 6 916 16 view .LVU1137
 3355 0c7c 4DAA     		add	r2, sp, #308
 3356              	.LVL272:
 3357              		.loc 6 916 16 view .LVU1138
 3358 0c7e 7948     		ldr	r0, .L562+16
 3359              	.LBB1207:
 3360              	.LBB1204:
  90:src/main.cpp  **** }
 3361              		.loc 6 90 13 view .LVU1139
 3362 0c80 8DF84531 		strb	r3, [sp, #325]
  90:src/main.cpp  **** }
 3363              		.loc 6 90 18 is_stmt 1 view .LVU1140
  90:src/main.cpp  **** }
 3364              		.loc 6 90 26 is_stmt 0 view .LVU1141
 3365 0c84 0023     		movs	r3, #0
 3366 0c86 8DF84631 		strb	r3, [sp, #326]
 3367              	.LVL273:
  90:src/main.cpp  **** }
 3368              		.loc 6 90 26 view .LVU1142
 3369              	.LBE1204:
 3370              	.LBE1207:
 3371              		.loc 6 916 9 is_stmt 1 view .LVU1143
 3372              		.loc 6 916 16 is_stmt 0 view .LVU1144
 3373 0c8a FFF7FEFF 		bl	usb_log
 3374              	.LVL274:
 917:src/main.cpp  **** 
 918:src/main.cpp  ****         // Audio param display ŌĆö fixed width, always same line count
 919:src/main.cpp  ****         int freq_i  = (int)g_target_freq;
 3375              		.loc 6 919 9 is_stmt 1 view .LVU1145
 3376              		.loc 6 919 23 is_stmt 0 view .LVU1146
 3377 0c8e 764B     		ldr	r3, .L562+20
 920:src/main.cpp  ****         int cut_i   = (int)g_target_cutoff;
 921:src/main.cpp  ****         int det_i10 = (int)(g_target_detune*10);
 3378              		.loc 6 921 44 view .LVU1147
 3379 0c90 F2EE044A 		vmov.f32	s9, #1.0e+1
 922:src/main.cpp  ****         int bc_i    = (int)(g_bitcrush*100);
 3380              		.loc 6 922 39 view .LVU1148
 3381 0c94 9FED725A 		vldr.32	s10, .L562+12
 3382              	.LVL275:
 919:src/main.cpp  ****         int cut_i   = (int)g_target_cutoff;
 3383              		.loc 6 919 23 view .LVU1149
 3384 0c98 D3ED006A 		vldr.32	s13, [r3]
 920:src/main.cpp  ****         int cut_i   = (int)g_target_cutoff;
 3385              		.loc 6 920 23 view .LVU1150
 3386 0c9c 734B     		ldr	r3, .L562+24
 919:src/main.cpp  ****         int cut_i   = (int)g_target_cutoff;
 3387              		.loc 6 919 28 view .LVU1151
 3388 0c9e FDEEE66A 		vcvt.s32.f32	s13, s13
 920:src/main.cpp  ****         int cut_i   = (int)g_target_cutoff;
 3389              		.loc 6 920 23 view .LVU1152
 3390 0ca2 93ED006A 		vldr.32	s12, [r3]
 921:src/main.cpp  ****         int bc_i    = (int)(g_bitcrush*100);
 3391              		.loc 6 921 29 view .LVU1153
 3392 0ca6 724B     		ldr	r3, .L562+28
ARM GAS  /tmp/claude-502/ccJ8DnOJ.s 			page 114


 919:src/main.cpp  ****         int cut_i   = (int)g_target_cutoff;
 3393              		.loc 6 919 28 view .LVU1154
 3394 0ca8 16EE901A 		vmov	r1, s13	@ int
 3395              	.LVL276:
 920:src/main.cpp  ****         int det_i10 = (int)(g_target_detune*10);
 3396              		.loc 6 920 9 is_stmt 1 view .LVU1155
 920:src/main.cpp  ****         int det_i10 = (int)(g_target_detune*10);
 3397              		.loc 6 920 28 is_stmt 0 view .LVU1156
 3398 0cac FDEEC66A 		vcvt.s32.f32	s13, s12
 921:src/main.cpp  ****         int bc_i    = (int)(g_bitcrush*100);
 3399              		.loc 6 921 29 view .LVU1157
 3400 0cb0 D3ED005A 		vldr.32	s11, [r3]
 3401              		.loc 6 922 29 view .LVU1158
 3402 0cb4 6F4B     		ldr	r3, .L562+32
 921:src/main.cpp  ****         int bc_i    = (int)(g_bitcrush*100);
 3403              		.loc 6 921 44 view .LVU1159
 3404 0cb6 65EEA45A 		vmul.f32	s11, s11, s9
 920:src/main.cpp  ****         int det_i10 = (int)(g_target_detune*10);
 3405              		.loc 6 920 28 view .LVU1160
 3406 0cba 16EE902A 		vmov	r2, s13	@ int
 3407              	.LVL277:
 921:src/main.cpp  ****         int bc_i    = (int)(g_bitcrush*100);
 3408              		.loc 6 921 9 is_stmt 1 view .LVU1161
 3409              		.loc 6 922 29 is_stmt 0 view .LVU1162
 3410 0cbe D3ED007A 		vldr.32	s15, [r3]
 923:src/main.cpp  ****         int vib_i   = (int)(g_vibrato_depth*100);
 3411              		.loc 6 923 29 view .LVU1163
 3412 0cc2 6D4B     		ldr	r3, .L562+36
 921:src/main.cpp  ****         int bc_i    = (int)(g_bitcrush*100);
 3413              		.loc 6 921 47 view .LVU1164
 3414 0cc4 FDEEE56A 		vcvt.s32.f32	s13, s11
 3415              		.loc 6 923 29 view .LVU1165
 3416 0cc8 93ED007A 		vldr.32	s14, [r3]
 922:src/main.cpp  ****         int vib_i   = (int)(g_vibrato_depth*100);
 3417              		.loc 6 922 39 view .LVU1166
 3418 0ccc 67EE857A 		vmul.f32	s15, s15, s10
 921:src/main.cpp  ****         int bc_i    = (int)(g_bitcrush*100);
 3419              		.loc 6 921 47 view .LVU1167
 3420 0cd0 16EE900A 		vmov	r0, s13	@ int
 3421              	.LVL278:
 922:src/main.cpp  ****         int vib_i   = (int)(g_vibrato_depth*100);
 3422              		.loc 6 922 9 is_stmt 1 view .LVU1168
 3423              		.loc 6 923 44 is_stmt 0 view .LVU1169
 3424 0cd4 27EE057A 		vmul.f32	s14, s14, s10
 922:src/main.cpp  ****         int vib_i   = (int)(g_vibrato_depth*100);
 3425              		.loc 6 922 43 view .LVU1170
 3426 0cd8 FDEEE77A 		vcvt.s32.f32	s15, s15
 3427              	.LVL279:
 3428              		.loc 6 923 9 is_stmt 1 view .LVU1171
 924:src/main.cpp  ****         usb_log("  freq:%4dHz  cut:%5dHz  det:%c%d.%ds  fx:%2d%%  vib:%2d%%",
 3429              		.loc 6 924 16 is_stmt 0 view .LVU1172
 3430 0cdc 0028     		cmp	r0, #0
 923:src/main.cpp  ****         usb_log("  freq:%4dHz  cut:%5dHz  det:%c%d.%ds  fx:%2d%%  vib:%2d%%",
 3431              		.loc 6 923 48 view .LVU1173
 3432 0cde BDEEC77A 		vcvt.s32.f32	s14, s14
 3433              	.LVL280:
 3434              		.loc 6 924 9 is_stmt 1 view .LVU1174
ARM GAS  /tmp/claude-502/ccJ8DnOJ.s 			page 115


 3435              		.loc 6 924 16 is_stmt 0 view .LVU1175
 3436 0ce2 C1F21D81 		blt	.L528
 3437 0ce6 654B     		ldr	r3, .L562+40
 3438 0ce8 C517     		asrs	r5, r0, #31
 3439 0cea 83FB0043 		smull	r4, r3, r3, r0
 3440 0cee C5EBA305 		rsb	r5, r5, r3, asr #2
 3441 0cf2 2B23     		movs	r3, #43
 3442 0cf4 05EB8504 		add	r4, r5, r5, lsl #2
 3443 0cf8 A0EB4404 		sub	r4, r0, r4, lsl #1
 3444              	.LVL281:
 3445              	.L275:
 588:src/main.cpp  ****         if(f1_on) f1_last_seen_ms = System::GetNow();
 3446              		.loc 6 588 14 discriminator 12 view .LVU1176
 3447 0cfc 0598     		ldr	r0, [sp, #20]
 3448              		.loc 6 924 16 discriminator 12 view .LVU1177
 3449 0cfe 8DED037A 		vstr.32	s14, [sp, #12]	@ int
 3450 0d02 CDED027A 		vstr.32	s15, [sp, #8]	@ int
 588:src/main.cpp  ****         if(f1_on) f1_last_seen_ms = System::GetNow();
 3451              		.loc 6 588 14 discriminator 12 view .LVU1178
 3452 0d06 0690     		str	r0, [sp, #24]
 3453              		.loc 6 924 16 discriminator 12 view .LVU1179
 3454 0d08 5D48     		ldr	r0, .L562+44
 3455 0d0a CDE90054 		strd	r5, r4, [sp]
 3456 0d0e FFF7FEFF 		bl	usb_log
 3457              	.LVL282:
 925:src/main.cpp  ****             freq_i, cut_i,
 926:src/main.cpp  ****             det_i10<0?'-':'+',
 927:src/main.cpp  ****             det_i10<0?(-det_i10)/10:det_i10/10,
 928:src/main.cpp  ****             det_i10<0?(-det_i10)%10:det_i10%10,
 929:src/main.cpp  ****             bc_i, vib_i);
 930:src/main.cpp  ****         usb_log("--------------------------------------------");
 3458              		.loc 6 930 9 is_stmt 1 discriminator 12 view .LVU1180
 3459              		.loc 6 930 16 is_stmt 0 discriminator 12 view .LVU1181
 3460 0d12 5C48     		ldr	r0, .L562+48
 3461 0d14 FFF7FEFF 		bl	usb_log
 3462              	.LVL283:
 931:src/main.cpp  **** 
 932:src/main.cpp  ****         System::Delay(CONTROL_DELAY_MS);
 3463              		.loc 6 932 9 is_stmt 1 discriminator 12 view .LVU1182
 3464              		.loc 6 932 22 is_stmt 0 discriminator 12 view .LVU1183
 3465 0d18 0320     		movs	r0, #3
 3466 0d1a FFF7FEFF 		bl	_ZN5daisy6System5DelayEm
 3467              	.LVL284:
 447:src/main.cpp  ****         else if(fsr_raw <= FSR_MIN) vol = 0.0f;
 3468              		.loc 6 447 20 discriminator 12 view .LVU1184
 3469 0d1e BDF87A80 		ldrh	r8, [sp, #122]
 3470 0d22 FFF702BB 		b	.L58
 3471              	.LVL285:
 3472              	.L146:
 3473              	.LBB1208:
 3474              	.LBB823:
 611:src/main.cpp  ****             deb_alive[i] = deb;
 3475              		.loc 6 611 13 is_stmt 1 view .LVU1185
 611:src/main.cpp  ****             deb_alive[i] = deb;
 3476              		.loc 6 611 48 is_stmt 0 view .LVU1186
 3477 0d26 1468     		ldr	r4, [r2]
 3478 0d28 AEEB0404 		sub	r4, lr, r4
ARM GAS  /tmp/claude-502/ccJ8DnOJ.s 			page 116


 611:src/main.cpp  ****             deb_alive[i] = deb;
 3479              		.loc 6 611 28 view .LVU1187
 3480 0d2c 272C     		cmp	r4, #39
 3481 0d2e 66DC     		bgt	.L529
 3482              	.LVL286:
 612:src/main.cpp  ****             if(!deb) continue;                              // truly lifted
 3483              		.loc 6 612 13 is_stmt 1 view .LVU1188
 612:src/main.cpp  ****             if(!deb) continue;                              // truly lifted
 3484              		.loc 6 612 26 is_stmt 0 view .LVU1189
 3485 0d30 0124     		movs	r4, #1
 3486              	.LBB810:
 616:src/main.cpp  ****                 int z = (int)(clampf((float)tracked[i].pos/1000.0f,0.0f,1.0f) * 4.0f);
 3487              		.loc 6 616 13 view .LVU1190
 3488 0d32 B8F10E0F 		cmp	r8, #14
 3489              	.LBE810:
 612:src/main.cpp  ****             if(!deb) continue;                              // truly lifted
 3490              		.loc 6 612 26 view .LVU1191
 3491 0d36 0C70     		strb	r4, [r1]
 613:src/main.cpp  **** 
 3492              		.loc 6 613 13 is_stmt 1 view .LVU1192
 615:src/main.cpp  ****             if(multi){
 3493              		.loc 6 615 13 view .LVU1193
 616:src/main.cpp  ****                 int z = (int)(clampf((float)tracked[i].pos/1000.0f,0.0f,1.0f) * 4.0f);
 3494              		.loc 6 616 13 view .LVU1194
 3495              	.LBB811:
 3496 0d38 7FF4E2AB 		bne	.L149
 3497              	.L519:
 3498              	.LBB787:
 617:src/main.cpp  ****                 if(z > 3) z = 3; vidx = MULTI_ZONES[z];
 3499              		.loc 6 617 17 view .LVU1195
 617:src/main.cpp  ****                 if(z > 3) z = 3; vidx = MULTI_ZONES[z];
 3500              		.loc 6 617 38 is_stmt 0 view .LVU1196
 3501 0d3c D3ED017A 		vldr.32	s15, [r3, #4]	@ int
 617:src/main.cpp  ****                 if(z > 3) z = 3; vidx = MULTI_ZONES[z];
 3502              		.loc 6 617 37 view .LVU1197
 3503 0d40 DFED516A 		vldr.32	s13, .L562+52
 617:src/main.cpp  ****                 if(z > 3) z = 3; vidx = MULTI_ZONES[z];
 3504              		.loc 6 617 38 view .LVU1198
 3505 0d44 F8EEE77A 		vcvt.f32.s32	s15, s15
 617:src/main.cpp  ****                 if(z > 3) z = 3; vidx = MULTI_ZONES[z];
 3506              		.loc 6 617 37 view .LVU1199
 3507 0d48 87EEA67A 		vdiv.f32	s14, s15, s13
 3508              	.LVL287:
 3509              	.LBB788:
 3510              	.LBI788:
  12:src/dsp.h     ****     return v<lo?lo:v>hi?hi:v;
 3511              		.loc 8 12 21 is_stmt 1 view .LVU1200
 3512              	.LBB789:
 3513              		.loc 8 13 5 view .LVU1201
 3514              		.loc 8 13 16 is_stmt 0 view .LVU1202
 3515 0d4c B5EEC07A 		vcmpe.f32	s14, #0
 3516 0d50 F1EE10FA 		vmrs	APSR_nzcv, FPSCR
 3517 0d54 7BD4     		bmi	.L312
 3518              		.loc 8 13 24 view .LVU1203
 3519 0d56 F7EE007A 		vmov.f32	s15, #1.0e+0
 3520 0d5a B4EEE77A 		vcmpe.f32	s14, s15
 3521 0d5e F1EE10FA 		vmrs	APSR_nzcv, FPSCR
ARM GAS  /tmp/claude-502/ccJ8DnOJ.s 			page 117


 3522 0d62 00F3AE83 		bgt	.L313
 3523              	.LBE789:
 3524              	.LBE788:
 617:src/main.cpp  ****                 if(z > 3) z = 3; vidx = MULTI_ZONES[z];
 3525              		.loc 6 617 85 view .LVU1204
 3526 0d66 F0EE477A 		vmov.f32	s15, s14
 618:src/main.cpp  ****             } else vidx = g_active_voice;
 3527              		.loc 6 618 39 view .LVU1205
 3528 0d6a 484F     		ldr	r7, .L562+56
 3529              	.LBE787:
 3530              	.LBE811:
 3531              	.LBB812:
 623:src/main.cpp  ****                 // Genuine new tap (after a real lift) ŌĆö fire immediately, no cap.
 3532              		.loc 6 623 13 view .LVU1206
 3533 0d6c 95F800A0 		ldrb	r10, [r5]	@ zero_extendqisi2
 3534              	.LBE812:
 3535              	.LBB813:
 3536              	.LBB794:
 617:src/main.cpp  ****                 if(z > 3) z = 3; vidx = MULTI_ZONES[z];
 3537              		.loc 6 617 85 view .LVU1207
 3538 0d70 FEEECF7A 		vcvt.s32.f32	s15, s15, #2
 3539 0d74 17EE904A 		vmov	r4, s15	@ int
 3540              	.LBE794:
 3541              	.LBE813:
 621:src/main.cpp  **** 
 3542              		.loc 6 621 19 view .LVU1208
 3543 0d78 D3ED027A 		vldr.32	s15, [r3, #8]	@ int
 3544              	.LBB814:
 3545              	.LBB795:
 618:src/main.cpp  ****             } else vidx = g_active_voice;
 3546              		.loc 6 618 39 view .LVU1209
 3547 0d7c 032C     		cmp	r4, #3
 3548              	.LBE795:
 3549              	.LBE814:
 621:src/main.cpp  **** 
 3550              		.loc 6 621 19 view .LVU1210
 3551 0d7e F8EEE77A 		vcvt.f32.s32	s15, s15
 3552              	.LBB815:
 3553              	.LBB796:
 618:src/main.cpp  ****             } else vidx = g_active_voice;
 3554              		.loc 6 618 39 view .LVU1211
 3555 0d82 A8BF     		it	ge
 3556 0d84 0324     		movge	r4, #3
 3557 0d86 57F82440 		ldr	r4, [r7, r4, lsl #2]
 3558              	.LVL288:
 618:src/main.cpp  ****             } else vidx = g_active_voice;
 3559              		.loc 6 618 39 view .LVU1212
 3560              	.LBE796:
 3561              	.LBE815:
 620:src/main.cpp  ****             float prs = (float)tracked[i].pressure;
 3562              		.loc 6 620 13 is_stmt 1 view .LVU1213
 621:src/main.cpp  **** 
 3563              		.loc 6 621 13 view .LVU1214
 623:src/main.cpp  ****                 // Genuine new tap (after a real lift) ŌĆö fire immediately, no cap.
 3564              		.loc 6 623 13 view .LVU1215
 3565              	.LBB816:
 3566 0d8a BAF1000F 		cmp	r10, #0
ARM GAS  /tmp/claude-502/ccJ8DnOJ.s 			page 118


 3567 0d8e 3FF4C3AB 		beq	.L530
 3568              	.LVL289:
 3569              	.L152:
 623:src/main.cpp  ****                 // Genuine new tap (after a real lift) ŌĆö fire immediately, no cap.
 3570              		.loc 6 623 13 is_stmt 0 view .LVU1216
 3571              	.LBE816:
 3572              	.LBE823:
 3573              	.LBE1208:
 3574              	.LBE1307:
 626:src/main.cpp  ****                 // Held: re-attack on a sharp pressure rise, capped by retrig_ms.
 3575              		.loc 6 626 20 is_stmt 1 view .LVU1217
 3576              	.LBB1308:
 3577              	.LBB1209:
 3578              	.LBB824:
 3579              	.LBB817:
 3580              	.LBB801:
 3581 0d92 0028     		cmp	r0, #0
 3582 0d94 3FF4C8AB 		beq	.L148
 3583              	.LBB802:
 629:src/main.cpp  ****                 if(rms > 0.0f && (prs_sm[i] - prev) > RISE_THRESH
 3584              		.loc 6 629 50 is_stmt 0 view .LVU1218
 3585 0d98 B6EE007A 		vmov.f32	s14, #5.0e-1
 3586              	.LBE802:
 3587              	.LBE801:
 3588              	.LBE817:
 620:src/main.cpp  ****             float prs = (float)tracked[i].pressure;
 3589              		.loc 6 620 19 view .LVU1219
 3590 0d9c 04EB4404 		add	r4, r4, r4, lsl #1
 3591              	.LVL290:
 620:src/main.cpp  ****             float prs = (float)tracked[i].pressure;
 3592              		.loc 6 620 19 view .LVU1220
 3593 0da0 3B48     		ldr	r0, .L562+60
 3594              	.LVL291:
 3595              	.LBB818:
 3596              	.LBB806:
 3597              	.LBB803:
 628:src/main.cpp  ****                 prs_sm[i] = prev*PRS_SMOOTH + prs*(1.0f - PRS_SMOOTH);
 3598              		.loc 6 628 23 view .LVU1221
 3599 0da2 96ED006A 		vldr.32	s12, [r6]
 3600              	.LBE803:
 3601              	.LBE806:
 3602              	.LBE818:
 620:src/main.cpp  ****             float prs = (float)tracked[i].pressure;
 3603              		.loc 6 620 19 view .LVU1222
 3604 0da6 00EB8414 		add	r4, r0, r4, lsl #6
 3605              	.LBB819:
 3606              	.LBB807:
 3607              	.LBB804:
 629:src/main.cpp  ****                 if(rms > 0.0f && (prs_sm[i] - prev) > RISE_THRESH
 3608              		.loc 6 629 50 view .LVU1223
 3609 0daa 67EE877A 		vmul.f32	s15, s15, s14
 3610              	.LVL292:
 629:src/main.cpp  ****                 if(rms > 0.0f && (prs_sm[i] - prev) > RISE_THRESH
 3611              		.loc 6 629 50 view .LVU1224
 3612              	.LBE804:
 3613              	.LBE807:
 3614              	.LBE819:
ARM GAS  /tmp/claude-502/ccJ8DnOJ.s 			page 119


 620:src/main.cpp  ****             float prs = (float)tracked[i].pressure;
 3615              		.loc 6 620 19 view .LVU1225
 3616 0dae D4ED216A 		vldr.32	s13, [r4, #132]
 3617              	.LBB820:
 3618              	.LBB808:
 3619              	.LBB805:
 628:src/main.cpp  ****                 prs_sm[i] = prev*PRS_SMOOTH + prs*(1.0f - PRS_SMOOTH);
 3620              		.loc 6 628 17 is_stmt 1 view .LVU1226
 3621              	.LVL293:
 629:src/main.cpp  ****                 if(rms > 0.0f && (prs_sm[i] - prev) > RISE_THRESH
 3622              		.loc 6 629 17 view .LVU1227
 629:src/main.cpp  ****                 if(rms > 0.0f && (prs_sm[i] - prev) > RISE_THRESH
 3623              		.loc 6 629 45 is_stmt 0 view .LVU1228
 3624 0db2 E6EE077A 		vfma.f32	s15, s12, s14
 630:src/main.cpp  ****                    && (int32_t)(now_ms - last_retrig[i]) >= (int32_t)rms){
 3625              		.loc 6 630 17 view .LVU1229
 3626 0db6 F5EEC06A 		vcmpe.f32	s13, #0
 3627 0dba F1EE10FA 		vmrs	APSR_nzcv, FPSCR
 629:src/main.cpp  ****                 if(rms > 0.0f && (prs_sm[i] - prev) > RISE_THRESH
 3628              		.loc 6 629 27 view .LVU1230
 3629 0dbe C6ED007A 		vstr.32	s15, [r6]
 630:src/main.cpp  ****                    && (int32_t)(now_ms - last_retrig[i]) >= (int32_t)rms){
 3630              		.loc 6 630 17 is_stmt 1 view .LVU1231
 3631 0dc2 7FF7B1AB 		ble	.L148
 630:src/main.cpp  ****                    && (int32_t)(now_ms - last_retrig[i]) >= (int32_t)rms){
 3632              		.loc 6 630 45 is_stmt 0 discriminator 1 view .LVU1232
 3633 0dc6 77EEC67A 		vsub.f32	s15, s15, s12
 630:src/main.cpp  ****                    && (int32_t)(now_ms - last_retrig[i]) >= (int32_t)rms){
 3634              		.loc 6 630 31 discriminator 1 view .LVU1233
 3635 0dca B3EE027A 		vmov.f32	s14, #1.8e+1
 3636 0dce F4EEC77A 		vcmpe.f32	s15, s14
 3637 0dd2 F1EE10FA 		vmrs	APSR_nzcv, FPSCR
 3638 0dd6 7FF7A7AB 		ble	.L148
 631:src/main.cpp  ****                     reatk[i] = true; last_retrig[i] = now_ms;
 3639              		.loc 6 631 40 view .LVU1234
 3640 0dda 049F     		ldr	r7, [sp, #16]
 631:src/main.cpp  ****                     reatk[i] = true; last_retrig[i] = now_ms;
 3641              		.loc 6 631 61 view .LVU1235
 3642 0ddc FDEEE66A 		vcvt.s32.f32	s13, s13
 631:src/main.cpp  ****                     reatk[i] = true; last_retrig[i] = now_ms;
 3643              		.loc 6 631 40 view .LVU1236
 3644 0de0 3868     		ldr	r0, [r7]
 631:src/main.cpp  ****                     reatk[i] = true; last_retrig[i] = now_ms;
 3645              		.loc 6 631 20 view .LVU1237
 3646 0de2 16EE904A 		vmov	r4, s13	@ int
 631:src/main.cpp  ****                     reatk[i] = true; last_retrig[i] = now_ms;
 3647              		.loc 6 631 40 view .LVU1238
 3648 0de6 AEEB0000 		sub	r0, lr, r0
 631:src/main.cpp  ****                     reatk[i] = true; last_retrig[i] = now_ms;
 3649              		.loc 6 631 20 view .LVU1239
 3650 0dea A042     		cmp	r0, r4
 3651 0dec FFF69CAB 		blt	.L148
 632:src/main.cpp  ****                 }
 3652              		.loc 6 632 21 is_stmt 1 view .LVU1240
 632:src/main.cpp  ****                 }
 3653              		.loc 6 632 30 is_stmt 0 view .LVU1241
 3654 0df0 0120     		movs	r0, #1
ARM GAS  /tmp/claude-502/ccJ8DnOJ.s 			page 120


 632:src/main.cpp  ****                 }
 3655              		.loc 6 632 53 view .LVU1242
 3656 0df2 C7F800E0 		str	lr, [r7]
 632:src/main.cpp  ****                 }
 3657              		.loc 6 632 30 view .LVU1243
 3658 0df6 8CF80000 		strb	r0, [ip]
 632:src/main.cpp  ****                 }
 3659              		.loc 6 632 38 is_stmt 1 view .LVU1244
 3660 0dfa FFF795BB 		b	.L148
 3661              	.LVL294:
 3662              	.L529:
 632:src/main.cpp  ****                 }
 3663              		.loc 6 632 38 is_stmt 0 view .LVU1245
 3664              	.LBE805:
 3665              	.LBE808:
 3666              	.LBE820:
 612:src/main.cpp  ****             if(!deb) continue;                              // truly lifted
 3667              		.loc 6 612 13 is_stmt 1 view .LVU1246
 612:src/main.cpp  ****             if(!deb) continue;                              // truly lifted
 3668              		.loc 6 612 26 is_stmt 0 view .LVU1247
 3669 0dfe 0870     		strb	r0, [r1]
 613:src/main.cpp  **** 
 3670              		.loc 6 613 13 is_stmt 1 view .LVU1248
 3671 0e00 FFF792BB 		b	.L148
 3672              	.LVL295:
 3673              	.L63:
 613:src/main.cpp  **** 
 3674              		.loc 6 613 13 is_stmt 0 view .LVU1249
 3675              	.LBE824:
 3676              	.LBE1209:
 450:src/main.cpp  **** 
 3677              		.loc 6 450 9 is_stmt 1 view .LVU1250
 457:src/main.cpp  ****         else if(vol >= 0.4f)   full_state = false;   // clearly eased off
 3678              		.loc 6 457 9 is_stmt 0 view .LVU1251
 3679 0e04 B0F5FA5F 		cmp	r0, #8000
 450:src/main.cpp  **** 
 3680              		.loc 6 450 22 view .LVU1252
 3681 0e08 F7EE007A 		vmov.f32	s15, #1.0e+0
 457:src/main.cpp  ****         else if(vol >= 0.4f)   full_state = false;   // clearly eased off
 3682              		.loc 6 457 9 view .LVU1253
 3683 0e0c 8CBF     		ite	hi
 3684 0e0e 0023     		movhi	r3, #0
 3685 0e10 0123     		movls	r3, #1
 447:src/main.cpp  ****         else if(fsr_raw <= FSR_MIN) vol = 0.0f;
 3686              		.loc 6 447 41 view .LVU1254
 3687 0e12 B0EE678A 		vmov.f32	s16, s15
 457:src/main.cpp  ****         else if(vol >= 0.4f)   full_state = false;   // clearly eased off
 3688              		.loc 6 457 9 view .LVU1255
 3689 0e16 0793     		str	r3, [sp, #28]
 3690              	.LVL296:
 450:src/main.cpp  **** 
 3691              		.loc 6 450 22 view .LVU1256
 3692 0e18 1E4B     		ldr	r3, .L562+64
 3693 0e1a C3ED007A 		vstr.32	s15, [r3]
 457:src/main.cpp  ****         else if(vol >= 0.4f)   full_state = false;   // clearly eased off
 3694              		.loc 6 457 9 is_stmt 1 view .LVU1257
 3695 0e1e FFF7A8BA 		b	.L65
ARM GAS  /tmp/claude-502/ccJ8DnOJ.s 			page 121


 3696              	.LVL297:
 3697              	.L226:
 3698              	.LBB1210:
 866:src/main.cpp  ****             g_bitcrush      = 0.0f;
 3699              		.loc 6 866 13 view .LVU1258
 866:src/main.cpp  ****             g_bitcrush      = 0.0f;
 3700              		.loc 6 866 29 is_stmt 0 view .LVU1259
 3701 0e22 0023     		movs	r3, #0
 3702 0e24 124A     		ldr	r2, .L562+28
 3703 0e26 1360     		str	r3, [r2]	@ float
 867:src/main.cpp  ****             g_ringmod       = 0.0f;
 3704              		.loc 6 867 13 is_stmt 1 view .LVU1260
 867:src/main.cpp  ****             g_ringmod       = 0.0f;
 3705              		.loc 6 867 29 is_stmt 0 view .LVU1261
 3706 0e28 124A     		ldr	r2, .L562+32
 3707 0e2a 1360     		str	r3, [r2]	@ float
 868:src/main.cpp  ****         }
 3708              		.loc 6 868 13 is_stmt 1 view .LVU1262
 3709              	.LBE1210:
 874:src/main.cpp  ****            System::GetNow() - last_print_ms < PRINT_INTERVAL_MS){
 3710              		.loc 6 874 9 view .LVU1263
 3711              	.LBB1211:
 868:src/main.cpp  ****         }
 3712              		.loc 6 868 29 is_stmt 0 view .LVU1264
 3713 0e2c 1A4A     		ldr	r2, .L562+68
 3714 0e2e 1360     		str	r3, [r2]	@ float
 3715              	.LBE1211:
 874:src/main.cpp  ****            System::GetNow() - last_print_ms < PRINT_INTERVAL_MS){
 3716              		.loc 6 874 32 view .LVU1265
 3717 0e30 FFF7FEFF 		bl	_Z20serial_display_mutedv
 3718              	.LVL298:
 874:src/main.cpp  ****            System::GetNow() - last_print_ms < PRINT_INTERVAL_MS){
 3719              		.loc 6 874 35 view .LVU1266
 3720 0e34 0646     		mov	r6, r0
 3721 0e36 0028     		cmp	r0, #0
 3722 0e38 3FF4C0AD 		beq	.L531
 3723              	.L240:
 876:src/main.cpp  ****             continue;
 3724              		.loc 6 876 13 is_stmt 1 view .LVU1267
 588:src/main.cpp  ****         if(f1_on) f1_last_seen_ms = System::GetNow();
 3725              		.loc 6 588 14 is_stmt 0 view .LVU1268
 3726 0e3c 059B     		ldr	r3, [sp, #20]
 876:src/main.cpp  ****             continue;
 3727              		.loc 6 876 26 view .LVU1269
 3728 0e3e 0320     		movs	r0, #3
 588:src/main.cpp  ****         if(f1_on) f1_last_seen_ms = System::GetNow();
 3729              		.loc 6 588 14 view .LVU1270
 3730 0e40 0693     		str	r3, [sp, #24]
 876:src/main.cpp  ****             continue;
 3731              		.loc 6 876 26 view .LVU1271
 3732 0e42 FFF7FEFF 		bl	_ZN5daisy6System5DelayEm
 3733              	.LVL299:
 877:src/main.cpp  ****         }
 3734              		.loc 6 877 13 is_stmt 1 view .LVU1272
 447:src/main.cpp  ****         else if(fsr_raw <= FSR_MIN) vol = 0.0f;
 3735              		.loc 6 447 20 is_stmt 0 view .LVU1273
 3736 0e46 BDF87A80 		ldrh	r8, [sp, #122]
ARM GAS  /tmp/claude-502/ccJ8DnOJ.s 			page 122


 877:src/main.cpp  ****         }
 3737              		.loc 6 877 13 view .LVU1274
 3738 0e4a FFF76EBA 		b	.L58
 3739              	.LVL300:
 3740              	.L312:
 3741              	.LBB1212:
 3742              	.LBB825:
 3743              	.LBB821:
 3744              	.LBB797:
 3745              	.LBB792:
 3746              	.LBB790:
 877:src/main.cpp  ****         }
 3747              		.loc 6 877 13 view .LVU1275
 3748 0e4e 0924     		movs	r4, #9
 3749 0e50 FFF758BB 		b	.L151
 3750              	.L563:
 3751              		.align	2
 3752              	.L562:
 3753 0e54 74020000 		.word	.LC23
 3754 0e58 1F85EB51 		.word	1374389535
 3755 0e5c 80020000 		.word	.LC24
 3756 0e60 0000C842 		.word	1120403456
 3757 0e64 D0020000 		.word	.LC26
 3758 0e68 00000000 		.word	g_target_freq
 3759 0e6c 00000000 		.word	g_target_cutoff
 3760 0e70 00000000 		.word	g_target_detune
 3761 0e74 00000000 		.word	g_bitcrush
 3762 0e78 00000000 		.word	g_vibrato_depth
 3763 0e7c 67666666 		.word	1717986919
 3764 0e80 EC020000 		.word	.LC27
 3765 0e84 28030000 		.word	.LC28
 3766 0e88 00007A44 		.word	1148846080
 3767 0e8c 00000000 		.word	.LANCHOR6
 3768 0e90 00000000 		.word	g_bank
 3769 0e94 00000000 		.word	g_master_vol
 3770 0e98 00000000 		.word	g_ringmod
 3771              	.LVL301:
 3772              	.L513:
 877:src/main.cpp  ****         }
 3773              		.loc 6 877 13 view .LVU1276
 3774              	.LBE790:
 3775              	.LBE792:
 3776              	.LBE797:
 3777              	.LBE821:
 3778              	.LBE825:
 3779              	.LBE1212:
 3780              	.LBB1213:
 489:src/main.cpp  **** 
 3781              		.loc 6 489 13 is_stmt 1 view .LVU1277
 489:src/main.cpp  **** 
 3782              		.loc 6 489 51 is_stmt 0 view .LVU1278
 3783 0e9c 149B     		ldr	r3, [sp, #80]
 3784 0e9e C71A     		subs	r7, r0, r3
 3785              	.LBB770:
 491:src/main.cpp  ****                 if(full_state && !touching){
 3786              		.loc 6 491 13 view .LVU1279
 3787 0ea0 0C9B     		ldr	r3, [sp, #48]
ARM GAS  /tmp/claude-502/ccJ8DnOJ.s 			page 123


 3788              	.LBE770:
 489:src/main.cpp  **** 
 3789              		.loc 6 489 34 view .LVU1280
 3790 0ea2 3B2F     		cmp	r7, #59
 3791 0ea4 CCBF     		ite	gt
 3792 0ea6 0027     		movgt	r7, #0
 3793 0ea8 0127     		movle	r7, #1
 3794              	.LVL302:
 491:src/main.cpp  ****                 if(full_state && !touching){
 3795              		.loc 6 491 13 is_stmt 1 view .LVU1281
 3796              	.LBB771:
 3797 0eaa 002B     		cmp	r3, #0
 3798 0eac 7FF4CDAA 		bne	.L284
 492:src/main.cpp  ****                     if(full_since == 0) full_since = now;
 3799              		.loc 6 492 17 view .LVU1282
 3800 0eb0 079B     		ldr	r3, [sp, #28]
 3801 0eb2 002B     		cmp	r3, #0
 3802 0eb4 01F0D081 		beq	.L297
 493:src/main.cpp  ****                     idle_since = now; last_touch_ms = now;   // freeze idle/rebaseline
 3803              		.loc 6 493 21 view .LVU1283
 3804 0eb8 179B     		ldr	r3, [sp, #92]
 3805 0eba 002B     		cmp	r3, #0
 3806 0ebc 00F0B384 		beq	.L298
 3807              	.LVL303:
 494:src/main.cpp  ****                     if(now - full_since >= VOICE_SELECT_ENTER_MS){
 3808              		.loc 6 494 21 view .LVU1284
 494:src/main.cpp  ****                     if(now - full_since >= VOICE_SELECT_ENTER_MS){
 3809              		.loc 6 494 39 view .LVU1285
 495:src/main.cpp  ****                         sel_mode     = 1;
 3810              		.loc 6 495 21 view .LVU1286
 495:src/main.cpp  ****                         sel_mode     = 1;
 3811              		.loc 6 495 28 is_stmt 0 view .LVU1287
 3812 0ec0 F31A     		subs	r3, r6, r3
 3813              	.LVL304:
 495:src/main.cpp  ****                         sel_mode     = 1;
 3814              		.loc 6 495 21 view .LVU1288
 3815 0ec2 B3F5FA6F 		cmp	r3, #2000
 3816 0ec6 C0F05286 		bcc	.L299
 496:src/main.cpp  ****                         g_amp_target = 0.0f;                 // silence any held note
 3817              		.loc 6 496 25 is_stmt 1 view .LVU1289
 3818              	.LVL305:
 497:src/main.cpp  ****                         if(!g_serial_quiet)
 3819              		.loc 6 497 25 view .LVU1290
 497:src/main.cpp  ****                         if(!g_serial_quiet)
 3820              		.loc 6 497 38 is_stmt 0 view .LVU1291
 3821 0eca 0023     		movs	r3, #0
 3822 0ecc BA4A     		ldr	r2, .L564
 3823 0ece 1360     		str	r3, [r2]	@ float
 498:src/main.cpp  ****                           usb_log("[voice select] %s (%d/%d) - tap/slide glass; release FSR to keep
 3824              		.loc 6 498 25 is_stmt 1 view .LVU1292
 498:src/main.cpp  ****                           usb_log("[voice select] %s (%d/%d) - tap/slide glass; release FSR to keep
 3825              		.loc 6 498 29 is_stmt 0 view .LVU1293
 3826 0ed0 BA4B     		ldr	r3, .L564+4
 3827 0ed2 1B78     		ldrb	r3, [r3]	@ zero_extendqisi2
 498:src/main.cpp  ****                           usb_log("[voice select] %s (%d/%d) - tap/slide glass; release FSR to keep
 3828              		.loc 6 498 25 view .LVU1294
 3829 0ed4 002B     		cmp	r3, #0
ARM GAS  /tmp/claude-502/ccJ8DnOJ.s 			page 124


 3830 0ed6 01F03580 		beq	.L532
 3831              	.LVL306:
 3832              	.L73:
 501:src/main.cpp  ****                     }
 3833              		.loc 6 501 25 is_stmt 1 view .LVU1295
 501:src/main.cpp  ****                     }
 3834              		.loc 6 501 36 is_stmt 0 view .LVU1296
 3835 0eda B94B     		ldr	r3, .L564+8
 3836 0edc 1B68     		ldr	r3, [r3]
 3837              	.LVL307:
 3838              	.LBB729:
 3839              	.LBI729:
1051:src/voice.h   ****   int p = 0;
 3840              		.loc 7 1051 12 is_stmt 1 view .LVU1297
 3841              	.LBB730:
1052:src/voice.h   ****   for (int i = 0; i <= idx && i < NUM_VOICES; i++)
 3842              		.loc 7 1052 3 view .LVU1298
1053:src/voice.h   ****     if (!VOICES[i].no_cycle)
 3843              		.loc 7 1053 3 view .LVU1299
 3844              	.LBB731:
1053:src/voice.h   ****     if (!VOICES[i].no_cycle)
 3845              		.loc 7 1053 28 view .LVU1300
 3846 0ede 0E2B     		cmp	r3, #14
 3847 0ee0 1846     		mov	r0, r3
 3848 0ee2 A8BF     		it	ge
 3849 0ee4 0E20     		movge	r0, #14
 3850 0ee6 002B     		cmp	r3, #0
 3851 0ee8 C0F2CD87 		blt	.L79
 3852              	.LBE731:
1052:src/voice.h   ****   for (int i = 0; i <= idx && i < NUM_VOICES; i++)
 3853              		.loc 7 1052 7 is_stmt 0 view .LVU1301
 3854 0eec 0023     		movs	r3, #0
 3855              	.LVL308:
 3856              	.LBB732:
1053:src/voice.h   ****     if (!VOICES[i].no_cycle)
 3857              		.loc 7 1053 28 view .LVU1302
 3858 0eee B54A     		ldr	r2, .L564+12
1053:src/voice.h   ****     if (!VOICES[i].no_cycle)
 3859              		.loc 7 1053 12 view .LVU1303
 3860 0ef0 9C46     		mov	ip, r3
 3861              	.LVL309:
 3862              	.L81:
1054:src/voice.h   ****       p++;
 3863              		.loc 7 1054 5 is_stmt 1 view .LVU1304
 3864              		.loc 7 1055 7 view .LVU1305
1054:src/voice.h   ****       p++;
 3865              		.loc 7 1054 5 is_stmt 0 view .LVU1306
 3866 0ef2 92F87C10 		ldrb	r1, [r2, #124]	@ zero_extendqisi2
1053:src/voice.h   ****     if (!VOICES[i].no_cycle)
 3867              		.loc 7 1053 3 view .LVU1307
 3868 0ef6 0133     		adds	r3, r3, #1
 3869              	.LVL310:
1053:src/voice.h   ****     if (!VOICES[i].no_cycle)
 3870              		.loc 7 1053 28 view .LVU1308
 3871 0ef8 C032     		adds	r2, r2, #192
1054:src/voice.h   ****       p++;
 3872              		.loc 7 1054 5 view .LVU1309
ARM GAS  /tmp/claude-502/ccJ8DnOJ.s 			page 125


 3873 0efa 09B9     		cbnz	r1, .L80
 3874              		.loc 7 1055 8 view .LVU1310
 3875 0efc 0CF1010C 		add	ip, ip, #1
 3876              	.LVL311:
 3877              	.L80:
1053:src/voice.h   ****     if (!VOICES[i].no_cycle)
 3878              		.loc 7 1053 3 is_stmt 1 view .LVU1311
1053:src/voice.h   ****     if (!VOICES[i].no_cycle)
 3879              		.loc 7 1053 28 view .LVU1312
 3880 0f00 8342     		cmp	r3, r0
 3881 0f02 F6DD     		ble	.L81
1053:src/voice.h   ****     if (!VOICES[i].no_cycle)
 3882              		.loc 7 1053 28 is_stmt 0 view .LVU1313
 3883              	.LBE732:
1056:src/voice.h   ****   return p;
 3884              		.loc 7 1056 3 is_stmt 1 view .LVU1314
 3885              	.LVL312:
 3886              		.loc 7 1056 3 is_stmt 0 view .LVU1315
 3887              	.LBE730:
 3888              	.LBE729:
 3889              	.LBB733:
 3890              	.LBB734:
 359:src/main.cpp  ****         else     { leds_write(false); blink_on = false; }
 3891              		.loc 6 359 9 view .LVU1316
 3892 0f04 6346     		mov	r3, ip
 3893              	.LVL313:
 359:src/main.cpp  ****         else     { leds_write(false); blink_on = false; }
 3894              		.loc 6 359 9 view .LVU1317
 3895              	.LBE734:
 3896              	.LBI733:
 357:src/main.cpp  ****         blink_left = n;
 3897              		.loc 6 357 24 is_stmt 1 view .LVU1318
 3898              	.LBB747:
 358:src/main.cpp  ****         if(n > 0){ leds_write(true); blink_on = true; blink_t = now + 110; }
 3899              		.loc 6 358 9 view .LVU1319
 359:src/main.cpp  ****         else     { leds_write(false); blink_on = false; }
 3900              		.loc 6 359 9 view .LVU1320
 3901 0f06 CDF828C0 		str	ip, [sp, #40]
 3902 0f0a 002B     		cmp	r3, #0
 3903 0f0c 00F0BB87 		beq	.L79
 359:src/main.cpp  ****         else     { leds_write(false); blink_on = false; }
 3904              		.loc 6 359 20 view .LVU1321
 3905              	.LVL314:
 3906              	.LBB735:
 3907              	.LBI735:
 352:src/main.cpp  ****         hw.dac.WriteValue(DacHandle::Channel::ONE, on ? (uint16_t)LED1_MAX : 0);
 3908              		.loc 6 352 23 view .LVU1322
 3909              	.LBB736:
 353:src/main.cpp  ****         hw.dac.WriteValue(DacHandle::Channel::TWO, on ? (uint16_t)LED2_MAX : 0);
 3910              		.loc 6 353 9 view .LVU1323
 353:src/main.cpp  ****         hw.dac.WriteValue(DacHandle::Channel::TWO, on ? (uint16_t)LED2_MAX : 0);
 3911              		.loc 6 353 26 is_stmt 0 view .LVU1324
 3912 0f10 40F6FF72 		movw	r2, #4095
 3913 0f14 0021     		movs	r1, #0
 3914 0f16 AC48     		ldr	r0, .L564+16
 3915              	.LBE736:
 3916              	.LBE735:
ARM GAS  /tmp/claude-502/ccJ8DnOJ.s 			page 126


 3917 0f18 0997     		str	r7, [sp, #36]
 3918              	.LVL315:
 3919              	.LBB739:
 3920              	.LBB737:
 353:src/main.cpp  ****         hw.dac.WriteValue(DacHandle::Channel::TWO, on ? (uint16_t)LED2_MAX : 0);
 3921              		.loc 6 353 26 view .LVU1325
 3922 0f1a FFF7FEFF 		bl	_ZN5daisy9DacHandle10WriteValueENS0_7ChannelEt
 3923              	.LVL316:
 354:src/main.cpp  ****         g_led3_duty = on ? LED3_INTENSITY : 0.0f;
 3924              		.loc 6 354 9 is_stmt 1 view .LVU1326
 354:src/main.cpp  ****         g_led3_duty = on ? LED3_INTENSITY : 0.0f;
 3925              		.loc 6 354 26 is_stmt 0 view .LVU1327
 3926 0f1e 40F6FF72 		movw	r2, #4095
 3927 0f22 0121     		movs	r1, #1
 3928 0f24 A848     		ldr	r0, .L564+16
 3929 0f26 FFF7FEFF 		bl	_ZN5daisy9DacHandle10WriteValueENS0_7ChannelEt
 3930              	.LVL317:
 355:src/main.cpp  ****     };
 3931              		.loc 6 355 9 is_stmt 1 view .LVU1328
 355:src/main.cpp  ****     };
 3932              		.loc 6 355 21 is_stmt 0 view .LVU1329
 3933 0f2a A84B     		ldr	r3, .L564+20
 3934 0f2c 169A     		ldr	r2, [sp, #88]
 3935              	.LBE737:
 3936              	.LBE739:
 3937 0f2e 0D96     		str	r6, [sp, #52]
 3938              	.LBB740:
 3939              	.LBB738:
 3940 0f30 1360     		str	r3, [r2]	@ float
 3941              	.LVL318:
 355:src/main.cpp  ****     };
 3942              		.loc 6 355 21 view .LVU1330
 3943              	.LBE738:
 3944              	.LBE740:
 359:src/main.cpp  ****         else     { leds_write(false); blink_on = false; }
 3945              		.loc 6 359 38 is_stmt 1 view .LVU1331
 359:src/main.cpp  ****         else     { leds_write(false); blink_on = false; }
 3946              		.loc 6 359 55 view .LVU1332
 359:src/main.cpp  ****         else     { leds_write(false); blink_on = false; }
 3947              		.loc 6 359 69 is_stmt 0 view .LVU1333
 3948 0f32 06F16E03 		add	r3, r6, #110
 3949 0f36 1093     		str	r3, [sp, #64]
 3950              	.LVL319:
 359:src/main.cpp  ****         else     { leds_write(false); blink_on = false; }
 3951              		.loc 6 359 47 view .LVU1334
 3952 0f38 079B     		ldr	r3, [sp, #28]
 3953              	.LVL320:
 359:src/main.cpp  ****         else     { leds_write(false); blink_on = false; }
 3954              		.loc 6 359 47 view .LVU1335
 3955 0f3a 0B93     		str	r3, [sp, #44]
 3956              	.LBE747:
 3957              	.LBE733:
 496:src/main.cpp  ****                         g_amp_target = 0.0f;                 // silence any held note
 3958              		.loc 6 496 38 view .LVU1336
 3959 0f3c 0123     		movs	r3, #1
 3960 0f3e 0C93     		str	r3, [sp, #48]
 3961              	.LVL321:
ARM GAS  /tmp/claude-502/ccJ8DnOJ.s 			page 127


 3962              	.L72:
 496:src/main.cpp  ****                         g_amp_target = 0.0f;                 // silence any held note
 3963              		.loc 6 496 38 view .LVU1337
 3964              	.LBE771:
 3965              	.LBE1213:
 565:src/main.cpp  ****                 tracked[0].alive=tracked[1].alive=false;
 3966              		.loc 6 565 13 is_stmt 1 view .LVU1338
 565:src/main.cpp  ****                 tracked[0].alive=tracked[1].alive=false;
 3967              		.loc 6 565 30 is_stmt 0 view .LVU1339
 3968 0f40 FFF7FEFF 		bl	_ZN5daisy6System6GetNowEv
 3969              	.LVL322:
 565:src/main.cpp  ****                 tracked[0].alive=tracked[1].alive=false;
 3970              		.loc 6 565 32 view .LVU1340
 3971 0f44 801B     		subs	r0, r0, r6
 565:src/main.cpp  ****                 tracked[0].alive=tracked[1].alive=false;
 3972              		.loc 6 565 13 view .LVU1341
 3973 0f46 B0F5FA6F 		cmp	r0, #2000
 3974 0f4a 80F0A982 		bcs	.L533
 3975              	.LVL323:
 3976              	.L309:
 565:src/main.cpp  ****                 tracked[0].alive=tracked[1].alive=false;
 3977              		.loc 6 565 13 view .LVU1342
 3978 0f4e 1196     		str	r6, [sp, #68]
 3979              	.LVL324:
 3980              	.L114:
 576:src/main.cpp  ****             last_touch_ms = System::GetNow();
 3981              		.loc 6 576 9 is_stmt 1 view .LVU1343
 578:src/main.cpp  ****             idle_chase_and_calibrate();
 3982              		.loc 6 578 16 view .LVU1344
 578:src/main.cpp  ****             idle_chase_and_calibrate();
 3983              		.loc 6 578 20 is_stmt 0 view .LVU1345
 3984 0f50 9F4B     		ldr	r3, .L564+24
 3985 0f52 1B78     		ldrb	r3, [r3]	@ zero_extendqisi2
 578:src/main.cpp  ****             idle_chase_and_calibrate();
 3986              		.loc 6 578 32 view .LVU1346
 3987 0f54 03F0FF07 		and	r7, r3, #255
 3988 0f58 002B     		cmp	r3, #0
 3989 0f5a 7FF497AA 		bne	.L113
 578:src/main.cpp  ****             idle_chase_and_calibrate();
 3990              		.loc 6 578 49 discriminator 1 view .LVU1347
 3991 0f5e FFF7FEFF 		bl	_ZN5daisy6System6GetNowEv
 3992              	.LVL325:
 578:src/main.cpp  ****             idle_chase_and_calibrate();
 3993              		.loc 6 578 52 discriminator 1 view .LVU1348
 3994 0f62 0D9B     		ldr	r3, [sp, #52]
 3995 0f64 C01A     		subs	r0, r0, r3
 578:src/main.cpp  ****             idle_chase_and_calibrate();
 3996              		.loc 6 578 32 discriminator 1 view .LVU1349
 3997 0f66 41F28733 		movw	r3, #4999
 3998 0f6a 9842     		cmp	r0, r3
 3999 0f6c 7FF68EAA 		bls	.L113
 579:src/main.cpp  ****             last_touch_ms = System::GetNow();
 4000              		.loc 6 579 13 is_stmt 1 view .LVU1350
 4001              	.LVL326:
 4002              	.LBB1214:
 4003              	.LBI1214:
 200:src/main.cpp  ****         uint32_t start = System::GetNow();
ARM GAS  /tmp/claude-502/ccJ8DnOJ.s 			page 128


 4004              		.loc 6 200 37 view .LVU1351
 4005              	.LBB1215:
 4006              	.LBB1216:
 201:src/main.cpp  ****         uint32_t acc = 0; int n = 0;
 4007              		.loc 6 201 9 view .LVU1352
 201:src/main.cpp  ****         uint32_t acc = 0; int n = 0;
 4008              		.loc 6 201 40 is_stmt 0 view .LVU1353
 4009 0f70 FFF7FEFF 		bl	_ZN5daisy6System6GetNowEv
 4010              	.LVL327:
 202:src/main.cpp  ****         bool     calibrated = false;
 4011              		.loc 6 202 9 is_stmt 1 view .LVU1354
 202:src/main.cpp  ****         bool     calibrated = false;
 4012              		.loc 6 202 27 view .LVU1355
 203:src/main.cpp  ****         constexpr uint32_t SWEEP_PERIOD_MS = 12000;  // one 0ŌåÆ1ŌåÆ0 cycle
 4013              		.loc 6 203 9 view .LVU1356
 204:src/main.cpp  ****         constexpr float    TAU             = 6.2831853f;
 4014              		.loc 6 204 9 view .LVU1357
 205:src/main.cpp  ****         uint16_t scan[N_CH];
 4015              		.loc 6 205 9 view .LVU1358
 202:src/main.cpp  ****         bool     calibrated = false;
 4016              		.loc 6 202 18 is_stmt 0 view .LVU1359
 4017 0f74 CDF820B0 		str	fp, [sp, #32]
 4018 0f78 169E     		ldr	r6, [sp, #88]
 202:src/main.cpp  ****         bool     calibrated = false;
 4019              		.loc 6 202 31 view .LVU1360
 4020 0f7a BA46     		mov	r10, r7
 4021              	.LVL328:
 202:src/main.cpp  ****         bool     calibrated = false;
 4022              		.loc 6 202 18 view .LVU1361
 4023 0f7c DDF83CB0 		ldr	fp, [sp, #60]
 4024 0f80 B846     		mov	r8, r7
 4025              	.LVL329:
 206:src/main.cpp  **** 
 4026              		.loc 6 206 9 is_stmt 1 view .LVU1362
 208:src/main.cpp  ****             // Stay responsive to a host tuner while idling: this loop would
 4027              		.loc 6 208 9 view .LVU1363
 4028              	.LBB1217:
 213:src/main.cpp  ****             if(g_live_tune) break;
 4029              		.loc 6 213 13 view .LVU1364
 4030              	.LBE1217:
 202:src/main.cpp  ****         bool     calibrated = false;
 4031              		.loc 6 202 18 is_stmt 0 view .LVU1365
 4032 0f82 CDE90445 		strd	r4, r5, [sp, #16]
 4033 0f86 0546     		mov	r5, r0
 4034              	.LVL330:
 4035              	.LBB1232:
 213:src/main.cpp  ****             if(g_live_tune) break;
 4036              		.loc 6 213 29 view .LVU1366
 4037 0f88 FFF7FEFF 		bl	_Z16serial_tune_pollv
 4038              	.LVL331:
 214:src/main.cpp  **** 
 4039              		.loc 6 214 13 is_stmt 1 view .LVU1367
 214:src/main.cpp  **** 
 4040              		.loc 6 214 16 is_stmt 0 view .LVU1368
 4041 0f8c 904B     		ldr	r3, .L564+24
 4042 0f8e 1B78     		ldrb	r3, [r3]	@ zero_extendqisi2
 214:src/main.cpp  **** 
ARM GAS  /tmp/claude-502/ccJ8DnOJ.s 			page 129


 4043              		.loc 6 214 13 view .LVU1369
 4044 0f90 002B     		cmp	r3, #0
 4045 0f92 40F0EE80 		bne	.L116
 4046              	.LVL332:
 4047              	.L535:
 216:src/main.cpp  **** 
 4048              		.loc 6 216 13 is_stmt 1 view .LVU1370
 216:src/main.cpp  **** 
 4049              		.loc 6 216 46 is_stmt 0 view .LVU1371
 4050 0f96 FFF7FEFF 		bl	_ZN5daisy6System6GetNowEv
 4051              	.LVL333:
 220:src/main.cpp  ****             float p01   = 0.5f * (1.0f - cosf(phase * TAU));
 4052              		.loc 6 220 43 view .LVU1372
 4053 0f9a 8E4B     		ldr	r3, .L564+28
 216:src/main.cpp  **** 
 4054              		.loc 6 216 51 view .LVU1373
 4055 0f9c 441B     		subs	r4, r0, r5
 4056              	.LVL334:
 220:src/main.cpp  ****             float p01   = 0.5f * (1.0f - cosf(phase * TAU));
 4057              		.loc 6 220 13 is_stmt 1 view .LVU1374
 221:src/main.cpp  **** 
 4058              		.loc 6 221 13 view .LVU1375
 220:src/main.cpp  ****             float p01   = 0.5f * (1.0f - cosf(phase * TAU));
 4059              		.loc 6 220 19 is_stmt 0 view .LVU1376
 4060 0f9e DFED8E6A 		vldr.32	s13, .L564+32
 221:src/main.cpp  **** 
 4061              		.loc 6 221 46 view .LVU1377
 4062 0fa2 9FED8E7A 		vldr.32	s14, .L564+36
 221:src/main.cpp  **** 
 4063              		.loc 6 221 40 view .LVU1378
 4064 0fa6 B7EE00BA 		vmov.f32	s22, #1.0e+0
 220:src/main.cpp  ****             float p01   = 0.5f * (1.0f - cosf(phase * TAU));
 4065              		.loc 6 220 43 view .LVU1379
 4066 0faa A3FB0423 		umull	r2, r3, r3, r4
 4067 0fae 42F6E062 		movw	r2, #12000
 4068 0fb2 1B0A     		lsrs	r3, r3, #8
 4069 0fb4 02FB1343 		mls	r3, r2, r3, r4
 220:src/main.cpp  ****             float p01   = 0.5f * (1.0f - cosf(phase * TAU));
 4070              		.loc 6 220 27 view .LVU1380
 4071 0fb8 07EE903A 		vmov	s15, r3	@ int
 4072 0fbc F8EEE77A 		vcvt.f32.s32	s15, s15
 220:src/main.cpp  ****             float p01   = 0.5f * (1.0f - cosf(phase * TAU));
 4073              		.loc 6 220 19 view .LVU1381
 4074 0fc0 87EEA60A 		vdiv.f32	s0, s15, s13
 221:src/main.cpp  **** 
 4075              		.loc 6 221 46 view .LVU1382
 4076 0fc4 20EE070A 		vmul.f32	s0, s0, s14
 4077 0fc8 FFF7FEFF 		bl	cosf
 4078              	.LVL335:
 221:src/main.cpp  **** 
 4079              		.loc 6 221 19 view .LVU1383
 4080 0fcc F6EE007A 		vmov.f32	s15, #5.0e-1
 221:src/main.cpp  **** 
 4081              		.loc 6 221 40 view .LVU1384
 4082 0fd0 3BEE400A 		vsub.f32	s0, s22, s0
 226:src/main.cpp  ****             float led1   = sqrtf(sqrtf(l2_raw));              // middle (DAC1)
 4083              		.loc 6 226 52 view .LVU1385
ARM GAS  /tmp/claude-502/ccJ8DnOJ.s 			page 130


 4084 0fd4 B6EE006A 		vmov.f32	s12, #5.0e-1
 225:src/main.cpp  ****             float l2_raw = 1.0f - 2.0f * fabsf(p01 - 0.5f);   if(l2_raw < 0) l2_raw = 0;
 4085              		.loc 6 225 19 view .LVU1386
 4086 0fd8 B7EE007A 		vmov.f32	s14, #1.0e+0
 221:src/main.cpp  **** 
 4087              		.loc 6 221 19 view .LVU1387
 4088 0fdc 60EE277A 		vmul.f32	s15, s0, s15
 4089              	.LVL336:
 224:src/main.cpp  ****             float l3_raw = 2.0f * p01 - 1.0f;                 if(l3_raw < 0) l3_raw = 0;
 4090              		.loc 6 224 13 is_stmt 1 view .LVU1388
 226:src/main.cpp  ****             float led1   = sqrtf(sqrtf(l2_raw));              // middle (DAC1)
 4091              		.loc 6 226 19 is_stmt 0 view .LVU1389
 4092 0fe0 F0EE006A 		vmov.f32	s13, #2.0e+0
 224:src/main.cpp  ****             float l3_raw = 2.0f * p01 - 1.0f;                 if(l3_raw < 0) l3_raw = 0;
 4093              		.loc 6 224 40 view .LVU1390
 4094 0fe4 77EEA7AA 		vadd.f32	s21, s15, s15
 226:src/main.cpp  ****             float led1   = sqrtf(sqrtf(l2_raw));              // middle (DAC1)
 4095              		.loc 6 226 52 view .LVU1391
 4096 0fe8 77EEC67A 		vsub.f32	s15, s15, s12
 4097              	.LVL337:
 224:src/main.cpp  ****             float l3_raw = 2.0f * p01 - 1.0f;                 if(l3_raw < 0) l3_raw = 0;
 4098              		.loc 6 224 19 view .LVU1392
 4099 0fec 3BEE6ABA 		vsub.f32	s22, s22, s21
 4100              	.LVL338:
 224:src/main.cpp  ****             float l3_raw = 2.0f * p01 - 1.0f;                 if(l3_raw < 0) l3_raw = 0;
 4101              		.loc 6 224 63 is_stmt 1 view .LVU1393
 226:src/main.cpp  ****             float led1   = sqrtf(sqrtf(l2_raw));              // middle (DAC1)
 4102              		.loc 6 226 47 is_stmt 0 view .LVU1394
 4103 0ff0 F0EEE77A 		vabs.f32	s15, s15
 225:src/main.cpp  ****             float l2_raw = 1.0f - 2.0f * fabsf(p01 - 0.5f);   if(l2_raw < 0) l2_raw = 0;
 4104              		.loc 6 225 19 view .LVU1395
 4105 0ff4 7AEEC7AA 		vsub.f32	s21, s21, s14
 226:src/main.cpp  ****             float led1   = sqrtf(sqrtf(l2_raw));              // middle (DAC1)
 4106              		.loc 6 226 19 view .LVU1396
 4107 0ff8 B7EE007A 		vmov.f32	s14, #1.0e+0
 224:src/main.cpp  ****             float l3_raw = 2.0f * p01 - 1.0f;                 if(l3_raw < 0) l3_raw = 0;
 4108              		.loc 6 224 63 view .LVU1397
 4109 0ffc B5EEC0BA 		vcmpe.f32	s22, #0
 226:src/main.cpp  ****             float led1   = sqrtf(sqrtf(l2_raw));              // middle (DAC1)
 4110              		.loc 6 226 19 view .LVU1398
 4111 1000 A7EEE67A 		vfms.f32	s14, s15, s13
 224:src/main.cpp  ****             float l3_raw = 2.0f * p01 - 1.0f;                 if(l3_raw < 0) l3_raw = 0;
 4112              		.loc 6 224 63 view .LVU1399
 4113 1004 F1EE10FA 		vmrs	APSR_nzcv, FPSCR
 225:src/main.cpp  ****             float l2_raw = 1.0f - 2.0f * fabsf(p01 - 0.5f);   if(l2_raw < 0) l2_raw = 0;
 4114              		.loc 6 225 63 view .LVU1400
 4115 1008 F5EEC0AA 		vcmpe.f32	s21, #0
 224:src/main.cpp  ****             float l3_raw = 2.0f * p01 - 1.0f;                 if(l3_raw < 0) l3_raw = 0;
 4116              		.loc 6 224 85 view .LVU1401
 4117 100c 48BF     		it	mi
 4118 100e 9FED74BA 		vldrmi.32	s22, .L564+40
 4119              	.LVL339:
 225:src/main.cpp  ****             float l2_raw = 1.0f - 2.0f * fabsf(p01 - 0.5f);   if(l2_raw < 0) l2_raw = 0;
 4120              		.loc 6 225 13 is_stmt 1 view .LVU1402
 225:src/main.cpp  ****             float l2_raw = 1.0f - 2.0f * fabsf(p01 - 0.5f);   if(l2_raw < 0) l2_raw = 0;
 4121              		.loc 6 225 63 view .LVU1403
 4122 1012 F1EE10FA 		vmrs	APSR_nzcv, FPSCR
ARM GAS  /tmp/claude-502/ccJ8DnOJ.s 			page 131


 226:src/main.cpp  ****             float led1   = sqrtf(sqrtf(l2_raw));              // middle (DAC1)
 4123              		.loc 6 226 63 is_stmt 0 view .LVU1404
 4124 1016 B5EEC07A 		vcmpe.f32	s14, #0
 225:src/main.cpp  ****             float l2_raw = 1.0f - 2.0f * fabsf(p01 - 0.5f);   if(l2_raw < 0) l2_raw = 0;
 4125              		.loc 6 225 85 view .LVU1405
 4126 101a 48BF     		it	mi
 4127 101c DFED70AA 		vldrmi.32	s21, .L564+40
 4128              	.LVL340:
 226:src/main.cpp  ****             float led1   = sqrtf(sqrtf(l2_raw));              // middle (DAC1)
 4129              		.loc 6 226 13 is_stmt 1 view .LVU1406
 226:src/main.cpp  ****             float led1   = sqrtf(sqrtf(l2_raw));              // middle (DAC1)
 4130              		.loc 6 226 63 view .LVU1407
 4131 1020 F1EE10FA 		vmrs	APSR_nzcv, FPSCR
 4132 1024 00F12882 		bmi	.L310
 227:src/main.cpp  ****             float led2   = sqrtf(sqrtf(l1_raw));              // pos 0  (DAC2)
 4133              		.loc 6 227 13 view .LVU1408
 4134 1028 B5EE407A 		vcmp.f32	s14, #0
 4135 102c F1EE10FA 		vmrs	APSR_nzcv, FPSCR
 4136 1030 01F10C81 		bmi	.L534
 4137              	.LVL341:
 4138              	.L121:
 227:src/main.cpp  ****             float led2   = sqrtf(sqrtf(l1_raw));              // pos 0  (DAC2)
 4139              		.loc 6 227 33 is_stmt 0 view .LVU1409
 4140 1034 B1EEC70A 		vsqrt.f32	s0, s14
 4141              	.LVL342:
 4142              	.L124:
 227:src/main.cpp  ****             float led2   = sqrtf(sqrtf(l1_raw));              // pos 0  (DAC2)
 4143              		.loc 6 227 33 view .LVU1410
 4144 1038 B5EE400A 		vcmp.f32	s0, #0
 4145 103c F1EE10FA 		vmrs	APSR_nzcv, FPSCR
 4146 1040 01F1C480 		bmi	.L482
 4147 1044 F1EEC0BA 		vsqrt.f32	s23, s0
 4148              	.L127:
 228:src/main.cpp  ****             float led3   = sqrtf(sqrtf(l3_raw)) * LED3_INTENSITY; // pos 1 (PWM A0)
 4149              		.loc 6 228 13 is_stmt 1 view .LVU1411
 4150 1048 B5EE40BA 		vcmp.f32	s22, #0
 4151 104c F1EE10FA 		vmrs	APSR_nzcv, FPSCR
 4152 1050 01F11481 		bmi	.L483
 228:src/main.cpp  ****             float led3   = sqrtf(sqrtf(l3_raw)) * LED3_INTENSITY; // pos 1 (PWM A0)
 4153              		.loc 6 228 33 is_stmt 0 view .LVU1412
 4154 1054 B1EECB0A 		vsqrt.f32	s0, s22
 4155              	.L130:
 4156 1058 B5EE400A 		vcmp.f32	s0, #0
 4157 105c F1EE10FA 		vmrs	APSR_nzcv, FPSCR
 4158 1060 01F10681 		bmi	.L484
 4159 1064 B1EEC0BA 		vsqrt.f32	s22, s0
 4160              	.LVL343:
 4161              	.L133:
 229:src/main.cpp  ****             hw.dac.WriteValue(DacHandle::Channel::ONE, (uint16_t)(led1 * LED1_MAX));
 4162              		.loc 6 229 13 is_stmt 1 view .LVU1413
 4163 1068 F5EE40AA 		vcmp.f32	s21, #0
 4164 106c F1EE10FA 		vmrs	APSR_nzcv, FPSCR
 4165 1070 01F1F880 		bmi	.L485
 229:src/main.cpp  ****             hw.dac.WriteValue(DacHandle::Channel::ONE, (uint16_t)(led1 * LED1_MAX));
 4166              		.loc 6 229 33 is_stmt 0 view .LVU1414
 4167 1074 B1EEEA0A 		vsqrt.f32	s0, s21
 4168              	.L136:
ARM GAS  /tmp/claude-502/ccJ8DnOJ.s 			page 132


 4169 1078 B5EE400A 		vcmp.f32	s0, #0
 4170 107c F1EE10FA 		vmrs	APSR_nzcv, FPSCR
 4171 1080 01F1DE80 		bmi	.L486
 4172 1084 B1EEC07A 		vsqrt.f32	s14, s0
 4173              	.L139:
 230:src/main.cpp  ****             hw.dac.WriteValue(DacHandle::Channel::TWO, (uint16_t)(led2 * LED2_MAX));
 4174              		.loc 6 230 72 view .LVU1415
 4175 1088 9FED56CA 		vldr.32	s24, .L564+44
 230:src/main.cpp  ****             hw.dac.WriteValue(DacHandle::Channel::TWO, (uint16_t)(led2 * LED2_MAX));
 4176              		.loc 6 230 30 view .LVU1416
 4177 108c 0021     		movs	r1, #0
 229:src/main.cpp  ****             hw.dac.WriteValue(DacHandle::Channel::ONE, (uint16_t)(led1 * LED1_MAX));
 4178              		.loc 6 229 51 view .LVU1417
 4179 108e DFED56AA 		vldr.32	s21, .L564+48
 4180              	.LVL344:
 230:src/main.cpp  ****             hw.dac.WriteValue(DacHandle::Channel::TWO, (uint16_t)(led2 * LED2_MAX));
 4181              		.loc 6 230 30 view .LVU1418
 4182 1092 4D48     		ldr	r0, .L564+16
 230:src/main.cpp  ****             hw.dac.WriteValue(DacHandle::Channel::TWO, (uint16_t)(led2 * LED2_MAX));
 4183              		.loc 6 230 72 view .LVU1419
 4184 1094 6BEE8CBA 		vmul.f32	s23, s23, s24
 229:src/main.cpp  ****             hw.dac.WriteValue(DacHandle::Channel::ONE, (uint16_t)(led1 * LED1_MAX));
 4185              		.loc 6 229 51 view .LVU1420
 4186 1098 67EE2AAA 		vmul.f32	s21, s14, s21
 4187              	.LVL345:
 230:src/main.cpp  ****             hw.dac.WriteValue(DacHandle::Channel::TWO, (uint16_t)(led2 * LED2_MAX));
 4188              		.loc 6 230 13 is_stmt 1 view .LVU1421
 230:src/main.cpp  ****             hw.dac.WriteValue(DacHandle::Channel::TWO, (uint16_t)(led2 * LED2_MAX));
 4189              		.loc 6 230 30 is_stmt 0 view .LVU1422
 4190 109c FCEEEBBA 		vcvt.u32.f32	s23, s23
 4191 10a0 1BEE903A 		vmov	r3, s23	@ int
 4192 10a4 9AB2     		uxth	r2, r3
 4193 10a6 FFF7FEFF 		bl	_ZN5daisy9DacHandle10WriteValueENS0_7ChannelEt
 4194              	.LVL346:
 231:src/main.cpp  ****             g_led3_duty = led3;
 4195              		.loc 6 231 13 is_stmt 1 view .LVU1423
 231:src/main.cpp  ****             g_led3_duty = led3;
 4196              		.loc 6 231 72 is_stmt 0 view .LVU1424
 4197 10aa 6BEE0C7A 		vmul.f32	s15, s22, s24
 231:src/main.cpp  ****             g_led3_duty = led3;
 4198              		.loc 6 231 30 view .LVU1425
 4199 10ae 0121     		movs	r1, #1
 4200 10b0 4548     		ldr	r0, .L564+16
 4201 10b2 FCEEE77A 		vcvt.u32.f32	s15, s15
 4202 10b6 17EE903A 		vmov	r3, s15	@ int
 4203 10ba 9AB2     		uxth	r2, r3
 4204 10bc FFF7FEFF 		bl	_ZN5daisy9DacHandle10WriteValueENS0_7ChannelEt
 4205              	.LVL347:
 232:src/main.cpp  **** 
 4206              		.loc 6 232 13 is_stmt 1 view .LVU1426
 237:src/main.cpp  ****             if(fsr_now <= FSR_MIN) break;
 4207              		.loc 6 237 42 is_stmt 0 view .LVU1427
 4208 10c0 0021     		movs	r1, #0
 4209 10c2 4A48     		ldr	r0, .L564+52
 232:src/main.cpp  **** 
 4210              		.loc 6 232 25 view .LVU1428
 4211 10c4 C6ED00AA 		vstr.32	s21, [r6]
ARM GAS  /tmp/claude-502/ccJ8DnOJ.s 			page 133


 237:src/main.cpp  ****             if(fsr_now <= FSR_MIN) break;
 4212              		.loc 6 237 13 is_stmt 1 view .LVU1429
 237:src/main.cpp  ****             if(fsr_now <= FSR_MIN) break;
 4213              		.loc 6 237 42 is_stmt 0 view .LVU1430
 4214 10c8 FFF7FEFF 		bl	_ZNK5daisy9AdcHandle3GetEh
 4215              	.LVL348:
 238:src/main.cpp  ****             if(!calibrated) {
 4216              		.loc 6 238 13 is_stmt 1 view .LVU1431
 4217 10cc B0F5FA5F 		cmp	r0, #8000
 4218 10d0 4FD9     		bls	.L116
 239:src/main.cpp  ****                 acc += fsr_now;
 4219              		.loc 6 239 13 view .LVU1432
 4220 10d2 97BB     		cbnz	r7, .L140
 240:src/main.cpp  ****                 n++;
 4221              		.loc 6 240 17 view .LVU1433
 242:src/main.cpp  ****                     commit_fsr_avg(acc, n);
 4222              		.loc 6 242 17 is_stmt 0 view .LVU1434
 4223 10d4 B4F5FA6F 		cmp	r4, #2000
 240:src/main.cpp  ****                 n++;
 4224              		.loc 6 240 21 view .LVU1435
 4225 10d8 8044     		add	r8, r8, r0
 4226              	.LVL349:
 241:src/main.cpp  ****                 if(elapsed >= 2000) {
 4227              		.loc 6 241 17 is_stmt 1 view .LVU1436
 241:src/main.cpp  ****                 if(elapsed >= 2000) {
 4228              		.loc 6 241 18 is_stmt 0 view .LVU1437
 4229 10da 0AF1010A 		add	r10, r10, #1
 4230              	.LVL350:
 242:src/main.cpp  ****                     commit_fsr_avg(acc, n);
 4231              		.loc 6 242 17 is_stmt 1 view .LVU1438
 4232 10de 2CD3     		bcc	.L140
 243:src/main.cpp  ****                     calibrated = true;
 4233              		.loc 6 243 21 view .LVU1439
 4234              	.LVL351:
 4235              	.LBB1218:
 4236              	.LBI1218:
 173:src/main.cpp  ****         if(n == 0) return;
 4237              		.loc 6 173 27 view .LVU1440
 4238              	.LBE1218:
 4239              	.LBE1232:
 4240              	.LBE1216:
 4241              	.LBE1215:
 4242              	.LBE1214:
 4243              	.LBE1308:
 174:src/main.cpp  ****         uint16_t avg = (uint16_t)(acc / n);
 4244              		.loc 6 174 9 view .LVU1441
 4245              	.LBB1309:
 4246              	.LBB1249:
 4247              	.LBB1244:
 4248              	.LBB1239:
 4249              	.LBB1233:
 4250              	.LBB1227:
 4251              	.LBB1219:
 4252              	.LBB1220:
 4253              	.LBI1220:
 173:src/main.cpp  ****         if(n == 0) return;
 4254              		.loc 6 173 27 view .LVU1442
ARM GAS  /tmp/claude-502/ccJ8DnOJ.s 			page 134


 4255              	.LBB1221:
 4256              	.LBB1222:
 175:src/main.cpp  ****         // Sanity floor ŌĆö without enough headroom over FSR_MIN the volume curve
 4257              		.loc 6 175 9 view .LVU1443
 4258 10e0 42F23412 		movw	r2, #8500
 180:src/main.cpp  ****         fsr_active_inv = 1.0f / (float)(fsr_dead - FSR_MIN);
 4259              		.loc 6 180 45 is_stmt 0 view .LVU1444
 4260 10e4 9FED426A 		vldr.32	s12, .L564+56
 181:src/main.cpp  ****     };
 4261              		.loc 6 181 31 view .LVU1445
 4262 10e8 F7EE006A 		vmov.f32	s13, #1.0e+0
 181:src/main.cpp  ****     };
 4263              		.loc 6 181 31 view .LVU1446
 4264              	.LBE1222:
 4265              	.LBE1221:
 4266              	.LBE1220:
 4267              	.LBE1219:
 4268              	.LBE1227:
 244:src/main.cpp  ****                 }
 4269              		.loc 6 244 32 view .LVU1447
 4270 10ec 0127     		movs	r7, #1
 4271              	.LVL352:
 4272              	.LBB1228:
 4273              	.LBB1226:
 4274              	.LBB1225:
 4275              	.LBB1224:
 4276              	.LBB1223:
 175:src/main.cpp  ****         // Sanity floor ŌĆö without enough headroom over FSR_MIN the volume curve
 4277              		.loc 6 175 39 view .LVU1448
 4278 10ee B8FBFAF3 		udiv	r3, r8, r10
 175:src/main.cpp  ****         // Sanity floor ŌĆö without enough headroom over FSR_MIN the volume curve
 4279              		.loc 6 175 18 view .LVU1449
 4280 10f2 9BB2     		uxth	r3, r3
 4281              	.LVL353:
 178:src/main.cpp  ****         fsr_max        = avg;
 4282              		.loc 6 178 9 is_stmt 1 view .LVU1450
 4283 10f4 9342     		cmp	r3, r2
 4284 10f6 38BF     		it	cc
 4285 10f8 1346     		movcc	r3, r2
 4286              	.LVL354:
 179:src/main.cpp  ****         fsr_dead       = (uint16_t)(fsr_max - FSR_DEADZONE * (fsr_max - FSR_MIN));
 4287              		.loc 6 179 9 view .LVU1451
 180:src/main.cpp  ****         fsr_active_inv = 1.0f / (float)(fsr_dead - FSR_MIN);
 4288              		.loc 6 180 71 is_stmt 0 view .LVU1452
 4289 10fa A3F5FA52 		sub	r2, r3, #8000
 180:src/main.cpp  ****         fsr_active_inv = 1.0f / (float)(fsr_dead - FSR_MIN);
 4290              		.loc 6 180 45 view .LVU1453
 4291 10fe 07EE903A 		vmov	s15, r3	@ int
 180:src/main.cpp  ****         fsr_active_inv = 1.0f / (float)(fsr_dead - FSR_MIN);
 4292              		.loc 6 180 71 view .LVU1454
 4293 1102 07EE102A 		vmov	s14, r2	@ int
 180:src/main.cpp  ****         fsr_active_inv = 1.0f / (float)(fsr_dead - FSR_MIN);
 4294              		.loc 6 180 45 view .LVU1455
 4295 1106 F8EEE77A 		vcvt.f32.s32	s15, s15
 179:src/main.cpp  ****         fsr_dead       = (uint16_t)(fsr_max - FSR_DEADZONE * (fsr_max - FSR_MIN));
 4296              		.loc 6 179 24 view .LVU1456
 4297 110a 229A     		ldr	r2, [sp, #136]
ARM GAS  /tmp/claude-502/ccJ8DnOJ.s 			page 135


 180:src/main.cpp  ****         fsr_active_inv = 1.0f / (float)(fsr_dead - FSR_MIN);
 4298              		.loc 6 180 60 view .LVU1457
 4299 110c B8EEC77A 		vcvt.f32.s32	s14, s14
 179:src/main.cpp  ****         fsr_dead       = (uint16_t)(fsr_max - FSR_DEADZONE * (fsr_max - FSR_MIN));
 4300              		.loc 6 179 24 view .LVU1458
 4301 1110 1380     		strh	r3, [r2]	@ movhi
 180:src/main.cpp  ****         fsr_active_inv = 1.0f / (float)(fsr_dead - FSR_MIN);
 4302              		.loc 6 180 9 is_stmt 1 view .LVU1459
 180:src/main.cpp  ****         fsr_active_inv = 1.0f / (float)(fsr_dead - FSR_MIN);
 4303              		.loc 6 180 24 is_stmt 0 view .LVU1460
 4304 1112 239A     		ldr	r2, [sp, #140]
 180:src/main.cpp  ****         fsr_active_inv = 1.0f / (float)(fsr_dead - FSR_MIN);
 4305              		.loc 6 180 45 view .LVU1461
 4306 1114 E7EE467A 		vfms.f32	s15, s14, s12
 180:src/main.cpp  ****         fsr_active_inv = 1.0f / (float)(fsr_dead - FSR_MIN);
 4307              		.loc 6 180 26 view .LVU1462
 4308 1118 FCEEE77A 		vcvt.u32.f32	s15, s15
 4309 111c 17EE903A 		vmov	r3, s15	@ int
 4310              	.LVL355:
 180:src/main.cpp  ****         fsr_active_inv = 1.0f / (float)(fsr_dead - FSR_MIN);
 4311              		.loc 6 180 26 view .LVU1463
 4312 1120 9BB2     		uxth	r3, r3
 180:src/main.cpp  ****         fsr_active_inv = 1.0f / (float)(fsr_dead - FSR_MIN);
 4313              		.loc 6 180 24 view .LVU1464
 4314 1122 1380     		strh	r3, [r2]	@ movhi
 181:src/main.cpp  ****     };
 4315              		.loc 6 181 9 is_stmt 1 view .LVU1465
 181:src/main.cpp  ****     };
 4316              		.loc 6 181 50 is_stmt 0 view .LVU1466
 4317 1124 A3F5FA53 		sub	r3, r3, #8000
 181:src/main.cpp  ****     };
 4318              		.loc 6 181 33 view .LVU1467
 4319 1128 07EE903A 		vmov	s15, r3	@ int
 181:src/main.cpp  ****     };
 4320              		.loc 6 181 24 view .LVU1468
 4321 112c 249B     		ldr	r3, [sp, #144]
 181:src/main.cpp  ****     };
 4322              		.loc 6 181 33 view .LVU1469
 4323 112e F8EEE77A 		vcvt.f32.s32	s15, s15
 181:src/main.cpp  ****     };
 4324              		.loc 6 181 31 view .LVU1470
 4325 1132 86EEA77A 		vdiv.f32	s14, s13, s15
 181:src/main.cpp  ****     };
 4326              		.loc 6 181 24 view .LVU1471
 4327 1136 83ED007A 		vstr.32	s14, [r3]
 4328              	.LVL356:
 4329              	.L140:
 181:src/main.cpp  ****     };
 4330              		.loc 6 181 24 view .LVU1472
 4331              	.LBE1223:
 4332              	.LBE1224:
 4333              	.LBE1225:
 4334              	.LBE1226:
 4335              	.LBE1228:
 249:src/main.cpp  ****             int32_t max_d = 0;
 4336              		.loc 6 249 13 is_stmt 1 view .LVU1473
 249:src/main.cpp  ****             int32_t max_d = 0;
ARM GAS  /tmp/claude-502/ccJ8DnOJ.s 			page 136


 4337              		.loc 6 249 28 is_stmt 0 view .LVU1474
 4338 113a 47A8     		add	r0, sp, #284
 4339              	.LVL357:
 249:src/main.cpp  ****             int32_t max_d = 0;
 4340              		.loc 6 249 28 view .LVU1475
 4341 113c FFF7FEFF 		bl	_Z15read_electrodesPt
 4342              	.LVL358:
 250:src/main.cpp  ****             for(int i = 0; i < N_CH; i++) {
 4343              		.loc 6 250 13 is_stmt 1 view .LVU1476
 251:src/main.cpp  ****                 int32_t d = (int32_t)baseline[i] - (int32_t)scan[i];
 4344              		.loc 6 251 13 view .LVU1477
 4345              	.LBB1229:
 251:src/main.cpp  ****                 int32_t d = (int32_t)baseline[i] - (int32_t)scan[i];
 4346              		.loc 6 251 30 view .LVU1478
 4347 1140 47A8     		add	r0, sp, #284
 4348              	.LBE1229:
 249:src/main.cpp  ****             int32_t max_d = 0;
 4349              		.loc 6 249 28 is_stmt 0 view .LVU1479
 4350 1142 5A46     		mov	r2, fp
 250:src/main.cpp  ****             for(int i = 0; i < N_CH; i++) {
 4351              		.loc 6 250 21 view .LVU1480
 4352 1144 0021     		movs	r1, #0
 4353              	.LVL359:
 4354              	.L141:
 4355              	.LBB1231:
 4356              	.LBB1230:
 252:src/main.cpp  ****                 if(d > max_d) max_d = d;
 4357              		.loc 6 252 17 is_stmt 1 view .LVU1481
 252:src/main.cpp  ****                 if(d > max_d) max_d = d;
 4358              		.loc 6 252 48 is_stmt 0 view .LVU1482
 4359 1146 32F8023B 		ldrh	r3, [r2], #2
 252:src/main.cpp  ****                 if(d > max_d) max_d = d;
 4360              		.loc 6 252 67 view .LVU1483
 4361 114a 30F8024B 		ldrh	r4, [r0], #2
 4362              	.LVL360:
 253:src/main.cpp  ****             }
 4363              		.loc 6 253 17 is_stmt 1 view .LVU1484
 252:src/main.cpp  ****                 if(d > max_d) max_d = d;
 4364              		.loc 6 252 25 is_stmt 0 view .LVU1485
 4365 114e 1B1B     		subs	r3, r3, r4
 4366              	.LVL361:
 252:src/main.cpp  ****                 if(d > max_d) max_d = d;
 4367              		.loc 6 252 25 view .LVU1486
 4368 1150 9942     		cmp	r1, r3
 4369 1152 B8BF     		it	lt
 4370 1154 1946     		movlt	r1, r3
 4371              	.LVL362:
 252:src/main.cpp  ****                 if(d > max_d) max_d = d;
 4372              		.loc 6 252 25 view .LVU1487
 4373              	.LBE1230:
 251:src/main.cpp  ****                 int32_t d = (int32_t)baseline[i] - (int32_t)scan[i];
 4374              		.loc 6 251 13 is_stmt 1 view .LVU1488
 251:src/main.cpp  ****                 int32_t d = (int32_t)baseline[i] - (int32_t)scan[i];
 4375              		.loc 6 251 30 view .LVU1489
 4376 1156 9145     		cmp	r9, r2
 4377 1158 F5D1     		bne	.L141
 4378              	.LBE1231:
ARM GAS  /tmp/claude-502/ccJ8DnOJ.s 			page 137


 255:src/main.cpp  **** 
 4379              		.loc 6 255 13 view .LVU1490
 4380 115a 0929     		cmp	r1, #9
 4381 115c 09DC     		bgt	.L116
 257:src/main.cpp  ****         }
 4382              		.loc 6 257 13 view .LVU1491
 257:src/main.cpp  ****         }
 4383              		.loc 6 257 26 is_stmt 0 view .LVU1492
 4384 115e 0A20     		movs	r0, #10
 4385 1160 FFF7FEFF 		bl	_ZN5daisy6System5DelayEm
 4386              	.LVL363:
 257:src/main.cpp  ****         }
 4387              		.loc 6 257 26 view .LVU1493
 4388              	.LBE1233:
 208:src/main.cpp  ****             // Stay responsive to a host tuner while idling: this loop would
 4389              		.loc 6 208 9 is_stmt 1 view .LVU1494
 206:src/main.cpp  **** 
 4390              		.loc 6 206 9 view .LVU1495
 208:src/main.cpp  ****             // Stay responsive to a host tuner while idling: this loop would
 4391              		.loc 6 208 9 view .LVU1496
 4392              	.LBB1234:
 213:src/main.cpp  ****             if(g_live_tune) break;
 4393              		.loc 6 213 13 view .LVU1497
 213:src/main.cpp  ****             if(g_live_tune) break;
 4394              		.loc 6 213 29 is_stmt 0 view .LVU1498
 4395 1164 FFF7FEFF 		bl	_Z16serial_tune_pollv
 4396              	.LVL364:
 214:src/main.cpp  **** 
 4397              		.loc 6 214 13 is_stmt 1 view .LVU1499
 214:src/main.cpp  **** 
 4398              		.loc 6 214 16 is_stmt 0 view .LVU1500
 4399 1168 194B     		ldr	r3, .L564+24
 4400 116a 1B78     		ldrb	r3, [r3]	@ zero_extendqisi2
 214:src/main.cpp  **** 
 4401              		.loc 6 214 13 view .LVU1501
 4402 116c 002B     		cmp	r3, #0
 4403 116e 3FF412AF 		beq	.L535
 4404              	.LVL365:
 4405              	.L116:
 214:src/main.cpp  **** 
 4406              		.loc 6 214 13 view .LVU1502
 4407              	.LBE1234:
 261:src/main.cpp  ****         hw.dac.WriteValue(DacHandle::Channel::TWO, 0);
 4408              		.loc 6 261 9 is_stmt 1 view .LVU1503
 261:src/main.cpp  ****         hw.dac.WriteValue(DacHandle::Channel::TWO, 0);
 4409              		.loc 6 261 26 is_stmt 0 view .LVU1504
 4410 1172 0022     		movs	r2, #0
 4411 1174 1448     		ldr	r0, .L564+16
 4412 1176 DDF820B0 		ldr	fp, [sp, #32]
 4413 117a 1146     		mov	r1, r2
 4414 117c DDE90445 		ldrd	r4, r5, [sp, #16]
 4415              	.LVL366:
 261:src/main.cpp  ****         hw.dac.WriteValue(DacHandle::Channel::TWO, 0);
 4416              		.loc 6 261 26 view .LVU1505
 4417 1180 FFF7FEFF 		bl	_ZN5daisy9DacHandle10WriteValueENS0_7ChannelEt
 4418              	.LVL367:
 262:src/main.cpp  ****         g_led3_duty = 0.0f;
ARM GAS  /tmp/claude-502/ccJ8DnOJ.s 			page 138


 4419              		.loc 6 262 9 is_stmt 1 view .LVU1506
 262:src/main.cpp  ****         g_led3_duty = 0.0f;
 4420              		.loc 6 262 26 is_stmt 0 view .LVU1507
 4421 1184 0121     		movs	r1, #1
 4422 1186 0022     		movs	r2, #0
 4423 1188 0F48     		ldr	r0, .L564+16
 4424 118a FFF7FEFF 		bl	_ZN5daisy9DacHandle10WriteValueENS0_7ChannelEt
 4425              	.LVL368:
 263:src/main.cpp  ****     };
 4426              		.loc 6 263 9 is_stmt 1 view .LVU1508
 263:src/main.cpp  ****     };
 4427              		.loc 6 263 21 is_stmt 0 view .LVU1509
 4428 118e 0023     		movs	r3, #0
 4429 1190 169A     		ldr	r2, [sp, #88]
 4430 1192 1360     		str	r3, [r2]	@ float
 4431              	.LVL369:
 263:src/main.cpp  ****     };
 4432              		.loc 6 263 21 view .LVU1510
 4433              	.LBE1239:
 4434              	.LBE1244:
 4435              	.LBE1249:
 580:src/main.cpp  ****             idle_since    = System::GetNow();
 4436              		.loc 6 580 13 is_stmt 1 view .LVU1511
 580:src/main.cpp  ****             idle_since    = System::GetNow();
 4437              		.loc 6 580 43 is_stmt 0 view .LVU1512
 4438 1194 FFF7FEFF 		bl	_ZN5daisy6System6GetNowEv
 4439              	.LVL370:
 4440 1198 0D90     		str	r0, [sp, #52]
 4441              	.LVL371:
 581:src/main.cpp  ****             if(!serial_display_muted()) usb_log("[fsr recal] fsr_max=%d", (int)fsr_max);
 4442              		.loc 6 581 13 is_stmt 1 view .LVU1513
 581:src/main.cpp  ****             if(!serial_display_muted()) usb_log("[fsr recal] fsr_max=%d", (int)fsr_max);
 4443              		.loc 6 581 43 is_stmt 0 view .LVU1514
 4444 119a FFF7FEFF 		bl	_ZN5daisy6System6GetNowEv
 4445              	.LVL372:
 581:src/main.cpp  ****             if(!serial_display_muted()) usb_log("[fsr recal] fsr_max=%d", (int)fsr_max);
 4446              		.loc 6 581 43 view .LVU1515
 4447 119e 1190     		str	r0, [sp, #68]
 4448              	.LVL373:
 582:src/main.cpp  ****         }
 4449              		.loc 6 582 13 is_stmt 1 view .LVU1516
 582:src/main.cpp  ****         }
 4450              		.loc 6 582 37 is_stmt 0 view .LVU1517
 4451 11a0 FFF7FEFF 		bl	_Z20serial_display_mutedv
 4452              	.LVL374:
 582:src/main.cpp  ****         }
 4453              		.loc 6 582 13 view .LVU1518
 4454 11a4 0028     		cmp	r0, #0
 4455 11a6 7FF471A9 		bne	.L113
 582:src/main.cpp  ****         }
 4456              		.loc 6 582 41 is_stmt 1 discriminator 1 view .LVU1519
 582:src/main.cpp  ****         }
 4457              		.loc 6 582 48 is_stmt 0 discriminator 1 view .LVU1520
 4458 11aa BDF87810 		ldrh	r1, [sp, #120]
 4459 11ae 1148     		ldr	r0, .L564+60
 4460 11b0 FFF7FEFF 		bl	usb_log
 4461              	.LVL375:
ARM GAS  /tmp/claude-502/ccJ8DnOJ.s 			page 139


 4462 11b4 FFF76AB9 		b	.L113
 4463              	.L565:
 4464              		.align	2
 4465              	.L564:
 4466 11b8 00000000 		.word	g_amp_target
 4467 11bc 00000000 		.word	g_serial_quiet
 4468 11c0 00000000 		.word	.LANCHOR3
 4469 11c4 00000000 		.word	.LANCHOR4
 4470 11c8 20000000 		.word	.LANCHOR0+32
 4471 11cc CDCC4C3D 		.word	1028443341
 4472 11d0 00000000 		.word	g_live_tune
 4473 11d4 F1197605 		.word	91625969
 4474 11d8 00803B46 		.word	1178304512
 4475 11dc DB0FC940 		.word	1086918619
 4476 11e0 00000000 		.word	0
 4477 11e4 00F07F45 		.word	1166012416
 4478 11e8 CDCC4C3D 		.word	1028443341
 4479 11ec 18000000 		.word	.LANCHOR0+24
 4480 11f0 CDCCCC3D 		.word	1036831949
 4481 11f4 C0010000 		.word	.LC17
 4482              	.LVL376:
 4483              	.L521:
 653:src/main.cpp  **** 
 4484              		.loc 6 653 66 view .LVU1521
 4485 11f8 CE4B     		ldr	r3, .L566
 4486 11fa 1D68     		ldr	r5, [r3]
 653:src/main.cpp  **** 
 4487              		.loc 6 653 80 view .LVU1522
 4488 11fc CE4B     		ldr	r3, .L566+4
 4489 11fe 05EB4505 		add	r5, r5, r5, lsl #1
 4490 1202 03EB8515 		add	r5, r3, r5, lsl #6
 4491              	.LVL377:
 655:src/main.cpp  ****         {
 4492              		.loc 6 655 9 is_stmt 1 view .LVU1523
 4493              	.LBB1250:
 4494 1206 059B     		ldr	r3, [sp, #20]
 4495 1208 002B     		cmp	r3, #0
 4496 120a 7FF4C2A9 		bne	.L290
 4497              	.LVL378:
 4498              	.L291:
 773:src/main.cpp  ****             g_finger_on  = false;
 4499              		.loc 6 773 13 view .LVU1524
 774:src/main.cpp  ****             g_amp_target = 0.0f;
 4500              		.loc 6 774 13 view .LVU1525
 774:src/main.cpp  ****             g_amp_target = 0.0f;
 4501              		.loc 6 774 26 is_stmt 0 view .LVU1526
 4502 120e 0023     		movs	r3, #0
 4503 1210 CA4A     		ldr	r2, .L566+8
 4504 1212 0126     		movs	r6, #1
 4505 1214 1370     		strb	r3, [r2]
 775:src/main.cpp  ****             // Do NOT reset cutoff here ŌĆö let it close with the amplitude
 4506              		.loc 6 775 13 is_stmt 1 view .LVU1527
 775:src/main.cpp  ****             // Do NOT reset cutoff here ŌĆö let it close with the amplitude
 4507              		.loc 6 775 13 is_stmt 0 view .LVU1528
 4508              	.LBE1250:
 792:src/main.cpp  ****             blink_tick(System::GetNow());
 4509              		.loc 6 792 9 is_stmt 1 view .LVU1529
ARM GAS  /tmp/claude-502/ccJ8DnOJ.s 			page 140


 4510              	.LBB1251:
 775:src/main.cpp  ****             // Do NOT reset cutoff here ŌĆö let it close with the amplitude
 4511              		.loc 6 775 26 is_stmt 0 view .LVU1530
 4512 1216 0023     		movs	r3, #0
 4513 1218 C94A     		ldr	r2, .L566+12
 4514 121a 1360     		str	r3, [r2]	@ float
 4515              	.LBE1251:
 4516              	.LBB1252:
 792:src/main.cpp  ****             blink_tick(System::GetNow());
 4517              		.loc 6 792 9 view .LVU1531
 4518 121c 0A9B     		ldr	r3, [sp, #40]
 4519 121e 002B     		cmp	r3, #0
 4520 1220 7FF701AB 		ble	.L536
 4521              	.LVL379:
 4522              	.L189:
 793:src/main.cpp  ****         } else {
 4523              		.loc 6 793 13 is_stmt 1 view .LVU1532
 793:src/main.cpp  ****         } else {
 4524              		.loc 6 793 23 is_stmt 0 view .LVU1533
 4525 1224 FFF7FEFF 		bl	_ZN5daisy6System6GetNowEv
 4526              	.LVL380:
 4527              	.LBB1030:
 362:src/main.cpp  ****         if(blink_left == 0 && !blink_on) return;
 4528              		.loc 6 362 23 is_stmt 1 view .LVU1534
 4529              	.LBB1029:
 363:src/main.cpp  ****         if((int32_t)(now - blink_t) < 0)  return;
 4530              		.loc 6 363 9 view .LVU1535
 364:src/main.cpp  ****         if(blink_on){ leds_write(false); blink_on = false; blink_left--; blink_t = now + 140; }
 4531              		.loc 6 364 9 view .LVU1536
 364:src/main.cpp  ****         if(blink_on){ leds_write(false); blink_on = false; blink_left--; blink_t = now + 140; }
 4532              		.loc 6 364 26 is_stmt 0 view .LVU1537
 4533 1228 109B     		ldr	r3, [sp, #64]
 4534 122a C31A     		subs	r3, r0, r3
 364:src/main.cpp  ****         if(blink_on){ leds_write(false); blink_on = false; blink_left--; blink_t = now + 140; }
 4535              		.loc 6 364 9 view .LVU1538
 4536 122c 002B     		cmp	r3, #0
 4537 122e FFF618AB 		blt	.L192
 365:src/main.cpp  ****         else if(blink_left > 0){ leds_write(true); blink_on = true; blink_t = now + 110; }
 4538              		.loc 6 365 9 is_stmt 1 view .LVU1539
 4539 1232 0B9B     		ldr	r3, [sp, #44]
 4540 1234 002B     		cmp	r3, #0
 4541 1236 7FF400AB 		bne	.L293
 366:src/main.cpp  ****     };
 4542              		.loc 6 366 14 view .LVU1540
 4543              	.LVL381:
 4544              	.LBB1021:
 4545              	.LBI1021:
 362:src/main.cpp  ****         if(blink_left == 0 && !blink_on) return;
 4546              		.loc 6 362 23 view .LVU1541
 4547              	.LBB1022:
 366:src/main.cpp  ****     };
 4548              		.loc 6 366 34 view .LVU1542
 4549              	.LBB1023:
 4550              	.LBI1023:
 352:src/main.cpp  ****         hw.dac.WriteValue(DacHandle::Channel::ONE, on ? (uint16_t)LED1_MAX : 0);
 4551              		.loc 6 352 23 view .LVU1543
 4552              	.LBB1024:
ARM GAS  /tmp/claude-502/ccJ8DnOJ.s 			page 141


 353:src/main.cpp  ****         hw.dac.WriteValue(DacHandle::Channel::TWO, on ? (uint16_t)LED2_MAX : 0);
 4553              		.loc 6 353 9 view .LVU1544
 4554              	.LBE1024:
 4555              	.LBE1023:
 366:src/main.cpp  ****     };
 4556              		.loc 6 366 83 is_stmt 0 view .LVU1545
 4557 123a 00F16E03 		add	r3, r0, #110
 4558              	.LBB1027:
 4559              	.LBB1025:
 353:src/main.cpp  ****         hw.dac.WriteValue(DacHandle::Channel::TWO, on ? (uint16_t)LED2_MAX : 0);
 4560              		.loc 6 353 26 view .LVU1546
 4561 123e 0B99     		ldr	r1, [sp, #44]
 4562 1240 40F6FF72 		movw	r2, #4095
 4563 1244 BF48     		ldr	r0, .L566+16
 4564              	.LVL382:
 353:src/main.cpp  ****         hw.dac.WriteValue(DacHandle::Channel::TWO, on ? (uint16_t)LED2_MAX : 0);
 4565              		.loc 6 353 26 view .LVU1547
 4566              	.LBE1025:
 4567              	.LBE1027:
 366:src/main.cpp  ****     };
 4568              		.loc 6 366 83 view .LVU1548
 4569 1246 1093     		str	r3, [sp, #64]
 4570              	.LVL383:
 4571              	.LBB1028:
 4572              	.LBB1026:
 353:src/main.cpp  ****         hw.dac.WriteValue(DacHandle::Channel::TWO, on ? (uint16_t)LED2_MAX : 0);
 4573              		.loc 6 353 26 view .LVU1549
 4574 1248 FFF7FEFF 		bl	_ZN5daisy9DacHandle10WriteValueENS0_7ChannelEt
 4575              	.LVL384:
 354:src/main.cpp  ****         g_led3_duty = on ? LED3_INTENSITY : 0.0f;
 4576              		.loc 6 354 9 is_stmt 1 view .LVU1550
 354:src/main.cpp  ****         g_led3_duty = on ? LED3_INTENSITY : 0.0f;
 4577              		.loc 6 354 26 is_stmt 0 view .LVU1551
 4578 124c 40F6FF72 		movw	r2, #4095
 4579 1250 0121     		movs	r1, #1
 4580 1252 BC48     		ldr	r0, .L566+16
 4581 1254 FFF7FEFF 		bl	_ZN5daisy9DacHandle10WriteValueENS0_7ChannelEt
 4582              	.LVL385:
 355:src/main.cpp  ****     };
 4583              		.loc 6 355 9 is_stmt 1 view .LVU1552
 355:src/main.cpp  ****     };
 4584              		.loc 6 355 21 is_stmt 0 view .LVU1553
 4585 1258 BB4B     		ldr	r3, .L566+20
 4586 125a 169A     		ldr	r2, [sp, #88]
 4587 125c 1360     		str	r3, [r2]	@ float
 4588              	.LVL386:
 355:src/main.cpp  ****     };
 4589              		.loc 6 355 21 view .LVU1554
 4590              	.LBE1026:
 4591              	.LBE1028:
 366:src/main.cpp  ****     };
 4592              		.loc 6 366 52 is_stmt 1 view .LVU1555
 366:src/main.cpp  ****     };
 4593              		.loc 6 366 69 view .LVU1556
 366:src/main.cpp  ****     };
 4594              		.loc 6 366 61 is_stmt 0 view .LVU1557
 4595 125e 0123     		movs	r3, #1
ARM GAS  /tmp/claude-502/ccJ8DnOJ.s 			page 142


 4596 1260 0B93     		str	r3, [sp, #44]
 4597 1262 FFF7FEBA 		b	.L192
 4598              	.LVL387:
 4599              	.L518:
 366:src/main.cpp  ****     };
 4600              		.loc 6 366 61 view .LVU1558
 4601              	.LBE1022:
 4602              	.LBE1021:
 4603              	.LBE1029:
 4604              	.LBE1030:
 4605              	.LBE1252:
 590:src/main.cpp  **** 
 4606              		.loc 6 590 54 discriminator 1 view .LVU1559
 4607 1266 FFF7FEFF 		bl	_ZN5daisy6System6GetNowEv
 4608              	.LVL388:
 590:src/main.cpp  **** 
 4609              		.loc 6 590 57 discriminator 1 view .LVU1560
 4610 126a 189B     		ldr	r3, [sp, #96]
 4611 126c C01A     		subs	r0, r0, r3
 590:src/main.cpp  **** 
 4612              		.loc 6 590 36 discriminator 1 view .LVU1561
 4613 126e C728     		cmp	r0, #199
 4614 1270 94BF     		ite	ls
 4615 1272 0023     		movls	r3, #0
 4616 1274 0123     		movhi	r3, #1
 4617 1276 0E93     		str	r3, [sp, #56]
 4618 1278 FFF718B9 		b	.L144
 4619              	.LVL389:
 4620              	.L517:
 589:src/main.cpp  ****         bool f1_fresh = !f1_was_on && (System::GetNow() - f1_last_seen_ms >= F1_REQUANTIZE_MS);
 4621              		.loc 6 589 19 is_stmt 1 discriminator 1 view .LVU1562
 589:src/main.cpp  ****         bool f1_fresh = !f1_was_on && (System::GetNow() - f1_last_seen_ms >= F1_REQUANTIZE_MS);
 4622              		.loc 6 589 51 is_stmt 0 discriminator 1 view .LVU1563
 4623 127c FFF7FEFF 		bl	_ZN5daisy6System6GetNowEv
 4624              	.LVL390:
 589:src/main.cpp  ****         bool f1_fresh = !f1_was_on && (System::GetNow() - f1_last_seen_ms >= F1_REQUANTIZE_MS);
 4625              		.loc 6 589 51 discriminator 1 view .LVU1564
 4626 1280 1890     		str	r0, [sp, #96]
 4627              	.LVL391:
 589:src/main.cpp  ****         bool f1_fresh = !f1_was_on && (System::GetNow() - f1_last_seen_ms >= F1_REQUANTIZE_MS);
 4628              		.loc 6 589 51 discriminator 1 view .LVU1565
 4629 1282 FFF70DB9 		b	.L143
 4630              	.LVL392:
 4631              	.L357:
 4632              	.LBB1253:
 4633              	.LBB1180:
 892:src/main.cpp  ****             for(int s=0;s<2;s++)
 4634              		.loc 6 892 25 view .LVU1566
 4635 1286 B14B     		ldr	r3, .L566+24
 4636 1288 12E4     		b	.L257
 4637              	.LVL393:
 4638              	.L355:
 4639              	.LBB1177:
 4640              	.LBB1173:
 892:src/main.cpp  ****             for(int s=0;s<2;s++)
 4641              		.loc 6 892 25 view .LVU1567
 4642 128a 0020     		movs	r0, #0
ARM GAS  /tmp/claude-502/ccJ8DnOJ.s 			page 143


 4643 128c FFF7EBBB 		b	.L254
 4644              	.LVL394:
 4645              	.L524:
 892:src/main.cpp  ****             for(int s=0;s<2;s++)
 4646              		.loc 6 892 25 view .LVU1568
 4647              	.LBE1173:
 4648              	.LBE1177:
 4649              	.LBE1180:
 4650              	.LBE1253:
 4651              	.LBB1254:
 4652              	.LBB1031:
 795:src/main.cpp  ****             if(f1_on) {
 4653              		.loc 6 795 13 is_stmt 1 view .LVU1569
 796:src/main.cpp  ****                 float p01      = clampf((float)tracked[0].pos / 1000.0f, 0.0f, 1.0f);
 4654              		.loc 6 796 13 view .LVU1570
 4655              	.LBB1032:
 4656 1290 059B     		ldr	r3, [sp, #20]
 4657 1292 002B     		cmp	r3, #0
 4658 1294 00F0B082 		beq	.L342
 4659              	.LBB1033:
 797:src/main.cpp  ****                 float pr01     = clampf((float)tracked[0].pressure / 100.0f, 0.0f, 1.0f);
 4660              		.loc 6 797 17 view .LVU1571
 797:src/main.cpp  ****                 float pr01     = clampf((float)tracked[0].pressure / 100.0f, 0.0f, 1.0f);
 4661              		.loc 6 797 41 is_stmt 0 view .LVU1572
 4662 1298 DBED017A 		vldr.32	s15, [fp, #4]	@ int
 797:src/main.cpp  ****                 float pr01     = clampf((float)tracked[0].pressure / 100.0f, 0.0f, 1.0f);
 4663              		.loc 6 797 40 view .LVU1573
 4664 129c DFEDAC6A 		vldr.32	s13, .L566+28
 797:src/main.cpp  ****                 float pr01     = clampf((float)tracked[0].pressure / 100.0f, 0.0f, 1.0f);
 4665              		.loc 6 797 41 view .LVU1574
 4666 12a0 F8EEE77A 		vcvt.f32.s32	s15, s15
 797:src/main.cpp  ****                 float pr01     = clampf((float)tracked[0].pressure / 100.0f, 0.0f, 1.0f);
 4667              		.loc 6 797 40 view .LVU1575
 4668 12a4 87EEA67A 		vdiv.f32	s14, s15, s13
 4669              	.LVL395:
 4670              	.LBB1034:
 4671              	.LBI1034:
  12:src/dsp.h     ****     return v<lo?lo:v>hi?hi:v;
 4672              		.loc 8 12 21 is_stmt 1 view .LVU1576
 4673              	.LBB1035:
 4674              		.loc 8 13 5 view .LVU1577
 4675              		.loc 8 13 16 is_stmt 0 view .LVU1578
 4676 12a8 B5EEC07A 		vcmpe.f32	s14, #0
 4677 12ac F1EE10FA 		vmrs	APSR_nzcv, FPSCR
 4678 12b0 00F13E84 		bmi	.L195
 4679              		.loc 8 13 24 view .LVU1579
 4680 12b4 F7EE007A 		vmov.f32	s15, #1.0e+0
 4681 12b8 B4EEE77A 		vcmpe.f32	s14, s15
 4682 12bc F1EE10FA 		vmrs	APSR_nzcv, FPSCR
 4683 12c0 00F36D85 		bgt	.L196
 4684              	.LVL396:
 4685              		.loc 8 13 24 view .LVU1580
 4686              	.LBE1035:
 4687              	.LBE1034:
 798:src/main.cpp  ****                 float prs_mult = 0.75f + 0.25f * pr01;
 4688              		.loc 6 798 17 is_stmt 1 view .LVU1581
 798:src/main.cpp  ****                 float prs_mult = 0.75f + 0.25f * pr01;
ARM GAS  /tmp/claude-502/ccJ8DnOJ.s 			page 144


 4689              		.loc 6 798 41 is_stmt 0 view .LVU1582
 4690 12c4 DBED026A 		vldr.32	s13, [fp, #8]	@ int
 798:src/main.cpp  ****                 float prs_mult = 0.75f + 0.25f * pr01;
 4691              		.loc 6 798 40 view .LVU1583
 4692 12c8 DFEDA25A 		vldr.32	s11, .L566+32
 798:src/main.cpp  ****                 float prs_mult = 0.75f + 0.25f * pr01;
 4693              		.loc 6 798 41 view .LVU1584
 4694 12cc B8EEE66A 		vcvt.f32.s32	s12, s13
 798:src/main.cpp  ****                 float prs_mult = 0.75f + 0.25f * pr01;
 4695              		.loc 6 798 40 view .LVU1585
 4696 12d0 C6EE256A 		vdiv.f32	s13, s12, s11
 4697              	.LVL397:
 4698              	.LBB1036:
 4699              	.LBI1036:
  12:src/dsp.h     ****     return v<lo?lo:v>hi?hi:v;
 4700              		.loc 8 12 21 is_stmt 1 view .LVU1586
 4701              	.LBB1037:
 4702              		.loc 8 13 5 view .LVU1587
 4703              		.loc 8 13 16 is_stmt 0 view .LVU1588
 4704 12d4 F5EEC06A 		vcmpe.f32	s13, #0
 4705 12d8 F1EE10FA 		vmrs	APSR_nzcv, FPSCR
 4706 12dc 40F1A886 		bpl	.L490
 4707              	.LBE1037:
 4708              	.LBE1036:
 802:src/main.cpp  ****                 led1_target    = sqrtf(sqrtf(l2_raw)) * prs_mult;  // middle tent
 4709              		.loc 6 802 58 view .LVU1589
 4710 12e0 F6EE006A 		vmov.f32	s13, #5.0e-1
 4711              	.LVL398:
 800:src/main.cpp  ****                 float l3_raw   = 2.0f * p01 - 1.0f;                 if(l3_raw < 0) l3_raw = 0;
 4712              		.loc 6 800 23 view .LVU1590
 4713 12e4 B0EE006A 		vmov.f32	s12, #2.0e+0
 4714              	.LVL399:
 801:src/main.cpp  ****                 float l2_raw   = 1.0f - 2.0f * fabsf(p01 - 0.5f);   if(l2_raw < 0) l2_raw = 0;
 4715              		.loc 6 801 23 view .LVU1591
 4716 12e8 BFEE00CA 		vmov.f32	s24, #-1.0e+0
 802:src/main.cpp  ****                 led1_target    = sqrtf(sqrtf(l2_raw)) * prs_mult;  // middle tent
 4717              		.loc 6 802 23 view .LVU1592
 4718 12ec F6EE08BA 		vmov.f32	s23, #7.5e-1
 4719              	.L509:
 802:src/main.cpp  ****                 led1_target    = sqrtf(sqrtf(l2_raw)) * prs_mult;  // middle tent
 4720              		.loc 6 802 58 view .LVU1593
 4721 12f0 77EE666A 		vsub.f32	s13, s14, s13
 800:src/main.cpp  ****                 float l3_raw   = 2.0f * p01 - 1.0f;                 if(l3_raw < 0) l3_raw = 0;
 4722              		.loc 6 800 23 view .LVU1594
 4723 12f4 B0EE67BA 		vmov.f32	s22, s15
 801:src/main.cpp  ****                 float l2_raw   = 1.0f - 2.0f * fabsf(p01 - 0.5f);   if(l2_raw < 0) l2_raw = 0;
 4724              		.loc 6 801 23 view .LVU1595
 4725 12f8 A7EE06CA 		vfma.f32	s24, s14, s12
 802:src/main.cpp  ****                 led1_target    = sqrtf(sqrtf(l2_raw)) * prs_mult;  // middle tent
 4726              		.loc 6 802 53 view .LVU1596
 4727 12fc F0EEE66A 		vabs.f32	s13, s13
 800:src/main.cpp  ****                 float l3_raw   = 2.0f * p01 - 1.0f;                 if(l3_raw < 0) l3_raw = 0;
 4728              		.loc 6 800 23 view .LVU1597
 4729 1300 A7EE46BA 		vfms.f32	s22, s14, s12
 802:src/main.cpp  ****                 led1_target    = sqrtf(sqrtf(l2_raw)) * prs_mult;  // middle tent
 4730              		.loc 6 802 23 view .LVU1598
 4731 1304 E6EEC67A 		vfms.f32	s15, s13, s12
ARM GAS  /tmp/claude-502/ccJ8DnOJ.s 			page 145


 4732 1308 B0EE677A 		vmov.f32	s14, s15
 4733              	.LVL400:
 4734              	.L199:
 799:src/main.cpp  ****                 float l1_raw   = 1.0f - 2.0f * p01;                 if(l1_raw < 0) l1_raw = 0;
 4735              		.loc 6 799 17 is_stmt 1 view .LVU1599
 800:src/main.cpp  ****                 float l3_raw   = 2.0f * p01 - 1.0f;                 if(l3_raw < 0) l3_raw = 0;
 4736              		.loc 6 800 17 view .LVU1600
 800:src/main.cpp  ****                 float l3_raw   = 2.0f * p01 - 1.0f;                 if(l3_raw < 0) l3_raw = 0;
 4737              		.loc 6 800 69 view .LVU1601
 4738 130c B5EEC0BA 		vcmpe.f32	s22, #0
 4739 1310 F1EE10FA 		vmrs	APSR_nzcv, FPSCR
 801:src/main.cpp  ****                 float l2_raw   = 1.0f - 2.0f * fabsf(p01 - 0.5f);   if(l2_raw < 0) l2_raw = 0;
 4740              		.loc 6 801 69 is_stmt 0 view .LVU1602
 4741 1314 B5EEC0CA 		vcmpe.f32	s24, #0
 800:src/main.cpp  ****                 float l3_raw   = 2.0f * p01 - 1.0f;                 if(l3_raw < 0) l3_raw = 0;
 4742              		.loc 6 800 91 view .LVU1603
 4743 1318 48BF     		it	mi
 4744 131a 9FED8FBA 		vldrmi.32	s22, .L566+36
 4745              	.LVL401:
 801:src/main.cpp  ****                 float l2_raw   = 1.0f - 2.0f * fabsf(p01 - 0.5f);   if(l2_raw < 0) l2_raw = 0;
 4746              		.loc 6 801 17 is_stmt 1 view .LVU1604
 801:src/main.cpp  ****                 float l2_raw   = 1.0f - 2.0f * fabsf(p01 - 0.5f);   if(l2_raw < 0) l2_raw = 0;
 4747              		.loc 6 801 69 view .LVU1605
 4748 131e F1EE10FA 		vmrs	APSR_nzcv, FPSCR
 802:src/main.cpp  ****                 led1_target    = sqrtf(sqrtf(l2_raw)) * prs_mult;  // middle tent
 4749              		.loc 6 802 69 is_stmt 0 view .LVU1606
 4750 1322 B5EEC07A 		vcmpe.f32	s14, #0
 801:src/main.cpp  ****                 float l2_raw   = 1.0f - 2.0f * fabsf(p01 - 0.5f);   if(l2_raw < 0) l2_raw = 0;
 4751              		.loc 6 801 91 view .LVU1607
 4752 1326 48BF     		it	mi
 4753 1328 9FED8BCA 		vldrmi.32	s24, .L566+36
 4754              	.LVL402:
 802:src/main.cpp  ****                 led1_target    = sqrtf(sqrtf(l2_raw)) * prs_mult;  // middle tent
 4755              		.loc 6 802 17 is_stmt 1 view .LVU1608
 802:src/main.cpp  ****                 led1_target    = sqrtf(sqrtf(l2_raw)) * prs_mult;  // middle tent
 4756              		.loc 6 802 69 view .LVU1609
 4757 132c F1EE10FA 		vmrs	APSR_nzcv, FPSCR
 4758 1330 40F13787 		bpl	.L537
 802:src/main.cpp  ****                 led1_target    = sqrtf(sqrtf(l2_raw)) * prs_mult;  // middle tent
 4759              		.loc 6 802 91 is_stmt 0 view .LVU1610
 4760 1334 9FED887A 		vldr.32	s14, .L566+36
 4761              	.L206:
 4762              	.LVL403:
 803:src/main.cpp  ****                 led2_target    = sqrtf(sqrtf(l1_raw)) * prs_mult;  // pos 0 ramp
 4763              		.loc 6 803 39 view .LVU1611
 4764 1338 B1EEC70A 		vsqrt.f32	s0, s14
 4765              	.LVL404:
 4766              	.L209:
 803:src/main.cpp  ****                 led2_target    = sqrtf(sqrtf(l1_raw)) * prs_mult;  // pos 0 ramp
 4767              		.loc 6 803 39 view .LVU1612
 4768 133c B5EE400A 		vcmp.f32	s0, #0
 4769 1340 F1EE10FA 		vmrs	APSR_nzcv, FPSCR
 4770 1344 00F15A87 		bmi	.L493
 4771 1348 F1EEC07A 		vsqrt.f32	s15, s0
 4772              	.L212:
 4773 134c B5EE40BA 		vcmp.f32	s22, #0
 803:src/main.cpp  ****                 led2_target    = sqrtf(sqrtf(l1_raw)) * prs_mult;  // pos 0 ramp
ARM GAS  /tmp/claude-502/ccJ8DnOJ.s 			page 146


 4774              		.loc 6 803 32 view .LVU1613
 4775 1350 67EEABAA 		vmul.f32	s21, s15, s23
 4776              	.LVL405:
 804:src/main.cpp  ****                 led3_target    = sqrtf(sqrtf(l3_raw)) * prs_mult * LED3_INTENSITY;
 4777              		.loc 6 804 17 is_stmt 1 view .LVU1614
 4778 1354 F1EE10FA 		vmrs	APSR_nzcv, FPSCR
 4779 1358 00F14A87 		bmi	.L494
 804:src/main.cpp  ****                 led3_target    = sqrtf(sqrtf(l3_raw)) * prs_mult * LED3_INTENSITY;
 4780              		.loc 6 804 39 is_stmt 0 view .LVU1615
 4781 135c B1EECB0A 		vsqrt.f32	s0, s22
 4782              	.L215:
 4783 1360 B5EE400A 		vcmp.f32	s0, #0
 4784 1364 F1EE10FA 		vmrs	APSR_nzcv, FPSCR
 4785 1368 00F13C87 		bmi	.L495
 4786 136c F1EEC07A 		vsqrt.f32	s15, s0
 4787              	.L218:
 4788 1370 B5EE40CA 		vcmp.f32	s24, #0
 804:src/main.cpp  ****                 led3_target    = sqrtf(sqrtf(l3_raw)) * prs_mult * LED3_INTENSITY;
 4789              		.loc 6 804 32 view .LVU1616
 4790 1374 27EEABBA 		vmul.f32	s22, s15, s23
 4791              	.LVL406:
 805:src/main.cpp  ****             }
 4792              		.loc 6 805 17 is_stmt 1 view .LVU1617
 4793 1378 F1EE10FA 		vmrs	APSR_nzcv, FPSCR
 4794 137c 00F12C87 		bmi	.L496
 805:src/main.cpp  ****             }
 4795              		.loc 6 805 39 is_stmt 0 view .LVU1618
 4796 1380 B1EECC0A 		vsqrt.f32	s0, s24
 4797              	.L221:
 805:src/main.cpp  ****             }
 4798              		.loc 6 805 39 view .LVU1619
 4799 1384 B5EE400A 		vcmp.f32	s0, #0
 4800 1388 F1EE10FA 		vmrs	APSR_nzcv, FPSCR
 4801 138c 00F15287 		bmi	.L497
 4802 1390 F1EEC07A 		vsqrt.f32	s15, s0
 4803              	.L224:
 805:src/main.cpp  ****             }
 4804              		.loc 6 805 32 view .LVU1620
 4805 1394 9FED717A 		vldr.32	s14, .L566+40
 4806              	.LBE1033:
 4807              	.LBE1032:
 4808              	.LBB1057:
 809:src/main.cpp  ****                 s_led1 = led1_target;
 4809              		.loc 6 809 13 view .LVU1621
 4810 1398 069B     		ldr	r3, [sp, #24]
 4811              	.LBE1057:
 4812              	.LBB1061:
 4813              	.LBB1048:
 805:src/main.cpp  ****             }
 4814              		.loc 6 805 55 view .LVU1622
 4815 139a 67EEAB7A 		vmul.f32	s15, s15, s23
 805:src/main.cpp  ****             }
 4816              		.loc 6 805 32 view .LVU1623
 4817 139e 67EE877A 		vmul.f32	s15, s15, s14
 4818              	.LVL407:
 805:src/main.cpp  ****             }
 4819              		.loc 6 805 32 view .LVU1624
ARM GAS  /tmp/claude-502/ccJ8DnOJ.s 			page 147


 4820              	.LBE1048:
 4821              	.LBE1061:
 809:src/main.cpp  ****                 s_led1 = led1_target;
 4822              		.loc 6 809 13 is_stmt 1 view .LVU1625
 4823              	.LBB1062:
 4824 13a2 002B     		cmp	r3, #0
 4825 13a4 40F0D584 		bne	.L538
 4826              	.LBE1062:
 4827              	.LBB1063:
 4828              	.LBB1049:
 805:src/main.cpp  ****             }
 4829              		.loc 6 805 32 is_stmt 0 view .LVU1626
 4830 13a8 B0EE679A 		vmov.f32	s18, s15
 4831              	.LVL408:
 804:src/main.cpp  ****                 led3_target    = sqrtf(sqrtf(l3_raw)) * prs_mult * LED3_INTENSITY;
 4832              		.loc 6 804 32 view .LVU1627
 4833 13ac B0EE4BAA 		vmov.f32	s20, s22
 4834              	.LVL409:
 803:src/main.cpp  ****                 led2_target    = sqrtf(sqrtf(l1_raw)) * prs_mult;  // pos 0 ramp
 4835              		.loc 6 803 32 view .LVU1628
 4836 13b0 F0EE6A9A 		vmov.f32	s19, s21
 4837              	.LVL410:
 4838              	.L225:
 803:src/main.cpp  ****                 led2_target    = sqrtf(sqrtf(l1_raw)) * prs_mult;  // pos 0 ramp
 4839              		.loc 6 803 32 view .LVU1629
 4840              	.LBE1049:
 4841              	.LBE1063:
 819:src/main.cpp  ****             hw.dac.WriteValue(DacHandle::Channel::TWO, (uint16_t)(s_led2 * LED2_MAX));
 4842              		.loc 6 819 13 is_stmt 1 view .LVU1630
 819:src/main.cpp  ****             hw.dac.WriteValue(DacHandle::Channel::TWO, (uint16_t)(s_led2 * LED2_MAX));
 4843              		.loc 6 819 74 is_stmt 0 view .LVU1631
 4844 13b4 DFED6AAA 		vldr.32	s21, .L566+44
 819:src/main.cpp  ****             hw.dac.WriteValue(DacHandle::Channel::TWO, (uint16_t)(s_led2 * LED2_MAX));
 4845              		.loc 6 819 30 view .LVU1632
 4846 13b8 0021     		movs	r1, #0
 4847 13ba 6248     		ldr	r0, .L566+16
 819:src/main.cpp  ****             hw.dac.WriteValue(DacHandle::Channel::TWO, (uint16_t)(s_led2 * LED2_MAX));
 4848              		.loc 6 819 74 view .LVU1633
 4849 13bc 69EEAA7A 		vmul.f32	s15, s19, s21
 819:src/main.cpp  ****             hw.dac.WriteValue(DacHandle::Channel::TWO, (uint16_t)(s_led2 * LED2_MAX));
 4850              		.loc 6 819 30 view .LVU1634
 4851 13c0 FCEEE77A 		vcvt.u32.f32	s15, s15
 4852 13c4 17EE903A 		vmov	r3, s15	@ int
 4853 13c8 9AB2     		uxth	r2, r3
 4854 13ca FFF7FEFF 		bl	_ZN5daisy9DacHandle10WriteValueENS0_7ChannelEt
 4855              	.LVL411:
 820:src/main.cpp  ****             g_led3_duty = s_led3;  // audio callback sigma-delta's this onto A0
 4856              		.loc 6 820 13 is_stmt 1 view .LVU1635
 820:src/main.cpp  ****             g_led3_duty = s_led3;  // audio callback sigma-delta's this onto A0
 4857              		.loc 6 820 74 is_stmt 0 view .LVU1636
 4858 13ce 6AEE2AAA 		vmul.f32	s21, s20, s21
 820:src/main.cpp  ****             g_led3_duty = s_led3;  // audio callback sigma-delta's this onto A0
 4859              		.loc 6 820 30 view .LVU1637
 4860 13d2 0121     		movs	r1, #1
 4861 13d4 5B48     		ldr	r0, .L566+16
 4862 13d6 FCEEEAAA 		vcvt.u32.f32	s21, s21
 4863 13da 1AEE903A 		vmov	r3, s21	@ int
ARM GAS  /tmp/claude-502/ccJ8DnOJ.s 			page 148


 4864 13de 9AB2     		uxth	r2, r3
 4865 13e0 FFF7FEFF 		bl	_ZN5daisy9DacHandle10WriteValueENS0_7ChannelEt
 4866              	.LVL412:
 821:src/main.cpp  ****         }
 4867              		.loc 6 821 13 is_stmt 1 view .LVU1638
 821:src/main.cpp  ****         }
 4868              		.loc 6 821 25 is_stmt 0 view .LVU1639
 4869 13e4 169B     		ldr	r3, [sp, #88]
 4870 13e6 83ED009A 		vstr.32	s18, [r3]
 4871 13ea FFF73ABA 		b	.L192
 4872              	.LVL413:
 4873              	.L64:
 821:src/main.cpp  ****         }
 4874              		.loc 6 821 25 view .LVU1640
 4875              	.LBE1031:
 4876              	.LBE1254:
 450:src/main.cpp  **** 
 4877              		.loc 6 450 9 is_stmt 1 view .LVU1641
 450:src/main.cpp  **** 
 4878              		.loc 6 450 22 is_stmt 0 view .LVU1642
 4879 13ee DFED5A7A 		vldr.32	s15, .L566+36
 4880 13f2 5C4B     		ldr	r3, .L566+48
 448:src/main.cpp  ****         else                        vol = (float)(fsr_raw - FSR_MIN) * fsr_active_inv;
 4881              		.loc 6 448 41 view .LVU1643
 4882 13f4 B0EE678A 		vmov.f32	s16, s15
 450:src/main.cpp  **** 
 4883              		.loc 6 450 22 view .LVU1644
 4884 13f8 C3ED007A 		vstr.32	s15, [r3]
 457:src/main.cpp  ****         else if(vol >= 0.4f)   full_state = false;   // clearly eased off
 4885              		.loc 6 457 9 is_stmt 1 view .LVU1645
 457:src/main.cpp  ****         else if(vol >= 0.4f)   full_state = false;   // clearly eased off
 4886              		.loc 6 457 43 is_stmt 0 view .LVU1646
 4887 13fc 0123     		movs	r3, #1
 4888 13fe 0793     		str	r3, [sp, #28]
 4889              	.LVL414:
 457:src/main.cpp  ****         else if(vol >= 0.4f)   full_state = false;   // clearly eased off
 4890              		.loc 6 457 43 view .LVU1647
 4891 1400 FEF7B7BF 		b	.L65
 4892              	.LVL415:
 4893              	.L367:
 4894              	.LBB1255:
 489:src/main.cpp  **** 
 4895              		.loc 6 489 34 view .LVU1648
 4896 1404 0123     		movs	r3, #1
 4897 1406 0993     		str	r3, [sp, #36]
 4898              	.LVL416:
 4899              	.LBB772:
 504:src/main.cpp  ****                 }
 4900              		.loc 6 504 32 view .LVU1649
 4901 1408 0C9B     		ldr	r3, [sp, #48]
 4902 140a 1793     		str	r3, [sp, #92]
 4903              	.LVL417:
 504:src/main.cpp  ****                 }
 4904              		.loc 6 504 32 view .LVU1650
 4905 140c FFF738B8 		b	.L285
 4906              	.LVL418:
 4907              	.L324:
ARM GAS  /tmp/claude-502/ccJ8DnOJ.s 			page 149


 504:src/main.cpp  ****                 }
 4908              		.loc 6 504 32 view .LVU1651
 4909              	.LBE772:
 4910              	.LBE1255:
 4911              	.LBB1256:
 4912              	.LBB1003:
 4913              	.LBB983:
 4914              	.LBB903:
 4915              		.loc 8 13 16 view .LVU1652
 4916 1410 DFED517A 		vldr.32	s15, .L566+36
 4917              	.LVL419:
 4918              		.loc 8 13 16 view .LVU1653
 4919 1414 FFF7D3B8 		b	.L172
 4920              	.LVL420:
 4921              	.L338:
 4922              		.loc 8 13 16 view .LVU1654
 4923              	.LBE903:
 4924              	.LBE983:
 4925              	.LBB984:
 4926              	.LBB981:
 722:src/main.cpp  ****                 return x*x*(3.0f - 2.0f*x);
 4927              		.loc 6 722 24 view .LVU1655
 4928 1418 B5EEC0BA 		vcmpe.f32	s22, #0
 4929              	.LBE981:
 4930              	.LBE984:
 4931              	.LBB985:
 4932              	.LBB970:
 4933 141c DFED4ECA 		vldr.32	s25, .L566+36
 4934              	.LVL421:
 722:src/main.cpp  ****                 return x*x*(3.0f - 2.0f*x);
 4935              		.loc 6 722 24 view .LVU1656
 4936              	.LBE970:
 4937              	.LBE985:
 4938              	.LBB986:
 4939              	.LBB976:
 723:src/main.cpp  ****             };
 4940              		.loc 6 723 17 is_stmt 1 view .LVU1657
 723:src/main.cpp  ****             };
 4941              		.loc 6 723 17 is_stmt 0 view .LVU1658
 4942              	.LBE976:
 4943              	.LBE986:
 750:src/main.cpp  **** 
 4944              		.loc 6 750 13 is_stmt 1 view .LVU1659
 4945              	.LBB987:
 721:src/main.cpp  ****                 x = x<0?0:x>1?1:x;
 4946              		.loc 6 721 31 view .LVU1660
 4947              	.LBB982:
 722:src/main.cpp  ****                 return x*x*(3.0f - 2.0f*x);
 4948              		.loc 6 722 17 view .LVU1661
 722:src/main.cpp  ****                 return x*x*(3.0f - 2.0f*x);
 4949              		.loc 6 722 24 is_stmt 0 view .LVU1662
 4950 1420 F1EE10FA 		vmrs	APSR_nzcv, FPSCR
 4951 1424 7FF5BEA9 		bpl	.L539
 4952              	.L340:
 722:src/main.cpp  ****                 return x*x*(3.0f - 2.0f*x);
 4953              		.loc 6 722 24 view .LVU1663
 4954 1428 DFED4B7A 		vldr.32	s15, .L566+36
ARM GAS  /tmp/claude-502/ccJ8DnOJ.s 			page 150


 4955 142c FFF7CBB9 		b	.L187
 4956              	.LVL422:
 4957              	.L336:
 722:src/main.cpp  ****                 return x*x*(3.0f - 2.0f*x);
 4958              		.loc 6 722 24 view .LVU1664
 4959              	.LBE982:
 4960              	.LBE987:
 4961              	.LBB988:
 4962              	.LBB966:
 4963              		.loc 8 13 16 view .LVU1665
 4964 1430 F0EE47AA 		vmov.f32	s21, s14
 4965              	.LVL423:
 4966              		.loc 8 13 16 view .LVU1666
 4967 1434 FFF765B9 		b	.L185
 4968              	.LVL424:
 4969              	.L176:
 4970              		.loc 8 13 16 view .LVU1667
 4971              	.LBE966:
 4972              	.LBE988:
 4973              	.LBB989:
 4974              	.LBB911:
 684:src/main.cpp  ****                 // Chord voices: build the diatonic triad from the snapped root and
 4975              		.loc 6 684 17 is_stmt 1 view .LVU1668
 689:src/main.cpp  ****                     int third, fifth;
 4976              		.loc 6 689 17 view .LVU1669
 4977              	.LBB912:
 4978 1438 95F89C30 		ldrb	r3, [r5, #156]	@ zero_extendqisi2
 4979              	.LBE912:
 4980              	.LBB936:
 4981              	.LBB937:
 4982              		.loc 8 13 16 is_stmt 0 view .LVU1670
 4983 143c F0EE4CAA 		vmov.f32	s21, s24
 4984              	.LBE937:
 4985              	.LBE936:
 4986              	.LBB940:
 689:src/main.cpp  ****                     int third, fifth;
 4987              		.loc 6 689 17 view .LVU1671
 4988 1440 002B     		cmp	r3, #0
 4989 1442 40F08582 		bne	.L288
 4990              	.LVL425:
 4991              	.L289:
 689:src/main.cpp  ****                     int third, fifth;
 4992              		.loc 6 689 17 view .LVU1672
 4993              	.LBE940:
 4994              	.LBE911:
 4995              	.LBE989:
 4996              	.LBB990:
 4997              	.LBB955:
 4998              		.loc 8 13 24 view .LVU1673
 4999 1446 F4EEEABA 		vcmpe.f32	s23, s21
 5000 144a F1EE10FA 		vmrs	APSR_nzcv, FPSCR
 5001              	.LBE955:
 5002              	.LBE990:
 5003              	.LBB991:
 5004              	.LBB960:
 726:src/main.cpp  ****                 return x*x*x*(x*(x*6.0f - 15.0f) + 10.0f);
 5005              		.loc 6 726 24 view .LVU1674
ARM GAS  /tmp/claude-502/ccJ8DnOJ.s 			page 151


 5006 144e B5EEC0BA 		vcmpe.f32	s22, #0
 5007              	.LBE960:
 5008              	.LBE991:
 5009              	.LBB992:
 5010              	.LBB956:
 5011              		.loc 8 13 24 view .LVU1675
 5012 1452 58BF     		it	pl
 5013 1454 F0EE6ABA 		vmovpl.f32	s23, s21
 5014              	.LVL426:
 5015              		.loc 8 13 24 view .LVU1676
 5016              	.LBE956:
 5017              	.LBE992:
 721:src/main.cpp  ****                 x = x<0?0:x>1?1:x;
 5018              		.loc 6 721 13 is_stmt 1 view .LVU1677
 725:src/main.cpp  ****                 x = x<0?0:x>1?1:x;
 5019              		.loc 6 725 13 view .LVU1678
 732:src/main.cpp  ****             float cutoff_oct = VOICE.cutoff_oct_max * prs_cut;
 5020              		.loc 6 732 13 view .LVU1679
 5021              	.LBB993:
 725:src/main.cpp  ****                 x = x<0?0:x>1?1:x;
 5022              		.loc 6 725 33 view .LVU1680
 5023              	.LBB961:
 726:src/main.cpp  ****                 return x*x*x*(x*(x*6.0f - 15.0f) + 10.0f);
 5024              		.loc 6 726 17 view .LVU1681
 726:src/main.cpp  ****                 return x*x*x*(x*(x*6.0f - 15.0f) + 10.0f);
 5025              		.loc 6 726 24 is_stmt 0 view .LVU1682
 5026 1458 F1EE10FA 		vmrs	APSR_nzcv, FPSCR
 5027 145c 7FF5FEA8 		bpl	.L540
 5028              	.L333:
 726:src/main.cpp  ****                 return x*x*x*(x*(x*6.0f - 15.0f) + 10.0f);
 5029              		.loc 6 726 24 view .LVU1683
 5030 1460 DFED3D7A 		vldr.32	s15, .L566+36
 5031 1464 FFF711B9 		b	.L183
 5032              	.LVL427:
 5033              	.L328:
 726:src/main.cpp  ****                 return x*x*x*(x*(x*6.0f - 15.0f) + 10.0f);
 5034              		.loc 6 726 24 view .LVU1684
 5035              	.LBE961:
 5036              	.LBE993:
 5037              	.LBB994:
 5038              	.LBB909:
 5039              		.loc 8 13 16 view .LVU1685
 5040 1468 F0EE4CAA 		vmov.f32	s21, s24
 5041              	.LVL428:
 5042              		.loc 8 13 16 view .LVU1686
 5043 146c FFF7E1B8 		b	.L174
 5044              	.LVL429:
 5045              	.L326:
 5046              		.loc 8 13 16 view .LVU1687
 5047              	.LBE909:
 5048              	.LBE994:
 5049              	.LBB995:
 5050              	.LBB906:
 5051 1470 9FED39BA 		vldr.32	s22, .L566+36
 5052              	.LVL430:
 5053              		.loc 8 13 16 view .LVU1688
 5054 1474 FFF7B9B8 		b	.L173
ARM GAS  /tmp/claude-502/ccJ8DnOJ.s 			page 152


 5055              	.LVL431:
 5056              	.L310:
 5057              		.loc 8 13 16 view .LVU1689
 5058              	.LBE906:
 5059              	.LBE995:
 5060              	.LBE1003:
 5061              	.LBE1256:
 5062              	.LBB1257:
 5063              	.LBB1245:
 5064              	.LBB1240:
 5065              	.LBB1235:
 226:src/main.cpp  ****             float led1   = sqrtf(sqrtf(l2_raw));              // middle (DAC1)
 5066              		.loc 6 226 85 view .LVU1690
 5067 1478 9FED377A 		vldr.32	s14, .L566+36
 5068              	.LVL432:
 226:src/main.cpp  ****             float led1   = sqrtf(sqrtf(l2_raw));              // middle (DAC1)
 5069              		.loc 6 226 85 view .LVU1691
 5070 147c DAE5     		b	.L121
 5071              	.LVL433:
 5072              	.L93:
 226:src/main.cpp  ****             float led1   = sqrtf(sqrtf(l2_raw));              // middle (DAC1)
 5073              		.loc 6 226 85 view .LVU1692
 5074              	.LBE1235:
 5075              	.LBE1240:
 5076              	.LBE1245:
 5077              	.LBE1257:
 5078              	.LBB1258:
 5079              	.LBB773:
 5080              	.LBB750:
 5081              	.LBB718:
 5082              	.LBB669:
 535:src/main.cpp  ****                         g_finger_on = false; g_amp_target = 0.0f;   // silent cycling
 5083              		.loc 6 535 21 is_stmt 1 view .LVU1693
 540:src/main.cpp  ****                         // Drums kit: a tap fires a kick + snare "one-two" (one-shots).
 5084              		.loc 6 540 21 view .LVU1694
 540:src/main.cpp  ****                         // Drums kit: a tap fires a kick + snare "one-two" (one-shots).
 5085              		.loc 6 540 36 is_stmt 0 view .LVU1695
 5086 147e 3A4B     		ldr	r3, .L566+52
 5087 1480 1B68     		ldr	r3, [r3]
 540:src/main.cpp  ****                         // Drums kit: a tap fires a kick + snare "one-two" (one-shots).
 5088              		.loc 6 540 21 view .LVU1696
 5089 1482 0E2B     		cmp	r3, #14
 5090 1484 00F07783 		beq	.L104
 5091              	.LBE669:
 5092              	.LBE718:
 5093              	.LBE750:
 5094              	.LBE773:
 5095              	.LBE1258:
 562:src/main.cpp  ****             idle_since=System::GetNow();
 5096              		.loc 6 562 9 view .LVU1697
 5097 1488 002D     		cmp	r5, #0
 5098              	.LBB1259:
 5099              	.LBB774:
 5100              	.LBB751:
 5101              	.LBB719:
 5102              	.LBB670:
 540:src/main.cpp  ****                         // Drums kit: a tap fires a kick + snare "one-two" (one-shots).
ARM GAS  /tmp/claude-502/ccJ8DnOJ.s 			page 153


 5103              		.loc 6 540 21 view .LVU1698
 5104 148a 0997     		str	r7, [sp, #36]
 540:src/main.cpp  ****                         // Drums kit: a tap fires a kick + snare "one-two" (one-shots).
 5105              		.loc 6 540 21 view .LVU1699
 5106              	.LBE670:
 5107              	.LBE719:
 5108              	.LBE751:
 5109              	.LBE774:
 558:src/main.cpp  ****         }
 5110              		.loc 6 558 13 is_stmt 1 view .LVU1700
 5111              	.LVL434:
 558:src/main.cpp  ****         }
 5112              		.loc 6 558 13 is_stmt 0 view .LVU1701
 5113              	.LBE1259:
 562:src/main.cpp  ****             idle_since=System::GetNow();
 5114              		.loc 6 562 9 is_stmt 1 view .LVU1702
 5115 148c 3EF7F8AF 		bgt	.L285
 5116              	.LVL435:
 5117              	.L516:
 562:src/main.cpp  ****             idle_since=System::GetNow();
 5118              		.loc 6 562 9 is_stmt 0 view .LVU1703
 5119 1490 0D96     		str	r6, [sp, #52]
 5120              	.LVL436:
 565:src/main.cpp  ****                 tracked[0].alive=tracked[1].alive=false;
 5121              		.loc 6 565 13 is_stmt 1 view .LVU1704
 565:src/main.cpp  ****                 tracked[0].alive=tracked[1].alive=false;
 5122              		.loc 6 565 30 is_stmt 0 view .LVU1705
 5123 1492 FFF7FEFF 		bl	_ZN5daisy6System6GetNowEv
 5124              	.LVL437:
 565:src/main.cpp  ****                 tracked[0].alive=tracked[1].alive=false;
 5125              		.loc 6 565 32 view .LVU1706
 5126 1496 801B     		subs	r0, r0, r6
 565:src/main.cpp  ****                 tracked[0].alive=tracked[1].alive=false;
 5127              		.loc 6 565 13 view .LVU1707
 5128 1498 B0F5FA6F 		cmp	r0, #2000
 5129 149c FFF457AD 		bcc	.L309
 5130              	.LVL438:
 5131              	.L533:
 566:src/main.cpp  ****                 capture_baseline(baseline);
 5132              		.loc 6 566 17 is_stmt 1 view .LVU1708
 566:src/main.cpp  ****                 capture_baseline(baseline);
 5133              		.loc 6 566 50 is_stmt 0 view .LVU1709
 5134 14a0 0023     		movs	r3, #0
 567:src/main.cpp  ****                 if(!serial_display_muted()) usb_log("[rebaseline]");
 5135              		.loc 6 567 33 view .LVU1710
 5136 14a2 0F98     		ldr	r0, [sp, #60]
 566:src/main.cpp  ****                 capture_baseline(baseline);
 5137              		.loc 6 566 50 view .LVU1711
 5138 14a4 8BF81430 		strb	r3, [fp, #20]
 566:src/main.cpp  ****                 capture_baseline(baseline);
 5139              		.loc 6 566 33 view .LVU1712
 5140 14a8 8BF80030 		strb	r3, [fp]
 567:src/main.cpp  ****                 if(!serial_display_muted()) usb_log("[rebaseline]");
 5141              		.loc 6 567 17 is_stmt 1 view .LVU1713
 567:src/main.cpp  ****                 if(!serial_display_muted()) usb_log("[rebaseline]");
 5142              		.loc 6 567 33 is_stmt 0 view .LVU1714
 5143 14ac FFF7FEFF 		bl	_Z16capture_baselinePt
ARM GAS  /tmp/claude-502/ccJ8DnOJ.s 			page 154


 5144              	.LVL439:
 568:src/main.cpp  ****                 idle_since=System::GetNow();
 5145              		.loc 6 568 17 is_stmt 1 view .LVU1715
 568:src/main.cpp  ****                 idle_since=System::GetNow();
 5146              		.loc 6 568 41 is_stmt 0 view .LVU1716
 5147 14b0 FFF7FEFF 		bl	_Z20serial_display_mutedv
 5148              	.LVL440:
 568:src/main.cpp  ****                 idle_since=System::GetNow();
 5149              		.loc 6 568 17 view .LVU1717
 5150 14b4 0028     		cmp	r0, #0
 5151 14b6 00F05784 		beq	.L541
 5152              	.L115:
 569:src/main.cpp  ****             }
 5153              		.loc 6 569 17 is_stmt 1 view .LVU1718
 569:src/main.cpp  ****             }
 5154              		.loc 6 569 42 is_stmt 0 view .LVU1719
 5155 14ba FFF7FEFF 		bl	_ZN5daisy6System6GetNowEv
 5156              	.LVL441:
 5157 14be 1190     		str	r0, [sp, #68]
 5158              	.LVL442:
 569:src/main.cpp  ****             }
 5159              		.loc 6 569 42 view .LVU1720
 5160 14c0 46E5     		b	.L114
 5161              	.LVL443:
 5162              	.L313:
 5163              	.LBB1260:
 5164              	.LBB826:
 5165              	.LBB822:
 5166              	.LBB798:
 5167              	.LBB793:
 5168              	.LBB791:
 569:src/main.cpp  ****             }
 5169              		.loc 6 569 42 view .LVU1721
 5170 14c2 0B24     		movs	r4, #11
 5171              	.LVL444:
 569:src/main.cpp  ****             }
 5172              		.loc 6 569 42 view .LVU1722
 5173              	.LBE791:
 5174              	.LBE793:
 618:src/main.cpp  ****             } else vidx = g_active_voice;
 5175              		.loc 6 618 17 is_stmt 1 view .LVU1723
 618:src/main.cpp  ****             } else vidx = g_active_voice;
 5176              		.loc 6 618 34 view .LVU1724
 618:src/main.cpp  ****             } else vidx = g_active_voice;
 5177              		.loc 6 618 34 is_stmt 0 view .LVU1725
 5178 14c4 FFF71EB8 		b	.L151
 5179              	.LVL445:
 5180              	.L525:
 618:src/main.cpp  ****             } else vidx = g_active_voice;
 5181              		.loc 6 618 34 view .LVU1726
 5182              	.LBE798:
 5183              	.LBE822:
 5184              	.LBE826:
 5185              	.LBE1260:
 5186              	.LBB1261:
 5187              	.LBB1153:
 834:src/main.cpp  **** 
ARM GAS  /tmp/claude-502/ccJ8DnOJ.s 			page 155


 5188              		.loc 6 834 13 is_stmt 1 view .LVU1727
 837:src/main.cpp  ****                 x = x<0?0:x>1?1:x;
 5189              		.loc 6 837 13 view .LVU1728
 843:src/main.cpp  ****             float ss3 = smootherstep2(ss2);   // triple smootherstep ŌĆö very lazy
 5190              		.loc 6 843 13 view .LVU1729
 5191              	.LBB1136:
 725:src/main.cpp  ****                 x = x<0?0:x>1?1:x;
 5192              		.loc 6 725 33 view .LVU1730
 5193              	.LBB1098:
 726:src/main.cpp  ****                 return x*x*x*(x*(x*6.0f - 15.0f) + 10.0f);
 5194              		.loc 6 726 17 view .LVU1731
 727:src/main.cpp  ****             };
 5195              		.loc 6 727 41 is_stmt 0 view .LVU1732
 5196 14c8 B1EE085A 		vmov.f32	s10, #6.0e+0
 5197              	.LBE1098:
 5198              	.LBE1136:
 856:src/main.cpp  ****             float rm    = smoothstep2(rm_in) * VOICE.ringmod_max;
 5199              		.loc 6 856 41 view .LVU1733
 5200 14cc 9FED274A 		vldr.32	s8, .L566+56
 5201              	.LBB1137:
 5202              	.LBB1099:
 727:src/main.cpp  ****             };
 5203              		.loc 6 727 41 view .LVU1734
 5204 14d0 FAEE0E4A 		vmov.f32	s9, #-1.5e+1
 5205              	.LBE1099:
 5206              	.LBE1137:
 856:src/main.cpp  ****             float rm    = smoothstep2(rm_in) * VOICE.ringmod_max;
 5207              		.loc 6 856 33 view .LVU1735
 5208 14d4 DFED263A 		vldr.32	s7, .L566+60
 5209              	.LBB1138:
 5210              	.LBB1100:
 727:src/main.cpp  ****             };
 5211              		.loc 6 727 50 view .LVU1736
 5212 14d8 F2EE047A 		vmov.f32	s15, #1.0e+1
 727:src/main.cpp  ****             };
 5213              		.loc 6 727 25 view .LVU1737
 5214 14dc 26EE067A 		vmul.f32	s14, s12, s12
 727:src/main.cpp  ****             };
 5215              		.loc 6 727 41 view .LVU1738
 5216 14e0 E6EE054A 		vfma.f32	s9, s12, s10
 5217              	.LBE1100:
 5218              	.LBE1138:
 856:src/main.cpp  ****             float rm    = smoothstep2(rm_in) * VOICE.ringmod_max;
 5219              		.loc 6 856 41 view .LVU1739
 5220 14e4 36EE444A 		vsub.f32	s8, s12, s8
 5221              	.LBB1139:
 5222              	.LBB1101:
 727:src/main.cpp  ****             };
 5223              		.loc 6 727 27 view .LVU1740
 5224 14e8 27EE067A 		vmul.f32	s14, s14, s12
 5225              	.LBE1101:
 5226              	.LBE1139:
 856:src/main.cpp  ****             float rm    = smoothstep2(rm_in) * VOICE.ringmod_max;
 5227              		.loc 6 856 33 view .LVU1741
 5228 14ec 84EE235A 		vdiv.f32	s10, s8, s7
 5229              	.LBB1140:
 5230              	.LBB1102:
ARM GAS  /tmp/claude-502/ccJ8DnOJ.s 			page 156


 727:src/main.cpp  ****             };
 5231              		.loc 6 727 50 view .LVU1742
 5232 14f0 E6EE247A 		vfma.f32	s15, s12, s9
 727:src/main.cpp  ****             };
 5233              		.loc 6 727 57 view .LVU1743
 5234 14f4 67EE277A 		vmul.f32	s15, s14, s15
 727:src/main.cpp  ****             };
 5235              		.loc 6 727 17 is_stmt 1 view .LVU1744
 5236              	.LVL446:
 727:src/main.cpp  ****             };
 5237              		.loc 6 727 17 is_stmt 0 view .LVU1745
 5238              	.LBE1102:
 5239              	.LBE1140:
 844:src/main.cpp  ****             float bc  = smootherstep2(ss3) * VOICE.fold_max; // ceiling is voice-defined
 5240              		.loc 6 844 13 is_stmt 1 view .LVU1746
 5241              	.LBB1141:
 725:src/main.cpp  ****                 x = x<0?0:x>1?1:x;
 5242              		.loc 6 725 33 view .LVU1747
 5243              	.LBB1106:
 726:src/main.cpp  ****                 return x*x*x*(x*(x*6.0f - 15.0f) + 10.0f);
 5244              		.loc 6 726 17 view .LVU1748
 726:src/main.cpp  ****                 return x*x*x*(x*(x*6.0f - 15.0f) + 10.0f);
 5245              		.loc 6 726 24 is_stmt 0 view .LVU1749
 5246 14f8 F5EEC07A 		vcmpe.f32	s15, #0
 5247 14fc F1EE10FA 		vmrs	APSR_nzcv, FPSCR
 5248 1500 40F1B082 		bpl	.L542
 5249 1504 DFED147A 		vldr.32	s15, .L566+36
 5250 1508 FFF70FBA 		b	.L232
 5251              	.LVL447:
 5252              	.L347:
 726:src/main.cpp  ****                 return x*x*x*(x*(x*6.0f - 15.0f) + 10.0f);
 5253              		.loc 6 726 24 view .LVU1750
 5254              	.LBE1106:
 5255              	.LBE1141:
 5256              	.LBB1142:
 5257              	.LBB1094:
 5258              		.loc 8 13 16 view .LVU1751
 5259 150c DFED127A 		vldr.32	s15, .L566+36
 5260 1510 FFF7E5B9 		b	.L228
 5261              	.LVL448:
 5262              	.L345:
 5263              		.loc 8 13 16 view .LVU1752
 5264              	.LBE1094:
 5265              	.LBE1142:
 5266              	.LBB1143:
 5267              	.LBB1090:
 5268 1514 FFEE085A 		vmov.f32	s11, #-1.5e+0
 5269 1518 FFF7C9B9 		b	.L227
 5270              	.LVL449:
 5271              	.L351:
 5272              		.loc 8 13 16 view .LVU1753
 5273              	.LBE1090:
 5274              	.LBE1143:
 5275              	.LBB1144:
 5276              	.LBB1133:
 5277 151c 9FED0E7A 		vldr.32	s14, .L566+36
 5278 1520 FFF739BA 		b	.L238
ARM GAS  /tmp/claude-502/ccJ8DnOJ.s 			page 157


 5279              	.LVL450:
 5280              	.L523:
 5281              		.loc 8 13 16 view .LVU1754
 5282              	.LBE1133:
 5283              	.LBE1144:
 5284              	.LBE1153:
 5285              	.LBE1261:
 5286              	.LBB1262:
 5287              	.LBB1004:
 742:src/main.cpp  ****             float cutoff   = clampf(track_freq * VOICE.cutoff_mult * oct_mult, 20.0f, 18000.0f);
 5288              		.loc 6 742 40 discriminator 2 view .LVU1755
 5289 1524 8BEE8C0A 		vdiv.f32	s0, s23, s24
 5290 1528 FFF7FEFF 		bl	powf
 5291              	.LVL451:
 741:src/main.cpp  ****                 : VOICE.freq_low * powf(freq / VOICE.freq_low, VOICE.keytrack);
 5292              		.loc 6 741 17 discriminator 2 view .LVU1756
 5293 152c 60EE0C7A 		vmul.f32	s15, s0, s24
 5294 1530 FFF7D1B8 		b	.L184
 5295              	.L567:
 5296              		.align	2
 5297              	.L566:
 5298 1534 00000000 		.word	.LANCHOR5
 5299 1538 00000000 		.word	g_bank
 5300 153c 00000000 		.word	g_finger_on
 5301 1540 00000000 		.word	g_amp_target
 5302 1544 20000000 		.word	.LANCHOR0+32
 5303 1548 CDCC4C3D 		.word	1028443341
 5304 154c 00000000 		.word	.LC0
 5305 1550 00007A44 		.word	1148846080
 5306 1554 0000C842 		.word	1120403456
 5307 1558 00000000 		.word	0
 5308 155c CDCC4C3D 		.word	1028443341
 5309 1560 00F07F45 		.word	1166012416
 5310 1564 00000000 		.word	g_master_vol
 5311 1568 00000000 		.word	.LANCHOR3
 5312 156c 9A99593F 		.word	1062836634
 5313 1570 9A99193E 		.word	1041865114
 5314              	.LVL452:
 5315              	.L520:
 741:src/main.cpp  ****                 : VOICE.freq_low * powf(freq / VOICE.freq_low, VOICE.keytrack);
 5316              		.loc 6 741 17 discriminator 2 view .LVU1757
 5317              	.LBE1004:
 5318              	.LBE1262:
 5319              	.LBB1263:
 637:src/main.cpp  ****             // Poly drums: each finger drives its own slot.
 5320              		.loc 6 637 9 view .LVU1758
 5321 1574 A0F15006 		sub	r6, r0, #80
 5322 1578 B14F     		ldr	r7, .L568
 5323              	.LBB829:
 5324              	.LBB830:
 639:src/main.cpp  ****                 if(reatk[i])                                  trigger_drum(i, tracked[i].pos, track
 5325              		.loc 6 639 21 view .LVU1759
 5326 157a 0025     		movs	r5, #0
 5327 157c 129C     		ldr	r4, [sp, #72]
 5328 157e B046     		mov	r8, r6
 5329              	.LVL453:
 5330              	.L166:
ARM GAS  /tmp/claude-502/ccJ8DnOJ.s 			page 158


 640:src/main.cpp  ****                 else if(!deb_alive[i] && hit_was_alive[i])    g_hits[i].gate = false;  // lifted Ōå
 5331              		.loc 6 640 17 is_stmt 1 view .LVU1760
 640:src/main.cpp  ****                 else if(!deb_alive[i] && hit_was_alive[i])    g_hits[i].gate = false;  // lifted Ōå
 5332              		.loc 6 640 27 is_stmt 0 view .LVU1761
 5333 1580 14F8012B 		ldrb	r2, [r4], #1	@ zero_extendqisi2
 640:src/main.cpp  ****                 else if(!deb_alive[i] && hit_was_alive[i])    g_hits[i].gate = false;  // lifted Ōå
 5334              		.loc 6 640 17 view .LVU1762
 5335 1584 5ABB     		cbnz	r2, .L543
 641:src/main.cpp  ****             }
 5336              		.loc 6 641 22 is_stmt 1 view .LVU1763
 5337 1586 47AB     		add	r3, sp, #284
 5338 1588 5A5D     		ldrb	r2, [r3, r5]	@ zero_extendqisi2
 5339 158a 1AB9     		cbnz	r2, .L165
 641:src/main.cpp  ****             }
 5340              		.loc 6 641 39 is_stmt 0 discriminator 1 view .LVU1764
 5341 158c 20AB     		add	r3, sp, #128
 5342 158e 595D     		ldrb	r1, [r3, r5]	@ zero_extendqisi2
 5343 1590 01B1     		cbz	r1, .L165
 641:src/main.cpp  ****             }
 5344              		.loc 6 641 63 is_stmt 1 discriminator 2 view .LVU1765
 641:src/main.cpp  ****             }
 5345              		.loc 6 641 78 is_stmt 0 discriminator 2 view .LVU1766
 5346 1592 7A70     		strb	r2, [r7, #1]
 5347              	.L165:
 639:src/main.cpp  ****                 if(reatk[i])                                  trigger_drum(i, tracked[i].pos, track
 5348              		.loc 6 639 13 is_stmt 1 discriminator 2 view .LVU1767
 5349 1594 0135     		adds	r5, r5, #1
 5350              	.LVL454:
 639:src/main.cpp  ****                 if(reatk[i])                                  trigger_drum(i, tracked[i].pos, track
 5351              		.loc 6 639 30 discriminator 2 view .LVU1768
 5352 1596 5437     		adds	r7, r7, #84
 5353 1598 08F11408 		add	r8, r8, #20
 5354 159c 042D     		cmp	r5, #4
 5355 159e EFD1     		bne	.L166
 5356              	.LBE830:
 643:src/main.cpp  ****         } else {
 5357              		.loc 6 643 13 view .LVU1769
 643:src/main.cpp  ****         } else {
 5358              		.loc 6 643 26 is_stmt 0 view .LVU1770
 5359 15a0 0023     		movs	r3, #0
 5360 15a2 A84A     		ldr	r2, .L568+4
 5361 15a4 089C     		ldr	r4, [sp, #32]
 5362 15a6 1360     		str	r3, [r2]	@ float
 5363              	.LVL455:
 643:src/main.cpp  ****         } else {
 5364              		.loc 6 643 26 view .LVU1771
 5365              	.LBE829:
 5366              	.LBE1263:
 5367              	.LBB1264:
 650:src/main.cpp  **** 
 5368              		.loc 6 650 26 is_stmt 1 view .LVU1772
 650:src/main.cpp  **** 
 5369              		.loc 6 650 46 view .LVU1773
 650:src/main.cpp  **** 
 5370              		.loc 6 650 63 is_stmt 0 view .LVU1774
 5371 15a8 9DF81C31 		ldrb	r3, [sp, #284]	@ zero_extendqisi2
 5372 15ac 8DF88030 		strb	r3, [sp, #128]
ARM GAS  /tmp/claude-502/ccJ8DnOJ.s 			page 159


 650:src/main.cpp  **** 
 5373              		.loc 6 650 9 is_stmt 1 view .LVU1775
 5374              	.LVL456:
 650:src/main.cpp  **** 
 5375              		.loc 6 650 26 view .LVU1776
 650:src/main.cpp  **** 
 5376              		.loc 6 650 46 view .LVU1777
 650:src/main.cpp  **** 
 5377              		.loc 6 650 63 is_stmt 0 view .LVU1778
 5378 15b0 9DF81D31 		ldrb	r3, [sp, #285]	@ zero_extendqisi2
 5379 15b4 8DF88130 		strb	r3, [sp, #129]
 650:src/main.cpp  **** 
 5380              		.loc 6 650 9 is_stmt 1 view .LVU1779
 5381              	.LVL457:
 650:src/main.cpp  **** 
 5382              		.loc 6 650 26 view .LVU1780
 650:src/main.cpp  **** 
 5383              		.loc 6 650 46 view .LVU1781
 650:src/main.cpp  **** 
 5384              		.loc 6 650 63 is_stmt 0 view .LVU1782
 5385 15b8 9DF81E31 		ldrb	r3, [sp, #286]	@ zero_extendqisi2
 5386 15bc 8DF88230 		strb	r3, [sp, #130]
 650:src/main.cpp  **** 
 5387              		.loc 6 650 9 is_stmt 1 view .LVU1783
 5388              	.LVL458:
 650:src/main.cpp  **** 
 5389              		.loc 6 650 26 view .LVU1784
 650:src/main.cpp  **** 
 5390              		.loc 6 650 46 view .LVU1785
 650:src/main.cpp  **** 
 5391              		.loc 6 650 63 is_stmt 0 view .LVU1786
 5392 15c0 9DF81F31 		ldrb	r3, [sp, #287]	@ zero_extendqisi2
 5393 15c4 8DF88330 		strb	r3, [sp, #131]
 650:src/main.cpp  **** 
 5394              		.loc 6 650 9 is_stmt 1 view .LVU1787
 5395              	.LVL459:
 650:src/main.cpp  **** 
 5396              		.loc 6 650 26 view .LVU1788
 5397              	.LBE1264:
 653:src/main.cpp  **** 
 5398              		.loc 6 653 9 view .LVU1789
 653:src/main.cpp  **** 
 5399              		.loc 6 653 30 is_stmt 0 view .LVU1790
 5400 15c8 9F4B     		ldr	r3, .L568+8
 5401 15ca 1B78     		ldrb	r3, [r3]	@ zero_extendqisi2
 653:src/main.cpp  **** 
 5402              		.loc 6 653 80 view .LVU1791
 5403 15cc 03F0FF06 		and	r6, r3, #255
 5404 15d0 002B     		cmp	r3, #0
 5405 15d2 00F0A482 		beq	.L487
 5406 15d6 0026     		movs	r6, #0
 5407 15d8 9C4D     		ldr	r5, .L568+12
 5408              	.LVL460:
 653:src/main.cpp  **** 
 5409              		.loc 6 653 80 view .LVU1792
 5410 15da FFF720B9 		b	.L167
 5411              	.LVL461:
ARM GAS  /tmp/claude-502/ccJ8DnOJ.s 			page 160


 5412              	.L543:
 5413              	.LBB1265:
 5414              	.LBB893:
 5415              	.LBB889:
 640:src/main.cpp  ****                 else if(!deb_alive[i] && hit_was_alive[i])    g_hits[i].gate = false;  // lifted Ōå
 5416              		.loc 6 640 63 is_stmt 1 discriminator 1 view .LVU1793
 5417              	.LBB831:
 5418              	.LBB832:
 5419              	.LBB833:
 397:src/main.cpp  ****         int   zone = (int)(p * 4.0f); if(zone > 3) zone = 3;
 5420              		.loc 6 397 29 is_stmt 0 discriminator 1 view .LVU1794
 5421 15de D8ED017A 		vldr.32	s15, [r8, #4]	@ int
 397:src/main.cpp  ****         int   zone = (int)(p * 4.0f); if(zone > 3) zone = 3;
 5422              		.loc 6 397 28 discriminator 1 view .LVU1795
 5423 15e2 DFED9B6A 		vldr.32	s13, .L568+16
 397:src/main.cpp  ****         int   zone = (int)(p * 4.0f); if(zone > 3) zone = 3;
 5424              		.loc 6 397 29 discriminator 1 view .LVU1796
 5425 15e6 B8EEE77A 		vcvt.f32.s32	s14, s15
 5426              	.LBE833:
 5427              	.LBE832:
 5428              	.LBE831:
 640:src/main.cpp  ****                 else if(!deb_alive[i] && hit_was_alive[i])    g_hits[i].gate = false;  // lifted Ōå
 5429              		.loc 6 640 75 discriminator 1 view .LVU1797
 5430 15ea D8F80820 		ldr	r2, [r8, #8]
 5431              	.LVL462:
 5432              	.LBB885:
 5433              	.LBI831:
 396:src/main.cpp  ****         float p    = clampf((float)pos / 1000.0f, 0.0f, 1.0f);
 5434              		.loc 6 396 25 is_stmt 1 discriminator 1 view .LVU1798
 5435              	.LBB881:
 5436              	.LBB876:
 397:src/main.cpp  ****         int   zone = (int)(p * 4.0f); if(zone > 3) zone = 3;
 5437              		.loc 6 397 9 discriminator 1 view .LVU1799
 397:src/main.cpp  ****         int   zone = (int)(p * 4.0f); if(zone > 3) zone = 3;
 5438              		.loc 6 397 28 is_stmt 0 discriminator 1 view .LVU1800
 5439 15ee C7EE267A 		vdiv.f32	s15, s14, s13
 5440              	.LVL463:
 5441              	.LBB834:
 5442              	.LBI834:
  12:src/dsp.h     ****     return v<lo?lo:v>hi?hi:v;
 5443              		.loc 8 12 21 is_stmt 1 discriminator 1 view .LVU1801
 5444              	.LBB835:
 5445              		.loc 8 13 5 discriminator 1 view .LVU1802
 5446              		.loc 8 13 16 is_stmt 0 discriminator 1 view .LVU1803
 5447 15f2 F5EEC07A 		vcmpe.f32	s15, #0
 5448 15f6 F1EE10FA 		vmrs	APSR_nzcv, FPSCR
 5449 15fa 00F14B82 		bmi	.L314
 5450              		.loc 8 13 24 view .LVU1804
 5451 15fe B7EE007A 		vmov.f32	s14, #1.0e+0
 5452 1602 F4EEC77A 		vcmpe.f32	s15, s14
 5453 1606 F1EE10FA 		vmrs	APSR_nzcv, FPSCR
 5454 160a 00F39283 		bgt	.L315
 5455              	.LBE835:
 5456              	.LBE834:
 398:src/main.cpp  ****         int   vidx = MULTI_ZONES[zone];
 5457              		.loc 6 398 30 view .LVU1805
 5458 160e B1EE007A 		vmov.f32	s14, #4.0e+0
ARM GAS  /tmp/claude-502/ccJ8DnOJ.s 			page 161


 399:src/main.cpp  ****         const Voice& V = g_bank[vidx];
 5459              		.loc 6 399 15 view .LVU1806
 5460 1612 904B     		ldr	r3, .L568+20
 398:src/main.cpp  ****         int   vidx = MULTI_ZONES[zone];
 5461              		.loc 6 398 30 view .LVU1807
 5462 1614 67EE877A 		vmul.f32	s15, s15, s14
 5463              	.LVL464:
 398:src/main.cpp  ****         int   vidx = MULTI_ZONES[zone];
 5464              		.loc 6 398 15 view .LVU1808
 5465 1618 BDEEE77A 		vcvt.s32.f32	s14, s15
 5466 161c 17EE101A 		vmov	r1, s14	@ int
 5467 1620 0329     		cmp	r1, #3
 5468 1622 A8BF     		it	ge
 5469 1624 0321     		movge	r1, #3
 401:src/main.cpp  ****         int   step = (int)(subp * (float)MULTI_NINTERVALS);
 5470              		.loc 6 401 33 view .LVU1809
 5471 1626 07EE101A 		vmov	s14, r1	@ int
 399:src/main.cpp  ****         const Voice& V = g_bank[vidx];
 5472              		.loc 6 399 15 view .LVU1810
 5473 162a 53F82160 		ldr	r6, [r3, r1, lsl #2]
 404:src/main.cpp  ****         float v    = FIX_DRUM ? 1.0f : clampf((float)pressure / 100.0f, 0.0f, 1.0f);
 5474              		.loc 6 404 55 view .LVU1811
 5475 162e 8A4B     		ldr	r3, .L568+24
 401:src/main.cpp  ****         int   step = (int)(subp * (float)MULTI_NINTERVALS);
 5476              		.loc 6 401 33 view .LVU1812
 5477 1630 B8EEC77A 		vcvt.f32.s32	s14, s14
 401:src/main.cpp  ****         int   step = (int)(subp * (float)MULTI_NINTERVALS);
 5478              		.loc 6 401 15 view .LVU1813
 5479 1634 77EEC77A 		vsub.f32	s15, s15, s14
 402:src/main.cpp  ****         if(step >= MULTI_NINTERVALS) step = MULTI_NINTERVALS - 1;
 5480              		.loc 6 402 15 view .LVU1814
 5481 1638 B0EE677A 		vmov.f32	s14, s15
 5482 163c BEEECF7A 		vcvt.s32.f32	s14, s14, #2
 5483 1640 17EE101A 		vmov	r1, s14	@ int
 404:src/main.cpp  ****         float v    = FIX_DRUM ? 1.0f : clampf((float)pressure / 100.0f, 0.0f, 1.0f);
 5484              		.loc 6 404 55 view .LVU1815
 5485 1644 0329     		cmp	r1, #3
 5486 1646 A8BF     		it	ge
 5487 1648 0321     		movge	r1, #3
 5488 164a 03EB8101 		add	r1, r3, r1, lsl #2
 5489 164e D1ED00CA 		vldr.32	s25, [r1]
 5490              	.L160:
 5491              	.LVL465:
 398:src/main.cpp  ****         int   vidx = MULTI_ZONES[zone];
 5492              		.loc 6 398 9 is_stmt 1 view .LVU1816
 398:src/main.cpp  ****         int   vidx = MULTI_ZONES[zone];
 5493              		.loc 6 398 39 view .LVU1817
 399:src/main.cpp  ****         const Voice& V = g_bank[vidx];
 5494              		.loc 6 399 9 view .LVU1818
 400:src/main.cpp  ****         float subp = p * 4.0f - (float)zone;
 5495              		.loc 6 400 9 view .LVU1819
 401:src/main.cpp  ****         int   step = (int)(subp * (float)MULTI_NINTERVALS);
 5496              		.loc 6 401 9 view .LVU1820
 402:src/main.cpp  ****         if(step >= MULTI_NINTERVALS) step = MULTI_NINTERVALS - 1;
 5497              		.loc 6 402 9 view .LVU1821
 403:src/main.cpp  ****         float freq = V.freq_low * MULTI_INTERVALS[step];
 5498              		.loc 6 403 9 view .LVU1822
ARM GAS  /tmp/claude-502/ccJ8DnOJ.s 			page 162


 404:src/main.cpp  ****         float v    = FIX_DRUM ? 1.0f : clampf((float)pressure / 100.0f, 0.0f, 1.0f);
 5499              		.loc 6 404 9 view .LVU1823
 405:src/main.cpp  ****         float amp  = 0.72f * ((1.0f - V.vel_sens) + V.vel_sens * v);
 5500              		.loc 6 405 47 is_stmt 0 view .LVU1824
 5501 1652 07EE902A 		vmov	s15, r2	@ int
 405:src/main.cpp  ****         float amp  = 0.72f * ((1.0f - V.vel_sens) + V.vel_sens * v);
 5502              		.loc 6 405 31 view .LVU1825
 5503 1656 9FED817A 		vldr.32	s14, .L568+28
 404:src/main.cpp  ****         float v    = FIX_DRUM ? 1.0f : clampf((float)pressure / 100.0f, 0.0f, 1.0f);
 5504              		.loc 6 404 24 view .LVU1826
 5505 165a 06EB4602 		add	r2, r6, r6, lsl #1
 5506              	.LVL466:
 404:src/main.cpp  ****         float v    = FIX_DRUM ? 1.0f : clampf((float)pressure / 100.0f, 0.0f, 1.0f);
 5507              		.loc 6 404 24 view .LVU1827
 5508 165e 804B     		ldr	r3, .L568+32
 405:src/main.cpp  ****         float amp  = 0.72f * ((1.0f - V.vel_sens) + V.vel_sens * v);
 5509              		.loc 6 405 47 view .LVU1828
 5510 1660 F8EEE77A 		vcvt.f32.s32	s15, s15
 404:src/main.cpp  ****         float v    = FIX_DRUM ? 1.0f : clampf((float)pressure / 100.0f, 0.0f, 1.0f);
 5511              		.loc 6 404 24 view .LVU1829
 5512 1664 4FEA460A 		lsl	r10, r6, #1
 5513 1668 03EB8212 		add	r2, r3, r2, lsl #6
 405:src/main.cpp  ****         float amp  = 0.72f * ((1.0f - V.vel_sens) + V.vel_sens * v);
 5514              		.loc 6 405 31 view .LVU1830
 5515 166c 87EE87BA 		vdiv.f32	s22, s15, s14
 404:src/main.cpp  ****         float v    = FIX_DRUM ? 1.0f : clampf((float)pressure / 100.0f, 0.0f, 1.0f);
 5516              		.loc 6 404 24 view .LVU1831
 5517 1670 92ED01DA 		vldr.32	s26, [r2, #4]
 404:src/main.cpp  ****         float v    = FIX_DRUM ? 1.0f : clampf((float)pressure / 100.0f, 0.0f, 1.0f);
 5518              		.loc 6 404 15 view .LVU1832
 5519 1674 6DEE2CCA 		vmul.f32	s25, s26, s25
 5520              	.LVL467:
 405:src/main.cpp  ****         float amp  = 0.72f * ((1.0f - V.vel_sens) + V.vel_sens * v);
 5521              		.loc 6 405 9 is_stmt 1 view .LVU1833
 5522              	.LBB838:
 5523              	.LBI838:
  12:src/dsp.h     ****     return v<lo?lo:v>hi?hi:v;
 5524              		.loc 8 12 21 view .LVU1834
 5525              	.LBB839:
 5526              		.loc 8 13 5 view .LVU1835
 5527              		.loc 8 13 16 is_stmt 0 view .LVU1836
 5528 1678 B5EEC0BA 		vcmpe.f32	s22, #0
 5529 167c F1EE10FA 		vmrs	APSR_nzcv, FPSCR
 5530 1680 00F10582 		bmi	.L316
 5531              		.loc 8 13 24 view .LVU1837
 5532 1684 F7EE006A 		vmov.f32	s13, #1.0e+0
 5533 1688 B4EEE6BA 		vcmpe.f32	s22, s13
 5534 168c F1EE10FA 		vmrs	APSR_nzcv, FPSCR
 5535 1690 40F39380 		ble	.L544
 5536 1694 B0EE66BA 		vmov.f32	s22, s13
 5537              	.LVL468:
 5538              	.L161:
 5539              		.loc 8 13 24 view .LVU1838
 5540              	.LBE839:
 5541              	.LBE838:
 406:src/main.cpp  ****         // Cutoff from velocity, same curve as the mono path.
 5542              		.loc 6 406 9 is_stmt 1 view .LVU1839
ARM GAS  /tmp/claude-502/ccJ8DnOJ.s 			page 163


 406:src/main.cpp  ****         // Cutoff from velocity, same curve as the mono path.
 5543              		.loc 6 406 41 is_stmt 0 view .LVU1840
 5544 1698 0AEB0602 		add	r2, r10, r6
 5545 169c 704B     		ldr	r3, .L568+32
 406:src/main.cpp  ****         // Cutoff from velocity, same curve as the mono path.
 5546              		.loc 6 406 37 view .LVU1841
 5547 169e F7EE00BA 		vmov.f32	s23, #1.0e+0
 406:src/main.cpp  ****         // Cutoff from velocity, same curve as the mono path.
 5548              		.loc 6 406 15 view .LVU1842
 5549 16a2 DFED706A 		vldr.32	s13, .L568+36
 406:src/main.cpp  ****         // Cutoff from velocity, same curve as the mono path.
 5550              		.loc 6 406 41 view .LVU1843
 5551 16a6 03EB8212 		add	r2, r3, r2, lsl #6
 5552 16aa 92ED207A 		vldr.32	s14, [r2, #128]
 408:src/main.cpp  ****         float oa = cutoff_oct * 0.6931f;
 5553              		.loc 6 408 63 view .LVU1844
 5554 16ae D2ED117A 		vldr.32	s15, [r2, #68]
 406:src/main.cpp  ****         // Cutoff from velocity, same curve as the mono path.
 5555              		.loc 6 406 37 view .LVU1845
 5556 16b2 7BEEC7BA 		vsub.f32	s23, s23, s14
 408:src/main.cpp  ****         float oa = cutoff_oct * 0.6931f;
 5557              		.loc 6 408 63 view .LVU1846
 5558 16b6 6BEE277A 		vmul.f32	s15, s22, s15
 406:src/main.cpp  ****         // Cutoff from velocity, same curve as the mono path.
 5559              		.loc 6 406 51 view .LVU1847
 5560 16ba EBEE07BA 		vfma.f32	s23, s22, s14
 406:src/main.cpp  ****         // Cutoff from velocity, same curve as the mono path.
 5561              		.loc 6 406 15 view .LVU1848
 5562 16be 6BEEA6BA 		vmul.f32	s23, s23, s13
 5563              	.LVL469:
 408:src/main.cpp  ****         float oa = cutoff_oct * 0.6931f;
 5564              		.loc 6 408 9 is_stmt 1 view .LVU1849
 5565              	.LBB841:
 5566              	.LBI841:
  14:src/dsp.h     **** }
  15:src/dsp.h     **** static inline float smoothstep_f(float x){
  16:src/dsp.h     ****     x = x<0?0:x>1?1:x; return x*x*(3.0f - 2.0f*x);
  17:src/dsp.h     **** }
  18:src/dsp.h     **** static inline float smootherstep_f(float x){
 5567              		.loc 8 18 21 view .LVU1850
 5568              	.LBB842:
  19:src/dsp.h     ****     x = x<0?0:x>1?1:x; return x*x*x*(x*(x*6.0f - 15.0f) + 10.0f);
 5569              		.loc 8 19 5 view .LVU1851
 5570              	.L279:
 5571              		.loc 8 19 24 view .LVU1852
 5572              	.LBE842:
 5573              	.LBE841:
 409:src/main.cpp  ****         float om = 1.0f + oa*(1.0f + oa*(0.5f + oa*(0.1667f + oa*0.0417f)));
 5574              		.loc 6 409 9 view .LVU1853
 409:src/main.cpp  ****         float om = 1.0f + oa*(1.0f + oa*(0.5f + oa*(0.1667f + oa*0.0417f)));
 5575              		.loc 6 409 15 is_stmt 0 view .LVU1854
 5576 16c2 9FED696A 		vldr.32	s12, .L568+40
 410:src/main.cpp  ****         float tf = (V.keytrack >= 0.999f) ? freq
 5577              		.loc 6 410 47 view .LVU1855
 5578 16c6 B6EE007A 		vmov.f32	s14, #5.0e-1
 410:src/main.cpp  ****         float tf = (V.keytrack >= 0.999f) ? freq
 5579              		.loc 6 410 61 view .LVU1856
ARM GAS  /tmp/claude-502/ccJ8DnOJ.s 			page 164


 5580 16ca DFED685A 		vldr.32	s11, .L568+44
 410:src/main.cpp  ****         float tf = (V.keytrack >= 0.999f) ? freq
 5581              		.loc 6 410 36 view .LVU1857
 5582 16ce F7EE00AA 		vmov.f32	s21, #1.0e+0
 409:src/main.cpp  ****         float om = 1.0f + oa*(1.0f + oa*(0.5f + oa*(0.1667f + oa*0.0417f)));
 5583              		.loc 6 409 15 view .LVU1858
 5584 16d2 67EE867A 		vmul.f32	s15, s15, s12
 5585              	.LVL470:
 410:src/main.cpp  ****         float tf = (V.keytrack >= 0.999f) ? freq
 5586              		.loc 6 410 9 is_stmt 1 view .LVU1859
 410:src/main.cpp  ****         float tf = (V.keytrack >= 0.999f) ? freq
 5587              		.loc 6 410 61 is_stmt 0 view .LVU1860
 5588 16d6 DFED746A 		vldr.32	s13, .L568+104
 411:src/main.cpp  ****                    : V.freq_low * powf(freq / V.freq_low, V.keytrack);
 5589              		.loc 6 411 23 view .LVU1861
 5590 16da 0AEB0602 		add	r2, r10, r6
 5591 16de 604B     		ldr	r3, .L568+32
 411:src/main.cpp  ****                    : V.freq_low * powf(freq / V.freq_low, V.keytrack);
 5592              		.loc 6 411 43 view .LVU1862
 5593 16e0 9FED636A 		vldr.32	s12, .L568+48
 410:src/main.cpp  ****         float tf = (V.keytrack >= 0.999f) ? freq
 5594              		.loc 6 410 61 view .LVU1863
 5595 16e4 E7EEA56A 		vfma.f32	s13, s15, s11
 411:src/main.cpp  ****                    : V.freq_low * powf(freq / V.freq_low, V.keytrack);
 5596              		.loc 6 411 23 view .LVU1864
 5597 16e8 03EB8212 		add	r2, r3, r2, lsl #6
 5598 16ec D2ED150A 		vldr.32	s1, [r2, #84]
 411:src/main.cpp  ****                    : V.freq_low * powf(freq / V.freq_low, V.keytrack);
 5599              		.loc 6 411 43 view .LVU1865
 5600 16f0 F4EEC60A 		vcmpe.f32	s1, s12
 410:src/main.cpp  ****         float tf = (V.keytrack >= 0.999f) ? freq
 5601              		.loc 6 410 47 view .LVU1866
 5602 16f4 A7EEA67A 		vfma.f32	s14, s15, s13
 410:src/main.cpp  ****         float tf = (V.keytrack >= 0.999f) ? freq
 5603              		.loc 6 410 36 view .LVU1867
 5604 16f8 F0EE6A6A 		vmov.f32	s13, s21
 411:src/main.cpp  ****                    : V.freq_low * powf(freq / V.freq_low, V.keytrack);
 5605              		.loc 6 411 43 view .LVU1868
 5606 16fc F1EE10FA 		vmrs	APSR_nzcv, FPSCR
 410:src/main.cpp  ****         float tf = (V.keytrack >= 0.999f) ? freq
 5607              		.loc 6 410 36 view .LVU1869
 5608 1700 E7EE876A 		vfma.f32	s13, s15, s14
 410:src/main.cpp  ****         float tf = (V.keytrack >= 0.999f) ? freq
 5609              		.loc 6 410 15 view .LVU1870
 5610 1704 E7EEA6AA 		vfma.f32	s21, s15, s13
 5611 1708 B0EE6ACA 		vmov.f32	s24, s21
 5612              	.LVL471:
 411:src/main.cpp  ****                    : V.freq_low * powf(freq / V.freq_low, V.keytrack);
 5613              		.loc 6 411 9 is_stmt 1 view .LVU1871
 411:src/main.cpp  ****                    : V.freq_low * powf(freq / V.freq_low, V.keytrack);
 5614              		.loc 6 411 43 is_stmt 0 view .LVU1872
 5615 170c C0F22882 		blt	.L545
 5616 1710 F0EE6CAA 		vmov.f32	s21, s25
 5617              	.LVL472:
 5618              	.L162:
 413:src/main.cpp  ****         float drive  = 1.0f + smoothstep_f(v) * V.drive_max;
 5619              		.loc 6 413 9 is_stmt 1 view .LVU1873
ARM GAS  /tmp/claude-502/ccJ8DnOJ.s 			page 165


 413:src/main.cpp  ****         float drive  = 1.0f + smoothstep_f(v) * V.drive_max;
 5620              		.loc 6 413 38 is_stmt 0 view .LVU1874
 5621 1714 0AEB0602 		add	r2, r10, r6
 5622 1718 514B     		ldr	r3, .L568+32
 5623              	.LBB850:
 5624              	.LBB851:
  13:src/dsp.h     **** }
 5625              		.loc 8 13 16 view .LVU1875
 5626 171a F3EE047A 		vmov.f32	s15, #2.0e+1
 5627              	.LBE851:
 5628              	.LBE850:
 413:src/main.cpp  ****         float drive  = 1.0f + smoothstep_f(v) * V.drive_max;
 5629              		.loc 6 413 38 view .LVU1876
 5630 171e 03EB8212 		add	r2, r3, r2, lsl #6
 413:src/main.cpp  ****         float drive  = 1.0f + smoothstep_f(v) * V.drive_max;
 5631              		.loc 6 413 34 view .LVU1877
 5632 1722 92ED107A 		vldr.32	s14, [r2, #64]
 5633 1726 6AEE87AA 		vmul.f32	s21, s21, s14
 5634              	.LVL473:
 413:src/main.cpp  ****         float drive  = 1.0f + smoothstep_f(v) * V.drive_max;
 5635              		.loc 6 413 30 view .LVU1878
 5636 172a 6AEE8CAA 		vmul.f32	s21, s21, s24
 5637              	.LVL474:
 5638              	.LBB855:
 5639              	.LBI850:
  12:src/dsp.h     ****     return v<lo?lo:v>hi?hi:v;
 5640              		.loc 8 12 21 is_stmt 1 view .LVU1879
 5641              	.LBB852:
  13:src/dsp.h     **** }
 5642              		.loc 8 13 5 view .LVU1880
  13:src/dsp.h     **** }
 5643              		.loc 8 13 16 is_stmt 0 view .LVU1881
 5644 172e F4EEE7AA 		vcmpe.f32	s21, s15
 5645 1732 F1EE10FA 		vmrs	APSR_nzcv, FPSCR
 5646 1736 00F19F81 		bmi	.L319
  13:src/dsp.h     **** }
 5647              		.loc 8 13 24 view .LVU1882
 5648 173a DFED4E7A 		vldr.32	s15, .L568+52
 5649 173e F4EE67AA 		vcmp.f32	s21, s15
 5650 1742 F1EE10FA 		vmrs	APSR_nzcv, FPSCR
 5651              	.LBE852:
 5652              	.LBE855:
 5653              	.LBB856:
 5654              	.LBB857:
  16:src/dsp.h     **** }
 5655              		.loc 8 16 12 view .LVU1883
 5656 1746 B5EEC0BA 		vcmpe.f32	s22, #0
 5657              	.LBE857:
 5658              	.LBE856:
 5659              	.LBB861:
 5660              	.LBB853:
  13:src/dsp.h     **** }
 5661              		.loc 8 13 24 view .LVU1884
 5662 174a 77FEAAAA 		vselgt.f32	s21, s15, s21
 5663              	.LVL475:
  13:src/dsp.h     **** }
 5664              		.loc 8 13 24 view .LVU1885
ARM GAS  /tmp/claude-502/ccJ8DnOJ.s 			page 166


 5665              	.LBE853:
 5666              	.LBE861:
 414:src/main.cpp  ****         drum_trigger(g_hits[s], vidx, freq, amp, cutoff, drive, hw.AudioSampleRate());
 5667              		.loc 6 414 9 is_stmt 1 view .LVU1886
 5668              	.LBB862:
 5669              	.LBI856:
  15:src/dsp.h     ****     x = x<0?0:x>1?1:x; return x*x*(3.0f - 2.0f*x);
 5670              		.loc 8 15 21 view .LVU1887
 5671              	.LBB858:
  16:src/dsp.h     **** }
 5672              		.loc 8 16 5 view .LVU1888
  16:src/dsp.h     **** }
 5673              		.loc 8 16 12 is_stmt 0 view .LVU1889
 5674 174e F1EE10FA 		vmrs	APSR_nzcv, FPSCR
 5675 1752 00F19981 		bmi	.L321
 5676              	.L546:
  16:src/dsp.h     **** }
 5677              		.loc 8 16 18 view .LVU1890
 5678 1756 F7EE007A 		vmov.f32	s15, #1.0e+0
 5679 175a B4EEE7BA 		vcmpe.f32	s22, s15
 5680 175e F1EE10FA 		vmrs	APSR_nzcv, FPSCR
 5681 1762 09DC     		bgt	.L164
  16:src/dsp.h     **** }
 5682              		.loc 8 16 41 view .LVU1891
 5683 1764 F0EE006A 		vmov.f32	s13, #2.0e+0
 5684 1768 B0EE087A 		vmov.f32	s14, #3.0e+0
  16:src/dsp.h     **** }
 5685              		.loc 8 16 32 view .LVU1892
 5686 176c 6BEE0B7A 		vmul.f32	s15, s22, s22
  16:src/dsp.h     **** }
 5687              		.loc 8 16 41 view .LVU1893
 5688 1770 ABEE667A 		vfms.f32	s14, s22, s13
  16:src/dsp.h     **** }
 5689              		.loc 8 16 49 view .LVU1894
 5690 1774 67EE877A 		vmul.f32	s15, s15, s14
 5691              	.L164:
 5692              	.LVL476:
  16:src/dsp.h     **** }
 5693              		.loc 8 16 24 is_stmt 1 view .LVU1895
 5694              	.LBE858:
 5695              	.LBE862:
 414:src/main.cpp  ****         drum_trigger(g_hits[s], vidx, freq, amp, cutoff, drive, hw.AudioSampleRate());
 5696              		.loc 6 414 51 is_stmt 0 view .LVU1896
 5697 1778 394B     		ldr	r3, .L568+32
 5698 177a 0AEB0602 		add	r2, r10, r6
 5699 177e F7EE001A 		vmov.f32	s3, #1.0e+0
 415:src/main.cpp  ****         g_active_voice = vidx;   // header shows the last-hit drum
 5700              		.loc 6 415 21 view .LVU1897
 5701 1782 3D48     		ldr	r0, .L568+56
 414:src/main.cpp  ****         drum_trigger(g_hits[s], vidx, freq, amp, cutoff, drive, hw.AudioSampleRate());
 5702              		.loc 6 414 51 view .LVU1898
 5703 1784 03EB8212 		add	r2, r3, r2, lsl #6
 5704 1788 92ED137A 		vldr.32	s14, [r2, #76]
 5705 178c E7EE271A 		vfma.f32	s3, s14, s15
 5706 1790 CDED041A 		vstr.32	s3, [sp, #16]	@ int
 5707              	.LVL477:
 415:src/main.cpp  ****         g_active_voice = vidx;   // header shows the last-hit drum
ARM GAS  /tmp/claude-502/ccJ8DnOJ.s 			page 167


 5708              		.loc 6 415 9 is_stmt 1 view .LVU1899
 415:src/main.cpp  ****         g_active_voice = vidx;   // header shows the last-hit drum
 5709              		.loc 6 415 21 is_stmt 0 view .LVU1900
 5710 1794 FFF7FEFF 		bl	_ZN5daisy9DaisySeed15AudioSampleRateEv
 5711              	.LVL478:
 5712 1798 B0EE6A1A 		vmov.f32	s2, s21
 5713 179c DDED041A 		vldr.32	s3, [sp, #16]	@ int
 5714 17a0 B0EE402A 		vmov.f32	s4, s0
 5715 17a4 3146     		mov	r1, r6
 5716 17a6 F0EE6B0A 		vmov.f32	s1, s23
 5717 17aa 3846     		mov	r0, r7
 5718 17ac B0EE6C0A 		vmov.f32	s0, s25
 5719 17b0 FFF7FEFF 		bl	_Z12drum_triggerR7DrumHitifffff
 5720              	.LVL479:
 416:src/main.cpp  ****     };
 5721              		.loc 6 416 9 is_stmt 1 view .LVU1901
 416:src/main.cpp  ****     };
 5722              		.loc 6 416 24 is_stmt 0 view .LVU1902
 5723 17b4 314B     		ldr	r3, .L568+60
 5724 17b6 1E60     		str	r6, [r3]
 5725              	.LBE876:
 417:src/main.cpp  **** 
 5726              		.loc 6 417 5 view .LVU1903
 5727 17b8 ECE6     		b	.L165
 5728              	.LVL480:
 5729              	.L544:
 5730              	.LBB877:
 406:src/main.cpp  ****         // Cutoff from velocity, same curve as the mono path.
 5731              		.loc 6 406 9 is_stmt 1 view .LVU1904
 5732              	.LBB863:
 5733              	.LBB843:
 5734              		.loc 8 19 48 is_stmt 0 view .LVU1905
 5735 17ba F1EE084A 		vmov.f32	s9, #6.0e+0
 5736              	.LBE843:
 5737              	.LBE863:
 406:src/main.cpp  ****         // Cutoff from velocity, same curve as the mono path.
 5738              		.loc 6 406 41 view .LVU1906
 5739 17be D2ED205A 		vldr.32	s11, [r2, #128]
 5740              	.LBB864:
 5741              	.LBB844:
 5742              		.loc 8 19 48 view .LVU1907
 5743 17c2 BAEE0E6A 		vmov.f32	s12, #-1.5e+1
 5744              	.LBE844:
 5745              	.LBE864:
 408:src/main.cpp  ****         float oa = cutoff_oct * 0.6931f;
 5746              		.loc 6 408 63 view .LVU1908
 5747 17c6 92ED115A 		vldr.32	s10, [r2, #68]
 5748              	.LBB865:
 5749              	.LBB845:
 5750              		.loc 8 19 57 view .LVU1909
 5751 17ca F2EE047A 		vmov.f32	s15, #1.0e+1
 5752              	.LBE845:
 5753              	.LBE865:
 406:src/main.cpp  ****         // Cutoff from velocity, same curve as the mono path.
 5754              		.loc 6 406 15 view .LVU1910
 5755 17ce DFED25BA 		vldr.32	s23, .L568+36
 5756              	.LBB866:
ARM GAS  /tmp/claude-502/ccJ8DnOJ.s 			page 168


 5757              	.LBB846:
 5758              		.loc 8 19 32 view .LVU1911
 5759 17d2 2BEE0B7A 		vmul.f32	s14, s22, s22
 5760              		.loc 8 19 48 view .LVU1912
 5761 17d6 ABEE246A 		vfma.f32	s12, s22, s9
 5762              	.LBE846:
 5763              	.LBE866:
 406:src/main.cpp  ****         // Cutoff from velocity, same curve as the mono path.
 5764              		.loc 6 406 37 view .LVU1913
 5765 17da 76EEE56A 		vsub.f32	s13, s13, s11
 5766              	.LBB867:
 5767              	.LBB847:
 5768              		.loc 8 19 34 view .LVU1914
 5769 17de 27EE0B7A 		vmul.f32	s14, s14, s22
 5770              	.LBE847:
 5771              	.LBE867:
 406:src/main.cpp  ****         // Cutoff from velocity, same curve as the mono path.
 5772              		.loc 6 406 51 view .LVU1915
 5773 17e2 EBEE256A 		vfma.f32	s13, s22, s11
 5774              	.LBB868:
 5775              	.LBB848:
 5776              		.loc 8 19 57 view .LVU1916
 5777 17e6 EBEE067A 		vfma.f32	s15, s22, s12
 5778              	.LBE848:
 5779              	.LBE868:
 406:src/main.cpp  ****         // Cutoff from velocity, same curve as the mono path.
 5780              		.loc 6 406 15 view .LVU1917
 5781 17ea 66EEABBA 		vmul.f32	s23, s13, s23
 5782              	.LVL481:
 408:src/main.cpp  ****         float oa = cutoff_oct * 0.6931f;
 5783              		.loc 6 408 9 is_stmt 1 view .LVU1918
 5784              	.LBB869:
  18:src/dsp.h     ****     x = x<0?0:x>1?1:x; return x*x*x*(x*(x*6.0f - 15.0f) + 10.0f);
 5785              		.loc 8 18 21 view .LVU1919
 5786              	.LBB849:
 5787              		.loc 8 19 5 view .LVU1920
 5788              		.loc 8 19 64 is_stmt 0 view .LVU1921
 5789 17ee 67EE277A 		vmul.f32	s15, s14, s15
 5790              	.LBE849:
 5791              	.LBE869:
 408:src/main.cpp  ****         float oa = cutoff_oct * 0.6931f;
 5792              		.loc 6 408 63 view .LVU1922
 5793 17f2 67EE857A 		vmul.f32	s15, s15, s10
 5794 17f6 64E7     		b	.L279
 5795              	.LVL482:
 5796              	.L342:
 408:src/main.cpp  ****         float oa = cutoff_oct * 0.6931f;
 5797              		.loc 6 408 63 view .LVU1923
 5798              	.LBE877:
 5799              	.LBE881:
 5800              	.LBE885:
 5801              	.LBE889:
 5802              	.LBE893:
 5803              	.LBE1265:
 5804              	.LBB1266:
 5805              	.LBB1076:
 5806              	.LBB1064:
ARM GAS  /tmp/claude-502/ccJ8DnOJ.s 			page 169


 5807 17f8 DFED217A 		vldr.32	s15, .L568+64
 5808              	.LBE1064:
 5809              	.LBB1065:
 5810              	.LBB1058:
 814:src/main.cpp  ****                 s_led1 = s_led1 * LED_SMOOTH + led1_target * (1.0f - LED_SMOOTH);
 5811              		.loc 6 814 39 view .LVU1924
 5812 17fc DFED215A 		vldr.32	s11, .L568+68
 5813              	.LBE1058:
 5814              	.LBE1065:
 5815              	.LBB1066:
 5816 1800 F0EE676A 		vmov.f32	s13, s15
 5817 1804 B0EE677A 		vmov.f32	s14, s15
 5818              	.LVL483:
 5819              	.L194:
 814:src/main.cpp  ****                 s_led1 = s_led1 * LED_SMOOTH + led1_target * (1.0f - LED_SMOOTH);
 5820              		.loc 6 814 39 view .LVU1925
 5821              	.LBE1066:
 5822              	.LBB1067:
 5823              	.LBB1059:
 815:src/main.cpp  ****                 s_led2 = s_led2 * LED_SMOOTH + led2_target * (1.0f - LED_SMOOTH);
 5824              		.loc 6 815 17 is_stmt 1 discriminator 4 view .LVU1926
 815:src/main.cpp  ****                 s_led2 = s_led2 * LED_SMOOTH + led2_target * (1.0f - LED_SMOOTH);
 5825              		.loc 6 815 24 is_stmt 0 discriminator 4 view .LVU1927
 5826 1808 9FED1F6A 		vldr.32	s12, .L568+72
 817:src/main.cpp  ****             }
 5827              		.loc 6 817 24 discriminator 4 view .LVU1928
 5828 180c E9EE257A 		vfma.f32	s15, s18, s11
 815:src/main.cpp  ****                 s_led2 = s_led2 * LED_SMOOTH + led2_target * (1.0f - LED_SMOOTH);
 5829              		.loc 6 815 24 discriminator 4 view .LVU1929
 5830 1810 A9EE867A 		vfma.f32	s14, s19, s12
 816:src/main.cpp  ****                 s_led3 = s_led3 * smooth3   + led3_target * (1.0f - smooth3);
 5831              		.loc 6 816 24 discriminator 4 view .LVU1930
 5832 1814 EAEE066A 		vfma.f32	s13, s20, s12
 817:src/main.cpp  ****             }
 5833              		.loc 6 817 24 discriminator 4 view .LVU1931
 5834 1818 B0EE679A 		vmov.f32	s18, s15
 5835              	.LVL484:
 815:src/main.cpp  ****                 s_led2 = s_led2 * LED_SMOOTH + led2_target * (1.0f - LED_SMOOTH);
 5836              		.loc 6 815 24 discriminator 4 view .LVU1932
 5837 181c F0EE479A 		vmov.f32	s19, s14
 5838              	.LVL485:
 816:src/main.cpp  ****                 s_led3 = s_led3 * smooth3   + led3_target * (1.0f - smooth3);
 5839              		.loc 6 816 17 is_stmt 1 discriminator 4 view .LVU1933
 816:src/main.cpp  ****                 s_led3 = s_led3 * smooth3   + led3_target * (1.0f - smooth3);
 5840              		.loc 6 816 24 is_stmt 0 discriminator 4 view .LVU1934
 5841 1820 B0EE66AA 		vmov.f32	s20, s13
 5842              	.LVL486:
 817:src/main.cpp  ****             }
 5843              		.loc 6 817 17 is_stmt 1 discriminator 4 view .LVU1935
 817:src/main.cpp  ****             }
 5844              		.loc 6 817 17 is_stmt 0 discriminator 4 view .LVU1936
 5845 1824 C6E5     		b	.L225
 5846              	.LVL487:
 5847              	.L298:
 817:src/main.cpp  ****             }
 5848              		.loc 6 817 17 discriminator 4 view .LVU1937
 5849              	.LBE1059:
ARM GAS  /tmp/claude-502/ccJ8DnOJ.s 			page 170


 5850              	.LBE1067:
 5851              	.LBE1076:
 5852              	.LBE1266:
 5853              	.LBB1267:
 5854              	.LBB775:
 5855 1826 0997     		str	r7, [sp, #36]
 5856              	.LVL488:
 493:src/main.cpp  ****                     idle_since = now; last_touch_ms = now;   // freeze idle/rebaseline
 5857              		.loc 6 493 52 view .LVU1938
 5858 1828 1796     		str	r6, [sp, #92]
 5859              	.LVL489:
 493:src/main.cpp  ****                     idle_since = now; last_touch_ms = now;   // freeze idle/rebaseline
 5860              		.loc 6 493 52 view .LVU1939
 5861 182a 0D96     		str	r6, [sp, #52]
 5862              	.LVL490:
 493:src/main.cpp  ****                     idle_since = now; last_touch_ms = now;   // freeze idle/rebaseline
 5863              		.loc 6 493 52 view .LVU1940
 5864 182c FFF788BB 		b	.L72
 5865              	.LVL491:
 5866              	.L526:
 493:src/main.cpp  ****                     idle_since = now; last_touch_ms = now;   // freeze idle/rebaseline
 5867              		.loc 6 493 52 view .LVU1941
 5868              	.LBE775:
 5869              	.LBE1267:
 5870              	.LBB1268:
 5871              	.LBB1154:
 859:src/main.cpp  ****             g_bitcrush      = bc;
 5872              		.loc 6 859 42 view .LVU1942
 5873 1830 65EEA65A 		vmul.f32	s11, s11, s13
 5874 1834 FFF798B8 		b	.L237
 5875              	.LVL492:
 5876              	.L339:
 859:src/main.cpp  ****             g_bitcrush      = bc;
 5877              		.loc 6 859 42 view .LVU1943
 5878              	.LBE1154:
 5879              	.LBE1268:
 5880              	.LBB1269:
 5881              	.LBB1005:
 5882              	.LBB996:
 5883              	.LBB971:
 5884 1838 DFED14CA 		vldr.32	s25, .L568+76
 5885 183c FEF785BF 		b	.L186
 5886              	.L569:
 5887              		.align	2
 5888              	.L568:
 5889 1840 00000000 		.word	g_hits
 5890 1844 00000000 		.word	g_amp_target
 5891 1848 00000000 		.word	g_live_tune
 5892 184c 00000000 		.word	g_live_voice
 5893 1850 00007A44 		.word	1148846080
 5894 1854 00000000 		.word	.LANCHOR6
 5895 1858 00000000 		.word	.LANCHOR7
 5896 185c 0000C842 		.word	1120403456
 5897 1860 00000000 		.word	g_bank
 5898 1864 EC51383F 		.word	1060655596
 5899 1868 006F313F 		.word	1060204288
 5900 186c 9FCD2A3D 		.word	1026215327
ARM GAS  /tmp/claude-502/ccJ8DnOJ.s 			page 171


 5901 1870 77BE7F3F 		.word	1065336439
 5902 1874 00A08C46 		.word	1183621120
 5903 1878 00000000 		.word	.LANCHOR0
 5904 187c 00000000 		.word	.LANCHOR5
 5905 1880 00000000 		.word	0
 5906 1884 CDCCCC3D 		.word	1036831949
 5907 1888 6666E63E 		.word	1055286886
 5908 188c CDCC4C3F 		.word	1061997773
 5909 1890 0000DC43 		.word	1138491392
 5910 1894 4CA6AA3E 		.word	1051371084
 5911 1898 CDCC4C3E 		.word	1045220557
 5912 189c 00008A42 		.word	1116340224
 5913 18a0 977F8A41 		.word	1099595671
 5914 18a4 C0956C3D 		.word	1030526400
 5915 18a8 68B32A3E 		.word	1042985832
 5916              	.LVL493:
 5917              	.L522:
 859:src/main.cpp  ****             g_bitcrush      = bc;
 5918              		.loc 6 859 42 view .LVU1944
 5919              	.LBE971:
 5920              	.LBE996:
 669:src/main.cpp  ****             float y = (freq_ratio - 1.0f) / (freq_ratio + 1.0f);
 5921              		.loc 6 669 19 view .LVU1945
 5922 18ac 1FED085A 		vldr.32	s10, .L568+80
 670:src/main.cpp  ****             float y2 = y*y;
 5923              		.loc 6 670 35 view .LVU1946
 5924 18b0 F7EE006A 		vmov.f32	s13, #1.0e+0
 5925              	.LVL494:
 672:src/main.cpp  ****             float midi_raw = 69.0f + 17.3123f * ln_ratio; // 17.3123 = 12/ln(2)
 5926              		.loc 6 672 57 view .LVU1947
 5927 18b4 5FED095A 		vldr.32	s11, .L568+84
 669:src/main.cpp  ****             float y = (freq_ratio - 1.0f) / (freq_ratio + 1.0f);
 5928              		.loc 6 669 19 view .LVU1948
 5929 18b8 CAEE857A 		vdiv.f32	s15, s21, s10
 5930              	.LVL495:
 672:src/main.cpp  ****             float midi_raw = 69.0f + 17.3123f * ln_ratio; // 17.3123 = 12/ln(2)
 5931              		.loc 6 672 57 view .LVU1949
 5932 18bc 5FED0A3A 		vldr.32	s7, .L568+88
 673:src/main.cpp  **** 
 5933              		.loc 6 673 19 view .LVU1950
 5934 18c0 1FED0A7A 		vldr.32	s14, .L568+92
 673:src/main.cpp  **** 
 5935              		.loc 6 673 19 view .LVU1951
 5936 18c4 1FED0A4A 		vldr.32	s8, .L568+96
 5937              	.LBB997:
 5938              	.LBB947:
 680:src/main.cpp  ****                 // Convert quantized note number back to Hz
 5939              		.loc 6 680 45 view .LVU1952
 5940 18c8 B0EE470A 		vmov.f32	s0, s14
 680:src/main.cpp  ****                 // Convert quantized note number back to Hz
 5941              		.loc 6 680 75 view .LVU1953
 5942 18cc D5E92301 		ldrd	r0, r1, [r5, #140]
 5943              	.LVL496:
 680:src/main.cpp  ****                 // Convert quantized note number back to Hz
 5944              		.loc 6 680 75 view .LVU1954
 5945              	.LBE947:
 5946              	.LBE997:
ARM GAS  /tmp/claude-502/ccJ8DnOJ.s 			page 172


 670:src/main.cpp  ****             float y2 = y*y;
 5947              		.loc 6 670 35 view .LVU1955
 5948 18d0 77EEE64A 		vsub.f32	s9, s15, s13
 670:src/main.cpp  ****             float y2 = y*y;
 5949              		.loc 6 670 57 view .LVU1956
 5950 18d4 37EEA66A 		vadd.f32	s12, s15, s13
 670:src/main.cpp  ****             float y2 = y*y;
 5951              		.loc 6 670 19 view .LVU1957
 5952 18d8 C4EE867A 		vdiv.f32	s15, s9, s12
 672:src/main.cpp  ****             float midi_raw = 69.0f + 17.3123f * ln_ratio; // 17.3123 = 12/ln(2)
 5953              		.loc 6 672 57 view .LVU1958
 5954 18dc B0EE656A 		vmov.f32	s12, s11
 672:src/main.cpp  ****             float midi_raw = 69.0f + 17.3123f * ln_ratio; // 17.3123 = 12/ln(2)
 5955              		.loc 6 672 43 view .LVU1959
 5956 18e0 F0EE665A 		vmov.f32	s11, s13
 671:src/main.cpp  ****             float ln_ratio = 2.0f*y*(1.0f + y2*(0.3333f + y2*0.2f));
 5957              		.loc 6 671 19 view .LVU1960
 5958 18e4 67EEA74A 		vmul.f32	s9, s15, s15
 5959              	.LBB998:
 5960              	.LBB948:
 680:src/main.cpp  ****                 // Convert quantized note number back to Hz
 5961              		.loc 6 680 17 is_stmt 1 view .LVU1961
 5962              	.LBE948:
 5963              	.LBE998:
 672:src/main.cpp  ****             float midi_raw = 69.0f + 17.3123f * ln_ratio; // 17.3123 = 12/ln(2)
 5964              		.loc 6 672 34 is_stmt 0 view .LVU1962
 5965 18e8 77EEA77A 		vadd.f32	s15, s15, s15
 672:src/main.cpp  ****             float midi_raw = 69.0f + 17.3123f * ln_ratio; // 17.3123 = 12/ln(2)
 5966              		.loc 6 672 57 view .LVU1963
 5967 18ec A4EEA36A 		vfma.f32	s12, s9, s7
 672:src/main.cpp  ****             float midi_raw = 69.0f + 17.3123f * ln_ratio; // 17.3123 = 12/ln(2)
 5968              		.loc 6 672 43 view .LVU1964
 5969 18f0 E6EE245A 		vfma.f32	s11, s12, s9
 5970              	.LBB999:
 5971              	.LBB949:
 682:src/main.cpp  ****                 freq = clampf(440.0f*(1.0f+qe*(1.0f+qe*(0.5f+qe*0.1667f))), VOICE.freq_low, VOICE.f
 5972              		.loc 6 682 23 view .LVU1965
 5973 18f4 5FED154A 		vldr.32	s9, .L568+100
 683:src/main.cpp  ****                 f1_sliding = false;
 5974              		.loc 6 683 61 view .LVU1966
 5975 18f8 B6EE006A 		vmov.f32	s12, #5.0e-1
 5976              	.LBE949:
 5977              	.LBE999:
 672:src/main.cpp  ****             float midi_raw = 69.0f + 17.3123f * ln_ratio; // 17.3123 = 12/ln(2)
 5978              		.loc 6 672 19 view .LVU1967
 5979 18fc 67EEA57A 		vmul.f32	s15, s15, s11
 5980              	.LBB1000:
 5981              	.LBB950:
 683:src/main.cpp  ****                 f1_sliding = false;
 5982              		.loc 6 683 61 view .LVU1968
 5983 1900 5FED175A 		vldr.32	s11, .L568+104
 680:src/main.cpp  ****                 // Convert quantized note number back to Hz
 5984              		.loc 6 680 45 view .LVU1969
 5985 1904 A7EE840A 		vfma.f32	s0, s15, s8
 5986 1908 FFF7FEFF 		bl	_Z13quantize_midifPKai
 5987              	.LVL497:
 682:src/main.cpp  ****                 freq = clampf(440.0f*(1.0f+qe*(1.0f+qe*(0.5f+qe*0.1667f))), VOICE.freq_low, VOICE.f
ARM GAS  /tmp/claude-502/ccJ8DnOJ.s 			page 173


 5988              		.loc 6 682 17 is_stmt 1 view .LVU1970
 682:src/main.cpp  ****                 freq = clampf(440.0f*(1.0f+qe*(1.0f+qe*(0.5f+qe*0.1667f))), VOICE.freq_low, VOICE.f
 5989              		.loc 6 682 42 is_stmt 0 view .LVU1971
 5990 190c 70EE477A 		vsub.f32	s15, s0, s14
 683:src/main.cpp  ****                 f1_sliding = false;
 5991              		.loc 6 683 61 view .LVU1972
 5992 1910 B0EE467A 		vmov.f32	s14, s12
 683:src/main.cpp  ****                 f1_sliding = false;
 5993              		.loc 6 683 52 view .LVU1973
 5994 1914 B0EE666A 		vmov.f32	s12, s13
 682:src/main.cpp  ****                 freq = clampf(440.0f*(1.0f+qe*(1.0f+qe*(0.5f+qe*0.1667f))), VOICE.freq_low, VOICE.f
 5995              		.loc 6 682 23 view .LVU1974
 5996 1918 67EEA47A 		vmul.f32	s15, s15, s9
 5997              	.LVL498:
 683:src/main.cpp  ****                 f1_sliding = false;
 5998              		.loc 6 683 17 is_stmt 1 view .LVU1975
 683:src/main.cpp  ****                 f1_sliding = false;
 5999              		.loc 6 683 61 is_stmt 0 view .LVU1976
 6000 191c A7EEA57A 		vfma.f32	s14, s15, s11
 683:src/main.cpp  ****                 f1_sliding = false;
 6001              		.loc 6 683 52 view .LVU1977
 6002 1920 A7EE276A 		vfma.f32	s12, s14, s15
 683:src/main.cpp  ****                 f1_sliding = false;
 6003              		.loc 6 683 43 view .LVU1978
 6004 1924 E6EE276A 		vfma.f32	s13, s12, s15
 683:src/main.cpp  ****                 f1_sliding = false;
 6005              		.loc 6 683 30 view .LVU1979
 6006 1928 66EE85AA 		vmul.f32	s21, s13, s10
 6007              	.LVL499:
 6008              	.LBB941:
 6009              	.LBI936:
  12:src/dsp.h     ****     return v<lo?lo:v>hi?hi:v;
 6010              		.loc 8 12 21 is_stmt 1 view .LVU1980
 6011              	.LBB938:
  13:src/dsp.h     **** }
 6012              		.loc 8 13 5 view .LVU1981
  13:src/dsp.h     **** }
 6013              		.loc 8 13 16 is_stmt 0 view .LVU1982
 6014 192c B4EEEACA 		vcmpe.f32	s24, s21
 6015 1930 F1EE10FA 		vmrs	APSR_nzcv, FPSCR
 6016 1934 3FF780AD 		bgt	.L176
  13:src/dsp.h     **** }
 6017              		.loc 8 13 24 view .LVU1983
 6018 1938 F4EE6ABA 		vcmp.f32	s23, s21
 6019              	.LBE938:
 6020              	.LBE941:
 6021              	.LBB942:
 689:src/main.cpp  ****                     int third, fifth;
 6022              		.loc 6 689 17 view .LVU1984
 6023 193c 95F89C30 		ldrb	r3, [r5, #156]	@ zero_extendqisi2
 6024              	.LBE942:
 6025              	.LBB943:
 6026              	.LBB939:
  13:src/dsp.h     **** }
 6027              		.loc 8 13 24 view .LVU1985
 6028 1940 F1EE10FA 		vmrs	APSR_nzcv, FPSCR
 6029 1944 48BF     		it	mi
ARM GAS  /tmp/claude-502/ccJ8DnOJ.s 			page 174


 6030 1946 F0EE6BAA 		vmovmi.f32	s21, s23
 6031              	.LVL500:
  13:src/dsp.h     **** }
 6032              		.loc 8 13 24 view .LVU1986
 6033              	.LBE939:
 6034              	.LBE943:
 684:src/main.cpp  ****                 // Chord voices: build the diatonic triad from the snapped root and
 6035              		.loc 6 684 17 is_stmt 1 view .LVU1987
 689:src/main.cpp  ****                     int third, fifth;
 6036              		.loc 6 689 17 view .LVU1988
 6037              	.LBB944:
 6038 194a 002B     		cmp	r3, #0
 6039 194c 3EF478AE 		beq	.L175
 6040              	.L288:
 6041              	.LBB913:
 690:src/main.cpp  ****                     diatonic_triad((int)f1_midi_base, VOICE.scale, VOICE.scale_len, third, fifth);
 6042              		.loc 6 690 21 view .LVU1989
 691:src/main.cpp  ****                     // Voicing width: lift the 3rd by chord_spread octaves (0 = close
 6043              		.loc 6 691 21 view .LVU1990
 6044              	.LVL501:
 6045              	.LBB914:
 6046              	.LBI914:
 150:src/voice.h   ****                                   int &semis_third, int &semis_fifth) {
 6047              		.loc 7 150 20 view .LVU1991
 6048              	.LBB915:
 152:src/voice.h   ****     semis_third = 4;
 6049              		.loc 7 152 3 view .LVU1992
 152:src/voice.h   ****     semis_third = 4;
 6050              		.loc 7 152 14 is_stmt 0 view .LVU1993
 6051 1950 0029     		cmp	r1, #0
 6052 1952 40F3A883 		ble	.L331
 6053 1956 B0FA80FE 		clz	lr, r0
 6054 195a 4FEA5E1E 		lsr	lr, lr, #5
 6055 195e 0028     		cmp	r0, #0
 6056 1960 00F0A183 		beq	.L331
 157:src/voice.h   ****   // Nearest scale degree to the root pitch class.
 6057              		.loc 7 157 3 is_stmt 1 view .LVU1994
 6058              	.LBE915:
 6059              	.LBE914:
 691:src/main.cpp  ****                     // Voicing width: lift the 3rd by chord_spread octaves (0 = close
 6060              		.loc 6 691 35 is_stmt 0 view .LVU1995
 6061 1964 FDEEC07A 		vcvt.s32.f32	s15, s0
 6062              	.LVL502:
 6063              	.LBB931:
 6064              	.LBB928:
 157:src/voice.h   ****   // Nearest scale degree to the root pitch class.
 6065              		.loc 7 157 22 view .LVU1996
 6066 1968 B84E     		ldr	r6, .L570
 6067 196a 00F1FF3C 		add	ip, r0, #-1
 159:src/voice.h   ****   for (int i = 0; i < n; i++) {
 6068              		.loc 7 159 16 view .LVU1997
 6069 196e 4FF07F08 		mov	r8, #127
 6070              	.LVL503:
 159:src/voice.h   ****   for (int i = 0; i < n; i++) {
 6071              		.loc 7 159 16 view .LVU1998
 6072              	.LBE928:
 6073              	.LBE931:
ARM GAS  /tmp/claude-502/ccJ8DnOJ.s 			page 175


 691:src/main.cpp  ****                     // Voicing width: lift the 3rd by chord_spread octaves (0 = close
 6074              		.loc 6 691 35 view .LVU1999
 6075 1972 17EE903A 		vmov	r3, s15	@ int
 6076              	.LBB932:
 6077              	.LBB929:
 157:src/voice.h   ****   // Nearest scale degree to the root pitch class.
 6078              		.loc 7 157 22 view .LVU2000
 6079 1976 86FB0326 		smull	r2, r6, r6, r3
 6080 197a DA17     		asrs	r2, r3, #31
 6081 197c C2EB6602 		rsb	r2, r2, r6, asr #1
 157:src/voice.h   ****   // Nearest scale degree to the root pitch class.
 6082              		.loc 7 157 7 view .LVU2001
 6083 1980 B34E     		ldr	r6, .L570+4
 157:src/voice.h   ****   // Nearest scale degree to the root pitch class.
 6084              		.loc 7 157 22 view .LVU2002
 6085 1982 02EB4202 		add	r2, r2, r2, lsl #1
 6086 1986 A3EB8203 		sub	r3, r3, r2, lsl #2
 157:src/voice.h   ****   // Nearest scale degree to the root pitch class.
 6087              		.loc 7 157 28 view .LVU2003
 6088 198a 0C33     		adds	r3, r3, #12
 157:src/voice.h   ****   // Nearest scale degree to the root pitch class.
 6089              		.loc 7 157 7 view .LVU2004
 6090 198c A6FB0326 		umull	r2, r6, r6, r3
 6091 1990 F608     		lsrs	r6, r6, #3
 6092 1992 06EB4606 		add	r6, r6, r6, lsl #1
 6093 1996 A3EB8606 		sub	r6, r3, r6, lsl #2
 6094              	.LVL504:
 159:src/voice.h   ****   for (int i = 0; i < n; i++) {
 6095              		.loc 7 159 3 is_stmt 1 view .LVU2005
 160:src/voice.h   ****     int d = scale[i] - pc;
 6096              		.loc 7 160 3 view .LVU2006
 6097              	.LBB916:
 160:src/voice.h   ****     int d = scale[i] - pc;
 6098              		.loc 7 160 21 view .LVU2007
 160:src/voice.h   ****     int d = scale[i] - pc;
 6099              		.loc 7 160 12 is_stmt 0 view .LVU2008
 6100 199a 7346     		mov	r3, lr
 6101              	.LVL505:
 6102              	.L181:
 6103              	.LBB917:
 161:src/voice.h   ****     if (d < 0)
 6104              		.loc 7 161 5 is_stmt 1 view .LVU2009
 163:src/voice.h   ****     if (d < best) {
 6105              		.loc 7 163 7 view .LVU2010
 161:src/voice.h   ****     if (d < 0)
 6106              		.loc 7 161 20 is_stmt 0 view .LVU2011
 6107 199c 1CF9012F 		ldrsb	r2, [ip, #1]!
 6108              	.LVL506:
 162:src/voice.h   ****       d = -d;
 6109              		.loc 7 162 5 is_stmt 1 view .LVU2012
 6110 19a0 971B     		subs	r7, r2, r6
 6111              	.LVL507:
 163:src/voice.h   ****     if (d < best) {
 6112              		.loc 7 163 9 is_stmt 0 view .LVU2013
 6113 19a2 48BF     		it	mi
 6114 19a4 B71A     		submi	r7, r6, r2
 6115              	.LVL508:
ARM GAS  /tmp/claude-502/ccJ8DnOJ.s 			page 176


 164:src/voice.h   ****       best = d;
 6116              		.loc 7 164 5 is_stmt 1 view .LVU2014
 6117 19a6 4745     		cmp	r7, r8
 6118 19a8 01DA     		bge	.L180
 6119 19aa 9E46     		mov	lr, r3
 6120 19ac B846     		mov	r8, r7
 6121              	.LVL509:
 6122              	.L180:
 164:src/voice.h   ****       best = d;
 6123              		.loc 7 164 5 is_stmt 0 view .LVU2015
 6124              	.LBE917:
 160:src/voice.h   ****     int d = scale[i] - pc;
 6125              		.loc 7 160 3 is_stmt 1 view .LVU2016
 6126 19ae 0133     		adds	r3, r3, #1
 6127              	.LVL510:
 160:src/voice.h   ****     int d = scale[i] - pc;
 6128              		.loc 7 160 21 view .LVU2017
 6129 19b0 9942     		cmp	r1, r3
 6130 19b2 F3DC     		bgt	.L181
 6131              	.LBE916:
 169:src/voice.h   ****   int base = deg(idx);
 6132              		.loc 7 169 3 view .LVU2018
 6133              	.LVL511:
 170:src/voice.h   ****   semis_third = deg(idx + 2) - base;
 6134              		.loc 7 170 3 view .LVU2019
 6135              	.LBB918:
 6136              	.LBI918:
 169:src/voice.h   ****   int base = deg(idx);
 6137              		.loc 7 169 14 view .LVU2020
 6138              	.LBB919:
 169:src/voice.h   ****   int base = deg(idx);
 6139              		.loc 7 169 27 view .LVU2021
 6140              	.LBE919:
 6141              	.LBE918:
 171:src/voice.h   ****   semis_fifth = deg(idx + 4) - base;
 6142              		.loc 7 171 20 is_stmt 0 view .LVU2022
 6143 19b4 0EF10203 		add	r3, lr, #2
 6144              	.LVL512:
 172:src/voice.h   **** }
 6145              		.loc 7 172 20 view .LVU2023
 6146 19b8 0EF10406 		add	r6, lr, #4
 6147              	.LVL513:
 6148              	.LBB921:
 6149              	.LBB920:
 169:src/voice.h   ****   int base = deg(idx);
 6150              		.loc 7 169 42 view .LVU2024
 6151 19bc 9EFBF1F2 		sdiv	r2, lr, r1
 6152 19c0 01FB12EE 		mls	lr, r1, r2, lr
 6153              	.LVL514:
 169:src/voice.h   ****   int base = deg(idx);
 6154              		.loc 7 169 52 view .LVU2025
 6155 19c4 02EB4202 		add	r2, r2, r2, lsl #1
 169:src/voice.h   ****   int base = deg(idx);
 6156              		.loc 7 169 45 view .LVU2026
 6157 19c8 10F90E70 		ldrsb	r7, [r0, lr]
 6158              	.LVL515:
 169:src/voice.h   ****   int base = deg(idx);
ARM GAS  /tmp/claude-502/ccJ8DnOJ.s 			page 177


 6159              		.loc 7 169 60 view .LVU2027
 6160 19cc 07EB8202 		add	r2, r7, r2, lsl #2
 6161              	.LVL516:
 169:src/voice.h   ****   int base = deg(idx);
 6162              		.loc 7 169 60 view .LVU2028
 6163              	.LBE920:
 6164              	.LBE921:
 171:src/voice.h   ****   semis_fifth = deg(idx + 4) - base;
 6165              		.loc 7 171 3 is_stmt 1 view .LVU2029
 6166              	.LBB922:
 6167              	.LBI922:
 169:src/voice.h   ****   int base = deg(idx);
 6168              		.loc 7 169 14 view .LVU2030
 6169              	.LBB923:
 169:src/voice.h   ****   int base = deg(idx);
 6170              		.loc 7 169 27 view .LVU2031
 169:src/voice.h   ****   int base = deg(idx);
 6171              		.loc 7 169 42 is_stmt 0 view .LVU2032
 6172 19d0 93FBF1F7 		sdiv	r7, r3, r1
 6173 19d4 01FB1733 		mls	r3, r1, r7, r3
 169:src/voice.h   ****   int base = deg(idx);
 6174              		.loc 7 169 52 view .LVU2033
 6175 19d8 07EB4707 		add	r7, r7, r7, lsl #1
 169:src/voice.h   ****   int base = deg(idx);
 6176              		.loc 7 169 45 view .LVU2034
 6177 19dc C356     		ldrsb	r3, [r0, r3]
 169:src/voice.h   ****   int base = deg(idx);
 6178              		.loc 7 169 60 view .LVU2035
 6179 19de 03EB8703 		add	r3, r3, r7, lsl #2
 6180              	.LBE923:
 6181              	.LBE922:
 6182              	.LBB924:
 6183              	.LBB925:
 169:src/voice.h   ****   int base = deg(idx);
 6184              		.loc 7 169 42 view .LVU2036
 6185 19e2 96FBF1F7 		sdiv	r7, r6, r1
 6186 19e6 01FB1761 		mls	r1, r1, r7, r6
 6187              	.LVL517:
 169:src/voice.h   ****   int base = deg(idx);
 6188              		.loc 7 169 42 view .LVU2037
 6189              	.LBE925:
 6190              	.LBE924:
 171:src/voice.h   ****   semis_fifth = deg(idx + 4) - base;
 6191              		.loc 7 171 30 view .LVU2038
 6192 19ea 9B1A     		subs	r3, r3, r2
 6193              	.LVL518:
 172:src/voice.h   **** }
 6194              		.loc 7 172 3 is_stmt 1 view .LVU2039
 6195              	.LBB927:
 6196              	.LBI924:
 169:src/voice.h   ****   int base = deg(idx);
 6197              		.loc 7 169 14 view .LVU2040
 6198              	.LBB926:
 169:src/voice.h   ****   int base = deg(idx);
 6199              		.loc 7 169 27 view .LVU2041
 169:src/voice.h   ****   int base = deg(idx);
 6200              		.loc 7 169 45 is_stmt 0 view .LVU2042
ARM GAS  /tmp/claude-502/ccJ8DnOJ.s 			page 178


 6201 19ec 4056     		ldrsb	r0, [r0, r1]
 6202              	.LVL519:
 169:src/voice.h   ****   int base = deg(idx);
 6203              		.loc 7 169 52 view .LVU2043
 6204 19ee 07EB4701 		add	r1, r7, r7, lsl #1
 169:src/voice.h   ****   int base = deg(idx);
 6205              		.loc 7 169 60 view .LVU2044
 6206 19f2 00EB8101 		add	r1, r0, r1, lsl #2
 6207              	.LBE926:
 6208              	.LBE927:
 172:src/voice.h   **** }
 6209              		.loc 7 172 30 view .LVU2045
 6210 19f6 8A1A     		subs	r2, r1, r2
 6211              	.LVL520:
 172:src/voice.h   **** }
 6212              		.loc 7 172 30 view .LVU2046
 6213 19f8 0BEE902A 		vmov	s23, r2	@ int
 6214              	.LVL521:
 6215              	.L178:
 172:src/voice.h   **** }
 6216              		.loc 7 172 30 view .LVU2047
 6217              	.LBE929:
 6218              	.LBE932:
 695:src/main.cpp  ****                     g_chord_ratio2 = exp2f((float)third / 12.0f);
 6219              		.loc 6 695 21 is_stmt 1 view .LVU2048
 696:src/main.cpp  ****                     g_chord_ratio3 = exp2f((float)fifth / 12.0f);
 6220              		.loc 6 696 21 view .LVU2049
 695:src/main.cpp  ****                     g_chord_ratio2 = exp2f((float)third / 12.0f);
 6221              		.loc 6 695 33 is_stmt 0 view .LVU2050
 6222 19fc D5F8A420 		ldr	r2, [r5, #164]
 696:src/main.cpp  ****                     g_chord_ratio3 = exp2f((float)fifth / 12.0f);
 6223              		.loc 6 696 43 view .LVU2051
 6224 1a00 B2EE08CA 		vmov.f32	s24, #1.2e+1
 695:src/main.cpp  ****                     g_chord_ratio2 = exp2f((float)third / 12.0f);
 6225              		.loc 6 695 33 view .LVU2052
 6226 1a04 02EB4202 		add	r2, r2, r2, lsl #1
 695:src/main.cpp  ****                     g_chord_ratio2 = exp2f((float)third / 12.0f);
 6227              		.loc 6 695 27 view .LVU2053
 6228 1a08 03EB8202 		add	r2, r3, r2, lsl #2
 696:src/main.cpp  ****                     g_chord_ratio3 = exp2f((float)fifth / 12.0f);
 6229              		.loc 6 696 44 view .LVU2054
 6230 1a0c 07EE902A 		vmov	s15, r2	@ int
 6231 1a10 B8EEE70A 		vcvt.f32.s32	s0, s15
 6232              	.LVL522:
 696:src/main.cpp  ****                     g_chord_ratio3 = exp2f((float)fifth / 12.0f);
 6233              		.loc 6 696 43 view .LVU2055
 6234 1a14 80EE0C0A 		vdiv.f32	s0, s0, s24
 6235 1a18 FFF7FEFF 		bl	exp2f
 6236              	.LVL523:
 696:src/main.cpp  ****                     g_chord_ratio3 = exp2f((float)fifth / 12.0f);
 6237              		.loc 6 696 36 view .LVU2056
 6238 1a1c 8D4B     		ldr	r3, .L570+8
 6239 1a1e 83ED000A 		vstr.32	s0, [r3]
 697:src/main.cpp  ****                 }
 6240              		.loc 6 697 21 is_stmt 1 view .LVU2057
 697:src/main.cpp  ****                 }
 6241              		.loc 6 697 44 is_stmt 0 view .LVU2058
ARM GAS  /tmp/claude-502/ccJ8DnOJ.s 			page 179


 6242 1a22 F8EEEBBA 		vcvt.f32.s32	s23, s23
 6243              	.LVL524:
 697:src/main.cpp  ****                 }
 6244              		.loc 6 697 43 view .LVU2059
 6245 1a26 8BEE8C0A 		vdiv.f32	s0, s23, s24
 6246 1a2a FFF7FEFF 		bl	exp2f
 6247              	.LVL525:
 697:src/main.cpp  ****                 }
 6248              		.loc 6 697 36 view .LVU2060
 6249 1a2e 8A4B     		ldr	r3, .L570+12
 6250              	.LBE913:
 6251              	.LBE944:
 6252              	.LBE950:
 6253              	.LBE1000:
 707:src/main.cpp  **** 
 6254              		.loc 6 707 39 view .LVU2061
 6255 1a30 95ED01CA 		vldr.32	s24, [r5, #4]
 707:src/main.cpp  **** 
 6256              		.loc 6 707 55 view .LVU2062
 6257 1a34 D5ED02BA 		vldr.32	s23, [r5, #8]
 6258              	.LBB1001:
 6259              	.LBB951:
 6260              	.LBB945:
 6261              	.LBB934:
 697:src/main.cpp  ****                 }
 6262              		.loc 6 697 36 view .LVU2063
 6263 1a38 83ED000A 		vstr.32	s0, [r3]
 697:src/main.cpp  ****                 }
 6264              		.loc 6 697 36 view .LVU2064
 6265              	.LBE934:
 6266 1a3c FEF700BE 		b	.L175
 6267              	.LVL526:
 6268              	.L498:
 697:src/main.cpp  ****                 }
 6269              		.loc 6 697 36 view .LVU2065
 6270              	.LBE945:
 6271              	.LBE951:
 6272              	.LBE1001:
 6273              	.LBE1005:
 6274              	.LBE1269:
 6275              	.LBB1270:
 6276              	.LBB1155:
 6277              	.LBB1145:
 6278              	.LBB1113:
 726:src/main.cpp  ****                 return x*x*x*(x*(x*6.0f - 15.0f) + 10.0f);
 6279              		.loc 6 726 30 view .LVU2066
 6280 1a40 F7EE007A 		vmov.f32	s15, #1.0e+0
 6281 1a44 B4EEE77A 		vcmpe.f32	s14, s15
 6282 1a48 F1EE10FA 		vmrs	APSR_nzcv, FPSCR
 6283 1a4c 40F3DC83 		ble	.L499
 6284              	.LBE1113:
 6285              	.LBE1145:
 856:src/main.cpp  ****             float rm    = smoothstep2(rm_in) * VOICE.ringmod_max;
 6286              		.loc 6 856 41 view .LVU2067
 6287 1a50 9FED827A 		vldr.32	s14, .L570+16
 6288              	.LVL527:
 856:src/main.cpp  ****             float rm    = smoothstep2(rm_in) * VOICE.ringmod_max;
ARM GAS  /tmp/claude-502/ccJ8DnOJ.s 			page 180


 6289              		.loc 6 856 33 view .LVU2068
 6290 1a54 DFED826A 		vldr.32	s13, .L570+20
 856:src/main.cpp  ****             float rm    = smoothstep2(rm_in) * VOICE.ringmod_max;
 6291              		.loc 6 856 41 view .LVU2069
 6292 1a58 36EE477A 		vsub.f32	s14, s12, s14
 856:src/main.cpp  ****             float rm    = smoothstep2(rm_in) * VOICE.ringmod_max;
 6293              		.loc 6 856 33 view .LVU2070
 6294 1a5c 87EE265A 		vdiv.f32	s10, s14, s13
 6295 1a60 FEF763BF 		b	.L232
 6296              	.LVL528:
 6297              	.L542:
 6298              	.LBB1146:
 6299              	.LBB1107:
 726:src/main.cpp  ****                 return x*x*x*(x*(x*6.0f - 15.0f) + 10.0f);
 6300              		.loc 6 726 30 view .LVU2071
 6301 1a64 F4EEE67A 		vcmpe.f32	s15, s13
 6302 1a68 F1EE10FA 		vmrs	APSR_nzcv, FPSCR
 6303 1a6c 7EF739AF 		ble	.L294
 6304 1a70 F0EE667A 		vmov.f32	s15, s13
 6305              	.LVL529:
 727:src/main.cpp  ****             };
 6306              		.loc 6 727 17 is_stmt 1 view .LVU2072
 727:src/main.cpp  ****             };
 6307              		.loc 6 727 17 is_stmt 0 view .LVU2073
 6308              	.LBE1107:
 6309              	.LBE1146:
 845:src/main.cpp  **** 
 6310              		.loc 6 845 13 is_stmt 1 view .LVU2074
 6311              	.LBB1147:
 725:src/main.cpp  ****                 x = x<0?0:x>1?1:x;
 6312              		.loc 6 725 33 view .LVU2075
 6313              	.LBB1114:
 726:src/main.cpp  ****                 return x*x*x*(x*(x*6.0f - 15.0f) + 10.0f);
 6314              		.loc 6 726 17 view .LVU2076
 6315 1a74 FEF759BF 		b	.L232
 6316              	.LVL530:
 6317              	.L319:
 726:src/main.cpp  ****                 return x*x*x*(x*(x*6.0f - 15.0f) + 10.0f);
 6318              		.loc 6 726 17 is_stmt 0 view .LVU2077
 6319              	.LBE1114:
 6320              	.LBE1147:
 6321              	.LBE1155:
 6322              	.LBE1270:
 6323              	.LBB1271:
 6324              	.LBB894:
 6325              	.LBB890:
 6326              	.LBB886:
 6327              	.LBB882:
 6328              	.LBB878:
 6329              	.LBB870:
 6330              	.LBB859:
  16:src/dsp.h     **** }
 6331              		.loc 8 16 12 view .LVU2078
 6332 1a78 B5EEC0BA 		vcmpe.f32	s22, #0
 6333              	.LBE859:
 6334              	.LBE870:
 6335              	.LBB871:
ARM GAS  /tmp/claude-502/ccJ8DnOJ.s 			page 181


 6336              	.LBB854:
  13:src/dsp.h     **** }
 6337              		.loc 8 13 16 view .LVU2079
 6338 1a7c F0EE67AA 		vmov.f32	s21, s15
 6339              	.LVL531:
  13:src/dsp.h     **** }
 6340              		.loc 8 13 16 view .LVU2080
 6341              	.LBE854:
 6342              	.LBE871:
 414:src/main.cpp  ****         drum_trigger(g_hits[s], vidx, freq, amp, cutoff, drive, hw.AudioSampleRate());
 6343              		.loc 6 414 9 is_stmt 1 view .LVU2081
 6344              	.LBB872:
  15:src/dsp.h     ****     x = x<0?0:x>1?1:x; return x*x*(3.0f - 2.0f*x);
 6345              		.loc 8 15 21 view .LVU2082
 6346              	.LBB860:
  16:src/dsp.h     **** }
 6347              		.loc 8 16 5 view .LVU2083
  16:src/dsp.h     **** }
 6348              		.loc 8 16 12 is_stmt 0 view .LVU2084
 6349 1a80 F1EE10FA 		vmrs	APSR_nzcv, FPSCR
 6350 1a84 7FF567AE 		bpl	.L546
 6351              	.L321:
  16:src/dsp.h     **** }
 6352              		.loc 8 16 12 view .LVU2085
 6353 1a88 DFED767A 		vldr.32	s15, .L570+24
 6354 1a8c 74E6     		b	.L164
 6355              	.LVL532:
 6356              	.L316:
  16:src/dsp.h     **** }
 6357              		.loc 8 16 12 view .LVU2086
 6358              	.LBE860:
 6359              	.LBE872:
 6360              	.LBB873:
 6361              	.LBB840:
  13:src/dsp.h     **** }
 6362              		.loc 8 13 16 view .LVU2087
 6363 1a8e 9FED75BA 		vldr.32	s22, .L570+24
 6364              	.LVL533:
  13:src/dsp.h     **** }
 6365              		.loc 8 13 16 view .LVU2088
 6366 1a92 01E6     		b	.L161
 6367              	.LVL534:
 6368              	.L314:
  13:src/dsp.h     **** }
 6369              		.loc 8 13 16 view .LVU2089
 6370              	.LBE840:
 6371              	.LBE873:
 6372              	.LBB874:
 6373              	.LBB836:
 6374 1a94 F7EE00CA 		vmov.f32	s25, #1.0e+0
 6375 1a98 0926     		movs	r6, #9
 6376 1a9a DAE5     		b	.L160
 6377              	.LVL535:
 6378              	.L514:
  13:src/dsp.h     **** }
 6379              		.loc 8 13 16 view .LVU2090
 6380              	.LBE836:
ARM GAS  /tmp/claude-502/ccJ8DnOJ.s 			page 182


 6381              	.LBE874:
 6382              	.LBE878:
 6383              	.LBE882:
 6384              	.LBE886:
 6385              	.LBE890:
 6386              	.LBE894:
 6387              	.LBE1271:
 6388              	.LBB1272:
 6389              	.LBB776:
 6390              	.LBB752:
 6391              	.LBB720:
 513:src/main.cpp  ****                     if(!g_serial_quiet){
 6392              		.loc 6 513 21 is_stmt 1 view .LVU2091
 513:src/main.cpp  ****                     if(!g_serial_quiet){
 6393              		.loc 6 513 38 is_stmt 0 view .LVU2092
 6394 1a9c FFF7FEFF 		bl	_Z17persist_save_bankv
 6395              	.LVL536:
 514:src/main.cpp  ****                         usb_log("[voice kept %d/%d] %s",
 6396              		.loc 6 514 21 is_stmt 1 view .LVU2093
 514:src/main.cpp  ****                         usb_log("[voice kept %d/%d] %s",
 6397              		.loc 6 514 25 is_stmt 0 view .LVU2094
 6398 1aa0 714B     		ldr	r3, .L570+28
 6399 1aa2 1B78     		ldrb	r3, [r3]	@ zero_extendqisi2
 514:src/main.cpp  ****                         usb_log("[voice kept %d/%d] %s",
 6400              		.loc 6 514 21 view .LVU2095
 6401 1aa4 002B     		cmp	r3, #0
 6402 1aa6 00F00C82 		beq	.L547
 6403              	.L83:
 520:src/main.cpp  ****                     sel_mode = 0; full_since = 0;
 6404              		.loc 6 520 21 is_stmt 1 view .LVU2096
 6405              	.LVL537:
 521:src/main.cpp  ****                     blink_start(cycle_pos(g_voice_idx), now); // confirm saved voice (non-blocking)
 6406              		.loc 6 521 21 view .LVU2097
 521:src/main.cpp  ****                     blink_start(cycle_pos(g_voice_idx), now); // confirm saved voice (non-blocking)
 6407              		.loc 6 521 35 view .LVU2098
 522:src/main.cpp  ****                 } else {
 6408              		.loc 6 522 21 view .LVU2099
 522:src/main.cpp  ****                 } else {
 6409              		.loc 6 522 32 is_stmt 0 view .LVU2100
 6410 1aaa 704B     		ldr	r3, .L570+32
 6411 1aac 1B68     		ldr	r3, [r3]
 6412              	.LVL538:
 6413              	.LBB671:
 6414              	.LBI671:
1051:src/voice.h   ****   int p = 0;
 6415              		.loc 7 1051 12 is_stmt 1 view .LVU2101
 6416              	.LBB672:
1052:src/voice.h   ****   for (int i = 0; i <= idx && i < NUM_VOICES; i++)
 6417              		.loc 7 1052 3 view .LVU2102
1053:src/voice.h   ****     if (!VOICES[i].no_cycle)
 6418              		.loc 7 1053 3 view .LVU2103
 6419              	.LBB673:
1053:src/voice.h   ****     if (!VOICES[i].no_cycle)
 6420              		.loc 7 1053 28 view .LVU2104
 6421 1aae 0E2B     		cmp	r3, #14
 6422 1ab0 1846     		mov	r0, r3
 6423 1ab2 A8BF     		it	ge
ARM GAS  /tmp/claude-502/ccJ8DnOJ.s 			page 183


 6424 1ab4 0E20     		movge	r0, #14
 6425 1ab6 002B     		cmp	r3, #0
 6426 1ab8 C0F28481 		blt	.L89
 6427              	.LBE673:
1052:src/voice.h   ****   for (int i = 0; i <= idx && i < NUM_VOICES; i++)
 6428              		.loc 7 1052 7 is_stmt 0 view .LVU2105
 6429 1abc 0023     		movs	r3, #0
 6430              	.LVL539:
 6431              	.LBB674:
1053:src/voice.h   ****     if (!VOICES[i].no_cycle)
 6432              		.loc 7 1053 28 view .LVU2106
 6433 1abe 6C4A     		ldr	r2, .L570+36
1053:src/voice.h   ****     if (!VOICES[i].no_cycle)
 6434              		.loc 7 1053 12 view .LVU2107
 6435 1ac0 9C46     		mov	ip, r3
 6436              	.LVL540:
 6437              	.L91:
1054:src/voice.h   ****       p++;
 6438              		.loc 7 1054 5 is_stmt 1 view .LVU2108
1055:src/voice.h   ****   return p;
 6439              		.loc 7 1055 7 view .LVU2109
1054:src/voice.h   ****       p++;
 6440              		.loc 7 1054 5 is_stmt 0 view .LVU2110
 6441 1ac2 92F87C10 		ldrb	r1, [r2, #124]	@ zero_extendqisi2
1053:src/voice.h   ****     if (!VOICES[i].no_cycle)
 6442              		.loc 7 1053 3 view .LVU2111
 6443 1ac6 0133     		adds	r3, r3, #1
 6444              	.LVL541:
1053:src/voice.h   ****     if (!VOICES[i].no_cycle)
 6445              		.loc 7 1053 28 view .LVU2112
 6446 1ac8 C032     		adds	r2, r2, #192
1054:src/voice.h   ****       p++;
 6447              		.loc 7 1054 5 view .LVU2113
 6448 1aca 09B9     		cbnz	r1, .L90
1055:src/voice.h   ****   return p;
 6449              		.loc 7 1055 8 view .LVU2114
 6450 1acc 0CF1010C 		add	ip, ip, #1
 6451              	.LVL542:
 6452              	.L90:
1053:src/voice.h   ****     if (!VOICES[i].no_cycle)
 6453              		.loc 7 1053 3 is_stmt 1 view .LVU2115
1053:src/voice.h   ****     if (!VOICES[i].no_cycle)
 6454              		.loc 7 1053 28 view .LVU2116
 6455 1ad0 9842     		cmp	r0, r3
 6456 1ad2 F6DA     		bge	.L91
1053:src/voice.h   ****     if (!VOICES[i].no_cycle)
 6457              		.loc 7 1053 28 is_stmt 0 view .LVU2117
 6458              	.LBE674:
 6459              		.loc 7 1056 3 is_stmt 1 view .LVU2118
 6460              	.LVL543:
 6461              		.loc 7 1056 3 is_stmt 0 view .LVU2119
 6462              	.LBE672:
 6463              	.LBE671:
 6464              	.LBB675:
 6465              	.LBB676:
 359:src/main.cpp  ****         else     { leds_write(false); blink_on = false; }
 6466              		.loc 6 359 9 view .LVU2120
ARM GAS  /tmp/claude-502/ccJ8DnOJ.s 			page 184


 6467 1ad4 6346     		mov	r3, ip
 6468              	.LVL544:
 359:src/main.cpp  ****         else     { leds_write(false); blink_on = false; }
 6469              		.loc 6 359 9 view .LVU2121
 6470              	.LBE676:
 6471              	.LBI675:
 357:src/main.cpp  ****         blink_left = n;
 6472              		.loc 6 357 24 is_stmt 1 view .LVU2122
 6473              	.LBB691:
 358:src/main.cpp  ****         if(n > 0){ leds_write(true); blink_on = true; blink_t = now + 110; }
 6474              		.loc 6 358 9 view .LVU2123
 359:src/main.cpp  ****         else     { leds_write(false); blink_on = false; }
 6475              		.loc 6 359 9 view .LVU2124
 6476 1ad6 CDF828C0 		str	ip, [sp, #40]
 6477 1ada 002B     		cmp	r3, #0
 6478 1adc 00F07281 		beq	.L89
 359:src/main.cpp  ****         else     { leds_write(false); blink_on = false; }
 6479              		.loc 6 359 20 view .LVU2125
 6480              	.LVL545:
 6481              	.LBB677:
 6482              	.LBI677:
 352:src/main.cpp  ****         hw.dac.WriteValue(DacHandle::Channel::ONE, on ? (uint16_t)LED1_MAX : 0);
 6483              		.loc 6 352 23 view .LVU2126
 6484              	.LBB678:
 353:src/main.cpp  ****         hw.dac.WriteValue(DacHandle::Channel::TWO, on ? (uint16_t)LED2_MAX : 0);
 6485              		.loc 6 353 9 view .LVU2127
 353:src/main.cpp  ****         hw.dac.WriteValue(DacHandle::Channel::TWO, on ? (uint16_t)LED2_MAX : 0);
 6486              		.loc 6 353 26 is_stmt 0 view .LVU2128
 6487 1ae0 40F6FF72 		movw	r2, #4095
 6488 1ae4 0021     		movs	r1, #0
 6489 1ae6 6348     		ldr	r0, .L570+40
 6490              	.LBE678:
 6491              	.LBE677:
 6492 1ae8 0997     		str	r7, [sp, #36]
 6493              	.LVL546:
 6494              	.LBB681:
 6495              	.LBB679:
 353:src/main.cpp  ****         hw.dac.WriteValue(DacHandle::Channel::TWO, on ? (uint16_t)LED2_MAX : 0);
 6496              		.loc 6 353 26 view .LVU2129
 6497 1aea FFF7FEFF 		bl	_ZN5daisy9DacHandle10WriteValueENS0_7ChannelEt
 6498              	.LVL547:
 354:src/main.cpp  ****         g_led3_duty = on ? LED3_INTENSITY : 0.0f;
 6499              		.loc 6 354 9 is_stmt 1 view .LVU2130
 354:src/main.cpp  ****         g_led3_duty = on ? LED3_INTENSITY : 0.0f;
 6500              		.loc 6 354 26 is_stmt 0 view .LVU2131
 6501 1aee 40F6FF72 		movw	r2, #4095
 6502 1af2 0121     		movs	r1, #1
 6503 1af4 5F48     		ldr	r0, .L570+40
 6504 1af6 FFF7FEFF 		bl	_ZN5daisy9DacHandle10WriteValueENS0_7ChannelEt
 6505              	.LVL548:
 355:src/main.cpp  ****     };
 6506              		.loc 6 355 9 is_stmt 1 view .LVU2132
 355:src/main.cpp  ****     };
 6507              		.loc 6 355 21 is_stmt 0 view .LVU2133
 6508 1afa 5F4B     		ldr	r3, .L570+44
 6509 1afc 1699     		ldr	r1, [sp, #88]
 6510              	.LBE679:
ARM GAS  /tmp/claude-502/ccJ8DnOJ.s 			page 185


 6511              	.LBE681:
 6512              	.LBE691:
 6513              	.LBE675:
 520:src/main.cpp  ****                     sel_mode = 0; full_since = 0;
 6514              		.loc 6 520 30 view .LVU2134
 6515 1afe 0022     		movs	r2, #0
 6516              	.LBB697:
 6517              	.LBB692:
 6518              	.LBB682:
 6519              	.LBB680:
 355:src/main.cpp  ****     };
 6520              		.loc 6 355 21 view .LVU2135
 6521 1b00 0B60     		str	r3, [r1]	@ float
 6522              	.LVL549:
 355:src/main.cpp  ****     };
 6523              		.loc 6 355 21 view .LVU2136
 6524              	.LBE680:
 6525              	.LBE682:
 359:src/main.cpp  ****         else     { leds_write(false); blink_on = false; }
 6526              		.loc 6 359 38 is_stmt 1 view .LVU2137
 359:src/main.cpp  ****         else     { leds_write(false); blink_on = false; }
 6527              		.loc 6 359 55 view .LVU2138
 359:src/main.cpp  ****         else     { leds_write(false); blink_on = false; }
 6528              		.loc 6 359 69 is_stmt 0 view .LVU2139
 6529 1b02 06F16E03 		add	r3, r6, #110
 6530              	.LBE692:
 6531              	.LBE697:
 520:src/main.cpp  ****                     sel_mode = 0; full_since = 0;
 6532              		.loc 6 520 30 view .LVU2140
 6533 1b06 1B92     		str	r2, [sp, #108]
 6534              	.LBB698:
 6535              	.LBB693:
 359:src/main.cpp  ****         else     { leds_write(false); blink_on = false; }
 6536              		.loc 6 359 69 view .LVU2141
 6537 1b08 1093     		str	r3, [sp, #64]
 6538              	.LVL550:
 359:src/main.cpp  ****         else     { leds_write(false); blink_on = false; }
 6539              		.loc 6 359 47 view .LVU2142
 6540 1b0a 0123     		movs	r3, #1
 6541              	.LVL551:
 359:src/main.cpp  ****         else     { leds_write(false); blink_on = false; }
 6542              		.loc 6 359 47 view .LVU2143
 6543              	.LBE693:
 6544              	.LBE698:
 521:src/main.cpp  ****                     blink_start(cycle_pos(g_voice_idx), now); // confirm saved voice (non-blocking)
 6545              		.loc 6 521 46 view .LVU2144
 6546 1b0c 1792     		str	r2, [sp, #92]
 6547              	.LBB699:
 6548              	.LBB694:
 359:src/main.cpp  ****         else     { leds_write(false); blink_on = false; }
 6549              		.loc 6 359 47 view .LVU2145
 6550 1b0e 0B93     		str	r3, [sp, #44]
 6551              	.LBE694:
 6552              	.LBE699:
 521:src/main.cpp  ****                     blink_start(cycle_pos(g_voice_idx), now); // confirm saved voice (non-blocking)
 6553              		.loc 6 521 30 view .LVU2146
 6554 1b10 0C92     		str	r2, [sp, #48]
ARM GAS  /tmp/claude-502/ccJ8DnOJ.s 			page 186


 6555              	.LBB700:
 6556              	.LBB695:
 6557 1b12 FEF7B2BC 		b	.L92
 6558              	.LVL552:
 6559              	.L346:
 521:src/main.cpp  ****                     blink_start(cycle_pos(g_voice_idx), now); // confirm saved voice (non-blocking)
 6560              		.loc 6 521 30 view .LVU2147
 6561              	.LBE695:
 6562              	.LBE700:
 6563              	.LBE720:
 6564              	.LBE752:
 6565              	.LBE776:
 6566              	.LBE1272:
 6567              	.LBB1273:
 6568              	.LBB1156:
 6569              	.LBB1148:
 6570              	.LBB1091:
 6571 1b16 F7EE085A 		vmov.f32	s11, #1.5e+0
 6572 1b1a FEF7C8BE 		b	.L227
 6573              	.LVL553:
 6574              	.L487:
 521:src/main.cpp  ****                     blink_start(cycle_pos(g_voice_idx), now); // confirm saved voice (non-blocking)
 6575              		.loc 6 521 30 view .LVU2148
 6576              	.LBE1091:
 6577              	.LBE1148:
 6578              	.LBE1156:
 6579              	.LBE1273:
 653:src/main.cpp  **** 
 6580              		.loc 6 653 66 view .LVU2149
 6581 1b1e 574B     		ldr	r3, .L570+48
 6582 1b20 1D68     		ldr	r5, [r3]
 6583              	.LVL554:
 653:src/main.cpp  **** 
 6584              		.loc 6 653 80 view .LVU2150
 6585 1b22 574B     		ldr	r3, .L570+52
 6586 1b24 05EB4505 		add	r5, r5, r5, lsl #1
 6587 1b28 03EB8515 		add	r5, r3, r5, lsl #6
 6588              	.LVL555:
 655:src/main.cpp  ****         {
 6589              		.loc 6 655 9 is_stmt 1 view .LVU2151
 6590 1b2c FEF777BE 		b	.L167
 6591              	.LVL556:
 6592              	.L195:
 6593              	.LBB1274:
 6594              	.LBB1077:
 6595              	.LBB1068:
 6596              	.LBB1050:
 798:src/main.cpp  ****                 float prs_mult = 0.75f + 0.25f * pr01;
 6597              		.loc 6 798 17 view .LVU2152
 798:src/main.cpp  ****                 float prs_mult = 0.75f + 0.25f * pr01;
 6598              		.loc 6 798 41 is_stmt 0 view .LVU2153
 6599 1b30 DBED027A 		vldr.32	s15, [fp, #8]	@ int
 798:src/main.cpp  ****                 float prs_mult = 0.75f + 0.25f * pr01;
 6600              		.loc 6 798 40 view .LVU2154
 6601 1b34 9FED537A 		vldr.32	s14, .L570+56
 798:src/main.cpp  ****                 float prs_mult = 0.75f + 0.25f * pr01;
 6602              		.loc 6 798 41 view .LVU2155
ARM GAS  /tmp/claude-502/ccJ8DnOJ.s 			page 187


 6603 1b38 F8EEE77A 		vcvt.f32.s32	s15, s15
 798:src/main.cpp  ****                 float prs_mult = 0.75f + 0.25f * pr01;
 6604              		.loc 6 798 40 view .LVU2156
 6605 1b3c C7EE876A 		vdiv.f32	s13, s15, s14
 6606              	.LVL557:
 6607              	.LBB1043:
  12:src/dsp.h     ****     return v<lo?lo:v>hi?hi:v;
 6608              		.loc 8 12 21 is_stmt 1 view .LVU2157
 6609              	.LBB1038:
  13:src/dsp.h     **** }
 6610              		.loc 8 13 5 view .LVU2158
  13:src/dsp.h     **** }
 6611              		.loc 8 13 16 is_stmt 0 view .LVU2159
 6612 1b40 F5EEC06A 		vcmpe.f32	s13, #0
 6613 1b44 F1EE10FA 		vmrs	APSR_nzcv, FPSCR
 6614 1b48 40F11381 		bpl	.L548
 6615              	.LBE1038:
 6616              	.LBE1043:
 800:src/main.cpp  ****                 float l3_raw   = 2.0f * p01 - 1.0f;                 if(l3_raw < 0) l3_raw = 0;
 6617              		.loc 6 800 23 view .LVU2160
 6618 1b4c B7EE00BA 		vmov.f32	s22, #1.0e+0
 801:src/main.cpp  ****                 float l2_raw   = 1.0f - 2.0f * fabsf(p01 - 0.5f);   if(l2_raw < 0) l2_raw = 0;
 6619              		.loc 6 801 91 view .LVU2161
 6620 1b50 9FED44CA 		vldr.32	s24, .L570+24
 6621              	.LVL558:
 6622              	.L276:
 802:src/main.cpp  ****                 led1_target    = sqrtf(sqrtf(l2_raw)) * prs_mult;  // middle tent
 6623              		.loc 6 802 17 is_stmt 1 view .LVU2162
 802:src/main.cpp  ****                 led1_target    = sqrtf(sqrtf(l2_raw)) * prs_mult;  // middle tent
 6624              		.loc 6 802 69 view .LVU2163
 802:src/main.cpp  ****                 led1_target    = sqrtf(sqrtf(l2_raw)) * prs_mult;  // middle tent
 6625              		.loc 6 802 91 is_stmt 0 view .LVU2164
 6626 1b54 F6EE08BA 		vmov.f32	s23, #7.5e-1
 6627 1b58 9FED427A 		vldr.32	s14, .L570+24
 6628 1b5c FFF7ECBB 		b	.L206
 6629              	.LVL559:
 6630              	.L545:
 802:src/main.cpp  ****                 led1_target    = sqrtf(sqrtf(l2_raw)) * prs_mult;  // middle tent
 6631              		.loc 6 802 91 view .LVU2165
 6632              	.LBE1050:
 6633              	.LBE1068:
 6634              	.LBE1077:
 6635              	.LBE1274:
 6636              	.LBB1275:
 6637              	.LBB895:
 6638              	.LBB891:
 6639              	.LBB887:
 6640              	.LBB883:
 6641              	.LBB879:
 412:src/main.cpp  ****         float cutoff = clampf(tf * V.cutoff_mult * om, 20.0f, 18000.0f);
 6642              		.loc 6 412 39 view .LVU2166
 6643 1b60 8CEE8D0A 		vdiv.f32	s0, s25, s26
 6644 1b64 FFF7FEFF 		bl	powf
 6645              	.LVL560:
 411:src/main.cpp  ****                    : V.freq_low * powf(freq / V.freq_low, V.keytrack);
 6646              		.loc 6 411 43 view .LVU2167
 6647 1b68 6DEE00AA 		vmul.f32	s21, s26, s0
ARM GAS  /tmp/claude-502/ccJ8DnOJ.s 			page 188


 6648              	.LVL561:
 411:src/main.cpp  ****                    : V.freq_low * powf(freq / V.freq_low, V.keytrack);
 6649              		.loc 6 411 43 view .LVU2168
 6650 1b6c D2E5     		b	.L162
 6651              	.LVL562:
 6652              	.L299:
 411:src/main.cpp  ****                    : V.freq_low * powf(freq / V.freq_low, V.keytrack);
 6653              		.loc 6 411 43 view .LVU2169
 6654              	.LBE879:
 6655              	.LBE883:
 6656              	.LBE887:
 6657              	.LBE891:
 6658              	.LBE895:
 6659              	.LBE1275:
 6660              	.LBB1276:
 6661              	.LBB777:
 6662 1b6e 0997     		str	r7, [sp, #36]
 6663              	.LVL563:
 411:src/main.cpp  ****                    : V.freq_low * powf(freq / V.freq_low, V.keytrack);
 6664              		.loc 6 411 43 view .LVU2170
 6665 1b70 0D96     		str	r6, [sp, #52]
 6666 1b72 FFF7E5B9 		b	.L72
 6667              	.LVL564:
 6668              	.L104:
 6669              	.LBB753:
 6670              	.LBB721:
 6671              	.LBB701:
 547:src/main.cpp  ****                             preview_drum(1, MULTI_ZONES[1]);            // delayed snare
 6672              		.loc 6 547 25 is_stmt 1 view .LVU2171
 6673 1b76 1B9B     		ldr	r3, [sp, #108]
 6674 1b78 002B     		cmp	r3, #0
 6675 1b7a 40D0     		beq	.L106
 547:src/main.cpp  ****                             preview_drum(1, MULTI_ZONES[1]);            // delayed snare
 6676              		.loc 6 547 54 is_stmt 0 discriminator 1 view .LVU2172
 6677 1b7c F31A     		subs	r3, r6, r3
 547:src/main.cpp  ****                             preview_drum(1, MULTI_ZONES[1]);            // delayed snare
 6678              		.loc 6 547 37 discriminator 1 view .LVU2173
 6679 1b7e 002B     		cmp	r3, #0
 6680 1b80 3DDB     		blt	.L106
 548:src/main.cpp  ****                             drum2_at = 0;
 6681              		.loc 6 548 29 is_stmt 1 view .LVU2174
 6682              	.LVL565:
 6683              	.LBB580:
 6684              	.LBI580:
 421:src/main.cpp  ****         const Voice& V = g_bank[bankidx];
 6685              		.loc 6 421 25 view .LVU2175
 6686              	.LBB581:
 6687              	.LBB582:
 422:src/main.cpp  ****         float freq   = V.freq_low;
 6688              		.loc 6 422 9 view .LVU2176
 423:src/main.cpp  ****         // Bright enough that the noisy drums (snare/hat) crack through; the
 6689              		.loc 6 423 9 view .LVU2177
 423:src/main.cpp  ****         // Bright enough that the noisy drums (snare/hat) crack through; the
 6690              		.loc 6 423 15 is_stmt 0 view .LVU2178
 6691 1b82 414B     		ldr	r3, .L570+60
 426:src/main.cpp  ****         float drive  = 1.0f + 0.6f * V.drive_max;
 6692              		.loc 6 426 30 view .LVU2179
ARM GAS  /tmp/claude-502/ccJ8DnOJ.s 			page 189


 6693 1b84 B0EE087A 		vmov.f32	s14, #3.0e+0
 6694              	.LBB583:
 6695              	.LBB584:
  13:src/dsp.h     **** }
 6696              		.loc 8 13 16 view .LVU2180
 6697 1b88 DFED407A 		vldr.32	s15, .L570+64
 6698              	.LBE584:
 6699              	.LBE583:
 423:src/main.cpp  ****         // Bright enough that the noisy drums (snare/hat) crack through; the
 6700              		.loc 6 423 15 view .LVU2181
 6701 1b8c D3ED00AA 		vldr.32	s21, [r3]
 6702              	.LVL566:
 426:src/main.cpp  ****         float drive  = 1.0f + 0.6f * V.drive_max;
 6703              		.loc 6 426 9 is_stmt 1 view .LVU2182
 426:src/main.cpp  ****         float drive  = 1.0f + 0.6f * V.drive_max;
 6704              		.loc 6 426 36 is_stmt 0 view .LVU2183
 6705 1b90 93ED0F8A 		vldr.32	s16, [r3, #60]
 6706 1b94 2AEE888A 		vmul.f32	s16, s21, s16
 426:src/main.cpp  ****         float drive  = 1.0f + 0.6f * V.drive_max;
 6707              		.loc 6 426 30 view .LVU2184
 6708 1b98 28EE078A 		vmul.f32	s16, s16, s14
 6709              	.LVL567:
 6710              	.LBB587:
 6711              	.LBI583:
  12:src/dsp.h     ****     return v<lo?lo:v>hi?hi:v;
 6712              		.loc 8 12 21 is_stmt 1 view .LVU2185
 6713              	.LBB585:
  13:src/dsp.h     **** }
 6714              		.loc 8 13 5 view .LVU2186
  13:src/dsp.h     **** }
 6715              		.loc 8 13 16 is_stmt 0 view .LVU2187
 6716 1b9c B4EEE78A 		vcmpe.f32	s16, s15
 6717 1ba0 F1EE10FA 		vmrs	APSR_nzcv, FPSCR
 6718 1ba4 00F1D082 		bmi	.L306
  13:src/dsp.h     **** }
 6719              		.loc 8 13 24 view .LVU2188
 6720 1ba8 DFED397A 		vldr.32	s15, .L570+68
 6721 1bac B4EE678A 		vcmp.f32	s16, s15
 6722 1bb0 F1EE10FA 		vmrs	APSR_nzcv, FPSCR
 6723 1bb4 37FE888A 		vselgt.f32	s16, s15, s16
 6724              	.LVL568:
 6725              	.L107:
  13:src/dsp.h     **** }
 6726              		.loc 8 13 24 view .LVU2189
 6727              	.LBE585:
 6728              	.LBE587:
 427:src/main.cpp  ****         drum_trigger(g_hits[slot], bankidx, freq, 0.85f, cutoff, drive, hw.AudioSampleRate());
 6729              		.loc 6 427 9 is_stmt 1 view .LVU2190
 427:src/main.cpp  ****         drum_trigger(g_hits[slot], bankidx, freq, 0.85f, cutoff, drive, hw.AudioSampleRate());
 6730              		.loc 6 427 15 is_stmt 0 view .LVU2191
 6731 1bb8 364B     		ldr	r3, .L570+72
 6732 1bba F7EE001A 		vmov.f32	s3, #1.0e+0
 6733 1bbe DFED367A 		vldr.32	s15, .L570+76
 6734 1bc2 93ED007A 		vldr.32	s14, [r3]
 428:src/main.cpp  ****         // ONE-SHOT: jump to full amp and immediately ungate so the hit decays on
 6735              		.loc 6 428 21 view .LVU2192
 6736 1bc6 3548     		ldr	r0, .L570+80
ARM GAS  /tmp/claude-502/ccJ8DnOJ.s 			page 190


 6737              	.LVL569:
 427:src/main.cpp  ****         drum_trigger(g_hits[slot], bankidx, freq, 0.85f, cutoff, drive, hw.AudioSampleRate());
 6738              		.loc 6 427 15 view .LVU2193
 6739 1bc8 E7EE271A 		vfma.f32	s3, s14, s15
 6740 1bcc CDED041A 		vstr.32	s3, [sp, #16]	@ int
 6741              	.LVL570:
 428:src/main.cpp  ****         // ONE-SHOT: jump to full amp and immediately ungate so the hit decays on
 6742              		.loc 6 428 9 is_stmt 1 view .LVU2194
 428:src/main.cpp  ****         // ONE-SHOT: jump to full amp and immediately ungate so the hit decays on
 6743              		.loc 6 428 21 is_stmt 0 view .LVU2195
 6744 1bd0 FFF7FEFF 		bl	_ZN5daisy9DaisySeed15AudioSampleRateEv
 6745              	.LVL571:
 6746 1bd4 B0EE481A 		vmov.f32	s2, s16
 6747 1bd8 DDED041A 		vldr.32	s3, [sp, #16]	@ int
 6748 1bdc B0EE402A 		vmov.f32	s4, s0
 6749 1be0 DFED1E0A 		vldr.32	s1, .L570+16
 6750 1be4 B0EE6A0A 		vmov.f32	s0, s21
 6751 1be8 0A21     		movs	r1, #10
 6752 1bea 2D48     		ldr	r0, .L570+84
 6753 1bec FFF7FEFF 		bl	_Z12drum_triggerR7DrumHitifffff
 6754              	.LVL572:
 433:src/main.cpp  ****         g_hits[slot].gate = false;
 6755              		.loc 6 433 9 is_stmt 1 view .LVU2196
 434:src/main.cpp  ****     };
 6756              		.loc 6 434 27 is_stmt 0 view .LVU2197
 6757 1bf0 0023     		movs	r3, #0
 6758 1bf2 2C4A     		ldr	r2, .L570+88
 6759              	.LBE582:
 6760              	.LBE581:
 6761              	.LBE580:
 549:src/main.cpp  ****                         }
 6762              		.loc 6 549 38 view .LVU2198
 6763 1bf4 1B93     		str	r3, [sp, #108]
 6764              	.LVL573:
 6765              	.LBB593:
 6766              	.LBB591:
 6767              	.LBB589:
 434:src/main.cpp  ****     };
 6768              		.loc 6 434 27 view .LVU2199
 6769 1bf6 82F85530 		strb	r3, [r2, #85]
 433:src/main.cpp  ****         g_hits[slot].gate = false;
 6770              		.loc 6 433 27 view .LVU2200
 6771 1bfa 136E     		ldr	r3, [r2, #96]	@ float
 6772 1bfc D367     		str	r3, [r2, #124]	@ float
 434:src/main.cpp  ****     };
 6773              		.loc 6 434 9 is_stmt 1 view .LVU2201
 6774              	.LVL574:
 6775              	.L106:
 434:src/main.cpp  ****     };
 6776              		.loc 6 434 9 is_stmt 0 view .LVU2202
 6777              	.LBE589:
 6778              	.LBE591:
 6779              	.LBE593:
 551:src/main.cpp  ****                         blink_tick(now); System::Delay(CONTROL_DELAY_MS); continue;
 6780              		.loc 6 551 25 is_stmt 1 view .LVU2203
 552:src/main.cpp  ****                     }
 6781              		.loc 6 552 25 view .LVU2204
ARM GAS  /tmp/claude-502/ccJ8DnOJ.s 			page 191


 6782              	.LBB594:
 6783              	.LBI594:
 362:src/main.cpp  ****         if(blink_left == 0 && !blink_on) return;
 6784              		.loc 6 362 23 view .LVU2205
 6785              	.LBB595:
 363:src/main.cpp  ****         if((int32_t)(now - blink_t) < 0)  return;
 6786              		.loc 6 363 9 view .LVU2206
 6787 1bfe 0A9B     		ldr	r3, [sp, #40]
 6788 1c00 002B     		cmp	r3, #0
 6789 1c02 40F07F82 		bne	.L108
 363:src/main.cpp  ****         if((int32_t)(now - blink_t) < 0)  return;
 6790              		.loc 6 363 28 is_stmt 0 view .LVU2207
 6791 1c06 0B9B     		ldr	r3, [sp, #44]
 6792 1c08 C3B1     		cbz	r3, .L110
 364:src/main.cpp  ****         if(blink_on){ leds_write(false); blink_on = false; blink_left--; blink_t = now + 140; }
 6793              		.loc 6 364 9 is_stmt 1 view .LVU2208
 364:src/main.cpp  ****         if(blink_on){ leds_write(false); blink_on = false; blink_left--; blink_t = now + 140; }
 6794              		.loc 6 364 26 is_stmt 0 view .LVU2209
 6795 1c0a 109B     		ldr	r3, [sp, #64]
 6796 1c0c F31A     		subs	r3, r6, r3
 364:src/main.cpp  ****         if(blink_on){ leds_write(false); blink_on = false; blink_left--; blink_t = now + 140; }
 6797              		.loc 6 364 9 view .LVU2210
 6798 1c0e 002B     		cmp	r3, #0
 6799 1c10 14DB     		blt	.L110
 6800              	.L292:
 365:src/main.cpp  ****         else if(blink_left > 0){ leds_write(true); blink_on = true; blink_t = now + 110; }
 6801              		.loc 6 365 23 is_stmt 1 view .LVU2211
 6802              	.LVL575:
 6803              	.LBB596:
 6804              	.LBI596:
 352:src/main.cpp  ****         hw.dac.WriteValue(DacHandle::Channel::ONE, on ? (uint16_t)LED1_MAX : 0);
 6805              		.loc 6 352 23 view .LVU2212
 6806              	.LBB597:
 353:src/main.cpp  ****         hw.dac.WriteValue(DacHandle::Channel::TWO, on ? (uint16_t)LED2_MAX : 0);
 6807              		.loc 6 353 9 view .LVU2213
 6808              	.LBE597:
 6809              	.LBE596:
 365:src/main.cpp  ****         else if(blink_left > 0){ leds_write(true); blink_on = true; blink_t = now + 110; }
 6810              		.loc 6 365 70 is_stmt 0 view .LVU2214
 6811 1c12 0A9B     		ldr	r3, [sp, #40]
 6812              	.LBB601:
 6813              	.LBB598:
 353:src/main.cpp  ****         hw.dac.WriteValue(DacHandle::Channel::TWO, on ? (uint16_t)LED2_MAX : 0);
 6814              		.loc 6 353 26 view .LVU2215
 6815 1c14 0022     		movs	r2, #0
 6816 1c16 1748     		ldr	r0, .L570+40
 6817              	.LBE598:
 6818              	.LBE601:
 365:src/main.cpp  ****         else if(blink_left > 0){ leds_write(true); blink_on = true; blink_t = now + 110; }
 6819              		.loc 6 365 70 view .LVU2216
 6820 1c18 013B     		subs	r3, r3, #1
 6821              	.LBB602:
 6822              	.LBB599:
 353:src/main.cpp  ****         hw.dac.WriteValue(DacHandle::Channel::TWO, on ? (uint16_t)LED2_MAX : 0);
 6823              		.loc 6 353 26 view .LVU2217
 6824 1c1a 1146     		mov	r1, r2
 6825              	.LBE599:
ARM GAS  /tmp/claude-502/ccJ8DnOJ.s 			page 192


 6826              	.LBE602:
 365:src/main.cpp  ****         else if(blink_left > 0){ leds_write(true); blink_on = true; blink_t = now + 110; }
 6827              		.loc 6 365 70 view .LVU2218
 6828 1c1c 0A93     		str	r3, [sp, #40]
 6829              	.LVL576:
 365:src/main.cpp  ****         else if(blink_left > 0){ leds_write(true); blink_on = true; blink_t = now + 110; }
 6830              		.loc 6 365 88 view .LVU2219
 6831 1c1e 06F18C03 		add	r3, r6, #140
 6832 1c22 1093     		str	r3, [sp, #64]
 6833              	.LVL577:
 6834              	.LBB603:
 6835              	.LBB600:
 353:src/main.cpp  ****         hw.dac.WriteValue(DacHandle::Channel::TWO, on ? (uint16_t)LED2_MAX : 0);
 6836              		.loc 6 353 26 view .LVU2220
 6837 1c24 FFF7FEFF 		bl	_ZN5daisy9DacHandle10WriteValueENS0_7ChannelEt
 6838              	.LVL578:
 354:src/main.cpp  ****         g_led3_duty = on ? LED3_INTENSITY : 0.0f;
 6839              		.loc 6 354 9 is_stmt 1 view .LVU2221
 354:src/main.cpp  ****         g_led3_duty = on ? LED3_INTENSITY : 0.0f;
 6840              		.loc 6 354 26 is_stmt 0 view .LVU2222
 6841 1c28 0022     		movs	r2, #0
 6842 1c2a 0121     		movs	r1, #1
 6843 1c2c 1148     		ldr	r0, .L570+40
 6844 1c2e FFF7FEFF 		bl	_ZN5daisy9DacHandle10WriteValueENS0_7ChannelEt
 6845              	.LVL579:
 355:src/main.cpp  ****     };
 6846              		.loc 6 355 9 is_stmt 1 view .LVU2223
 355:src/main.cpp  ****     };
 6847              		.loc 6 355 21 is_stmt 0 view .LVU2224
 6848 1c32 0023     		movs	r3, #0
 6849 1c34 169A     		ldr	r2, [sp, #88]
 6850 1c36 1360     		str	r3, [r2]	@ float
 6851              	.LVL580:
 355:src/main.cpp  ****     };
 6852              		.loc 6 355 21 view .LVU2225
 6853              	.LBE600:
 6854              	.LBE603:
 365:src/main.cpp  ****         else if(blink_left > 0){ leds_write(true); blink_on = true; blink_t = now + 110; }
 6855              		.loc 6 365 42 is_stmt 1 view .LVU2226
 365:src/main.cpp  ****         else if(blink_left > 0){ leds_write(true); blink_on = true; blink_t = now + 110; }
 6856              		.loc 6 365 60 view .LVU2227
 365:src/main.cpp  ****         else if(blink_left > 0){ leds_write(true); blink_on = true; blink_t = now + 110; }
 6857              		.loc 6 365 74 view .LVU2228
 365:src/main.cpp  ****         else if(blink_left > 0){ leds_write(true); blink_on = true; blink_t = now + 110; }
 6858              		.loc 6 365 51 is_stmt 0 view .LVU2229
 6859 1c38 0023     		movs	r3, #0
 6860 1c3a 0B93     		str	r3, [sp, #44]
 6861              	.LVL581:
 6862              	.L110:
 365:src/main.cpp  ****         else if(blink_left > 0){ leds_write(true); blink_on = true; blink_t = now + 110; }
 6863              		.loc 6 365 51 view .LVU2230
 6864              	.LBE595:
 6865              	.LBE594:
 552:src/main.cpp  ****                     }
 6866              		.loc 6 552 42 is_stmt 1 view .LVU2231
 552:src/main.cpp  ****                     }
 6867              		.loc 6 552 55 is_stmt 0 view .LVU2232
ARM GAS  /tmp/claude-502/ccJ8DnOJ.s 			page 193


 6868 1c3c 0320     		movs	r0, #3
 6869              	.LBE701:
 6870              	.LBE721:
 507:src/main.cpp  ****                 g_master_vol = 0.85f;                        // monitor level (the FSR mutes)
 6871              		.loc 6 507 49 view .LVU2233
 6872 1c3e 0D96     		str	r6, [sp, #52]
 6873              	.LBB722:
 6874              	.LBB702:
 552:src/main.cpp  ****                     }
 6875              		.loc 6 552 75 view .LVU2234
 6876 1c40 0997     		str	r7, [sp, #36]
 552:src/main.cpp  ****                     }
 6877              		.loc 6 552 55 view .LVU2235
 6878 1c42 FFF7FEFF 		bl	_ZN5daisy6System5DelayEm
 6879              	.LVL582:
 552:src/main.cpp  ****                     }
 6880              		.loc 6 552 75 is_stmt 1 view .LVU2236
 6881              	.LBE702:
 6882              	.LBE722:
 507:src/main.cpp  ****                 g_master_vol = 0.85f;                        // monitor level (the FSR mutes)
 6883              		.loc 6 507 28 is_stmt 0 view .LVU2237
 6884 1c46 1196     		str	r6, [sp, #68]
 6885              	.LBB723:
 6886              	.LBB703:
 552:src/main.cpp  ****                     }
 6887              		.loc 6 552 75 view .LVU2238
 6888 1c48 FEF76FBB 		b	.L58
 6889              	.L571:
 6890              		.align	2
 6891              	.L570:
 6892 1c4c ABAAAA2A 		.word	715827883
 6893 1c50 ABAAAAAA 		.word	-1431655765
 6894 1c54 00000000 		.word	g_chord_ratio2
 6895 1c58 00000000 		.word	g_chord_ratio3
 6896 1c5c 9A99593F 		.word	1062836634
 6897 1c60 9A99193E 		.word	1041865114
 6898 1c64 00000000 		.word	0
 6899 1c68 00000000 		.word	g_serial_quiet
 6900 1c6c 00000000 		.word	.LANCHOR3
 6901 1c70 00000000 		.word	.LANCHOR4
 6902 1c74 20000000 		.word	.LANCHOR0+32
 6903 1c78 CDCC4C3D 		.word	1028443341
 6904 1c7c 00000000 		.word	.LANCHOR5
 6905 1c80 00000000 		.word	g_bank
 6906 1c84 0000C842 		.word	1120403456
 6907 1c88 84070000 		.word	g_bank+1924
 6908 1c8c 00007042 		.word	1114636288
 6909 1c90 00007A46 		.word	1182400512
 6910 1c94 CC070000 		.word	g_bank+1996
 6911 1c98 9A99193F 		.word	1058642330
 6912 1c9c 00000000 		.word	.LANCHOR0
 6913 1ca0 54000000 		.word	g_hits+84
 6914 1ca4 00000000 		.word	g_hits
 6915              	.LVL583:
 6916              	.L515:
 526:src/main.cpp  ****                         // glass tap (debounced rising edge) ŌåÆ advance one voice (wraps)
 6917              		.loc 6 526 21 is_stmt 1 view .LVU2239
ARM GAS  /tmp/claude-502/ccJ8DnOJ.s 			page 194


 528:src/main.cpp  ****                         g_voice_idx = cycle_next(g_voice_idx);
 6918              		.loc 6 528 25 view .LVU2240
 529:src/main.cpp  ****                         if(!g_serial_quiet)
 6919              		.loc 6 529 25 view .LVU2241
 529:src/main.cpp  ****                         if(!g_serial_quiet)
 6920              		.loc 6 529 49 is_stmt 0 view .LVU2242
 6921 1ca8 1868     		ldr	r0, [r3]
 6922              	.LVL584:
 6923              	.LBB614:
 6924              	.LBI614:
1057:src/voice.h   **** }
1058:src/voice.h   **** // Next cyclable voice index after `idx` (wraps). Falls back to idx if none.
1059:src/voice.h   **** static int cycle_next(int idx) {
 6925              		.loc 7 1059 12 is_stmt 1 view .LVU2243
 6926              	.LBB615:
1060:src/voice.h   ****   for (int step = 1; step <= NUM_VOICES; step++) {
 6927              		.loc 7 1060 3 view .LVU2244
 6928              	.LBB616:
 6929              		.loc 7 1060 27 view .LVU2245
 6930 1caa 421C     		adds	r2, r0, #1
 6931 1cac 00F11001 		add	r1, r0, #16
 6932 1cb0 8646     		mov	lr, r0
 6933              	.LVL585:
 6934              	.L96:
 6935              	.LBB617:
1061:src/voice.h   ****     int n = (idx + step) % NUM_VOICES;
 6936              		.loc 7 1061 5 view .LVU2246
 6937              	.LBE617:
1060:src/voice.h   ****   for (int step = 1; step <= NUM_VOICES; step++) {
 6938              		.loc 7 1060 3 view .LVU2247
1060:src/voice.h   ****   for (int step = 1; step <= NUM_VOICES; step++) {
 6939              		.loc 7 1060 27 view .LVU2248
 6940              	.LBB618:
 6941              		.loc 7 1061 9 is_stmt 0 view .LVU2249
 6942 1cb2 DFF874C3 		ldr	ip, .L572+108
 6943 1cb6 D317     		asrs	r3, r2, #31
 6944 1cb8 8CFB020C 		smull	r0, ip, ip, r2
1062:src/voice.h   ****     if (!VOICES[n].no_cycle)
 6945              		.loc 7 1062 20 view .LVU2250
 6946 1cbc BF48     		ldr	r0, .L572
1061:src/voice.h   ****     int n = (idx + step) % NUM_VOICES;
 6947              		.loc 7 1061 9 view .LVU2251
 6948 1cbe 9444     		add	ip, ip, r2
 6949 1cc0 C3EBEC03 		rsb	r3, r3, ip, asr #3
 6950 1cc4 C3EB0313 		rsb	r3, r3, r3, lsl #4
 6951 1cc8 D31A     		subs	r3, r2, r3
 6952              	.LVL586:
 6953              		.loc 7 1062 5 is_stmt 1 view .LVU2252
 6954              	.LBE618:
1060:src/voice.h   ****   for (int step = 1; step <= NUM_VOICES; step++) {
 6955              		.loc 7 1060 27 is_stmt 0 view .LVU2253
 6956 1cca 0132     		adds	r2, r2, #1
 6957              	.LBB619:
 6958              		.loc 7 1062 20 view .LVU2254
 6959 1ccc 03EB430C 		add	ip, r3, r3, lsl #1
 6960 1cd0 00EB8C1C 		add	ip, r0, ip, lsl #6
 6961              		.loc 7 1062 5 view .LVU2255
ARM GAS  /tmp/claude-502/ccJ8DnOJ.s 			page 195


 6962 1cd4 9CF87CC0 		ldrb	ip, [ip, #124]	@ zero_extendqisi2
 6963 1cd8 BCF1000F 		cmp	ip, #0
 6964 1cdc 00F0E980 		beq	.L302
 6965              	.LBE619:
1060:src/voice.h   ****   for (int step = 1; step <= NUM_VOICES; step++) {
 6966              		.loc 7 1060 27 view .LVU2256
 6967 1ce0 9142     		cmp	r1, r2
 6968 1ce2 E6D1     		bne	.L96
 6969 1ce4 7046     		mov	r0, lr
 6970              	.L95:
 6971              	.LVL587:
1060:src/voice.h   ****   for (int step = 1; step <= NUM_VOICES; step++) {
 6972              		.loc 7 1060 27 view .LVU2257
 6973              	.LBE616:
 6974              	.LBE615:
 6975              	.LBE614:
 529:src/main.cpp  ****                         if(!g_serial_quiet)
 6976              		.loc 6 529 37 view .LVU2258
 6977 1ce6 B64B     		ldr	r3, .L572+4
 6978 1ce8 1860     		str	r0, [r3]
 530:src/main.cpp  ****                           usb_log("[voice %d/%d] %s",
 6979              		.loc 6 530 25 is_stmt 1 view .LVU2259
 530:src/main.cpp  ****                           usb_log("[voice %d/%d] %s",
 6980              		.loc 6 530 29 is_stmt 0 view .LVU2260
 6981 1cea B64B     		ldr	r3, .L572+8
 6982 1cec 1B78     		ldrb	r3, [r3]	@ zero_extendqisi2
 530:src/main.cpp  ****                           usb_log("[voice %d/%d] %s",
 6983              		.loc 6 530 25 view .LVU2261
 6984 1cee 03F0FF01 		and	r1, r3, #255
 6985 1cf2 002B     		cmp	r3, #0
 6986 1cf4 00F0DB81 		beq	.L549
 6987              	.L97:
 533:src/main.cpp  ****                     }
 6988              		.loc 6 533 25 is_stmt 1 view .LVU2262
 6989              	.LVL588:
 6990              	.LBB623:
 6991              	.LBI623:
 357:src/main.cpp  ****         blink_left = n;
 6992              		.loc 6 357 24 view .LVU2263
 6993              	.LBB624:
 358:src/main.cpp  ****         if(n > 0){ leds_write(true); blink_on = true; blink_t = now + 110; }
 6994              		.loc 6 358 9 view .LVU2264
 359:src/main.cpp  ****         else     { leds_write(false); blink_on = false; }
 6995              		.loc 6 359 9 view .LVU2265
 359:src/main.cpp  ****         else     { leds_write(false); blink_on = false; }
 6996              		.loc 6 359 20 view .LVU2266
 6997              	.LBB625:
 6998              	.LBI625:
 352:src/main.cpp  ****         hw.dac.WriteValue(DacHandle::Channel::ONE, on ? (uint16_t)LED1_MAX : 0);
 6999              		.loc 6 352 23 view .LVU2267
 7000              	.LBB626:
 353:src/main.cpp  ****         hw.dac.WriteValue(DacHandle::Channel::TWO, on ? (uint16_t)LED2_MAX : 0);
 7001              		.loc 6 353 9 view .LVU2268
 353:src/main.cpp  ****         hw.dac.WriteValue(DacHandle::Channel::TWO, on ? (uint16_t)LED2_MAX : 0);
 7002              		.loc 6 353 26 is_stmt 0 view .LVU2269
 7003 1cf8 40F6FF72 		movw	r2, #4095
 7004 1cfc 0021     		movs	r1, #0
ARM GAS  /tmp/claude-502/ccJ8DnOJ.s 			page 196


 7005 1cfe B248     		ldr	r0, .L572+12
 7006 1d00 FFF7FEFF 		bl	_ZN5daisy9DacHandle10WriteValueENS0_7ChannelEt
 7007              	.LVL589:
 354:src/main.cpp  ****         g_led3_duty = on ? LED3_INTENSITY : 0.0f;
 7008              		.loc 6 354 9 is_stmt 1 view .LVU2270
 354:src/main.cpp  ****         g_led3_duty = on ? LED3_INTENSITY : 0.0f;
 7009              		.loc 6 354 26 is_stmt 0 view .LVU2271
 7010 1d04 40F6FF72 		movw	r2, #4095
 7011 1d08 0121     		movs	r1, #1
 7012 1d0a AF48     		ldr	r0, .L572+12
 7013 1d0c FFF7FEFF 		bl	_ZN5daisy9DacHandle10WriteValueENS0_7ChannelEt
 7014              	.LVL590:
 355:src/main.cpp  ****     };
 7015              		.loc 6 355 9 is_stmt 1 view .LVU2272
 355:src/main.cpp  ****     };
 7016              		.loc 6 355 21 is_stmt 0 view .LVU2273
 7017 1d10 AE4B     		ldr	r3, .L572+16
 7018 1d12 169A     		ldr	r2, [sp, #88]
 7019 1d14 1360     		str	r3, [r2]	@ float
 7020              	.LVL591:
 355:src/main.cpp  ****     };
 7021              		.loc 6 355 21 view .LVU2274
 7022              	.LBE626:
 7023              	.LBE625:
 359:src/main.cpp  ****         else     { leds_write(false); blink_on = false; }
 7024              		.loc 6 359 38 is_stmt 1 view .LVU2275
 359:src/main.cpp  ****         else     { leds_write(false); blink_on = false; }
 7025              		.loc 6 359 55 view .LVU2276
 359:src/main.cpp  ****         else     { leds_write(false); blink_on = false; }
 7026              		.loc 6 359 69 is_stmt 0 view .LVU2277
 7027 1d16 06F16E02 		add	r2, r6, #110
 7028              	.LBE624:
 7029              	.LBE623:
 540:src/main.cpp  ****                         // Drums kit: a tap fires a kick + snare "one-two" (one-shots).
 7030              		.loc 6 540 36 view .LVU2278
 7031 1d1a A94B     		ldr	r3, .L572+4
 7032              	.LBB632:
 7033              	.LBB627:
 359:src/main.cpp  ****         else     { leds_write(false); blink_on = false; }
 7034              		.loc 6 359 69 view .LVU2279
 7035 1d1c 1092     		str	r2, [sp, #64]
 7036              	.LVL592:
 359:src/main.cpp  ****         else     { leds_write(false); blink_on = false; }
 7037              		.loc 6 359 69 view .LVU2280
 7038              	.LBE627:
 7039              	.LBE632:
 535:src/main.cpp  ****                         g_finger_on = false; g_amp_target = 0.0f;   // silent cycling
 7040              		.loc 6 535 21 is_stmt 1 view .LVU2281
 540:src/main.cpp  ****                         // Drums kit: a tap fires a kick + snare "one-two" (one-shots).
 7041              		.loc 6 540 21 view .LVU2282
 540:src/main.cpp  ****                         // Drums kit: a tap fires a kick + snare "one-two" (one-shots).
 7042              		.loc 6 540 36 is_stmt 0 view .LVU2283
 7043 1d1e 1B68     		ldr	r3, [r3]
 540:src/main.cpp  ****                         // Drums kit: a tap fires a kick + snare "one-two" (one-shots).
 7044              		.loc 6 540 21 view .LVU2284
 7045 1d20 0E2B     		cmp	r3, #14
 7046 1d22 65D0     		beq	.L103
ARM GAS  /tmp/claude-502/ccJ8DnOJ.s 			page 197


 7047              	.LBB633:
 7048              	.LBB628:
 359:src/main.cpp  ****         else     { leds_write(false); blink_on = false; }
 7049              		.loc 6 359 47 view .LVU2285
 7050 1d24 099B     		ldr	r3, [sp, #36]
 7051              	.LBE628:
 7052              	.LBE633:
 528:src/main.cpp  ****                         g_voice_idx = cycle_next(g_voice_idx);
 7053              		.loc 6 528 37 view .LVU2286
 7054 1d26 1A96     		str	r6, [sp, #104]
 7055              	.LBB634:
 7056              	.LBB629:
 359:src/main.cpp  ****         else     { leds_write(false); blink_on = false; }
 7057              		.loc 6 359 47 view .LVU2287
 7058 1d28 0B93     		str	r3, [sp, #44]
 358:src/main.cpp  ****         if(n > 0){ leds_write(true); blink_on = true; blink_t = now + 110; }
 7059              		.loc 6 358 20 view .LVU2288
 7060 1d2a 0123     		movs	r3, #1
 7061 1d2c 0A93     		str	r3, [sp, #40]
 7062 1d2e FEF7A4BB 		b	.L92
 7063              	.LVL593:
 7064              	.L315:
 358:src/main.cpp  ****         if(n > 0){ leds_write(true); blink_on = true; blink_t = now + 110; }
 7065              		.loc 6 358 20 view .LVU2289
 7066              	.LBE629:
 7067              	.LBE634:
 7068              	.LBE703:
 7069              	.LBE723:
 7070              	.LBE753:
 7071              	.LBE777:
 7072              	.LBE1276:
 7073              	.LBB1277:
 7074              	.LBB896:
 7075              	.LBB892:
 7076              	.LBB888:
 7077              	.LBB884:
 7078              	.LBB880:
 7079              	.LBB875:
 7080              	.LBB837:
 7081 1d32 F0EE00CA 		vmov.f32	s25, #2.0e+0
 7082 1d36 0B26     		movs	r6, #11
 7083 1d38 8BE4     		b	.L160
 7084              	.LVL594:
 7085              	.L263:
 358:src/main.cpp  ****         if(n > 0){ leds_write(true); blink_on = true; blink_t = now + 110; }
 7086              		.loc 6 358 20 view .LVU2290
 7087              	.LBE837:
 7088              	.LBE875:
 7089              	.LBE880:
 7090              	.LBE884:
 7091              	.LBE888:
 7092              	.LBE892:
 7093              	.LBE896:
 7094              	.LBE1277:
 7095              	.LBB1278:
 908:src/main.cpp  ****             }
 7096              		.loc 6 908 17 is_stmt 1 view .LVU2291
ARM GAS  /tmp/claude-502/ccJ8DnOJ.s 			page 198


 908:src/main.cpp  ****             }
 7097              		.loc 6 908 24 is_stmt 0 view .LVU2292
 7098 1d3a 3146     		mov	r1, r6
 7099 1d3c A448     		ldr	r0, .L572+20
 7100 1d3e FFF7FEFF 		bl	usb_log
 7101              	.LVL595:
 902:src/main.cpp  ****             if(tracked[slot].alive){
 7102              		.loc 6 902 9 is_stmt 1 view .LVU2293
 902:src/main.cpp  ****             if(tracked[slot].alive){
 7103              		.loc 6 902 28 view .LVU2294
 7104 1d42 022E     		cmp	r6, #2
 7105 1d44 08F11408 		add	r8, r8, #20
 7106 1d48 3EF46DAF 		beq	.L550
 7107              	.LVL596:
 7108              	.L362:
 902:src/main.cpp  ****             if(tracked[slot].alive){
 7109              		.loc 6 902 28 is_stmt 0 view .LVU2295
 7110 1d4c 0226     		movs	r6, #2
 7111 1d4e FEF736BF 		b	.L268
 7112              	.LVL597:
 7113              	.L538:
 902:src/main.cpp  ****             if(tracked[slot].alive){
 7114              		.loc 6 902 28 view .LVU2296
 7115              	.LBE1278:
 7116              	.LBB1279:
 7117              	.LBB1078:
 7118              	.LBB1069:
 7119              	.LBB1060:
 815:src/main.cpp  ****                 s_led2 = s_led2 * LED_SMOOTH + led2_target * (1.0f - LED_SMOOTH);
 7120              		.loc 6 815 60 view .LVU2297
 7121 1d52 9FEDA06A 		vldr.32	s12, .L572+24
 814:src/main.cpp  ****                 s_led1 = s_led1 * LED_SMOOTH + led1_target * (1.0f - LED_SMOOTH);
 7122              		.loc 6 814 39 view .LVU2298
 7123 1d56 DFEDA05A 		vldr.32	s11, .L572+28
 815:src/main.cpp  ****                 s_led2 = s_led2 * LED_SMOOTH + led2_target * (1.0f - LED_SMOOTH);
 7124              		.loc 6 815 60 view .LVU2299
 7125 1d5a 2AEE867A 		vmul.f32	s14, s21, s12
 816:src/main.cpp  ****                 s_led3 = s_led3 * smooth3   + led3_target * (1.0f - smooth3);
 7126              		.loc 6 816 60 view .LVU2300
 7127 1d5e 6BEE066A 		vmul.f32	s13, s22, s12
 817:src/main.cpp  ****             }
 7128              		.loc 6 817 59 view .LVU2301
 7129 1d62 67EE867A 		vmul.f32	s15, s15, s12
 7130              	.LVL598:
 817:src/main.cpp  ****             }
 7131              		.loc 6 817 59 view .LVU2302
 7132 1d66 4FE5     		b	.L194
 7133              	.LVL599:
 7134              	.L541:
 817:src/main.cpp  ****             }
 7135              		.loc 6 817 59 view .LVU2303
 7136              	.LBE1060:
 7137              	.LBE1069:
 7138              	.LBE1078:
 7139              	.LBE1279:
 568:src/main.cpp  ****                 idle_since=System::GetNow();
 7140              		.loc 6 568 45 is_stmt 1 discriminator 1 view .LVU2304
ARM GAS  /tmp/claude-502/ccJ8DnOJ.s 			page 199


 568:src/main.cpp  ****                 idle_since=System::GetNow();
 7141              		.loc 6 568 52 is_stmt 0 discriminator 1 view .LVU2305
 7142 1d68 9C48     		ldr	r0, .L572+32
 7143 1d6a FFF7FEFF 		bl	usb_log
 7144              	.LVL600:
 7145 1d6e FFF7A4BB 		b	.L115
 7146              	.LVL601:
 7147              	.L548:
 7148              	.LBB1280:
 7149              	.LBB1079:
 7150              	.LBB1070:
 7151              	.LBB1051:
 7152              	.LBB1044:
 7153              	.LBB1039:
  13:src/dsp.h     **** }
 7154              		.loc 8 13 24 view .LVU2306
 7155 1d72 B7EE00BA 		vmov.f32	s22, #1.0e+0
 7156 1d76 F4EECB6A 		vcmpe.f32	s13, s22
 7157 1d7a F1EE10FA 		vmrs	APSR_nzcv, FPSCR
 7158 1d7e 00F36781 		bgt	.L368
 7159 1d82 BFEE00CA 		vmov.f32	s24, #-1.0e+0
 7160 1d86 9FEDA97A 		vldr.32	s14, .L572+112
 7161              	.LVL602:
 7162              	.L287:
  13:src/dsp.h     **** }
 7163              		.loc 8 13 24 view .LVU2307
 7164              	.LBE1039:
 7165              	.LBE1044:
 799:src/main.cpp  ****                 float l1_raw   = 1.0f - 2.0f * p01;                 if(l1_raw < 0) l1_raw = 0;
 7166              		.loc 6 799 23 view .LVU2308
 7167 1d8a B5EE006A 		vmov.f32	s12, #2.5e-1
 7168 1d8e F6EE087A 		vmov.f32	s15, #7.5e-1
 7169 1d92 E6EE867A 		vfma.f32	s15, s13, s12
 7170 1d96 F0EE67BA 		vmov.f32	s23, s15
 7171 1d9a FFF7B7BA 		b	.L199
 7172              	.LVL603:
 7173              	.L196:
 798:src/main.cpp  ****                 float prs_mult = 0.75f + 0.25f * pr01;
 7174              		.loc 6 798 17 is_stmt 1 view .LVU2309
 798:src/main.cpp  ****                 float prs_mult = 0.75f + 0.25f * pr01;
 7175              		.loc 6 798 41 is_stmt 0 view .LVU2310
 7176 1d9e 9BED027A 		vldr.32	s14, [fp, #8]	@ int
 798:src/main.cpp  ****                 float prs_mult = 0.75f + 0.25f * pr01;
 7177              		.loc 6 798 40 view .LVU2311
 7178 1da2 9FED8F6A 		vldr.32	s12, .L572+36
 798:src/main.cpp  ****                 float prs_mult = 0.75f + 0.25f * pr01;
 7179              		.loc 6 798 41 view .LVU2312
 7180 1da6 B8EEC77A 		vcvt.f32.s32	s14, s14
 798:src/main.cpp  ****                 float prs_mult = 0.75f + 0.25f * pr01;
 7181              		.loc 6 798 40 view .LVU2313
 7182 1daa C7EE066A 		vdiv.f32	s13, s14, s12
 7183              	.LVL604:
 7184              	.LBB1045:
  12:src/dsp.h     ****     return v<lo?lo:v>hi?hi:v;
 7185              		.loc 8 12 21 is_stmt 1 view .LVU2314
 7186              	.LBB1040:
  13:src/dsp.h     **** }
ARM GAS  /tmp/claude-502/ccJ8DnOJ.s 			page 200


 7187              		.loc 8 13 5 view .LVU2315
  13:src/dsp.h     **** }
 7188              		.loc 8 13 16 is_stmt 0 view .LVU2316
 7189 1dae F5EEC06A 		vcmpe.f32	s13, #0
 7190 1db2 F1EE10FA 		vmrs	APSR_nzcv, FPSCR
 7191 1db6 40F1F480 		bpl	.L551
 7192              	.LBE1040:
 7193              	.LBE1045:
 801:src/main.cpp  ****                 float l2_raw   = 1.0f - 2.0f * fabsf(p01 - 0.5f);   if(l2_raw < 0) l2_raw = 0;
 7194              		.loc 6 801 23 view .LVU2317
 7195 1dba B0EE67CA 		vmov.f32	s24, s15
 800:src/main.cpp  ****                 float l3_raw   = 2.0f * p01 - 1.0f;                 if(l3_raw < 0) l3_raw = 0;
 7196              		.loc 6 800 91 view .LVU2318
 7197 1dbe 9FED9BBA 		vldr.32	s22, .L572+112
 7198 1dc2 C7E6     		b	.L276
 7199              	.LVL605:
 7200              	.L89:
 800:src/main.cpp  ****                 float l3_raw   = 2.0f * p01 - 1.0f;                 if(l3_raw < 0) l3_raw = 0;
 7201              		.loc 6 800 91 view .LVU2319
 7202              	.LBE1051:
 7203              	.LBE1070:
 7204              	.LBE1079:
 7205              	.LBE1280:
 7206              	.LBB1281:
 7207              	.LBB778:
 7208              	.LBB754:
 7209              	.LBB724:
 7210              	.LBB704:
 7211              	.LBB696:
 7212              	.LBB683:
 7213              	.LBI683:
 357:src/main.cpp  ****         blink_left = n;
 7214              		.loc 6 357 24 is_stmt 1 view .LVU2320
 7215              	.LBB684:
 360:src/main.cpp  ****     };
 7216              		.loc 6 360 20 view .LVU2321
 7217              	.LBB685:
 7218              	.LBI685:
 352:src/main.cpp  ****         hw.dac.WriteValue(DacHandle::Channel::ONE, on ? (uint16_t)LED1_MAX : 0);
 7219              		.loc 6 352 23 view .LVU2322
 7220              	.LBB686:
 353:src/main.cpp  ****         hw.dac.WriteValue(DacHandle::Channel::TWO, on ? (uint16_t)LED2_MAX : 0);
 7221              		.loc 6 353 9 view .LVU2323
 353:src/main.cpp  ****         hw.dac.WriteValue(DacHandle::Channel::TWO, on ? (uint16_t)LED2_MAX : 0);
 7222              		.loc 6 353 26 is_stmt 0 view .LVU2324
 7223 1dc4 0022     		movs	r2, #0
 355:src/main.cpp  ****     };
 7224              		.loc 6 355 21 view .LVU2325
 7225 1dc6 0997     		str	r7, [sp, #36]
 7226              	.LVL606:
 353:src/main.cpp  ****         hw.dac.WriteValue(DacHandle::Channel::TWO, on ? (uint16_t)LED2_MAX : 0);
 7227              		.loc 6 353 26 view .LVU2326
 7228 1dc8 7F48     		ldr	r0, .L572+12
 7229              	.LBE686:
 7230              	.LBE685:
 360:src/main.cpp  ****     };
 7231              		.loc 6 360 48 view .LVU2327
ARM GAS  /tmp/claude-502/ccJ8DnOJ.s 			page 201


 7232 1dca 1746     		mov	r7, r2
 7233              	.LBB689:
 7234              	.LBB687:
 353:src/main.cpp  ****         hw.dac.WriteValue(DacHandle::Channel::TWO, on ? (uint16_t)LED2_MAX : 0);
 7235              		.loc 6 353 26 view .LVU2328
 7236 1dcc 1146     		mov	r1, r2
 7237              	.LBE687:
 7238              	.LBE689:
 360:src/main.cpp  ****     };
 7239              		.loc 6 360 48 view .LVU2329
 7240 1dce 0B92     		str	r2, [sp, #44]
 7241              	.LVL607:
 7242              	.LBB690:
 7243              	.LBB688:
 353:src/main.cpp  ****         hw.dac.WriteValue(DacHandle::Channel::TWO, on ? (uint16_t)LED2_MAX : 0);
 7244              		.loc 6 353 26 view .LVU2330
 7245 1dd0 FFF7FEFF 		bl	_ZN5daisy9DacHandle10WriteValueENS0_7ChannelEt
 7246              	.LVL608:
 354:src/main.cpp  ****         g_led3_duty = on ? LED3_INTENSITY : 0.0f;
 7247              		.loc 6 354 9 is_stmt 1 view .LVU2331
 354:src/main.cpp  ****         g_led3_duty = on ? LED3_INTENSITY : 0.0f;
 7248              		.loc 6 354 26 is_stmt 0 view .LVU2332
 7249 1dd4 3A46     		mov	r2, r7
 7250 1dd6 0121     		movs	r1, #1
 7251 1dd8 7B48     		ldr	r0, .L572+12
 7252 1dda FFF7FEFF 		bl	_ZN5daisy9DacHandle10WriteValueENS0_7ChannelEt
 7253              	.LVL609:
 355:src/main.cpp  ****     };
 7254              		.loc 6 355 9 is_stmt 1 view .LVU2333
 355:src/main.cpp  ****     };
 7255              		.loc 6 355 21 is_stmt 0 view .LVU2334
 7256 1dde 0023     		movs	r3, #0
 7257 1de0 169A     		ldr	r2, [sp, #88]
 7258 1de2 0A97     		str	r7, [sp, #40]
 7259 1de4 1360     		str	r3, [r2]	@ float
 7260              	.LVL610:
 355:src/main.cpp  ****     };
 7261              		.loc 6 355 21 view .LVU2335
 7262              	.LBE688:
 7263              	.LBE690:
 360:src/main.cpp  ****     };
 7264              		.loc 6 360 39 is_stmt 1 view .LVU2336
 360:src/main.cpp  ****     };
 7265              		.loc 6 360 39 is_stmt 0 view .LVU2337
 7266              	.LBE684:
 7267              	.LBE683:
 7268              	.LBE696:
 7269              	.LBE704:
 520:src/main.cpp  ****                     sel_mode = 0; full_since = 0;
 7270              		.loc 6 520 30 view .LVU2338
 7271 1de6 1B97     		str	r7, [sp, #108]
 521:src/main.cpp  ****                     blink_start(cycle_pos(g_voice_idx), now); // confirm saved voice (non-blocking)
 7272              		.loc 6 521 46 view .LVU2339
 7273 1de8 1797     		str	r7, [sp, #92]
 521:src/main.cpp  ****                     blink_start(cycle_pos(g_voice_idx), now); // confirm saved voice (non-blocking)
 7274              		.loc 6 521 30 view .LVU2340
 7275 1dea 0C97     		str	r7, [sp, #48]
ARM GAS  /tmp/claude-502/ccJ8DnOJ.s 			page 202


 7276 1dec FEF745BB 		b	.L92
 7277              	.LVL611:
 7278              	.L103:
 7279              	.LBB705:
 542:src/main.cpp  ****                             g_finger_on = false; g_amp_target = 0.0f;   // hush mono
 7280              		.loc 6 542 25 is_stmt 1 view .LVU2341
 543:src/main.cpp  ****                             preview_drum(0, MULTI_ZONES[0]);
 7281              		.loc 6 543 29 view .LVU2342
 7282              	.LBB635:
 7283              	.LBB636:
 423:src/main.cpp  ****         // Bright enough that the noisy drums (snare/hat) crack through; the
 7284              		.loc 6 423 15 is_stmt 0 view .LVU2343
 7285 1df0 7C4B     		ldr	r3, .L572+40
 426:src/main.cpp  ****         float drive  = 1.0f + 0.6f * V.drive_max;
 7286              		.loc 6 426 30 view .LVU2344
 7287 1df2 B0EE087A 		vmov.f32	s14, #3.0e+0
 7288              	.LBB637:
 7289              	.LBB638:
  13:src/dsp.h     **** }
 7290              		.loc 8 13 16 view .LVU2345
 7291 1df6 DFED7C7A 		vldr.32	s15, .L572+44
 7292              	.LBE638:
 7293              	.LBE637:
 423:src/main.cpp  ****         // Bright enough that the noisy drums (snare/hat) crack through; the
 7294              		.loc 6 423 15 view .LVU2346
 7295 1dfa D3ED00AA 		vldr.32	s21, [r3]
 426:src/main.cpp  ****         float drive  = 1.0f + 0.6f * V.drive_max;
 7296              		.loc 6 426 36 view .LVU2347
 7297 1dfe 93ED0F8A 		vldr.32	s16, [r3, #60]
 7298              	.LBE636:
 7299              	.LBE635:
 543:src/main.cpp  ****                             preview_drum(0, MULTI_ZONES[0]);
 7300              		.loc 6 543 41 view .LVU2348
 7301 1e02 0023     		movs	r3, #0
 7302 1e04 794A     		ldr	r2, .L572+48
 7303              	.LVL612:
 7304              	.LBB650:
 7305              	.LBB643:
 426:src/main.cpp  ****         float drive  = 1.0f + 0.6f * V.drive_max;
 7306              		.loc 6 426 36 view .LVU2349
 7307 1e06 2AEE888A 		vmul.f32	s16, s21, s16
 7308              	.LBE643:
 7309              	.LBE650:
 543:src/main.cpp  ****                             preview_drum(0, MULTI_ZONES[0]);
 7310              		.loc 6 543 41 view .LVU2350
 7311 1e0a 1370     		strb	r3, [r2]
 543:src/main.cpp  ****                             preview_drum(0, MULTI_ZONES[0]);
 7312              		.loc 6 543 50 is_stmt 1 view .LVU2351
 543:src/main.cpp  ****                             preview_drum(0, MULTI_ZONES[0]);
 7313              		.loc 6 543 63 is_stmt 0 view .LVU2352
 7314 1e0c 0023     		movs	r3, #0
 7315 1e0e 784A     		ldr	r2, .L572+52
 7316              	.LBB651:
 7317              	.LBB644:
 426:src/main.cpp  ****         float drive  = 1.0f + 0.6f * V.drive_max;
 7318              		.loc 6 426 30 view .LVU2353
 7319 1e10 28EE078A 		vmul.f32	s16, s16, s14
ARM GAS  /tmp/claude-502/ccJ8DnOJ.s 			page 203


 7320              	.LBE644:
 7321              	.LBE651:
 543:src/main.cpp  ****                             preview_drum(0, MULTI_ZONES[0]);
 7322              		.loc 6 543 63 view .LVU2354
 7323 1e14 1360     		str	r3, [r2]	@ float
 544:src/main.cpp  ****                             drum2_at = now + 150;
 7324              		.loc 6 544 29 is_stmt 1 view .LVU2355
 7325              	.LVL613:
 7326              	.LBB652:
 7327              	.LBI635:
 421:src/main.cpp  ****         const Voice& V = g_bank[bankidx];
 7328              		.loc 6 421 25 view .LVU2356
 7329              	.LBB645:
 422:src/main.cpp  ****         float freq   = V.freq_low;
 7330              		.loc 6 422 9 view .LVU2357
 423:src/main.cpp  ****         // Bright enough that the noisy drums (snare/hat) crack through; the
 7331              		.loc 6 423 9 view .LVU2358
 426:src/main.cpp  ****         float drive  = 1.0f + 0.6f * V.drive_max;
 7332              		.loc 6 426 9 view .LVU2359
 7333              	.LBB641:
 7334              	.LBI637:
  12:src/dsp.h     ****     return v<lo?lo:v>hi?hi:v;
 7335              		.loc 8 12 21 view .LVU2360
 7336              	.LBB639:
  13:src/dsp.h     **** }
 7337              		.loc 8 13 5 view .LVU2361
  13:src/dsp.h     **** }
 7338              		.loc 8 13 16 is_stmt 0 view .LVU2362
 7339 1e16 B4EEE78A 		vcmpe.f32	s16, s15
 7340 1e1a F1EE10FA 		vmrs	APSR_nzcv, FPSCR
 7341 1e1e 00F16E81 		bmi	.L304
  13:src/dsp.h     **** }
 7342              		.loc 8 13 24 view .LVU2363
 7343 1e22 DFED747A 		vldr.32	s15, .L572+56
 7344 1e26 B4EE678A 		vcmp.f32	s16, s15
 7345 1e2a F1EE10FA 		vmrs	APSR_nzcv, FPSCR
 7346 1e2e 37FE888A 		vselgt.f32	s16, s15, s16
 7347              	.LVL614:
 7348              	.L105:
  13:src/dsp.h     **** }
 7349              		.loc 8 13 24 view .LVU2364
 7350              	.LBE639:
 7351              	.LBE641:
 427:src/main.cpp  ****         drum_trigger(g_hits[slot], bankidx, freq, 0.85f, cutoff, drive, hw.AudioSampleRate());
 7352              		.loc 6 427 9 is_stmt 1 view .LVU2365
 427:src/main.cpp  ****         drum_trigger(g_hits[slot], bankidx, freq, 0.85f, cutoff, drive, hw.AudioSampleRate());
 7353              		.loc 6 427 15 is_stmt 0 view .LVU2366
 7354 1e32 714B     		ldr	r3, .L572+60
 7355 1e34 F7EE001A 		vmov.f32	s3, #1.0e+0
 7356 1e38 DFED707A 		vldr.32	s15, .L572+64
 7357 1e3c 93ED007A 		vldr.32	s14, [r3]
 7358              	.LBE645:
 7359              	.LBE652:
 7360              	.LBB653:
 7361              	.LBB630:
 359:src/main.cpp  ****         else     { leds_write(false); blink_on = false; }
 7362              		.loc 6 359 47 view .LVU2367
ARM GAS  /tmp/claude-502/ccJ8DnOJ.s 			page 204


 7363 1e40 099B     		ldr	r3, [sp, #36]
 7364              	.LBE630:
 7365              	.LBE653:
 7366              	.LBB654:
 7367              	.LBB646:
 427:src/main.cpp  ****         drum_trigger(g_hits[slot], bankidx, freq, 0.85f, cutoff, drive, hw.AudioSampleRate());
 7368              		.loc 6 427 15 view .LVU2368
 7369 1e42 E7EE271A 		vfma.f32	s3, s14, s15
 428:src/main.cpp  ****         // ONE-SHOT: jump to full amp and immediately ungate so the hit decays on
 7370              		.loc 6 428 21 view .LVU2369
 7371 1e46 6E48     		ldr	r0, .L572+68
 7372              	.LBE646:
 7373              	.LBE654:
 7374              	.LBB655:
 7375              	.LBB631:
 359:src/main.cpp  ****         else     { leds_write(false); blink_on = false; }
 7376              		.loc 6 359 47 view .LVU2370
 7377 1e48 0B93     		str	r3, [sp, #44]
 7378              	.LBE631:
 7379              	.LBE655:
 545:src/main.cpp  ****                         }
 7380              		.loc 6 545 38 view .LVU2371
 7381 1e4a 06F19603 		add	r3, r6, #150
 7382 1e4e 1B93     		str	r3, [sp, #108]
 7383              	.LVL615:
 7384              	.LBB656:
 7385              	.LBB647:
 427:src/main.cpp  ****         drum_trigger(g_hits[slot], bankidx, freq, 0.85f, cutoff, drive, hw.AudioSampleRate());
 7386              		.loc 6 427 15 view .LVU2372
 7387 1e50 CDED041A 		vstr.32	s3, [sp, #16]	@ int
 7388              	.LVL616:
 428:src/main.cpp  ****         // ONE-SHOT: jump to full amp and immediately ungate so the hit decays on
 7389              		.loc 6 428 9 is_stmt 1 view .LVU2373
 428:src/main.cpp  ****         // ONE-SHOT: jump to full amp and immediately ungate so the hit decays on
 7390              		.loc 6 428 21 is_stmt 0 view .LVU2374
 7391 1e54 FFF7FEFF 		bl	_ZN5daisy9DaisySeed15AudioSampleRateEv
 7392              	.LVL617:
 7393 1e58 B0EE481A 		vmov.f32	s2, s16
 7394 1e5c DDED041A 		vldr.32	s3, [sp, #16]	@ int
 7395 1e60 B0EE402A 		vmov.f32	s4, s0
 7396 1e64 DFED670A 		vldr.32	s1, .L572+72
 7397 1e68 B0EE6A0A 		vmov.f32	s0, s21
 7398 1e6c 0921     		movs	r1, #9
 7399 1e6e 6648     		ldr	r0, .L572+76
 7400 1e70 FFF7FEFF 		bl	_Z12drum_triggerR7DrumHitifffff
 7401              	.LVL618:
 433:src/main.cpp  ****         g_hits[slot].gate = false;
 7402              		.loc 6 433 9 is_stmt 1 view .LVU2375
 433:src/main.cpp  ****         g_hits[slot].gate = false;
 7403              		.loc 6 433 27 is_stmt 0 view .LVU2376
 7404 1e74 644A     		ldr	r2, .L572+76
 7405              	.LBE647:
 7406              	.LBE656:
 528:src/main.cpp  ****                         g_voice_idx = cycle_next(g_voice_idx);
 7407              		.loc 6 528 37 view .LVU2377
 7408 1e76 1A96     		str	r6, [sp, #104]
 7409              	.LBB657:
ARM GAS  /tmp/claude-502/ccJ8DnOJ.s 			page 205


 7410              	.LBB648:
 433:src/main.cpp  ****         g_hits[slot].gate = false;
 7411              		.loc 6 433 27 view .LVU2378
 7412 1e78 D368     		ldr	r3, [r2, #12]	@ float
 7413 1e7a 9362     		str	r3, [r2, #40]	@ float
 434:src/main.cpp  ****     };
 7414              		.loc 6 434 9 is_stmt 1 view .LVU2379
 434:src/main.cpp  ****     };
 7415              		.loc 6 434 27 is_stmt 0 view .LVU2380
 7416 1e7c 0023     		movs	r3, #0
 7417 1e7e 5370     		strb	r3, [r2, #1]
 7418              	.LVL619:
 434:src/main.cpp  ****     };
 7419              		.loc 6 434 27 view .LVU2381
 7420              	.LBE648:
 7421              	.LBE657:
 545:src/main.cpp  ****                         }
 7422              		.loc 6 545 29 is_stmt 1 view .LVU2382
 547:src/main.cpp  ****                             preview_drum(1, MULTI_ZONES[1]);            // delayed snare
 7423              		.loc 6 547 25 view .LVU2383
 551:src/main.cpp  ****                         blink_tick(now); System::Delay(CONTROL_DELAY_MS); continue;
 7424              		.loc 6 551 25 view .LVU2384
 552:src/main.cpp  ****                     }
 7425              		.loc 6 552 25 view .LVU2385
 7426              	.LBB658:
 362:src/main.cpp  ****         if(blink_left == 0 && !blink_on) return;
 7427              		.loc 6 362 23 view .LVU2386
 7428              	.LBB612:
 363:src/main.cpp  ****         if((int32_t)(now - blink_t) < 0)  return;
 7429              		.loc 6 363 9 view .LVU2387
 364:src/main.cpp  ****         if(blink_on){ leds_write(false); blink_on = false; blink_left--; blink_t = now + 140; }
 7430              		.loc 6 364 9 view .LVU2388
 363:src/main.cpp  ****         if((int32_t)(now - blink_t) < 0)  return;
 7431              		.loc 6 363 12 is_stmt 0 view .LVU2389
 7432 1e80 0123     		movs	r3, #1
 7433 1e82 0A93     		str	r3, [sp, #40]
 7434 1e84 DAE6     		b	.L110
 7435              	.LVL620:
 7436              	.L79:
 363:src/main.cpp  ****         if((int32_t)(now - blink_t) < 0)  return;
 7437              		.loc 6 363 12 view .LVU2390
 7438              	.LBE612:
 7439              	.LBE658:
 7440              	.LBE705:
 7441              	.LBE724:
 7442              	.LBE754:
 7443              	.LBB755:
 7444              	.LBB748:
 7445              	.LBB741:
 7446              	.LBI741:
 357:src/main.cpp  ****         blink_left = n;
 7447              		.loc 6 357 24 is_stmt 1 view .LVU2391
 7448              	.LBB742:
 360:src/main.cpp  ****     };
 7449              		.loc 6 360 20 view .LVU2392
 7450              	.LBB743:
 7451              	.LBI743:
ARM GAS  /tmp/claude-502/ccJ8DnOJ.s 			page 206


 352:src/main.cpp  ****         hw.dac.WriteValue(DacHandle::Channel::ONE, on ? (uint16_t)LED1_MAX : 0);
 7452              		.loc 6 352 23 view .LVU2393
 7453              	.LBB744:
 353:src/main.cpp  ****         hw.dac.WriteValue(DacHandle::Channel::TWO, on ? (uint16_t)LED2_MAX : 0);
 7454              		.loc 6 353 9 view .LVU2394
 353:src/main.cpp  ****         hw.dac.WriteValue(DacHandle::Channel::TWO, on ? (uint16_t)LED2_MAX : 0);
 7455              		.loc 6 353 26 is_stmt 0 view .LVU2395
 7456 1e86 0022     		movs	r2, #0
 355:src/main.cpp  ****     };
 7457              		.loc 6 355 21 view .LVU2396
 7458 1e88 0997     		str	r7, [sp, #36]
 7459              	.LVL621:
 353:src/main.cpp  ****         hw.dac.WriteValue(DacHandle::Channel::TWO, on ? (uint16_t)LED2_MAX : 0);
 7460              		.loc 6 353 26 view .LVU2397
 7461 1e8a 4F48     		ldr	r0, .L572+12
 355:src/main.cpp  ****     };
 7462              		.loc 6 355 21 view .LVU2398
 7463 1e8c 1746     		mov	r7, r2
 7464              	.LVL622:
 353:src/main.cpp  ****         hw.dac.WriteValue(DacHandle::Channel::TWO, on ? (uint16_t)LED2_MAX : 0);
 7465              		.loc 6 353 26 view .LVU2399
 7466 1e8e 1146     		mov	r1, r2
 355:src/main.cpp  ****     };
 7467              		.loc 6 355 21 view .LVU2400
 7468 1e90 0A92     		str	r2, [sp, #40]
 353:src/main.cpp  ****         hw.dac.WriteValue(DacHandle::Channel::TWO, on ? (uint16_t)LED2_MAX : 0);
 7469              		.loc 6 353 26 view .LVU2401
 7470 1e92 FFF7FEFF 		bl	_ZN5daisy9DacHandle10WriteValueENS0_7ChannelEt
 7471              	.LVL623:
 354:src/main.cpp  ****         g_led3_duty = on ? LED3_INTENSITY : 0.0f;
 7472              		.loc 6 354 9 is_stmt 1 view .LVU2402
 354:src/main.cpp  ****         g_led3_duty = on ? LED3_INTENSITY : 0.0f;
 7473              		.loc 6 354 26 is_stmt 0 view .LVU2403
 7474 1e96 3A46     		mov	r2, r7
 7475 1e98 0121     		movs	r1, #1
 7476 1e9a 4B48     		ldr	r0, .L572+12
 7477 1e9c FFF7FEFF 		bl	_ZN5daisy9DacHandle10WriteValueENS0_7ChannelEt
 7478              	.LVL624:
 355:src/main.cpp  ****     };
 7479              		.loc 6 355 9 is_stmt 1 view .LVU2404
 355:src/main.cpp  ****     };
 7480              		.loc 6 355 21 is_stmt 0 view .LVU2405
 7481 1ea0 0023     		movs	r3, #0
 7482 1ea2 169A     		ldr	r2, [sp, #88]
 7483 1ea4 0D96     		str	r6, [sp, #52]
 7484 1ea6 1360     		str	r3, [r2]	@ float
 7485              	.LVL625:
 355:src/main.cpp  ****     };
 7486              		.loc 6 355 21 view .LVU2406
 7487              	.LBE744:
 7488              	.LBE743:
 360:src/main.cpp  ****     };
 7489              		.loc 6 360 39 is_stmt 1 view .LVU2407
 360:src/main.cpp  ****     };
 7490              		.loc 6 360 39 is_stmt 0 view .LVU2408
 7491              	.LBE742:
 7492              	.LBE741:
ARM GAS  /tmp/claude-502/ccJ8DnOJ.s 			page 207


 7493              	.LBE748:
 7494              	.LBE755:
 496:src/main.cpp  ****                         g_amp_target = 0.0f;                 // silence any held note
 7495              		.loc 6 496 38 view .LVU2409
 7496 1ea8 0123     		movs	r3, #1
 7497              	.LBB756:
 7498              	.LBB749:
 7499              	.LBB746:
 7500              	.LBB745:
 360:src/main.cpp  ****     };
 7501              		.loc 6 360 48 view .LVU2410
 7502 1eaa 0B97     		str	r7, [sp, #44]
 7503              	.LBE745:
 7504              	.LBE746:
 7505              	.LBE749:
 7506              	.LBE756:
 496:src/main.cpp  ****                         g_amp_target = 0.0f;                 // silence any held note
 7507              		.loc 6 496 38 view .LVU2411
 7508 1eac 0C93     		str	r3, [sp, #48]
 7509 1eae FFF747B8 		b	.L72
 7510              	.LVL626:
 7511              	.L302:
 7512              	.LBB757:
 7513              	.LBB725:
 7514              	.LBB706:
 7515              	.LBB659:
 7516              	.LBB622:
 7517              	.LBB621:
 7518              	.LBB620:
1061:src/voice.h   ****     if (!VOICES[n].no_cycle)
 7519              		.loc 7 1061 9 view .LVU2412
 7520 1eb2 1846     		mov	r0, r3
 7521 1eb4 17E7     		b	.L95
 7522              	.LVL627:
 7523              	.L360:
1061:src/voice.h   ****     if (!VOICES[n].no_cycle)
 7524              		.loc 7 1061 9 view .LVU2413
 7525              	.LBE620:
 7526              	.LBE621:
 7527              	.LBE622:
 7528              	.LBE659:
 7529              	.LBE706:
 7530              	.LBE725:
 7531              	.LBE757:
 7532              	.LBE778:
 7533              	.LBE1281:
 7534              	.LBB1282:
 7535              	.LBB1198:
 7536              	.LBB1196:
 7537 1eb6 0021     		movs	r1, #0
 7538 1eb8 FEF794BE 		b	.L264
 7539              	.LVL628:
 7540              	.L363:
1061:src/voice.h   ****     if (!VOICES[n].no_cycle)
 7541              		.loc 7 1061 9 view .LVU2414
 7542              	.LBE1196:
 7543              	.LBE1198:
ARM GAS  /tmp/claude-502/ccJ8DnOJ.s 			page 208


 7544              	.LBE1282:
 7545              	.LBB1283:
 7546              	.LBB1205:
  86:src/main.cpp  ****     if(n>w)n=w;
 7547              		.loc 6 86 25 view .LVU2415
 7548 1ebc 0022     		movs	r2, #0
 7549 1ebe FEF7D0BE 		b	.L269
 7550              	.LVL629:
 7551              	.L547:
  86:src/main.cpp  ****     if(n>w)n=w;
 7552              		.loc 6 86 25 view .LVU2416
 7553              	.LBE1205:
 7554              	.LBE1283:
 7555              	.LBB1284:
 7556              	.LBB779:
 7557              	.LBB758:
 7558              	.LBB726:
 515:src/main.cpp  ****                                      cycle_pos(g_voice_idx), cycle_total(), g_bank[g_voice_idx].nam
 7559              		.loc 6 515 25 is_stmt 1 view .LVU2417
 515:src/main.cpp  ****                                      cycle_pos(g_voice_idx), cycle_total(), g_bank[g_voice_idx].nam
 7560              		.loc 6 515 32 is_stmt 0 view .LVU2418
 7561 1ec2 3F4B     		ldr	r3, .L572+4
 7562 1ec4 1B68     		ldr	r3, [r3]
 7563              	.LVL630:
 7564              	.LBB707:
 7565              	.LBI707:
1051:src/voice.h   ****   int p = 0;
 7566              		.loc 7 1051 12 is_stmt 1 view .LVU2419
 7567              	.LBB708:
1052:src/voice.h   ****   for (int i = 0; i <= idx && i < NUM_VOICES; i++)
 7568              		.loc 7 1052 3 view .LVU2420
1053:src/voice.h   ****     if (!VOICES[i].no_cycle)
 7569              		.loc 7 1053 3 view .LVU2421
 7570              	.LBB709:
1053:src/voice.h   ****     if (!VOICES[i].no_cycle)
 7571              		.loc 7 1053 28 view .LVU2422
 7572 1ec6 0E2B     		cmp	r3, #14
 7573 1ec8 9C46     		mov	ip, r3
 7574 1eca A8BF     		it	ge
 7575 1ecc 4FF00E0C 		movge	ip, #14
 7576 1ed0 002B     		cmp	r3, #0
 7577 1ed2 C0F27281 		blt	.L301
 7578              	.LBE709:
1052:src/voice.h   ****   for (int i = 0; i <= idx && i < NUM_VOICES; i++)
 7579              		.loc 7 1052 7 is_stmt 0 view .LVU2423
 7580 1ed6 079B     		ldr	r3, [sp, #28]
 7581              	.LVL631:
 7582              	.LBB710:
1053:src/voice.h   ****     if (!VOICES[i].no_cycle)
 7583              		.loc 7 1053 28 view .LVU2424
 7584 1ed8 384A     		ldr	r2, .L572
 7585              	.LBE710:
1052:src/voice.h   ****   for (int i = 0; i <= idx && i < NUM_VOICES; i++)
 7586              		.loc 7 1052 7 view .LVU2425
 7587 1eda 1946     		mov	r1, r3
 7588              	.LVL632:
 7589              	.L86:
ARM GAS  /tmp/claude-502/ccJ8DnOJ.s 			page 209


 7590              	.LBB711:
1054:src/voice.h   ****       p++;
 7591              		.loc 7 1054 5 is_stmt 1 view .LVU2426
1055:src/voice.h   ****   return p;
 7592              		.loc 7 1055 7 view .LVU2427
1054:src/voice.h   ****       p++;
 7593              		.loc 7 1054 5 is_stmt 0 view .LVU2428
 7594 1edc 92F87C00 		ldrb	r0, [r2, #124]	@ zero_extendqisi2
1053:src/voice.h   ****     if (!VOICES[i].no_cycle)
 7595              		.loc 7 1053 3 view .LVU2429
 7596 1ee0 0133     		adds	r3, r3, #1
 7597              	.LVL633:
1053:src/voice.h   ****     if (!VOICES[i].no_cycle)
 7598              		.loc 7 1053 28 view .LVU2430
 7599 1ee2 C032     		adds	r2, r2, #192
1054:src/voice.h   ****       p++;
 7600              		.loc 7 1054 5 view .LVU2431
 7601 1ee4 00B9     		cbnz	r0, .L85
1055:src/voice.h   ****   return p;
 7602              		.loc 7 1055 8 view .LVU2432
 7603 1ee6 0131     		adds	r1, r1, #1
 7604              	.LVL634:
 7605              	.L85:
1053:src/voice.h   ****     if (!VOICES[i].no_cycle)
 7606              		.loc 7 1053 3 is_stmt 1 view .LVU2433
1053:src/voice.h   ****     if (!VOICES[i].no_cycle)
 7607              		.loc 7 1053 28 view .LVU2434
 7608 1ee8 6345     		cmp	r3, ip
 7609 1eea F7DD     		ble	.L86
 7610              	.LVL635:
 7611              	.L84:
1053:src/voice.h   ****     if (!VOICES[i].no_cycle)
 7612              		.loc 7 1053 28 is_stmt 0 view .LVU2435
 7613              	.LBE711:
1052:src/voice.h   ****   for (int i = 0; i <= idx && i < NUM_VOICES; i++)
 7614              		.loc 7 1052 7 view .LVU2436
 7615 1eec 334B     		ldr	r3, .L572
 7616              	.LBE708:
 7617              	.LBE707:
 7618              	.LBB713:
 7619              	.LBB714:
1045:src/voice.h   ****   for (int i = 0; i < NUM_VOICES; i++)
 7620              		.loc 7 1045 7 view .LVU2437
 7621 1eee 0022     		movs	r2, #0
 7622              	.L88:
 7623              	.LVL636:
 7624              	.LBB715:
1047:src/voice.h   ****       n++;
 7625              		.loc 7 1047 5 is_stmt 1 view .LVU2438
1048:src/voice.h   ****   return n;
 7626              		.loc 7 1048 7 view .LVU2439
1047:src/voice.h   ****       n++;
 7627              		.loc 7 1047 5 is_stmt 0 view .LVU2440
 7628 1ef0 93F87C00 		ldrb	r0, [r3, #124]	@ zero_extendqisi2
1046:src/voice.h   ****     if (!VOICES[i].no_cycle)
 7629              		.loc 7 1046 21 view .LVU2441
 7630 1ef4 C033     		adds	r3, r3, #192
ARM GAS  /tmp/claude-502/ccJ8DnOJ.s 			page 210


1047:src/voice.h   ****       n++;
 7631              		.loc 7 1047 5 view .LVU2442
 7632 1ef6 00B9     		cbnz	r0, .L87
1048:src/voice.h   ****   return n;
 7633              		.loc 7 1048 8 view .LVU2443
 7634 1ef8 0132     		adds	r2, r2, #1
 7635              	.LVL637:
 7636              	.L87:
1046:src/voice.h   ****     if (!VOICES[i].no_cycle)
 7637              		.loc 7 1046 3 is_stmt 1 view .LVU2444
1046:src/voice.h   ****     if (!VOICES[i].no_cycle)
 7638              		.loc 7 1046 21 view .LVU2445
 7639 1efa 4448     		ldr	r0, .L572+80
 7640 1efc 9842     		cmp	r0, r3
 7641 1efe F7D1     		bne	.L88
1046:src/voice.h   ****     if (!VOICES[i].no_cycle)
 7642              		.loc 7 1046 21 is_stmt 0 view .LVU2446
 7643              	.LBE715:
1049:src/voice.h   **** }
 7644              		.loc 7 1049 3 is_stmt 1 view .LVU2447
 7645              	.LVL638:
1049:src/voice.h   **** }
 7646              		.loc 7 1049 3 is_stmt 0 view .LVU2448
 7647              	.LBE714:
 7648              	.LBE713:
 516:src/main.cpp  ****                         // Machine event so a connected host tuner follows the change.
 7649              		.loc 6 516 84 view .LVU2449
 7650 1f00 2F4B     		ldr	r3, .L572+4
 515:src/main.cpp  ****                                      cycle_pos(g_voice_idx), cycle_total(), g_bank[g_voice_idx].nam
 7651              		.loc 6 515 32 view .LVU2450
 7652 1f02 4348     		ldr	r0, .L572+84
 516:src/main.cpp  ****                         // Machine event so a connected host tuner follows the change.
 7653              		.loc 6 516 84 view .LVU2451
 7654 1f04 1B68     		ldr	r3, [r3]
 515:src/main.cpp  ****                                      cycle_pos(g_voice_idx), cycle_total(), g_bank[g_voice_idx].nam
 7655              		.loc 6 515 32 view .LVU2452
 7656 1f06 03EB4303 		add	r3, r3, r3, lsl #1
 7657 1f0a 9B01     		lsls	r3, r3, #6
 7658 1f0c C358     		ldr	r3, [r0, r3]
 7659 1f0e 4148     		ldr	r0, .L572+88
 7660 1f10 FFF7FEFF 		bl	usb_log
 7661              	.LVL639:
 518:src/main.cpp  ****                     }
 7662              		.loc 6 518 25 is_stmt 1 view .LVU2453
 518:src/main.cpp  ****                     }
 7663              		.loc 6 518 32 is_stmt 0 view .LVU2454
 7664 1f14 2A4B     		ldr	r3, .L572+4
 7665 1f16 4048     		ldr	r0, .L572+92
 7666 1f18 1968     		ldr	r1, [r3]
 7667 1f1a FFF7FEFF 		bl	usb_log
 7668              	.LVL640:
 7669 1f1e C4E5     		b	.L83
 7670              	.LVL641:
 7671              	.L528:
 518:src/main.cpp  ****                     }
 7672              		.loc 6 518 32 view .LVU2455
 7673              	.LBE726:
ARM GAS  /tmp/claude-502/ccJ8DnOJ.s 			page 211


 7674              	.LBE758:
 7675              	.LBE779:
 7676              	.LBE1284:
 928:src/main.cpp  ****             bc_i, vib_i);
 7677              		.loc 6 928 24 view .LVU2456
 7678 1f20 4342     		rsbs	r3, r0, #0
 924:src/main.cpp  ****             freq_i, cut_i,
 7679              		.loc 6 924 16 view .LVU2457
 7680 1f22 3E4C     		ldr	r4, .L572+96
 7681 1f24 A4FB0354 		umull	r5, r4, r4, r3
 7682 1f28 E408     		lsrs	r4, r4, #3
 7683 1f2a 04EB8404 		add	r4, r4, r4, lsl #2
 7684 1f2e A3EB4404 		sub	r4, r3, r4, lsl #1
 7685 1f32 3B4B     		ldr	r3, .L572+100
 7686 1f34 83FB0053 		smull	r5, r3, r3, r0
 7687 1f38 C017     		asrs	r0, r0, #31
 7688              	.LVL642:
 924:src/main.cpp  ****             freq_i, cut_i,
 7689              		.loc 6 924 16 view .LVU2458
 7690 1f3a A0EBA305 		sub	r5, r0, r3, asr #2
 7691 1f3e 2D23     		movs	r3, #45
 7692 1f40 FEF7DCBE 		b	.L275
 7693              	.LVL643:
 7694              	.L532:
 7695              	.LBB1285:
 7696              	.LBB780:
 499:src/main.cpp  ****                                      g_bank[g_voice_idx].name, cycle_pos(g_voice_idx), cycle_total(
 7697              		.loc 6 499 27 is_stmt 1 view .LVU2459
 500:src/main.cpp  ****                         blink_start(cycle_pos(g_voice_idx), now);  // blink the current voice numbe
 7698              		.loc 6 500 45 is_stmt 0 view .LVU2460
 7699 1f44 1E4A     		ldr	r2, .L572+4
 499:src/main.cpp  ****                                      g_bank[g_voice_idx].name, cycle_pos(g_voice_idx), cycle_total(
 7700              		.loc 6 499 34 view .LVU2461
 7701 1f46 3249     		ldr	r1, .L572+84
 500:src/main.cpp  ****                         blink_start(cycle_pos(g_voice_idx), now);  // blink the current voice numbe
 7702              		.loc 6 500 45 view .LVU2462
 7703 1f48 1368     		ldr	r3, [r2]
 499:src/main.cpp  ****                                      g_bank[g_voice_idx].name, cycle_pos(g_voice_idx), cycle_total(
 7704              		.loc 6 499 34 view .LVU2463
 7705 1f4a 03EB4303 		add	r3, r3, r3, lsl #1
 7706 1f4e 9B01     		lsls	r3, r3, #6
 7707 1f50 C958     		ldr	r1, [r1, r3]
 7708 1f52 1368     		ldr	r3, [r2]
 7709              	.LVL644:
 7710              	.LBB759:
 7711              	.LBI759:
1051:src/voice.h   ****   int p = 0;
 7712              		.loc 7 1051 12 is_stmt 1 view .LVU2464
 7713              	.LBB760:
1052:src/voice.h   ****   for (int i = 0; i <= idx && i < NUM_VOICES; i++)
 7714              		.loc 7 1052 3 view .LVU2465
1053:src/voice.h   ****     if (!VOICES[i].no_cycle)
 7715              		.loc 7 1053 3 view .LVU2466
 7716              	.LBB761:
1053:src/voice.h   ****     if (!VOICES[i].no_cycle)
 7717              		.loc 7 1053 28 view .LVU2467
 7718              	.LBE761:
ARM GAS  /tmp/claude-502/ccJ8DnOJ.s 			page 212


1052:src/voice.h   ****   for (int i = 0; i <= idx && i < NUM_VOICES; i++)
 7719              		.loc 7 1052 7 is_stmt 0 view .LVU2468
 7720 1f54 0C9A     		ldr	r2, [sp, #48]
 7721 1f56 0E2B     		cmp	r3, #14
 7722 1f58 9E46     		mov	lr, r3
 7723 1f5a A8BF     		it	ge
 7724 1f5c 4FF00E0E 		movge	lr, #14
 7725              	.LBB762:
1053:src/voice.h   ****     if (!VOICES[i].no_cycle)
 7726              		.loc 7 1053 28 view .LVU2469
 7727 1f60 002B     		cmp	r3, #0
 7728 1f62 0CDB     		blt	.L74
 7729 1f64 1548     		ldr	r0, .L572
 7730              	.LVL645:
1053:src/voice.h   ****     if (!VOICES[i].no_cycle)
 7731              		.loc 7 1053 12 view .LVU2470
 7732 1f66 1346     		mov	r3, r2
 7733              	.LVL646:
1053:src/voice.h   ****     if (!VOICES[i].no_cycle)
 7734              		.loc 7 1053 12 view .LVU2471
 7735 1f68 9446     		mov	ip, r2
 7736              	.LVL647:
 7737              	.L76:
1054:src/voice.h   ****       p++;
 7738              		.loc 7 1054 5 is_stmt 1 view .LVU2472
1055:src/voice.h   ****   return p;
 7739              		.loc 7 1055 7 view .LVU2473
1054:src/voice.h   ****       p++;
 7740              		.loc 7 1054 5 is_stmt 0 view .LVU2474
 7741 1f6a 90F87C20 		ldrb	r2, [r0, #124]	@ zero_extendqisi2
1053:src/voice.h   ****     if (!VOICES[i].no_cycle)
 7742              		.loc 7 1053 3 view .LVU2475
 7743 1f6e 0133     		adds	r3, r3, #1
 7744              	.LVL648:
1053:src/voice.h   ****     if (!VOICES[i].no_cycle)
 7745              		.loc 7 1053 28 view .LVU2476
 7746 1f70 C030     		adds	r0, r0, #192
1054:src/voice.h   ****       p++;
 7747              		.loc 7 1054 5 view .LVU2477
 7748 1f72 0AB9     		cbnz	r2, .L75
1055:src/voice.h   ****   return p;
 7749              		.loc 7 1055 8 view .LVU2478
 7750 1f74 0CF1010C 		add	ip, ip, #1
 7751              	.LVL649:
 7752              	.L75:
1053:src/voice.h   ****     if (!VOICES[i].no_cycle)
 7753              		.loc 7 1053 3 is_stmt 1 view .LVU2479
1053:src/voice.h   ****     if (!VOICES[i].no_cycle)
 7754              		.loc 7 1053 28 view .LVU2480
 7755 1f78 9E45     		cmp	lr, r3
 7756 1f7a F6DA     		bge	.L76
1053:src/voice.h   ****     if (!VOICES[i].no_cycle)
 7757              		.loc 7 1053 28 is_stmt 0 view .LVU2481
 7758 1f7c 6246     		mov	r2, ip
 7759              	.LVL650:
 7760              	.L74:
1053:src/voice.h   ****     if (!VOICES[i].no_cycle)
ARM GAS  /tmp/claude-502/ccJ8DnOJ.s 			page 213


 7761              		.loc 7 1053 28 view .LVU2482
 7762              	.LBE762:
1052:src/voice.h   ****   for (int i = 0; i <= idx && i < NUM_VOICES; i++)
 7763              		.loc 7 1052 7 view .LVU2483
 7764 1f7e 0F48     		ldr	r0, .L572
 7765              	.LBE760:
 7766              	.LBE759:
 7767              	.LBB763:
 7768              	.LBB764:
1045:src/voice.h   ****   for (int i = 0; i < NUM_VOICES; i++)
 7769              		.loc 7 1045 7 view .LVU2484
 7770 1f80 4FF0000C 		mov	ip, #0
 7771              	.L78:
 7772              	.LVL651:
 7773              	.LBB765:
1047:src/voice.h   ****       n++;
 7774              		.loc 7 1047 5 is_stmt 1 view .LVU2485
1048:src/voice.h   ****   return n;
 7775              		.loc 7 1048 7 view .LVU2486
1047:src/voice.h   ****       n++;
 7776              		.loc 7 1047 5 is_stmt 0 view .LVU2487
 7777 1f84 90F87C30 		ldrb	r3, [r0, #124]	@ zero_extendqisi2
1046:src/voice.h   ****     if (!VOICES[i].no_cycle)
 7778              		.loc 7 1046 21 view .LVU2488
 7779 1f88 C030     		adds	r0, r0, #192
1047:src/voice.h   ****       n++;
 7780              		.loc 7 1047 5 view .LVU2489
 7781 1f8a 0BB9     		cbnz	r3, .L77
1048:src/voice.h   ****   return n;
 7782              		.loc 7 1048 8 view .LVU2490
 7783 1f8c 0CF1010C 		add	ip, ip, #1
 7784              	.LVL652:
 7785              	.L77:
1046:src/voice.h   ****     if (!VOICES[i].no_cycle)
 7786              		.loc 7 1046 3 is_stmt 1 view .LVU2491
1046:src/voice.h   ****     if (!VOICES[i].no_cycle)
 7787              		.loc 7 1046 21 view .LVU2492
 7788 1f90 1E4B     		ldr	r3, .L572+80
 7789 1f92 8342     		cmp	r3, r0
 7790 1f94 F6D1     		bne	.L78
1046:src/voice.h   ****     if (!VOICES[i].no_cycle)
 7791              		.loc 7 1046 21 is_stmt 0 view .LVU2493
 7792              	.LBE765:
1049:src/voice.h   **** }
 7793              		.loc 7 1049 3 is_stmt 1 view .LVU2494
 7794              	.LVL653:
1049:src/voice.h   **** }
 7795              		.loc 7 1049 3 is_stmt 0 view .LVU2495
 7796              	.LBE764:
 7797              	.LBE763:
 499:src/main.cpp  ****                                      g_bank[g_voice_idx].name, cycle_pos(g_voice_idx), cycle_total(
 7798              		.loc 6 499 34 view .LVU2496
 7799 1f96 6346     		mov	r3, ip
 7800 1f98 2248     		ldr	r0, .L572+104
 7801 1f9a FFF7FEFF 		bl	usb_log
 7802              	.LVL654:
 7803 1f9e FEF79CBF 		b	.L73
ARM GAS  /tmp/claude-502/ccJ8DnOJ.s 			page 214


 7804              	.LVL655:
 7805              	.L551:
 499:src/main.cpp  ****                                      g_bank[g_voice_idx].name, cycle_pos(g_voice_idx), cycle_total(
 7806              		.loc 6 499 34 view .LVU2497
 7807              	.LBE780:
 7808              	.LBE1285:
 7809              	.LBB1286:
 7810              	.LBB1080:
 7811              	.LBB1071:
 7812              	.LBB1052:
 7813              	.LBB1046:
 7814              	.LBB1041:
  13:src/dsp.h     **** }
 7815              		.loc 8 13 24 view .LVU2498
 7816 1fa2 F4EEE76A 		vcmpe.f32	s13, s15
 7817 1fa6 F1EE10FA 		vmrs	APSR_nzcv, FPSCR
 7818 1faa 00F3D080 		bgt	.L369
 7819 1fae BFEE00BA 		vmov.f32	s22, #-1.0e+0
 7820 1fb2 9FED1E7A 		vldr.32	s14, .L572+112
 7821 1fb6 B0EE67CA 		vmov.f32	s24, s15
 7822 1fba E6E6     		b	.L287
 7823              	.L573:
 7824              		.align	2
 7825              	.L572:
 7826 1fbc 00000000 		.word	.LANCHOR4
 7827 1fc0 00000000 		.word	.LANCHOR3
 7828 1fc4 00000000 		.word	g_serial_quiet
 7829 1fc8 20000000 		.word	.LANCHOR0+32
 7830 1fcc CDCC4C3D 		.word	1028443341
 7831 1fd0 A0020000 		.word	.LC25
 7832 1fd4 CDCC0C3F 		.word	1057803469
 7833 1fd8 6666E63E 		.word	1055286886
 7834 1fdc B0010000 		.word	.LC16
 7835 1fe0 0000C842 		.word	1120403456
 7836 1fe4 C4060000 		.word	g_bank+1732
 7837 1fe8 00007042 		.word	1114636288
 7838 1fec 00000000 		.word	g_finger_on
 7839 1ff0 00000000 		.word	g_amp_target
 7840 1ff4 00007A46 		.word	1182400512
 7841 1ff8 0C070000 		.word	g_bank+1804
 7842 1ffc 9A99193F 		.word	1058642330
 7843 2000 00000000 		.word	.LANCHOR0
 7844 2004 9A99593F 		.word	1062836634
 7845 2008 00000000 		.word	g_hits
 7846 200c 400B0000 		.word	.LANCHOR4+2880
 7847 2010 00000000 		.word	g_bank
 7848 2014 78010000 		.word	.LC13
 7849 2018 90010000 		.word	.LC14
 7850 201c CDCCCCCC 		.word	-858993459
 7851 2020 67666666 		.word	1717986919
 7852 2024 34010000 		.word	.LC12
 7853 2028 89888888 		.word	-2004318071
 7854 202c 00000000 		.word	0
 7855              	.LVL656:
 7856              	.L490:
  13:src/dsp.h     **** }
 7857              		.loc 8 13 24 view .LVU2499
ARM GAS  /tmp/claude-502/ccJ8DnOJ.s 			page 215


 7858 2030 F4EEE76A 		vcmpe.f32	s13, s15
 7859 2034 F1EE10FA 		vmrs	APSR_nzcv, FPSCR
 7860 2038 40F38E80 		ble	.L491
 7861              	.LBE1041:
 7862              	.LBE1046:
 802:src/main.cpp  ****                 led1_target    = sqrtf(sqrtf(l2_raw)) * prs_mult;  // middle tent
 7863              		.loc 6 802 58 view .LVU2500
 7864 203c F6EE006A 		vmov.f32	s13, #5.0e-1
 7865              	.LVL657:
 800:src/main.cpp  ****                 float l3_raw   = 2.0f * p01 - 1.0f;                 if(l3_raw < 0) l3_raw = 0;
 7866              		.loc 6 800 23 view .LVU2501
 7867 2040 B0EE006A 		vmov.f32	s12, #2.0e+0
 7868              	.LVL658:
 801:src/main.cpp  ****                 float l2_raw   = 1.0f - 2.0f * fabsf(p01 - 0.5f);   if(l2_raw < 0) l2_raw = 0;
 7869              		.loc 6 801 23 view .LVU2502
 7870 2044 BFEE00CA 		vmov.f32	s24, #-1.0e+0
 802:src/main.cpp  ****                 led1_target    = sqrtf(sqrtf(l2_raw)) * prs_mult;  // middle tent
 7871              		.loc 6 802 23 view .LVU2503
 7872 2048 F0EE67BA 		vmov.f32	s23, s15
 7873 204c FFF750B9 		b	.L509
 7874              	.LVL659:
 7875              	.L368:
 801:src/main.cpp  ****                 float l2_raw   = 1.0f - 2.0f * fabsf(p01 - 0.5f);   if(l2_raw < 0) l2_raw = 0;
 7876              		.loc 6 801 91 view .LVU2504
 7877 2050 1FED0ACA 		vldr.32	s24, .L572+112
 7878              	.LVL660:
 7879              	.L286:
 802:src/main.cpp  ****                 led1_target    = sqrtf(sqrtf(l2_raw)) * prs_mult;  // middle tent
 7880              		.loc 6 802 17 is_stmt 1 view .LVU2505
 802:src/main.cpp  ****                 led1_target    = sqrtf(sqrtf(l2_raw)) * prs_mult;  // middle tent
 7881              		.loc 6 802 69 view .LVU2506
 801:src/main.cpp  ****                 float l2_raw   = 1.0f - 2.0f * fabsf(p01 - 0.5f);   if(l2_raw < 0) l2_raw = 0;
 7882              		.loc 6 801 91 is_stmt 0 view .LVU2507
 7883 2054 F7EE00BA 		vmov.f32	s23, #1.0e+0
 7884 2058 1FED0C7A 		vldr.32	s14, .L572+112
 7885 205c FFF76CB9 		b	.L206
 7886              	.LVL661:
 7887              	.L527:
 801:src/main.cpp  ****                 float l2_raw   = 1.0f - 2.0f * fabsf(p01 - 0.5f);   if(l2_raw < 0) l2_raw = 0;
 7888              		.loc 6 801 91 view .LVU2508
 7889              	.LBE1052:
 7890              	.LBE1071:
 7891              	.LBE1080:
 7892              	.LBE1286:
 882:src/main.cpp  ****                 cycle_pos(g_voice_idx), cycle_total(), VOICE.name);
 7893              		.loc 6 882 13 is_stmt 1 view .LVU2509
 882:src/main.cpp  ****                 cycle_pos(g_voice_idx), cycle_total(), VOICE.name);
 7894              		.loc 6 882 20 is_stmt 0 view .LVU2510
 7895 2060 894B     		ldr	r3, .L574
 7896              	.LBB1287:
 7897              	.LBB1288:
1052:src/voice.h   ****   for (int i = 0; i <= idx && i < NUM_VOICES; i++)
 7898              		.loc 7 1052 7 view .LVU2511
 7899 2062 3146     		mov	r1, r6
 7900              	.LBE1288:
 7901              	.LBE1287:
 882:src/main.cpp  ****                 cycle_pos(g_voice_idx), cycle_total(), VOICE.name);
ARM GAS  /tmp/claude-502/ccJ8DnOJ.s 			page 216


 7902              		.loc 6 882 20 view .LVU2512
 7903 2064 1B68     		ldr	r3, [r3]
 7904              	.LVL662:
 7905              	.LBB1291:
 7906              	.LBI1287:
1051:src/voice.h   ****   int p = 0;
 7907              		.loc 7 1051 12 is_stmt 1 view .LVU2513
 7908              	.LBB1290:
1052:src/voice.h   ****   for (int i = 0; i <= idx && i < NUM_VOICES; i++)
 7909              		.loc 7 1052 3 view .LVU2514
1053:src/voice.h   ****     if (!VOICES[i].no_cycle)
 7910              		.loc 7 1053 3 view .LVU2515
 7911              	.LBB1289:
1053:src/voice.h   ****     if (!VOICES[i].no_cycle)
 7912              		.loc 7 1053 28 view .LVU2516
 7913 2066 0E2B     		cmp	r3, #14
 7914 2068 1F46     		mov	r7, r3
 7915 206a A8BF     		it	ge
 7916 206c 0E27     		movge	r7, #14
 7917 206e 002B     		cmp	r3, #0
 7918 2070 09DB     		blt	.L243
 7919 2072 864A     		ldr	r2, .L574+4
1053:src/voice.h   ****     if (!VOICES[i].no_cycle)
 7920              		.loc 7 1053 12 is_stmt 0 view .LVU2517
 7921 2074 3346     		mov	r3, r6
 7922              	.LVL663:
 7923              	.L245:
1054:src/voice.h   ****       p++;
 7924              		.loc 7 1054 5 is_stmt 1 view .LVU2518
1055:src/voice.h   ****   return p;
 7925              		.loc 7 1055 7 view .LVU2519
1054:src/voice.h   ****       p++;
 7926              		.loc 7 1054 5 is_stmt 0 view .LVU2520
 7927 2076 92F87C00 		ldrb	r0, [r2, #124]	@ zero_extendqisi2
1053:src/voice.h   ****     if (!VOICES[i].no_cycle)
 7928              		.loc 7 1053 3 view .LVU2521
 7929 207a 0133     		adds	r3, r3, #1
 7930              	.LVL664:
1053:src/voice.h   ****     if (!VOICES[i].no_cycle)
 7931              		.loc 7 1053 28 view .LVU2522
 7932 207c C032     		adds	r2, r2, #192
1054:src/voice.h   ****       p++;
 7933              		.loc 7 1054 5 view .LVU2523
 7934 207e 00B9     		cbnz	r0, .L244
1055:src/voice.h   ****   return p;
 7935              		.loc 7 1055 8 view .LVU2524
 7936 2080 0131     		adds	r1, r1, #1
 7937              	.LVL665:
 7938              	.L244:
1053:src/voice.h   ****     if (!VOICES[i].no_cycle)
 7939              		.loc 7 1053 3 is_stmt 1 view .LVU2525
1053:src/voice.h   ****     if (!VOICES[i].no_cycle)
 7940              		.loc 7 1053 28 view .LVU2526
 7941 2082 9F42     		cmp	r7, r3
 7942 2084 F7DA     		bge	.L245
 7943              	.LVL666:
 7944              	.L243:
ARM GAS  /tmp/claude-502/ccJ8DnOJ.s 			page 217


1053:src/voice.h   ****     if (!VOICES[i].no_cycle)
 7945              		.loc 7 1053 28 is_stmt 0 view .LVU2527
 7946              	.LBE1289:
1052:src/voice.h   ****   for (int i = 0; i <= idx && i < NUM_VOICES; i++)
 7947              		.loc 7 1052 7 view .LVU2528
 7948 2086 814B     		ldr	r3, .L574+4
 7949              	.LBE1290:
 7950              	.LBE1291:
 7951              	.LBB1292:
 7952              	.LBB1293:
1045:src/voice.h   ****   for (int i = 0; i < NUM_VOICES; i++)
 7953              		.loc 7 1045 7 view .LVU2529
 7954 2088 0022     		movs	r2, #0
 7955              	.L247:
 7956              	.LVL667:
 7957              	.LBB1294:
1047:src/voice.h   ****       n++;
 7958              		.loc 7 1047 5 is_stmt 1 view .LVU2530
1048:src/voice.h   ****   return n;
 7959              		.loc 7 1048 7 view .LVU2531
1047:src/voice.h   ****       n++;
 7960              		.loc 7 1047 5 is_stmt 0 view .LVU2532
 7961 208a 93F87C00 		ldrb	r0, [r3, #124]	@ zero_extendqisi2
1046:src/voice.h   ****     if (!VOICES[i].no_cycle)
 7962              		.loc 7 1046 21 view .LVU2533
 7963 208e C033     		adds	r3, r3, #192
1047:src/voice.h   ****       n++;
 7964              		.loc 7 1047 5 view .LVU2534
 7965 2090 00B9     		cbnz	r0, .L246
1048:src/voice.h   ****   return n;
 7966              		.loc 7 1048 8 view .LVU2535
 7967 2092 0132     		adds	r2, r2, #1
 7968              	.LVL668:
 7969              	.L246:
1046:src/voice.h   ****     if (!VOICES[i].no_cycle)
 7970              		.loc 7 1046 3 is_stmt 1 view .LVU2536
1046:src/voice.h   ****     if (!VOICES[i].no_cycle)
 7971              		.loc 7 1046 21 view .LVU2537
 7972 2094 7E48     		ldr	r0, .L574+8
 7973 2096 9842     		cmp	r0, r3
 7974 2098 F7D1     		bne	.L247
1046:src/voice.h   ****     if (!VOICES[i].no_cycle)
 7975              		.loc 7 1046 21 is_stmt 0 view .LVU2538
 7976              	.LBE1294:
1049:src/voice.h   **** }
 7977              		.loc 7 1049 3 is_stmt 1 view .LVU2539
 7978              	.LVL669:
1049:src/voice.h   **** }
 7979              		.loc 7 1049 3 is_stmt 0 view .LVU2540
 7980              	.LBE1293:
 7981              	.LBE1292:
 882:src/main.cpp  ****                 cycle_pos(g_voice_idx), cycle_total(), VOICE.name);
 7982              		.loc 6 882 20 view .LVU2541
 7983 209a 2B68     		ldr	r3, [r5]
 7984 209c 7D48     		ldr	r0, .L574+12
 7985 209e FFF7FEFF 		bl	usb_log
 7986              	.LVL670:
ARM GAS  /tmp/claude-502/ccJ8DnOJ.s 			page 218


 7987 20a2 FEF7C7BC 		b	.L248
 7988              	.LVL671:
 7989              	.L331:
 7990              	.LBB1295:
 7991              	.LBB1006:
 7992              	.LBB1002:
 7993              	.LBB952:
 7994              	.LBB946:
 7995              	.LBB935:
 7996              	.LBB933:
 7997              	.LBB930:
 154:src/voice.h   ****     return;
 7998              		.loc 7 154 17 view .LVU2542
 7999 20a6 DFED7CBA 		vldr.32	s23, .L574+16	@ int
 153:src/voice.h   ****     semis_fifth = 7;
 8000              		.loc 7 153 17 view .LVU2543
 8001 20aa 0423     		movs	r3, #4
 8002 20ac A6E4     		b	.L178
 8003              	.LVL672:
 8004              	.L549:
 153:src/voice.h   ****     semis_fifth = 7;
 8005              		.loc 7 153 17 view .LVU2544
 8006              	.LBE930:
 8007              	.LBE933:
 8008              	.LBE935:
 8009              	.LBE946:
 8010              	.LBE952:
 8011              	.LBE1002:
 8012              	.LBE1006:
 8013              	.LBE1295:
 8014              	.LBB1296:
 8015              	.LBB781:
 8016              	.LBB766:
 8017              	.LBB727:
 8018              	.LBB716:
 531:src/main.cpp  ****                                      cycle_pos(g_voice_idx), cycle_total(), g_bank[g_voice_idx].nam
 8019              		.loc 6 531 27 is_stmt 1 view .LVU2545
 531:src/main.cpp  ****                                      cycle_pos(g_voice_idx), cycle_total(), g_bank[g_voice_idx].nam
 8020              		.loc 6 531 34 is_stmt 0 view .LVU2546
 8021 20ae 764B     		ldr	r3, .L574
 8022 20b0 1B68     		ldr	r3, [r3]
 8023              	.LVL673:
 8024              	.LBB660:
 8025              	.LBI660:
1051:src/voice.h   ****   int p = 0;
 8026              		.loc 7 1051 12 is_stmt 1 view .LVU2547
 8027              	.LBB661:
1052:src/voice.h   ****   for (int i = 0; i <= idx && i < NUM_VOICES; i++)
 8028              		.loc 7 1052 3 view .LVU2548
1053:src/voice.h   ****     if (!VOICES[i].no_cycle)
 8029              		.loc 7 1053 3 view .LVU2549
 8030              	.LBB662:
1053:src/voice.h   ****     if (!VOICES[i].no_cycle)
 8031              		.loc 7 1053 28 view .LVU2550
 8032 20b2 0E2B     		cmp	r3, #14
 8033 20b4 9C46     		mov	ip, r3
 8034 20b6 A8BF     		it	ge
ARM GAS  /tmp/claude-502/ccJ8DnOJ.s 			page 219


 8035 20b8 4FF00E0C 		movge	ip, #14
 8036 20bc 002B     		cmp	r3, #0
 8037 20be 09DB     		blt	.L98
 8038 20c0 724A     		ldr	r2, .L574+4
1053:src/voice.h   ****     if (!VOICES[i].no_cycle)
 8039              		.loc 7 1053 12 is_stmt 0 view .LVU2551
 8040 20c2 0B46     		mov	r3, r1
 8041              	.LVL674:
 8042              	.L100:
1054:src/voice.h   ****       p++;
 8043              		.loc 7 1054 5 is_stmt 1 view .LVU2552
1055:src/voice.h   ****   return p;
 8044              		.loc 7 1055 7 view .LVU2553
1054:src/voice.h   ****       p++;
 8045              		.loc 7 1054 5 is_stmt 0 view .LVU2554
 8046 20c4 92F87C00 		ldrb	r0, [r2, #124]	@ zero_extendqisi2
1053:src/voice.h   ****     if (!VOICES[i].no_cycle)
 8047              		.loc 7 1053 3 view .LVU2555
 8048 20c8 0133     		adds	r3, r3, #1
 8049              	.LVL675:
1053:src/voice.h   ****     if (!VOICES[i].no_cycle)
 8050              		.loc 7 1053 28 view .LVU2556
 8051 20ca C032     		adds	r2, r2, #192
1054:src/voice.h   ****       p++;
 8052              		.loc 7 1054 5 view .LVU2557
 8053 20cc 00B9     		cbnz	r0, .L99
1055:src/voice.h   ****   return p;
 8054              		.loc 7 1055 8 view .LVU2558
 8055 20ce 0131     		adds	r1, r1, #1
 8056              	.LVL676:
 8057              	.L99:
1053:src/voice.h   ****     if (!VOICES[i].no_cycle)
 8058              		.loc 7 1053 3 is_stmt 1 view .LVU2559
1053:src/voice.h   ****     if (!VOICES[i].no_cycle)
 8059              		.loc 7 1053 28 view .LVU2560
 8060 20d0 6345     		cmp	r3, ip
 8061 20d2 F7DD     		ble	.L100
 8062              	.LVL677:
 8063              	.L98:
1053:src/voice.h   ****     if (!VOICES[i].no_cycle)
 8064              		.loc 7 1053 28 is_stmt 0 view .LVU2561
 8065              	.LBE662:
1052:src/voice.h   ****   for (int i = 0; i <= idx && i < NUM_VOICES; i++)
 8066              		.loc 7 1052 7 view .LVU2562
 8067 20d4 6D4B     		ldr	r3, .L574+4
 8068              	.LBE661:
 8069              	.LBE660:
 8070              	.LBB663:
 8071              	.LBB664:
1045:src/voice.h   ****   for (int i = 0; i < NUM_VOICES; i++)
 8072              		.loc 7 1045 7 view .LVU2563
 8073 20d6 0022     		movs	r2, #0
 8074              	.L102:
 8075              	.LVL678:
 8076              	.LBB665:
1047:src/voice.h   ****       n++;
 8077              		.loc 7 1047 5 is_stmt 1 view .LVU2564
ARM GAS  /tmp/claude-502/ccJ8DnOJ.s 			page 220


1048:src/voice.h   ****   return n;
 8078              		.loc 7 1048 7 view .LVU2565
1047:src/voice.h   ****       n++;
 8079              		.loc 7 1047 5 is_stmt 0 view .LVU2566
 8080 20d8 93F87C00 		ldrb	r0, [r3, #124]	@ zero_extendqisi2
1046:src/voice.h   ****     if (!VOICES[i].no_cycle)
 8081              		.loc 7 1046 21 view .LVU2567
 8082 20dc C033     		adds	r3, r3, #192
1047:src/voice.h   ****       n++;
 8083              		.loc 7 1047 5 view .LVU2568
 8084 20de 00B9     		cbnz	r0, .L101
1048:src/voice.h   ****   return n;
 8085              		.loc 7 1048 8 view .LVU2569
 8086 20e0 0132     		adds	r2, r2, #1
 8087              	.LVL679:
 8088              	.L101:
1046:src/voice.h   ****     if (!VOICES[i].no_cycle)
 8089              		.loc 7 1046 3 is_stmt 1 view .LVU2570
1046:src/voice.h   ****     if (!VOICES[i].no_cycle)
 8090              		.loc 7 1046 21 view .LVU2571
 8091 20e2 6B48     		ldr	r0, .L574+8
 8092 20e4 9842     		cmp	r0, r3
 8093 20e6 F7D1     		bne	.L102
1046:src/voice.h   ****     if (!VOICES[i].no_cycle)
 8094              		.loc 7 1046 21 is_stmt 0 view .LVU2572
 8095              	.LBE665:
1049:src/voice.h   **** }
 8096              		.loc 7 1049 3 is_stmt 1 view .LVU2573
 8097              	.LVL680:
1049:src/voice.h   **** }
 8098              		.loc 7 1049 3 is_stmt 0 view .LVU2574
 8099              	.LBE664:
 8100              	.LBE663:
 532:src/main.cpp  ****                         blink_start(1, now);                 // single blink per advance
 8101              		.loc 6 532 84 view .LVU2575
 8102 20e8 674B     		ldr	r3, .L574
 531:src/main.cpp  ****                                      cycle_pos(g_voice_idx), cycle_total(), g_bank[g_voice_idx].nam
 8103              		.loc 6 531 34 view .LVU2576
 8104 20ea 6C48     		ldr	r0, .L574+20
 532:src/main.cpp  ****                         blink_start(1, now);                 // single blink per advance
 8105              		.loc 6 532 84 view .LVU2577
 8106 20ec 1B68     		ldr	r3, [r3]
 531:src/main.cpp  ****                                      cycle_pos(g_voice_idx), cycle_total(), g_bank[g_voice_idx].nam
 8107              		.loc 6 531 34 view .LVU2578
 8108 20ee 03EB4303 		add	r3, r3, r3, lsl #1
 8109 20f2 9B01     		lsls	r3, r3, #6
 8110 20f4 C358     		ldr	r3, [r0, r3]
 8111 20f6 6A48     		ldr	r0, .L574+24
 8112 20f8 FFF7FEFF 		bl	usb_log
 8113              	.LVL681:
 8114 20fc FCE5     		b	.L97
 8115              	.LVL682:
 8116              	.L304:
 8117              	.LBB666:
 8118              	.LBB649:
 8119              	.LBB642:
 8120              	.LBB640:
ARM GAS  /tmp/claude-502/ccJ8DnOJ.s 			page 221


  13:src/dsp.h     **** }
 8121              		.loc 8 13 16 view .LVU2579
 8122 20fe B0EE678A 		vmov.f32	s16, s15
 8123              	.LVL683:
  13:src/dsp.h     **** }
 8124              		.loc 8 13 16 view .LVU2580
 8125 2102 96E6     		b	.L105
 8126              	.LVL684:
 8127              	.L108:
  13:src/dsp.h     **** }
 8128              		.loc 8 13 16 view .LVU2581
 8129              	.LBE640:
 8130              	.LBE642:
 8131              	.LBE649:
 8132              	.LBE666:
 8133              	.LBB667:
 8134              	.LBB613:
 364:src/main.cpp  ****         if(blink_on){ leds_write(false); blink_on = false; blink_left--; blink_t = now + 140; }
 8135              		.loc 6 364 9 is_stmt 1 view .LVU2582
 364:src/main.cpp  ****         if(blink_on){ leds_write(false); blink_on = false; blink_left--; blink_t = now + 140; }
 8136              		.loc 6 364 26 is_stmt 0 view .LVU2583
 8137 2104 109B     		ldr	r3, [sp, #64]
 8138 2106 F31A     		subs	r3, r6, r3
 364:src/main.cpp  ****         if(blink_on){ leds_write(false); blink_on = false; blink_left--; blink_t = now + 140; }
 8139              		.loc 6 364 9 view .LVU2584
 8140 2108 002B     		cmp	r3, #0
 8141 210a FFF697AD 		blt	.L110
 365:src/main.cpp  ****         else if(blink_left > 0){ leds_write(true); blink_on = true; blink_t = now + 110; }
 8142              		.loc 6 365 9 is_stmt 1 view .LVU2585
 8143 210e 0B9B     		ldr	r3, [sp, #44]
 8144 2110 002B     		cmp	r3, #0
 8145 2112 7FF47EAD 		bne	.L292
 366:src/main.cpp  ****     };
 8146              		.loc 6 366 14 view .LVU2586
 8147 2116 0A9B     		ldr	r3, [sp, #40]
 8148 2118 002B     		cmp	r3, #0
 8149 211a 7FF78FAD 		ble	.L110
 8150              	.LVL685:
 8151              	.LBB604:
 8152              	.LBI604:
 362:src/main.cpp  ****         if(blink_left == 0 && !blink_on) return;
 8153              		.loc 6 362 23 view .LVU2587
 8154              	.LBB605:
 366:src/main.cpp  ****     };
 8155              		.loc 6 366 34 view .LVU2588
 8156              	.LBB606:
 8157              	.LBI606:
 352:src/main.cpp  ****         hw.dac.WriteValue(DacHandle::Channel::ONE, on ? (uint16_t)LED1_MAX : 0);
 8158              		.loc 6 352 23 view .LVU2589
 8159              	.LBB607:
 353:src/main.cpp  ****         hw.dac.WriteValue(DacHandle::Channel::TWO, on ? (uint16_t)LED2_MAX : 0);
 8160              		.loc 6 353 9 view .LVU2590
 353:src/main.cpp  ****         hw.dac.WriteValue(DacHandle::Channel::TWO, on ? (uint16_t)LED2_MAX : 0);
 8161              		.loc 6 353 26 is_stmt 0 view .LVU2591
 8162 211e 0B99     		ldr	r1, [sp, #44]
 8163 2120 40F6FF72 		movw	r2, #4095
 8164 2124 5F48     		ldr	r0, .L574+28
ARM GAS  /tmp/claude-502/ccJ8DnOJ.s 			page 222


 8165 2126 FFF7FEFF 		bl	_ZN5daisy9DacHandle10WriteValueENS0_7ChannelEt
 8166              	.LVL686:
 354:src/main.cpp  ****         g_led3_duty = on ? LED3_INTENSITY : 0.0f;
 8167              		.loc 6 354 9 is_stmt 1 view .LVU2592
 354:src/main.cpp  ****         g_led3_duty = on ? LED3_INTENSITY : 0.0f;
 8168              		.loc 6 354 26 is_stmt 0 view .LVU2593
 8169 212a 40F6FF72 		movw	r2, #4095
 8170 212e 0121     		movs	r1, #1
 8171 2130 5C48     		ldr	r0, .L574+28
 8172 2132 FFF7FEFF 		bl	_ZN5daisy9DacHandle10WriteValueENS0_7ChannelEt
 8173              	.LVL687:
 355:src/main.cpp  ****     };
 8174              		.loc 6 355 9 is_stmt 1 view .LVU2594
 8175              	.LBE607:
 8176              	.LBE606:
 366:src/main.cpp  ****     };
 8177              		.loc 6 366 83 is_stmt 0 view .LVU2595
 8178 2136 06F16E03 		add	r3, r6, #110
 8179              	.LBB610:
 8180              	.LBB608:
 355:src/main.cpp  ****     };
 8181              		.loc 6 355 21 view .LVU2596
 8182 213a 169A     		ldr	r2, [sp, #88]
 8183              	.LBE608:
 8184              	.LBE610:
 366:src/main.cpp  ****     };
 8185              		.loc 6 366 83 view .LVU2597
 8186 213c 1093     		str	r3, [sp, #64]
 8187              	.LVL688:
 8188              	.LBB611:
 8189              	.LBB609:
 355:src/main.cpp  ****     };
 8190              		.loc 6 355 21 view .LVU2598
 8191 213e 5A4B     		ldr	r3, .L574+32
 8192 2140 1360     		str	r3, [r2]	@ float
 8193              	.LVL689:
 355:src/main.cpp  ****     };
 8194              		.loc 6 355 21 view .LVU2599
 8195              	.LBE609:
 8196              	.LBE611:
 366:src/main.cpp  ****     };
 8197              		.loc 6 366 52 is_stmt 1 view .LVU2600
 366:src/main.cpp  ****     };
 8198              		.loc 6 366 69 view .LVU2601
 366:src/main.cpp  ****     };
 8199              		.loc 6 366 61 is_stmt 0 view .LVU2602
 8200 2142 079B     		ldr	r3, [sp, #28]
 8201 2144 0B93     		str	r3, [sp, #44]
 8202 2146 79E5     		b	.L110
 8203              	.LVL690:
 8204              	.L306:
 366:src/main.cpp  ****     };
 8205              		.loc 6 366 61 view .LVU2603
 8206              	.LBE605:
 8207              	.LBE604:
 8208              	.LBE613:
 8209              	.LBE667:
ARM GAS  /tmp/claude-502/ccJ8DnOJ.s 			page 223


 8210              	.LBB668:
 8211              	.LBB592:
 8212              	.LBB590:
 8213              	.LBB588:
 8214              	.LBB586:
  13:src/dsp.h     **** }
 8215              		.loc 8 13 16 view .LVU2604
 8216 2148 B0EE678A 		vmov.f32	s16, s15
 8217              	.LVL691:
  13:src/dsp.h     **** }
 8218              		.loc 8 13 16 view .LVU2605
 8219 214c 34E5     		b	.L107
 8220              	.LVL692:
 8221              	.L369:
  13:src/dsp.h     **** }
 8222              		.loc 8 13 16 view .LVU2606
 8223              	.LBE586:
 8224              	.LBE588:
 8225              	.LBE590:
 8226              	.LBE592:
 8227              	.LBE668:
 8228              	.LBE716:
 8229              	.LBE727:
 8230              	.LBE766:
 8231              	.LBE781:
 8232              	.LBE1296:
 8233              	.LBB1297:
 8234              	.LBB1081:
 8235              	.LBB1072:
 8236              	.LBB1053:
 8237              	.LBB1047:
 8238              	.LBB1042:
  13:src/dsp.h     **** }
 8239              		.loc 8 13 24 view .LVU2607
 8240 214e B0EE67CA 		vmov.f32	s24, s15
 8241              	.LBE1042:
 8242              	.LBE1047:
 800:src/main.cpp  ****                 float l3_raw   = 2.0f * p01 - 1.0f;                 if(l3_raw < 0) l3_raw = 0;
 8243              		.loc 6 800 91 view .LVU2608
 8244 2152 9FED56BA 		vldr.32	s22, .L574+36
 8245 2156 7DE7     		b	.L286
 8246              	.LVL693:
 8247              	.L491:
 802:src/main.cpp  ****                 led1_target    = sqrtf(sqrtf(l2_raw)) * prs_mult;  // middle tent
 8248              		.loc 6 802 58 view .LVU2609
 8249 2158 B6EE006A 		vmov.f32	s12, #5.0e-1
 800:src/main.cpp  ****                 float l3_raw   = 2.0f * p01 - 1.0f;                 if(l3_raw < 0) l3_raw = 0;
 8250              		.loc 6 800 23 view .LVU2610
 8251 215c F0EE005A 		vmov.f32	s11, #2.0e+0
 8252 2160 B0EE67BA 		vmov.f32	s22, s15
 802:src/main.cpp  ****                 led1_target    = sqrtf(sqrtf(l2_raw)) * prs_mult;  // middle tent
 8253              		.loc 6 802 58 view .LVU2611
 8254 2164 37EE466A 		vsub.f32	s12, s14, s12
 801:src/main.cpp  ****                 float l2_raw   = 1.0f - 2.0f * fabsf(p01 - 0.5f);   if(l2_raw < 0) l2_raw = 0;
 8255              		.loc 6 801 23 view .LVU2612
 8256 2168 BFEE00CA 		vmov.f32	s24, #-1.0e+0
 800:src/main.cpp  ****                 float l3_raw   = 2.0f * p01 - 1.0f;                 if(l3_raw < 0) l3_raw = 0;
ARM GAS  /tmp/claude-502/ccJ8DnOJ.s 			page 224


 8257              		.loc 6 800 23 view .LVU2613
 8258 216c A7EE65BA 		vfms.f32	s22, s14, s11
 802:src/main.cpp  ****                 led1_target    = sqrtf(sqrtf(l2_raw)) * prs_mult;  // middle tent
 8259              		.loc 6 802 53 view .LVU2614
 8260 2170 B0EEC66A 		vabs.f32	s12, s12
 801:src/main.cpp  ****                 float l2_raw   = 1.0f - 2.0f * fabsf(p01 - 0.5f);   if(l2_raw < 0) l2_raw = 0;
 8261              		.loc 6 801 23 view .LVU2615
 8262 2174 A7EE25CA 		vfma.f32	s24, s14, s11
 802:src/main.cpp  ****                 led1_target    = sqrtf(sqrtf(l2_raw)) * prs_mult;  // middle tent
 8263              		.loc 6 802 23 view .LVU2616
 8264 2178 E6EE657A 		vfms.f32	s15, s12, s11
 8265 217c B0EE677A 		vmov.f32	s14, s15
 8266              	.LVL694:
 802:src/main.cpp  ****                 led1_target    = sqrtf(sqrtf(l2_raw)) * prs_mult;  // middle tent
 8267              		.loc 6 802 23 view .LVU2617
 8268 2180 03E6     		b	.L287
 8269              	.LVL695:
 8270              	.L55:
 802:src/main.cpp  ****                 led1_target    = sqrtf(sqrtf(l2_raw)) * prs_mult;  // middle tent
 8271              		.loc 6 802 23 view .LVU2618
 8272              	.LBE1053:
 8273              	.LBE1072:
 8274              	.LBE1081:
 8275              	.LBE1297:
 8276              	.LBE1309:
 300:src/main.cpp  ****     usb_log("Press FSR fully (no touch) 2s -> select; tap to cycle; release to keep");
 8277              		.loc 6 300 9 is_stmt 1 view .LVU2619
 300:src/main.cpp  ****     usb_log("Press FSR fully (no touch) 2s -> select; tap to cycle; release to keep");
 8278              		.loc 6 300 16 is_stmt 0 view .LVU2620
 8279 2182 4B48     		ldr	r0, .L574+40
 8280 2184 FFF7FEFF 		bl	usb_log
 8281              	.LVL696:
 8282 2188 FEF758B8 		b	.L56
 8283              	.LVL697:
 8284              	.L478:
 140:src/main.cpp  ****         capture_baseline(baseline);
 8285              		.loc 6 140 9 is_stmt 1 view .LVU2621
 141:src/main.cpp  ****     }
 8286              		.loc 6 141 25 is_stmt 0 view .LVU2622
 8287 218c 1C46     		mov	r4, r3
 140:src/main.cpp  ****         capture_baseline(baseline);
 8288              		.loc 6 140 22 view .LVU2623
 8289 218e 4FF49670 		mov	r0, #300
 141:src/main.cpp  ****     }
 8290              		.loc 6 141 25 view .LVU2624
 8291 2192 0F93     		str	r3, [sp, #60]
 140:src/main.cpp  ****         capture_baseline(baseline);
 8292              		.loc 6 140 22 view .LVU2625
 8293 2194 FFF7FEFF 		bl	_ZN5daisy6System5DelayEm
 8294              	.LVL698:
 141:src/main.cpp  ****     }
 8295              		.loc 6 141 9 is_stmt 1 view .LVU2626
 141:src/main.cpp  ****     }
 8296              		.loc 6 141 25 is_stmt 0 view .LVU2627
 8297 2198 2046     		mov	r0, r4
 8298 219a FFF7FEFF 		bl	_Z16capture_baselinePt
 8299              	.LVL699:
ARM GAS  /tmp/claude-502/ccJ8DnOJ.s 			page 225


 8300 219e FDF74FBF 		b	.L46
 8301              	.LVL700:
 8302              	.L537:
 8303              	.LBB1310:
 8304              	.LBB1298:
 8305              	.LBB1082:
 8306              	.LBB1073:
 8307              	.LBB1054:
 803:src/main.cpp  ****                 led2_target    = sqrtf(sqrtf(l1_raw)) * prs_mult;  // pos 0 ramp
 8308              		.loc 6 803 17 is_stmt 1 view .LVU2628
 8309 21a2 B5EE407A 		vcmp.f32	s14, #0
 8310 21a6 F1EE10FA 		vmrs	APSR_nzcv, FPSCR
 8311 21aa 7FF5C5A8 		bpl	.L206
 803:src/main.cpp  ****                 led2_target    = sqrtf(sqrtf(l1_raw)) * prs_mult;  // pos 0 ramp
 8312              		.loc 6 803 39 is_stmt 0 view .LVU2629
 8313 21ae B0EE470A 		vmov.f32	s0, s14
 8314 21b2 FFF7FEFF 		bl	sqrtf
 8315              	.LVL701:
 8316 21b6 FFF7C1B8 		b	.L209
 8317              	.LVL702:
 8318              	.L301:
 803:src/main.cpp  ****                 led2_target    = sqrtf(sqrtf(l1_raw)) * prs_mult;  // pos 0 ramp
 8319              		.loc 6 803 39 view .LVU2630
 8320              	.LBE1054:
 8321              	.LBE1073:
 8322              	.LBE1082:
 8323              	.LBE1298:
 8324              	.LBB1299:
 8325              	.LBB782:
 8326              	.LBB767:
 8327              	.LBB728:
 8328              	.LBB717:
 8329              	.LBB712:
1052:src/voice.h   ****   for (int i = 0; i <= idx && i < NUM_VOICES; i++)
 8330              		.loc 7 1052 7 view .LVU2631
 8331 21ba 0799     		ldr	r1, [sp, #28]
 8332 21bc 96E6     		b	.L84
 8333              	.LVL703:
 8334              	.L508:
1052:src/voice.h   ****   for (int i = 0; i <= idx && i < NUM_VOICES; i++)
 8335              		.loc 7 1052 7 view .LVU2632
 8336 21be 3D4B     		ldr	r3, .L574+44
 8337 21c0 1693     		str	r3, [sp, #88]
 8338 21c2 FEF78AB8 		b	.L59
 8339              	.LVL704:
 8340              	.L295:
1052:src/voice.h   ****   for (int i = 0; i <= idx && i < NUM_VOICES; i++)
 8341              		.loc 7 1052 7 view .LVU2633
 8342              	.LBE712:
 8343              	.LBE717:
 8344              	.LBE728:
 8345              	.LBE767:
 8346              	.LBE782:
 8347              	.LBE1299:
 8348              	.LBE1310:
 8349              	.LBB1311:
 8350              	.LBB547:
ARM GAS  /tmp/claude-502/ccJ8DnOJ.s 			page 226


 8351 21c6 0021     		movs	r1, #0
 8352 21c8 FEF70EB8 		b	.L50
 8353              	.LVL705:
 8354              	.L482:
1052:src/voice.h   ****   for (int i = 0; i <= idx && i < NUM_VOICES; i++)
 8355              		.loc 7 1052 7 view .LVU2634
 8356              	.LBE547:
 8357              	.LBE1311:
 8358              	.LBB1312:
 8359              	.LBB1300:
 8360              	.LBB1246:
 8361              	.LBB1241:
 8362              	.LBB1236:
 227:src/main.cpp  ****             float led2   = sqrtf(sqrtf(l1_raw));              // pos 0  (DAC2)
 8363              		.loc 6 227 33 view .LVU2635
 8364 21cc FFF7FEFF 		bl	sqrtf
 8365              	.LVL706:
 8366 21d0 F0EE40BA 		vmov.f32	s23, s0
 8367 21d4 FEF738BF 		b	.L127
 8368              	.LVL707:
 8369              	.L496:
 227:src/main.cpp  ****             float led2   = sqrtf(sqrtf(l1_raw));              // pos 0  (DAC2)
 8370              		.loc 6 227 33 view .LVU2636
 8371              	.LBE1236:
 8372              	.LBE1241:
 8373              	.LBE1246:
 8374              	.LBE1300:
 8375              	.LBB1301:
 8376              	.LBB1083:
 8377              	.LBB1074:
 8378              	.LBB1055:
 805:src/main.cpp  ****             }
 8379              		.loc 6 805 39 view .LVU2637
 8380 21d8 B0EE4C0A 		vmov.f32	s0, s24
 8381 21dc FFF7FEFF 		bl	sqrtf
 8382              	.LVL708:
 8383 21e0 FFF7D0B8 		b	.L221
 8384              	.LVL709:
 8385              	.L495:
 804:src/main.cpp  ****                 led3_target    = sqrtf(sqrtf(l3_raw)) * prs_mult * LED3_INTENSITY;
 8386              		.loc 6 804 39 view .LVU2638
 8387 21e4 FFF7FEFF 		bl	sqrtf
 8388              	.LVL710:
 8389 21e8 F0EE407A 		vmov.f32	s15, s0
 8390 21ec FFF7C0B8 		b	.L218
 8391              	.L494:
 8392 21f0 B0EE4B0A 		vmov.f32	s0, s22
 8393 21f4 FFF7FEFF 		bl	sqrtf
 8394              	.LVL711:
 8395 21f8 FFF7B2B8 		b	.L215
 8396              	.LVL712:
 8397              	.L493:
 803:src/main.cpp  ****                 led2_target    = sqrtf(sqrtf(l1_raw)) * prs_mult;  // pos 0 ramp
 8398              		.loc 6 803 39 view .LVU2639
 8399 21fc FFF7FEFF 		bl	sqrtf
 8400              	.LVL713:
 8401 2200 F0EE407A 		vmov.f32	s15, s0
ARM GAS  /tmp/claude-502/ccJ8DnOJ.s 			page 227


 8402 2204 FFF7A2B8 		b	.L212
 8403              	.LVL714:
 8404              	.L499:
 803:src/main.cpp  ****                 led2_target    = sqrtf(sqrtf(l1_raw)) * prs_mult;  // pos 0 ramp
 8405              		.loc 6 803 39 view .LVU2640
 8406              	.LBE1055:
 8407              	.LBE1074:
 8408              	.LBE1083:
 8409              	.LBE1301:
 8410              	.LBB1302:
 8411              	.LBB1157:
 8412              	.LBB1149:
 8413              	.LBB1115:
 727:src/main.cpp  ****             };
 8414              		.loc 6 727 41 view .LVU2641
 8415 2208 A7EE045A 		vfma.f32	s10, s14, s8
 8416              	.LBE1115:
 8417              	.LBE1149:
 856:src/main.cpp  ****             float rm    = smoothstep2(rm_in) * VOICE.ringmod_max;
 8418              		.loc 6 856 41 view .LVU2642
 8419 220c DFED2A3A 		vldr.32	s7, .L574+48
 8420              	.LBB1150:
 8421              	.LBB1116:
 727:src/main.cpp  ****             };
 8422              		.loc 6 727 25 view .LVU2643
 8423 2210 67EE077A 		vmul.f32	s15, s14, s14
 8424              	.LBE1116:
 8425              	.LBE1150:
 856:src/main.cpp  ****             float rm    = smoothstep2(rm_in) * VOICE.ringmod_max;
 8426              		.loc 6 856 33 view .LVU2644
 8427 2214 9FED293A 		vldr.32	s6, .L574+52
 856:src/main.cpp  ****             float rm    = smoothstep2(rm_in) * VOICE.ringmod_max;
 8428              		.loc 6 856 41 view .LVU2645
 8429 2218 36EE634A 		vsub.f32	s8, s12, s7
 8430              	.LBB1151:
 8431              	.LBB1117:
 727:src/main.cpp  ****             };
 8432              		.loc 6 727 27 view .LVU2646
 8433 221c 67EE877A 		vmul.f32	s15, s15, s14
 727:src/main.cpp  ****             };
 8434              		.loc 6 727 41 view .LVU2647
 8435 2220 F0EE454A 		vmov.f32	s9, s10
 8436              	.LBE1117:
 8437              	.LBE1151:
 856:src/main.cpp  ****             float rm    = smoothstep2(rm_in) * VOICE.ringmod_max;
 8438              		.loc 6 856 33 view .LVU2648
 8439 2224 84EE035A 		vdiv.f32	s10, s8, s6
 8440              	.LBB1152:
 8441              	.LBB1118:
 727:src/main.cpp  ****             };
 8442              		.loc 6 727 50 view .LVU2649
 8443 2228 E7EE246A 		vfma.f32	s13, s14, s9
 727:src/main.cpp  ****             };
 8444              		.loc 6 727 57 view .LVU2650
 8445 222c 67EEA67A 		vmul.f32	s15, s15, s13
 8446 2230 FEF77BBB 		b	.L232
 8447              	.LVL715:
ARM GAS  /tmp/claude-502/ccJ8DnOJ.s 			page 228


 8448              	.L497:
 727:src/main.cpp  ****             };
 8449              		.loc 6 727 57 view .LVU2651
 8450              	.LBE1118:
 8451              	.LBE1152:
 8452              	.LBE1157:
 8453              	.LBE1302:
 8454              	.LBB1303:
 8455              	.LBB1084:
 8456              	.LBB1075:
 8457              	.LBB1056:
 805:src/main.cpp  ****             }
 8458              		.loc 6 805 39 view .LVU2652
 8459 2234 FFF7FEFF 		bl	sqrtf
 8460              	.LVL716:
 8461 2238 F0EE407A 		vmov.f32	s15, s0
 8462 223c FFF7AAB8 		b	.L224
 8463              	.LVL717:
 8464              	.L486:
 805:src/main.cpp  ****             }
 8465              		.loc 6 805 39 view .LVU2653
 8466              	.LBE1056:
 8467              	.LBE1075:
 8468              	.LBE1084:
 8469              	.LBE1303:
 8470              	.LBB1304:
 8471              	.LBB1247:
 8472              	.LBB1242:
 8473              	.LBB1237:
 229:src/main.cpp  ****             hw.dac.WriteValue(DacHandle::Channel::ONE, (uint16_t)(led1 * LED1_MAX));
 8474              		.loc 6 229 33 view .LVU2654
 8475 2240 FFF7FEFF 		bl	sqrtf
 8476              	.LVL718:
 8477 2244 B0EE407A 		vmov.f32	s14, s0
 8478 2248 FEF71EBF 		b	.L139
 8479              	.LVL719:
 8480              	.L534:
 227:src/main.cpp  ****             float led2   = sqrtf(sqrtf(l1_raw));              // pos 0  (DAC2)
 8481              		.loc 6 227 33 view .LVU2655
 8482 224c B0EE470A 		vmov.f32	s0, s14
 8483              	.LVL720:
 227:src/main.cpp  ****             float led2   = sqrtf(sqrtf(l1_raw));              // pos 0  (DAC2)
 8484              		.loc 6 227 33 view .LVU2656
 8485 2250 FFF7FEFF 		bl	sqrtf
 8486              	.LVL721:
 227:src/main.cpp  ****             float led2   = sqrtf(sqrtf(l1_raw));              // pos 0  (DAC2)
 8487              		.loc 6 227 33 view .LVU2657
 8488 2254 FEF7F0BE 		b	.L124
 8489              	.LVL722:
 8490              	.L297:
 227:src/main.cpp  ****             float led2   = sqrtf(sqrtf(l1_raw));              // pos 0  (DAC2)
 8491              		.loc 6 227 33 view .LVU2658
 8492              	.LBE1237:
 8493              	.LBE1242:
 8494              	.LBE1247:
 8495              	.LBE1304:
 8496              	.LBB1305:
ARM GAS  /tmp/claude-502/ccJ8DnOJ.s 			page 229


 8497              	.LBB783:
 504:src/main.cpp  ****                 }
 8498              		.loc 6 504 32 view .LVU2659
 8499 2258 079B     		ldr	r3, [sp, #28]
 8500 225a 119E     		ldr	r6, [sp, #68]
 8501 225c 0997     		str	r7, [sp, #36]
 8502              	.LVL723:
 504:src/main.cpp  ****                 }
 8503              		.loc 6 504 32 view .LVU2660
 8504 225e 1793     		str	r3, [sp, #92]
 8505              	.LVL724:
 504:src/main.cpp  ****                 }
 8506              		.loc 6 504 32 view .LVU2661
 8507 2260 FEF76EBE 		b	.L72
 8508              	.LVL725:
 8509              	.L485:
 504:src/main.cpp  ****                 }
 8510              		.loc 6 504 32 view .LVU2662
 8511              	.LBE783:
 8512              	.LBE1305:
 8513              	.LBB1306:
 8514              	.LBB1248:
 8515              	.LBB1243:
 8516              	.LBB1238:
 229:src/main.cpp  ****             hw.dac.WriteValue(DacHandle::Channel::ONE, (uint16_t)(led1 * LED1_MAX));
 8517              		.loc 6 229 33 view .LVU2663
 8518 2264 B0EE6A0A 		vmov.f32	s0, s21
 8519 2268 FFF7FEFF 		bl	sqrtf
 8520              	.LVL726:
 8521 226c FEF704BF 		b	.L136
 8522              	.LVL727:
 8523              	.L484:
 228:src/main.cpp  ****             float led3   = sqrtf(sqrtf(l3_raw)) * LED3_INTENSITY; // pos 1 (PWM A0)
 8524              		.loc 6 228 33 view .LVU2664
 8525 2270 FFF7FEFF 		bl	sqrtf
 8526              	.LVL728:
 8527 2274 B0EE40BA 		vmov.f32	s22, s0
 8528              	.LVL729:
 228:src/main.cpp  ****             float led3   = sqrtf(sqrtf(l3_raw)) * LED3_INTENSITY; // pos 1 (PWM A0)
 8529              		.loc 6 228 33 view .LVU2665
 8530 2278 FEF7F6BE 		b	.L133
 8531              	.LVL730:
 8532              	.L483:
 228:src/main.cpp  ****             float led3   = sqrtf(sqrtf(l3_raw)) * LED3_INTENSITY; // pos 1 (PWM A0)
 8533              		.loc 6 228 33 view .LVU2666
 8534 227c B0EE4B0A 		vmov.f32	s0, s22
 8535 2280 FFF7FEFF 		bl	sqrtf
 8536              	.LVL731:
 8537 2284 FEF7E8BE 		b	.L130
 8538              	.L575:
 8539              		.align	2
 8540              	.L574:
 8541 2288 00000000 		.word	.LANCHOR3
 8542 228c 00000000 		.word	.LANCHOR4
 8543 2290 400B0000 		.word	.LANCHOR4+2880
 8544 2294 D8010000 		.word	.LC18
 8545 2298 07000000 		.word	7
ARM GAS  /tmp/claude-502/ccJ8DnOJ.s 			page 230


 8546 229c 00000000 		.word	g_bank
 8547 22a0 9C010000 		.word	.LC15
 8548 22a4 20000000 		.word	.LANCHOR0+32
 8549 22a8 CDCC4C3D 		.word	1028443341
 8550 22ac 00000000 		.word	0
 8551 22b0 9C000000 		.word	.LC8
 8552 22b4 00000000 		.word	g_led3_duty
 8553 22b8 9A99593F 		.word	1062836634
 8554 22bc 9A99193E 		.word	1041865114
 8555              	.LBE1238:
 8556              	.LBE1243:
 8557              	.LBE1248:
 8558              	.LBE1306:
 8559              	.LBE1312:
 8560              		.cfi_endproc
 8561              	.LFE2583:
 8563              		.section	.text.startup._GLOBAL__sub_I_g_voice_idx,"ax",%progbits
 8564              		.align	1
 8565              		.p2align 2,,3
 8566              		.syntax unified
 8567              		.thumb
 8568              		.thumb_func
 8570              	_GLOBAL__sub_I_g_voice_idx:
 8571              	.LFB2623:
 933:src/main.cpp  ****     }
 934:src/main.cpp  **** }
 8572              		.loc 6 934 1 is_stmt 1 view -0
 8573              		.cfi_startproc
 8574              		@ args = 0, pretend = 0, frame = 0
 8575              		@ frame_needed = 0, uses_anonymous_args = 0
 8576              	.LBB1342:
 8577              	.LBI1342:
 8578              		.loc 6 934 1 view .LVU2668
 8579              	.LVL732:
 8580              	.LBB1343:
 8581              	.LBB1344:
 8582              	.LBI1344:
  21:/Users/reza.kalfane/Workspaces/Daisy/DaisyExamples/libDaisy/src/daisy_seed.h ****     ~DaisySeed() {}
 8583              		.loc 1 21 5 view .LVU2669
 8584              	.LBB1345:
 8585              	.LBB1346:
 8586              	.LBI1346:
 8587              		.file 9 "/Users/reza.kalfane/Workspaces/Daisy/DaisyExamples/libDaisy/src/per/qspi.h"
   1:/Users/reza.kalfane/Workspaces/Daisy/DaisyExamples/libDaisy/src/per/qspi.h **** #ifndef DSY_QSPI
   2:/Users/reza.kalfane/Workspaces/Daisy/DaisyExamples/libDaisy/src/per/qspi.h **** #define DSY_QSPI /**< Macro */
   3:/Users/reza.kalfane/Workspaces/Daisy/DaisyExamples/libDaisy/src/per/qspi.h **** 
   4:/Users/reza.kalfane/Workspaces/Daisy/DaisyExamples/libDaisy/src/per/qspi.h **** #ifndef UNIT_TEST // for unit tests, a dummy implementation
   5:/Users/reza.kalfane/Workspaces/Daisy/DaisyExamples/libDaisy/src/per/qspi.h **** 
   6:/Users/reza.kalfane/Workspaces/Daisy/DaisyExamples/libDaisy/src/per/qspi.h **** #include <cstdint>
   7:/Users/reza.kalfane/Workspaces/Daisy/DaisyExamples/libDaisy/src/per/qspi.h **** #include "daisy_core.h" // Added for dsy_gpio_pin typedef
   8:/Users/reza.kalfane/Workspaces/Daisy/DaisyExamples/libDaisy/src/per/qspi.h **** 
   9:/Users/reza.kalfane/Workspaces/Daisy/DaisyExamples/libDaisy/src/per/qspi.h **** #define DSY_QSPI_TEXT       \
  10:/Users/reza.kalfane/Workspaces/Daisy/DaisyExamples/libDaisy/src/per/qspi.h ****     __attribute__((section( \
  11:/Users/reza.kalfane/Workspaces/Daisy/DaisyExamples/libDaisy/src/per/qspi.h ****         ".qspiflash_text"))) /**< used for reading memory in memory_mapped mode. */
  12:/Users/reza.kalfane/Workspaces/Daisy/DaisyExamples/libDaisy/src/per/qspi.h **** #define DSY_QSPI_DATA       \
  13:/Users/reza.kalfane/Workspaces/Daisy/DaisyExamples/libDaisy/src/per/qspi.h ****     __attribute__((section( \
  14:/Users/reza.kalfane/Workspaces/Daisy/DaisyExamples/libDaisy/src/per/qspi.h ****         ".qspiflash_data"))) /**< used for reading memory in memory_mapped mode. */
ARM GAS  /tmp/claude-502/ccJ8DnOJ.s 			page 231


  15:/Users/reza.kalfane/Workspaces/Daisy/DaisyExamples/libDaisy/src/per/qspi.h **** #define DSY_QSPI_BSS        \
  16:/Users/reza.kalfane/Workspaces/Daisy/DaisyExamples/libDaisy/src/per/qspi.h ****     __attribute__((section( \
  17:/Users/reza.kalfane/Workspaces/Daisy/DaisyExamples/libDaisy/src/per/qspi.h ****         ".qspiflash_bss"))) /**< used for reading memory in memory_mapped mode. */
  18:/Users/reza.kalfane/Workspaces/Daisy/DaisyExamples/libDaisy/src/per/qspi.h **** 
  19:/Users/reza.kalfane/Workspaces/Daisy/DaisyExamples/libDaisy/src/per/qspi.h **** namespace daisy
  20:/Users/reza.kalfane/Workspaces/Daisy/DaisyExamples/libDaisy/src/per/qspi.h **** {
  21:/Users/reza.kalfane/Workspaces/Daisy/DaisyExamples/libDaisy/src/per/qspi.h **** /** @addtogroup serial
  22:/Users/reza.kalfane/Workspaces/Daisy/DaisyExamples/libDaisy/src/per/qspi.h **** @{
  23:/Users/reza.kalfane/Workspaces/Daisy/DaisyExamples/libDaisy/src/per/qspi.h **** */
  24:/Users/reza.kalfane/Workspaces/Daisy/DaisyExamples/libDaisy/src/per/qspi.h **** 
  25:/Users/reza.kalfane/Workspaces/Daisy/DaisyExamples/libDaisy/src/per/qspi.h **** /** 
  26:/Users/reza.kalfane/Workspaces/Daisy/DaisyExamples/libDaisy/src/per/qspi.h ****  Driver for QSPI peripheral to interface with external flash memory. \n 
  27:/Users/reza.kalfane/Workspaces/Daisy/DaisyExamples/libDaisy/src/per/qspi.h ****     Currently supported QSPI Devices: \n 
  28:/Users/reza.kalfane/Workspaces/Daisy/DaisyExamples/libDaisy/src/per/qspi.h ****     * IS25LP080D
  29:/Users/reza.kalfane/Workspaces/Daisy/DaisyExamples/libDaisy/src/per/qspi.h **** */
  30:/Users/reza.kalfane/Workspaces/Daisy/DaisyExamples/libDaisy/src/per/qspi.h **** class QSPIHandle
  31:/Users/reza.kalfane/Workspaces/Daisy/DaisyExamples/libDaisy/src/per/qspi.h **** {
  32:/Users/reza.kalfane/Workspaces/Daisy/DaisyExamples/libDaisy/src/per/qspi.h ****   public:
  33:/Users/reza.kalfane/Workspaces/Daisy/DaisyExamples/libDaisy/src/per/qspi.h ****     enum Result
  34:/Users/reza.kalfane/Workspaces/Daisy/DaisyExamples/libDaisy/src/per/qspi.h ****     {
  35:/Users/reza.kalfane/Workspaces/Daisy/DaisyExamples/libDaisy/src/per/qspi.h ****         OK = 0,
  36:/Users/reza.kalfane/Workspaces/Daisy/DaisyExamples/libDaisy/src/per/qspi.h ****         ERR
  37:/Users/reza.kalfane/Workspaces/Daisy/DaisyExamples/libDaisy/src/per/qspi.h ****     };
  38:/Users/reza.kalfane/Workspaces/Daisy/DaisyExamples/libDaisy/src/per/qspi.h **** 
  39:/Users/reza.kalfane/Workspaces/Daisy/DaisyExamples/libDaisy/src/per/qspi.h ****     /** Indicates the current status of the module. 
  40:/Users/reza.kalfane/Workspaces/Daisy/DaisyExamples/libDaisy/src/per/qspi.h ****          *  Warnings are indicated by a leading W.
  41:/Users/reza.kalfane/Workspaces/Daisy/DaisyExamples/libDaisy/src/per/qspi.h ****          *  Errors are indicated by a leading E and cause an immediate exit.
  42:/Users/reza.kalfane/Workspaces/Daisy/DaisyExamples/libDaisy/src/per/qspi.h ****          * 
  43:/Users/reza.kalfane/Workspaces/Daisy/DaisyExamples/libDaisy/src/per/qspi.h ****          *  \param GOOD - No errors have been reported.
  44:/Users/reza.kalfane/Workspaces/Daisy/DaisyExamples/libDaisy/src/per/qspi.h ****          *  \param E_HAL_ERROR - HAL code did not return HAL_OK.
  45:/Users/reza.kalfane/Workspaces/Daisy/DaisyExamples/libDaisy/src/per/qspi.h ****          *  \param E_SWITCHING_MODES - An error was encountered while switching QSPI peripheral mod
  46:/Users/reza.kalfane/Workspaces/Daisy/DaisyExamples/libDaisy/src/per/qspi.h ****          *  \param E_INVALID_MODE - QSPI should not be written to while the program is executing fr
  47:/Users/reza.kalfane/Workspaces/Daisy/DaisyExamples/libDaisy/src/per/qspi.h ****          */
  48:/Users/reza.kalfane/Workspaces/Daisy/DaisyExamples/libDaisy/src/per/qspi.h ****     enum Status
  49:/Users/reza.kalfane/Workspaces/Daisy/DaisyExamples/libDaisy/src/per/qspi.h ****     {
  50:/Users/reza.kalfane/Workspaces/Daisy/DaisyExamples/libDaisy/src/per/qspi.h ****         GOOD = 0,
  51:/Users/reza.kalfane/Workspaces/Daisy/DaisyExamples/libDaisy/src/per/qspi.h ****         E_HAL_ERROR,
  52:/Users/reza.kalfane/Workspaces/Daisy/DaisyExamples/libDaisy/src/per/qspi.h ****         E_SWITCHING_MODES,
  53:/Users/reza.kalfane/Workspaces/Daisy/DaisyExamples/libDaisy/src/per/qspi.h ****         E_INVALID_MODE,
  54:/Users/reza.kalfane/Workspaces/Daisy/DaisyExamples/libDaisy/src/per/qspi.h ****     };
  55:/Users/reza.kalfane/Workspaces/Daisy/DaisyExamples/libDaisy/src/per/qspi.h **** 
  56:/Users/reza.kalfane/Workspaces/Daisy/DaisyExamples/libDaisy/src/per/qspi.h ****     /** Configuration structure for interfacing with QSPI Driver */
  57:/Users/reza.kalfane/Workspaces/Daisy/DaisyExamples/libDaisy/src/per/qspi.h ****     struct Config
  58:/Users/reza.kalfane/Workspaces/Daisy/DaisyExamples/libDaisy/src/per/qspi.h ****     {
  59:/Users/reza.kalfane/Workspaces/Daisy/DaisyExamples/libDaisy/src/per/qspi.h ****         /** Flash Devices supported. (Both of these are more-or-less the same, just different sizes
  60:/Users/reza.kalfane/Workspaces/Daisy/DaisyExamples/libDaisy/src/per/qspi.h ****         enum Device
  61:/Users/reza.kalfane/Workspaces/Daisy/DaisyExamples/libDaisy/src/per/qspi.h ****         {
  62:/Users/reza.kalfane/Workspaces/Daisy/DaisyExamples/libDaisy/src/per/qspi.h ****             IS25LP080D,  /**< & */
  63:/Users/reza.kalfane/Workspaces/Daisy/DaisyExamples/libDaisy/src/per/qspi.h ****             IS25LP064A,  /**< & */
  64:/Users/reza.kalfane/Workspaces/Daisy/DaisyExamples/libDaisy/src/per/qspi.h ****             DEVICE_LAST, /**< & */
  65:/Users/reza.kalfane/Workspaces/Daisy/DaisyExamples/libDaisy/src/per/qspi.h ****         };
  66:/Users/reza.kalfane/Workspaces/Daisy/DaisyExamples/libDaisy/src/per/qspi.h **** 
  67:/Users/reza.kalfane/Workspaces/Daisy/DaisyExamples/libDaisy/src/per/qspi.h ****         /** 
  68:/Users/reza.kalfane/Workspaces/Daisy/DaisyExamples/libDaisy/src/per/qspi.h ****         Modes of operation.
  69:/Users/reza.kalfane/Workspaces/Daisy/DaisyExamples/libDaisy/src/per/qspi.h ****         Memory Mapped mode: QSPI configured so that the QSPI can be
  70:/Users/reza.kalfane/Workspaces/Daisy/DaisyExamples/libDaisy/src/per/qspi.h ****         read from starting address 0x90000000. Writing is not
  71:/Users/reza.kalfane/Workspaces/Daisy/DaisyExamples/libDaisy/src/per/qspi.h ****         possible in this mode. \n 
ARM GAS  /tmp/claude-502/ccJ8DnOJ.s 			page 232


  72:/Users/reza.kalfane/Workspaces/Daisy/DaisyExamples/libDaisy/src/per/qspi.h ****         Indirect Polling mode: Device driver enabled. 
  73:/Users/reza.kalfane/Workspaces/Daisy/DaisyExamples/libDaisy/src/per/qspi.h ****         */
  74:/Users/reza.kalfane/Workspaces/Daisy/DaisyExamples/libDaisy/src/per/qspi.h ****         enum Mode
  75:/Users/reza.kalfane/Workspaces/Daisy/DaisyExamples/libDaisy/src/per/qspi.h ****         {
  76:/Users/reza.kalfane/Workspaces/Daisy/DaisyExamples/libDaisy/src/per/qspi.h ****             MEMORY_MAPPED,    /**< & */
  77:/Users/reza.kalfane/Workspaces/Daisy/DaisyExamples/libDaisy/src/per/qspi.h ****             INDIRECT_POLLING, /**< & */
  78:/Users/reza.kalfane/Workspaces/Daisy/DaisyExamples/libDaisy/src/per/qspi.h ****             MODE_LAST,
  79:/Users/reza.kalfane/Workspaces/Daisy/DaisyExamples/libDaisy/src/per/qspi.h ****         };
  80:/Users/reza.kalfane/Workspaces/Daisy/DaisyExamples/libDaisy/src/per/qspi.h **** 
  81:/Users/reza.kalfane/Workspaces/Daisy/DaisyExamples/libDaisy/src/per/qspi.h ****         //SCK,  CE# (active low)
  82:/Users/reza.kalfane/Workspaces/Daisy/DaisyExamples/libDaisy/src/per/qspi.h ****         struct
  83:/Users/reza.kalfane/Workspaces/Daisy/DaisyExamples/libDaisy/src/per/qspi.h ****         {
  84:/Users/reza.kalfane/Workspaces/Daisy/DaisyExamples/libDaisy/src/per/qspi.h ****             dsy_gpio_pin io0; /**< & */
  85:/Users/reza.kalfane/Workspaces/Daisy/DaisyExamples/libDaisy/src/per/qspi.h ****             dsy_gpio_pin io1; /**< & */
  86:/Users/reza.kalfane/Workspaces/Daisy/DaisyExamples/libDaisy/src/per/qspi.h ****             dsy_gpio_pin io2; /**< & */
  87:/Users/reza.kalfane/Workspaces/Daisy/DaisyExamples/libDaisy/src/per/qspi.h ****             dsy_gpio_pin io3; /**< & */
  88:/Users/reza.kalfane/Workspaces/Daisy/DaisyExamples/libDaisy/src/per/qspi.h ****             dsy_gpio_pin clk; /**< & */
  89:/Users/reza.kalfane/Workspaces/Daisy/DaisyExamples/libDaisy/src/per/qspi.h ****             dsy_gpio_pin ncs; /**< & */
  90:/Users/reza.kalfane/Workspaces/Daisy/DaisyExamples/libDaisy/src/per/qspi.h ****         } pin_config;
  91:/Users/reza.kalfane/Workspaces/Daisy/DaisyExamples/libDaisy/src/per/qspi.h **** 
  92:/Users/reza.kalfane/Workspaces/Daisy/DaisyExamples/libDaisy/src/per/qspi.h ****         Device device;
  93:/Users/reza.kalfane/Workspaces/Daisy/DaisyExamples/libDaisy/src/per/qspi.h ****         Mode   mode;
  94:/Users/reza.kalfane/Workspaces/Daisy/DaisyExamples/libDaisy/src/per/qspi.h ****     };
  95:/Users/reza.kalfane/Workspaces/Daisy/DaisyExamples/libDaisy/src/per/qspi.h **** 
  96:/Users/reza.kalfane/Workspaces/Daisy/DaisyExamples/libDaisy/src/per/qspi.h ****     /** 
  97:/Users/reza.kalfane/Workspaces/Daisy/DaisyExamples/libDaisy/src/per/qspi.h ****         Initializes QSPI peripheral, and Resets, and prepares memory for access.
  98:/Users/reza.kalfane/Workspaces/Daisy/DaisyExamples/libDaisy/src/per/qspi.h ****         \param config should be populated with the mode, device and pin_config before calling this 
  99:/Users/reza.kalfane/Workspaces/Daisy/DaisyExamples/libDaisy/src/per/qspi.h ****         \return Result::OK or Result::ERR
 100:/Users/reza.kalfane/Workspaces/Daisy/DaisyExamples/libDaisy/src/per/qspi.h ****         */
 101:/Users/reza.kalfane/Workspaces/Daisy/DaisyExamples/libDaisy/src/per/qspi.h ****     Result Init(const Config& config);
 102:/Users/reza.kalfane/Workspaces/Daisy/DaisyExamples/libDaisy/src/per/qspi.h **** 
 103:/Users/reza.kalfane/Workspaces/Daisy/DaisyExamples/libDaisy/src/per/qspi.h ****     /** Returns the current config. */
 104:/Users/reza.kalfane/Workspaces/Daisy/DaisyExamples/libDaisy/src/per/qspi.h ****     const Config& GetConfig() const;
 105:/Users/reza.kalfane/Workspaces/Daisy/DaisyExamples/libDaisy/src/per/qspi.h **** 
 106:/Users/reza.kalfane/Workspaces/Daisy/DaisyExamples/libDaisy/src/per/qspi.h ****     // Couldn't this just be called before anything else in init? That
 107:/Users/reza.kalfane/Workspaces/Daisy/DaisyExamples/libDaisy/src/per/qspi.h ****     // would make manually calling it unnecessary.
 108:/Users/reza.kalfane/Workspaces/Daisy/DaisyExamples/libDaisy/src/per/qspi.h ****     /** 
 109:/Users/reza.kalfane/Workspaces/Daisy/DaisyExamples/libDaisy/src/per/qspi.h ****         Deinitializes the peripheral
 110:/Users/reza.kalfane/Workspaces/Daisy/DaisyExamples/libDaisy/src/per/qspi.h ****         This should be called before reinitializing QSPI in a different mode.
 111:/Users/reza.kalfane/Workspaces/Daisy/DaisyExamples/libDaisy/src/per/qspi.h ****         \return Result::OK or Result::ERR
 112:/Users/reza.kalfane/Workspaces/Daisy/DaisyExamples/libDaisy/src/per/qspi.h ****         */
 113:/Users/reza.kalfane/Workspaces/Daisy/DaisyExamples/libDaisy/src/per/qspi.h ****     Result DeInit();
 114:/Users/reza.kalfane/Workspaces/Daisy/DaisyExamples/libDaisy/src/per/qspi.h **** 
 115:/Users/reza.kalfane/Workspaces/Daisy/DaisyExamples/libDaisy/src/per/qspi.h ****     /** 
 116:/Users/reza.kalfane/Workspaces/Daisy/DaisyExamples/libDaisy/src/per/qspi.h ****         Writes a single page to to the specified address on the QSPI chip.
 117:/Users/reza.kalfane/Workspaces/Daisy/DaisyExamples/libDaisy/src/per/qspi.h ****         For IS25LP*, page size is 256 bytes.
 118:/Users/reza.kalfane/Workspaces/Daisy/DaisyExamples/libDaisy/src/per/qspi.h ****         \param address Address to write to
 119:/Users/reza.kalfane/Workspaces/Daisy/DaisyExamples/libDaisy/src/per/qspi.h ****         \param size Buffer size
 120:/Users/reza.kalfane/Workspaces/Daisy/DaisyExamples/libDaisy/src/per/qspi.h ****         \param buffer Buffer to write
 121:/Users/reza.kalfane/Workspaces/Daisy/DaisyExamples/libDaisy/src/per/qspi.h ****         \return Result::OK or Result::ERR
 122:/Users/reza.kalfane/Workspaces/Daisy/DaisyExamples/libDaisy/src/per/qspi.h ****         */
 123:/Users/reza.kalfane/Workspaces/Daisy/DaisyExamples/libDaisy/src/per/qspi.h ****     Result WritePage(uint32_t address, uint32_t size, uint8_t* buffer);
 124:/Users/reza.kalfane/Workspaces/Daisy/DaisyExamples/libDaisy/src/per/qspi.h **** 
 125:/Users/reza.kalfane/Workspaces/Daisy/DaisyExamples/libDaisy/src/per/qspi.h ****     /** 
 126:/Users/reza.kalfane/Workspaces/Daisy/DaisyExamples/libDaisy/src/per/qspi.h ****         Writes data in buffer to to the QSPI. Starting at address to address+size 
 127:/Users/reza.kalfane/Workspaces/Daisy/DaisyExamples/libDaisy/src/per/qspi.h ****         \param address Address to write to
 128:/Users/reza.kalfane/Workspaces/Daisy/DaisyExamples/libDaisy/src/per/qspi.h ****         \param size Buffer size
ARM GAS  /tmp/claude-502/ccJ8DnOJ.s 			page 233


 129:/Users/reza.kalfane/Workspaces/Daisy/DaisyExamples/libDaisy/src/per/qspi.h ****         \param buffer Buffer to write
 130:/Users/reza.kalfane/Workspaces/Daisy/DaisyExamples/libDaisy/src/per/qspi.h ****         \return Result::OK or Result::ERR
 131:/Users/reza.kalfane/Workspaces/Daisy/DaisyExamples/libDaisy/src/per/qspi.h ****         */
 132:/Users/reza.kalfane/Workspaces/Daisy/DaisyExamples/libDaisy/src/per/qspi.h ****     Result Write(uint32_t address, uint32_t size, uint8_t* buffer);
 133:/Users/reza.kalfane/Workspaces/Daisy/DaisyExamples/libDaisy/src/per/qspi.h **** 
 134:/Users/reza.kalfane/Workspaces/Daisy/DaisyExamples/libDaisy/src/per/qspi.h ****     /** 
 135:/Users/reza.kalfane/Workspaces/Daisy/DaisyExamples/libDaisy/src/per/qspi.h ****         Erases the area specified on the chip.
 136:/Users/reza.kalfane/Workspaces/Daisy/DaisyExamples/libDaisy/src/per/qspi.h ****         Erasures will happen by 4K, 32K or 64K increments.
 137:/Users/reza.kalfane/Workspaces/Daisy/DaisyExamples/libDaisy/src/per/qspi.h ****         Smallest erase possible is 4kB at a time. (on IS25LP*)
 138:/Users/reza.kalfane/Workspaces/Daisy/DaisyExamples/libDaisy/src/per/qspi.h ****         \param start_addr Address to begin erasing from
 139:/Users/reza.kalfane/Workspaces/Daisy/DaisyExamples/libDaisy/src/per/qspi.h ****         \param end_addr  Address to stop erasing at
 140:/Users/reza.kalfane/Workspaces/Daisy/DaisyExamples/libDaisy/src/per/qspi.h ****         \return Result::OK or Result::ERR
 141:/Users/reza.kalfane/Workspaces/Daisy/DaisyExamples/libDaisy/src/per/qspi.h ****         */
 142:/Users/reza.kalfane/Workspaces/Daisy/DaisyExamples/libDaisy/src/per/qspi.h ****     Result Erase(uint32_t start_addr, uint32_t end_addr);
 143:/Users/reza.kalfane/Workspaces/Daisy/DaisyExamples/libDaisy/src/per/qspi.h **** 
 144:/Users/reza.kalfane/Workspaces/Daisy/DaisyExamples/libDaisy/src/per/qspi.h ****     /**  
 145:/Users/reza.kalfane/Workspaces/Daisy/DaisyExamples/libDaisy/src/per/qspi.h ****          Erases a single sector of the chip.  
 146:/Users/reza.kalfane/Workspaces/Daisy/DaisyExamples/libDaisy/src/per/qspi.h ****         TODO: Document the size of this function. 
 147:/Users/reza.kalfane/Workspaces/Daisy/DaisyExamples/libDaisy/src/per/qspi.h ****         \param address Address of sector to erase
 148:/Users/reza.kalfane/Workspaces/Daisy/DaisyExamples/libDaisy/src/per/qspi.h ****         \return Result::OK or Result::ERR
 149:/Users/reza.kalfane/Workspaces/Daisy/DaisyExamples/libDaisy/src/per/qspi.h ****         */
 150:/Users/reza.kalfane/Workspaces/Daisy/DaisyExamples/libDaisy/src/per/qspi.h ****     Result EraseSector(uint32_t address);
 151:/Users/reza.kalfane/Workspaces/Daisy/DaisyExamples/libDaisy/src/per/qspi.h **** 
 152:/Users/reza.kalfane/Workspaces/Daisy/DaisyExamples/libDaisy/src/per/qspi.h ****     /** Returns the current class status. Useful for debugging.
 153:/Users/reza.kalfane/Workspaces/Daisy/DaisyExamples/libDaisy/src/per/qspi.h ****      *  \returns Status
 154:/Users/reza.kalfane/Workspaces/Daisy/DaisyExamples/libDaisy/src/per/qspi.h ****      */
 155:/Users/reza.kalfane/Workspaces/Daisy/DaisyExamples/libDaisy/src/per/qspi.h ****     Status GetStatus();
 156:/Users/reza.kalfane/Workspaces/Daisy/DaisyExamples/libDaisy/src/per/qspi.h **** 
 157:/Users/reza.kalfane/Workspaces/Daisy/DaisyExamples/libDaisy/src/per/qspi.h ****     /** Returns a pointer to the actual memory used 
 158:/Users/reza.kalfane/Workspaces/Daisy/DaisyExamples/libDaisy/src/per/qspi.h ****      *  The memory at this address is read-only
 159:/Users/reza.kalfane/Workspaces/Daisy/DaisyExamples/libDaisy/src/per/qspi.h ****      *  to write to it use the Write function.
 160:/Users/reza.kalfane/Workspaces/Daisy/DaisyExamples/libDaisy/src/per/qspi.h ****      * 
 161:/Users/reza.kalfane/Workspaces/Daisy/DaisyExamples/libDaisy/src/per/qspi.h ****      *  \param offset returns the pointer starting this 
 162:/Users/reza.kalfane/Workspaces/Daisy/DaisyExamples/libDaisy/src/per/qspi.h ****      *                many bytes into the memory
 163:/Users/reza.kalfane/Workspaces/Daisy/DaisyExamples/libDaisy/src/per/qspi.h ****     */
 164:/Users/reza.kalfane/Workspaces/Daisy/DaisyExamples/libDaisy/src/per/qspi.h ****     void* GetData(uint32_t offset = 0);
 165:/Users/reza.kalfane/Workspaces/Daisy/DaisyExamples/libDaisy/src/per/qspi.h **** 
 166:/Users/reza.kalfane/Workspaces/Daisy/DaisyExamples/libDaisy/src/per/qspi.h ****     QSPIHandle() : pimpl_(nullptr) {}
 8588              		.loc 9 166 5 view .LVU2670
 8589              	.LBE1346:
 8590              	.LBE1345:
 8591              	.LBE1344:
 8592              	.LBE1343:
 8593              	.LBE1342:
 8594              		.loc 6 934 1 is_stmt 0 view .LVU2671
 8595 0000 10B5     		push	{r4, lr}
 8596              		.cfi_def_cfa_offset 8
 8597              		.cfi_offset 4, -8
 8598              		.cfi_offset 14, -4
 8599              	.LBB1379:
 8600              	.LBB1378:
 8601              	.LBB1367:
 8602              	.LBB1365:
 8603              	.LBB1351:
 8604              	.LBB1347:
 8605              	.LBB1348:
 8606              		.loc 9 166 34 view .LVU2672
ARM GAS  /tmp/claude-502/ccJ8DnOJ.s 			page 234


 8607 0002 0948     		ldr	r0, .L578
 8608 0004 0024     		movs	r4, #0
 8609              	.LBE1348:
 8610              	.LBE1347:
 8611              	.LBE1351:
 8612              	.LBE1365:
 8613              	.LBE1367:
  53:src/main.cpp  **** GPIO      led3;  // software-PWM LED on A0 (ADC0 / D15 / pin 22)
 8614              		.loc 6 53 11 view .LVU2673
 8615 0006 094A     		ldr	r2, .L578+4
 8616 0008 0949     		ldr	r1, .L578+8
 8617              	.LBB1368:
 8618              	.LBB1366:
 8619              	.LBB1352:
 8620              	.LBB1350:
 8621              	.LBB1349:
 8622              		.loc 9 166 34 view .LVU2674
 8623 000a 0460     		str	r4, [r0]
 8624              	.LVL733:
 8625              		.loc 9 166 34 view .LVU2675
 8626              	.LBE1349:
 8627              	.LBE1350:
 8628              	.LBE1352:
 8629              	.LBB1353:
 8630              	.LBI1353:
  95:/Users/reza.kalfane/Workspaces/Daisy/DaisyExamples/libDaisy/src/hid/audio.h ****     ~AudioHandle() {}
 8631              		.loc 5 95 5 is_stmt 1 view .LVU2676
 8632              	.LBB1354:
 8633              	.LBB1355:
  95:/Users/reza.kalfane/Workspaces/Daisy/DaisyExamples/libDaisy/src/hid/audio.h ****     ~AudioHandle() {}
 8634              		.loc 5 95 35 is_stmt 0 view .LVU2677
 8635 000c 4461     		str	r4, [r0, #20]
 8636              	.LVL734:
  95:/Users/reza.kalfane/Workspaces/Daisy/DaisyExamples/libDaisy/src/hid/audio.h ****     ~AudioHandle() {}
 8637              		.loc 5 95 35 view .LVU2678
 8638              	.LBE1355:
 8639              	.LBE1354:
 8640              	.LBE1353:
 8641              	.LBB1356:
 8642              	.LBI1356:
 109:/Users/reza.kalfane/Workspaces/Daisy/DaisyExamples/libDaisy/src/per/adc.h ****     ~AdcHandle() {}
 8643              		.loc 4 109 5 is_stmt 1 view .LVU2679
 109:/Users/reza.kalfane/Workspaces/Daisy/DaisyExamples/libDaisy/src/per/adc.h ****     ~AdcHandle() {}
 8644              		.loc 4 109 5 is_stmt 0 view .LVU2680
 8645              	.LBE1356:
 8646              	.LBB1357:
 8647              	.LBI1357:
 8648              		.file 10 "/Users/reza.kalfane/Workspaces/Daisy/DaisyExamples/libDaisy/src/per/dac.h"
   1:/Users/reza.kalfane/Workspaces/Daisy/DaisyExamples/libDaisy/src/per/dac.h **** #pragma once
   2:/Users/reza.kalfane/Workspaces/Daisy/DaisyExamples/libDaisy/src/per/dac.h **** #ifndef DSY_DAC_H
   3:/Users/reza.kalfane/Workspaces/Daisy/DaisyExamples/libDaisy/src/per/dac.h **** #define DSY_DAC_H
   4:/Users/reza.kalfane/Workspaces/Daisy/DaisyExamples/libDaisy/src/per/dac.h **** 
   5:/Users/reza.kalfane/Workspaces/Daisy/DaisyExamples/libDaisy/src/per/dac.h **** #include "daisy_core.h"
   6:/Users/reza.kalfane/Workspaces/Daisy/DaisyExamples/libDaisy/src/per/dac.h **** 
   7:/Users/reza.kalfane/Workspaces/Daisy/DaisyExamples/libDaisy/src/per/dac.h **** namespace daisy
   8:/Users/reza.kalfane/Workspaces/Daisy/DaisyExamples/libDaisy/src/per/dac.h **** {
   9:/Users/reza.kalfane/Workspaces/Daisy/DaisyExamples/libDaisy/src/per/dac.h **** /** @brief DAC handle for Built-in DAC Peripheral 
ARM GAS  /tmp/claude-502/ccJ8DnOJ.s 			page 235


  10:/Users/reza.kalfane/Workspaces/Daisy/DaisyExamples/libDaisy/src/per/dac.h ****  *  @ingroup per_analog
  11:/Users/reza.kalfane/Workspaces/Daisy/DaisyExamples/libDaisy/src/per/dac.h ****  ** 
  12:/Users/reza.kalfane/Workspaces/Daisy/DaisyExamples/libDaisy/src/per/dac.h ****  ** For now only Normal Mode is supported,
  13:/Users/reza.kalfane/Workspaces/Daisy/DaisyExamples/libDaisy/src/per/dac.h ****  ** Sample and hold mode provides reduced power consumption, but requires a bit more setup.
  14:/Users/reza.kalfane/Workspaces/Daisy/DaisyExamples/libDaisy/src/per/dac.h ****  **
  15:/Users/reza.kalfane/Workspaces/Daisy/DaisyExamples/libDaisy/src/per/dac.h ****  ** For now connecting the DAC through other internal peripherals is also not supported.
  16:/Users/reza.kalfane/Workspaces/Daisy/DaisyExamples/libDaisy/src/per/dac.h ****  **
  17:/Users/reza.kalfane/Workspaces/Daisy/DaisyExamples/libDaisy/src/per/dac.h ****  ** Since the DAC channels have dedicated pins we don't need to pass in a pin config like with
  18:/Users/reza.kalfane/Workspaces/Daisy/DaisyExamples/libDaisy/src/per/dac.h ****  ** other modules. However, it is still important to not try to use the DAC pins for anything else.
  19:/Users/reza.kalfane/Workspaces/Daisy/DaisyExamples/libDaisy/src/per/dac.h ****  ** DAC Channel 1 is on PA4, and DAC Channel 2 is on PA5
  20:/Users/reza.kalfane/Workspaces/Daisy/DaisyExamples/libDaisy/src/per/dac.h ****  ***/
  21:/Users/reza.kalfane/Workspaces/Daisy/DaisyExamples/libDaisy/src/per/dac.h **** class DacHandle
  22:/Users/reza.kalfane/Workspaces/Daisy/DaisyExamples/libDaisy/src/per/dac.h **** {
  23:/Users/reza.kalfane/Workspaces/Daisy/DaisyExamples/libDaisy/src/per/dac.h ****   public:
  24:/Users/reza.kalfane/Workspaces/Daisy/DaisyExamples/libDaisy/src/per/dac.h ****     /** Return Values for the DacHandle class */
  25:/Users/reza.kalfane/Workspaces/Daisy/DaisyExamples/libDaisy/src/per/dac.h ****     enum class Result
  26:/Users/reza.kalfane/Workspaces/Daisy/DaisyExamples/libDaisy/src/per/dac.h ****     {
  27:/Users/reza.kalfane/Workspaces/Daisy/DaisyExamples/libDaisy/src/per/dac.h ****         OK,
  28:/Users/reza.kalfane/Workspaces/Daisy/DaisyExamples/libDaisy/src/per/dac.h ****         ERR,
  29:/Users/reza.kalfane/Workspaces/Daisy/DaisyExamples/libDaisy/src/per/dac.h ****     };
  30:/Users/reza.kalfane/Workspaces/Daisy/DaisyExamples/libDaisy/src/per/dac.h **** 
  31:/Users/reza.kalfane/Workspaces/Daisy/DaisyExamples/libDaisy/src/per/dac.h ****     /** Selects which channel(s) will be configured for use. */
  32:/Users/reza.kalfane/Workspaces/Daisy/DaisyExamples/libDaisy/src/per/dac.h ****     enum class Channel
  33:/Users/reza.kalfane/Workspaces/Daisy/DaisyExamples/libDaisy/src/per/dac.h ****     {
  34:/Users/reza.kalfane/Workspaces/Daisy/DaisyExamples/libDaisy/src/per/dac.h ****         ONE,
  35:/Users/reza.kalfane/Workspaces/Daisy/DaisyExamples/libDaisy/src/per/dac.h ****         TWO,
  36:/Users/reza.kalfane/Workspaces/Daisy/DaisyExamples/libDaisy/src/per/dac.h ****         BOTH,
  37:/Users/reza.kalfane/Workspaces/Daisy/DaisyExamples/libDaisy/src/per/dac.h ****     };
  38:/Users/reza.kalfane/Workspaces/Daisy/DaisyExamples/libDaisy/src/per/dac.h **** 
  39:/Users/reza.kalfane/Workspaces/Daisy/DaisyExamples/libDaisy/src/per/dac.h ****     /** Sets the Mode for the DAC channels.
  40:/Users/reza.kalfane/Workspaces/Daisy/DaisyExamples/libDaisy/src/per/dac.h ****      **
  41:/Users/reza.kalfane/Workspaces/Daisy/DaisyExamples/libDaisy/src/per/dac.h ****      ** Polling mode uses the blocking mode to transmit a single value at a time.
  42:/Users/reza.kalfane/Workspaces/Daisy/DaisyExamples/libDaisy/src/per/dac.h ****      **
  43:/Users/reza.kalfane/Workspaces/Daisy/DaisyExamples/libDaisy/src/per/dac.h ****      ** DMA mode uses a buffer, and periodically transmits it triggering a 
  44:/Users/reza.kalfane/Workspaces/Daisy/DaisyExamples/libDaisy/src/per/dac.h ****      ** callback to fill the buffer when it is ready for more samples.
  45:/Users/reza.kalfane/Workspaces/Daisy/DaisyExamples/libDaisy/src/per/dac.h ****      ***/
  46:/Users/reza.kalfane/Workspaces/Daisy/DaisyExamples/libDaisy/src/per/dac.h ****     enum class Mode
  47:/Users/reza.kalfane/Workspaces/Daisy/DaisyExamples/libDaisy/src/per/dac.h ****     {
  48:/Users/reza.kalfane/Workspaces/Daisy/DaisyExamples/libDaisy/src/per/dac.h ****         POLLING,
  49:/Users/reza.kalfane/Workspaces/Daisy/DaisyExamples/libDaisy/src/per/dac.h ****         DMA,
  50:/Users/reza.kalfane/Workspaces/Daisy/DaisyExamples/libDaisy/src/per/dac.h ****     };
  51:/Users/reza.kalfane/Workspaces/Daisy/DaisyExamples/libDaisy/src/per/dac.h **** 
  52:/Users/reza.kalfane/Workspaces/Daisy/DaisyExamples/libDaisy/src/per/dac.h ****     /** Sets the number of bits per sample transmitted out of the DAC.
  53:/Users/reza.kalfane/Workspaces/Daisy/DaisyExamples/libDaisy/src/per/dac.h ****      ** The output range will be: 0V - VDDA
  54:/Users/reza.kalfane/Workspaces/Daisy/DaisyExamples/libDaisy/src/per/dac.h ****      ** The resolution will be roughly: bitdepth / (VDDA - 0V) 
  55:/Users/reza.kalfane/Workspaces/Daisy/DaisyExamples/libDaisy/src/per/dac.h ****      ***/
  56:/Users/reza.kalfane/Workspaces/Daisy/DaisyExamples/libDaisy/src/per/dac.h ****     enum class BitDepth
  57:/Users/reza.kalfane/Workspaces/Daisy/DaisyExamples/libDaisy/src/per/dac.h ****     {
  58:/Users/reza.kalfane/Workspaces/Daisy/DaisyExamples/libDaisy/src/per/dac.h ****         BITS_8,
  59:/Users/reza.kalfane/Workspaces/Daisy/DaisyExamples/libDaisy/src/per/dac.h ****         BITS_12
  60:/Users/reza.kalfane/Workspaces/Daisy/DaisyExamples/libDaisy/src/per/dac.h ****     };
  61:/Users/reza.kalfane/Workspaces/Daisy/DaisyExamples/libDaisy/src/per/dac.h **** 
  62:/Users/reza.kalfane/Workspaces/Daisy/DaisyExamples/libDaisy/src/per/dac.h ****     /** Sets whether the DAC output is buffered for higher drive ability. */
  63:/Users/reza.kalfane/Workspaces/Daisy/DaisyExamples/libDaisy/src/per/dac.h ****     enum class BufferState
  64:/Users/reza.kalfane/Workspaces/Daisy/DaisyExamples/libDaisy/src/per/dac.h ****     {
  65:/Users/reza.kalfane/Workspaces/Daisy/DaisyExamples/libDaisy/src/per/dac.h ****         ENABLED,
  66:/Users/reza.kalfane/Workspaces/Daisy/DaisyExamples/libDaisy/src/per/dac.h ****         DISABLED,
ARM GAS  /tmp/claude-502/ccJ8DnOJ.s 			page 236


  67:/Users/reza.kalfane/Workspaces/Daisy/DaisyExamples/libDaisy/src/per/dac.h ****     };
  68:/Users/reza.kalfane/Workspaces/Daisy/DaisyExamples/libDaisy/src/per/dac.h **** 
  69:/Users/reza.kalfane/Workspaces/Daisy/DaisyExamples/libDaisy/src/per/dac.h ****     /** Configuration structure for initializing the DAC structure. */
  70:/Users/reza.kalfane/Workspaces/Daisy/DaisyExamples/libDaisy/src/per/dac.h ****     struct Config
  71:/Users/reza.kalfane/Workspaces/Daisy/DaisyExamples/libDaisy/src/per/dac.h ****     {
  72:/Users/reza.kalfane/Workspaces/Daisy/DaisyExamples/libDaisy/src/per/dac.h ****         /** Target Samplerate in Hz used to configure the internal 
  73:/Users/reza.kalfane/Workspaces/Daisy/DaisyExamples/libDaisy/src/per/dac.h ****          ** timebase for DMA mode. Does nothing in POLLING mode.
  74:/Users/reza.kalfane/Workspaces/Daisy/DaisyExamples/libDaisy/src/per/dac.h ****          ** If the value is 0 at Init time this will default to 48000Hz 
  75:/Users/reza.kalfane/Workspaces/Daisy/DaisyExamples/libDaisy/src/per/dac.h ****          ** otherwise the driver will attempt meet the target.*/
  76:/Users/reza.kalfane/Workspaces/Daisy/DaisyExamples/libDaisy/src/per/dac.h ****         uint32_t target_samplerate;
  77:/Users/reza.kalfane/Workspaces/Daisy/DaisyExamples/libDaisy/src/per/dac.h **** 
  78:/Users/reza.kalfane/Workspaces/Daisy/DaisyExamples/libDaisy/src/per/dac.h ****         Channel     chn;
  79:/Users/reza.kalfane/Workspaces/Daisy/DaisyExamples/libDaisy/src/per/dac.h ****         Mode        mode;
  80:/Users/reza.kalfane/Workspaces/Daisy/DaisyExamples/libDaisy/src/per/dac.h ****         BitDepth    bitdepth;
  81:/Users/reza.kalfane/Workspaces/Daisy/DaisyExamples/libDaisy/src/per/dac.h ****         BufferState buff_state;
  82:/Users/reza.kalfane/Workspaces/Daisy/DaisyExamples/libDaisy/src/per/dac.h ****     };
  83:/Users/reza.kalfane/Workspaces/Daisy/DaisyExamples/libDaisy/src/per/dac.h **** 
  84:/Users/reza.kalfane/Workspaces/Daisy/DaisyExamples/libDaisy/src/per/dac.h ****     DacHandle() : pimpl_(nullptr) {}
 8649              		.loc 10 84 5 is_stmt 1 view .LVU2681
 8650              	.LBB1358:
 8651              	.LBB1359:
 8652              		.loc 10 84 33 is_stmt 0 view .LVU2682
 8653 000e 0462     		str	r4, [r0, #32]
 8654              	.LVL735:
 8655              		.loc 10 84 33 view .LVU2683
 8656              	.LBE1359:
 8657              	.LBE1358:
 8658              	.LBE1357:
 8659              	.LBB1360:
 8660              	.LBI1360:
  40:/Users/reza.kalfane/Workspaces/Daisy/DaisyExamples/libDaisy/src/hid/usb.h **** 
 8661              		.loc 3 40 5 is_stmt 1 view .LVU2684
  40:/Users/reza.kalfane/Workspaces/Daisy/DaisyExamples/libDaisy/src/hid/usb.h **** 
 8662              		.loc 3 40 5 is_stmt 0 view .LVU2685
 8663              	.LBE1360:
 8664              	.LBB1361:
 8665              	.LBI1361:
  96:/Users/reza.kalfane/Workspaces/Daisy/DaisyExamples/libDaisy/src/sys/system.h ****     ~System() {}
 8666              		.loc 2 96 5 is_stmt 1 view .LVU2686
  96:/Users/reza.kalfane/Workspaces/Daisy/DaisyExamples/libDaisy/src/sys/system.h ****     ~System() {}
 8667              		.loc 2 96 5 is_stmt 0 view .LVU2687
 8668              	.LBE1361:
 8669              	.LBB1362:
 8670              	.LBI1362:
 8671              		.file 11 "/Users/reza.kalfane/Workspaces/Daisy/DaisyExamples/libDaisy/src/per/sai.h"
   1:/Users/reza.kalfane/Workspaces/Daisy/DaisyExamples/libDaisy/src/per/sai.h **** #pragma once
   2:/Users/reza.kalfane/Workspaces/Daisy/DaisyExamples/libDaisy/src/per/sai.h **** #ifndef DSY_SAI_H
   3:/Users/reza.kalfane/Workspaces/Daisy/DaisyExamples/libDaisy/src/per/sai.h **** #define DSY_SAI_H
   4:/Users/reza.kalfane/Workspaces/Daisy/DaisyExamples/libDaisy/src/per/sai.h **** 
   5:/Users/reza.kalfane/Workspaces/Daisy/DaisyExamples/libDaisy/src/per/sai.h **** #include "daisy_core.h"
   6:/Users/reza.kalfane/Workspaces/Daisy/DaisyExamples/libDaisy/src/per/sai.h **** 
   7:/Users/reza.kalfane/Workspaces/Daisy/DaisyExamples/libDaisy/src/per/sai.h **** namespace daisy
   8:/Users/reza.kalfane/Workspaces/Daisy/DaisyExamples/libDaisy/src/per/sai.h **** {
   9:/Users/reza.kalfane/Workspaces/Daisy/DaisyExamples/libDaisy/src/per/sai.h **** /** 
  10:/Users/reza.kalfane/Workspaces/Daisy/DaisyExamples/libDaisy/src/per/sai.h ****  * Support for I2S Audio Protocol with different bit-depth, samplerate options
  11:/Users/reza.kalfane/Workspaces/Daisy/DaisyExamples/libDaisy/src/per/sai.h ****  * Allows for master or slave, as well as freedom of selecting direction, 
  12:/Users/reza.kalfane/Workspaces/Daisy/DaisyExamples/libDaisy/src/per/sai.h ****  * and other behavior for each peripheral, and block.
ARM GAS  /tmp/claude-502/ccJ8DnOJ.s 			page 237


  13:/Users/reza.kalfane/Workspaces/Daisy/DaisyExamples/libDaisy/src/per/sai.h ****  * 
  14:/Users/reza.kalfane/Workspaces/Daisy/DaisyExamples/libDaisy/src/per/sai.h ****  * DMA Transfer commands must use buffers located within non-cached memory or use cache maintenance
  15:/Users/reza.kalfane/Workspaces/Daisy/DaisyExamples/libDaisy/src/per/sai.h ****  * To declare an unitialized global element in the DMA memory section:
  16:/Users/reza.kalfane/Workspaces/Daisy/DaisyExamples/libDaisy/src/per/sai.h ****  *    int32_t DSY_DMA_BUFFER_SECTOR my_buffer[96];
  17:/Users/reza.kalfane/Workspaces/Daisy/DaisyExamples/libDaisy/src/per/sai.h ****  *
  18:/Users/reza.kalfane/Workspaces/Daisy/DaisyExamples/libDaisy/src/per/sai.h ****  * Callback functions will be called once per half of the buffer. In the above example, 
  19:/Users/reza.kalfane/Workspaces/Daisy/DaisyExamples/libDaisy/src/per/sai.h ****  * the callback function would be called once for every 48 samples.
  20:/Users/reza.kalfane/Workspaces/Daisy/DaisyExamples/libDaisy/src/per/sai.h ****  * 
  21:/Users/reza.kalfane/Workspaces/Daisy/DaisyExamples/libDaisy/src/per/sai.h ****  * Use SAI Handle like this:
  22:/Users/reza.kalfane/Workspaces/Daisy/DaisyExamples/libDaisy/src/per/sai.h ****  * 
  23:/Users/reza.kalfane/Workspaces/Daisy/DaisyExamples/libDaisy/src/per/sai.h ****  *  SaiHandle::Config sai_config;
  24:/Users/reza.kalfane/Workspaces/Daisy/DaisyExamples/libDaisy/src/per/sai.h ****  *  sai_config.periph          = SaiHandle::Config::Peripheral::SAI_1;
  25:/Users/reza.kalfane/Workspaces/Daisy/DaisyExamples/libDaisy/src/per/sai.h ****  *  sai_config.sr              = SaiHandle::Config::SampleRate::SAI_48KHZ;
  26:/Users/reza.kalfane/Workspaces/Daisy/DaisyExamples/libDaisy/src/per/sai.h ****  *  sai_config.bit_depth       = SaiHandle::Config::BitDepth::SAI_24BIT;
  27:/Users/reza.kalfane/Workspaces/Daisy/DaisyExamples/libDaisy/src/per/sai.h ****  *  sai_config.a_sync          = SaiHandle::Config::Sync::MASTER;
  28:/Users/reza.kalfane/Workspaces/Daisy/DaisyExamples/libDaisy/src/per/sai.h ****  *  sai_config.b_sync          = SaiHandle::Config::Sync::SLAVE;
  29:/Users/reza.kalfane/Workspaces/Daisy/DaisyExamples/libDaisy/src/per/sai.h ****  *  sai_config.a_dir           = SaiHandle::Config::Direction::RECEIVE;
  30:/Users/reza.kalfane/Workspaces/Daisy/DaisyExamples/libDaisy/src/per/sai.h ****  *  sai_config.b_dir           = SaiHandle::Config::Direction::TRANSMIT;
  31:/Users/reza.kalfane/Workspaces/Daisy/DaisyExamples/libDaisy/src/per/sai.h ****  *  sai_config.pin_config.fs   = {DSY_GPIOE, 4};
  32:/Users/reza.kalfane/Workspaces/Daisy/DaisyExamples/libDaisy/src/per/sai.h ****  *  sai_config.pin_config.mclk = {DSY_GPIOE, 2};
  33:/Users/reza.kalfane/Workspaces/Daisy/DaisyExamples/libDaisy/src/per/sai.h ****  *  sai_config.pin_config.sck  = {DSY_GPIOE, 5};
  34:/Users/reza.kalfane/Workspaces/Daisy/DaisyExamples/libDaisy/src/per/sai.h ****  *  sai_config.pin_config.sa   = {DSY_GPIOE, 6};
  35:/Users/reza.kalfane/Workspaces/Daisy/DaisyExamples/libDaisy/src/per/sai.h ****  *  sai_config.pin_config.sb   = {DSY_GPIOE, 3};
  36:/Users/reza.kalfane/Workspaces/Daisy/DaisyExamples/libDaisy/src/per/sai.h ****  *  // Then Initialize
  37:/Users/reza.kalfane/Workspaces/Daisy/DaisyExamples/libDaisy/src/per/sai.h ****  *  SaiHandle sai;
  38:/Users/reza.kalfane/Workspaces/Daisy/DaisyExamples/libDaisy/src/per/sai.h ****  *  sai.Init(sai_config);
  39:/Users/reza.kalfane/Workspaces/Daisy/DaisyExamples/libDaisy/src/per/sai.h ****  *  // Now you can use it:
  40:/Users/reza.kalfane/Workspaces/Daisy/DaisyExamples/libDaisy/src/per/sai.h ****  *  sai.StartDma(. . .);
  41:/Users/reza.kalfane/Workspaces/Daisy/DaisyExamples/libDaisy/src/per/sai.h ****  */
  42:/Users/reza.kalfane/Workspaces/Daisy/DaisyExamples/libDaisy/src/per/sai.h **** class SaiHandle
  43:/Users/reza.kalfane/Workspaces/Daisy/DaisyExamples/libDaisy/src/per/sai.h **** {
  44:/Users/reza.kalfane/Workspaces/Daisy/DaisyExamples/libDaisy/src/per/sai.h ****   public:
  45:/Users/reza.kalfane/Workspaces/Daisy/DaisyExamples/libDaisy/src/per/sai.h ****     /** Contains settings for initialising an SAI Interface */
  46:/Users/reza.kalfane/Workspaces/Daisy/DaisyExamples/libDaisy/src/per/sai.h ****     struct Config
  47:/Users/reza.kalfane/Workspaces/Daisy/DaisyExamples/libDaisy/src/per/sai.h ****     {
  48:/Users/reza.kalfane/Workspaces/Daisy/DaisyExamples/libDaisy/src/per/sai.h ****         /** Specifies the internal peripheral to use (mapped to different hardware pins) */
  49:/Users/reza.kalfane/Workspaces/Daisy/DaisyExamples/libDaisy/src/per/sai.h ****         enum class Peripheral
  50:/Users/reza.kalfane/Workspaces/Daisy/DaisyExamples/libDaisy/src/per/sai.h ****         {
  51:/Users/reza.kalfane/Workspaces/Daisy/DaisyExamples/libDaisy/src/per/sai.h ****             SAI_1,
  52:/Users/reza.kalfane/Workspaces/Daisy/DaisyExamples/libDaisy/src/per/sai.h ****             SAI_2,
  53:/Users/reza.kalfane/Workspaces/Daisy/DaisyExamples/libDaisy/src/per/sai.h ****         };
  54:/Users/reza.kalfane/Workspaces/Daisy/DaisyExamples/libDaisy/src/per/sai.h **** 
  55:/Users/reza.kalfane/Workspaces/Daisy/DaisyExamples/libDaisy/src/per/sai.h ****         /** Rate at which samples will be streaming to/from the device. */
  56:/Users/reza.kalfane/Workspaces/Daisy/DaisyExamples/libDaisy/src/per/sai.h ****         enum class SampleRate
  57:/Users/reza.kalfane/Workspaces/Daisy/DaisyExamples/libDaisy/src/per/sai.h ****         {
  58:/Users/reza.kalfane/Workspaces/Daisy/DaisyExamples/libDaisy/src/per/sai.h ****             SAI_8KHZ,
  59:/Users/reza.kalfane/Workspaces/Daisy/DaisyExamples/libDaisy/src/per/sai.h ****             SAI_16KHZ,
  60:/Users/reza.kalfane/Workspaces/Daisy/DaisyExamples/libDaisy/src/per/sai.h ****             SAI_32KHZ,
  61:/Users/reza.kalfane/Workspaces/Daisy/DaisyExamples/libDaisy/src/per/sai.h ****             SAI_48KHZ,
  62:/Users/reza.kalfane/Workspaces/Daisy/DaisyExamples/libDaisy/src/per/sai.h ****             SAI_96KHZ,
  63:/Users/reza.kalfane/Workspaces/Daisy/DaisyExamples/libDaisy/src/per/sai.h ****         };
  64:/Users/reza.kalfane/Workspaces/Daisy/DaisyExamples/libDaisy/src/per/sai.h **** 
  65:/Users/reza.kalfane/Workspaces/Daisy/DaisyExamples/libDaisy/src/per/sai.h ****         /** Bit Depth that the hardware expects to be transferred to/from the device. */
  66:/Users/reza.kalfane/Workspaces/Daisy/DaisyExamples/libDaisy/src/per/sai.h ****         enum class BitDepth
  67:/Users/reza.kalfane/Workspaces/Daisy/DaisyExamples/libDaisy/src/per/sai.h ****         {
  68:/Users/reza.kalfane/Workspaces/Daisy/DaisyExamples/libDaisy/src/per/sai.h ****             SAI_16BIT,
  69:/Users/reza.kalfane/Workspaces/Daisy/DaisyExamples/libDaisy/src/per/sai.h ****             SAI_24BIT,
ARM GAS  /tmp/claude-502/ccJ8DnOJ.s 			page 238


  70:/Users/reza.kalfane/Workspaces/Daisy/DaisyExamples/libDaisy/src/per/sai.h ****             SAI_32BIT,
  71:/Users/reza.kalfane/Workspaces/Daisy/DaisyExamples/libDaisy/src/per/sai.h ****         };
  72:/Users/reza.kalfane/Workspaces/Daisy/DaisyExamples/libDaisy/src/per/sai.h **** 
  73:/Users/reza.kalfane/Workspaces/Daisy/DaisyExamples/libDaisy/src/per/sai.h ****         /** Specifies whether a particular block is the master or the slave 
  74:/Users/reza.kalfane/Workspaces/Daisy/DaisyExamples/libDaisy/src/per/sai.h ****          ** If both are set to slave, no MCLK signal will be used, and it is
  75:/Users/reza.kalfane/Workspaces/Daisy/DaisyExamples/libDaisy/src/per/sai.h ****          ** expected that the codec will have its own xtal.
  76:/Users/reza.kalfane/Workspaces/Daisy/DaisyExamples/libDaisy/src/per/sai.h ****          */
  77:/Users/reza.kalfane/Workspaces/Daisy/DaisyExamples/libDaisy/src/per/sai.h ****         enum class Sync
  78:/Users/reza.kalfane/Workspaces/Daisy/DaisyExamples/libDaisy/src/per/sai.h ****         {
  79:/Users/reza.kalfane/Workspaces/Daisy/DaisyExamples/libDaisy/src/per/sai.h ****             MASTER,
  80:/Users/reza.kalfane/Workspaces/Daisy/DaisyExamples/libDaisy/src/per/sai.h ****             SLAVE,
  81:/Users/reza.kalfane/Workspaces/Daisy/DaisyExamples/libDaisy/src/per/sai.h ****         };
  82:/Users/reza.kalfane/Workspaces/Daisy/DaisyExamples/libDaisy/src/per/sai.h **** 
  83:/Users/reza.kalfane/Workspaces/Daisy/DaisyExamples/libDaisy/src/per/sai.h ****         /** Specifies the direction for each peripheral block. */
  84:/Users/reza.kalfane/Workspaces/Daisy/DaisyExamples/libDaisy/src/per/sai.h ****         enum class Direction
  85:/Users/reza.kalfane/Workspaces/Daisy/DaisyExamples/libDaisy/src/per/sai.h ****         {
  86:/Users/reza.kalfane/Workspaces/Daisy/DaisyExamples/libDaisy/src/per/sai.h ****             TRANSMIT,
  87:/Users/reza.kalfane/Workspaces/Daisy/DaisyExamples/libDaisy/src/per/sai.h ****             RECEIVE,
  88:/Users/reza.kalfane/Workspaces/Daisy/DaisyExamples/libDaisy/src/per/sai.h ****         };
  89:/Users/reza.kalfane/Workspaces/Daisy/DaisyExamples/libDaisy/src/per/sai.h **** 
  90:/Users/reza.kalfane/Workspaces/Daisy/DaisyExamples/libDaisy/src/per/sai.h ****         Peripheral periph;
  91:/Users/reza.kalfane/Workspaces/Daisy/DaisyExamples/libDaisy/src/per/sai.h ****         struct
  92:/Users/reza.kalfane/Workspaces/Daisy/DaisyExamples/libDaisy/src/per/sai.h ****         {
  93:/Users/reza.kalfane/Workspaces/Daisy/DaisyExamples/libDaisy/src/per/sai.h ****             dsy_gpio_pin mclk, fs, sck, sa, sb;
  94:/Users/reza.kalfane/Workspaces/Daisy/DaisyExamples/libDaisy/src/per/sai.h ****         } pin_config;
  95:/Users/reza.kalfane/Workspaces/Daisy/DaisyExamples/libDaisy/src/per/sai.h ****         SampleRate sr;
  96:/Users/reza.kalfane/Workspaces/Daisy/DaisyExamples/libDaisy/src/per/sai.h ****         BitDepth   bit_depth;
  97:/Users/reza.kalfane/Workspaces/Daisy/DaisyExamples/libDaisy/src/per/sai.h ****         Sync       a_sync, b_sync;
  98:/Users/reza.kalfane/Workspaces/Daisy/DaisyExamples/libDaisy/src/per/sai.h ****         Direction  a_dir, b_dir;
  99:/Users/reza.kalfane/Workspaces/Daisy/DaisyExamples/libDaisy/src/per/sai.h ****     };
 100:/Users/reza.kalfane/Workspaces/Daisy/DaisyExamples/libDaisy/src/per/sai.h **** 
 101:/Users/reza.kalfane/Workspaces/Daisy/DaisyExamples/libDaisy/src/per/sai.h ****     /** Return values for SAI functions */
 102:/Users/reza.kalfane/Workspaces/Daisy/DaisyExamples/libDaisy/src/per/sai.h ****     enum class Result
 103:/Users/reza.kalfane/Workspaces/Daisy/DaisyExamples/libDaisy/src/per/sai.h ****     {
 104:/Users/reza.kalfane/Workspaces/Daisy/DaisyExamples/libDaisy/src/per/sai.h ****         OK,
 105:/Users/reza.kalfane/Workspaces/Daisy/DaisyExamples/libDaisy/src/per/sai.h ****         ERR,
 106:/Users/reza.kalfane/Workspaces/Daisy/DaisyExamples/libDaisy/src/per/sai.h ****     };
 107:/Users/reza.kalfane/Workspaces/Daisy/DaisyExamples/libDaisy/src/per/sai.h **** 
 108:/Users/reza.kalfane/Workspaces/Daisy/DaisyExamples/libDaisy/src/per/sai.h ****     SaiHandle() : pimpl_(nullptr) {}
 8672              		.loc 11 108 5 is_stmt 1 view .LVU2688
 8673              	.LBB1363:
 8674              	.LBB1364:
 8675              		.loc 11 108 33 is_stmt 0 view .LVU2689
 8676 0010 C463     		str	r4, [r0, #60]
 8677              	.LVL736:
 8678              		.loc 11 108 33 view .LVU2690
 8679              	.LBE1364:
 8680              	.LBE1363:
 8681              	.LBE1362:
 8682              	.LBE1366:
 8683              	.LBE1368:
  53:src/main.cpp  **** GPIO      led3;  // software-PWM LED on A0 (ADC0 / D15 / pin 22)
 8684              		.loc 6 53 11 view .LVU2691
 8685 0012 FFF7FEFF 		bl	__aeabi_atexit
 8686              	.LVL737:
 8687              	.LBB1369:
 8688              	.LBI1369:
ARM GAS  /tmp/claude-502/ccJ8DnOJ.s 			page 239


 8689              		.file 12 "/Users/reza.kalfane/Workspaces/Daisy/DaisyExamples/libDaisy/src/per/gpio.h"
   1:/Users/reza.kalfane/Workspaces/Daisy/DaisyExamples/libDaisy/src/per/gpio.h **** #pragma once
   2:/Users/reza.kalfane/Workspaces/Daisy/DaisyExamples/libDaisy/src/per/gpio.h **** #ifndef DSY_GPIO_H
   3:/Users/reza.kalfane/Workspaces/Daisy/DaisyExamples/libDaisy/src/per/gpio.h **** #define DSY_GPIO_H
   4:/Users/reza.kalfane/Workspaces/Daisy/DaisyExamples/libDaisy/src/per/gpio.h **** #include "daisy_core.h"
   5:/Users/reza.kalfane/Workspaces/Daisy/DaisyExamples/libDaisy/src/per/gpio.h **** 
   6:/Users/reza.kalfane/Workspaces/Daisy/DaisyExamples/libDaisy/src/per/gpio.h **** #ifdef __cplusplus
   7:/Users/reza.kalfane/Workspaces/Daisy/DaisyExamples/libDaisy/src/per/gpio.h **** 
   8:/Users/reza.kalfane/Workspaces/Daisy/DaisyExamples/libDaisy/src/per/gpio.h **** namespace daisy
   9:/Users/reza.kalfane/Workspaces/Daisy/DaisyExamples/libDaisy/src/per/gpio.h **** {
  10:/Users/reza.kalfane/Workspaces/Daisy/DaisyExamples/libDaisy/src/per/gpio.h **** /** @brief General Purpose I/O control 
  11:/Users/reza.kalfane/Workspaces/Daisy/DaisyExamples/libDaisy/src/per/gpio.h ****  *  @details peripheral control over a single GPIO
  12:/Users/reza.kalfane/Workspaces/Daisy/DaisyExamples/libDaisy/src/per/gpio.h ****  *  @ingroup peripheral
  13:/Users/reza.kalfane/Workspaces/Daisy/DaisyExamples/libDaisy/src/per/gpio.h ****  *   
  14:/Users/reza.kalfane/Workspaces/Daisy/DaisyExamples/libDaisy/src/per/gpio.h ****  *  Button Input (with internal Pullup resistor)
  15:/Users/reza.kalfane/Workspaces/Daisy/DaisyExamples/libDaisy/src/per/gpio.h ****  *  @include GPIO_Input.cpp 
  16:/Users/reza.kalfane/Workspaces/Daisy/DaisyExamples/libDaisy/src/per/gpio.h ****  * 
  17:/Users/reza.kalfane/Workspaces/Daisy/DaisyExamples/libDaisy/src/per/gpio.h ****  *  Output Example (perfect for blinking an LED)
  18:/Users/reza.kalfane/Workspaces/Daisy/DaisyExamples/libDaisy/src/per/gpio.h ****  *  @include GPIO_Output.cpp
  19:/Users/reza.kalfane/Workspaces/Daisy/DaisyExamples/libDaisy/src/per/gpio.h ****  * 
  20:/Users/reza.kalfane/Workspaces/Daisy/DaisyExamples/libDaisy/src/per/gpio.h **** */
  21:/Users/reza.kalfane/Workspaces/Daisy/DaisyExamples/libDaisy/src/per/gpio.h **** class GPIO
  22:/Users/reza.kalfane/Workspaces/Daisy/DaisyExamples/libDaisy/src/per/gpio.h **** {
  23:/Users/reza.kalfane/Workspaces/Daisy/DaisyExamples/libDaisy/src/per/gpio.h ****   public:
  24:/Users/reza.kalfane/Workspaces/Daisy/DaisyExamples/libDaisy/src/per/gpio.h ****     /** @brief Mode of operation for the specified GPIO */
  25:/Users/reza.kalfane/Workspaces/Daisy/DaisyExamples/libDaisy/src/per/gpio.h ****     enum class Mode
  26:/Users/reza.kalfane/Workspaces/Daisy/DaisyExamples/libDaisy/src/per/gpio.h ****     {
  27:/Users/reza.kalfane/Workspaces/Daisy/DaisyExamples/libDaisy/src/per/gpio.h ****         INPUT,     /**< Input for reading state of pin */
  28:/Users/reza.kalfane/Workspaces/Daisy/DaisyExamples/libDaisy/src/per/gpio.h ****         OUTPUT,    /**< Output w/ push-pull configuration */
  29:/Users/reza.kalfane/Workspaces/Daisy/DaisyExamples/libDaisy/src/per/gpio.h ****         OUTPUT_OD, /**< Output w/ open-drain configuration */
  30:/Users/reza.kalfane/Workspaces/Daisy/DaisyExamples/libDaisy/src/per/gpio.h ****         ANALOG,    /**< Analog for connection to ADC or DAC peripheral */
  31:/Users/reza.kalfane/Workspaces/Daisy/DaisyExamples/libDaisy/src/per/gpio.h ****     };
  32:/Users/reza.kalfane/Workspaces/Daisy/DaisyExamples/libDaisy/src/per/gpio.h **** 
  33:/Users/reza.kalfane/Workspaces/Daisy/DaisyExamples/libDaisy/src/per/gpio.h ****     /** @brief Configures whether an internal Pull up or Pull down resistor is used. 
  34:/Users/reza.kalfane/Workspaces/Daisy/DaisyExamples/libDaisy/src/per/gpio.h ****      *  
  35:/Users/reza.kalfane/Workspaces/Daisy/DaisyExamples/libDaisy/src/per/gpio.h ****      * Internal Pull up/down resistors are typically 40k ohms, and will be between
  36:/Users/reza.kalfane/Workspaces/Daisy/DaisyExamples/libDaisy/src/per/gpio.h ****      * 30k and 50k
  37:/Users/reza.kalfane/Workspaces/Daisy/DaisyExamples/libDaisy/src/per/gpio.h ****      * 
  38:/Users/reza.kalfane/Workspaces/Daisy/DaisyExamples/libDaisy/src/per/gpio.h ****      * When the Pin is configured in Analog mode, the pull up/down resistors are
  39:/Users/reza.kalfane/Workspaces/Daisy/DaisyExamples/libDaisy/src/per/gpio.h ****      * disabled by hardware. 
  40:/Users/reza.kalfane/Workspaces/Daisy/DaisyExamples/libDaisy/src/per/gpio.h ****      */
  41:/Users/reza.kalfane/Workspaces/Daisy/DaisyExamples/libDaisy/src/per/gpio.h ****     enum class Pull
  42:/Users/reza.kalfane/Workspaces/Daisy/DaisyExamples/libDaisy/src/per/gpio.h ****     {
  43:/Users/reza.kalfane/Workspaces/Daisy/DaisyExamples/libDaisy/src/per/gpio.h ****         NOPULL,   /**< No pull up resistor */
  44:/Users/reza.kalfane/Workspaces/Daisy/DaisyExamples/libDaisy/src/per/gpio.h ****         PULLUP,   /**< Internal pull up enabled */
  45:/Users/reza.kalfane/Workspaces/Daisy/DaisyExamples/libDaisy/src/per/gpio.h ****         PULLDOWN, /**< Internal pull down enabled*/
  46:/Users/reza.kalfane/Workspaces/Daisy/DaisyExamples/libDaisy/src/per/gpio.h ****     };
  47:/Users/reza.kalfane/Workspaces/Daisy/DaisyExamples/libDaisy/src/per/gpio.h **** 
  48:/Users/reza.kalfane/Workspaces/Daisy/DaisyExamples/libDaisy/src/per/gpio.h ****     /** @brief Output speed controls the drive strength, and slew rate of the pin */
  49:/Users/reza.kalfane/Workspaces/Daisy/DaisyExamples/libDaisy/src/per/gpio.h ****     enum class Speed
  50:/Users/reza.kalfane/Workspaces/Daisy/DaisyExamples/libDaisy/src/per/gpio.h ****     {
  51:/Users/reza.kalfane/Workspaces/Daisy/DaisyExamples/libDaisy/src/per/gpio.h ****         LOW,
  52:/Users/reza.kalfane/Workspaces/Daisy/DaisyExamples/libDaisy/src/per/gpio.h ****         MEDIUM,
  53:/Users/reza.kalfane/Workspaces/Daisy/DaisyExamples/libDaisy/src/per/gpio.h ****         HIGH,
  54:/Users/reza.kalfane/Workspaces/Daisy/DaisyExamples/libDaisy/src/per/gpio.h ****         VERY_HIGH,
  55:/Users/reza.kalfane/Workspaces/Daisy/DaisyExamples/libDaisy/src/per/gpio.h ****     };
  56:/Users/reza.kalfane/Workspaces/Daisy/DaisyExamples/libDaisy/src/per/gpio.h **** 
ARM GAS  /tmp/claude-502/ccJ8DnOJ.s 			page 240


  57:/Users/reza.kalfane/Workspaces/Daisy/DaisyExamples/libDaisy/src/per/gpio.h ****     /** @brief Configuration for a given GPIO */
  58:/Users/reza.kalfane/Workspaces/Daisy/DaisyExamples/libDaisy/src/per/gpio.h ****     struct Config
  59:/Users/reza.kalfane/Workspaces/Daisy/DaisyExamples/libDaisy/src/per/gpio.h ****     {
  60:/Users/reza.kalfane/Workspaces/Daisy/DaisyExamples/libDaisy/src/per/gpio.h ****         Pin   pin;
  61:/Users/reza.kalfane/Workspaces/Daisy/DaisyExamples/libDaisy/src/per/gpio.h ****         Mode  mode;
  62:/Users/reza.kalfane/Workspaces/Daisy/DaisyExamples/libDaisy/src/per/gpio.h ****         Pull  pull;
  63:/Users/reza.kalfane/Workspaces/Daisy/DaisyExamples/libDaisy/src/per/gpio.h ****         Speed speed;
  64:/Users/reza.kalfane/Workspaces/Daisy/DaisyExamples/libDaisy/src/per/gpio.h **** 
  65:/Users/reza.kalfane/Workspaces/Daisy/DaisyExamples/libDaisy/src/per/gpio.h ****         /** Constructor with no arguments will prepare an invalid GPIO set as
  66:/Users/reza.kalfane/Workspaces/Daisy/DaisyExamples/libDaisy/src/per/gpio.h ****          *  an input, with no pullup. 
  67:/Users/reza.kalfane/Workspaces/Daisy/DaisyExamples/libDaisy/src/per/gpio.h ****          */
  68:/Users/reza.kalfane/Workspaces/Daisy/DaisyExamples/libDaisy/src/per/gpio.h ****         Config()
  69:/Users/reza.kalfane/Workspaces/Daisy/DaisyExamples/libDaisy/src/per/gpio.h ****         : pin(), mode(Mode::INPUT), pull(Pull::NOPULL), speed(Speed::LOW)
  70:/Users/reza.kalfane/Workspaces/Daisy/DaisyExamples/libDaisy/src/per/gpio.h ****         {
  71:/Users/reza.kalfane/Workspaces/Daisy/DaisyExamples/libDaisy/src/per/gpio.h ****         }
  72:/Users/reza.kalfane/Workspaces/Daisy/DaisyExamples/libDaisy/src/per/gpio.h ****     };
  73:/Users/reza.kalfane/Workspaces/Daisy/DaisyExamples/libDaisy/src/per/gpio.h **** 
  74:/Users/reza.kalfane/Workspaces/Daisy/DaisyExamples/libDaisy/src/per/gpio.h ****     GPIO() {}
 8690              		.loc 12 74 5 is_stmt 1 view .LVU2692
 8691              	.LBB1370:
 8692              	.LBB1371:
 8693              	.LBI1371:
  68:/Users/reza.kalfane/Workspaces/Daisy/DaisyExamples/libDaisy/src/per/gpio.h ****         : pin(), mode(Mode::INPUT), pull(Pull::NOPULL), speed(Speed::LOW)
 8694              		.loc 12 68 9 view .LVU2693
 8695              	.LBB1372:
 8696              	.LBB1373:
 8697              	.LBB1374:
 8698              	.LBI1374:
 8699              		.file 13 "/Users/reza.kalfane/Workspaces/Daisy/DaisyExamples/libDaisy/src/daisy_core.h"
   1:/Users/reza.kalfane/Workspaces/Daisy/DaisyExamples/libDaisy/src/daisy_core.h **** #pragma once
   2:/Users/reza.kalfane/Workspaces/Daisy/DaisyExamples/libDaisy/src/daisy_core.h **** #ifndef DSY_CORE_HW_H
   3:/Users/reza.kalfane/Workspaces/Daisy/DaisyExamples/libDaisy/src/daisy_core.h **** #define DSY_CORE_HW_H /**< & */
   4:/Users/reza.kalfane/Workspaces/Daisy/DaisyExamples/libDaisy/src/daisy_core.h **** #include <stdint.h>
   5:/Users/reza.kalfane/Workspaces/Daisy/DaisyExamples/libDaisy/src/daisy_core.h **** #include <stdlib.h>
   6:/Users/reza.kalfane/Workspaces/Daisy/DaisyExamples/libDaisy/src/daisy_core.h **** 
   7:/Users/reza.kalfane/Workspaces/Daisy/DaisyExamples/libDaisy/src/daisy_core.h **** #if defined(_MSC_VER)
   8:/Users/reza.kalfane/Workspaces/Daisy/DaisyExamples/libDaisy/src/daisy_core.h **** #define FORCE_INLINE __forceinline /**< & */
   9:/Users/reza.kalfane/Workspaces/Daisy/DaisyExamples/libDaisy/src/daisy_core.h **** #elif defined(__clang__)
  10:/Users/reza.kalfane/Workspaces/Daisy/DaisyExamples/libDaisy/src/daisy_core.h **** #define FORCE_INLINE inline __attribute__((always_inline)) /**< & */
  11:/Users/reza.kalfane/Workspaces/Daisy/DaisyExamples/libDaisy/src/daisy_core.h **** #pragma clang diagnostic ignored "-Wduplicate-decl-specifier"
  12:/Users/reza.kalfane/Workspaces/Daisy/DaisyExamples/libDaisy/src/daisy_core.h **** #elif defined(__GNUC__)
  13:/Users/reza.kalfane/Workspaces/Daisy/DaisyExamples/libDaisy/src/daisy_core.h **** #define FORCE_INLINE inline __attribute__((always_inline)) /**< & */
  14:/Users/reza.kalfane/Workspaces/Daisy/DaisyExamples/libDaisy/src/daisy_core.h **** #else
  15:/Users/reza.kalfane/Workspaces/Daisy/DaisyExamples/libDaisy/src/daisy_core.h **** #error unknown compiler
  16:/Users/reza.kalfane/Workspaces/Daisy/DaisyExamples/libDaisy/src/daisy_core.h **** #endif
  17:/Users/reza.kalfane/Workspaces/Daisy/DaisyExamples/libDaisy/src/daisy_core.h **** 
  18:/Users/reza.kalfane/Workspaces/Daisy/DaisyExamples/libDaisy/src/daisy_core.h **** /** @addtogroup utility
  19:/Users/reza.kalfane/Workspaces/Daisy/DaisyExamples/libDaisy/src/daisy_core.h ****     @{
  20:/Users/reza.kalfane/Workspaces/Daisy/DaisyExamples/libDaisy/src/daisy_core.h **** */
  21:/Users/reza.kalfane/Workspaces/Daisy/DaisyExamples/libDaisy/src/daisy_core.h **** 
  22:/Users/reza.kalfane/Workspaces/Daisy/DaisyExamples/libDaisy/src/daisy_core.h **** /** Macro for area of memory that is configured as cacheless
  23:/Users/reza.kalfane/Workspaces/Daisy/DaisyExamples/libDaisy/src/daisy_core.h **** This should be used primarily for DMA buffers, and the like.
  24:/Users/reza.kalfane/Workspaces/Daisy/DaisyExamples/libDaisy/src/daisy_core.h **** */
  25:/Users/reza.kalfane/Workspaces/Daisy/DaisyExamples/libDaisy/src/daisy_core.h **** #define DMA_BUFFER_MEM_SECTION __attribute__((section(".sram1_bss")))
  26:/Users/reza.kalfane/Workspaces/Daisy/DaisyExamples/libDaisy/src/daisy_core.h **** /** 
  27:/Users/reza.kalfane/Workspaces/Daisy/DaisyExamples/libDaisy/src/daisy_core.h **** THE DTCM RAM section is also non-cached. However, is not suitable 
  28:/Users/reza.kalfane/Workspaces/Daisy/DaisyExamples/libDaisy/src/daisy_core.h **** for DMA transfers. Performance is on par with internal SRAM w/ 
ARM GAS  /tmp/claude-502/ccJ8DnOJ.s 			page 241


  29:/Users/reza.kalfane/Workspaces/Daisy/DaisyExamples/libDaisy/src/daisy_core.h **** cache enabled.
  30:/Users/reza.kalfane/Workspaces/Daisy/DaisyExamples/libDaisy/src/daisy_core.h **** */
  31:/Users/reza.kalfane/Workspaces/Daisy/DaisyExamples/libDaisy/src/daisy_core.h **** #define DTCM_MEM_SECTION __attribute__((section(".dtcmram_bss")))
  32:/Users/reza.kalfane/Workspaces/Daisy/DaisyExamples/libDaisy/src/daisy_core.h **** 
  33:/Users/reza.kalfane/Workspaces/Daisy/DaisyExamples/libDaisy/src/daisy_core.h **** #define FBIPMAX 0.999985f             /**< close to 1.0f-LSB at 16 bit */
  34:/Users/reza.kalfane/Workspaces/Daisy/DaisyExamples/libDaisy/src/daisy_core.h **** #define FBIPMIN (-FBIPMAX)            /**< - (1 - LSB) */
  35:/Users/reza.kalfane/Workspaces/Daisy/DaisyExamples/libDaisy/src/daisy_core.h **** #define U82F_SCALE 0.0078740f         /**< 1 / 127 */
  36:/Users/reza.kalfane/Workspaces/Daisy/DaisyExamples/libDaisy/src/daisy_core.h **** #define F2U8_SCALE 127.0f             /**< 128 - 1 */
  37:/Users/reza.kalfane/Workspaces/Daisy/DaisyExamples/libDaisy/src/daisy_core.h **** #define S82F_SCALE 0.0078125f         /**< 1 / (2**7) */
  38:/Users/reza.kalfane/Workspaces/Daisy/DaisyExamples/libDaisy/src/daisy_core.h **** #define F2S8_SCALE 127.0f             /**< (2 ** 7) - 1 */
  39:/Users/reza.kalfane/Workspaces/Daisy/DaisyExamples/libDaisy/src/daisy_core.h **** #define S162F_SCALE 3.0517578125e-05f /**< 1 / (2** 15) */
  40:/Users/reza.kalfane/Workspaces/Daisy/DaisyExamples/libDaisy/src/daisy_core.h **** #define F2S16_SCALE 32767.0f          /**< (2 ** 15) - 1 */
  41:/Users/reza.kalfane/Workspaces/Daisy/DaisyExamples/libDaisy/src/daisy_core.h **** #define F2S24_SCALE 8388608.0f        /**< 2 ** 23 */
  42:/Users/reza.kalfane/Workspaces/Daisy/DaisyExamples/libDaisy/src/daisy_core.h **** #define S242F_SCALE 1.192092896e-07f  /**< 1 / (2 ** 23) */
  43:/Users/reza.kalfane/Workspaces/Daisy/DaisyExamples/libDaisy/src/daisy_core.h **** #define S24SIGN 0x800000              /**< 2 ** 23 */
  44:/Users/reza.kalfane/Workspaces/Daisy/DaisyExamples/libDaisy/src/daisy_core.h **** #define S322F_SCALE 4.6566129e-10f    /**< 1 / (2** 31) */
  45:/Users/reza.kalfane/Workspaces/Daisy/DaisyExamples/libDaisy/src/daisy_core.h **** #define F2S32_SCALE 2147483647.f      /**< (2 ** 31) - 1 */
  46:/Users/reza.kalfane/Workspaces/Daisy/DaisyExamples/libDaisy/src/daisy_core.h **** 
  47:/Users/reza.kalfane/Workspaces/Daisy/DaisyExamples/libDaisy/src/daisy_core.h **** 
  48:/Users/reza.kalfane/Workspaces/Daisy/DaisyExamples/libDaisy/src/daisy_core.h **** /** shorthand macro for simplifying the reading of the left 
  49:/Users/reza.kalfane/Workspaces/Daisy/DaisyExamples/libDaisy/src/daisy_core.h ****  *  channel of a non-interleaved output buffer named out */
  50:/Users/reza.kalfane/Workspaces/Daisy/DaisyExamples/libDaisy/src/daisy_core.h **** #define OUT_L out[0]
  51:/Users/reza.kalfane/Workspaces/Daisy/DaisyExamples/libDaisy/src/daisy_core.h **** 
  52:/Users/reza.kalfane/Workspaces/Daisy/DaisyExamples/libDaisy/src/daisy_core.h **** /** shorthand macro for simplifying the reading of the right 
  53:/Users/reza.kalfane/Workspaces/Daisy/DaisyExamples/libDaisy/src/daisy_core.h ****  *  channel of a non-interleaved output buffer named out */
  54:/Users/reza.kalfane/Workspaces/Daisy/DaisyExamples/libDaisy/src/daisy_core.h **** #define OUT_R out[1]
  55:/Users/reza.kalfane/Workspaces/Daisy/DaisyExamples/libDaisy/src/daisy_core.h **** 
  56:/Users/reza.kalfane/Workspaces/Daisy/DaisyExamples/libDaisy/src/daisy_core.h **** /** shorthand macro for simplifying the reading of the left 
  57:/Users/reza.kalfane/Workspaces/Daisy/DaisyExamples/libDaisy/src/daisy_core.h ****  *  channel of a non-interleaved input buffer named in */
  58:/Users/reza.kalfane/Workspaces/Daisy/DaisyExamples/libDaisy/src/daisy_core.h **** #define IN_L in[0]
  59:/Users/reza.kalfane/Workspaces/Daisy/DaisyExamples/libDaisy/src/daisy_core.h **** 
  60:/Users/reza.kalfane/Workspaces/Daisy/DaisyExamples/libDaisy/src/daisy_core.h **** /** shorthand macro for simplifying the reading of the right 
  61:/Users/reza.kalfane/Workspaces/Daisy/DaisyExamples/libDaisy/src/daisy_core.h ****  *  channel of a non-interleaved input buffer named in */
  62:/Users/reza.kalfane/Workspaces/Daisy/DaisyExamples/libDaisy/src/daisy_core.h **** #define IN_R in[1]
  63:/Users/reza.kalfane/Workspaces/Daisy/DaisyExamples/libDaisy/src/daisy_core.h **** 
  64:/Users/reza.kalfane/Workspaces/Daisy/DaisyExamples/libDaisy/src/daisy_core.h **** /** 
  65:/Users/reza.kalfane/Workspaces/Daisy/DaisyExamples/libDaisy/src/daisy_core.h ****     Computes cube.
  66:/Users/reza.kalfane/Workspaces/Daisy/DaisyExamples/libDaisy/src/daisy_core.h ****     \param x Number to be cubed
  67:/Users/reza.kalfane/Workspaces/Daisy/DaisyExamples/libDaisy/src/daisy_core.h ****     \return x ^ 3
  68:/Users/reza.kalfane/Workspaces/Daisy/DaisyExamples/libDaisy/src/daisy_core.h **** */
  69:/Users/reza.kalfane/Workspaces/Daisy/DaisyExamples/libDaisy/src/daisy_core.h **** FORCE_INLINE float cube(float x)
  70:/Users/reza.kalfane/Workspaces/Daisy/DaisyExamples/libDaisy/src/daisy_core.h **** {
  71:/Users/reza.kalfane/Workspaces/Daisy/DaisyExamples/libDaisy/src/daisy_core.h ****     return (x * x) * x;
  72:/Users/reza.kalfane/Workspaces/Daisy/DaisyExamples/libDaisy/src/daisy_core.h **** }
  73:/Users/reza.kalfane/Workspaces/Daisy/DaisyExamples/libDaisy/src/daisy_core.h **** 
  74:/Users/reza.kalfane/Workspaces/Daisy/DaisyExamples/libDaisy/src/daisy_core.h **** /** 
  75:/Users/reza.kalfane/Workspaces/Daisy/DaisyExamples/libDaisy/src/daisy_core.h ****     Converts unsigned 8-bit to float
  76:/Users/reza.kalfane/Workspaces/Daisy/DaisyExamples/libDaisy/src/daisy_core.h ****     \param x Number to be scaled.
  77:/Users/reza.kalfane/Workspaces/Daisy/DaisyExamples/libDaisy/src/daisy_core.h ****     \return Scaled number.
  78:/Users/reza.kalfane/Workspaces/Daisy/DaisyExamples/libDaisy/src/daisy_core.h **** */
  79:/Users/reza.kalfane/Workspaces/Daisy/DaisyExamples/libDaisy/src/daisy_core.h **** FORCE_INLINE float u82f(uint8_t x)
  80:/Users/reza.kalfane/Workspaces/Daisy/DaisyExamples/libDaisy/src/daisy_core.h **** {
  81:/Users/reza.kalfane/Workspaces/Daisy/DaisyExamples/libDaisy/src/daisy_core.h ****     return ((float)x - 127.f) * U82F_SCALE;
  82:/Users/reza.kalfane/Workspaces/Daisy/DaisyExamples/libDaisy/src/daisy_core.h **** }
  83:/Users/reza.kalfane/Workspaces/Daisy/DaisyExamples/libDaisy/src/daisy_core.h **** 
  84:/Users/reza.kalfane/Workspaces/Daisy/DaisyExamples/libDaisy/src/daisy_core.h **** /**
  85:/Users/reza.kalfane/Workspaces/Daisy/DaisyExamples/libDaisy/src/daisy_core.h ****     Converts float to unsigned 8-bit
ARM GAS  /tmp/claude-502/ccJ8DnOJ.s 			page 242


  86:/Users/reza.kalfane/Workspaces/Daisy/DaisyExamples/libDaisy/src/daisy_core.h **** */
  87:/Users/reza.kalfane/Workspaces/Daisy/DaisyExamples/libDaisy/src/daisy_core.h **** FORCE_INLINE uint8_t f2u8(float x)
  88:/Users/reza.kalfane/Workspaces/Daisy/DaisyExamples/libDaisy/src/daisy_core.h **** {
  89:/Users/reza.kalfane/Workspaces/Daisy/DaisyExamples/libDaisy/src/daisy_core.h ****     x = x <= FBIPMIN ? FBIPMIN : x;
  90:/Users/reza.kalfane/Workspaces/Daisy/DaisyExamples/libDaisy/src/daisy_core.h ****     x = x >= FBIPMAX ? FBIPMAX : x;
  91:/Users/reza.kalfane/Workspaces/Daisy/DaisyExamples/libDaisy/src/daisy_core.h ****     return (uint8_t)((x * F2U8_SCALE) + F2U8_SCALE);
  92:/Users/reza.kalfane/Workspaces/Daisy/DaisyExamples/libDaisy/src/daisy_core.h **** }
  93:/Users/reza.kalfane/Workspaces/Daisy/DaisyExamples/libDaisy/src/daisy_core.h **** 
  94:/Users/reza.kalfane/Workspaces/Daisy/DaisyExamples/libDaisy/src/daisy_core.h **** 
  95:/Users/reza.kalfane/Workspaces/Daisy/DaisyExamples/libDaisy/src/daisy_core.h **** /** 
  96:/Users/reza.kalfane/Workspaces/Daisy/DaisyExamples/libDaisy/src/daisy_core.h ****     Converts Signed 8-bit to float
  97:/Users/reza.kalfane/Workspaces/Daisy/DaisyExamples/libDaisy/src/daisy_core.h ****     \param x Number to be scaled.
  98:/Users/reza.kalfane/Workspaces/Daisy/DaisyExamples/libDaisy/src/daisy_core.h ****     \return Scaled number.
  99:/Users/reza.kalfane/Workspaces/Daisy/DaisyExamples/libDaisy/src/daisy_core.h **** */
 100:/Users/reza.kalfane/Workspaces/Daisy/DaisyExamples/libDaisy/src/daisy_core.h **** FORCE_INLINE float s82f(int8_t x)
 101:/Users/reza.kalfane/Workspaces/Daisy/DaisyExamples/libDaisy/src/daisy_core.h **** {
 102:/Users/reza.kalfane/Workspaces/Daisy/DaisyExamples/libDaisy/src/daisy_core.h ****     return (float)x * S82F_SCALE;
 103:/Users/reza.kalfane/Workspaces/Daisy/DaisyExamples/libDaisy/src/daisy_core.h **** }
 104:/Users/reza.kalfane/Workspaces/Daisy/DaisyExamples/libDaisy/src/daisy_core.h **** 
 105:/Users/reza.kalfane/Workspaces/Daisy/DaisyExamples/libDaisy/src/daisy_core.h **** /**
 106:/Users/reza.kalfane/Workspaces/Daisy/DaisyExamples/libDaisy/src/daisy_core.h ****     Converts float to Signed 8-bit
 107:/Users/reza.kalfane/Workspaces/Daisy/DaisyExamples/libDaisy/src/daisy_core.h **** */
 108:/Users/reza.kalfane/Workspaces/Daisy/DaisyExamples/libDaisy/src/daisy_core.h **** FORCE_INLINE int8_t f2s8(float x)
 109:/Users/reza.kalfane/Workspaces/Daisy/DaisyExamples/libDaisy/src/daisy_core.h **** {
 110:/Users/reza.kalfane/Workspaces/Daisy/DaisyExamples/libDaisy/src/daisy_core.h ****     x = x <= FBIPMIN ? FBIPMIN : x;
 111:/Users/reza.kalfane/Workspaces/Daisy/DaisyExamples/libDaisy/src/daisy_core.h ****     x = x >= FBIPMAX ? FBIPMAX : x;
 112:/Users/reza.kalfane/Workspaces/Daisy/DaisyExamples/libDaisy/src/daisy_core.h ****     return (int32_t)(x * F2S8_SCALE);
 113:/Users/reza.kalfane/Workspaces/Daisy/DaisyExamples/libDaisy/src/daisy_core.h **** }
 114:/Users/reza.kalfane/Workspaces/Daisy/DaisyExamples/libDaisy/src/daisy_core.h **** 
 115:/Users/reza.kalfane/Workspaces/Daisy/DaisyExamples/libDaisy/src/daisy_core.h **** /** 
 116:/Users/reza.kalfane/Workspaces/Daisy/DaisyExamples/libDaisy/src/daisy_core.h ****     Converts Signed 16-bit to float
 117:/Users/reza.kalfane/Workspaces/Daisy/DaisyExamples/libDaisy/src/daisy_core.h ****     \param x Number to be scaled.
 118:/Users/reza.kalfane/Workspaces/Daisy/DaisyExamples/libDaisy/src/daisy_core.h ****     \return Scaled number.
 119:/Users/reza.kalfane/Workspaces/Daisy/DaisyExamples/libDaisy/src/daisy_core.h **** */
 120:/Users/reza.kalfane/Workspaces/Daisy/DaisyExamples/libDaisy/src/daisy_core.h **** FORCE_INLINE float s162f(int16_t x)
 121:/Users/reza.kalfane/Workspaces/Daisy/DaisyExamples/libDaisy/src/daisy_core.h **** {
 122:/Users/reza.kalfane/Workspaces/Daisy/DaisyExamples/libDaisy/src/daisy_core.h ****     return (float)x * S162F_SCALE;
 123:/Users/reza.kalfane/Workspaces/Daisy/DaisyExamples/libDaisy/src/daisy_core.h **** }
 124:/Users/reza.kalfane/Workspaces/Daisy/DaisyExamples/libDaisy/src/daisy_core.h **** 
 125:/Users/reza.kalfane/Workspaces/Daisy/DaisyExamples/libDaisy/src/daisy_core.h **** /**
 126:/Users/reza.kalfane/Workspaces/Daisy/DaisyExamples/libDaisy/src/daisy_core.h ****     Converts float to Signed 16-bit
 127:/Users/reza.kalfane/Workspaces/Daisy/DaisyExamples/libDaisy/src/daisy_core.h **** */
 128:/Users/reza.kalfane/Workspaces/Daisy/DaisyExamples/libDaisy/src/daisy_core.h **** FORCE_INLINE int16_t f2s16(float x)
 129:/Users/reza.kalfane/Workspaces/Daisy/DaisyExamples/libDaisy/src/daisy_core.h **** {
 130:/Users/reza.kalfane/Workspaces/Daisy/DaisyExamples/libDaisy/src/daisy_core.h ****     x = x <= FBIPMIN ? FBIPMIN : x;
 131:/Users/reza.kalfane/Workspaces/Daisy/DaisyExamples/libDaisy/src/daisy_core.h ****     x = x >= FBIPMAX ? FBIPMAX : x;
 132:/Users/reza.kalfane/Workspaces/Daisy/DaisyExamples/libDaisy/src/daisy_core.h ****     return (int32_t)(x * F2S16_SCALE);
 133:/Users/reza.kalfane/Workspaces/Daisy/DaisyExamples/libDaisy/src/daisy_core.h **** }
 134:/Users/reza.kalfane/Workspaces/Daisy/DaisyExamples/libDaisy/src/daisy_core.h **** 
 135:/Users/reza.kalfane/Workspaces/Daisy/DaisyExamples/libDaisy/src/daisy_core.h **** /**
 136:/Users/reza.kalfane/Workspaces/Daisy/DaisyExamples/libDaisy/src/daisy_core.h ****     Converts Signed 24-bit to float
 137:/Users/reza.kalfane/Workspaces/Daisy/DaisyExamples/libDaisy/src/daisy_core.h ****  */
 138:/Users/reza.kalfane/Workspaces/Daisy/DaisyExamples/libDaisy/src/daisy_core.h **** FORCE_INLINE float s242f(int32_t x)
 139:/Users/reza.kalfane/Workspaces/Daisy/DaisyExamples/libDaisy/src/daisy_core.h **** {
 140:/Users/reza.kalfane/Workspaces/Daisy/DaisyExamples/libDaisy/src/daisy_core.h ****     x = (x ^ S24SIGN) - S24SIGN; //sign extend aka ((x<<8)>>8)
 141:/Users/reza.kalfane/Workspaces/Daisy/DaisyExamples/libDaisy/src/daisy_core.h ****     return (float)x * S242F_SCALE;
 142:/Users/reza.kalfane/Workspaces/Daisy/DaisyExamples/libDaisy/src/daisy_core.h **** }
ARM GAS  /tmp/claude-502/ccJ8DnOJ.s 			page 243


 143:/Users/reza.kalfane/Workspaces/Daisy/DaisyExamples/libDaisy/src/daisy_core.h **** /**
 144:/Users/reza.kalfane/Workspaces/Daisy/DaisyExamples/libDaisy/src/daisy_core.h ****     Converts float to Signed 24-bit
 145:/Users/reza.kalfane/Workspaces/Daisy/DaisyExamples/libDaisy/src/daisy_core.h ****  */
 146:/Users/reza.kalfane/Workspaces/Daisy/DaisyExamples/libDaisy/src/daisy_core.h **** FORCE_INLINE int32_t f2s24(float x)
 147:/Users/reza.kalfane/Workspaces/Daisy/DaisyExamples/libDaisy/src/daisy_core.h **** {
 148:/Users/reza.kalfane/Workspaces/Daisy/DaisyExamples/libDaisy/src/daisy_core.h ****     x = x <= FBIPMIN ? FBIPMIN : x;
 149:/Users/reza.kalfane/Workspaces/Daisy/DaisyExamples/libDaisy/src/daisy_core.h ****     x = x >= FBIPMAX ? FBIPMAX : x;
 150:/Users/reza.kalfane/Workspaces/Daisy/DaisyExamples/libDaisy/src/daisy_core.h ****     return (int32_t)(x * F2S24_SCALE);
 151:/Users/reza.kalfane/Workspaces/Daisy/DaisyExamples/libDaisy/src/daisy_core.h **** }
 152:/Users/reza.kalfane/Workspaces/Daisy/DaisyExamples/libDaisy/src/daisy_core.h **** 
 153:/Users/reza.kalfane/Workspaces/Daisy/DaisyExamples/libDaisy/src/daisy_core.h **** /**
 154:/Users/reza.kalfane/Workspaces/Daisy/DaisyExamples/libDaisy/src/daisy_core.h ****     Converts Signed 32-bit to float
 155:/Users/reza.kalfane/Workspaces/Daisy/DaisyExamples/libDaisy/src/daisy_core.h ****  */
 156:/Users/reza.kalfane/Workspaces/Daisy/DaisyExamples/libDaisy/src/daisy_core.h **** FORCE_INLINE float s322f(int32_t x)
 157:/Users/reza.kalfane/Workspaces/Daisy/DaisyExamples/libDaisy/src/daisy_core.h **** {
 158:/Users/reza.kalfane/Workspaces/Daisy/DaisyExamples/libDaisy/src/daisy_core.h ****     return (float)x * S322F_SCALE;
 159:/Users/reza.kalfane/Workspaces/Daisy/DaisyExamples/libDaisy/src/daisy_core.h **** }
 160:/Users/reza.kalfane/Workspaces/Daisy/DaisyExamples/libDaisy/src/daisy_core.h **** /**
 161:/Users/reza.kalfane/Workspaces/Daisy/DaisyExamples/libDaisy/src/daisy_core.h ****     Converts float to Signed 24-bit
 162:/Users/reza.kalfane/Workspaces/Daisy/DaisyExamples/libDaisy/src/daisy_core.h ****  */
 163:/Users/reza.kalfane/Workspaces/Daisy/DaisyExamples/libDaisy/src/daisy_core.h **** FORCE_INLINE int32_t f2s32(float x)
 164:/Users/reza.kalfane/Workspaces/Daisy/DaisyExamples/libDaisy/src/daisy_core.h **** {
 165:/Users/reza.kalfane/Workspaces/Daisy/DaisyExamples/libDaisy/src/daisy_core.h ****     x = x <= FBIPMIN ? FBIPMIN : x;
 166:/Users/reza.kalfane/Workspaces/Daisy/DaisyExamples/libDaisy/src/daisy_core.h ****     x = x >= FBIPMAX ? FBIPMAX : x;
 167:/Users/reza.kalfane/Workspaces/Daisy/DaisyExamples/libDaisy/src/daisy_core.h ****     return (int32_t)(x * F2S32_SCALE);
 168:/Users/reza.kalfane/Workspaces/Daisy/DaisyExamples/libDaisy/src/daisy_core.h **** }
 169:/Users/reza.kalfane/Workspaces/Daisy/DaisyExamples/libDaisy/src/daisy_core.h **** 
 170:/Users/reza.kalfane/Workspaces/Daisy/DaisyExamples/libDaisy/src/daisy_core.h **** 
 171:/Users/reza.kalfane/Workspaces/Daisy/DaisyExamples/libDaisy/src/daisy_core.h **** /** Enums and a simple struct for defining a hardware pin on the MCU
 172:/Users/reza.kalfane/Workspaces/Daisy/DaisyExamples/libDaisy/src/daisy_core.h ****  *  These correlate with the stm32 datasheet, and are used to configure
 173:/Users/reza.kalfane/Workspaces/Daisy/DaisyExamples/libDaisy/src/daisy_core.h ****  *  the hardware.
 174:/Users/reza.kalfane/Workspaces/Daisy/DaisyExamples/libDaisy/src/daisy_core.h ****  * 
 175:/Users/reza.kalfane/Workspaces/Daisy/DaisyExamples/libDaisy/src/daisy_core.h ****  *  This along with the dsy_gpio_pin class should no longer be used.
 176:/Users/reza.kalfane/Workspaces/Daisy/DaisyExamples/libDaisy/src/daisy_core.h ****  *  They are available for backwards compatability. 
 177:/Users/reza.kalfane/Workspaces/Daisy/DaisyExamples/libDaisy/src/daisy_core.h ****  * 
 178:/Users/reza.kalfane/Workspaces/Daisy/DaisyExamples/libDaisy/src/daisy_core.h ****  *  Please use GPIOPort enum and the Pin struct instead.
 179:/Users/reza.kalfane/Workspaces/Daisy/DaisyExamples/libDaisy/src/daisy_core.h ****  */
 180:/Users/reza.kalfane/Workspaces/Daisy/DaisyExamples/libDaisy/src/daisy_core.h **** typedef enum
 181:/Users/reza.kalfane/Workspaces/Daisy/DaisyExamples/libDaisy/src/daisy_core.h **** {
 182:/Users/reza.kalfane/Workspaces/Daisy/DaisyExamples/libDaisy/src/daisy_core.h ****     DSY_GPIOA, /**< & */
 183:/Users/reza.kalfane/Workspaces/Daisy/DaisyExamples/libDaisy/src/daisy_core.h ****     DSY_GPIOB, /**< & */
 184:/Users/reza.kalfane/Workspaces/Daisy/DaisyExamples/libDaisy/src/daisy_core.h ****     DSY_GPIOC, /**< & */
 185:/Users/reza.kalfane/Workspaces/Daisy/DaisyExamples/libDaisy/src/daisy_core.h ****     DSY_GPIOD, /**< & */
 186:/Users/reza.kalfane/Workspaces/Daisy/DaisyExamples/libDaisy/src/daisy_core.h ****     DSY_GPIOE, /**< & */
 187:/Users/reza.kalfane/Workspaces/Daisy/DaisyExamples/libDaisy/src/daisy_core.h ****     DSY_GPIOF, /**< & */
 188:/Users/reza.kalfane/Workspaces/Daisy/DaisyExamples/libDaisy/src/daisy_core.h ****     DSY_GPIOG, /**< & */
 189:/Users/reza.kalfane/Workspaces/Daisy/DaisyExamples/libDaisy/src/daisy_core.h ****     DSY_GPIOH, /**< & */
 190:/Users/reza.kalfane/Workspaces/Daisy/DaisyExamples/libDaisy/src/daisy_core.h ****     DSY_GPIOI, /**< & */
 191:/Users/reza.kalfane/Workspaces/Daisy/DaisyExamples/libDaisy/src/daisy_core.h ****     DSY_GPIOJ, /**< & */
 192:/Users/reza.kalfane/Workspaces/Daisy/DaisyExamples/libDaisy/src/daisy_core.h ****     DSY_GPIOK, /**< & */
 193:/Users/reza.kalfane/Workspaces/Daisy/DaisyExamples/libDaisy/src/daisy_core.h ****     DSY_GPIOX, /** This is a non-existant port for unsupported bits of hardware. */
 194:/Users/reza.kalfane/Workspaces/Daisy/DaisyExamples/libDaisy/src/daisy_core.h ****     DSY_GPIO_LAST, /** Final enum member */
 195:/Users/reza.kalfane/Workspaces/Daisy/DaisyExamples/libDaisy/src/daisy_core.h **** } dsy_gpio_port;
 196:/Users/reza.kalfane/Workspaces/Daisy/DaisyExamples/libDaisy/src/daisy_core.h **** 
 197:/Users/reza.kalfane/Workspaces/Daisy/DaisyExamples/libDaisy/src/daisy_core.h **** /** Hardware define pins 
 198:/Users/reza.kalfane/Workspaces/Daisy/DaisyExamples/libDaisy/src/daisy_core.h ****  *  
 199:/Users/reza.kalfane/Workspaces/Daisy/DaisyExamples/libDaisy/src/daisy_core.h ****  *  The dsy_gpio_pin struct should no longer be used, and is only available for
ARM GAS  /tmp/claude-502/ccJ8DnOJ.s 			page 244


 200:/Users/reza.kalfane/Workspaces/Daisy/DaisyExamples/libDaisy/src/daisy_core.h ****  *  backwards compatability.
 201:/Users/reza.kalfane/Workspaces/Daisy/DaisyExamples/libDaisy/src/daisy_core.h ****  * 
 202:/Users/reza.kalfane/Workspaces/Daisy/DaisyExamples/libDaisy/src/daisy_core.h ****  *  Please use Pin struct instead.
 203:/Users/reza.kalfane/Workspaces/Daisy/DaisyExamples/libDaisy/src/daisy_core.h ****  */
 204:/Users/reza.kalfane/Workspaces/Daisy/DaisyExamples/libDaisy/src/daisy_core.h **** typedef struct
 205:/Users/reza.kalfane/Workspaces/Daisy/DaisyExamples/libDaisy/src/daisy_core.h **** {
 206:/Users/reza.kalfane/Workspaces/Daisy/DaisyExamples/libDaisy/src/daisy_core.h ****     dsy_gpio_port port; /**< & */
 207:/Users/reza.kalfane/Workspaces/Daisy/DaisyExamples/libDaisy/src/daisy_core.h ****     uint8_t       pin;  /**< number 0-15 */
 208:/Users/reza.kalfane/Workspaces/Daisy/DaisyExamples/libDaisy/src/daisy_core.h **** } dsy_gpio_pin;
 209:/Users/reza.kalfane/Workspaces/Daisy/DaisyExamples/libDaisy/src/daisy_core.h **** 
 210:/Users/reza.kalfane/Workspaces/Daisy/DaisyExamples/libDaisy/src/daisy_core.h **** /** Helper for creating pins from port/pin combos easily
 211:/Users/reza.kalfane/Workspaces/Daisy/DaisyExamples/libDaisy/src/daisy_core.h ****  * 
 212:/Users/reza.kalfane/Workspaces/Daisy/DaisyExamples/libDaisy/src/daisy_core.h ****  *  The dsy_gpio_pin struct should no longer be used, and is only available for
 213:/Users/reza.kalfane/Workspaces/Daisy/DaisyExamples/libDaisy/src/daisy_core.h ****  *  backwards compatability.
 214:/Users/reza.kalfane/Workspaces/Daisy/DaisyExamples/libDaisy/src/daisy_core.h ****  * 
 215:/Users/reza.kalfane/Workspaces/Daisy/DaisyExamples/libDaisy/src/daisy_core.h ****  *  Please use Pin struct instead.
 216:/Users/reza.kalfane/Workspaces/Daisy/DaisyExamples/libDaisy/src/daisy_core.h **** */
 217:/Users/reza.kalfane/Workspaces/Daisy/DaisyExamples/libDaisy/src/daisy_core.h **** FORCE_INLINE dsy_gpio_pin dsy_pin(dsy_gpio_port port, uint8_t pin)
 218:/Users/reza.kalfane/Workspaces/Daisy/DaisyExamples/libDaisy/src/daisy_core.h **** {
 219:/Users/reza.kalfane/Workspaces/Daisy/DaisyExamples/libDaisy/src/daisy_core.h ****     dsy_gpio_pin p;
 220:/Users/reza.kalfane/Workspaces/Daisy/DaisyExamples/libDaisy/src/daisy_core.h ****     p.port = port;
 221:/Users/reza.kalfane/Workspaces/Daisy/DaisyExamples/libDaisy/src/daisy_core.h ****     p.pin  = pin;
 222:/Users/reza.kalfane/Workspaces/Daisy/DaisyExamples/libDaisy/src/daisy_core.h ****     return p;
 223:/Users/reza.kalfane/Workspaces/Daisy/DaisyExamples/libDaisy/src/daisy_core.h **** }
 224:/Users/reza.kalfane/Workspaces/Daisy/DaisyExamples/libDaisy/src/daisy_core.h **** 
 225:/Users/reza.kalfane/Workspaces/Daisy/DaisyExamples/libDaisy/src/daisy_core.h **** /** Helper for testing sameness of two dsy_gpio_pins
 226:/Users/reza.kalfane/Workspaces/Daisy/DaisyExamples/libDaisy/src/daisy_core.h ****  *  \return    1 if same, 0 if different
 227:/Users/reza.kalfane/Workspaces/Daisy/DaisyExamples/libDaisy/src/daisy_core.h ****  * 
 228:/Users/reza.kalfane/Workspaces/Daisy/DaisyExamples/libDaisy/src/daisy_core.h ****  *  The dsy_gpio_pin struct should no longer be used, and is only available for
 229:/Users/reza.kalfane/Workspaces/Daisy/DaisyExamples/libDaisy/src/daisy_core.h ****  *  backwards compatability.
 230:/Users/reza.kalfane/Workspaces/Daisy/DaisyExamples/libDaisy/src/daisy_core.h ****  * 
 231:/Users/reza.kalfane/Workspaces/Daisy/DaisyExamples/libDaisy/src/daisy_core.h ****  *  Please use Pin struct instead.
 232:/Users/reza.kalfane/Workspaces/Daisy/DaisyExamples/libDaisy/src/daisy_core.h ****  */
 233:/Users/reza.kalfane/Workspaces/Daisy/DaisyExamples/libDaisy/src/daisy_core.h **** FORCE_INLINE uint8_t dsy_pin_cmp(dsy_gpio_pin *a, dsy_gpio_pin *b)
 234:/Users/reza.kalfane/Workspaces/Daisy/DaisyExamples/libDaisy/src/daisy_core.h **** {
 235:/Users/reza.kalfane/Workspaces/Daisy/DaisyExamples/libDaisy/src/daisy_core.h ****     return ((a->port == b->port) && (a->pin == b->pin));
 236:/Users/reza.kalfane/Workspaces/Daisy/DaisyExamples/libDaisy/src/daisy_core.h **** }
 237:/Users/reza.kalfane/Workspaces/Daisy/DaisyExamples/libDaisy/src/daisy_core.h **** 
 238:/Users/reza.kalfane/Workspaces/Daisy/DaisyExamples/libDaisy/src/daisy_core.h **** #ifdef __cplusplus
 239:/Users/reza.kalfane/Workspaces/Daisy/DaisyExamples/libDaisy/src/daisy_core.h **** 
 240:/Users/reza.kalfane/Workspaces/Daisy/DaisyExamples/libDaisy/src/daisy_core.h **** namespace daisy
 241:/Users/reza.kalfane/Workspaces/Daisy/DaisyExamples/libDaisy/src/daisy_core.h **** {
 242:/Users/reza.kalfane/Workspaces/Daisy/DaisyExamples/libDaisy/src/daisy_core.h **** /** @brief GPIO Port names */
 243:/Users/reza.kalfane/Workspaces/Daisy/DaisyExamples/libDaisy/src/daisy_core.h **** enum GPIOPort
 244:/Users/reza.kalfane/Workspaces/Daisy/DaisyExamples/libDaisy/src/daisy_core.h **** {
 245:/Users/reza.kalfane/Workspaces/Daisy/DaisyExamples/libDaisy/src/daisy_core.h ****     PORTA, /**< Port A */
 246:/Users/reza.kalfane/Workspaces/Daisy/DaisyExamples/libDaisy/src/daisy_core.h ****     PORTB, /**< Port B */
 247:/Users/reza.kalfane/Workspaces/Daisy/DaisyExamples/libDaisy/src/daisy_core.h ****     PORTC, /**< Port C */
 248:/Users/reza.kalfane/Workspaces/Daisy/DaisyExamples/libDaisy/src/daisy_core.h ****     PORTD, /**< Port D */
 249:/Users/reza.kalfane/Workspaces/Daisy/DaisyExamples/libDaisy/src/daisy_core.h ****     PORTE, /**< Port E */
 250:/Users/reza.kalfane/Workspaces/Daisy/DaisyExamples/libDaisy/src/daisy_core.h ****     PORTF, /**< Port F */
 251:/Users/reza.kalfane/Workspaces/Daisy/DaisyExamples/libDaisy/src/daisy_core.h ****     PORTG, /**< Port G */
 252:/Users/reza.kalfane/Workspaces/Daisy/DaisyExamples/libDaisy/src/daisy_core.h ****     PORTH, /**< Port H */
 253:/Users/reza.kalfane/Workspaces/Daisy/DaisyExamples/libDaisy/src/daisy_core.h ****     PORTI, /**< Port I */
 254:/Users/reza.kalfane/Workspaces/Daisy/DaisyExamples/libDaisy/src/daisy_core.h ****     PORTJ, /**< Port J */
 255:/Users/reza.kalfane/Workspaces/Daisy/DaisyExamples/libDaisy/src/daisy_core.h ****     PORTK, /**< Port K */
 256:/Users/reza.kalfane/Workspaces/Daisy/DaisyExamples/libDaisy/src/daisy_core.h ****     PORTX, /**< Used as a dummy port to signal an invalid pin. */
ARM GAS  /tmp/claude-502/ccJ8DnOJ.s 			page 245


 257:/Users/reza.kalfane/Workspaces/Daisy/DaisyExamples/libDaisy/src/daisy_core.h **** };
 258:/Users/reza.kalfane/Workspaces/Daisy/DaisyExamples/libDaisy/src/daisy_core.h **** 
 259:/Users/reza.kalfane/Workspaces/Daisy/DaisyExamples/libDaisy/src/daisy_core.h **** /** @brief representation of hardware port/pin combination */
 260:/Users/reza.kalfane/Workspaces/Daisy/DaisyExamples/libDaisy/src/daisy_core.h **** struct Pin
 261:/Users/reza.kalfane/Workspaces/Daisy/DaisyExamples/libDaisy/src/daisy_core.h **** {
 262:/Users/reza.kalfane/Workspaces/Daisy/DaisyExamples/libDaisy/src/daisy_core.h ****     GPIOPort port;
 263:/Users/reza.kalfane/Workspaces/Daisy/DaisyExamples/libDaisy/src/daisy_core.h ****     uint8_t  pin;
 264:/Users/reza.kalfane/Workspaces/Daisy/DaisyExamples/libDaisy/src/daisy_core.h **** 
 265:/Users/reza.kalfane/Workspaces/Daisy/DaisyExamples/libDaisy/src/daisy_core.h ****     /** @brief Constructor creates a valid pin. 
 266:/Users/reza.kalfane/Workspaces/Daisy/DaisyExamples/libDaisy/src/daisy_core.h ****      *  @param pt GPIOPort between PA, and PK corresponding to STM32 Port.
 267:/Users/reza.kalfane/Workspaces/Daisy/DaisyExamples/libDaisy/src/daisy_core.h ****      *  @param pn pin number in range of 0-15
 268:/Users/reza.kalfane/Workspaces/Daisy/DaisyExamples/libDaisy/src/daisy_core.h ****     */
 269:/Users/reza.kalfane/Workspaces/Daisy/DaisyExamples/libDaisy/src/daisy_core.h ****     constexpr Pin(const GPIOPort pt, const uint8_t pn) : port(pt), pin(pn) {}
 270:/Users/reza.kalfane/Workspaces/Daisy/DaisyExamples/libDaisy/src/daisy_core.h **** 
 271:/Users/reza.kalfane/Workspaces/Daisy/DaisyExamples/libDaisy/src/daisy_core.h ****     /** @brief Basic Constructor creates an invalid Pin object */
 272:/Users/reza.kalfane/Workspaces/Daisy/DaisyExamples/libDaisy/src/daisy_core.h ****     constexpr Pin() : port(PORTX), pin(255) {}
 8700              		.loc 13 272 15 view .LVU2694
 8701              		.loc 13 272 15 is_stmt 0 view .LVU2695
 8702              	.LBE1374:
 8703              	.LBE1373:
 8704              	.LBE1372:
 8705              	.LBE1371:
 8706              		.loc 12 74 12 view .LVU2696
 8707 0016 074B     		ldr	r3, .L578+12
 8708 0018 4FF60B72 		movw	r2, #65291
 8709              	.LBB1377:
 8710              	.LBB1376:
 8711              	.LBB1375:
  69:/Users/reza.kalfane/Workspaces/Daisy/DaisyExamples/libDaisy/src/per/gpio.h ****         {
 8712              		.loc 12 69 73 view .LVU2697
 8713 001c C3E90244 		strd	r4, r4, [r3, #8]
 8714              	.LVL738:
  69:/Users/reza.kalfane/Workspaces/Daisy/DaisyExamples/libDaisy/src/per/gpio.h ****         {
 8715              		.loc 12 69 73 view .LVU2698
 8716              	.LBE1375:
 8717              	.LBE1376:
 8718              	.LBE1377:
 8719              		.loc 12 74 12 view .LVU2699
 8720 0020 C3E90024 		strd	r2, r4, [r3]
 8721              	.LBE1370:
 8722              	.LBE1369:
 8723              	.LBE1378:
 8724              	.LBE1379:
 8725              		.loc 6 934 1 view .LVU2700
 8726 0024 10BD     		pop	{r4, pc}
 8727              	.L579:
 8728 0026 00BF     		.align	2
 8729              	.L578:
 8730 0028 00000000 		.word	.LANCHOR0
 8731 002c 00000000 		.word	__dso_handle
 8732 0030 00000000 		.word	_ZN5daisy9DaisySeedD1Ev
 8733 0034 00000000 		.word	.LANCHOR2
 8734              		.cfi_endproc
 8735              	.LFE2623:
 8737              		.section	.init_array,"aw",%init_array
 8738              		.align	2
 8739 0000 00000000 		.word	_GLOBAL__sub_I_g_voice_idx(target1)
ARM GAS  /tmp/claude-502/ccJ8DnOJ.s 			page 246


 8740              		.global	led3
 8741              		.global	hw
 8742              		.global	g_active_voice
 8743              		.global	g_voice_idx
 8744              		.section	.rodata.str1.4,"aMS",%progbits,1
 8745              		.align	2
 8746              	.LC29:
 8747 0000 4C656164 		.ascii	"Lead\000"
 8747      00
 8748 0005 000000   		.align	2
 8749              	.LC30:
 8750 0008 42617373 		.ascii	"Bass\000"
 8750      00
 8751 000d 000000   		.align	2
 8752              	.LC31:
 8753 0010 4F70656E 		.ascii	"OpenBass\000"
 8753      42617373 
 8753      00
 8754 0019 000000   		.align	2
 8755              	.LC32:
 8756 001c 52696368 		.ascii	"RichBass\000"
 8756      42617373 
 8756      00
 8757 0025 000000   		.align	2
 8758              	.LC33:
 8759 0028 4F726761 		.ascii	"Organ\000"
 8759      6E00
 8760 002e 0000     		.align	2
 8761              	.LC34:
 8762 0030 53637265 		.ascii	"Scream\000"
 8762      616D00
 8763 0037 00       		.align	2
 8764              	.LC35:
 8765 0038 47756974 		.ascii	"Guitar\000"
 8765      617200
 8766 003f 00       		.align	2
 8767              	.LC36:
 8768 0040 50616400 		.ascii	"Pad\000"
 8769              		.align	2
 8770              	.LC37:
 8771 0044 546F6D00 		.ascii	"Tom\000"
 8772              		.align	2
 8773              	.LC38:
 8774 0048 4B69636B 		.ascii	"Kick\000"
 8774      00
 8775 004d 000000   		.align	2
 8776              	.LC39:
 8777 0050 536E6172 		.ascii	"Snare\000"
 8777      6500
 8778 0056 0000     		.align	2
 8779              	.LC40:
 8780 0058 48694861 		.ascii	"HiHat\000"
 8780      7400
 8781 005e 0000     		.align	2
 8782              	.LC41:
 8783 0060 53482D31 		.ascii	"SH-101 min\000"
 8783      3031206D 
ARM GAS  /tmp/claude-502/ccJ8DnOJ.s 			page 247


 8783      696E00
 8784 006b 00       		.align	2
 8785              	.LC42:
 8786 006c 53482D31 		.ascii	"SH-101 maj\000"
 8786      3031206D 
 8786      616A00
 8787 0077 00       		.align	2
 8788              	.LC43:
 8789 0078 4472756D 		.ascii	"Drums\000"
 8789      7300
 8790              		.section	.bss.hw,"aw",%nobits
 8791              		.align	2
 8792              		.set	.LANCHOR0,. + 0
 8795              	hw:
 8796 0000 00000000 		.space	64
 8796      00000000 
 8796      00000000 
 8796      00000000 
 8796      00000000 
 8797              		.section	.bss.led3,"aw",%nobits
 8798              		.align	2
 8799              		.set	.LANCHOR2,. + 0
 8802              	led3:
 8803 0000 00000000 		.space	20
 8803      00000000 
 8803      00000000 
 8803      00000000 
 8803      00000000 
 8804              		.section	.data.g_active_voice,"aw"
 8805              		.align	2
 8806              		.set	.LANCHOR5,. + 0
 8809              	g_active_voice:
 8810 0000 02000000 		.word	2
 8811              		.section	.data.g_voice_idx,"aw"
 8812              		.align	2
 8813              		.set	.LANCHOR3,. + 0
 8816              	g_voice_idx:
 8817 0000 02000000 		.word	2
 8818              		.section	.rodata._ZL11MULTI_ZONES,"a"
 8819              		.align	2
 8820              		.set	.LANCHOR6,. + 0
 8823              	_ZL11MULTI_ZONES:
 8824 0000 09000000 		.word	9
 8825 0004 0A000000 		.word	10
 8826 0008 08000000 		.word	8
 8827 000c 0B000000 		.word	11
 8828              		.section	.rodata._ZL11SCALE_MAJOR,"a"
 8829              		.align	2
 8832              	_ZL11SCALE_MAJOR:
 8833 0000 00020405 		.ascii	"\000\002\004\005\007\011\013"
 8833      07090B
 8834              		.section	.rodata._ZL11SCALE_MINOR,"a"
 8835              		.align	2
 8838              	_ZL11SCALE_MINOR:
 8839 0000 00020305 		.ascii	"\000\002\003\005\007\010\012"
 8839      07080A
 8840              		.section	.rodata._ZL15MULTI_INTERVALS,"a"
ARM GAS  /tmp/claude-502/ccJ8DnOJ.s 			page 248


 8841              		.align	2
 8842              		.set	.LANCHOR7,. + 0
 8845              	_ZL15MULTI_INTERVALS:
 8846 0000 0000803F 		.word	1065353216
 8847 0004 0ADCAA3F 		.word	1068162058
 8848 0008 9FC8BF3F 		.word	1069533343
 8849 000c 00000040 		.word	1073741824
 8850              		.section	.rodata._ZL6VOICES,"a"
 8851              		.align	2
 8852              		.set	.LANCHOR4,. + 0
 8855              	_ZL6VOICES:
 8856 0000 00000000 		.word	.LC29
 8857 0004 00004842 		.word	1112014848
 8858 0008 00009643 		.word	1133903872
 8859 000c 6458E53F 		.word	1071994980
 8860 0010 0000803F 		.word	1065353216
 8861 0014 0000003F 		.word	1056964608
 8862 0018 00       		.byte	0
 8863 0019 000000   		.space	3
 8864 001c 0000803F 		.word	1065353216
 8865 0020 AE47613E 		.word	1046562734
 8866 0024 00       		.byte	0
 8867 0025 000000   		.space	3
 8868 0028 0000003F 		.word	1056964608
 8869 002c EC51383E 		.word	1043878380
 8870 0030 00       		.byte	0
 8871 0031 000000   		.space	3
 8872 0034 00000040 		.word	1073741824
 8873 0038 9A99193E 		.word	1041865114
 8874 003c 00       		.byte	0
 8875 003d 01       		.byte	1
 8876 003e 0000     		.space	2
 8877 0040 9A99993E 		.word	1050253722
 8878 0044 00004041 		.word	1094713344
 8879 0048 0000403F 		.word	1061158912
 8880 004c 00002040 		.word	1075838976
 8881 0050 00000000 		.word	0
 8882 0054 0000803F 		.word	1065353216
 8883 0058 0000803F 		.word	1065353216
 8884 005c 9A99193E 		.word	1041865114
 8885 0060 EC51383E 		.word	1043878380
 8886 0064 00008040 		.word	1082130432
 8887 0068 0000C843 		.word	1137180672
 8888 006c 00002042 		.word	1109393408
 8889 0070 00000000 		.space	80
 8889      00000000 
 8889      00000000 
 8889      00000000 
 8889      00000000 
 8890 00c0 08000000 		.word	.LC30
 8891 00c4 00002042 		.word	1109393408
 8892 00c8 00002043 		.word	1126170624
 8893 00cc F371B13F 		.word	1068593651
 8894 00d0 0000803F 		.word	1065353216
 8895 00d4 6666E63E 		.word	1055286886
 8896 00d8 00       		.byte	0
 8897 00d9 000000   		.space	3
ARM GAS  /tmp/claude-502/ccJ8DnOJ.s 			page 249


 8898 00dc 9FC8BF3F 		.word	1069533343
 8899 00e0 9A99993E 		.word	1050253722
 8900 00e4 00       		.byte	0
 8901 00e5 000000   		.space	3
 8902 00e8 0000003F 		.word	1056964608
 8903 00ec 7B14AE3E 		.word	1051595899
 8904 00f0 00       		.byte	0
 8905 00f1 000000   		.space	3
 8906 00f4 00000040 		.word	1073741824
 8907 00f8 CDCC4C3E 		.word	1045220557
 8908 00fc 00       		.byte	0
 8909 00fd 00       		.byte	0
 8910 00fe 0000     		.space	2
 8911 0100 0000803E 		.word	1048576000
 8912 0104 0000E040 		.word	1088421888
 8913 0108 0000003F 		.word	1056964608
 8914 010c 0000803F 		.word	1065353216
 8915 0110 00000000 		.word	0
 8916 0114 0000803F 		.word	1065353216
 8917 0118 0000803F 		.word	1065353216
 8918 011c 8FC2F53D 		.word	1039516303
 8919 0120 8FC2F53D 		.word	1039516303
 8920 0124 0000C040 		.word	1086324736
 8921 0128 00009643 		.word	1133903872
 8922 012c 0000C841 		.word	1103626240
 8923 0130 00000000 		.space	80
 8923      00000000 
 8923      00000000 
 8923      00000000 
 8923      00000000 
 8924 0180 10000000 		.word	.LC31
 8925 0184 00002042 		.word	1109393408
 8926 0188 00003443 		.word	1127481344
 8927 018c B285C03F 		.word	1069581746
 8928 0190 0000803F 		.word	1065353216
 8929 0194 6666E63E 		.word	1055286886
 8930 0198 00       		.byte	0
 8931 0199 000000   		.space	3
 8932 019c 9FC8BF3F 		.word	1069533343
 8933 01a0 9A99993E 		.word	1050253722
 8934 01a4 00       		.byte	0
 8935 01a5 000000   		.space	3
 8936 01a8 0000003F 		.word	1056964608
 8937 01ac 9A99993E 		.word	1050253722
 8938 01b0 00       		.byte	0
 8939 01b1 000000   		.space	3
 8940 01b4 00000040 		.word	1073741824
 8941 01b8 AE47613E 		.word	1046562734
 8942 01bc 00       		.byte	0
 8943 01bd 00       		.byte	0
 8944 01be 0000     		.space	2
 8945 01c0 0000003F 		.word	1056964608
 8946 01c4 00002041 		.word	1092616192
 8947 01c8 6666263F 		.word	1059481190
 8948 01cc 6666E63F 		.word	1072064102
 8949 01d0 00000000 		.word	0
 8950 01d4 0000803F 		.word	1065353216
ARM GAS  /tmp/claude-502/ccJ8DnOJ.s 			page 250


 8951 01d8 0000803F 		.word	1065353216
 8952 01dc 9A99193E 		.word	1041865114
 8953 01e0 9A99193E 		.word	1041865114
 8954 01e4 0000A040 		.word	1084227584
 8955 01e8 0000AF43 		.word	1135542272
 8956 01ec 0000C841 		.word	1103626240
 8957 01f0 00000000 		.space	80
 8957      00000000 
 8957      00000000 
 8957      00000000 
 8957      00000000 
 8958 0240 1C000000 		.word	.LC32
 8959 0244 00002042 		.word	1109393408
 8960 0248 00002043 		.word	1126170624
 8961 024c F371B13F 		.word	1068593651
 8962 0250 0000803F 		.word	1065353216
 8963 0254 CDCCCC3E 		.word	1053609165
 8964 0258 03       		.byte	3
 8965 0259 000000   		.space	3
 8966 025c 9FC8BF3F 		.word	1069533343
 8967 0260 B81E853E 		.word	1048911544
 8968 0264 02       		.byte	2
 8969 0265 000000   		.space	3
 8970 0268 0000003F 		.word	1056964608
 8971 026c 0AD7A33E 		.word	1050924810
 8972 0270 01       		.byte	1
 8973 0271 000000   		.space	3
 8974 0274 00000040 		.word	1073741824
 8975 0278 EC51383E 		.word	1043878380
 8976 027c 03       		.byte	3
 8977 027d 00       		.byte	0
 8978 027e 0000     		.space	2
 8979 0280 CDCC4C3E 		.word	1045220557
 8980 0284 00005041 		.word	1095761920
 8981 0288 85EB513F 		.word	1062333317
 8982 028c CDCC0C40 		.word	1074580685
 8983 0290 00000000 		.word	0
 8984 0294 0000803F 		.word	1065353216
 8985 0298 0000803F 		.word	1065353216
 8986 029c CDCC4C3E 		.word	1045220557
 8987 02a0 CDCC4C3E 		.word	1045220557
 8988 02a4 00004040 		.word	1077936128
 8989 02a8 00007A43 		.word	1132068864
 8990 02ac 00009041 		.word	1099956224
 8991 02b0 00000000 		.space	80
 8991      00000000 
 8991      00000000 
 8991      00000000 
 8991      00000000 
 8992 0300 28000000 		.word	.LC33
 8993 0304 00008242 		.word	1115815936
 8994 0308 00000244 		.word	1140981760
 8995 030c 8C150540 		.word	1074075020
 8996 0310 0000803F 		.word	1065353216
 8997 0314 6666E63E 		.word	1055286886
 8998 0318 01       		.byte	1
 8999 0319 000000   		.space	3
ARM GAS  /tmp/claude-502/ccJ8DnOJ.s 			page 251


 9000 031c D7A3803F 		.word	1065395159
 9001 0320 CDCCCC3E 		.word	1053609165
 9002 0324 01       		.byte	1
 9003 0325 000000   		.space	3
 9004 0328 0000003F 		.word	1056964608
 9005 032c 9A99993E 		.word	1050253722
 9006 0330 01       		.byte	1
 9007 0331 000000   		.space	3
 9008 0334 00000040 		.word	1073741824
 9009 0338 295C8F3E 		.word	1049582633
 9010 033c 01       		.byte	1
 9011 033d 00       		.byte	0
 9012 033e 0000     		.space	2
 9013 0340 00000040 		.word	1073741824
 9014 0344 0000A040 		.word	1084227584
 9015 0348 CDCC4C3E 		.word	1045220557
 9016 034c CDCC4C3F 		.word	1061997773
 9017 0350 8FC2F53C 		.word	1022739087
 9018 0354 0000803F 		.word	1065353216
 9019 0358 0000803F 		.word	1065353216
 9020 035c CDCC4C3D 		.word	1028443341
 9021 0360 00000000 		.word	0
 9022 0364 00000041 		.word	1090519040
 9023 0368 0000F042 		.word	1123024896
 9024 036c 00000041 		.word	1090519040
 9025 0370 00000000 		.word	0
 9026 0374 00000000 		.word	0
 9027 0378 00000000 		.word	0
 9028 037c 00       		.byte	0
 9029 037d 000000   		.space	3
 9030 0380 00000000 		.word	0
 9031 0384 00000000 		.word	0
 9032 0388 01       		.byte	1
 9033 0389 000000   		.space	3
 9034 038c 00000000 		.word	_ZL11SCALE_MINOR
 9035 0390 07000000 		.word	7
 9036 0394 00000000 		.word	0
 9037 0398 00000000 		.word	0
 9038 039c 00       		.byte	0
 9039 039d 000000   		.space	3
 9040 03a0 00000000 		.word	0
 9041 03a4 00000000 		.word	0
 9042 03a8 9A99193F 		.word	1058642330
 9043 03ac 6666E63E 		.word	1055286886
 9044 03b0 00000000 		.space	16
 9044      00000000 
 9044      00000000 
 9044      00000000 
 9045 03c0 30000000 		.word	.LC34
 9046 03c4 0000B442 		.word	1119092736
 9047 03c8 00003444 		.word	1144258560
 9048 03cc 8C150540 		.word	1074075020
 9049 03d0 0000803F 		.word	1065353216
 9050 03d4 3D0AD73E 		.word	1054280253
 9051 03d8 03       		.byte	3
 9052 03d9 000000   		.space	3
 9053 03dc 2506813F 		.word	1065420325
ARM GAS  /tmp/claude-502/ccJ8DnOJ.s 			page 252


 9054 03e0 5C8FC23E 		.word	1052938076
 9055 03e4 03       		.byte	3
 9056 03e5 000000   		.space	3
 9057 03e8 0000003F 		.word	1056964608
 9058 03ec CDCC4C3E 		.word	1045220557
 9059 03f0 03       		.byte	3
 9060 03f1 000000   		.space	3
 9061 03f4 00000040 		.word	1073741824
 9062 03f8 9A99993E 		.word	1050253722
 9063 03fc 03       		.byte	3
 9064 03fd 00       		.byte	0
 9065 03fe 0000     		.space	2
 9066 0400 00004040 		.word	1077936128
 9067 0404 00003041 		.word	1093664768
 9068 0408 6666663F 		.word	1063675494
 9069 040c 00008040 		.word	1082130432
 9070 0410 CDCC4C3D 		.word	1028443341
 9071 0414 0000803F 		.word	1065353216
 9072 0418 00002040 		.word	1075838976
 9073 041c CDCCCC3E 		.word	1053609165
 9074 0420 9A99993E 		.word	1050253722
 9075 0424 00000040 		.word	1073741824
 9076 0428 00004843 		.word	1128792064
 9077 042c 00000C42 		.word	1108082688
 9078 0430 00000000 		.space	80
 9078      00000000 
 9078      00000000 
 9078      00000000 
 9078      00000000 
 9079 0480 38000000 		.word	.LC35
 9080 0484 0000A042 		.word	1117782016
 9081 0488 0000A043 		.word	1134559232
 9082 048c F371B13F 		.word	1068593651
 9083 0490 0000803F 		.word	1065353216
 9084 0494 CDCCCC3E 		.word	1053609165
 9085 0498 03       		.byte	3
 9086 0499 000000   		.space	3
 9087 049c 9FC8BF3F 		.word	1069533343
 9088 04a0 9A99993E 		.word	1050253722
 9089 04a4 03       		.byte	3
 9090 04a5 000000   		.space	3
 9091 04a8 0000003F 		.word	1056964608
 9092 04ac AE47613E 		.word	1046562734
 9093 04b0 03       		.byte	3
 9094 04b1 000000   		.space	3
 9095 04b4 00000040 		.word	1073741824
 9096 04b8 EC51383E 		.word	1043878380
 9097 04bc 03       		.byte	3
 9098 04bd 00       		.byte	0
 9099 04be 0000     		.space	2
 9100 04c0 0000C03F 		.word	1069547520
 9101 04c4 0000C040 		.word	1086324736
 9102 04c8 3D0AD73E 		.word	1054280253
 9103 04cc 66666640 		.word	1080452710
 9104 04d0 8FC2F53C 		.word	1022739087
 9105 04d4 0000803F 		.word	1065353216
 9106 04d8 0000803F 		.word	1065353216
ARM GAS  /tmp/claude-502/ccJ8DnOJ.s 			page 253


 9107 04dc 8FC2F53D 		.word	1039516303
 9108 04e0 9A99193E 		.word	1041865114
 9109 04e4 00004040 		.word	1077936128
 9110 04e8 00008C43 		.word	1133248512
 9111 04ec 00000041 		.word	1090519040
 9112 04f0 8FC2F53D 		.word	1039516303
 9113 04f4 00009041 		.word	1099956224
 9114 04f8 00000000 		.word	0
 9115 04fc 00       		.byte	0
 9116 04fd 000000   		.space	3
 9117 0500 00000000 		.word	0
 9118 0504 00000000 		.word	0
 9119 0508 01       		.byte	1
 9120 0509 000000   		.space	3
 9121 050c 00000000 		.word	_ZL11SCALE_MAJOR
 9122 0510 07000000 		.word	7
 9123 0514 00009644 		.word	1150681088
 9124 0518 00000000 		.word	0
 9125 051c 00000000 		.space	36
 9125      00000000 
 9125      00000000 
 9125      00000000 
 9125      00000000 
 9126 0540 40000000 		.word	.LC36
 9127 0544 00008C42 		.word	1116471296
 9128 0548 00000C44 		.word	1141637120
 9129 054c 8C150540 		.word	1074075020
 9130 0550 0000803F 		.word	1065353216
 9131 0554 0AD7A33E 		.word	1050924810
 9132 0558 03       		.byte	3
 9133 0559 000000   		.space	3
 9134 055c 9CC4803F 		.word	1065403548
 9135 0560 9A99993E 		.word	1050253722
 9136 0564 03       		.byte	3
 9137 0565 000000   		.space	3
 9138 0568 0000003F 		.word	1056964608
 9139 056c AE47613E 		.word	1046562734
 9140 0570 00       		.byte	0
 9141 0571 000000   		.space	3
 9142 0574 00000040 		.word	1073741824
 9143 0578 EC51383E 		.word	1043878380
 9144 057c 01       		.byte	1
 9145 057d 00       		.byte	0
 9146 057e 0000     		.space	2
 9147 0580 9A99993F 		.word	1067030938
 9148 0584 00004040 		.word	1077936128
 9149 0588 CDCC4C3E 		.word	1045220557
 9150 058c 9A99193F 		.word	1058642330
 9151 0590 8FC2753C 		.word	1014350479
 9152 0594 0000803F 		.word	1065353216
 9153 0598 0000803F 		.word	1065353216
 9154 059c 00000000 		.word	0
 9155 05a0 0AD7A33D 		.word	1034147594
 9156 05a4 00800945 		.word	1158250496
 9157 05a8 0000FA44 		.word	1157234688
 9158 05ac 0000A042 		.word	1117782016
 9159 05b0 00000000 		.space	80
ARM GAS  /tmp/claude-502/ccJ8DnOJ.s 			page 254


 9159      00000000 
 9159      00000000 
 9159      00000000 
 9159      00000000 
 9160 0600 44000000 		.word	.LC37
 9161 0604 00002042 		.word	1109393408
 9162 0608 0000C843 		.word	1137180672
 9163 060c A25D1340 		.word	1075010978
 9164 0610 0000803F 		.word	1065353216
 9165 0614 AE47613E 		.word	1046562734
 9166 0618 01       		.byte	1
 9167 0619 000000   		.space	3
 9168 061c CDCCCC3F 		.word	1070386381
 9169 0620 9A99193E 		.word	1041865114
 9170 0624 01       		.byte	1
 9171 0625 000000   		.space	3
 9172 0628 0000003F 		.word	1056964608
 9173 062c CDCCCC3D 		.word	1036831949
 9174 0630 01       		.byte	1
 9175 0631 000000   		.space	3
 9176 0634 00000040 		.word	1073741824
 9177 0638 00000000 		.word	0
 9178 063c 01       		.byte	1
 9179 063d 00       		.byte	0
 9180 063e 0000     		.space	2
 9181 0640 00004040 		.word	1077936128
 9182 0644 00004040 		.word	1077936128
 9183 0648 9A99993E 		.word	1050253722
 9184 064c 0000C03F 		.word	1069547520
 9185 0650 3333333F 		.word	1060320051
 9186 0654 9A99993E 		.word	1050253722
 9187 0658 0000803F 		.word	1065353216
 9188 065c 00000000 		.word	0
 9189 0660 CDCCCC3D 		.word	1036831949
 9190 0664 0000803F 		.word	1065353216
 9191 0668 00001643 		.word	1125515264
 9192 066c 0000A040 		.word	1084227584
 9193 0670 0000803F 		.word	1065353216
 9194 0674 0000A042 		.word	1117782016
 9195 0678 00000000 		.word	0
 9196 067c 01       		.byte	1
 9197 067d 000000   		.space	3
 9198 0680 9A99593F 		.word	1062836634
 9199 0684 0000C843 		.word	1137180672
 9200 0688 00000000 		.space	56
 9200      00000000 
 9200      00000000 
 9200      00000000 
 9200      00000000 
 9201 06c0 48000000 		.word	.LC38
 9202 06c4 0000F041 		.word	1106247680
 9203 06c8 0000A042 		.word	1117782016
 9204 06cc AD177B3F 		.word	1065031597
 9205 06d0 0000803F 		.word	1065353216
 9206 06d4 CDCC0C3F 		.word	1057803469
 9207 06d8 01       		.byte	1
 9208 06d9 000000   		.space	3
ARM GAS  /tmp/claude-502/ccJ8DnOJ.s 			page 255


 9209 06dc 00000040 		.word	1073741824
 9210 06e0 CDCCCC3D 		.word	1036831949
 9211 06e4 01       		.byte	1
 9212 06e5 000000   		.space	3
 9213 06e8 0000003F 		.word	1056964608
 9214 06ec 9A99193E 		.word	1041865114
 9215 06f0 01       		.byte	1
 9216 06f1 000000   		.space	3
 9217 06f4 00000040 		.word	1073741824
 9218 06f8 00000000 		.word	0
 9219 06fc 01       		.byte	1
 9220 06fd 00       		.byte	0
 9221 06fe 0000     		.space	2
 9222 0700 00004040 		.word	1077936128
 9223 0704 00000040 		.word	1073741824
 9224 0708 CDCC4C3E 		.word	1045220557
 9225 070c 6666E63F 		.word	1072064102
 9226 0710 0AD7A33D 		.word	1034147594
 9227 0714 0000003F 		.word	1056964608
 9228 0718 0000803F 		.word	1065353216
 9229 071c 00000000 		.word	0
 9230 0720 00000000 		.word	0
 9231 0724 0000803F 		.word	1065353216
 9232 0728 00002043 		.word	1126170624
 9233 072c 0000A040 		.word	1084227584
 9234 0730 00000040 		.word	1073741824
 9235 0734 00003442 		.word	1110704128
 9236 0738 00000000 		.word	0
 9237 073c 01       		.byte	1
 9238 073d 000000   		.space	3
 9239 0740 9A99593F 		.word	1062836634
 9240 0744 0000C843 		.word	1137180672
 9241 0748 00000000 		.space	56
 9241      00000000 
 9241      00000000 
 9241      00000000 
 9241      00000000 
 9242 0780 50000000 		.word	.LC39
 9243 0784 00001643 		.word	1125515264
 9244 0788 0000FA43 		.word	1140457472
 9245 078c B01B9A3F 		.word	1067064240
 9246 0790 0000803F 		.word	1065353216
 9247 0794 9A99193E 		.word	1041865114
 9248 0798 01       		.byte	1
 9249 0799 000000   		.space	3
 9250 079c 6666E63F 		.word	1072064102
 9251 07a0 8FC2F53D 		.word	1039516303
 9252 07a4 00       		.byte	0
 9253 07a5 000000   		.space	3
 9254 07a8 0000003F 		.word	1056964608
 9255 07ac CDCC4C3D 		.word	1028443341
 9256 07b0 01       		.byte	1
 9257 07b1 000000   		.space	3
 9258 07b4 00000040 		.word	1073741824
 9259 07b8 00000000 		.word	0
 9260 07bc 01       		.byte	1
 9261 07bd 00       		.byte	0
ARM GAS  /tmp/claude-502/ccJ8DnOJ.s 			page 256


 9262 07be 0000     		.space	2
 9263 07c0 00009041 		.word	1099956224
 9264 07c4 00008040 		.word	1082130432
 9265 07c8 9A99993E 		.word	1050253722
 9266 07cc 0000C03F 		.word	1069547520
 9267 07d0 EC51383F 		.word	1060655596
 9268 07d4 9A99993E 		.word	1050253722
 9269 07d8 0000803F 		.word	1065353216
 9270 07dc 00000000 		.word	0
 9271 07e0 CDCCCC3D 		.word	1036831949
 9272 07e4 0000803F 		.word	1065353216
 9273 07e8 00000C43 		.word	1124859904
 9274 07ec 0000A040 		.word	1084227584
 9275 07f0 3333333F 		.word	1060320051
 9276 07f4 0000F041 		.word	1106247680
 9277 07f8 00000000 		.word	0
 9278 07fc 01       		.byte	1
 9279 07fd 000000   		.space	3
 9280 0800 9A99593F 		.word	1062836634
 9281 0804 0000C843 		.word	1137180672
 9282 0808 00000000 		.space	56
 9282      00000000 
 9282      00000000 
 9282      00000000 
 9282      00000000 
 9283 0840 58000000 		.word	.LC40
 9284 0844 00007A45 		.word	1165623296
 9285 0848 00E02B46 		.word	1177280512
 9286 084c 1C7C813F 		.word	1065450524
 9287 0850 0000803F 		.word	1065353216
 9288 0854 CDCCCC3D 		.word	1036831949
 9289 0858 02       		.byte	2
 9290 0859 000000   		.space	3
 9291 085c 3D0AD73F 		.word	1071057469
 9292 0860 0AD7A33D 		.word	1034147594
 9293 0864 02       		.byte	2
 9294 0865 000000   		.space	3
 9295 0868 0000003F 		.word	1056964608
 9296 086c 00000000 		.word	0
 9297 0870 01       		.byte	1
 9298 0871 000000   		.space	3
 9299 0874 00000040 		.word	1073741824
 9300 0878 8FC2753D 		.word	1031127695
 9301 087c 02       		.byte	2
 9302 087d 00       		.byte	0
 9303 087e 0000     		.space	2
 9304 0880 0000C841 		.word	1103626240
 9305 0884 00000040 		.word	1073741824
 9306 0888 CDCC4C3E 		.word	1045220557
 9307 088c 9A99993F 		.word	1067030938
 9308 0890 CDCC4C3F 		.word	1061997773
 9309 0894 CDCC4C3E 		.word	1045220557
 9310 0898 0000803F 		.word	1065353216
 9311 089c 00000000 		.word	0
 9312 08a0 CDCC4C3D 		.word	1028443341
 9313 08a4 0000803F 		.word	1065353216
 9314 08a8 00002043 		.word	1126170624
ARM GAS  /tmp/claude-502/ccJ8DnOJ.s 			page 257


 9315 08ac 00004040 		.word	1077936128
 9316 08b0 00000000 		.word	0
 9317 08b4 00000000 		.word	0
 9318 08b8 0000803F 		.word	1065353216
 9319 08bc 01       		.byte	1
 9320 08bd 000000   		.space	3
 9321 08c0 9A99593F 		.word	1062836634
 9322 08c4 0000C843 		.word	1137180672
 9323 08c8 00000000 		.space	56
 9323      00000000 
 9323      00000000 
 9323      00000000 
 9323      00000000 
 9324 0900 60000000 		.word	.LC41
 9325 0904 00002042 		.word	1109393408
 9326 0908 0000C843 		.word	1137180672
 9327 090c A25D1340 		.word	1075010978
 9328 0910 0000803F 		.word	1065353216
 9329 0914 3D0AD73E 		.word	1054280253
 9330 0918 03       		.byte	3
 9331 0919 000000   		.space	3
 9332 091c 0000803F 		.word	1065353216
 9333 0920 295C8F3E 		.word	1049582633
 9334 0924 02       		.byte	2
 9335 0925 000000   		.space	3
 9336 0928 0000003F 		.word	1056964608
 9337 092c CDCCCC3E 		.word	1053609165
 9338 0930 02       		.byte	2
 9339 0931 000000   		.space	3
 9340 0934 00000040 		.word	1073741824
 9341 0938 00000000 		.word	0
 9342 093c 02       		.byte	2
 9343 093d 00       		.byte	0
 9344 093e 0000     		.space	2
 9345 0940 CDCC4C3F 		.word	1061997773
 9346 0944 00001041 		.word	1091567616
 9347 0948 CDCC4C3F 		.word	1061997773
 9348 094c 6666E63F 		.word	1072064102
 9349 0950 0AD7A33C 		.word	1017370378
 9350 0954 0000803F 		.word	1065353216
 9351 0958 0000803F 		.word	1065353216
 9352 095c CDCCCC3D 		.word	1036831949
 9353 0960 8FC2F53D 		.word	1039516303
 9354 0964 00000040 		.word	1073741824
 9355 0968 00005C43 		.word	1130102784
 9356 096c 0000F041 		.word	1106247680
 9357 0970 00000000 		.word	0
 9358 0974 00000000 		.word	0
 9359 0978 00000000 		.word	0
 9360 097c 00       		.byte	0
 9361 097d 000000   		.space	3
 9362 0980 00000000 		.word	0
 9363 0984 00000000 		.word	0
 9364 0988 01       		.byte	1
 9365 0989 000000   		.space	3
 9366 098c 00000000 		.word	_ZL11SCALE_MINOR
 9367 0990 07000000 		.word	7
ARM GAS  /tmp/claude-502/ccJ8DnOJ.s 			page 258


 9368 0994 00000000 		.word	0
 9369 0998 00000000 		.word	0
 9370 099c 01       		.byte	1
 9371 099d 000000   		.space	3
 9372 09a0 6666663F 		.word	1063675494
 9373 09a4 01000000 		.word	1
 9374 09a8 00000000 		.space	24
 9374      00000000 
 9374      00000000 
 9374      00000000 
 9374      00000000 
 9375 09c0 6C000000 		.word	.LC42
 9376 09c4 00002042 		.word	1109393408
 9377 09c8 0000C843 		.word	1137180672
 9378 09cc A25D1340 		.word	1075010978
 9379 09d0 0000803F 		.word	1065353216
 9380 09d4 3D0AD73E 		.word	1054280253
 9381 09d8 03       		.byte	3
 9382 09d9 000000   		.space	3
 9383 09dc 0000803F 		.word	1065353216
 9384 09e0 295C8F3E 		.word	1049582633
 9385 09e4 02       		.byte	2
 9386 09e5 000000   		.space	3
 9387 09e8 0000003F 		.word	1056964608
 9388 09ec CDCCCC3E 		.word	1053609165
 9389 09f0 02       		.byte	2
 9390 09f1 000000   		.space	3
 9391 09f4 00000040 		.word	1073741824
 9392 09f8 00000000 		.word	0
 9393 09fc 02       		.byte	2
 9394 09fd 00       		.byte	0
 9395 09fe 0000     		.space	2
 9396 0a00 CDCC4C3F 		.word	1061997773
 9397 0a04 00001041 		.word	1091567616
 9398 0a08 CDCC4C3F 		.word	1061997773
 9399 0a0c 6666E63F 		.word	1072064102
 9400 0a10 0AD7A33C 		.word	1017370378
 9401 0a14 0000803F 		.word	1065353216
 9402 0a18 0000803F 		.word	1065353216
 9403 0a1c CDCCCC3D 		.word	1036831949
 9404 0a20 8FC2F53D 		.word	1039516303
 9405 0a24 00000040 		.word	1073741824
 9406 0a28 00005C43 		.word	1130102784
 9407 0a2c 0000F041 		.word	1106247680
 9408 0a30 00000000 		.word	0
 9409 0a34 00000000 		.word	0
 9410 0a38 00000000 		.word	0
 9411 0a3c 00       		.byte	0
 9412 0a3d 000000   		.space	3
 9413 0a40 00000000 		.word	0
 9414 0a44 00000000 		.word	0
 9415 0a48 01       		.byte	1
 9416 0a49 000000   		.space	3
 9417 0a4c 00000000 		.word	_ZL11SCALE_MAJOR
 9418 0a50 07000000 		.word	7
 9419 0a54 00000000 		.word	0
 9420 0a58 00000000 		.word	0
ARM GAS  /tmp/claude-502/ccJ8DnOJ.s 			page 259


 9421 0a5c 01       		.byte	1
 9422 0a5d 000000   		.space	3
 9423 0a60 6666663F 		.word	1063675494
 9424 0a64 01000000 		.word	1
 9425 0a68 00000000 		.space	24
 9425      00000000 
 9425      00000000 
 9425      00000000 
 9425      00000000 
 9426 0a80 78000000 		.word	.LC43
 9427 0a84 0000F041 		.word	1106247680
 9428 0a88 0000A042 		.word	1117782016
 9429 0a8c AD177B3F 		.word	1065031597
 9430 0a90 0000803F 		.word	1065353216
 9431 0a94 CDCC0C3F 		.word	1057803469
 9432 0a98 01       		.byte	1
 9433 0a99 000000   		.space	3
 9434 0a9c 0000803F 		.word	1065353216
 9435 0aa0 00000000 		.word	0
 9436 0aa4 01       		.byte	1
 9437 0aa5 000000   		.space	3
 9438 0aa8 0000003F 		.word	1056964608
 9439 0aac 00000000 		.word	0
 9440 0ab0 01       		.byte	1
 9441 0ab1 000000   		.space	3
 9442 0ab4 00000040 		.word	1073741824
 9443 0ab8 00000000 		.word	0
 9444 0abc 01       		.byte	1
 9445 0abd 00       		.byte	0
 9446 0abe 0000     		.space	2
 9447 0ac0 00004040 		.word	1077936128
 9448 0ac4 00000040 		.word	1073741824
 9449 0ac8 CDCC4C3E 		.word	1045220557
 9450 0acc 0000803F 		.word	1065353216
 9451 0ad0 00000000 		.word	0
 9452 0ad4 0000003F 		.word	1056964608
 9453 0ad8 0000803F 		.word	1065353216
 9454 0adc 00000000 		.word	0
 9455 0ae0 00000000 		.word	0
 9456 0ae4 0000803F 		.word	1065353216
 9457 0ae8 00002043 		.word	1126170624
 9458 0aec 0000A040 		.word	1084227584
 9459 0af0 00000000 		.word	0
 9460 0af4 00000000 		.word	0
 9461 0af8 00000000 		.word	0
 9462 0afc 00000000 		.space	68
 9462      00000000 
 9462      00000000 
 9462      00000000 
 9462      00000000 
 9463              		.section	.rodata._ZN5daisy4seedL2A0E,"a"
 9464              		.align	2
 9465              		.set	.LANCHOR1,. + 0
 9468              	_ZN5daisy4seedL2A0E:
 9469 0000 02       		.byte	2
 9470 0001 00       		.byte	0
 9471              		.text
ARM GAS  /tmp/claude-502/ccJ8DnOJ.s 			page 260


 9472              	.Letext0:
 9473              		.file 14 "/Library/DaisyToolchain/0.2.0/arm/arm-none-eabi/include/machine/_default_types.h"
 9474              		.file 15 "/Library/DaisyToolchain/0.2.0/arm/arm-none-eabi/include/sys/_stdint.h"
 9475              		.file 16 "/Library/DaisyToolchain/0.2.0/arm/arm-none-eabi/include/stdint.h"
 9476              		.file 17 "/Users/reza.kalfane/Workspaces/Daisy/DaisyExamples/libDaisy/Drivers/CMSIS/Include/core_c
 9477              		.file 18 "/Library/DaisyToolchain/0.2.0/arm/lib/gcc/arm-none-eabi/10.3.1/include/stddef.h"
 9478              		.file 19 "/Library/DaisyToolchain/0.2.0/arm/arm-none-eabi/include/c++/10.3.1/cmath"
 9479              		.file 20 "/Library/DaisyToolchain/0.2.0/arm/arm-none-eabi/include/c++/10.3.1/bits/std_abs.h"
 9480              		.file 21 "/Library/DaisyToolchain/0.2.0/arm/arm-none-eabi/include/c++/10.3.1/cstdlib"
 9481              		.file 22 "/Library/DaisyToolchain/0.2.0/arm/arm-none-eabi/include/c++/10.3.1/cstdint"
 9482              		.file 23 "/Library/DaisyToolchain/0.2.0/arm/arm-none-eabi/include/c++/10.3.1/type_traits"
 9483              		.file 24 "/Library/DaisyToolchain/0.2.0/arm/arm-none-eabi/include/c++/10.3.1/debug/debug.h"
 9484              		.file 25 "/Library/DaisyToolchain/0.2.0/arm/arm-none-eabi/include/c++/10.3.1/arm-none-eabi/thumb/v
 9485              		.file 26 "/Library/DaisyToolchain/0.2.0/arm/arm-none-eabi/include/c++/10.3.1/bits/algorithmfwd.h"
 9486              		.file 27 "/Library/DaisyToolchain/0.2.0/arm/arm-none-eabi/include/c++/10.3.1/bits/exception_ptr.h"
 9487              		.file 28 "/Library/DaisyToolchain/0.2.0/arm/arm-none-eabi/include/c++/10.3.1/bits/stl_pair.h"
 9488              		.file 29 "/Library/DaisyToolchain/0.2.0/arm/arm-none-eabi/include/c++/10.3.1/cstdarg"
 9489              		.file 30 "/Library/DaisyToolchain/0.2.0/arm/arm-none-eabi/include/c++/10.3.1/cstdio"
 9490              		.file 31 "/Library/DaisyToolchain/0.2.0/arm/arm-none-eabi/include/c++/10.3.1/cstring"
 9491              		.file 32 "/Library/DaisyToolchain/0.2.0/arm/arm-none-eabi/include/c++/10.3.1/bits/predefined_ops.h
 9492              		.file 33 "/Library/DaisyToolchain/0.2.0/arm/arm-none-eabi/include/sys/_types.h"
 9493              		.file 34 "/Library/DaisyToolchain/0.2.0/arm/arm-none-eabi/include/sys/reent.h"
 9494              		.file 35 "/Library/DaisyToolchain/0.2.0/arm/arm-none-eabi/include/sys/lock.h"
 9495              		.file 36 "/Library/DaisyToolchain/0.2.0/arm/arm-none-eabi/include/math.h"
 9496              		.file 37 "/Library/DaisyToolchain/0.2.0/arm/arm-none-eabi/include/stdlib.h"
 9497              		.file 38 "/Library/DaisyToolchain/0.2.0/arm/arm-none-eabi/include/c++/10.3.1/math.h"
 9498              		.file 39 "/Library/DaisyToolchain/0.2.0/arm/arm-none-eabi/include/c++/10.3.1/stdlib.h"
 9499              		.file 40 "/Users/reza.kalfane/Workspaces/Daisy/DaisyExamples/libDaisy/src/per/tim.h"
 9500              		.file 41 "/Users/reza.kalfane/Workspaces/Daisy/DaisyExamples/libDaisy/src/util/wav_format.h"
 9501              		.file 42 "/Users/reza.kalfane/Workspaces/Daisy/DaisyExamples/libDaisy/src/dev/max11300.h"
 9502              		.file 43 "/Users/reza.kalfane/Workspaces/Daisy/DaisyExamples/libDaisy/src/dev/sdram.h"
 9503              		.file 44 "/Library/DaisyToolchain/0.2.0/arm/lib/gcc/arm-none-eabi/10.3.1/include/stdarg.h"
 9504              		.file 45 "/Library/DaisyToolchain/0.2.0/arm/arm-none-eabi/include/stdio.h"
 9505              		.file 46 "/Library/DaisyToolchain/0.2.0/arm/arm-none-eabi/include/string.h"
 9506              		.file 47 "src/config.h"
 9507              		.file 48 "/Users/reza.kalfane/Workspaces/Daisy/DaisyExamples/libDaisy/src/dev/sr_595.h"
 9508              		.file 49 "src/mpr121.h"
 9509              		.file 50 "src/touch.h"
 9510              		.file 51 "src/engine.h"
 9511              		.file 52 "src/serialtune.h"
 9512              		.file 53 "src/persist.h"
 9513              		.file 54 "src/usb_glue.h"
 9514              		.file 55 "<built-in>"
ARM GAS  /tmp/claude-502/ccJ8DnOJ.s 			page 261


DEFINED SYMBOLS
                            *ABS*:0000000000000000 main.cpp
/tmp/claude-502/ccJ8DnOJ.s:19     .text._ZN5daisy9DaisySeedD2Ev:0000000000000000 $t
/tmp/claude-502/ccJ8DnOJ.s:26     .text._ZN5daisy9DaisySeedD2Ev:0000000000000000 _ZN5daisy9DaisySeedD2Ev
/tmp/claude-502/ccJ8DnOJ.s:26     .text._ZN5daisy9DaisySeedD2Ev:0000000000000000 _ZN5daisy9DaisySeedD1Ev
/tmp/claude-502/ccJ8DnOJ.s:67     .text._Z13quantize_midifPKai:0000000000000000 $t
/tmp/claude-502/ccJ8DnOJ.s:74     .text._Z13quantize_midifPKai:0000000000000000 _Z13quantize_midifPKai
/tmp/claude-502/ccJ8DnOJ.s:224    .text._Z13quantize_midifPKai:0000000000000088 $d
/tmp/claude-502/ccJ8DnOJ.s:229    .text._Z8make_barPclli:0000000000000000 $t
/tmp/claude-502/ccJ8DnOJ.s:236    .text._Z8make_barPclli:0000000000000000 _Z8make_barPclli
/tmp/claude-502/ccJ8DnOJ.s:332    .text._Z12make_pos_barPci:0000000000000000 $t
/tmp/claude-502/ccJ8DnOJ.s:339    .text._Z12make_pos_barPci:0000000000000000 _Z12make_pos_barPci
/tmp/claude-502/ccJ8DnOJ.s:454    .text._Z12make_pos_barPci:000000000000006c $d
/tmp/claude-502/ccJ8DnOJ.s:459    .rodata.main.str1.4:0000000000000000 $d
/tmp/claude-502/ccJ8DnOJ.s:550    .text.startup.main:0000000000000000 $t
/tmp/claude-502/ccJ8DnOJ.s:557    .text.startup.main:0000000000000000 main
/tmp/claude-502/ccJ8DnOJ.s:762    .text.startup.main:00000000000000cc $d
/tmp/claude-502/ccJ8DnOJ.s:773    .text.startup.main:00000000000000ec $t
/tmp/claude-502/ccJ8DnOJ.s:1465   .text.startup.main:0000000000000388 $d
/tmp/claude-502/ccJ8DnOJ.s:1496   .text.startup.main:00000000000003f8 $t
/tmp/claude-502/ccJ8DnOJ.s:2224   .text.startup.main:0000000000000758 $d
/tmp/claude-502/ccJ8DnOJ.s:2246   .text.startup.main:00000000000007a4 $t
/tmp/claude-502/ccJ8DnOJ.s:3075   .text.startup.main:0000000000000af8 $d
/tmp/claude-502/ccJ8DnOJ.s:3112   .text.startup.main:0000000000000b64 $t
/tmp/claude-502/ccJ8DnOJ.s:3753   .text.startup.main:0000000000000e54 $d
/tmp/claude-502/ccJ8DnOJ.s:3783   .text.startup.main:0000000000000e9c $t
/tmp/claude-502/ccJ8DnOJ.s:4466   .text.startup.main:00000000000011b8 $d
/tmp/claude-502/ccJ8DnOJ.s:4485   .text.startup.main:00000000000011f8 $t
/tmp/claude-502/ccJ8DnOJ.s:5298   .text.startup.main:0000000000001534 $d
/tmp/claude-502/ccJ8DnOJ.s:5321   .text.startup.main:0000000000001574 $t
/tmp/claude-502/ccJ8DnOJ.s:5889   .text.startup.main:0000000000001840 $d
/tmp/claude-502/ccJ8DnOJ.s:5922   .text.startup.main:00000000000018ac $t
/tmp/claude-502/ccJ8DnOJ.s:6892   .text.startup.main:0000000000001c4c $d
/tmp/claude-502/ccJ8DnOJ.s:6921   .text.startup.main:0000000000001ca8 $t
/tmp/claude-502/ccJ8DnOJ.s:7826   .text.startup.main:0000000000001fbc $d
/tmp/claude-502/ccJ8DnOJ.s:7858   .text.startup.main:0000000000002030 $t
/tmp/claude-502/ccJ8DnOJ.s:8541   .text.startup.main:0000000000002288 $d
/tmp/claude-502/ccJ8DnOJ.s:8564   .text.startup._GLOBAL__sub_I_g_voice_idx:0000000000000000 $t
/tmp/claude-502/ccJ8DnOJ.s:8570   .text.startup._GLOBAL__sub_I_g_voice_idx:0000000000000000 _GLOBAL__sub_I_g_voice_idx
/tmp/claude-502/ccJ8DnOJ.s:8730   .text.startup._GLOBAL__sub_I_g_voice_idx:0000000000000028 $d
/tmp/claude-502/ccJ8DnOJ.s:8738   .init_array:0000000000000000 $d
/tmp/claude-502/ccJ8DnOJ.s:8802   .bss.led3:0000000000000000 led3
/tmp/claude-502/ccJ8DnOJ.s:8795   .bss.hw:0000000000000000 hw
/tmp/claude-502/ccJ8DnOJ.s:8809   .data.g_active_voice:0000000000000000 g_active_voice
/tmp/claude-502/ccJ8DnOJ.s:8816   .data.g_voice_idx:0000000000000000 g_voice_idx
/tmp/claude-502/ccJ8DnOJ.s:8745   .rodata.str1.4:0000000000000000 $d
/tmp/claude-502/ccJ8DnOJ.s:8791   .bss.hw:0000000000000000 $d
/tmp/claude-502/ccJ8DnOJ.s:8798   .bss.led3:0000000000000000 $d
/tmp/claude-502/ccJ8DnOJ.s:8805   .data.g_active_voice:0000000000000000 $d
/tmp/claude-502/ccJ8DnOJ.s:8812   .data.g_voice_idx:0000000000000000 $d
/tmp/claude-502/ccJ8DnOJ.s:8819   .rodata._ZL11MULTI_ZONES:0000000000000000 $d
/tmp/claude-502/ccJ8DnOJ.s:8823   .rodata._ZL11MULTI_ZONES:0000000000000000 _ZL11MULTI_ZONES
/tmp/claude-502/ccJ8DnOJ.s:8829   .rodata._ZL11SCALE_MAJOR:0000000000000000 $d
/tmp/claude-502/ccJ8DnOJ.s:8832   .rodata._ZL11SCALE_MAJOR:0000000000000000 _ZL11SCALE_MAJOR
/tmp/claude-502/ccJ8DnOJ.s:8835   .rodata._ZL11SCALE_MINOR:0000000000000000 $d
/tmp/claude-502/ccJ8DnOJ.s:8838   .rodata._ZL11SCALE_MINOR:0000000000000000 _ZL11SCALE_MINOR
/tmp/claude-502/ccJ8DnOJ.s:8841   .rodata._ZL15MULTI_INTERVALS:0000000000000000 $d
ARM GAS  /tmp/claude-502/ccJ8DnOJ.s 			page 262


/tmp/claude-502/ccJ8DnOJ.s:8845   .rodata._ZL15MULTI_INTERVALS:0000000000000000 _ZL15MULTI_INTERVALS
/tmp/claude-502/ccJ8DnOJ.s:8851   .rodata._ZL6VOICES:0000000000000000 $d
/tmp/claude-502/ccJ8DnOJ.s:8855   .rodata._ZL6VOICES:0000000000000000 _ZL6VOICES
/tmp/claude-502/ccJ8DnOJ.s:9464   .rodata._ZN5daisy4seedL2A0E:0000000000000000 $d
/tmp/claude-502/ccJ8DnOJ.s:9468   .rodata._ZN5daisy4seedL2A0E:0000000000000000 _ZN5daisy4seedL2A0E
                           .group:0000000000000000 _ZN5daisy9DaisySeedD5Ev

UNDEFINED SYMBOLS
__aeabi_ldivmod
memset
tracked
_ZN5daisy9DaisySeed4InitEb
_ZN5daisy9DaisySeed17SetAudioBlockSizeEj
_Z12persist_initv
_ZN5daisy6System5DelayEm
_Z13mpr_idle_pinsv
_Z8mpr_initv
_ZN5daisy9DacHandle4InitERKNS0_6ConfigE
_ZN5daisy9DacHandle10WriteValueENS0_7ChannelEt
_ZN5daisy4GPIO4InitENS_3PinENS0_4ModeENS0_4PullENS0_5SpeedE
_ZN5daisy4GPIO5WriteEb
_ZN5daisy16AdcChannelConfig10InitSingleE12dsy_gpio_pinNS0_15ConversionSpeedE
_ZN5daisy9AdcHandle4InitEPNS_16AdcChannelConfigEjNS0_12OverSamplingE
_ZN5daisy9AdcHandle5StartEv
_ZN5daisy6System6GetNowEv
g_pfnVectors
_ZNK5daisy9AdcHandle3GetEh
_Z11engine_initv
_ZN5daisy9DaisySeed10StartAudioEPFvPKPKfPPfjE
usb_fs_init
_Z16serial_tune_initv
usb_log
_Z16serial_tune_pollv
_Z15read_electrodesPt
g_bank
g_amp_target
g_target_freq
g_target_cutoff
_Z13AudioCallbackPKPKfPPfj
g_led3_duty
g_master_vol
_Z10detect_rawPlP6Fingeri
_Z14update_trackedP6Fingeri
g_retrig
g_live_tune
g_live_voice
_Z20serial_display_mutedv
g_vibrato_depth
g_target_drive
g_finger_on
g_target_detune
g_bitcrush
g_ringmod
cosf
g_serial_quiet
_Z16capture_baselinePt
powf
ARM GAS  /tmp/claude-502/ccJ8DnOJ.s 			page 263


_ZN5daisy9DaisySeed15AudioSampleRateEv
_Z12drum_triggerR7DrumHitifffff
g_hits
exp2f
_Z17persist_save_bankv
g_chord_ratio2
g_chord_ratio3
sqrtf
__aeabi_atexit
__dso_handle
