ARM GAS  /tmp/claude-502/ccb6uqMv.s 			page 1


   1              		.cpu cortex-m7
   2              		.arch armv7e-m
   3              		.fpu fpv5-d16
   4              		.eabi_attribute 28, 1
   5              		.eabi_attribute 20, 1
   6              		.eabi_attribute 21, 1
   7              		.eabi_attribute 23, 3
   8              		.eabi_attribute 24, 1
   9              		.eabi_attribute 25, 1
  10              		.eabi_attribute 26, 1
  11              		.eabi_attribute 30, 2
  12              		.eabi_attribute 34, 1
  13              		.eabi_attribute 18, 4
  14              		.file	"main.cpp"
  15              		.text
  16              	.Ltext0:
  17              		.cfi_sections	.debug_frame
  18              		.section	.text._ZN5daisy9DaisySeedD2Ev,"axG",%progbits,_ZN5daisy9DaisySeedD5Ev,comdat
  19              		.align	1
  20              		.p2align 2,,3
  21              		.weak	_ZN5daisy9DaisySeedD2Ev
  22              		.syntax unified
  23              		.thumb
  24              		.thumb_func
  26              	_ZN5daisy9DaisySeedD2Ev:
  27              	.LVL0:
  28              	.LFB2556:
  29              		.file 1 "/Users/reza.kalfane/Workspaces/Daisy/DaisyExamples/libDaisy/src/daisy_seed.h"
   1:/Users/reza.kalfane/Workspaces/Daisy/DaisyExamples/libDaisy/src/daisy_seed.h **** #pragma once
   2:/Users/reza.kalfane/Workspaces/Daisy/DaisyExamples/libDaisy/src/daisy_seed.h **** #ifndef DSY_SEED_H
   3:/Users/reza.kalfane/Workspaces/Daisy/DaisyExamples/libDaisy/src/daisy_seed.h **** #define DSY_SEED_H
   4:/Users/reza.kalfane/Workspaces/Daisy/DaisyExamples/libDaisy/src/daisy_seed.h **** 
   5:/Users/reza.kalfane/Workspaces/Daisy/DaisyExamples/libDaisy/src/daisy_seed.h **** #include "daisy.h"
   6:/Users/reza.kalfane/Workspaces/Daisy/DaisyExamples/libDaisy/src/daisy_seed.h **** 
   7:/Users/reza.kalfane/Workspaces/Daisy/DaisyExamples/libDaisy/src/daisy_seed.h **** //Uncomment this out if you're still using the rev2 hardware
   8:/Users/reza.kalfane/Workspaces/Daisy/DaisyExamples/libDaisy/src/daisy_seed.h **** //#define SEED_REV2
   9:/Users/reza.kalfane/Workspaces/Daisy/DaisyExamples/libDaisy/src/daisy_seed.h **** 
  10:/Users/reza.kalfane/Workspaces/Daisy/DaisyExamples/libDaisy/src/daisy_seed.h **** namespace daisy
  11:/Users/reza.kalfane/Workspaces/Daisy/DaisyExamples/libDaisy/src/daisy_seed.h **** {
  12:/Users/reza.kalfane/Workspaces/Daisy/DaisyExamples/libDaisy/src/daisy_seed.h **** /**
  13:/Users/reza.kalfane/Workspaces/Daisy/DaisyExamples/libDaisy/src/daisy_seed.h ****    @brief This is the higher-level interface for the Daisy board. \n 
  14:/Users/reza.kalfane/Workspaces/Daisy/DaisyExamples/libDaisy/src/daisy_seed.h ****     All basic peripheral configuration/initialization is setup here. \n
  15:/Users/reza.kalfane/Workspaces/Daisy/DaisyExamples/libDaisy/src/daisy_seed.h **** 
  16:/Users/reza.kalfane/Workspaces/Daisy/DaisyExamples/libDaisy/src/daisy_seed.h ****    @ingroup boards
  17:/Users/reza.kalfane/Workspaces/Daisy/DaisyExamples/libDaisy/src/daisy_seed.h **** */
  18:/Users/reza.kalfane/Workspaces/Daisy/DaisyExamples/libDaisy/src/daisy_seed.h **** class DaisySeed
  19:/Users/reza.kalfane/Workspaces/Daisy/DaisyExamples/libDaisy/src/daisy_seed.h **** {
  20:/Users/reza.kalfane/Workspaces/Daisy/DaisyExamples/libDaisy/src/daisy_seed.h ****   public:
  21:/Users/reza.kalfane/Workspaces/Daisy/DaisyExamples/libDaisy/src/daisy_seed.h ****     DaisySeed() {}
  22:/Users/reza.kalfane/Workspaces/Daisy/DaisyExamples/libDaisy/src/daisy_seed.h ****     ~DaisySeed() {}
  30              		.loc 1 22 5 view -0
  31              		.cfi_startproc
  32              		@ args = 0, pretend = 0, frame = 0
  33              		@ frame_needed = 0, uses_anonymous_args = 0
  34              		@ link register save eliminated.
  35              	.LBB299:
  36              	.LBI299:
ARM GAS  /tmp/claude-502/ccb6uqMv.s 			page 2


  37              		.file 2 "/Users/reza.kalfane/Workspaces/Daisy/DaisyExamples/libDaisy/src/sys/system.h"
   1:/Users/reza.kalfane/Workspaces/Daisy/DaisyExamples/libDaisy/src/sys/system.h **** #ifndef DSY_SYSTEM_H
   2:/Users/reza.kalfane/Workspaces/Daisy/DaisyExamples/libDaisy/src/sys/system.h **** #define DSY_SYSTEM_H
   3:/Users/reza.kalfane/Workspaces/Daisy/DaisyExamples/libDaisy/src/sys/system.h **** 
   4:/Users/reza.kalfane/Workspaces/Daisy/DaisyExamples/libDaisy/src/sys/system.h **** #ifndef UNIT_TEST // for unit tests, a dummy implementation is provided below
   5:/Users/reza.kalfane/Workspaces/Daisy/DaisyExamples/libDaisy/src/sys/system.h **** 
   6:/Users/reza.kalfane/Workspaces/Daisy/DaisyExamples/libDaisy/src/sys/system.h **** #include <cstdint>
   7:/Users/reza.kalfane/Workspaces/Daisy/DaisyExamples/libDaisy/src/sys/system.h **** #include "per/tim.h"
   8:/Users/reza.kalfane/Workspaces/Daisy/DaisyExamples/libDaisy/src/sys/system.h **** 
   9:/Users/reza.kalfane/Workspaces/Daisy/DaisyExamples/libDaisy/src/sys/system.h **** namespace daisy
  10:/Users/reza.kalfane/Workspaces/Daisy/DaisyExamples/libDaisy/src/sys/system.h **** {
  11:/Users/reza.kalfane/Workspaces/Daisy/DaisyExamples/libDaisy/src/sys/system.h **** /** A handle for interacting with the Core System.
  12:/Users/reza.kalfane/Workspaces/Daisy/DaisyExamples/libDaisy/src/sys/system.h ****  ** This includes the Clock tree, MPU, global DMA initialization,
  13:/Users/reza.kalfane/Workspaces/Daisy/DaisyExamples/libDaisy/src/sys/system.h ****  ** cache handling, and any other necessary global initiailzation
  14:/Users/reza.kalfane/Workspaces/Daisy/DaisyExamples/libDaisy/src/sys/system.h ****  **
  15:/Users/reza.kalfane/Workspaces/Daisy/DaisyExamples/libDaisy/src/sys/system.h ****  ** @author shensley
  16:/Users/reza.kalfane/Workspaces/Daisy/DaisyExamples/libDaisy/src/sys/system.h ****  ** @ingroup system
  17:/Users/reza.kalfane/Workspaces/Daisy/DaisyExamples/libDaisy/src/sys/system.h ****  */
  18:/Users/reza.kalfane/Workspaces/Daisy/DaisyExamples/libDaisy/src/sys/system.h **** class System
  19:/Users/reza.kalfane/Workspaces/Daisy/DaisyExamples/libDaisy/src/sys/system.h **** {
  20:/Users/reza.kalfane/Workspaces/Daisy/DaisyExamples/libDaisy/src/sys/system.h ****   public:
  21:/Users/reza.kalfane/Workspaces/Daisy/DaisyExamples/libDaisy/src/sys/system.h ****     /** Contains settings for initializing the System */
  22:/Users/reza.kalfane/Workspaces/Daisy/DaisyExamples/libDaisy/src/sys/system.h ****     struct Config
  23:/Users/reza.kalfane/Workspaces/Daisy/DaisyExamples/libDaisy/src/sys/system.h ****     {
  24:/Users/reza.kalfane/Workspaces/Daisy/DaisyExamples/libDaisy/src/sys/system.h ****         /** Specifies the system clock frequency that feeds APB/AHB clocks, etc. */
  25:/Users/reza.kalfane/Workspaces/Daisy/DaisyExamples/libDaisy/src/sys/system.h ****         enum class SysClkFreq
  26:/Users/reza.kalfane/Workspaces/Daisy/DaisyExamples/libDaisy/src/sys/system.h ****         {
  27:/Users/reza.kalfane/Workspaces/Daisy/DaisyExamples/libDaisy/src/sys/system.h ****             FREQ_400MHZ,
  28:/Users/reza.kalfane/Workspaces/Daisy/DaisyExamples/libDaisy/src/sys/system.h ****             FREQ_480MHZ,
  29:/Users/reza.kalfane/Workspaces/Daisy/DaisyExamples/libDaisy/src/sys/system.h ****         };
  30:/Users/reza.kalfane/Workspaces/Daisy/DaisyExamples/libDaisy/src/sys/system.h **** 
  31:/Users/reza.kalfane/Workspaces/Daisy/DaisyExamples/libDaisy/src/sys/system.h ****         /** Method to call on the struct to set to defaults
  32:/Users/reza.kalfane/Workspaces/Daisy/DaisyExamples/libDaisy/src/sys/system.h ****          ** CPU Freq set to 400MHz
  33:/Users/reza.kalfane/Workspaces/Daisy/DaisyExamples/libDaisy/src/sys/system.h ****          ** Cache Enabled
  34:/Users/reza.kalfane/Workspaces/Daisy/DaisyExamples/libDaisy/src/sys/system.h ****          ** */
  35:/Users/reza.kalfane/Workspaces/Daisy/DaisyExamples/libDaisy/src/sys/system.h ****         void Defaults()
  36:/Users/reza.kalfane/Workspaces/Daisy/DaisyExamples/libDaisy/src/sys/system.h ****         {
  37:/Users/reza.kalfane/Workspaces/Daisy/DaisyExamples/libDaisy/src/sys/system.h ****             cpu_freq    = SysClkFreq::FREQ_400MHZ;
  38:/Users/reza.kalfane/Workspaces/Daisy/DaisyExamples/libDaisy/src/sys/system.h ****             use_dcache  = true;
  39:/Users/reza.kalfane/Workspaces/Daisy/DaisyExamples/libDaisy/src/sys/system.h ****             use_icache  = true;
  40:/Users/reza.kalfane/Workspaces/Daisy/DaisyExamples/libDaisy/src/sys/system.h ****             skip_clocks = false;
  41:/Users/reza.kalfane/Workspaces/Daisy/DaisyExamples/libDaisy/src/sys/system.h ****         }
  42:/Users/reza.kalfane/Workspaces/Daisy/DaisyExamples/libDaisy/src/sys/system.h **** 
  43:/Users/reza.kalfane/Workspaces/Daisy/DaisyExamples/libDaisy/src/sys/system.h ****         /** Method to call on the struct to set to boost mode:
  44:/Users/reza.kalfane/Workspaces/Daisy/DaisyExamples/libDaisy/src/sys/system.h ****          ** CPU Freq set to 480MHz
  45:/Users/reza.kalfane/Workspaces/Daisy/DaisyExamples/libDaisy/src/sys/system.h ****          ** Cache Enabled
  46:/Users/reza.kalfane/Workspaces/Daisy/DaisyExamples/libDaisy/src/sys/system.h ****          ** */
  47:/Users/reza.kalfane/Workspaces/Daisy/DaisyExamples/libDaisy/src/sys/system.h ****         void Boost()
  48:/Users/reza.kalfane/Workspaces/Daisy/DaisyExamples/libDaisy/src/sys/system.h ****         {
  49:/Users/reza.kalfane/Workspaces/Daisy/DaisyExamples/libDaisy/src/sys/system.h ****             cpu_freq    = SysClkFreq::FREQ_480MHZ;
  50:/Users/reza.kalfane/Workspaces/Daisy/DaisyExamples/libDaisy/src/sys/system.h ****             use_dcache  = true;
  51:/Users/reza.kalfane/Workspaces/Daisy/DaisyExamples/libDaisy/src/sys/system.h ****             use_icache  = true;
  52:/Users/reza.kalfane/Workspaces/Daisy/DaisyExamples/libDaisy/src/sys/system.h ****             skip_clocks = false;
  53:/Users/reza.kalfane/Workspaces/Daisy/DaisyExamples/libDaisy/src/sys/system.h ****         }
  54:/Users/reza.kalfane/Workspaces/Daisy/DaisyExamples/libDaisy/src/sys/system.h **** 
  55:/Users/reza.kalfane/Workspaces/Daisy/DaisyExamples/libDaisy/src/sys/system.h ****         SysClkFreq cpu_freq;
  56:/Users/reza.kalfane/Workspaces/Daisy/DaisyExamples/libDaisy/src/sys/system.h ****         bool       use_dcache;
ARM GAS  /tmp/claude-502/ccb6uqMv.s 			page 3


  57:/Users/reza.kalfane/Workspaces/Daisy/DaisyExamples/libDaisy/src/sys/system.h ****         bool       use_icache;
  58:/Users/reza.kalfane/Workspaces/Daisy/DaisyExamples/libDaisy/src/sys/system.h ****         bool       skip_clocks;
  59:/Users/reza.kalfane/Workspaces/Daisy/DaisyExamples/libDaisy/src/sys/system.h ****     };
  60:/Users/reza.kalfane/Workspaces/Daisy/DaisyExamples/libDaisy/src/sys/system.h **** 
  61:/Users/reza.kalfane/Workspaces/Daisy/DaisyExamples/libDaisy/src/sys/system.h ****     /** Describes the different regions of memory available to the Daisy */
  62:/Users/reza.kalfane/Workspaces/Daisy/DaisyExamples/libDaisy/src/sys/system.h ****     enum MemoryRegion
  63:/Users/reza.kalfane/Workspaces/Daisy/DaisyExamples/libDaisy/src/sys/system.h ****     {
  64:/Users/reza.kalfane/Workspaces/Daisy/DaisyExamples/libDaisy/src/sys/system.h ****         INTERNAL_FLASH = 0,
  65:/Users/reza.kalfane/Workspaces/Daisy/DaisyExamples/libDaisy/src/sys/system.h ****         ITCMRAM,
  66:/Users/reza.kalfane/Workspaces/Daisy/DaisyExamples/libDaisy/src/sys/system.h ****         DTCMRAM,
  67:/Users/reza.kalfane/Workspaces/Daisy/DaisyExamples/libDaisy/src/sys/system.h ****         SRAM_D1,
  68:/Users/reza.kalfane/Workspaces/Daisy/DaisyExamples/libDaisy/src/sys/system.h ****         SRAM_D2,
  69:/Users/reza.kalfane/Workspaces/Daisy/DaisyExamples/libDaisy/src/sys/system.h ****         SRAM_D3,
  70:/Users/reza.kalfane/Workspaces/Daisy/DaisyExamples/libDaisy/src/sys/system.h ****         SDRAM,
  71:/Users/reza.kalfane/Workspaces/Daisy/DaisyExamples/libDaisy/src/sys/system.h ****         QSPI,
  72:/Users/reza.kalfane/Workspaces/Daisy/DaisyExamples/libDaisy/src/sys/system.h ****         INVALID_ADDRESS,
  73:/Users/reza.kalfane/Workspaces/Daisy/DaisyExamples/libDaisy/src/sys/system.h ****     };
  74:/Users/reza.kalfane/Workspaces/Daisy/DaisyExamples/libDaisy/src/sys/system.h **** 
  75:/Users/reza.kalfane/Workspaces/Daisy/DaisyExamples/libDaisy/src/sys/system.h ****     /** Bootloader struct for controlling bootloading parameters */
  76:/Users/reza.kalfane/Workspaces/Daisy/DaisyExamples/libDaisy/src/sys/system.h ****     struct BootInfo
  77:/Users/reza.kalfane/Workspaces/Daisy/DaisyExamples/libDaisy/src/sys/system.h ****     {
  78:/Users/reza.kalfane/Workspaces/Daisy/DaisyExamples/libDaisy/src/sys/system.h ****         enum class Type : uint32_t
  79:/Users/reza.kalfane/Workspaces/Daisy/DaisyExamples/libDaisy/src/sys/system.h ****         {
  80:/Users/reza.kalfane/Workspaces/Daisy/DaisyExamples/libDaisy/src/sys/system.h ****             INVALID      = 0x00000000,
  81:/Users/reza.kalfane/Workspaces/Daisy/DaisyExamples/libDaisy/src/sys/system.h ****             JUMP         = 0xDEADBEEF,
  82:/Users/reza.kalfane/Workspaces/Daisy/DaisyExamples/libDaisy/src/sys/system.h ****             SKIP_TIMEOUT = 0x5AFEB007,
  83:/Users/reza.kalfane/Workspaces/Daisy/DaisyExamples/libDaisy/src/sys/system.h ****             INF_TIMEOUT  = 0xB0074EFA,
  84:/Users/reza.kalfane/Workspaces/Daisy/DaisyExamples/libDaisy/src/sys/system.h ****         } status;
  85:/Users/reza.kalfane/Workspaces/Daisy/DaisyExamples/libDaisy/src/sys/system.h ****         uint32_t data;
  86:/Users/reza.kalfane/Workspaces/Daisy/DaisyExamples/libDaisy/src/sys/system.h ****         enum class Version : uint32_t
  87:/Users/reza.kalfane/Workspaces/Daisy/DaisyExamples/libDaisy/src/sys/system.h ****         {
  88:/Users/reza.kalfane/Workspaces/Daisy/DaisyExamples/libDaisy/src/sys/system.h ****             LT_v6_0 = 0, // Less than v6.0
  89:/Users/reza.kalfane/Workspaces/Daisy/DaisyExamples/libDaisy/src/sys/system.h ****             NONE,        // No bootloader present
  90:/Users/reza.kalfane/Workspaces/Daisy/DaisyExamples/libDaisy/src/sys/system.h ****             v6_0,        // v6.0
  91:/Users/reza.kalfane/Workspaces/Daisy/DaisyExamples/libDaisy/src/sys/system.h ****             v6_1,        // v6.1 or greater
  92:/Users/reza.kalfane/Workspaces/Daisy/DaisyExamples/libDaisy/src/sys/system.h ****             LAST
  93:/Users/reza.kalfane/Workspaces/Daisy/DaisyExamples/libDaisy/src/sys/system.h ****         } version;
  94:/Users/reza.kalfane/Workspaces/Daisy/DaisyExamples/libDaisy/src/sys/system.h ****     };
  95:/Users/reza.kalfane/Workspaces/Daisy/DaisyExamples/libDaisy/src/sys/system.h **** 
  96:/Users/reza.kalfane/Workspaces/Daisy/DaisyExamples/libDaisy/src/sys/system.h ****     System() {}
  97:/Users/reza.kalfane/Workspaces/Daisy/DaisyExamples/libDaisy/src/sys/system.h ****     ~System() {}
  38              		.loc 2 97 5 view .LVU1
  39              		.loc 2 97 5 is_stmt 0 view .LVU2
  40              	.LBE299:
  41              	.LBB300:
  42              	.LBI300:
  43              		.file 3 "/Users/reza.kalfane/Workspaces/Daisy/DaisyExamples/libDaisy/src/hid/usb.h"
   1:/Users/reza.kalfane/Workspaces/Daisy/DaisyExamples/libDaisy/src/hid/usb.h **** #pragma once
   2:/Users/reza.kalfane/Workspaces/Daisy/DaisyExamples/libDaisy/src/hid/usb.h **** #ifndef DSY_HID_USB_H
   3:/Users/reza.kalfane/Workspaces/Daisy/DaisyExamples/libDaisy/src/hid/usb.h **** #define DSY_HID_USB_H
   4:/Users/reza.kalfane/Workspaces/Daisy/DaisyExamples/libDaisy/src/hid/usb.h **** #include <stdint.h>
   5:/Users/reza.kalfane/Workspaces/Daisy/DaisyExamples/libDaisy/src/hid/usb.h **** #include <stdlib.h>
   6:/Users/reza.kalfane/Workspaces/Daisy/DaisyExamples/libDaisy/src/hid/usb.h **** 
   7:/Users/reza.kalfane/Workspaces/Daisy/DaisyExamples/libDaisy/src/hid/usb.h **** namespace daisy
   8:/Users/reza.kalfane/Workspaces/Daisy/DaisyExamples/libDaisy/src/hid/usb.h **** /** @addtogroup human_interface
   9:/Users/reza.kalfane/Workspaces/Daisy/DaisyExamples/libDaisy/src/hid/usb.h ****     @{
  10:/Users/reza.kalfane/Workspaces/Daisy/DaisyExamples/libDaisy/src/hid/usb.h **** */
ARM GAS  /tmp/claude-502/ccb6uqMv.s 			page 4


  11:/Users/reza.kalfane/Workspaces/Daisy/DaisyExamples/libDaisy/src/hid/usb.h **** 
  12:/Users/reza.kalfane/Workspaces/Daisy/DaisyExamples/libDaisy/src/hid/usb.h **** {
  13:/Users/reza.kalfane/Workspaces/Daisy/DaisyExamples/libDaisy/src/hid/usb.h **** /** 
  14:/Users/reza.kalfane/Workspaces/Daisy/DaisyExamples/libDaisy/src/hid/usb.h ****     @brief Interface for initializing and using the USB Peripherals on the daisy
  15:/Users/reza.kalfane/Workspaces/Daisy/DaisyExamples/libDaisy/src/hid/usb.h ****     @author Stephen Hensley
  16:/Users/reza.kalfane/Workspaces/Daisy/DaisyExamples/libDaisy/src/hid/usb.h ****     @date December 2019
  17:/Users/reza.kalfane/Workspaces/Daisy/DaisyExamples/libDaisy/src/hid/usb.h **** */
  18:/Users/reza.kalfane/Workspaces/Daisy/DaisyExamples/libDaisy/src/hid/usb.h **** class UsbHandle
  19:/Users/reza.kalfane/Workspaces/Daisy/DaisyExamples/libDaisy/src/hid/usb.h **** {
  20:/Users/reza.kalfane/Workspaces/Daisy/DaisyExamples/libDaisy/src/hid/usb.h ****   public:
  21:/Users/reza.kalfane/Workspaces/Daisy/DaisyExamples/libDaisy/src/hid/usb.h ****     /** Return values for USBHandle Functions */
  22:/Users/reza.kalfane/Workspaces/Daisy/DaisyExamples/libDaisy/src/hid/usb.h ****     enum class Result
  23:/Users/reza.kalfane/Workspaces/Daisy/DaisyExamples/libDaisy/src/hid/usb.h ****     {
  24:/Users/reza.kalfane/Workspaces/Daisy/DaisyExamples/libDaisy/src/hid/usb.h ****         OK,
  25:/Users/reza.kalfane/Workspaces/Daisy/DaisyExamples/libDaisy/src/hid/usb.h ****         ERR,
  26:/Users/reza.kalfane/Workspaces/Daisy/DaisyExamples/libDaisy/src/hid/usb.h ****     };
  27:/Users/reza.kalfane/Workspaces/Daisy/DaisyExamples/libDaisy/src/hid/usb.h **** 
  28:/Users/reza.kalfane/Workspaces/Daisy/DaisyExamples/libDaisy/src/hid/usb.h ****     /** Specified which of the two USB Peripherals to initialize. */
  29:/Users/reza.kalfane/Workspaces/Daisy/DaisyExamples/libDaisy/src/hid/usb.h ****     enum UsbPeriph
  30:/Users/reza.kalfane/Workspaces/Daisy/DaisyExamples/libDaisy/src/hid/usb.h ****     {
  31:/Users/reza.kalfane/Workspaces/Daisy/DaisyExamples/libDaisy/src/hid/usb.h ****         FS_INTERNAL, /**< Internal pin */
  32:/Users/reza.kalfane/Workspaces/Daisy/DaisyExamples/libDaisy/src/hid/usb.h ****         FS_EXTERNAL, /**< FS External D+ pin is Pin 38 (GPIO32). FS External D- pin is Pin 37 (GPIO
  33:/Users/reza.kalfane/Workspaces/Daisy/DaisyExamples/libDaisy/src/hid/usb.h ****         FS_BOTH,     /**< Both */
  34:/Users/reza.kalfane/Workspaces/Daisy/DaisyExamples/libDaisy/src/hid/usb.h ****     };
  35:/Users/reza.kalfane/Workspaces/Daisy/DaisyExamples/libDaisy/src/hid/usb.h **** 
  36:/Users/reza.kalfane/Workspaces/Daisy/DaisyExamples/libDaisy/src/hid/usb.h **** 
  37:/Users/reza.kalfane/Workspaces/Daisy/DaisyExamples/libDaisy/src/hid/usb.h ****     /** Function called upon reception of a buffer */
  38:/Users/reza.kalfane/Workspaces/Daisy/DaisyExamples/libDaisy/src/hid/usb.h ****     typedef void (*ReceiveCallback)(uint8_t* buff, uint32_t* len);
  39:/Users/reza.kalfane/Workspaces/Daisy/DaisyExamples/libDaisy/src/hid/usb.h **** 
  40:/Users/reza.kalfane/Workspaces/Daisy/DaisyExamples/libDaisy/src/hid/usb.h ****     UsbHandle() {}
  41:/Users/reza.kalfane/Workspaces/Daisy/DaisyExamples/libDaisy/src/hid/usb.h **** 
  42:/Users/reza.kalfane/Workspaces/Daisy/DaisyExamples/libDaisy/src/hid/usb.h ****     ~UsbHandle() {}
  44              		.loc 3 42 5 is_stmt 1 view .LVU3
  45              		.loc 3 42 5 is_stmt 0 view .LVU4
  46              	.LBE300:
  47              	.LBB301:
  48              	.LBI301:
  49              		.file 4 "/Users/reza.kalfane/Workspaces/Daisy/DaisyExamples/libDaisy/src/per/adc.h"
   1:/Users/reza.kalfane/Workspaces/Daisy/DaisyExamples/libDaisy/src/per/adc.h **** #pragma once
   2:/Users/reza.kalfane/Workspaces/Daisy/DaisyExamples/libDaisy/src/per/adc.h **** #ifndef DSY_ADC_H
   3:/Users/reza.kalfane/Workspaces/Daisy/DaisyExamples/libDaisy/src/per/adc.h **** #define DSY_ADC_H /**< Macro */
   4:/Users/reza.kalfane/Workspaces/Daisy/DaisyExamples/libDaisy/src/per/adc.h **** #include <stdint.h>
   5:/Users/reza.kalfane/Workspaces/Daisy/DaisyExamples/libDaisy/src/per/adc.h **** #include <stdlib.h>
   6:/Users/reza.kalfane/Workspaces/Daisy/DaisyExamples/libDaisy/src/per/adc.h **** #include "daisy_core.h"
   7:/Users/reza.kalfane/Workspaces/Daisy/DaisyExamples/libDaisy/src/per/adc.h **** #include "per/gpio.h"
   8:/Users/reza.kalfane/Workspaces/Daisy/DaisyExamples/libDaisy/src/per/adc.h **** 
   9:/Users/reza.kalfane/Workspaces/Daisy/DaisyExamples/libDaisy/src/per/adc.h **** #define DSY_ADC_MAX_CHANNELS 16 /**< Maximum number of ADC channels */
  10:/Users/reza.kalfane/Workspaces/Daisy/DaisyExamples/libDaisy/src/per/adc.h **** 
  11:/Users/reza.kalfane/Workspaces/Daisy/DaisyExamples/libDaisy/src/per/adc.h **** namespace daisy
  12:/Users/reza.kalfane/Workspaces/Daisy/DaisyExamples/libDaisy/src/per/adc.h **** {
  13:/Users/reza.kalfane/Workspaces/Daisy/DaisyExamples/libDaisy/src/per/adc.h **** /** @addtogroup per_analog
  14:/Users/reza.kalfane/Workspaces/Daisy/DaisyExamples/libDaisy/src/per/adc.h ****     @{
  15:/Users/reza.kalfane/Workspaces/Daisy/DaisyExamples/libDaisy/src/per/adc.h **** */
  16:/Users/reza.kalfane/Workspaces/Daisy/DaisyExamples/libDaisy/src/per/adc.h **** 
  17:/Users/reza.kalfane/Workspaces/Daisy/DaisyExamples/libDaisy/src/per/adc.h **** /* While there may not be many configuration options here,
  18:/Users/reza.kalfane/Workspaces/Daisy/DaisyExamples/libDaisy/src/per/adc.h **** using a struct like this allows us to add more configuration
  19:/Users/reza.kalfane/Workspaces/Daisy/DaisyExamples/libDaisy/src/per/adc.h **** later without breaking existing functionality.
ARM GAS  /tmp/claude-502/ccb6uqMv.s 			page 5


  20:/Users/reza.kalfane/Workspaces/Daisy/DaisyExamples/libDaisy/src/per/adc.h **** */
  21:/Users/reza.kalfane/Workspaces/Daisy/DaisyExamples/libDaisy/src/per/adc.h **** 
  22:/Users/reza.kalfane/Workspaces/Daisy/DaisyExamples/libDaisy/src/per/adc.h **** /** @brief   Configuration Structure for an ADC Channel 
  23:/Users/reza.kalfane/Workspaces/Daisy/DaisyExamples/libDaisy/src/per/adc.h ****  *  @details This can be used to configure a a single input, 
  24:/Users/reza.kalfane/Workspaces/Daisy/DaisyExamples/libDaisy/src/per/adc.h ****  *           or a multiplexed input, allowing up to 8 inputs on 
  25:/Users/reza.kalfane/Workspaces/Daisy/DaisyExamples/libDaisy/src/per/adc.h ****  *           one channel.
  26:/Users/reza.kalfane/Workspaces/Daisy/DaisyExamples/libDaisy/src/per/adc.h ****  *  @note    Sharing data lines to multiple muxes _is_ possible, but
  27:/Users/reza.kalfane/Workspaces/Daisy/DaisyExamples/libDaisy/src/per/adc.h ****  *           each channel sharing data lines must be set to the maximum
  28:/Users/reza.kalfane/Workspaces/Daisy/DaisyExamples/libDaisy/src/per/adc.h ****  *           number of channels, even if some multiplexers have fewer
  29:/Users/reza.kalfane/Workspaces/Daisy/DaisyExamples/libDaisy/src/per/adc.h ****  *           inputs connected.
  30:/Users/reza.kalfane/Workspaces/Daisy/DaisyExamples/libDaisy/src/per/adc.h **** */
  31:/Users/reza.kalfane/Workspaces/Daisy/DaisyExamples/libDaisy/src/per/adc.h **** struct AdcChannelConfig
  32:/Users/reza.kalfane/Workspaces/Daisy/DaisyExamples/libDaisy/src/per/adc.h **** {
  33:/Users/reza.kalfane/Workspaces/Daisy/DaisyExamples/libDaisy/src/per/adc.h ****     /** Which pin to use for multiplexing */
  34:/Users/reza.kalfane/Workspaces/Daisy/DaisyExamples/libDaisy/src/per/adc.h ****     enum MuxPin
  35:/Users/reza.kalfane/Workspaces/Daisy/DaisyExamples/libDaisy/src/per/adc.h ****     {
  36:/Users/reza.kalfane/Workspaces/Daisy/DaisyExamples/libDaisy/src/per/adc.h ****         MUX_SEL_0,    /**< & */
  37:/Users/reza.kalfane/Workspaces/Daisy/DaisyExamples/libDaisy/src/per/adc.h ****         MUX_SEL_1,    /**< & */
  38:/Users/reza.kalfane/Workspaces/Daisy/DaisyExamples/libDaisy/src/per/adc.h ****         MUX_SEL_2,    /**< & */
  39:/Users/reza.kalfane/Workspaces/Daisy/DaisyExamples/libDaisy/src/per/adc.h ****         MUX_SEL_LAST, /**< & */
  40:/Users/reza.kalfane/Workspaces/Daisy/DaisyExamples/libDaisy/src/per/adc.h ****     };
  41:/Users/reza.kalfane/Workspaces/Daisy/DaisyExamples/libDaisy/src/per/adc.h **** 
  42:/Users/reza.kalfane/Workspaces/Daisy/DaisyExamples/libDaisy/src/per/adc.h ****     /** \brief per channel conversion speed added to fixed time based on bitdepth, etc. */
  43:/Users/reza.kalfane/Workspaces/Daisy/DaisyExamples/libDaisy/src/per/adc.h ****     enum ConversionSpeed
  44:/Users/reza.kalfane/Workspaces/Daisy/DaisyExamples/libDaisy/src/per/adc.h ****     {
  45:/Users/reza.kalfane/Workspaces/Daisy/DaisyExamples/libDaisy/src/per/adc.h ****         SPEED_1CYCLES_5,
  46:/Users/reza.kalfane/Workspaces/Daisy/DaisyExamples/libDaisy/src/per/adc.h ****         SPEED_2CYCLES_5,
  47:/Users/reza.kalfane/Workspaces/Daisy/DaisyExamples/libDaisy/src/per/adc.h ****         SPEED_8CYCLES_5,
  48:/Users/reza.kalfane/Workspaces/Daisy/DaisyExamples/libDaisy/src/per/adc.h ****         SPEED_16CYCLES_5,
  49:/Users/reza.kalfane/Workspaces/Daisy/DaisyExamples/libDaisy/src/per/adc.h ****         SPEED_32CYCLES_5,
  50:/Users/reza.kalfane/Workspaces/Daisy/DaisyExamples/libDaisy/src/per/adc.h ****         SPEED_64CYCLES_5,
  51:/Users/reza.kalfane/Workspaces/Daisy/DaisyExamples/libDaisy/src/per/adc.h ****         SPEED_387CYCLES_5,
  52:/Users/reza.kalfane/Workspaces/Daisy/DaisyExamples/libDaisy/src/per/adc.h ****         SPEED_810CYCLES_5,
  53:/Users/reza.kalfane/Workspaces/Daisy/DaisyExamples/libDaisy/src/per/adc.h ****     };
  54:/Users/reza.kalfane/Workspaces/Daisy/DaisyExamples/libDaisy/src/per/adc.h **** 
  55:/Users/reza.kalfane/Workspaces/Daisy/DaisyExamples/libDaisy/src/per/adc.h ****     /** Initializes a single ADC pin as an ADC. 
  56:/Users/reza.kalfane/Workspaces/Daisy/DaisyExamples/libDaisy/src/per/adc.h ****     \param pin Pin to init.
  57:/Users/reza.kalfane/Workspaces/Daisy/DaisyExamples/libDaisy/src/per/adc.h ****     \param speed conversion speed for this pin defaults to 8.5 cycles
  58:/Users/reza.kalfane/Workspaces/Daisy/DaisyExamples/libDaisy/src/per/adc.h ****      */
  59:/Users/reza.kalfane/Workspaces/Daisy/DaisyExamples/libDaisy/src/per/adc.h ****     void InitSingle(dsy_gpio_pin pin, ConversionSpeed speed = SPEED_8CYCLES_5);
  60:/Users/reza.kalfane/Workspaces/Daisy/DaisyExamples/libDaisy/src/per/adc.h **** 
  61:/Users/reza.kalfane/Workspaces/Daisy/DaisyExamples/libDaisy/src/per/adc.h ****     /** 
  62:/Users/reza.kalfane/Workspaces/Daisy/DaisyExamples/libDaisy/src/per/adc.h ****     Initializes a single ADC pin as a Multiplexed ADC.
  63:/Users/reza.kalfane/Workspaces/Daisy/DaisyExamples/libDaisy/src/per/adc.h ****     Requires a CD405X Multiplexer connected to the pin.
  64:/Users/reza.kalfane/Workspaces/Daisy/DaisyExamples/libDaisy/src/per/adc.h ****     You only need to supply the mux pins that are required,
  65:/Users/reza.kalfane/Workspaces/Daisy/DaisyExamples/libDaisy/src/per/adc.h ****     e.g. a 4052 mux would only require mux_0 and mux_1.
  66:/Users/reza.kalfane/Workspaces/Daisy/DaisyExamples/libDaisy/src/per/adc.h ****     Internal Callbacks handle the pin addressing.
  67:/Users/reza.kalfane/Workspaces/Daisy/DaisyExamples/libDaisy/src/per/adc.h ****     \param adc_pin &
  68:/Users/reza.kalfane/Workspaces/Daisy/DaisyExamples/libDaisy/src/per/adc.h ****     \param mux_channels must be 1-8
  69:/Users/reza.kalfane/Workspaces/Daisy/DaisyExamples/libDaisy/src/per/adc.h ****     \param mux_0 First mux pin
  70:/Users/reza.kalfane/Workspaces/Daisy/DaisyExamples/libDaisy/src/per/adc.h ****     \param mux_1 Second mux pin
  71:/Users/reza.kalfane/Workspaces/Daisy/DaisyExamples/libDaisy/src/per/adc.h ****     \param mux_2 Third mux pin
  72:/Users/reza.kalfane/Workspaces/Daisy/DaisyExamples/libDaisy/src/per/adc.h ****     \param speed conversion speed for this pin defaults to 8.5 cycles
  73:/Users/reza.kalfane/Workspaces/Daisy/DaisyExamples/libDaisy/src/per/adc.h ****     */
  74:/Users/reza.kalfane/Workspaces/Daisy/DaisyExamples/libDaisy/src/per/adc.h ****     void InitMux(dsy_gpio_pin    adc_pin,
  75:/Users/reza.kalfane/Workspaces/Daisy/DaisyExamples/libDaisy/src/per/adc.h ****                  size_t          mux_channels,
  76:/Users/reza.kalfane/Workspaces/Daisy/DaisyExamples/libDaisy/src/per/adc.h ****                  dsy_gpio_pin    mux_0,
ARM GAS  /tmp/claude-502/ccb6uqMv.s 			page 6


  77:/Users/reza.kalfane/Workspaces/Daisy/DaisyExamples/libDaisy/src/per/adc.h ****                  dsy_gpio_pin    mux_1 = {DSY_GPIOX, 0},
  78:/Users/reza.kalfane/Workspaces/Daisy/DaisyExamples/libDaisy/src/per/adc.h ****                  dsy_gpio_pin    mux_2 = {DSY_GPIOX, 0},
  79:/Users/reza.kalfane/Workspaces/Daisy/DaisyExamples/libDaisy/src/per/adc.h ****                  ConversionSpeed speed = SPEED_8CYCLES_5);
  80:/Users/reza.kalfane/Workspaces/Daisy/DaisyExamples/libDaisy/src/per/adc.h **** 
  81:/Users/reza.kalfane/Workspaces/Daisy/DaisyExamples/libDaisy/src/per/adc.h ****     dsy_gpio        pin_;                   /**< & */
  82:/Users/reza.kalfane/Workspaces/Daisy/DaisyExamples/libDaisy/src/per/adc.h ****     dsy_gpio        mux_pin_[MUX_SEL_LAST]; /**< & */
  83:/Users/reza.kalfane/Workspaces/Daisy/DaisyExamples/libDaisy/src/per/adc.h ****     uint8_t         mux_channels_;          /**< & */
  84:/Users/reza.kalfane/Workspaces/Daisy/DaisyExamples/libDaisy/src/per/adc.h ****     ConversionSpeed speed_;
  85:/Users/reza.kalfane/Workspaces/Daisy/DaisyExamples/libDaisy/src/per/adc.h **** };
  86:/Users/reza.kalfane/Workspaces/Daisy/DaisyExamples/libDaisy/src/per/adc.h **** 
  87:/Users/reza.kalfane/Workspaces/Daisy/DaisyExamples/libDaisy/src/per/adc.h **** /**
  88:/Users/reza.kalfane/Workspaces/Daisy/DaisyExamples/libDaisy/src/per/adc.h ****    @brief Handler for analog to digital conversion
  89:/Users/reza.kalfane/Workspaces/Daisy/DaisyExamples/libDaisy/src/per/adc.h **** */
  90:/Users/reza.kalfane/Workspaces/Daisy/DaisyExamples/libDaisy/src/per/adc.h **** class AdcHandle
  91:/Users/reza.kalfane/Workspaces/Daisy/DaisyExamples/libDaisy/src/per/adc.h **** {
  92:/Users/reza.kalfane/Workspaces/Daisy/DaisyExamples/libDaisy/src/per/adc.h ****   public:
  93:/Users/reza.kalfane/Workspaces/Daisy/DaisyExamples/libDaisy/src/per/adc.h ****     /** Supported oversampling amounts */
  94:/Users/reza.kalfane/Workspaces/Daisy/DaisyExamples/libDaisy/src/per/adc.h ****     enum OverSampling
  95:/Users/reza.kalfane/Workspaces/Daisy/DaisyExamples/libDaisy/src/per/adc.h ****     {
  96:/Users/reza.kalfane/Workspaces/Daisy/DaisyExamples/libDaisy/src/per/adc.h ****         OVS_NONE, /**< & */
  97:/Users/reza.kalfane/Workspaces/Daisy/DaisyExamples/libDaisy/src/per/adc.h ****         OVS_4,    /**< & */
  98:/Users/reza.kalfane/Workspaces/Daisy/DaisyExamples/libDaisy/src/per/adc.h ****         OVS_8,    /**< & */
  99:/Users/reza.kalfane/Workspaces/Daisy/DaisyExamples/libDaisy/src/per/adc.h ****         OVS_16,   /**< & */
 100:/Users/reza.kalfane/Workspaces/Daisy/DaisyExamples/libDaisy/src/per/adc.h ****         OVS_32,   /**< & */
 101:/Users/reza.kalfane/Workspaces/Daisy/DaisyExamples/libDaisy/src/per/adc.h ****         OVS_64,   /**< & */
 102:/Users/reza.kalfane/Workspaces/Daisy/DaisyExamples/libDaisy/src/per/adc.h ****         OVS_128,  /**< & */
 103:/Users/reza.kalfane/Workspaces/Daisy/DaisyExamples/libDaisy/src/per/adc.h ****         OVS_256,  /**< & */
 104:/Users/reza.kalfane/Workspaces/Daisy/DaisyExamples/libDaisy/src/per/adc.h ****         OVS_512,  /**< & */
 105:/Users/reza.kalfane/Workspaces/Daisy/DaisyExamples/libDaisy/src/per/adc.h ****         OVS_1024, /**< & */
 106:/Users/reza.kalfane/Workspaces/Daisy/DaisyExamples/libDaisy/src/per/adc.h ****         OVS_LAST, /**< & */
 107:/Users/reza.kalfane/Workspaces/Daisy/DaisyExamples/libDaisy/src/per/adc.h ****     };
 108:/Users/reza.kalfane/Workspaces/Daisy/DaisyExamples/libDaisy/src/per/adc.h **** 
 109:/Users/reza.kalfane/Workspaces/Daisy/DaisyExamples/libDaisy/src/per/adc.h ****     AdcHandle() {}
 110:/Users/reza.kalfane/Workspaces/Daisy/DaisyExamples/libDaisy/src/per/adc.h ****     ~AdcHandle() {}
  50              		.loc 4 110 5 is_stmt 1 view .LVU5
  51              		.loc 4 110 5 is_stmt 0 view .LVU6
  52              	.LBE301:
  53              	.LBB302:
  54              	.LBI302:
  55              		.file 5 "/Users/reza.kalfane/Workspaces/Daisy/DaisyExamples/libDaisy/src/hid/audio.h"
   1:/Users/reza.kalfane/Workspaces/Daisy/DaisyExamples/libDaisy/src/hid/audio.h **** #ifndef DSY_AUDIO_H
   2:/Users/reza.kalfane/Workspaces/Daisy/DaisyExamples/libDaisy/src/hid/audio.h **** #define DSY_AUDIO_H /**< & */
   3:/Users/reza.kalfane/Workspaces/Daisy/DaisyExamples/libDaisy/src/hid/audio.h **** 
   4:/Users/reza.kalfane/Workspaces/Daisy/DaisyExamples/libDaisy/src/hid/audio.h **** #include "per/sai.h"
   5:/Users/reza.kalfane/Workspaces/Daisy/DaisyExamples/libDaisy/src/hid/audio.h **** 
   6:/Users/reza.kalfane/Workspaces/Daisy/DaisyExamples/libDaisy/src/hid/audio.h **** namespace daisy
   7:/Users/reza.kalfane/Workspaces/Daisy/DaisyExamples/libDaisy/src/hid/audio.h **** {
   8:/Users/reza.kalfane/Workspaces/Daisy/DaisyExamples/libDaisy/src/hid/audio.h **** /** @brief Audio Engine Handle
   9:/Users/reza.kalfane/Workspaces/Daisy/DaisyExamples/libDaisy/src/hid/audio.h ****  *  @ingroup audio 
  10:/Users/reza.kalfane/Workspaces/Daisy/DaisyExamples/libDaisy/src/hid/audio.h ****  *  @details This class allows for higher level access to an audio engine.
  11:/Users/reza.kalfane/Workspaces/Daisy/DaisyExamples/libDaisy/src/hid/audio.h ****  *           If you're using a SOM like the DaisySeed or DaisyPatchSM (or any 
  12:/Users/reza.kalfane/Workspaces/Daisy/DaisyExamples/libDaisy/src/hid/audio.h ****  *            board that includes one of those objects) then the intialization
  13:/Users/reza.kalfane/Workspaces/Daisy/DaisyExamples/libDaisy/src/hid/audio.h ****  *            is already taken  care of.
  14:/Users/reza.kalfane/Workspaces/Daisy/DaisyExamples/libDaisy/src/hid/audio.h ****  *           If you're setting up your own custom hardware, or need to make changes
  15:/Users/reza.kalfane/Workspaces/Daisy/DaisyExamples/libDaisy/src/hid/audio.h ****  *           you will have to take the following steps:
  16:/Users/reza.kalfane/Workspaces/Daisy/DaisyExamples/libDaisy/src/hid/audio.h ****  *             1. Create and Initialize an SaiHandle or two depending on your requirements
  17:/Users/reza.kalfane/Workspaces/Daisy/DaisyExamples/libDaisy/src/hid/audio.h ****  *             2. Initialize the Audio Handle with the desired settings and the Initialized SaiHand
ARM GAS  /tmp/claude-502/ccb6uqMv.s 			page 7


  18:/Users/reza.kalfane/Workspaces/Daisy/DaisyExamples/libDaisy/src/hid/audio.h ****  *             3. If the connected codec requires special configuration or initialization, do so
  19:/Users/reza.kalfane/Workspaces/Daisy/DaisyExamples/libDaisy/src/hid/audio.h ****  *             4. Write a callback method using either the AudioCallback or the InterleavingAudioCa
  20:/Users/reza.kalfane/Workspaces/Daisy/DaisyExamples/libDaisy/src/hid/audio.h ****  *             5. Start the Audio using one of the StartAudio function
  21:/Users/reza.kalfane/Workspaces/Daisy/DaisyExamples/libDaisy/src/hid/audio.h ****  */
  22:/Users/reza.kalfane/Workspaces/Daisy/DaisyExamples/libDaisy/src/hid/audio.h **** class AudioHandle
  23:/Users/reza.kalfane/Workspaces/Daisy/DaisyExamples/libDaisy/src/hid/audio.h **** {
  24:/Users/reza.kalfane/Workspaces/Daisy/DaisyExamples/libDaisy/src/hid/audio.h ****   public:
  25:/Users/reza.kalfane/Workspaces/Daisy/DaisyExamples/libDaisy/src/hid/audio.h ****     /** Manually configurable details about the Audio Engine */
  26:/Users/reza.kalfane/Workspaces/Daisy/DaisyExamples/libDaisy/src/hid/audio.h ****     /** TODO: Figure out how to get samplerate in here. */
  27:/Users/reza.kalfane/Workspaces/Daisy/DaisyExamples/libDaisy/src/hid/audio.h ****     struct Config
  28:/Users/reza.kalfane/Workspaces/Daisy/DaisyExamples/libDaisy/src/hid/audio.h ****     {
  29:/Users/reza.kalfane/Workspaces/Daisy/DaisyExamples/libDaisy/src/hid/audio.h ****         /** number of samples to process per callback */
  30:/Users/reza.kalfane/Workspaces/Daisy/DaisyExamples/libDaisy/src/hid/audio.h ****         size_t blocksize;
  31:/Users/reza.kalfane/Workspaces/Daisy/DaisyExamples/libDaisy/src/hid/audio.h **** 
  32:/Users/reza.kalfane/Workspaces/Daisy/DaisyExamples/libDaisy/src/hid/audio.h ****         /**< Sample rate of audio */
  33:/Users/reza.kalfane/Workspaces/Daisy/DaisyExamples/libDaisy/src/hid/audio.h ****         SaiHandle::Config::SampleRate samplerate;
  34:/Users/reza.kalfane/Workspaces/Daisy/DaisyExamples/libDaisy/src/hid/audio.h **** 
  35:/Users/reza.kalfane/Workspaces/Daisy/DaisyExamples/libDaisy/src/hid/audio.h ****         /** factor for adjustment before and after callback for hardware that may have extra headro
  36:/Users/reza.kalfane/Workspaces/Daisy/DaisyExamples/libDaisy/src/hid/audio.h ****         float postgain;
  37:/Users/reza.kalfane/Workspaces/Daisy/DaisyExamples/libDaisy/src/hid/audio.h **** 
  38:/Users/reza.kalfane/Workspaces/Daisy/DaisyExamples/libDaisy/src/hid/audio.h ****         /** factor for additional one-sided compensation to audio path for hardware that may
  39:/Users/reza.kalfane/Workspaces/Daisy/DaisyExamples/libDaisy/src/hid/audio.h ****          *  have unequal input/output ranges
  40:/Users/reza.kalfane/Workspaces/Daisy/DaisyExamples/libDaisy/src/hid/audio.h ****          */
  41:/Users/reza.kalfane/Workspaces/Daisy/DaisyExamples/libDaisy/src/hid/audio.h ****         float output_compensation;
  42:/Users/reza.kalfane/Workspaces/Daisy/DaisyExamples/libDaisy/src/hid/audio.h **** 
  43:/Users/reza.kalfane/Workspaces/Daisy/DaisyExamples/libDaisy/src/hid/audio.h ****         /** Sets default values for config struct */
  44:/Users/reza.kalfane/Workspaces/Daisy/DaisyExamples/libDaisy/src/hid/audio.h ****         Config()
  45:/Users/reza.kalfane/Workspaces/Daisy/DaisyExamples/libDaisy/src/hid/audio.h ****         : blocksize(48),
  46:/Users/reza.kalfane/Workspaces/Daisy/DaisyExamples/libDaisy/src/hid/audio.h ****           samplerate(SaiHandle::Config::SampleRate::SAI_48KHZ),
  47:/Users/reza.kalfane/Workspaces/Daisy/DaisyExamples/libDaisy/src/hid/audio.h ****           postgain(1.f),
  48:/Users/reza.kalfane/Workspaces/Daisy/DaisyExamples/libDaisy/src/hid/audio.h ****           output_compensation(1.f)
  49:/Users/reza.kalfane/Workspaces/Daisy/DaisyExamples/libDaisy/src/hid/audio.h ****         {
  50:/Users/reza.kalfane/Workspaces/Daisy/DaisyExamples/libDaisy/src/hid/audio.h ****         }
  51:/Users/reza.kalfane/Workspaces/Daisy/DaisyExamples/libDaisy/src/hid/audio.h ****     };
  52:/Users/reza.kalfane/Workspaces/Daisy/DaisyExamples/libDaisy/src/hid/audio.h **** 
  53:/Users/reza.kalfane/Workspaces/Daisy/DaisyExamples/libDaisy/src/hid/audio.h ****     enum class Result
  54:/Users/reza.kalfane/Workspaces/Daisy/DaisyExamples/libDaisy/src/hid/audio.h ****     {
  55:/Users/reza.kalfane/Workspaces/Daisy/DaisyExamples/libDaisy/src/hid/audio.h ****         OK,
  56:/Users/reza.kalfane/Workspaces/Daisy/DaisyExamples/libDaisy/src/hid/audio.h ****         ERR,
  57:/Users/reza.kalfane/Workspaces/Daisy/DaisyExamples/libDaisy/src/hid/audio.h ****     };
  58:/Users/reza.kalfane/Workspaces/Daisy/DaisyExamples/libDaisy/src/hid/audio.h **** 
  59:/Users/reza.kalfane/Workspaces/Daisy/DaisyExamples/libDaisy/src/hid/audio.h ****     /** Non-Interleaving input buffer
  60:/Users/reza.kalfane/Workspaces/Daisy/DaisyExamples/libDaisy/src/hid/audio.h ****      * Buffer arranged by float[chn][sample] 
  61:/Users/reza.kalfane/Workspaces/Daisy/DaisyExamples/libDaisy/src/hid/audio.h ****      * const so that the user can't modify the input
  62:/Users/reza.kalfane/Workspaces/Daisy/DaisyExamples/libDaisy/src/hid/audio.h ****      */
  63:/Users/reza.kalfane/Workspaces/Daisy/DaisyExamples/libDaisy/src/hid/audio.h ****     typedef const float* const* InputBuffer;
  64:/Users/reza.kalfane/Workspaces/Daisy/DaisyExamples/libDaisy/src/hid/audio.h **** 
  65:/Users/reza.kalfane/Workspaces/Daisy/DaisyExamples/libDaisy/src/hid/audio.h ****     /** Non-Interleaving output buffer
  66:/Users/reza.kalfane/Workspaces/Daisy/DaisyExamples/libDaisy/src/hid/audio.h ****      * Arranged by float[chn][sample] 
  67:/Users/reza.kalfane/Workspaces/Daisy/DaisyExamples/libDaisy/src/hid/audio.h ****      */
  68:/Users/reza.kalfane/Workspaces/Daisy/DaisyExamples/libDaisy/src/hid/audio.h ****     typedef float** OutputBuffer;
  69:/Users/reza.kalfane/Workspaces/Daisy/DaisyExamples/libDaisy/src/hid/audio.h **** 
  70:/Users/reza.kalfane/Workspaces/Daisy/DaisyExamples/libDaisy/src/hid/audio.h ****     /** Type for a Non-Interleaving audio callback 
  71:/Users/reza.kalfane/Workspaces/Daisy/DaisyExamples/libDaisy/src/hid/audio.h ****      * Non-Interleaving audio callbacks in daisy will be of this type
  72:/Users/reza.kalfane/Workspaces/Daisy/DaisyExamples/libDaisy/src/hid/audio.h ****      */
  73:/Users/reza.kalfane/Workspaces/Daisy/DaisyExamples/libDaisy/src/hid/audio.h ****     typedef void (*AudioCallback)(InputBuffer  in,
  74:/Users/reza.kalfane/Workspaces/Daisy/DaisyExamples/libDaisy/src/hid/audio.h ****                                   OutputBuffer out,
ARM GAS  /tmp/claude-502/ccb6uqMv.s 			page 8


  75:/Users/reza.kalfane/Workspaces/Daisy/DaisyExamples/libDaisy/src/hid/audio.h ****                                   size_t       size);
  76:/Users/reza.kalfane/Workspaces/Daisy/DaisyExamples/libDaisy/src/hid/audio.h **** 
  77:/Users/reza.kalfane/Workspaces/Daisy/DaisyExamples/libDaisy/src/hid/audio.h ****     /** Interleaving Input buffer
  78:/Users/reza.kalfane/Workspaces/Daisy/DaisyExamples/libDaisy/src/hid/audio.h ****      ** audio is prepared as { L0, R0, L1, R1, . . . LN, RN }]
  79:/Users/reza.kalfane/Workspaces/Daisy/DaisyExamples/libDaisy/src/hid/audio.h ****      ** this is const, as the user shouldn't modify it
  80:/Users/reza.kalfane/Workspaces/Daisy/DaisyExamples/libDaisy/src/hid/audio.h ****     */
  81:/Users/reza.kalfane/Workspaces/Daisy/DaisyExamples/libDaisy/src/hid/audio.h ****     typedef const float* InterleavingInputBuffer;
  82:/Users/reza.kalfane/Workspaces/Daisy/DaisyExamples/libDaisy/src/hid/audio.h **** 
  83:/Users/reza.kalfane/Workspaces/Daisy/DaisyExamples/libDaisy/src/hid/audio.h ****     /** Interleaving Output buffer 
  84:/Users/reza.kalfane/Workspaces/Daisy/DaisyExamples/libDaisy/src/hid/audio.h ****      ** audio is prepared as { L0, R0, L1, R1, . . . LN, RN }
  85:/Users/reza.kalfane/Workspaces/Daisy/DaisyExamples/libDaisy/src/hid/audio.h ****     */
  86:/Users/reza.kalfane/Workspaces/Daisy/DaisyExamples/libDaisy/src/hid/audio.h ****     typedef float* InterleavingOutputBuffer;
  87:/Users/reza.kalfane/Workspaces/Daisy/DaisyExamples/libDaisy/src/hid/audio.h **** 
  88:/Users/reza.kalfane/Workspaces/Daisy/DaisyExamples/libDaisy/src/hid/audio.h ****     /** Interleaving Audio Callback 
  89:/Users/reza.kalfane/Workspaces/Daisy/DaisyExamples/libDaisy/src/hid/audio.h ****      * Interleaving audio callbacks in daisy must be of this type
  90:/Users/reza.kalfane/Workspaces/Daisy/DaisyExamples/libDaisy/src/hid/audio.h ****      */
  91:/Users/reza.kalfane/Workspaces/Daisy/DaisyExamples/libDaisy/src/hid/audio.h ****     typedef void (*InterleavingAudioCallback)(InterleavingInputBuffer  in,
  92:/Users/reza.kalfane/Workspaces/Daisy/DaisyExamples/libDaisy/src/hid/audio.h ****                                               InterleavingOutputBuffer out,
  93:/Users/reza.kalfane/Workspaces/Daisy/DaisyExamples/libDaisy/src/hid/audio.h ****                                               size_t                   size);
  94:/Users/reza.kalfane/Workspaces/Daisy/DaisyExamples/libDaisy/src/hid/audio.h **** 
  95:/Users/reza.kalfane/Workspaces/Daisy/DaisyExamples/libDaisy/src/hid/audio.h ****     AudioHandle() : pimpl_(nullptr) {}
  96:/Users/reza.kalfane/Workspaces/Daisy/DaisyExamples/libDaisy/src/hid/audio.h ****     ~AudioHandle() {}
  56              		.loc 5 96 5 is_stmt 1 view .LVU7
  57              		.loc 5 96 5 is_stmt 0 view .LVU8
  58              	.LBE302:
  59              		.loc 1 22 19 view .LVU9
  60 0000 7047     		bx	lr
  61              		.cfi_endproc
  62              	.LFE2556:
  64              		.weak	_ZN5daisy9DaisySeedD1Ev
  65              		.thumb_set _ZN5daisy9DaisySeedD1Ev,_ZN5daisy9DaisySeedD2Ev
  66 0002 00BF     		.section	.text._Z13AudioCallbackPKPKfPPfj,"ax",%progbits
  67              		.align	1
  68              		.p2align 2,,3
  69              		.global	_Z13AudioCallbackPKPKfPPfj
  70              		.syntax unified
  71              		.thumb
  72              		.thumb_func
  74              	_Z13AudioCallbackPKPKfPPfj:
  75              	.LVL1:
  76              	.LFB2590:
  77              		.file 6 "src/main.cpp"
   1:src/main.cpp  **** /**
   2:src/main.cpp  ****  * mpr121_synth.cpp ŌĆö Glass Touch Moog Synth
   3:src/main.cpp  ****  * Daisy Seed ŌĆö Bit-Bang I2C  SDA=D12  SCL=D11
   4:src/main.cpp  ****  *
   5:src/main.cpp  ****  * FINGER 1:
   6:src/main.cpp  ****  *   Position  ŌåÆ Pitch (quantized on touch-down, continuous slide after)
   7:src/main.cpp  ****  *   Pressure  ŌåÆ Filter cutoff (light=dark/closed, hard=bright/open)
   8:src/main.cpp  ****  *               + Vibrato depth (press harder for more wobble)
   9:src/main.cpp  ****  *
  10:src/main.cpp  ****  * FINGER 2:
  11:src/main.cpp  ****  *   Position  ŌåÆ Oscillator detune (spread between osc1 and osc2)
  12:src/main.cpp  ****  *   Pressure  ŌåÆ Wavefold distortion (gentle saturation to complex fold)
  13:src/main.cpp  ****  *               + Ring mod amount (extreme pressure adds metallic edge)
  14:src/main.cpp  ****  *
  15:src/main.cpp  ****  * EXPRESSION:
ARM GAS  /tmp/claude-502/ccb6uqMv.s 			page 9


  16:src/main.cpp  ****  *   - Note quantize on initial touch, then free pitch bend on slide
  17:src/main.cpp  ****  *   - Pressure-controlled vibrato (LFO depth from finger 1 pressure)
  18:src/main.cpp  ****  *   - Portamento / glide between quantized notes
  19:src/main.cpp  ****  *   - Sub oscillator one octave below (adds weight)
  20:src/main.cpp  ****  *   - Soft-clip waveshaper before output
  21:src/main.cpp  ****  *   - Amplitude envelope: fast attack, pressure-controlled release
  22:src/main.cpp  ****  */
  23:src/main.cpp  **** 
  24:src/main.cpp  **** #include "daisy_seed.h"
  25:src/main.cpp  **** #include <math.h>
  26:src/main.cpp  **** #include <string.h>
  27:src/main.cpp  **** 
  28:src/main.cpp  **** using namespace daisy;
  29:src/main.cpp  **** using namespace daisy::seed;
  30:src/main.cpp  **** 
  31:src/main.cpp  **** // ŌöĆŌöĆ Pin / I2C config ŌöĆŌöĆŌöĆŌöĆŌöĆŌöĆŌöĆŌöĆŌöĆŌöĆŌöĆŌöĆŌöĆŌöĆŌöĆŌöĆŌöĆŌöĆŌöĆŌöĆŌöĆŌöĆŌöĆŌöĆ
  32:src/main.cpp  **** static constexpr Pin      SDA_PIN  = D12;
  33:src/main.cpp  **** static constexpr Pin      SCL_PIN  = D11;
  34:src/main.cpp  **** static constexpr uint8_t  MPR_ADDR = 0x5A;
  35:src/main.cpp  **** static constexpr uint32_t HP       = 5;
  36:src/main.cpp  **** static constexpr int      N_CH     = 12;
  37:src/main.cpp  **** 
  38:src/main.cpp  **** // ŌöĆŌöĆ Touch tuning ŌöĆŌöĆŌöĆŌöĆŌöĆŌöĆŌöĆŌöĆŌöĆŌöĆŌöĆŌöĆŌöĆŌöĆŌöĆŌöĆŌöĆŌöĆŌöĆŌöĆŌöĆŌöĆŌöĆŌöĆŌöĆŌ
  39:src/main.cpp  **** static constexpr int32_t  TOUCH_THRESHOLD    = 10;
  40:src/main.cpp  **** static constexpr int32_t  PRESSURE_MAX_REF[12] = {
  41:src/main.cpp  ****     42,35,34,34,34,34,
  42:src/main.cpp  ****     34,34,33,32,29,30
  43:src/main.cpp  **** };
  44:src/main.cpp  **** static constexpr int32_t  MIN_FINGER_SEP     = 4;
  45:src/main.cpp  **** static constexpr uint32_t REBASELINE_IDLE_MS = 2000;
  46:src/main.cpp  **** static constexpr int      REBASELINE_SAMPLES = 32;
  47:src/main.cpp  **** static constexpr int32_t  MAX_POS_JUMP       = 200;
  48:src/main.cpp  **** 
  49:src/main.cpp  **** // LED slew at ~60Hz touch loop. Closer to 1.0 = smoother/slower fade.
  50:src/main.cpp  **** // 0.0 = no smoothing (snap), 0.7 = ~80ms fade, 0.9 = ~250ms fade.
  51:src/main.cpp  **** static constexpr float    LED_SMOOTH         = 0.45f;
  52:src/main.cpp  **** // LED3 (software sigma-delta PWM on A0 / ADC0 / pin 22) max-brightness scale.
  53:src/main.cpp  **** static constexpr float    LED3_INTENSITY     = 0.1f;
  54:src/main.cpp  **** // Smoothing coefficient used for LED3 only when no finger is touching. Smaller
  55:src/main.cpp  **** // than LED_SMOOTH = faster fade-out on lift. 0.0 = instant snap to 0.
  56:src/main.cpp  **** static constexpr float    LED3_RELEASE_SMOOTH = 0.10f;
  57:src/main.cpp  **** 
  58:src/main.cpp  **** // ŌöĆŌöĆ Voices ŌöĆŌöĆŌöĆŌöĆŌöĆŌöĆŌöĆŌöĆŌöĆŌöĆŌöĆŌöĆŌöĆŌöĆŌöĆŌöĆŌöĆŌöĆŌöĆŌöĆŌöĆŌöĆŌöĆŌöĆŌöĆŌöĆŌöĆŌ
  59:src/main.cpp  **** // A "Voice" bundles everything that defines a sound: the oscillator stack
  60:src/main.cpp  **** // (which pitches sound and at what level), the filter/drive character, and the
  61:src/main.cpp  **** // pitch range finger-1 sweeps across. Add a preset below, then point ACTIVE
  62:src/main.cpp  **** // VOICE at it ŌĆö selection is a compile-time constant, so there is zero runtime
  63:src/main.cpp  **** // cost (the unused branches fold away).
  64:src/main.cpp  **** 
  65:src/main.cpp  **** // Oscillator shape ŌĆö set per oscillator, so one voice can mix (e.g. saw root +
  66:src/main.cpp  **** // square fifth + sine sub). SQUARE and SAW are naive (not band-limited) ŌĆö they
  67:src/main.cpp  **** // alias at high pitch, but on a low bass voice that just reads as rich harmonics
  68:src/main.cpp  **** // for the filter to chew.
  69:src/main.cpp  **** enum Waveform { WAVE_TRI, WAVE_SINE, WAVE_SQUARE, WAVE_SAW };
  70:src/main.cpp  **** 
  71:src/main.cpp  **** struct Voice {
  72:src/main.cpp  ****     const char* name;
ARM GAS  /tmp/claude-502/ccb6uqMv.s 			page 10


  73:src/main.cpp  **** 
  74:src/main.cpp  ****     // Pitch range. Finger-1 position 0ŌĆō1000 maps exponentially across this.
  75:src/main.cpp  ****     float freq_low;
  76:src/main.cpp  ****     float freq_high;
  77:src/main.cpp  ****     float log_freq_ratio;   // = ln(freq_high / freq_low), precomputed (logf isn't constexpr)
  78:src/main.cpp  **** 
  79:src/main.cpp  ****     // Oscillator stack. Each oscillator's pitch = fundamental * ratio, and each
  80:src/main.cpp  ****     // has its own waveform. Set a level to 0 to silence an oscillator.
  81:src/main.cpp  ****     float osc1_ratio, osc1_level;  Waveform osc1_wave;   // primary
  82:src/main.cpp  ****     float osc2_ratio, osc2_level;  Waveform osc2_wave;   // second osc (see osc2_detune)
  83:src/main.cpp  ****     float sub_ratio,  sub_level;   Waveform sub_wave;    // weight below
  84:src/main.cpp  ****     float oct_ratio,  oct_level;   Waveform oct_wave;    // shimmer / chord top
  85:src/main.cpp  ****     bool  osc2_detune;              // true  ŌåÆ finger-2 detune controls osc2 pitch (lead)
  86:src/main.cpp  ****                                     // false ŌåÆ osc2 stays at osc2_ratio (e.g. a fixed 5th)
  87:src/main.cpp  **** 
  88:src/main.cpp  ****     // Filter character. Base cutoff = freq * cutoff_mult; pressure opens it
  89:src/main.cpp  ****     // by up to cutoff_oct_max octaves on top.
  90:src/main.cpp  ****     float cutoff_mult;
  91:src/main.cpp  ****     float cutoff_oct_max;
  92:src/main.cpp  ****     float resonance;
  93:src/main.cpp  **** 
  94:src/main.cpp  ****     // Drive ŌĆö pressure-controlled waveshaper gain added on top of 1.0.
  95:src/main.cpp  ****     float drive_max;
  96:src/main.cpp  **** 
  97:src/main.cpp  ****     // ŌöĆŌöĆ Extras (appended so existing field order stays stable) ŌöĆŌöĆŌöĆŌöĆŌöĆŌöĆŌöĆŌöĆŌöĆŌöĆ
  98:src/main.cpp  ****     float noise_level;     // white noise mixed into the oscillator stack (0 = none)
  99:src/main.cpp  ****     float keytrack;        // 0..1 ŌĆö how much the cutoff follows pitch (1 = full)
 100:src/main.cpp  ****     float ringmod_ratio;   // ring-mod carrier pitch ratio (1.0 = unison; non-int = bell/metallic)
 101:src/main.cpp  ****     float ringmod_max;     // max ring-mod wet from finger-2 pressure
 102:src/main.cpp  ****     float fold_max;        // max wavefold amount from finger-2 pressure
 103:src/main.cpp  ****     float attack_ms;       // amp envelope attack time
 104:src/main.cpp  ****     float release_ms;      // amp envelope + filter-close release time
 105:src/main.cpp  ****     float glide_ms;        // portamento (pitch glide) time
 106:src/main.cpp  **** };
 107:src/main.cpp  **** 
 108:src/main.cpp  **** // Perfect-fifth frequency ratio = 2^(7/12).
 109:src/main.cpp  **** static constexpr float RATIO_FIFTH = 1.49831f;
 110:src/main.cpp  **** 
 111:src/main.cpp  **** // ŌöĆŌöĆ Voice 0: the original glass-Moog lead ŌöĆŌöĆŌöĆŌöĆŌöĆŌöĆŌöĆŌöĆŌöĆŌöĆŌöĆŌöĆŌöĆŌöĆŌöĆŌöĆŌöĆ
 112:src/main.cpp  **** //   F1 posŌåÆpitch, F1 prsŌåÆcutoff+vibrato; F2 posŌåÆdetune, F2 prsŌåÆwavefold+ringmod.
 113:src/main.cpp  **** static constexpr Voice VOICE_LEAD = {
 114:src/main.cpp  ****     "Lead",
 115:src/main.cpp  ****     50.0f, 300.0f, 1.79176f,   // 50ŌĆō300 Hz, ln(6)
 116:src/main.cpp  ****     1.0f, 0.50f, WAVE_TRI,   // osc1  ŌĆö root
 117:src/main.cpp  ****     1.0f, 0.22f, WAVE_TRI,   // osc2  ŌĆö detune-controlled, ratio is just the base
 118:src/main.cpp  ****     0.5f, 0.18f, WAVE_TRI,   // sub   ŌĆö one octave below
 119:src/main.cpp  ****     2.0f, 0.15f, WAVE_TRI,   // oct   ŌĆö one octave above
 120:src/main.cpp  ****     true,          // osc2 follows finger-2 detune
 121:src/main.cpp  ****     0.3f, 12.0f, 0.75f,
 122:src/main.cpp  ****     2.5f,
 123:src/main.cpp  ****     // noise, keytrack, rm_ratio, rm_max, fold_max, attack, release, glide (ms)
 124:src/main.cpp  ****     0.0f, 1.0f, 1.0f, 0.15f, 0.18f, 4.0f, 400.0f, 40.0f
 125:src/main.cpp  **** };
 126:src/main.cpp  **** 
 127:src/main.cpp  **** // ŌöĆŌöĆ Voice 1: round & dark power-chord bass (root + 5th + octave + sub) ŌöĆŌöĆŌöĆŌöĆŌöĆŌöĆŌöĆŌ
 128:src/main.cpp  **** //   Same touch mappings, but osc2 is a fixed perfect fifth instead of a detune,
 129:src/main.cpp  **** //   so every note sounds as a power chord. Lower range, gentler filter, less
ARM GAS  /tmp/claude-502/ccb6uqMv.s 			page 11


 130:src/main.cpp  **** //   drive ŌåÆ deep and round rather than bright and screaming.
 131:src/main.cpp  **** static constexpr Voice VOICE_BASS = {
 132:src/main.cpp  ****     "Bass",
 133:src/main.cpp  ****     40.0f, 160.0f, 1.38629f,   // 40ŌĆō160 Hz, ln(4) ŌĆö sits under the lead
 134:src/main.cpp  ****     1.0f,        0.45f, WAVE_TRI,   // osc1  ŌĆö root
 135:src/main.cpp  ****     RATIO_FIFTH, 0.30f, WAVE_TRI,   // osc2  ŌĆö fixed perfect fifth (the power chord)
 136:src/main.cpp  ****     0.5f,        0.34f, WAVE_TRI,   // sub   ŌĆö extra weight for a round bottom
 137:src/main.cpp  ****     2.0f,        0.20f, WAVE_TRI,   // oct   ŌĆö top of the power chord
 138:src/main.cpp  ****     false,                // osc2 is a fixed fifth, not finger-2 detune
 139:src/main.cpp  ****     0.25f, 7.0f, 0.50f,   // darker: lower base cutoff, gentler sweep, less resonance
 140:src/main.cpp  ****     1.0f,                 // less drive ŌĆö keep it clean and round
 141:src/main.cpp  ****     // noise, keytrack, rm_ratio, rm_max, fold_max, attack, release, glide (ms)
 142:src/main.cpp  ****     0.0f, 1.0f, 1.0f, 0.12f, 0.12f, 6.0f, 300.0f, 25.0f
 143:src/main.cpp  **** };
 144:src/main.cpp  **** 
 145:src/main.cpp  **** // ŌöĆŌöĆ Voice 2: open power-chord bass ŌöĆŌöĆŌöĆŌöĆŌöĆŌöĆŌöĆŌöĆŌöĆŌöĆŌöĆŌöĆŌöĆŌöĆŌöĆŌöĆŌöĆŌöĆŌöĆŌ
 146:src/main.cpp  **** //   Same chord stack as VOICE_BASS, but the filter starts brighter and sweeps
 147:src/main.cpp  **** //   much further with pressure ŌĆö light touch is still warm, hard press opens it
 148:src/main.cpp  **** //   wide. A touch more resonance and drive for presence as it opens.
 149:src/main.cpp  **** static constexpr Voice VOICE_BASS_OPEN = {
 150:src/main.cpp  ****     "OpenBass",
 151:src/main.cpp  ****     40.0f, 180.0f, 1.50408f,   // 40ŌĆō180 Hz, ln(4.5) ŌĆö a little more reach up top
 152:src/main.cpp  ****     1.0f,        0.45f, WAVE_TRI,   // osc1  ŌĆö root
 153:src/main.cpp  ****     RATIO_FIFTH, 0.30f, WAVE_TRI,   // osc2  ŌĆö fixed perfect fifth (the power chord)
 154:src/main.cpp  ****     0.5f,        0.30f, WAVE_TRI,   // sub   ŌĆö slightly less so the openness reads
 155:src/main.cpp  ****     2.0f,        0.22f, WAVE_TRI,   // oct   ŌĆö top of the power chord
 156:src/main.cpp  ****     false,                // osc2 is a fixed fifth, not finger-2 detune
 157:src/main.cpp  ****     0.5f, 10.0f, 0.65f,   // brighter base + wider pressure sweep + more resonance
 158:src/main.cpp  ****     1.8f,                 // more drive ŌĆö grit comes in as you press
 159:src/main.cpp  ****     // noise, keytrack, rm_ratio, rm_max, fold_max, attack, release, glide (ms)
 160:src/main.cpp  ****     0.0f, 1.0f, 1.0f, 0.15f, 0.15f, 5.0f, 350.0f, 25.0f
 161:src/main.cpp  **** };
 162:src/main.cpp  **** 
 163:src/main.cpp  **** // ŌöĆŌöĆ Voice 3: rich power-chord bass with mixed waveforms + huge filter sweep ŌöĆŌöĆŌöĆŌöĆ
 164:src/main.cpp  **** //   Mixed shapes for body: saw root (harmonic-rich), square fifth (hollow), a
 165:src/main.cpp  **** //   clean sine sub (tight low end), saw octave on top. Starts dark, then
 166:src/main.cpp  **** //   pressure opens the cutoff dramatically (13 octaves) with high resonance ŌĆö
 167:src/main.cpp  **** //   a vocal, acid-style "wow" as you press harder.
 168:src/main.cpp  **** static constexpr Voice VOICE_BASS_RICH = {
 169:src/main.cpp  ****     "RichBass",
 170:src/main.cpp  ****     40.0f, 160.0f, 1.38629f,   // 40ŌĆō160 Hz, ln(4)
 171:src/main.cpp  ****     1.0f,        0.40f, WAVE_SAW,    // osc1  ŌĆö saw root (rich harmonics)
 172:src/main.cpp  ****     RATIO_FIFTH, 0.26f, WAVE_SQUARE, // osc2  ŌĆö square fifth (hollow contrast)
 173:src/main.cpp  ****     0.5f,        0.32f, WAVE_SINE,   // sub   ŌĆö clean sine for a tight low end
 174:src/main.cpp  ****     2.0f,        0.18f, WAVE_SAW,    // oct   ŌĆö saw top of the power chord
 175:src/main.cpp  ****     false,                // osc2 is a fixed fifth, not finger-2 detune
 176:src/main.cpp  ****     0.2f, 13.0f, 0.82f,   // dark base + enormous pressure sweep + high resonance
 177:src/main.cpp  ****     2.2f,                 // generous drive ŌĆö grit blooms with pressure
 178:src/main.cpp  ****     // noise, keytrack, rm_ratio, rm_max, fold_max, attack, release, glide (ms)
 179:src/main.cpp  ****     0.0f, 1.0f, 1.0f, 0.20f, 0.20f, 3.0f, 250.0f, 18.0f   // snappy + fast acid glide
 180:src/main.cpp  **** };
 181:src/main.cpp  **** 
 182:src/main.cpp  **** // ŌöĆŌöĆ Voice 4: clean sine organ / flute (a melodic, non-bass departure) ŌöĆŌöĆŌöĆŌöĆŌöĆŌöĆŌöĆŌö
 183:src/main.cpp  **** //   Pure sine oscillators stacked like organ drawbars: octave-down body, root,
 184:src/main.cpp  **** //   octave-up air, plus a second osc tuned a hair sharp (1.005├Ś) for a slow,
 185:src/main.cpp  **** //   warm chorus shimmer instead of a chord. Higher register than the basses, a
 186:src/main.cpp  **** //   mostly-open clean filter, and just a touch of drive so pressure adds gentle
ARM GAS  /tmp/claude-502/ccb6uqMv.s 			page 12


 187:src/main.cpp  **** //   harmonic warmth. Sines never alias, so it stays smooth all the way up.
 188:src/main.cpp  **** static constexpr Voice VOICE_ORGAN = {
 189:src/main.cpp  ****     "Organ",
 190:src/main.cpp  ****     65.0f, 520.0f, 2.07944f,   // 65ŌĆō520 Hz, ln(8) ŌĆö a melodic keyboard register
 191:src/main.cpp  ****     1.0f,    0.45f, WAVE_SINE,  // osc1  ŌĆö root (8')
 192:src/main.cpp  ****     1.005f,  0.40f, WAVE_SINE,  // osc2  ŌĆö slightly sharp unison ŌåÆ slow chorus shimmer
 193:src/main.cpp  ****     0.5f,    0.30f, WAVE_SINE,  // sub   ŌĆö octave-down body (16')
 194:src/main.cpp  ****     2.0f,    0.28f, WAVE_SINE,  // oct   ŌĆö octave-up air (4')
 195:src/main.cpp  ****     false,                      // osc2 is a fixed chorus detune, not finger-2 detune
 196:src/main.cpp  ****     2.0f, 5.0f, 0.20f,          // mostly-open clean filter, gentle pressure lift, low res
 197:src/main.cpp  ****     0.8f,                       // light drive ŌĆö pressure adds subtle warmth, stays pure
 198:src/main.cpp  ****     // noise, keytrack, rm_ratio, rm_max, fold_max, attack, release, glide (ms)
 199:src/main.cpp  ****     0.03f, 1.0f, 1.0f, 0.05f, 0.0f, 8.0f, 120.0f, 8.0f   // breath chiff, fast on/off, no glide
 200:src/main.cpp  **** };
 201:src/main.cpp  **** 
 202:src/main.cpp  **** // ŌöĆŌöĆ Voice 5: screaming aggressive lead ŌöĆŌöĆŌöĆŌöĆŌöĆŌöĆŌöĆŌöĆŌöĆŌöĆŌöĆŌöĆŌöĆŌöĆŌöĆŌöĆŌöĆŌöĆ
 203:src/main.cpp  **** //   Detuned sawtooth stack (root + a hair-sharp twin + octave) for a thick,
 204:src/main.cpp  **** //   buzzing supersaw bite, pushed up into a cutting register. Heavy drive and a
 205:src/main.cpp  **** //   very high filter resonance make the cutoff whistle and scream as pressure
 206:src/main.cpp  **** //   sweeps it wide open. Finger-2 pressure piles on ring-mod + wavefold for
 207:src/main.cpp  **** //   extra snarl. Loud and nasty ŌĆö the output soft-clip keeps it from blowing up.
 208:src/main.cpp  **** static constexpr Voice VOICE_SCREAM = {
 209:src/main.cpp  ****     "Scream",
 210:src/main.cpp  ****     90.0f, 720.0f, 2.07944f,   // 90ŌĆō720 Hz, ln(8) ŌĆö high, cutting register
 211:src/main.cpp  ****     1.0f,    0.42f, WAVE_SAW,   // osc1  ŌĆö saw root
 212:src/main.cpp  ****     1.008f,  0.38f, WAVE_SAW,   // osc2  ŌĆö slightly sharp twin ŌåÆ thick beating buzz
 213:src/main.cpp  ****     0.5f,    0.20f, WAVE_SAW,   // sub   ŌĆö a little weight underneath
 214:src/main.cpp  ****     2.0f,    0.30f, WAVE_SAW,   // oct   ŌĆö octave up for bright, cutting scream
 215:src/main.cpp  ****     false,                      // osc2 is a fixed detune, not finger-2 controlled
 216:src/main.cpp  ****     3.0f, 11.0f, 0.90f,         // bright base + wide sweep + near-self-osc resonance
 217:src/main.cpp  ****     4.0f,                       // heavy drive ŌĆö saturated and aggressive
 218:src/main.cpp  ****     // noise, keytrack, rm_ratio, rm_max, fold_max, attack, release, glide (ms)
 219:src/main.cpp  ****     0.05f, 1.0f, 2.5f, 0.40f, 0.30f, 2.0f, 200.0f, 35.0f // hiss + inharmonic metallic ring-mod
 220:src/main.cpp  **** };
 221:src/main.cpp  **** 
 222:src/main.cpp  **** // ŌöĆŌöĆ Voice 6: very closed, dark sub bass ŌöĆŌöĆŌöĆŌöĆŌöĆŌöĆŌöĆŌöĆŌöĆŌöĆŌöĆŌöĆŌöĆŌöĆŌöĆŌöĆŌöĆŌö
 223:src/main.cpp  **** //   The opposite of the scream: a deep, muffled power-chord bass. A clean sine
 224:src/main.cpp  **** //   sub carries the weight under a mellow triangle root; the fifth and octave
 225:src/main.cpp  **** //   are dialed right back. The filter sits down around the fundamental and only
 226:src/main.cpp  **** //   creeps open a couple of octaves at full pressure, so it stays dark and
 227:src/main.cpp  **** //   muted ŌĆö felt more than heard. Low resonance, almost no drive.
 228:src/main.cpp  **** static constexpr Voice VOICE_BASS_CLOSED = {
 229:src/main.cpp  ****     "ClosedBass",
 230:src/main.cpp  ****     35.0f, 140.0f, 1.38629f,   // 35ŌĆō140 Hz, ln(4) ŌĆö deep
 231:src/main.cpp  ****     1.0f,        0.42f, WAVE_TRI,    // osc1  ŌĆö mellow triangle root
 232:src/main.cpp  ****     RATIO_FIFTH, 0.18f, WAVE_TRI,    // osc2  ŌĆö fifth, dialed back
 233:src/main.cpp  ****     0.5f,        0.44f, WAVE_SINE,   // sub   ŌĆö clean sine carries the weight
 234:src/main.cpp  ****     2.0f,        0.10f, WAVE_TRI,    // oct   ŌĆö barely there, keep it dark
 235:src/main.cpp  ****     false,                      // osc2 is a fixed fifth, not finger-2 detune
 236:src/main.cpp  ****     1.0f, 2.0f, 0.30f,          // cutoff sits near the fundamental, tiny sweep, low res
 237:src/main.cpp  ****     0.5f,                       // minimal drive ŌĆö stays clean and round
 238:src/main.cpp  ****     // noise, keytrack, rm_ratio, rm_max, fold_max, attack, release, glide (ms)
 239:src/main.cpp  ****     0.0f, 0.6f, 1.0f, 0.0f, 0.0f, 10.0f, 500.0f, 30.0f   // soft, long tail, less keytrack, clean
 240:src/main.cpp  **** };
 241:src/main.cpp  **** 
 242:src/main.cpp  **** // ŌöĆŌöĆ Active voice ŌĆö change this one line to switch sounds ŌöĆŌöĆŌöĆŌöĆŌöĆŌöĆŌöĆŌöĆŌöĆŌöĆŌöĆŌ
 243:src/main.cpp  **** static constexpr Voice VOICE = VOICE_BASS_CLOSED;
ARM GAS  /tmp/claude-502/ccb6uqMv.s 			page 13


 244:src/main.cpp  **** 
 245:src/main.cpp  **** // ŌöĆŌöĆ Musical mapping ŌöĆŌöĆŌöĆŌöĆŌöĆŌöĆŌöĆŌöĆŌöĆŌöĆŌöĆŌöĆŌöĆŌöĆŌöĆŌöĆŌöĆŌöĆŌöĆŌöĆŌöĆŌöĆŌöĆŌöĆŌ
 246:src/main.cpp  **** // Set to false to disable all quantization (fully continuous pitch)
 247:src/main.cpp  **** static constexpr bool QUANTIZE_ENABLED = false;
 248:src/main.cpp  **** // Quantize to chromatic scale (all 12 semitones)
 249:src/main.cpp  **** // Change to {0,2,4,5,7,9,11} for major scale, {0,2,3,5,7,8,10} for minor, etc.
 250:src/main.cpp  **** static const int SCALE[] = {0,1,2,3,4,5,6,7,8,9,10,11}; // chromatic
 251:src/main.cpp  **** static constexpr int SCALE_LEN = 12;
 252:src/main.cpp  **** 
 253:src/main.cpp  **** // ŌöĆŌöĆ MPR121 registers ŌöĆŌöĆŌöĆŌöĆŌöĆŌöĆŌöĆŌöĆŌöĆŌöĆŌöĆŌöĆŌöĆŌöĆŌöĆŌöĆŌöĆŌöĆŌöĆŌöĆŌöĆŌöĆŌöĆŌöĆ
 254:src/main.cpp  **** static constexpr uint8_t REG_ELE0_LSB  = 0x04;
 255:src/main.cpp  **** static constexpr uint8_t REG_MHDR=0x2B,REG_NHDR=0x2C,REG_NCLR=0x2D,REG_FDLR=0x2E;
 256:src/main.cpp  **** static constexpr uint8_t REG_MHDF=0x2F,REG_NHDF=0x30,REG_NCLF=0x31,REG_FDLF=0x32;
 257:src/main.cpp  **** static constexpr uint8_t REG_NHDT=0x33,REG_NCLT=0x34,REG_FDLT=0x35;
 258:src/main.cpp  **** static constexpr uint8_t REG_DEBOUNCE=0x5B,REG_CONFIG1=0x5C,REG_CONFIG2=0x5D;
 259:src/main.cpp  **** static constexpr uint8_t REG_ECR=0x5E,REG_SOFTRESET=0x80;
 260:src/main.cpp  **** 
 261:src/main.cpp  **** // ŌöĆŌöĆ Globals ŌöĆŌöĆŌöĆŌöĆŌöĆŌöĆŌöĆŌöĆŌöĆŌöĆŌöĆŌöĆŌöĆŌöĆŌöĆŌöĆŌöĆŌöĆŌöĆŌöĆŌöĆŌöĆŌöĆŌöĆŌöĆŌöĆŌöĆ
 262:src/main.cpp  **** DaisySeed hw;
 263:src/main.cpp  **** GPIO      sda, scl;
 264:src/main.cpp  **** GPIO      led3;  // software-PWM LED on A0 (ADC0 / D15 / pin 22)
 265:src/main.cpp  **** 
 266:src/main.cpp  **** // ŌöĆŌöĆ Bit-bang I2C ŌöĆŌöĆŌöĆŌöĆŌöĆŌöĆŌöĆŌöĆŌöĆŌöĆŌöĆŌöĆŌöĆŌöĆŌöĆŌöĆŌöĆŌöĆŌöĆŌöĆŌöĆŌöĆŌöĆŌöĆŌöĆŌ
 267:src/main.cpp  **** inline void sda_high(){sda.Init(SDA_PIN,GPIO::Mode::INPUT, GPIO::Pull::PULLUP);}
 268:src/main.cpp  **** inline void sda_low() {sda.Init(SDA_PIN,GPIO::Mode::OUTPUT,GPIO::Pull::NOPULL);sda.Write(false);}
 269:src/main.cpp  **** inline void scl_high(){scl.Init(SCL_PIN,GPIO::Mode::INPUT, GPIO::Pull::PULLUP);}
 270:src/main.cpp  **** inline void scl_low() {scl.Init(SCL_PIN,GPIO::Mode::OUTPUT,GPIO::Pull::NOPULL);scl.Write(false);}
 271:src/main.cpp  **** inline void d(){System::DelayUs(HP);}
 272:src/main.cpp  **** 
 273:src/main.cpp  **** void i2c_start(){sda_high();d();scl_high();d();sda_low();d();scl_low();d();}
 274:src/main.cpp  **** void i2c_stop() {sda_low();d();scl_high();d();sda_high();d();}
 275:src/main.cpp  **** 
 276:src/main.cpp  **** bool i2c_write_byte(uint8_t byte)
 277:src/main.cpp  **** {
 278:src/main.cpp  ****     for(int i=7;i>=0;i--){
 279:src/main.cpp  ****         if(byte&(1<<i))sda_high();else sda_low();
 280:src/main.cpp  ****         d();scl_high();d();scl_low();d();
 281:src/main.cpp  ****     }
 282:src/main.cpp  ****     sda_high();d();scl_high();d();
 283:src/main.cpp  ****     bool ack=!sda.Read();
 284:src/main.cpp  ****     scl_low();d();
 285:src/main.cpp  ****     return ack;
 286:src/main.cpp  **** }
 287:src/main.cpp  **** 
 288:src/main.cpp  **** uint8_t i2c_read_byte(bool ack)
 289:src/main.cpp  **** {
 290:src/main.cpp  ****     uint8_t b=0;sda_high();
 291:src/main.cpp  ****     for(int i=7;i>=0;i--){d();scl_high();d();if(sda.Read())b|=(1<<i);scl_low();}
 292:src/main.cpp  ****     if(ack)sda_low();else sda_high();
 293:src/main.cpp  ****     d();scl_high();d();scl_low();d();sda_high();
 294:src/main.cpp  ****     return b;
 295:src/main.cpp  **** }
 296:src/main.cpp  **** 
 297:src/main.cpp  **** bool mpr_write(uint8_t reg,uint8_t val)
 298:src/main.cpp  **** {
 299:src/main.cpp  ****     i2c_start();
 300:src/main.cpp  ****     if(!i2c_write_byte((MPR_ADDR<<1)|0)){i2c_stop();return false;}
ARM GAS  /tmp/claude-502/ccb6uqMv.s 			page 14


 301:src/main.cpp  ****     if(!i2c_write_byte(reg))            {i2c_stop();return false;}
 302:src/main.cpp  ****     if(!i2c_write_byte(val))            {i2c_stop();return false;}
 303:src/main.cpp  ****     i2c_stop();return true;
 304:src/main.cpp  **** }
 305:src/main.cpp  **** 
 306:src/main.cpp  **** bool mpr_read(uint8_t reg,uint8_t* buf,uint8_t len)
 307:src/main.cpp  **** {
 308:src/main.cpp  ****     i2c_start();
 309:src/main.cpp  ****     if(!i2c_write_byte((MPR_ADDR<<1)|0)){i2c_stop();return false;}
 310:src/main.cpp  ****     if(!i2c_write_byte(reg))            {i2c_stop();return false;}
 311:src/main.cpp  ****     i2c_start();
 312:src/main.cpp  ****     if(!i2c_write_byte((MPR_ADDR<<1)|1)){i2c_stop();return false;}
 313:src/main.cpp  ****     for(uint8_t i=0;i<len;i++) buf[i]=i2c_read_byte(i<len-1);
 314:src/main.cpp  ****     i2c_stop();return true;
 315:src/main.cpp  **** }
 316:src/main.cpp  **** 
 317:src/main.cpp  **** bool mpr_init()
 318:src/main.cpp  **** {
 319:src/main.cpp  ****     mpr_write(REG_SOFTRESET,0x63);System::Delay(10);
 320:src/main.cpp  ****     mpr_write(REG_ECR,0x00);
 321:src/main.cpp  ****     mpr_write(REG_MHDR,0x01);mpr_write(REG_NHDR,0x01);
 322:src/main.cpp  ****     mpr_write(REG_NCLR,0x10);mpr_write(REG_FDLR,0x20);
 323:src/main.cpp  ****     mpr_write(REG_MHDF,0x01);mpr_write(REG_NHDF,0x01);
 324:src/main.cpp  ****     mpr_write(REG_NCLF,0x10);mpr_write(REG_FDLF,0x20);
 325:src/main.cpp  ****     mpr_write(REG_NHDT,0x00);mpr_write(REG_NCLT,0x00);mpr_write(REG_FDLT,0x00);
 326:src/main.cpp  ****     for(uint8_t ch=0;ch<12;ch++){mpr_write(0x41+ch*2,4);mpr_write(0x42+ch*2,2);}
 327:src/main.cpp  ****     mpr_write(REG_DEBOUNCE,0x11);
 328:src/main.cpp  ****     mpr_write(REG_CONFIG1,0xF0);  // FFI=34 | CDC=48uA
 329:src/main.cpp  ****     mpr_write(REG_CONFIG2,0x4C);  // CDT=4us | SFI=18 | ESI=1ms
 330:src/main.cpp  ****     mpr_write(REG_ECR,0x8C);
 331:src/main.cpp  ****     System::Delay(100);
 332:src/main.cpp  ****     uint8_t ecr=0;mpr_read(REG_ECR,&ecr,1);
 333:src/main.cpp  ****     return(ecr==0x8C);
 334:src/main.cpp  **** }
 335:src/main.cpp  **** 
 336:src/main.cpp  **** void read_electrodes(uint16_t* out)
 337:src/main.cpp  **** {
 338:src/main.cpp  ****     uint8_t buf[24];
 339:src/main.cpp  ****     mpr_read(REG_ELE0_LSB,buf,24);
 340:src/main.cpp  ****     for(int i=0;i<N_CH;i++)
 341:src/main.cpp  ****         out[i]=(uint16_t)(buf[i*2]|((buf[i*2+1]&0x03)<<8));
 342:src/main.cpp  **** }
 343:src/main.cpp  **** 
 344:src/main.cpp  **** void capture_baseline(uint16_t* bl)
 345:src/main.cpp  **** {
 346:src/main.cpp  ****     uint32_t acc[N_CH]={0};uint16_t tmp[N_CH];
 347:src/main.cpp  ****     for(int s=0;s<REBASELINE_SAMPLES;s++){
 348:src/main.cpp  ****         read_electrodes(tmp);
 349:src/main.cpp  ****         for(int i=0;i<N_CH;i++)acc[i]+=tmp[i];
 350:src/main.cpp  ****         System::Delay(5);
 351:src/main.cpp  ****     }
 352:src/main.cpp  ****     for(int i=0;i<N_CH;i++)bl[i]=(uint16_t)(acc[i]/REBASELINE_SAMPLES);
 353:src/main.cpp  **** }
 354:src/main.cpp  **** 
 355:src/main.cpp  **** // ŌöĆŌöĆ Touch structs ŌöĆŌöĆŌöĆŌöĆŌöĆŌöĆŌöĆŌöĆŌöĆŌöĆŌöĆŌöĆŌöĆŌöĆŌöĆŌöĆŌöĆŌöĆŌöĆŌöĆŌöĆŌöĆŌöĆŌöĆŌöĆ
 356:src/main.cpp  **** struct Finger { bool active; int32_t pos,pressure,peak_ch,peak_delta; };
 357:src/main.cpp  **** struct TrackedFinger { bool alive; int32_t pos,pressure; int peak_ch; int32_t peak_delta; };
ARM GAS  /tmp/claude-502/ccb6uqMv.s 			page 15


 358:src/main.cpp  **** static TrackedFinger tracked[2]={};
 359:src/main.cpp  **** 
 360:src/main.cpp  **** int32_t centroid_window(int32_t* d,int s,int e,int32_t* pk_out,int* pkch_out)
 361:src/main.cpp  **** {
 362:src/main.cpp  ****     int32_t sw=0,swx=0,pk=0;int pkc=s;
 363:src/main.cpp  ****     for(int i=s;i<=e;i++){
 364:src/main.cpp  ****         int32_t w=d[i]>0?d[i]:0;
 365:src/main.cpp  ****         sw+=w;swx+=w*i;
 366:src/main.cpp  ****         if(w>pk){pk=w;pkc=i;}
 367:src/main.cpp  ****     }
 368:src/main.cpp  ****     if(pk_out)*pk_out=pk;if(pkch_out)*pkch_out=pkc;
 369:src/main.cpp  ****     if(sw==0)return -1;
 370:src/main.cpp  ****     int32_t p=(swx*1000)/(sw*(N_CH-1));
 371:src/main.cpp  ****     if(p<0)p=0;if(p>1000)p=1000;
 372:src/main.cpp  ****     return p;
 373:src/main.cpp  **** }
 374:src/main.cpp  **** 
 375:src/main.cpp  **** int32_t pressure_pct(int32_t pk, int ch){
 376:src/main.cpp  ****     int32_t range = PRESSURE_MAX_REF[ch] - TOUCH_THRESHOLD;
 377:src/main.cpp  ****     int32_t raw   = pk - TOUCH_THRESHOLD;
 378:src/main.cpp  ****     if(raw <= 0)     return 0;
 379:src/main.cpp  ****     if(raw >= range) return 100;
 380:src/main.cpp  ****     // Clamp raw strictly before sqrt to prevent Newton overshoot
 381:src/main.cpp  ****     if(raw > range) raw = range;
 382:src/main.cpp  ****     int32_t scaled = raw * 10000 / range; // 0..10000
 383:src/main.cpp  ****     if(scaled > 10000) scaled = 10000;
 384:src/main.cpp  ****     // Integer sqrt via Newton
 385:src/main.cpp  ****     int32_t s = scaled / 2 + 1;
 386:src/main.cpp  ****     s = (s + scaled/s) / 2;
 387:src/main.cpp  ****     s = (s + scaled/s) / 2;
 388:src/main.cpp  ****     s = (s + scaled/s) / 2;
 389:src/main.cpp  ****     s = (s + scaled/s) / 2;
 390:src/main.cpp  ****     // Hard clamp output ŌĆö Newton can land at 101 due to rounding
 391:src/main.cpp  ****     if(s < 0)   s = 0;
 392:src/main.cpp  ****     if(s > 100) s = 100;
 393:src/main.cpp  ****     return s;
 394:src/main.cpp  **** }
 395:src/main.cpp  **** 
 396:src/main.cpp  **** int detect_raw(int32_t* delta,Finger out[2])
 397:src/main.cpp  **** {
 398:src/main.cpp  ****     out[0].active=out[1].active=false;
 399:src/main.cpp  ****     int pka=0;int32_t da=0;
 400:src/main.cpp  ****     for(int i=0;i<N_CH;i++)if(delta[i]>da){da=delta[i];pka=i;}
 401:src/main.cpp  ****     if(da<TOUCH_THRESHOLD)return 0;
 402:src/main.cpp  ****     int ws=pka-2;if(ws<0)ws=0;int we=pka+2;if(we>=N_CH)we=N_CH-1;
 403:src/main.cpp  ****     int32_t pa;int pca;
 404:src/main.cpp  ****     int32_t posa=centroid_window(delta,ws,we,&pa,&pca);
 405:src/main.cpp  ****     out[0]={true,posa,pressure_pct(pa,pca),pca,pa};
 406:src/main.cpp  **** 
 407:src/main.cpp  ****     int32_t d2[N_CH];
 408:src/main.cpp  ****     int ss=pka-2;if(ss<0)ss=0;int se=pka+2;if(se>=N_CH)se=N_CH-1;
 409:src/main.cpp  ****     for(int i=0;i<N_CH;i++)d2[i]=(i>=ss&&i<=se)?0:delta[i];
 410:src/main.cpp  ****     int pkb=0;int32_t db=0;
 411:src/main.cpp  ****     for(int i=0;i<N_CH;i++)if(d2[i]>db){db=d2[i];pkb=i;}
 412:src/main.cpp  ****     int sep=pkb-pka;if(sep<0)sep=-sep;
 413:src/main.cpp  ****     if(db<TOUCH_THRESHOLD||sep<MIN_FINGER_SEP)return 1;
 414:src/main.cpp  ****     int ws2=pkb-2;if(ws2<0)ws2=0;int we2=pkb+2;if(we2>=N_CH)we2=N_CH-1;
ARM GAS  /tmp/claude-502/ccb6uqMv.s 			page 16


 415:src/main.cpp  ****     int32_t pb;int pcb;
 416:src/main.cpp  ****     int32_t posb=centroid_window(d2,ws2,we2,&pb,&pcb);
 417:src/main.cpp  ****     out[1]={true,posb,pressure_pct(pb,pcb),pcb,pb};
 418:src/main.cpp  ****     return 2;
 419:src/main.cpp  **** }
 420:src/main.cpp  **** 
 421:src/main.cpp  **** void update_tracked(Finger* raw,int n)
 422:src/main.cpp  **** {
 423:src/main.cpp  ****     bool ra[2]={false,false};
 424:src/main.cpp  ****     for(int slot=0;slot<2;slot++){
 425:src/main.cpp  ****         if(!tracked[slot].alive)continue;
 426:src/main.cpp  ****         int32_t best=MAX_POS_JUMP+1;int br=-1;
 427:src/main.cpp  ****         for(int r=0;r<n;r++){
 428:src/main.cpp  ****             if(ra[r])continue;
 429:src/main.cpp  ****             int32_t c=raw[r].pos-tracked[slot].pos;if(c<0)c=-c;
 430:src/main.cpp  ****             if(c<best){best=c;br=r;}
 431:src/main.cpp  ****         }
 432:src/main.cpp  ****         if(br>=0){
 433:src/main.cpp  ****             tracked[slot].pos=raw[br].pos;tracked[slot].pressure=raw[br].pressure;
 434:src/main.cpp  ****             tracked[slot].peak_ch=raw[br].peak_ch;tracked[slot].peak_delta=raw[br].peak_delta;
 435:src/main.cpp  ****             ra[br]=true;
 436:src/main.cpp  ****         } else tracked[slot].alive=false;
 437:src/main.cpp  ****     }
 438:src/main.cpp  ****     for(int r=0;r<n;r++){
 439:src/main.cpp  ****         if(ra[r])continue;
 440:src/main.cpp  ****         for(int slot=0;slot<2;slot++){
 441:src/main.cpp  ****             if(!tracked[slot].alive){
 442:src/main.cpp  ****                 tracked[slot]={true,raw[r].pos,raw[r].pressure,raw[r].peak_ch,raw[r].peak_delta};
 443:src/main.cpp  ****                 ra[r]=true;break;
 444:src/main.cpp  ****             }
 445:src/main.cpp  ****         }
 446:src/main.cpp  ****     }
 447:src/main.cpp  **** }
 448:src/main.cpp  **** 
 449:src/main.cpp  **** // ŌöĆŌöĆ Maths helpers ŌöĆŌöĆŌöĆŌöĆŌöĆŌöĆŌöĆŌöĆŌöĆŌöĆŌöĆŌöĆŌöĆŌöĆŌöĆŌöĆŌöĆŌöĆŌöĆŌöĆŌöĆŌöĆŌöĆŌöĆŌöĆ
 450:src/main.cpp  **** static inline float clampf(float v,float lo,float hi){
 451:src/main.cpp  ****     return v<lo?lo:v>hi?hi:v;
 452:src/main.cpp  **** }
 453:src/main.cpp  **** 
 454:src/main.cpp  **** // Fast tanh approximation (Pad├®)
 455:src/main.cpp  **** static inline float fast_tanh(float x)
 456:src/main.cpp  **** {
 457:src/main.cpp  ****     if(x> 3.0f)return  1.0f;
 458:src/main.cpp  ****     if(x<-3.0f)return -1.0f;
 459:src/main.cpp  ****     float x2=x*x;
 460:src/main.cpp  ****     return x*(27.0f+x2)/(27.0f+9.0f*x2);
 461:src/main.cpp  **** }
 462:src/main.cpp  **** 
 463:src/main.cpp  **** // ŌöĆŌöĆ Note quantizer ŌöĆŌöĆŌöĆŌöĆŌöĆŌöĆŌöĆŌöĆŌöĆŌöĆŌöĆŌöĆŌöĆŌöĆŌöĆŌöĆŌöĆŌöĆŌöĆŌöĆŌöĆŌöĆŌöĆŌöĆŌö
 464:src/main.cpp  **** // Returns the nearest MIDI note in SCALE[] for a raw float MIDI pitch.
 465:src/main.cpp  **** float quantize_midi(float midi)
 466:src/main.cpp  **** {
 467:src/main.cpp  ****     int root = (int)midi;
 468:src/main.cpp  ****     int pc   = root % 12;
 469:src/main.cpp  ****     int oct  = root / 12;
 470:src/main.cpp  ****     // find nearest scale degree
 471:src/main.cpp  ****     int best_deg=0, best_dist=127;
ARM GAS  /tmp/claude-502/ccb6uqMv.s 			page 17


 472:src/main.cpp  ****     for(int i=0;i<SCALE_LEN;i++){
 473:src/main.cpp  ****         int d=SCALE[i]-pc; if(d<0)d=-d;
 474:src/main.cpp  ****         int d2=12-d; if(d2<d)d=d2;
 475:src/main.cpp  ****         if(d<best_dist){best_dist=d;best_deg=SCALE[i];}
 476:src/main.cpp  ****     }
 477:src/main.cpp  ****     float q=(float)(oct*12+best_deg);
 478:src/main.cpp  ****     // fractional semitone from the quantized note (for slide expression)
 479:src/main.cpp  ****     float frac=midi-(float)root;
 480:src/main.cpp  ****     return q+frac;
 481:src/main.cpp  **** }
 482:src/main.cpp  **** 
 483:src/main.cpp  **** // ŌöĆŌöĆ Audio state (written by touch loop, read by audio callback) ŌöĆŌöĆŌöĆŌöĆŌöĆŌöĆŌöĆŌöĆŌöĆŌö
 484:src/main.cpp  **** // All volatile ŌĆö touched by both cores / interrupt context
 485:src/main.cpp  **** volatile float g_target_freq    = 65.41f;
 486:src/main.cpp  **** volatile float g_target_cutoff  = 100.0f;  // starts dark, pressure opens it
 487:src/main.cpp  **** volatile float g_target_detune  = 0.0f;     // semitones osc2 offset
 488:src/main.cpp  **** volatile float g_target_drive   = 1.0f;     // waveshaper input gain
 489:src/main.cpp  **** volatile float g_vibrato_depth  = 0.0f;     // 0ŌĆō1, LFO depth
 490:src/main.cpp  **** volatile float g_bitcrush       = 0.0f;     // 0ŌĆō1, amount of crush
 491:src/main.cpp  **** volatile float g_ringmod        = 0.0f;     // 0ŌĆō1, ring mod wet
 492:src/main.cpp  **** volatile bool  g_finger_on      = false;
 493:src/main.cpp  **** volatile float g_amp_target     = 0.0f;
 494:src/main.cpp  **** volatile float g_led3_duty      = 0.0f;     // 0ŌĆō1, sigma-delta'd to LED3 in audio cb
 495:src/main.cpp  **** volatile float g_master_vol     = 1.0f;     // 0ŌĆō1, master volume from FSR on A1
 496:src/main.cpp  **** 
 497:src/main.cpp  **** // ŌöĆŌöĆ Audio DSP state (audio callback only) ŌöĆŌöĆŌöĆŌöĆŌöĆŌöĆŌöĆŌöĆŌöĆŌöĆŌöĆŌöĆŌöĆŌöĆŌöĆŌöĆŌöĆ
 498:src/main.cpp  **** static float s_freq      = 65.41f;
 499:src/main.cpp  **** static float s_cutoff    = 100.0f;
 500:src/main.cpp  **** static float s_detune    = 0.0f;
 501:src/main.cpp  **** static float s_drive     = 1.0f;
 502:src/main.cpp  **** static float s_vibdepth  = 0.0f;
 503:src/main.cpp  **** static float s_bitcrush  = 0.0f;
 504:src/main.cpp  **** static float s_ringmod   = 0.0f;
 505:src/main.cpp  **** static float s_amp       = 0.0f;
 506:src/main.cpp  **** static float s_master_vol= 1.0f;
 507:src/main.cpp  **** 
 508:src/main.cpp  **** static float s_phase1    = 0.0f;
 509:src/main.cpp  **** static float s_phase2    = 0.0f;
 510:src/main.cpp  **** static float s_phase_sub = 0.0f;
 511:src/main.cpp  **** static float s_phase_oct = 0.0f; // octave-up oscillator (2x freq)
 512:src/main.cpp  **** static float s_phase_rm  = 0.0f; // ring mod carrier phase
 513:src/main.cpp  **** static float s_lfo_phase = 0.0f;
 514:src/main.cpp  **** 
 515:src/main.cpp  **** // Moog ladder filter state
 516:src/main.cpp  **** static float s_flt[4]    = {0,0,0,0};
 517:src/main.cpp  **** 
 518:src/main.cpp  **** // White-noise generator state (xorshift32) for the per-voice noise oscillator.
 519:src/main.cpp  **** static uint32_t s_noise_rng = 0x1234567u;
 520:src/main.cpp  **** 
 521:src/main.cpp  **** // Slew rates (per sample at 48 kHz)
 522:src/main.cpp  **** // Lower value = faster response.
 523:src/main.cpp  **** // NOTE: pitch glide and the amp attack/release are now per-voice (see Voice
 524:src/main.cpp  **** // glide_ms / attack_ms / release_ms), converted to coefficients in the audio
 525:src/main.cpp  **** // callback. The constants below are the ones still shared by all voices.
 526:src/main.cpp  **** // Cutoff opening slew. The target is recomputed only at the touch-loop rate
 527:src/main.cpp  **** // (~12-16 Hz) and pressure is quantized to integer %, so a too-fast slew lets
 528:src/main.cpp  **** // each coarse step through as zipper/stair-stepping. ~35 ms interpolates across
ARM GAS  /tmp/claude-502/ccb6uqMv.s 			page 18


 529:src/main.cpp  **** // those steps for a smooth filter sweep while still feeling responsive.
 530:src/main.cpp  **** static constexpr float SLEW_CUT    = 0.9994f; // filter cutoff ŌĆö ~35 ms smooth
 531:src/main.cpp  **** static constexpr float SLEW_MISC   = 0.9900f; // drive/vib
 532:src/main.cpp  **** // Finger 2 ŌĆö asymmetric attack/release
 533:src/main.cpp  **** static constexpr float SLEW_F2_A   = 0.9800f; // attack  (~10ms)
 534:src/main.cpp  **** static constexpr float SLEW_F2_R   = 0.9990f; // release (~200ms smooth fade)
 535:src/main.cpp  **** 
 536:src/main.cpp  **** // Convert a one-pole time constant in milliseconds to a per-sample slew
 537:src/main.cpp  **** // coefficient: y += (1-coeff)*(target-y) reaches ~63% after `ms`.
 538:src/main.cpp  **** static inline float ms_to_coeff(float ms, float sr){
 539:src/main.cpp  ****     if(ms <= 0.0f) return 0.0f;            // instant
 540:src/main.cpp  ****     return expf(-1.0f / (ms * 0.001f * sr));
 541:src/main.cpp  **** }
 542:src/main.cpp  **** 
 543:src/main.cpp  **** // ŌöĆŌöĆ Oscillator waveforms (phase ph in [0,1) ŌåÆ sample in [-1,1]) ŌöĆŌöĆŌöĆŌöĆŌöĆŌöĆŌöĆŌöĆŌöĆ
 544:src/main.cpp  **** // Triangle wave
 545:src/main.cpp  **** static inline float tri(float ph){
 546:src/main.cpp  ****     return ph<0.5f?(4.0f*ph-1.0f):(3.0f-4.0f*ph);
 547:src/main.cpp  **** }
 548:src/main.cpp  **** // Sine via parabolic approximation (no libm call) ŌĆö matches sin(2ŽĆ┬Ęph).
 549:src/main.cpp  **** static inline float osc_sine(float ph){
 550:src/main.cpp  ****     constexpr float PI = 3.14159265f;
 551:src/main.cpp  ****     float x = ph*2.0f*PI - PI;                 // -ŽĆ..ŽĆ (angle shifted by ŽĆ)
 552:src/main.cpp  ****     float y = 1.27323954f*x - 0.405284735f*x*(x<0?-x:x);
 553:src/main.cpp  ****     y = 0.225f*(y*(y<0?-y:y) - y) + y;         // one refinement pass
 554:src/main.cpp  ****     return -y;                                 // undo the ŽĆ shift: sin(x+ŽĆ) = -sin(x)
 555:src/main.cpp  **** }
 556:src/main.cpp  **** // Naive square / saw ŌĆö alias at high pitch but sound rich on a bass voice.
 557:src/main.cpp  **** static inline float osc_square(float ph){ return ph<0.5f ? 1.0f : -1.0f; }
 558:src/main.cpp  **** static inline float osc_saw(float ph){ return 2.0f*ph - 1.0f; }
 559:src/main.cpp  **** 
 560:src/main.cpp  **** // Dispatch on the voice's waveform. VOICE.wave is a compile-time constant, so at
 561:src/main.cpp  **** // -O2 this folds to a single waveform call with no branch.
 562:src/main.cpp  **** static inline float osc(float ph, Waveform w){
 563:src/main.cpp  ****     switch(w){
 564:src/main.cpp  ****         case WAVE_SINE:   return osc_sine(ph);
 565:src/main.cpp  ****         case WAVE_SQUARE: return osc_square(ph);
 566:src/main.cpp  ****         case WAVE_SAW:    return osc_saw(ph);
 567:src/main.cpp  ****         case WAVE_TRI:
 568:src/main.cpp  ****         default:          return tri(ph);
 569:src/main.cpp  ****     }
 570:src/main.cpp  **** }
 571:src/main.cpp  **** 
 572:src/main.cpp  **** // Moog 4-pole ladder
 573:src/main.cpp  **** static inline float moog(float in, float cutoff, float res, float sr)
 574:src/main.cpp  **** {
 575:src/main.cpp  ****     float f = 2.0f*cutoff/sr;
 576:src/main.cpp  ****     if(f>0.98f)f=0.98f;
 577:src/main.cpp  ****     float k  = 3.8f*res;
 578:src/main.cpp  ****     float fb = k*s_flt[3];
 579:src/main.cpp  ****     float x  = in - fb;
 580:src/main.cpp  ****     s_flt[0]+=f*(fast_tanh(x)      -fast_tanh(s_flt[0]));
 581:src/main.cpp  ****     s_flt[1]+=f*(fast_tanh(s_flt[0])-fast_tanh(s_flt[1]));
 582:src/main.cpp  ****     s_flt[2]+=f*(fast_tanh(s_flt[1])-fast_tanh(s_flt[2]));
 583:src/main.cpp  ****     s_flt[3]+=f*(fast_tanh(s_flt[2])-fast_tanh(s_flt[3]));
 584:src/main.cpp  ****     return s_flt[3];
 585:src/main.cpp  **** }
ARM GAS  /tmp/claude-502/ccb6uqMv.s 			page 19


 586:src/main.cpp  **** 
 587:src/main.cpp  **** // Wavefolder distortion
 588:src/main.cpp  **** // Folds signal back when it exceeds threshold ŌĆö creates rich harmonics.
 589:src/main.cpp  **** // amount 0 = clean, 1 = heavy folding (4 folds)
 590:src/main.cpp  **** static inline float wavefold(float in, float amount)
 591:src/main.cpp  **** {
 592:src/main.cpp  ****     if(amount < 0.01f) return in;
 593:src/main.cpp  ****     // Drive the signal harder as amount increases (1x to 5x)
 594:src/main.cpp  ****     float driven = in * (1.0f + amount * 4.0f);
 595:src/main.cpp  ****     // Fold: reflect signal at ┬▒1 boundary repeatedly
 596:src/main.cpp  ****     // fold(x) = 1 - |((x+1) mod 2) - 1|  (triangle fold)
 597:src/main.cpp  ****     float x = driven;
 598:src/main.cpp  ****     // 2 passes of folding for richness
 599:src/main.cpp  ****     for(int fold = 0; fold < 2; fold++) {
 600:src/main.cpp  ****         x = x * 0.5f + 0.5f;           // shift to 0..1
 601:src/main.cpp  ****         x = x - floorf(x);              // wrap to 0..1
 602:src/main.cpp  ****         x = 1.0f - fabsf(2.0f*x - 1.0f); // triangle fold
 603:src/main.cpp  ****         x = x * 2.0f - 1.0f;           // back to -1..1
 604:src/main.cpp  ****     }
 605:src/main.cpp  ****     // Blend dry/wet so at low amounts it stays subtle
 606:src/main.cpp  ****     return in*(1.0f-amount) + x*amount;
 607:src/main.cpp  **** }
 608:src/main.cpp  **** 
 609:src/main.cpp  **** void AudioCallback(AudioHandle::InputBuffer,
 610:src/main.cpp  ****                    AudioHandle::OutputBuffer out, size_t size)
 611:src/main.cpp  **** {
  78              		.loc 6 611 1 is_stmt 1 view -0
  79              		.cfi_startproc
  80              		@ args = 0, pretend = 0, frame = 24
  81              		@ frame_needed = 0, uses_anonymous_args = 0
 612:src/main.cpp  ****     // LED3 fixed-frequency PWM (200 Hz, 240 levels). Per-sample duty smoother
 613:src/main.cpp  ****     // (~20 ms TC) interpolates between the main loop's 16 Hz updates so the
 614:src/main.cpp  ****     // brightness transitions look continuous even at low intensity.
 615:src/main.cpp  ****     static float    led3_duty_smooth = 0.0f;
  82              		.loc 6 615 5 view .LVU11
 616:src/main.cpp  ****     static uint32_t pwm_counter      = 0;
  83              		.loc 6 616 5 view .LVU12
 617:src/main.cpp  ****     static bool     led3_state       = false;
  84              		.loc 6 617 5 view .LVU13
 618:src/main.cpp  ****     constexpr uint32_t PWM_LEVELS = 240;        // 48 kHz / 240 = 200 Hz PWM
  85              		.loc 6 618 5 view .LVU14
 619:src/main.cpp  ****     constexpr float    DUTY_TC    = 0.001f;     // ~20 ms time constant per sample
  86              		.loc 6 619 5 view .LVU15
 620:src/main.cpp  ****     float           duty_target = g_led3_duty;
  87              		.loc 6 620 5 view .LVU16
  88              		.loc 6 620 35 is_stmt 0 view .LVU17
  89 0000 304B     		ldr	r3, .L130
 611:src/main.cpp  ****     // LED3 fixed-frequency PWM (200 Hz, 240 levels). Per-sample duty smoother
  90              		.loc 6 611 1 view .LVU18
  91 0002 2DE9F04F 		push	{r4, r5, r6, r7, r8, r9, r10, fp, lr}
  92              		.cfi_def_cfa_offset 36
  93              		.cfi_offset 4, -36
  94              		.cfi_offset 5, -32
  95              		.cfi_offset 6, -28
  96              		.cfi_offset 7, -24
  97              		.cfi_offset 8, -20
  98              		.cfi_offset 9, -16
ARM GAS  /tmp/claude-502/ccb6uqMv.s 			page 20


  99              		.cfi_offset 10, -12
 100              		.cfi_offset 11, -8
 101              		.cfi_offset 14, -4
 102 0006 2DED108B 		vpush.64	{d8, d9, d10, d11, d12, d13, d14, d15}
 103              		.cfi_def_cfa_offset 100
 104              		.cfi_offset 80, -100
 105              		.cfi_offset 81, -96
 106              		.cfi_offset 82, -92
 107              		.cfi_offset 83, -88
 108              		.cfi_offset 84, -84
 109              		.cfi_offset 85, -80
 110              		.cfi_offset 86, -76
 111              		.cfi_offset 87, -72
 112              		.cfi_offset 88, -68
 113              		.cfi_offset 89, -64
 114              		.cfi_offset 90, -60
 115              		.cfi_offset 91, -56
 116              		.cfi_offset 92, -52
 117              		.cfi_offset 93, -48
 118              		.cfi_offset 94, -44
 119              		.cfi_offset 95, -40
 120              		.loc 6 620 35 view .LVU19
 121 000a D3ED00EA 		vldr.32	s29, [r3]
 122              	.LVL2:
 621:src/main.cpp  ****     if(duty_target < 0.0f) duty_target = 0.0f; else if(duty_target > 1.0f) duty_target = 1.0f;
 123              		.loc 6 621 5 is_stmt 1 view .LVU20
 611:src/main.cpp  ****     // LED3 fixed-frequency PWM (200 Hz, 240 levels). Per-sample duty smoother
 124              		.loc 6 611 1 is_stmt 0 view .LVU21
 125 000e 87B0     		sub	sp, sp, #28
 126              		.cfi_def_cfa_offset 128
 611:src/main.cpp  ****     // LED3 fixed-frequency PWM (200 Hz, 240 levels). Per-sample duty smoother
 127              		.loc 6 611 1 view .LVU22
 128 0010 0E46     		mov	r6, r1
 129              		.loc 6 621 5 view .LVU23
 130 0012 F5EEC0EA 		vcmpe.f32	s29, #0
 611:src/main.cpp  ****     // LED3 fixed-frequency PWM (200 Hz, 240 levels). Per-sample duty smoother
 131              		.loc 6 611 1 view .LVU24
 132 0016 0092     		str	r2, [sp]
 133              		.loc 6 621 5 view .LVU25
 134 0018 F1EE10FA 		vmrs	APSR_nzcv, FPSCR
 135 001c 00F12485 		bmi	.L72
 136              		.loc 6 621 53 is_stmt 1 discriminator 2 view .LVU26
 137 0020 F7EE007A 		vmov.f32	s15, #1.0e+0
 138              		.loc 6 621 88 is_stmt 0 discriminator 2 view .LVU27
 139 0024 F4EE67EA 		vcmp.f32	s29, s15
 140 0028 F1EE10FA 		vmrs	APSR_nzcv, FPSCR
 141 002c 77FEAEEA 		vselgt.f32	s29, s15, s29
 142              	.LVL3:
 143              	.L4:
 622:src/main.cpp  **** 
 623:src/main.cpp  ****     // Snapshot targets
 624:src/main.cpp  ****     float tfreq  = g_target_freq;
 144              		.loc 6 624 5 is_stmt 1 view .LVU28
 145              		.loc 6 624 20 is_stmt 0 view .LVU29
 146 0030 2549     		ldr	r1, .L130+4
 147              	.LVL4:
 625:src/main.cpp  ****     float tcut   = g_target_cutoff;
ARM GAS  /tmp/claude-502/ccb6uqMv.s 			page 21


 148              		.loc 6 625 20 view .LVU30
 149 0032 264A     		ldr	r2, .L130+8
 150              	.LVL5:
 626:src/main.cpp  ****     float tdet   = g_target_detune;
 151              		.loc 6 626 20 view .LVU31
 152 0034 264B     		ldr	r3, .L130+12
 624:src/main.cpp  ****     float tcut   = g_target_cutoff;
 153              		.loc 6 624 20 view .LVU32
 154 0036 D1ED008A 		vldr.32	s17, [r1]
 155              	.LVL6:
 625:src/main.cpp  ****     float tcut   = g_target_cutoff;
 156              		.loc 6 625 5 is_stmt 1 view .LVU33
 625:src/main.cpp  ****     float tcut   = g_target_cutoff;
 157              		.loc 6 625 20 is_stmt 0 view .LVU34
 158 003a D2ED00BA 		vldr.32	s23, [r2]
 159              	.LVL7:
 160              		.loc 6 626 5 is_stmt 1 view .LVU35
 627:src/main.cpp  ****     float tdrv   = g_target_drive;
 161              		.loc 6 627 20 is_stmt 0 view .LVU36
 162 003e 2549     		ldr	r1, .L130+16
 626:src/main.cpp  ****     float tdet   = g_target_detune;
 163              		.loc 6 626 20 view .LVU37
 164 0040 93ED00CA 		vldr.32	s24, [r3]
 165              	.LVL8:
 166              		.loc 6 627 5 is_stmt 1 view .LVU38
 628:src/main.cpp  ****     float tvib   = g_vibrato_depth;
 167              		.loc 6 628 20 is_stmt 0 view .LVU39
 168 0044 244A     		ldr	r2, .L130+20
 629:src/main.cpp  ****     float tbc    = g_bitcrush;
 169              		.loc 6 629 20 view .LVU40
 170 0046 254B     		ldr	r3, .L130+24
 627:src/main.cpp  ****     float tdrv   = g_target_drive;
 171              		.loc 6 627 20 view .LVU41
 172 0048 91ED00FA 		vldr.32	s30, [r1]
 173              	.LVL9:
 628:src/main.cpp  ****     float tvib   = g_vibrato_depth;
 174              		.loc 6 628 5 is_stmt 1 view .LVU42
 630:src/main.cpp  ****     float trm    = g_ringmod;
 631:src/main.cpp  ****     float tamp   = g_amp_target;
 632:src/main.cpp  ****     float tmvol  = g_master_vol;
 633:src/main.cpp  ****     float sr     = hw.AudioSampleRate();
 634:src/main.cpp  **** 
 635:src/main.cpp  ****     // Per-voice envelope/glide coefficients. VOICE is a compile-time constant,
 636:src/main.cpp  ****     // so these only need computing once (expf isn't constexpr).
 637:src/main.cpp  ****     static bool  s_coeff_init = false;
 638:src/main.cpp  ****     static float s_glide_c, s_atk_c, s_rel_c;
 639:src/main.cpp  ****     if(!s_coeff_init){
 175              		.loc 6 639 8 is_stmt 0 view .LVU43
 176 004c 244C     		ldr	r4, .L130+28
 628:src/main.cpp  ****     float tbc    = g_bitcrush;
 177              		.loc 6 628 20 view .LVU44
 178 004e D2ED009A 		vldr.32	s19, [r2]
 179              	.LVL10:
 629:src/main.cpp  ****     float tbc    = g_bitcrush;
 180              		.loc 6 629 5 is_stmt 1 view .LVU45
 630:src/main.cpp  ****     float trm    = g_ringmod;
 181              		.loc 6 630 20 is_stmt 0 view .LVU46
ARM GAS  /tmp/claude-502/ccb6uqMv.s 			page 22


 182 0052 2449     		ldr	r1, .L130+32
 629:src/main.cpp  ****     float tbc    = g_bitcrush;
 183              		.loc 6 629 20 view .LVU47
 184 0054 D3ED00CA 		vldr.32	s25, [r3]
 185              	.LVL11:
 630:src/main.cpp  ****     float trm    = g_ringmod;
 186              		.loc 6 630 5 is_stmt 1 view .LVU48
 631:src/main.cpp  ****     float tmvol  = g_master_vol;
 187              		.loc 6 631 20 is_stmt 0 view .LVU49
 188 0058 234A     		ldr	r2, .L130+36
 632:src/main.cpp  ****     float sr     = hw.AudioSampleRate();
 189              		.loc 6 632 20 view .LVU50
 190 005a 244B     		ldr	r3, .L130+40
 633:src/main.cpp  **** 
 191              		.loc 6 633 38 view .LVU51
 192 005c 2448     		ldr	r0, .L130+44
 630:src/main.cpp  ****     float tamp   = g_amp_target;
 193              		.loc 6 630 20 view .LVU52
 194 005e 91ED00DA 		vldr.32	s26, [r1]
 195              	.LVL12:
 631:src/main.cpp  ****     float tmvol  = g_master_vol;
 196              		.loc 6 631 5 is_stmt 1 view .LVU53
 631:src/main.cpp  ****     float tmvol  = g_master_vol;
 197              		.loc 6 631 20 is_stmt 0 view .LVU54
 198 0062 D2ED00AA 		vldr.32	s21, [r2]
 199              	.LVL13:
 632:src/main.cpp  ****     float sr     = hw.AudioSampleRate();
 200              		.loc 6 632 5 is_stmt 1 view .LVU55
 632:src/main.cpp  ****     float sr     = hw.AudioSampleRate();
 201              		.loc 6 632 20 is_stmt 0 view .LVU56
 202 0066 93ED009A 		vldr.32	s18, [r3]
 203              	.LVL14:
 633:src/main.cpp  **** 
 204              		.loc 6 633 5 is_stmt 1 view .LVU57
 633:src/main.cpp  **** 
 205              		.loc 6 633 38 is_stmt 0 view .LVU58
 206 006a FFF7FEFF 		bl	_ZN5daisy9DaisySeed15AudioSampleRateEv
 207              	.LVL15:
 208              		.loc 6 639 5 view .LVU59
 209 006e 2378     		ldrb	r3, [r4]	@ zero_extendqisi2
 633:src/main.cpp  **** 
 210              		.loc 6 633 38 view .LVU60
 211 0070 B0EE408A 		vmov.f32	s16, s0
 212              	.LVL16:
 637:src/main.cpp  ****     static float s_glide_c, s_atk_c, s_rel_c;
 213              		.loc 6 637 5 is_stmt 1 view .LVU61
 638:src/main.cpp  ****     if(!s_coeff_init){
 214              		.loc 6 638 5 view .LVU62
 215              		.loc 6 639 5 view .LVU63
 216 0074 002B     		cmp	r3, #0
 217 0076 00F0FB84 		beq	.L127
 218              	.LVL17:
 219              	.L6:
 220              	.LBB425:
 640:src/main.cpp  ****         s_glide_c = ms_to_coeff(VOICE.glide_ms,   sr);
 641:src/main.cpp  ****         s_atk_c   = ms_to_coeff(VOICE.attack_ms,  sr);
 642:src/main.cpp  ****         s_rel_c   = ms_to_coeff(VOICE.release_ms, sr);
ARM GAS  /tmp/claude-502/ccb6uqMv.s 			page 23


 643:src/main.cpp  ****         s_coeff_init = true;
 644:src/main.cpp  ****     }
 645:src/main.cpp  **** 
 646:src/main.cpp  ****     for(size_t i=0;i<size;i++)
 221              		.loc 6 646 21 discriminator 1 view .LVU64
 222 007a 009B     		ldr	r3, [sp]
 223 007c 002B     		cmp	r3, #0
 224 007e 00F0EE84 		beq	.L3
 225              	.LBB426:
 647:src/main.cpp  ****     {
 648:src/main.cpp  ****         // Slew all parameters
 649:src/main.cpp  ****         s_freq    = s_freq   *s_glide_c + tfreq*(1.0f-s_glide_c);
 650:src/main.cpp  ****         // Cutoff: fast when opening (smoothed), slow when closing (with release)
 651:src/main.cpp  ****         { float sc = (tcut > s_cutoff) ? SLEW_CUT : s_rel_c;
 652:src/main.cpp  ****           s_cutoff = s_cutoff * sc + tcut * (1.0f - sc); }
 653:src/main.cpp  ****         s_drive   = s_drive   * SLEW_MISC + tdrv * (1.0f - SLEW_MISC);
 654:src/main.cpp  ****         s_vibdepth= s_vibdepth* SLEW_MISC + tvib * (1.0f - SLEW_MISC);
 655:src/main.cpp  ****         // Finger 2 params: fast attack, slow release
 656:src/main.cpp  ****         { float sa = tdet     > s_detune   ? SLEW_F2_A : SLEW_F2_R;
 657:src/main.cpp  ****           s_detune   = s_detune   * sa + tdet * (1.0f - sa); }
 658:src/main.cpp  ****         { float sa = tbc      > s_bitcrush ? SLEW_F2_A : SLEW_F2_R;
 659:src/main.cpp  ****           s_bitcrush = s_bitcrush * sa + tbc  * (1.0f - sa); }
 660:src/main.cpp  ****         { float sa = trm      > s_ringmod  ? SLEW_F2_A : SLEW_F2_R;
 661:src/main.cpp  ****           s_ringmod  = s_ringmod  * sa + trm  * (1.0f - sa); }
 662:src/main.cpp  ****         // Asymmetric envelope: per-voice attack (rising) and release (falling)
 663:src/main.cpp  ****         float slew_amp = (tamp > s_amp) ? s_atk_c : s_rel_c;
 664:src/main.cpp  ****         s_amp = s_amp * slew_amp + tamp * (1.0f - slew_amp);
 665:src/main.cpp  ****         // Master volume slew (smooths FSR jitter / 16 Hz update steps).
 666:src/main.cpp  ****         s_master_vol = s_master_vol * SLEW_MISC + tmvol * (1.0f - SLEW_MISC);
 667:src/main.cpp  **** 
 668:src/main.cpp  ****         // Bleed filter state toward zero when silent
 669:src/main.cpp  ****         // Prevents stale filter energy from clicking on next note onset
 670:src/main.cpp  ****         if(s_amp < 0.001f) {
 671:src/main.cpp  ****             s_flt[0] *= 0.999f;
 672:src/main.cpp  ****             s_flt[1] *= 0.999f;
 673:src/main.cpp  ****             s_flt[2] *= 0.999f;
 674:src/main.cpp  ****             s_flt[3] *= 0.999f;
 675:src/main.cpp  ****         }
 676:src/main.cpp  **** 
 677:src/main.cpp  ****         // During release, close cutoff in sync with amplitude
 678:src/main.cpp  ****         // This prevents clicks from abrupt filter state changes
 679:src/main.cpp  ****         if(tamp < 0.001f && s_amp > 0.0001f) {
 680:src/main.cpp  ****             // Pull cutoff toward silence-floor proportional to amp decay
 681:src/main.cpp  ****             float close_target = 30.0f + s_amp * tcut;
 682:src/main.cpp  ****             tcut = close_target;
 683:src/main.cpp  ****         }
 684:src/main.cpp  **** 
 685:src/main.cpp  ****         // LFO for vibrato (6 Hz sine approximation via triangle)
 686:src/main.cpp  ****         s_lfo_phase += 6.0f/sr;
 226              		.loc 6 686 28 is_stmt 0 view .LVU65
 227 0082 B1EE087A 		vmov.f32	s14, #6.0e+0
 653:src/main.cpp  ****         s_vibdepth= s_vibdepth* SLEW_MISC + tvib * (1.0f - SLEW_MISC);
 228              		.loc 6 653 50 view .LVU66
 229 0086 DFED1B7A 		vldr.32	s15, .L130+48
 230 008a 1B4B     		ldr	r3, .L130+52
 231              		.loc 6 686 28 view .LVU67
 232 008c 0025     		movs	r5, #0
ARM GAS  /tmp/claude-502/ccb6uqMv.s 			page 24


 654:src/main.cpp  ****         // Finger 2 params: fast attack, slow release
 233              		.loc 6 654 50 view .LVU68
 234 008e 69EEA76A 		vmul.f32	s13, s19, s15
 235 0092 1A4A     		ldr	r2, .L130+56
 236              		.loc 6 686 28 view .LVU69
 237 0094 87EE087A 		vdiv.f32	s14, s14, s16
 238 0098 0493     		str	r3, [sp, #16]
 239 009a DFF86CB0 		ldr	fp, .L130+68
 240 009e 184B     		ldr	r3, .L130+60
 241 00a0 DFF868A0 		ldr	r10, .L130+72
 242 00a4 DFF86890 		ldr	r9, .L130+76
 653:src/main.cpp  ****         s_vibdepth= s_vibdepth* SLEW_MISC + tvib * (1.0f - SLEW_MISC);
 243              		.loc 6 653 50 view .LVU70
 244 00a8 2FEE27FA 		vmul.f32	s30, s30, s15
 245              	.LVL18:
 653:src/main.cpp  ****         s_vibdepth= s_vibdepth* SLEW_MISC + tvib * (1.0f - SLEW_MISC);
 246              		.loc 6 653 50 view .LVU71
 247 00ac DFF86480 		ldr	r8, .L130+80
 666:src/main.cpp  **** 
 248              		.loc 6 666 57 view .LVU72
 249 00b0 69EE277A 		vmul.f32	s15, s18, s15
 250 00b4 134C     		ldr	r4, .L130+64
 654:src/main.cpp  ****         // Finger 2 params: fast attack, slow release
 251              		.loc 6 654 50 view .LVU73
 252 00b6 CDED016A 		vstr.32	s13, [sp, #4]
 666:src/main.cpp  **** 
 253              		.loc 6 666 57 view .LVU74
 254 00ba CDED027A 		vstr.32	s15, [sp, #8]
 255              		.loc 6 686 28 view .LVU75
 256 00be 8DED037A 		vstr.32	s14, [sp, #12]
 257 00c2 5DE2     		b	.L71
 258              	.L131:
 259              		.align	2
 260              	.L130:
 261 00c4 00000000 		.word	.LANCHOR0
 262 00c8 00000000 		.word	.LANCHOR1
 263 00cc 00000000 		.word	.LANCHOR2
 264 00d0 00000000 		.word	.LANCHOR3
 265 00d4 00000000 		.word	.LANCHOR4
 266 00d8 00000000 		.word	.LANCHOR5
 267 00dc 00000000 		.word	.LANCHOR6
 268 00e0 00000000 		.word	.LANCHOR11
 269 00e4 00000000 		.word	.LANCHOR7
 270 00e8 00000000 		.word	.LANCHOR8
 271 00ec 00000000 		.word	.LANCHOR9
 272 00f0 00000000 		.word	.LANCHOR10
 273 00f4 00D7233C 		.word	1008981760
 274 00f8 00000000 		.word	.LANCHOR12
 275 00fc 00000000 		.word	.LANCHOR15
 276 0100 00000000 		.word	.LANCHOR17
 277 0104 00000000 		.word	.LANCHOR24
 278 0108 00000000 		.word	.LANCHOR18
 279 010c 00000000 		.word	.LANCHOR19
 280 0110 00000000 		.word	.LANCHOR20
 281 0114 00000000 		.word	.LANCHOR21
 282 0118 00409C46 		.word	1184645120
 283 011c 48E17A3F 		.word	1065017672
ARM GAS  /tmp/claude-502/ccb6uqMv.s 			page 25


 284 0120 85EB913F 		.word	1066527621
 285 0124 0AD7233C 		.word	1008981770
 286 0128 6666A63F 		.word	1067869798
 287 012c 6F12833A 		.word	981668463
 288              	.LVL19:
 289              	.L129:
 290              	.LBB427:
 291              	.LBB428:
 451:src/main.cpp  **** }
 292              		.loc 6 451 24 view .LVU76
 293 0130 1FED077A 		vldr.32	s14, .L130+84
 294 0134 B4EEC75A 		vcmpe.f32	s10, s14
 295 0138 F1EE10FA 		vmrs	APSR_nzcv, FPSCR
 296 013c 00F36B84 		bgt	.L81
 451:src/main.cpp  **** }
 297              		.loc 6 451 24 view .LVU77
 298              	.LBE428:
 299              	.LBE427:
 300              	.LBB431:
 301              	.LBB432:
 575:src/main.cpp  ****     if(f>0.98f)f=0.98f;
 302              		.loc 6 575 19 view .LVU78
 303 0140 35EE055A 		vadd.f32	s10, s10, s10
 304              	.LVL20:
 305              	.L42:
 575:src/main.cpp  ****     if(f>0.98f)f=0.98f;
 306              		.loc 6 575 19 view .LVU79
 307              	.LBE432:
 308              	.LBE431:
 687:src/main.cpp  ****         if(s_lfo_phase>=1.0f)s_lfo_phase-=1.0f;
 688:src/main.cpp  ****         float lfo = tri(s_lfo_phase); // -1..1
 689:src/main.cpp  **** 
 690:src/main.cpp  ****         // Vibrato: modulate frequency by ┬▒1 semitone * depth
 691:src/main.cpp  ****         // powf(2, semitones/12) ŌĆö approx for small values: exp(x*0.0578)
 692:src/main.cpp  ****         float vib_amt = lfo * s_vibdepth * 0.05f; // max ┬▒~0.05 semitones*depth
 693:src/main.cpp  ****         float freq_vib = s_freq * (1.0f + vib_amt);
 694:src/main.cpp  **** 
 695:src/main.cpp  ****         // Osc 2 frequency. Lead: finger-2 detune around the base ratio.
 696:src/main.cpp  ****         // Bass (and any fixed-interval voice): hold osc2_ratio (e.g. a 5th).
 697:src/main.cpp  ****         // VOICE is constexpr, so only the taken branch is compiled in.
 698:src/main.cpp  ****         float freq2;
 699:src/main.cpp  ****         if(VOICE.osc2_detune) {
 700:src/main.cpp  ****             float det_ratio = 1.0f + s_detune * 0.05776f; // linear approx, good for ┬▒1 oct
 701:src/main.cpp  ****             freq2 = freq_vib * VOICE.osc2_ratio * det_ratio;
 702:src/main.cpp  ****         } else {
 703:src/main.cpp  ****             freq2 = freq_vib * VOICE.osc2_ratio;
 704:src/main.cpp  ****         }
 705:src/main.cpp  **** 
 706:src/main.cpp  ****         // Sub and octave oscillators (ratios are voice-defined).
 707:src/main.cpp  ****         float freq_sub = freq_vib * VOICE.sub_ratio;
 708:src/main.cpp  ****         float freq_oct = freq_vib * VOICE.oct_ratio;
 709:src/main.cpp  **** 
 710:src/main.cpp  ****         // Ring mod carrier. ringmod_ratio=1.0 is unison; non-integer ratios give
 711:src/main.cpp  ****         // inharmonic bell/metallic tones.
 712:src/main.cpp  ****         float freq_rm = freq_vib * VOICE.ringmod_ratio;
 713:src/main.cpp  **** 
 714:src/main.cpp  ****         // Oscillators (mix levels are voice-defined).
ARM GAS  /tmp/claude-502/ccb6uqMv.s 			page 26


 715:src/main.cpp  ****         float osc1    = osc(s_phase1,   VOICE.osc1_wave) * VOICE.osc1_level;
 716:src/main.cpp  ****         float osc2    = osc(s_phase2,   VOICE.osc2_wave) * VOICE.osc2_level;
 717:src/main.cpp  ****         float sub     = osc(s_phase_sub,VOICE.sub_wave)  * VOICE.sub_level;
 718:src/main.cpp  ****         float osc_oct = osc(s_phase_oct,VOICE.oct_wave)  * VOICE.oct_level;
 719:src/main.cpp  **** 
 720:src/main.cpp  ****         // White noise (xorshift32 ŌåÆ -1..1), voice-defined level. Adds breath /
 721:src/main.cpp  ****         // chiff / hiss. The `if` folds away when a voice sets noise_level = 0.
 722:src/main.cpp  ****         float noise = 0.0f;
 723:src/main.cpp  ****         if(VOICE.noise_level > 0.0f){
 724:src/main.cpp  ****             s_noise_rng ^= s_noise_rng << 13;
 725:src/main.cpp  ****             s_noise_rng ^= s_noise_rng >> 17;
 726:src/main.cpp  ****             s_noise_rng ^= s_noise_rng << 5;
 727:src/main.cpp  ****             noise = ((float)(int32_t)s_noise_rng * (1.0f/2147483648.0f)) * VOICE.noise_level;
 728:src/main.cpp  ****         }
 729:src/main.cpp  **** 
 730:src/main.cpp  ****         // Mix oscillator stack + noise
 731:src/main.cpp  ****         float mix = osc1 + osc2 + sub + osc_oct + noise;
 732:src/main.cpp  **** 
 733:src/main.cpp  ****         // Ring modulation (finger 2 pressure ŌåÆ metallic/bell edge)
 734:src/main.cpp  ****         float rm_carrier = tri(s_phase_rm);
 735:src/main.cpp  ****         mix = mix*(1.0f-s_ringmod) + (mix*rm_carrier)*s_ringmod;
 736:src/main.cpp  **** 
 737:src/main.cpp  ****         // Waveshaper drive before filter (adds harmonics, warms tone)
 738:src/main.cpp  ****         mix = fast_tanh(mix * s_drive);
 739:src/main.cpp  **** 
 740:src/main.cpp  ****         // Moog ladder filter ŌĆö no attack boost (was causing onset clicks)
 741:src/main.cpp  ****         float eff_cutoff = clampf(s_cutoff, 20.0f, 20000.0f);
 742:src/main.cpp  ****         float filtered = moog(mix, eff_cutoff, VOICE.resonance, sr);
 309              		.loc 6 742 9 is_stmt 1 view .LVU80
 310              	.LBB518:
 311              	.LBI431:
 573:src/main.cpp  **** {
 312              		.loc 6 573 21 view .LVU81
 313              	.LBB509:
 575:src/main.cpp  ****     if(f>0.98f)f=0.98f;
 314              		.loc 6 575 5 view .LVU82
 575:src/main.cpp  ****     if(f>0.98f)f=0.98f;
 315              		.loc 6 575 11 is_stmt 0 view .LVU83
 316 0144 85EE087A 		vdiv.f32	s14, s10, s16
 317              	.LVL21:
 576:src/main.cpp  ****     float k  = 3.8f*res;
 318              		.loc 6 576 5 is_stmt 1 view .LVU84
 319 0148 1FED0C6A 		vldr.32	s12, .L130+88
 576:src/main.cpp  ****     float k  = 3.8f*res;
 320              		.loc 6 576 17 is_stmt 0 view .LVU85
 321 014c B4EE467A 		vcmp.f32	s14, s12
 322 0150 F1EE10FA 		vmrs	APSR_nzcv, FPSCR
 323 0154 36FE077A 		vselgt.f32	s14, s12, s14
 324              	.LVL22:
 577:src/main.cpp  ****     float fb = k*s_flt[3];
 325              		.loc 6 577 5 is_stmt 1 view .LVU86
 578:src/main.cpp  ****     float x  = in - fb;
 326              		.loc 6 578 5 view .LVU87
 579:src/main.cpp  ****     s_flt[0]+=f*(fast_tanh(x)      -fast_tanh(s_flt[0]));
 327              		.loc 6 579 5 view .LVU88
 579:src/main.cpp  ****     s_flt[0]+=f*(fast_tanh(x)      -fast_tanh(s_flt[0]));
 328              		.loc 6 579 11 is_stmt 0 view .LVU89
ARM GAS  /tmp/claude-502/ccb6uqMv.s 			page 27


 329 0158 1FED0F6A 		vldr.32	s12, .L130+92
 330 015c E7EEC66A 		vfms.f32	s13, s15, s12
 331              	.LVL23:
 580:src/main.cpp  ****     s_flt[1]+=f*(fast_tanh(s_flt[0])-fast_tanh(s_flt[1]));
 332              		.loc 6 580 5 is_stmt 1 view .LVU90
 333              	.LBB433:
 334              	.LBI433:
 455:src/main.cpp  **** {
 335              		.loc 6 455 21 view .LVU91
 336              	.LBB434:
 457:src/main.cpp  ****     if(x<-3.0f)return -1.0f;
 337              		.loc 6 457 5 view .LVU92
 338 0160 B0EE086A 		vmov.f32	s12, #3.0e+0
 339 0164 F4EEC66A 		vcmpe.f32	s13, s12
 340 0168 F1EE10FA 		vmrs	APSR_nzcv, FPSCR
 341 016c 00F34F84 		bgt	.L82
 458:src/main.cpp  ****     float x2=x*x;
 342              		.loc 6 458 5 view .LVU93
 343 0170 B8EE086A 		vmov.f32	s12, #-3.0e+0
 344 0174 F4EEC66A 		vcmpe.f32	s13, s12
 345 0178 F1EE10FA 		vmrs	APSR_nzcv, FPSCR
 346 017c 00F16584 		bmi	.L83
 347              	.LVL24:
 348              	.LBB435:
 349              	.LBI435:
 455:src/main.cpp  **** {
 350              		.loc 6 455 21 view .LVU94
 351              	.LBB436:
 459:src/main.cpp  ****     return x*(27.0f+x2)/(27.0f+9.0f*x2);
 352              		.loc 6 459 5 view .LVU95
 460:src/main.cpp  **** }
 353              		.loc 6 460 20 is_stmt 0 view .LVU96
 354 0180 B3EE0B5A 		vmov.f32	s10, #2.7e+1
 459:src/main.cpp  ****     return x*(27.0f+x2)/(27.0f+9.0f*x2);
 355              		.loc 6 459 11 view .LVU97
 356 0184 26EEA66A 		vmul.f32	s12, s13, s13
 357              	.LVL25:
 460:src/main.cpp  **** }
 358              		.loc 6 460 5 is_stmt 1 view .LVU98
 460:src/main.cpp  **** }
 359              		.loc 6 460 31 is_stmt 0 view .LVU99
 360 0188 B2EE02BA 		vmov.f32	s22, #9.0e+0
 361 018c B0EE45AA 		vmov.f32	s20, s10
 362 0190 A6EE0BAA 		vfma.f32	s20, s12, s22
 460:src/main.cpp  **** }
 363              		.loc 6 460 20 view .LVU100
 364 0194 36EE056A 		vadd.f32	s12, s12, s10
 365              	.LVL26:
 460:src/main.cpp  **** }
 366              		.loc 6 460 13 view .LVU101
 367 0198 66EE266A 		vmul.f32	s13, s12, s13
 368              	.LVL27:
 460:src/main.cpp  **** }
 369              		.loc 6 460 39 view .LVU102
 370 019c 86EE8A6A 		vdiv.f32	s12, s13, s20
 371              	.L45:
 372              	.LVL28:
ARM GAS  /tmp/claude-502/ccb6uqMv.s 			page 28


 460:src/main.cpp  **** }
 373              		.loc 6 460 39 view .LVU103
 374              	.LBE436:
 375              	.LBE435:
 376              	.LBE434:
 377              	.LBE433:
 378              	.LBB439:
 379              	.LBI439:
 455:src/main.cpp  **** {
 380              		.loc 6 455 21 is_stmt 1 view .LVU104
 381              	.LBB440:
 457:src/main.cpp  ****     if(x<-3.0f)return -1.0f;
 382              		.loc 6 457 5 view .LVU105
 383 01a0 F0EE086A 		vmov.f32	s13, #3.0e+0
 384 01a4 B4EEE63A 		vcmpe.f32	s6, s13
 385 01a8 F1EE10FA 		vmrs	APSR_nzcv, FPSCR
 386 01ac 00F32B84 		bgt	.L84
 458:src/main.cpp  ****     float x2=x*x;
 387              		.loc 6 458 5 view .LVU106
 388 01b0 F8EE086A 		vmov.f32	s13, #-3.0e+0
 389 01b4 B4EEE63A 		vcmpe.f32	s6, s13
 390 01b8 F1EE10FA 		vmrs	APSR_nzcv, FPSCR
 391 01bc 00F14184 		bmi	.L85
 392              	.LVL29:
 393              	.LBB441:
 394              	.LBI441:
 455:src/main.cpp  **** {
 395              		.loc 6 455 21 view .LVU107
 396              	.LBB442:
 459:src/main.cpp  ****     return x*(27.0f+x2)/(27.0f+9.0f*x2);
 397              		.loc 6 459 5 view .LVU108
 460:src/main.cpp  **** }
 398              		.loc 6 460 20 is_stmt 0 view .LVU109
 399 01c0 B3EE0B5A 		vmov.f32	s10, #2.7e+1
 459:src/main.cpp  ****     return x*(27.0f+x2)/(27.0f+9.0f*x2);
 400              		.loc 6 459 11 view .LVU110
 401 01c4 63EE036A 		vmul.f32	s13, s6, s6
 402              	.LVL30:
 460:src/main.cpp  **** }
 403              		.loc 6 460 5 is_stmt 1 view .LVU111
 460:src/main.cpp  **** }
 404              		.loc 6 460 31 is_stmt 0 view .LVU112
 405 01c8 B2EE02BA 		vmov.f32	s22, #9.0e+0
 406 01cc B0EE45AA 		vmov.f32	s20, s10
 407 01d0 A6EE8BAA 		vfma.f32	s20, s13, s22
 460:src/main.cpp  **** }
 408              		.loc 6 460 20 view .LVU113
 409 01d4 76EE856A 		vadd.f32	s13, s13, s10
 410              	.LVL31:
 460:src/main.cpp  **** }
 411              		.loc 6 460 13 view .LVU114
 412 01d8 66EE836A 		vmul.f32	s13, s13, s6
 460:src/main.cpp  **** }
 413              		.loc 6 460 39 view .LVU115
 414 01dc 86EE8A5A 		vdiv.f32	s10, s13, s20
 415              	.LVL32:
 416              	.L46:
ARM GAS  /tmp/claude-502/ccb6uqMv.s 			page 29


 460:src/main.cpp  **** }
 417              		.loc 6 460 39 view .LVU116
 418              	.LBE442:
 419              	.LBE441:
 420              	.LBE440:
 421              	.LBE439:
 580:src/main.cpp  ****     s_flt[1]+=f*(fast_tanh(s_flt[0])-fast_tanh(s_flt[1]));
 422              		.loc 6 580 36 view .LVU117
 423 01e0 36EE456A 		vsub.f32	s12, s12, s10
 424              	.LBB445:
 425              	.LBB446:
 457:src/main.cpp  ****     if(x<-3.0f)return -1.0f;
 426              		.loc 6 457 5 view .LVU118
 427 01e4 F0EE086A 		vmov.f32	s13, #3.0e+0
 428              	.LBE446:
 429              	.LBE445:
 580:src/main.cpp  ****     s_flt[1]+=f*(fast_tanh(s_flt[0])-fast_tanh(s_flt[1]));
 430              		.loc 6 580 13 view .LVU119
 431 01e8 A6EE073A 		vfma.f32	s6, s12, s14
 432              	.LBB453:
 433              	.LBB449:
 457:src/main.cpp  ****     if(x<-3.0f)return -1.0f;
 434              		.loc 6 457 5 view .LVU120
 435 01ec B4EEE63A 		vcmpe.f32	s6, s13
 436              	.LBE449:
 437              	.LBE453:
 580:src/main.cpp  ****     s_flt[1]+=f*(fast_tanh(s_flt[0])-fast_tanh(s_flt[1]));
 438              		.loc 6 580 13 view .LVU121
 439 01f0 84ED003A 		vstr.32	s6, [r4]
 581:src/main.cpp  ****     s_flt[2]+=f*(fast_tanh(s_flt[1])-fast_tanh(s_flt[2]));
 440              		.loc 6 581 5 is_stmt 1 view .LVU122
 441              	.LVL33:
 442              	.LBB454:
 443              	.LBI445:
 455:src/main.cpp  **** {
 444              		.loc 6 455 21 view .LVU123
 445              	.LBB450:
 457:src/main.cpp  ****     if(x<-3.0f)return -1.0f;
 446              		.loc 6 457 5 view .LVU124
 447 01f4 F1EE10FA 		vmrs	APSR_nzcv, FPSCR
 448 01f8 00F3FF83 		bgt	.L86
 458:src/main.cpp  ****     float x2=x*x;
 449              		.loc 6 458 5 view .LVU125
 450 01fc F8EE086A 		vmov.f32	s13, #-3.0e+0
 451 0200 B4EEE63A 		vcmpe.f32	s6, s13
 452 0204 F1EE10FA 		vmrs	APSR_nzcv, FPSCR
 453 0208 00F10C84 		bmi	.L87
 454              	.LVL34:
 455              	.LBB447:
 456              	.LBI447:
 455:src/main.cpp  **** {
 457              		.loc 6 455 21 view .LVU126
 458              	.LBB448:
 459:src/main.cpp  ****     return x*(27.0f+x2)/(27.0f+9.0f*x2);
 459              		.loc 6 459 5 view .LVU127
 460:src/main.cpp  **** }
 460              		.loc 6 460 20 is_stmt 0 view .LVU128
ARM GAS  /tmp/claude-502/ccb6uqMv.s 			page 30


 461 020c B3EE0B6A 		vmov.f32	s12, #2.7e+1
 459:src/main.cpp  ****     return x*(27.0f+x2)/(27.0f+9.0f*x2);
 462              		.loc 6 459 11 view .LVU129
 463 0210 63EE036A 		vmul.f32	s13, s6, s6
 464              	.LVL35:
 460:src/main.cpp  **** }
 465              		.loc 6 460 5 is_stmt 1 view .LVU130
 460:src/main.cpp  **** }
 466              		.loc 6 460 31 is_stmt 0 view .LVU131
 467 0214 B2EE02AA 		vmov.f32	s20, #9.0e+0
 468 0218 B0EE465A 		vmov.f32	s10, s12
 469 021c A6EE8A5A 		vfma.f32	s10, s13, s20
 460:src/main.cpp  **** }
 470              		.loc 6 460 20 view .LVU132
 471 0220 76EE866A 		vadd.f32	s13, s13, s12
 472              	.LVL36:
 460:src/main.cpp  **** }
 473              		.loc 6 460 13 view .LVU133
 474 0224 26EE833A 		vmul.f32	s6, s13, s6
 475              	.LVL37:
 460:src/main.cpp  **** }
 476              		.loc 6 460 39 view .LVU134
 477 0228 C3EE056A 		vdiv.f32	s13, s6, s10
 478              	.LVL38:
 479              	.L47:
 460:src/main.cpp  **** }
 480              		.loc 6 460 39 view .LVU135
 481              	.LBE448:
 482              	.LBE447:
 483              	.LBE450:
 484              	.LBE454:
 485              	.LBB455:
 486              	.LBI455:
 455:src/main.cpp  **** {
 487              		.loc 6 455 21 is_stmt 1 view .LVU136
 488              	.LBB456:
 457:src/main.cpp  ****     if(x<-3.0f)return -1.0f;
 489              		.loc 6 457 5 view .LVU137
 490 022c B0EE086A 		vmov.f32	s12, #3.0e+0
 491 0230 F4EEC63A 		vcmpe.f32	s7, s12
 492 0234 F1EE10FA 		vmrs	APSR_nzcv, FPSCR
 493 0238 00F3DC83 		bgt	.L88
 458:src/main.cpp  ****     float x2=x*x;
 494              		.loc 6 458 5 view .LVU138
 495 023c B8EE086A 		vmov.f32	s12, #-3.0e+0
 496 0240 F4EEC63A 		vcmpe.f32	s7, s12
 497 0244 F1EE10FA 		vmrs	APSR_nzcv, FPSCR
 498 0248 00F10684 		bmi	.L89
 499              	.LVL39:
 500              	.LBB457:
 501              	.LBI457:
 455:src/main.cpp  **** {
 502              		.loc 6 455 21 view .LVU139
 503              	.LBB458:
 459:src/main.cpp  ****     return x*(27.0f+x2)/(27.0f+9.0f*x2);
 504              		.loc 6 459 5 view .LVU140
 460:src/main.cpp  **** }
ARM GAS  /tmp/claude-502/ccb6uqMv.s 			page 31


 505              		.loc 6 460 20 is_stmt 0 view .LVU141
 506 024c B3EE0B5A 		vmov.f32	s10, #2.7e+1
 459:src/main.cpp  ****     return x*(27.0f+x2)/(27.0f+9.0f*x2);
 507              		.loc 6 459 11 view .LVU142
 508 0250 23EEA36A 		vmul.f32	s12, s7, s7
 509              	.LVL40:
 460:src/main.cpp  **** }
 510              		.loc 6 460 5 is_stmt 1 view .LVU143
 460:src/main.cpp  **** }
 511              		.loc 6 460 31 is_stmt 0 view .LVU144
 512 0254 B2EE02AA 		vmov.f32	s20, #9.0e+0
 513 0258 B0EE453A 		vmov.f32	s6, s10
 514 025c A6EE0A3A 		vfma.f32	s6, s12, s20
 460:src/main.cpp  **** }
 515              		.loc 6 460 20 view .LVU145
 516 0260 36EE056A 		vadd.f32	s12, s12, s10
 517              	.LVL41:
 460:src/main.cpp  **** }
 518              		.loc 6 460 13 view .LVU146
 519 0264 26EE236A 		vmul.f32	s12, s12, s7
 460:src/main.cpp  **** }
 520              		.loc 6 460 39 view .LVU147
 521 0268 86EE035A 		vdiv.f32	s10, s12, s6
 522              	.LVL42:
 523              	.L48:
 460:src/main.cpp  **** }
 524              		.loc 6 460 39 view .LVU148
 525              	.LBE458:
 526              	.LBE457:
 527              	.LBE456:
 528              	.LBE455:
 581:src/main.cpp  ****     s_flt[2]+=f*(fast_tanh(s_flt[1])-fast_tanh(s_flt[2]));
 529              		.loc 6 581 37 view .LVU149
 530 026c 76EEC56A 		vsub.f32	s13, s13, s10
 531              	.LBB461:
 532              	.LBB462:
 457:src/main.cpp  ****     if(x<-3.0f)return -1.0f;
 533              		.loc 6 457 5 view .LVU150
 534 0270 B0EE086A 		vmov.f32	s12, #3.0e+0
 535              	.LBE462:
 536              	.LBE461:
 581:src/main.cpp  ****     s_flt[2]+=f*(fast_tanh(s_flt[1])-fast_tanh(s_flt[2]));
 537              		.loc 6 581 13 view .LVU151
 538 0274 E7EE263A 		vfma.f32	s7, s14, s13
 539              	.LBB469:
 540              	.LBB465:
 457:src/main.cpp  ****     if(x<-3.0f)return -1.0f;
 541              		.loc 6 457 5 view .LVU152
 542 0278 F4EEC63A 		vcmpe.f32	s7, s12
 543              	.LBE465:
 544              	.LBE469:
 581:src/main.cpp  ****     s_flt[2]+=f*(fast_tanh(s_flt[1])-fast_tanh(s_flt[2]));
 545              		.loc 6 581 13 view .LVU153
 546 027c C4ED013A 		vstr.32	s7, [r4, #4]
 582:src/main.cpp  ****     s_flt[3]+=f*(fast_tanh(s_flt[2])-fast_tanh(s_flt[3]));
 547              		.loc 6 582 5 is_stmt 1 view .LVU154
 548              	.LVL43:
ARM GAS  /tmp/claude-502/ccb6uqMv.s 			page 32


 549              	.LBB470:
 550              	.LBI461:
 455:src/main.cpp  **** {
 551              		.loc 6 455 21 view .LVU155
 552              	.LBB466:
 457:src/main.cpp  ****     if(x<-3.0f)return -1.0f;
 553              		.loc 6 457 5 view .LVU156
 554 0280 F1EE10FA 		vmrs	APSR_nzcv, FPSCR
 555 0284 00F3B383 		bgt	.L90
 458:src/main.cpp  ****     float x2=x*x;
 556              		.loc 6 458 5 view .LVU157
 557 0288 F8EE086A 		vmov.f32	s13, #-3.0e+0
 558 028c F4EEE63A 		vcmpe.f32	s7, s13
 559 0290 F1EE10FA 		vmrs	APSR_nzcv, FPSCR
 560 0294 00F1DD83 		bmi	.L91
 561              	.LVL44:
 562              	.LBB463:
 563              	.LBI463:
 455:src/main.cpp  **** {
 564              		.loc 6 455 21 view .LVU158
 565              	.LBB464:
 459:src/main.cpp  ****     return x*(27.0f+x2)/(27.0f+9.0f*x2);
 566              		.loc 6 459 5 view .LVU159
 460:src/main.cpp  **** }
 567              		.loc 6 460 20 is_stmt 0 view .LVU160
 568 0298 B3EE0B5A 		vmov.f32	s10, #2.7e+1
 459:src/main.cpp  ****     return x*(27.0f+x2)/(27.0f+9.0f*x2);
 569              		.loc 6 459 11 view .LVU161
 570 029c 63EEA36A 		vmul.f32	s13, s7, s7
 571              	.LVL45:
 460:src/main.cpp  **** }
 572              		.loc 6 460 5 is_stmt 1 view .LVU162
 460:src/main.cpp  **** }
 573              		.loc 6 460 31 is_stmt 0 view .LVU163
 574 02a0 B2EE023A 		vmov.f32	s6, #9.0e+0
 575 02a4 B0EE456A 		vmov.f32	s12, s10
 576 02a8 A6EE836A 		vfma.f32	s12, s13, s6
 460:src/main.cpp  **** }
 577              		.loc 6 460 20 view .LVU164
 578 02ac 76EE856A 		vadd.f32	s13, s13, s10
 579              	.LVL46:
 460:src/main.cpp  **** }
 580              		.loc 6 460 13 view .LVU165
 581 02b0 66EEA33A 		vmul.f32	s7, s13, s7
 582              	.LVL47:
 460:src/main.cpp  **** }
 583              		.loc 6 460 39 view .LVU166
 584 02b4 C3EE866A 		vdiv.f32	s13, s7, s12
 585              	.LVL48:
 586              	.L49:
 460:src/main.cpp  **** }
 587              		.loc 6 460 39 view .LVU167
 588              	.LBE464:
 589              	.LBE463:
 590              	.LBE466:
 591              	.LBE470:
 592              	.LBB471:
ARM GAS  /tmp/claude-502/ccb6uqMv.s 			page 33


 593              	.LBI471:
 455:src/main.cpp  **** {
 594              		.loc 6 455 21 is_stmt 1 view .LVU168
 595              	.LBB472:
 457:src/main.cpp  ****     if(x<-3.0f)return -1.0f;
 596              		.loc 6 457 5 view .LVU169
 597 02b8 B0EE086A 		vmov.f32	s12, #3.0e+0
 598 02bc B4EEC64A 		vcmpe.f32	s8, s12
 599 02c0 F1EE10FA 		vmrs	APSR_nzcv, FPSCR
 600 02c4 00F39083 		bgt	.L92
 458:src/main.cpp  ****     float x2=x*x;
 601              		.loc 6 458 5 view .LVU170
 602 02c8 B8EE086A 		vmov.f32	s12, #-3.0e+0
 603 02cc B4EEC64A 		vcmpe.f32	s8, s12
 604 02d0 F1EE10FA 		vmrs	APSR_nzcv, FPSCR
 605 02d4 00F1B283 		bmi	.L93
 606              	.LVL49:
 607              	.LBB473:
 608              	.LBI473:
 455:src/main.cpp  **** {
 609              		.loc 6 455 21 view .LVU171
 610              	.LBB474:
 459:src/main.cpp  ****     return x*(27.0f+x2)/(27.0f+9.0f*x2);
 611              		.loc 6 459 5 view .LVU172
 460:src/main.cpp  **** }
 612              		.loc 6 460 20 is_stmt 0 view .LVU173
 613 02d8 F3EE0B3A 		vmov.f32	s7, #2.7e+1
 459:src/main.cpp  ****     return x*(27.0f+x2)/(27.0f+9.0f*x2);
 614              		.loc 6 459 11 view .LVU174
 615 02dc 24EE046A 		vmul.f32	s12, s8, s8
 616              	.LVL50:
 460:src/main.cpp  **** }
 617              		.loc 6 460 5 is_stmt 1 view .LVU175
 460:src/main.cpp  **** }
 618              		.loc 6 460 31 is_stmt 0 view .LVU176
 619 02e0 B2EE023A 		vmov.f32	s6, #9.0e+0
 620 02e4 B0EE635A 		vmov.f32	s10, s7
 621 02e8 A6EE035A 		vfma.f32	s10, s12, s6
 460:src/main.cpp  **** }
 622              		.loc 6 460 20 view .LVU177
 623 02ec 36EE236A 		vadd.f32	s12, s12, s7
 624              	.LVL51:
 460:src/main.cpp  **** }
 625              		.loc 6 460 13 view .LVU178
 626 02f0 26EE046A 		vmul.f32	s12, s12, s8
 460:src/main.cpp  **** }
 627              		.loc 6 460 39 view .LVU179
 628 02f4 C6EE053A 		vdiv.f32	s7, s12, s10
 629              	.LVL52:
 630              	.L50:
 460:src/main.cpp  **** }
 631              		.loc 6 460 39 view .LVU180
 632              	.LBE474:
 633              	.LBE473:
 634              	.LBE472:
 635              	.LBE471:
 582:src/main.cpp  ****     s_flt[3]+=f*(fast_tanh(s_flt[2])-fast_tanh(s_flt[3]));
ARM GAS  /tmp/claude-502/ccb6uqMv.s 			page 34


 636              		.loc 6 582 37 view .LVU181
 637 02f8 76EEE36A 		vsub.f32	s13, s13, s7
 638              	.LBB477:
 639              	.LBB478:
 457:src/main.cpp  ****     if(x<-3.0f)return -1.0f;
 640              		.loc 6 457 5 view .LVU182
 641 02fc B0EE086A 		vmov.f32	s12, #3.0e+0
 642              	.LBE478:
 643              	.LBE477:
 582:src/main.cpp  ****     s_flt[3]+=f*(fast_tanh(s_flt[2])-fast_tanh(s_flt[3]));
 644              		.loc 6 582 13 view .LVU183
 645 0300 A7EE264A 		vfma.f32	s8, s14, s13
 646              	.LBB485:
 647              	.LBB481:
 457:src/main.cpp  ****     if(x<-3.0f)return -1.0f;
 648              		.loc 6 457 5 view .LVU184
 649 0304 B4EEC64A 		vcmpe.f32	s8, s12
 650              	.LBE481:
 651              	.LBE485:
 582:src/main.cpp  ****     s_flt[3]+=f*(fast_tanh(s_flt[2])-fast_tanh(s_flt[3]));
 652              		.loc 6 582 13 view .LVU185
 653 0308 84ED024A 		vstr.32	s8, [r4, #8]
 583:src/main.cpp  ****     return s_flt[3];
 654              		.loc 6 583 5 is_stmt 1 view .LVU186
 655              	.LVL53:
 656              	.LBB486:
 657              	.LBI477:
 455:src/main.cpp  **** {
 658              		.loc 6 455 21 view .LVU187
 659              	.LBB482:
 457:src/main.cpp  ****     if(x<-3.0f)return -1.0f;
 660              		.loc 6 457 5 view .LVU188
 661 030c F1EE10FA 		vmrs	APSR_nzcv, FPSCR
 662 0310 00F36783 		bgt	.L94
 458:src/main.cpp  ****     float x2=x*x;
 663              		.loc 6 458 5 view .LVU189
 664 0314 F8EE086A 		vmov.f32	s13, #-3.0e+0
 665 0318 B4EEE64A 		vcmpe.f32	s8, s13
 666 031c F1EE10FA 		vmrs	APSR_nzcv, FPSCR
 667 0320 00F18983 		bmi	.L95
 668              	.LVL54:
 669              	.LBB479:
 670              	.LBI479:
 455:src/main.cpp  **** {
 671              		.loc 6 455 21 view .LVU190
 672              	.LBB480:
 459:src/main.cpp  ****     return x*(27.0f+x2)/(27.0f+9.0f*x2);
 673              		.loc 6 459 5 view .LVU191
 460:src/main.cpp  **** }
 674              		.loc 6 460 20 is_stmt 0 view .LVU192
 675 0324 B3EE0B5A 		vmov.f32	s10, #2.7e+1
 459:src/main.cpp  ****     return x*(27.0f+x2)/(27.0f+9.0f*x2);
 676              		.loc 6 459 11 view .LVU193
 677 0328 64EE046A 		vmul.f32	s13, s8, s8
 678              	.LVL55:
 460:src/main.cpp  **** }
 679              		.loc 6 460 5 is_stmt 1 view .LVU194
ARM GAS  /tmp/claude-502/ccb6uqMv.s 			page 35


 460:src/main.cpp  **** }
 680              		.loc 6 460 31 is_stmt 0 view .LVU195
 681 032c F2EE023A 		vmov.f32	s7, #9.0e+0
 682 0330 B0EE456A 		vmov.f32	s12, s10
 683 0334 A6EEA36A 		vfma.f32	s12, s13, s7
 460:src/main.cpp  **** }
 684              		.loc 6 460 20 view .LVU196
 685 0338 76EE856A 		vadd.f32	s13, s13, s10
 686              	.LVL56:
 460:src/main.cpp  **** }
 687              		.loc 6 460 13 view .LVU197
 688 033c 26EE844A 		vmul.f32	s8, s13, s8
 689              	.LVL57:
 460:src/main.cpp  **** }
 690              		.loc 6 460 39 view .LVU198
 691 0340 C4EE066A 		vdiv.f32	s13, s8, s12
 692              	.LVL58:
 693              	.L51:
 460:src/main.cpp  **** }
 694              		.loc 6 460 39 view .LVU199
 695              	.LBE480:
 696              	.LBE479:
 697              	.LBE482:
 698              	.LBE486:
 699              	.LBB487:
 700              	.LBI487:
 455:src/main.cpp  **** {
 701              		.loc 6 455 21 is_stmt 1 view .LVU200
 702              	.LBB488:
 457:src/main.cpp  ****     if(x<-3.0f)return -1.0f;
 703              		.loc 6 457 5 view .LVU201
 704 0344 B0EE086A 		vmov.f32	s12, #3.0e+0
 705 0348 F4EEC67A 		vcmpe.f32	s15, s12
 706 034c F1EE10FA 		vmrs	APSR_nzcv, FPSCR
 707 0350 00F34483 		bgt	.L96
 458:src/main.cpp  ****     float x2=x*x;
 708              		.loc 6 458 5 view .LVU202
 709 0354 B8EE086A 		vmov.f32	s12, #-3.0e+0
 710 0358 F4EEC67A 		vcmpe.f32	s15, s12
 711 035c F1EE10FA 		vmrs	APSR_nzcv, FPSCR
 712 0360 00F16683 		bmi	.L97
 713              	.LVL59:
 714              	.LBB489:
 715              	.LBI489:
 455:src/main.cpp  **** {
 716              		.loc 6 455 21 view .LVU203
 717              	.LBB490:
 459:src/main.cpp  ****     return x*(27.0f+x2)/(27.0f+9.0f*x2);
 718              		.loc 6 459 5 view .LVU204
 460:src/main.cpp  **** }
 719              		.loc 6 460 20 is_stmt 0 view .LVU205
 720 0364 B3EE0B5A 		vmov.f32	s10, #2.7e+1
 459:src/main.cpp  ****     return x*(27.0f+x2)/(27.0f+9.0f*x2);
 721              		.loc 6 459 11 view .LVU206
 722 0368 27EEA76A 		vmul.f32	s12, s15, s15
 723              	.LVL60:
 460:src/main.cpp  **** }
ARM GAS  /tmp/claude-502/ccb6uqMv.s 			page 36


 724              		.loc 6 460 5 is_stmt 1 view .LVU207
 460:src/main.cpp  **** }
 725              		.loc 6 460 31 is_stmt 0 view .LVU208
 726 036c F2EE023A 		vmov.f32	s7, #9.0e+0
 727 0370 B0EE454A 		vmov.f32	s8, s10
 728 0374 A6EE234A 		vfma.f32	s8, s12, s7
 460:src/main.cpp  **** }
 729              		.loc 6 460 20 view .LVU209
 730 0378 36EE056A 		vadd.f32	s12, s12, s10
 731              	.LVL61:
 460:src/main.cpp  **** }
 732              		.loc 6 460 13 view .LVU210
 733 037c 26EE276A 		vmul.f32	s12, s12, s15
 460:src/main.cpp  **** }
 734              		.loc 6 460 39 view .LVU211
 735 0380 86EE045A 		vdiv.f32	s10, s12, s8
 736              	.LVL62:
 737              	.L52:
 460:src/main.cpp  **** }
 738              		.loc 6 460 39 view .LVU212
 739              	.LBE490:
 740              	.LBE489:
 741              	.LBE488:
 742              	.LBE487:
 743              	.LBE509:
 744              	.LBE518:
 745              	.LBB519:
 746              	.LBB520:
 592:src/main.cpp  ****     // Drive the signal harder as amount increases (1x to 5x)
 747              		.loc 6 592 5 view .LVU213
 748 0384 1FED996A 		vldr.32	s12, .L130+96
 749              	.LBE520:
 750              	.LBE519:
 751              	.LBB529:
 752              	.LBB510:
 583:src/main.cpp  ****     return s_flt[3];
 753              		.loc 6 583 37 view .LVU214
 754 0388 76EEC56A 		vsub.f32	s13, s13, s10
 755              	.LBE510:
 756              	.LBE529:
 757              	.LBB530:
 758              	.LBB526:
 592:src/main.cpp  ****     // Drive the signal harder as amount increases (1x to 5x)
 759              		.loc 6 592 5 view .LVU215
 760 038c F4EEC62A 		vcmpe.f32	s5, s12
 761              	.LBE526:
 762              	.LBE530:
 763              	.LBB531:
 764              	.LBB511:
 583:src/main.cpp  ****     return s_flt[3];
 765              		.loc 6 583 13 view .LVU216
 766 0390 E7EE267A 		vfma.f32	s15, s14, s13
 767              	.LVL63:
 583:src/main.cpp  ****     return s_flt[3];
 768              		.loc 6 583 13 view .LVU217
 769              	.LBE511:
 770              	.LBE531:
ARM GAS  /tmp/claude-502/ccb6uqMv.s 			page 37


 771              	.LBB532:
 772              	.LBB527:
 592:src/main.cpp  ****     // Drive the signal harder as amount increases (1x to 5x)
 773              		.loc 6 592 5 view .LVU218
 774 0394 F1EE10FA 		vmrs	APSR_nzcv, FPSCR
 775              	.LBE527:
 776              	.LBE532:
 777              	.LBB533:
 778              	.LBB512:
 583:src/main.cpp  ****     return s_flt[3];
 779              		.loc 6 583 13 view .LVU219
 780 0398 C4ED037A 		vstr.32	s15, [r4, #12]
 584:src/main.cpp  **** }
 781              		.loc 6 584 5 is_stmt 1 view .LVU220
 782              	.LVL64:
 584:src/main.cpp  **** }
 783              		.loc 6 584 5 is_stmt 0 view .LVU221
 784              	.LBE512:
 785              	.LBE533:
 743:src/main.cpp  **** 
 744:src/main.cpp  ****         // Wavefold distortion (finger 2 pressure)
 745:src/main.cpp  ****         float crushed = wavefold(filtered, s_bitcrush);
 786              		.loc 6 745 9 is_stmt 1 view .LVU222
 787              	.LBB534:
 788              	.LBI519:
 590:src/main.cpp  **** {
 789              		.loc 6 590 21 view .LVU223
 790              	.LBB528:
 592:src/main.cpp  ****     // Drive the signal harder as amount increases (1x to 5x)
 791              		.loc 6 592 5 view .LVU224
 792 039c 3DD4     		bmi	.L53
 594:src/main.cpp  ****     // Fold: reflect signal at ┬▒1 boundary repeatedly
 793              		.loc 6 594 5 view .LVU225
 594:src/main.cpp  ****     // Fold: reflect signal at ┬▒1 boundary repeatedly
 794              		.loc 6 594 31 is_stmt 0 view .LVU226
 795 039e F7EE006A 		vmov.f32	s13, #1.0e+0
 796 03a2 B1EE004A 		vmov.f32	s8, #4.0e+0
 797              	.LBB521:
 600:src/main.cpp  ****         x = x - floorf(x);              // wrap to 0..1
 798              		.loc 6 600 11 view .LVU227
 799 03a6 B6EE007A 		vmov.f32	s14, #5.0e-1
 800              	.LBE521:
 594:src/main.cpp  ****     // Fold: reflect signal at ┬▒1 boundary repeatedly
 801              		.loc 6 594 31 view .LVU228
 802 03aa F0EE663A 		vmov.f32	s7, s13
 803              	.LBB522:
 602:src/main.cpp  ****         x = x * 2.0f - 1.0f;           // back to -1..1
 804              		.loc 6 602 33 view .LVU229
 805 03ae BFEE006A 		vmov.f32	s12, #-1.0e+0
 806 03b2 B0EE005A 		vmov.f32	s10, #2.0e+0
 807              	.LBE522:
 594:src/main.cpp  ****     // Fold: reflect signal at ┬▒1 boundary repeatedly
 808              		.loc 6 594 31 view .LVU230
 809 03b6 E2EE843A 		vfma.f32	s7, s5, s8
 810              	.LVL65:
 597:src/main.cpp  ****     // 2 passes of folding for richness
 811              		.loc 6 597 5 is_stmt 1 view .LVU231
ARM GAS  /tmp/claude-502/ccb6uqMv.s 			page 38


 599:src/main.cpp  ****         x = x * 0.5f + 0.5f;           // shift to 0..1
 812              		.loc 6 599 5 view .LVU232
 813              	.LBB523:
 599:src/main.cpp  ****         x = x * 0.5f + 0.5f;           // shift to 0..1
 814              		.loc 6 599 28 view .LVU233
 600:src/main.cpp  ****         x = x - floorf(x);              // wrap to 0..1
 815              		.loc 6 600 9 view .LVU234
 600:src/main.cpp  ****         x = x - floorf(x);              // wrap to 0..1
 816              		.loc 6 600 11 is_stmt 0 view .LVU235
 817 03ba B0EE474A 		vmov.f32	s8, s14
 818              	.LBE523:
 594:src/main.cpp  ****     // Fold: reflect signal at ┬▒1 boundary repeatedly
 819              		.loc 6 594 11 view .LVU236
 820 03be 63EEA73A 		vmul.f32	s7, s7, s15
 821              	.LVL66:
 822              	.LBB524:
 600:src/main.cpp  ****         x = x - floorf(x);              // wrap to 0..1
 823              		.loc 6 600 11 view .LVU237
 824 03c2 A3EE874A 		vfma.f32	s8, s7, s14
 825              	.LVL67:
 601:src/main.cpp  ****         x = 1.0f - fabsf(2.0f*x - 1.0f); // triangle fold
 826              		.loc 6 601 9 is_stmt 1 view .LVU238
 601:src/main.cpp  ****         x = 1.0f - fabsf(2.0f*x - 1.0f); // triangle fold
 827              		.loc 6 601 23 is_stmt 0 view .LVU239
 828 03c6 FBFE443A 		vrintm.f32	s7, s8
 829              	.LVL68:
 602:src/main.cpp  ****         x = x * 2.0f - 1.0f;           // back to -1..1
 830              		.loc 6 602 9 is_stmt 1 view .LVU240
 601:src/main.cpp  ****         x = 1.0f - fabsf(2.0f*x - 1.0f); // triangle fold
 831              		.loc 6 601 11 is_stmt 0 view .LVU241
 832 03ca 74EE633A 		vsub.f32	s7, s8, s7
 833              	.LVL69:
 602:src/main.cpp  ****         x = x * 2.0f - 1.0f;           // back to -1..1
 834              		.loc 6 602 33 view .LVU242
 835 03ce B0EE464A 		vmov.f32	s8, s12
 836 03d2 A3EE854A 		vfma.f32	s8, s7, s10
 603:src/main.cpp  ****     }
 837              		.loc 6 603 11 view .LVU243
 838 03d6 F0EE463A 		vmov.f32	s7, s12
 839              	.LVL70:
 602:src/main.cpp  ****         x = x * 2.0f - 1.0f;           // back to -1..1
 840              		.loc 6 602 25 view .LVU244
 841 03da B0EEC44A 		vabs.f32	s8, s8
 602:src/main.cpp  ****         x = x * 2.0f - 1.0f;           // back to -1..1
 842              		.loc 6 602 11 view .LVU245
 843 03de 36EEC44A 		vsub.f32	s8, s13, s8
 844              	.LVL71:
 603:src/main.cpp  ****     }
 845              		.loc 6 603 9 is_stmt 1 view .LVU246
 603:src/main.cpp  ****     }
 846              		.loc 6 603 11 is_stmt 0 view .LVU247
 847 03e2 E4EE053A 		vfma.f32	s7, s8, s10
 848              	.LVL72:
 599:src/main.cpp  ****         x = x * 0.5f + 0.5f;           // shift to 0..1
 849              		.loc 6 599 5 is_stmt 1 view .LVU248
 599:src/main.cpp  ****         x = x * 0.5f + 0.5f;           // shift to 0..1
 850              		.loc 6 599 28 view .LVU249
ARM GAS  /tmp/claude-502/ccb6uqMv.s 			page 39


 600:src/main.cpp  ****         x = x - floorf(x);              // wrap to 0..1
 851              		.loc 6 600 9 view .LVU250
 600:src/main.cpp  ****         x = x - floorf(x);              // wrap to 0..1
 852              		.loc 6 600 11 is_stmt 0 view .LVU251
 853 03e6 A3EE877A 		vfma.f32	s14, s7, s14
 854              	.LVL73:
 601:src/main.cpp  ****         x = 1.0f - fabsf(2.0f*x - 1.0f); // triangle fold
 855              		.loc 6 601 9 is_stmt 1 view .LVU252
 602:src/main.cpp  ****         x = x * 2.0f - 1.0f;           // back to -1..1
 856              		.loc 6 602 33 is_stmt 0 view .LVU253
 857 03ea F0EE463A 		vmov.f32	s7, s12
 601:src/main.cpp  ****         x = 1.0f - fabsf(2.0f*x - 1.0f); // triangle fold
 858              		.loc 6 601 23 view .LVU254
 859 03ee BBFE474A 		vrintm.f32	s8, s14
 860              	.LVL74:
 602:src/main.cpp  ****         x = x * 2.0f - 1.0f;           // back to -1..1
 861              		.loc 6 602 9 is_stmt 1 view .LVU255
 601:src/main.cpp  ****         x = 1.0f - fabsf(2.0f*x - 1.0f); // triangle fold
 862              		.loc 6 601 11 is_stmt 0 view .LVU256
 863 03f2 37EE447A 		vsub.f32	s14, s14, s8
 864              	.LVL75:
 601:src/main.cpp  ****         x = 1.0f - fabsf(2.0f*x - 1.0f); // triangle fold
 865              		.loc 6 601 11 view .LVU257
 866              	.LBE524:
 606:src/main.cpp  **** }
 867              		.loc 6 606 20 view .LVU258
 868 03f6 36EEE24A 		vsub.f32	s8, s13, s5
 869              	.LBB525:
 602:src/main.cpp  ****         x = x * 2.0f - 1.0f;           // back to -1..1
 870              		.loc 6 602 33 view .LVU259
 871 03fa E7EE053A 		vfma.f32	s7, s14, s10
 602:src/main.cpp  ****         x = x * 2.0f - 1.0f;           // back to -1..1
 872              		.loc 6 602 25 view .LVU260
 873 03fe B0EEE37A 		vabs.f32	s14, s7
 874              	.LVL76:
 602:src/main.cpp  ****         x = x * 2.0f - 1.0f;           // back to -1..1
 875              		.loc 6 602 11 view .LVU261
 876 0402 76EEC76A 		vsub.f32	s13, s13, s14
 877              	.LVL77:
 603:src/main.cpp  ****     }
 878              		.loc 6 603 9 is_stmt 1 view .LVU262
 603:src/main.cpp  ****     }
 879              		.loc 6 603 11 is_stmt 0 view .LVU263
 880 0406 B0EE467A 		vmov.f32	s14, s12
 881 040a A6EE857A 		vfma.f32	s14, s13, s10
 882              	.LVL78:
 599:src/main.cpp  ****         x = x * 0.5f + 0.5f;           // shift to 0..1
 883              		.loc 6 599 5 is_stmt 1 view .LVU264
 599:src/main.cpp  ****         x = x * 0.5f + 0.5f;           // shift to 0..1
 884              		.loc 6 599 28 view .LVU265
 885              	.LBE525:
 606:src/main.cpp  **** }
 886              		.loc 6 606 5 view .LVU266
 606:src/main.cpp  **** }
 887              		.loc 6 606 32 is_stmt 0 view .LVU267
 888 040e 62EE872A 		vmul.f32	s5, s5, s14
 889              	.LVL79:
ARM GAS  /tmp/claude-502/ccb6uqMv.s 			page 40


 606:src/main.cpp  **** }
 890              		.loc 6 606 33 view .LVU268
 891 0412 E4EE272A 		vfma.f32	s5, s8, s15
 892 0416 F0EE627A 		vmov.f32	s15, s5
 893              	.LVL80:
 894              	.L53:
 606:src/main.cpp  **** }
 895              		.loc 6 606 33 view .LVU269
 896              	.LBE528:
 897              	.LBE534:
 746:src/main.cpp  **** 
 747:src/main.cpp  ****         // Soft clip output
 748:src/main.cpp  ****         float sample = fast_tanh(crushed * 1.3f) * s_amp * s_master_vol;
 898              		.loc 6 748 9 is_stmt 1 view .LVU270
 899              		.loc 6 748 33 is_stmt 0 view .LVU271
 900 041a 5FEDBD6A 		vldr.32	s13, .L130+100
 901              	.LBB535:
 902              	.LBB536:
 457:src/main.cpp  ****     if(x<-3.0f)return -1.0f;
 903              		.loc 6 457 5 view .LVU272
 904 041e B0EE087A 		vmov.f32	s14, #3.0e+0
 905              	.LBE536:
 906              	.LBE535:
 907              		.loc 6 748 33 view .LVU273
 908 0422 67EEA67A 		vmul.f32	s15, s15, s13
 909              	.LVL81:
 910              	.LBB540:
 911              	.LBI535:
 455:src/main.cpp  **** {
 912              		.loc 6 455 21 is_stmt 1 view .LVU274
 913              	.LBB539:
 457:src/main.cpp  ****     if(x<-3.0f)return -1.0f;
 914              		.loc 6 457 5 view .LVU275
 915 0426 F4EEC77A 		vcmpe.f32	s15, s14
 916 042a F1EE10FA 		vmrs	APSR_nzcv, FPSCR
 917 042e 17DC     		bgt	.L54
 458:src/main.cpp  ****     float x2=x*x;
 918              		.loc 6 458 5 view .LVU276
 919 0430 B8EE087A 		vmov.f32	s14, #-3.0e+0
 920 0434 F4EEC77A 		vcmpe.f32	s15, s14
 921 0438 F1EE10FA 		vmrs	APSR_nzcv, FPSCR
 922 043c 00F1EF82 		bmi	.L128
 923              	.LVL82:
 924              	.LBB537:
 925              	.LBI537:
 455:src/main.cpp  **** {
 926              		.loc 6 455 21 view .LVU277
 927              	.LBB538:
 459:src/main.cpp  ****     return x*(27.0f+x2)/(27.0f+9.0f*x2);
 928              		.loc 6 459 5 view .LVU278
 459:src/main.cpp  ****     return x*(27.0f+x2)/(27.0f+9.0f*x2);
 929              		.loc 6 459 11 is_stmt 0 view .LVU279
 930 0440 27EEA76A 		vmul.f32	s12, s15, s15
 931              	.LVL83:
 460:src/main.cpp  **** }
 932              		.loc 6 460 5 is_stmt 1 view .LVU280
 460:src/main.cpp  **** }
ARM GAS  /tmp/claude-502/ccb6uqMv.s 			page 41


 933              		.loc 6 460 20 is_stmt 0 view .LVU281
 934 0444 B3EE0B7A 		vmov.f32	s14, #2.7e+1
 460:src/main.cpp  **** }
 935              		.loc 6 460 31 view .LVU282
 936 0448 B2EE025A 		vmov.f32	s10, #9.0e+0
 460:src/main.cpp  **** }
 937              		.loc 6 460 20 view .LVU283
 938 044c 76EE076A 		vadd.f32	s13, s12, s14
 460:src/main.cpp  **** }
 939              		.loc 6 460 31 view .LVU284
 940 0450 A6EE057A 		vfma.f32	s14, s12, s10
 941              	.LVL84:
 460:src/main.cpp  **** }
 942              		.loc 6 460 13 view .LVU285
 943 0454 66EEA77A 		vmul.f32	s15, s13, s15
 944              	.LVL85:
 460:src/main.cpp  **** }
 945              		.loc 6 460 39 view .LVU286
 946 0458 C7EE876A 		vdiv.f32	s13, s15, s14
 947              	.LBE538:
 948              	.LBE537:
 949              	.LBE539:
 950              	.LBE540:
 951              		.loc 6 748 50 view .LVU287
 952 045c 64EEA64A 		vmul.f32	s9, s9, s13
 953              	.L54:
 749:src/main.cpp  **** 
 750:src/main.cpp  ****         out[0][i] = sample;
 751:src/main.cpp  ****         out[1][i] = sample;
 752:src/main.cpp  **** 
 753:src/main.cpp  ****         // Advance phases
 754:src/main.cpp  ****         s_phase1   += freq_vib*VOICE.osc1_ratio/sr;  if(s_phase1  >=1.0f)s_phase1  -=1.0f;
 954              		.loc 6 754 48 view .LVU288
 955 0460 85EE887A 		vdiv.f32	s14, s11, s16
 750:src/main.cpp  ****         out[1][i] = sample;
 956              		.loc 6 750 19 view .LVU289
 957 0464 3168     		ldr	r1, [r6]
 755:src/main.cpp  ****         s_phase2   += freq2   /sr;  if(s_phase2  >=1.0f)s_phase2  -=1.0f;
 756:src/main.cpp  ****         s_phase_sub+= freq_sub/sr;  if(s_phase_sub>=1.0f)s_phase_sub-=1.0f;
 757:src/main.cpp  ****         s_phase_oct+= freq_oct/sr;  if(s_phase_oct>=1.0f)s_phase_oct-=1.0f;
 758:src/main.cpp  ****         s_phase_rm += freq_rm /sr;  if(s_phase_rm >=1.0f)s_phase_rm -=1.0f;
 759:src/main.cpp  **** 
 760:src/main.cpp  ****         // LED3 PWM tick. Smooth duty, recompute threshold, compare counter.
 761:src/main.cpp  ****         led3_duty_smooth += (duty_target - led3_duty_smooth) * DUTY_TC;
 958              		.loc 6 761 26 view .LVU290
 959 0466 1FEDCF6A 		vldr.32	s12, .L130+104
 750:src/main.cpp  ****         out[1][i] = sample;
 960              		.loc 6 750 19 view .LVU291
 961 046a 01EB8501 		add	r1, r1, r5, lsl #2
 754:src/main.cpp  ****         s_phase2   += freq2   /sr;  if(s_phase2  >=1.0f)s_phase2  -=1.0f;
 962              		.loc 6 754 54 view .LVU292
 963 046e F7EE007A 		vmov.f32	s15, #1.0e+0
 755:src/main.cpp  ****         s_phase2   += freq2   /sr;  if(s_phase2  >=1.0f)s_phase2  -=1.0f;
 964              		.loc 6 755 37 view .LVU293
 965 0472 F7EE006A 		vmov.f32	s13, #1.0e+0
 748:src/main.cpp  **** 
 966              		.loc 6 748 60 view .LVU294
ARM GAS  /tmp/claude-502/ccb6uqMv.s 			page 42


 967 0476 61EEA44A 		vmul.f32	s9, s3, s9
 968              	.LVL86:
 750:src/main.cpp  ****         out[1][i] = sample;
 969              		.loc 6 750 9 is_stmt 1 view .LVU295
 750:src/main.cpp  ****         out[1][i] = sample;
 970              		.loc 6 750 19 is_stmt 0 view .LVU296
 971 047a C1ED004A 		vstr.32	s9, [r1]
 751:src/main.cpp  **** 
 972              		.loc 6 751 9 is_stmt 1 view .LVU297
 751:src/main.cpp  **** 
 973              		.loc 6 751 19 is_stmt 0 view .LVU298
 974 047e 7168     		ldr	r1, [r6, #4]
 975 0480 01EB8501 		add	r1, r1, r5, lsl #2
 976 0484 C1ED004A 		vstr.32	s9, [r1]
 754:src/main.cpp  ****         s_phase2   += freq2   /sr;  if(s_phase2  >=1.0f)s_phase2  -=1.0f;
 977              		.loc 6 754 9 is_stmt 1 view .LVU299
 754:src/main.cpp  ****         s_phase2   += freq2   /sr;  if(s_phase2  >=1.0f)s_phase2  -=1.0f;
 978              		.loc 6 754 54 view .LVU300
 754:src/main.cpp  ****         s_phase2   += freq2   /sr;  if(s_phase2  >=1.0f)s_phase2  -=1.0f;
 979              		.loc 6 754 20 is_stmt 0 view .LVU301
 980 0488 32EE072A 		vadd.f32	s4, s4, s14
 754:src/main.cpp  ****         s_phase2   += freq2   /sr;  if(s_phase2  >=1.0f)s_phase2  -=1.0f;
 981              		.loc 6 754 84 view .LVU302
 982 048c E249     		ldr	r1, .L132
 758:src/main.cpp  **** 
 983              		.loc 6 758 20 view .LVU303
 984 048e 31EE071A 		vadd.f32	s2, s2, s14
 754:src/main.cpp  ****         s_phase2   += freq2   /sr;  if(s_phase2  >=1.0f)s_phase2  -=1.0f;
 985              		.loc 6 754 54 view .LVU304
 986 0492 B4EEE72A 		vcmpe.f32	s4, s15
 987 0496 F1EE10FA 		vmrs	APSR_nzcv, FPSCR
 754:src/main.cpp  ****         s_phase2   += freq2   /sr;  if(s_phase2  >=1.0f)s_phase2  -=1.0f;
 988              		.loc 6 754 74 is_stmt 1 view .LVU305
 754:src/main.cpp  ****         s_phase2   += freq2   /sr;  if(s_phase2  >=1.0f)s_phase2  -=1.0f;
 989              		.loc 6 754 84 is_stmt 0 view .LVU306
 990 049a A8BF     		it	ge
 991 049c 32EE672A 		vsubge.f32	s4, s4, s15
 755:src/main.cpp  ****         s_phase_sub+= freq_sub/sr;  if(s_phase_sub>=1.0f)s_phase_sub-=1.0f;
 992              		.loc 6 755 31 view .LVU307
 993 04a0 C0EE087A 		vdiv.f32	s15, s0, s16
 754:src/main.cpp  ****         s_phase2   += freq2   /sr;  if(s_phase2  >=1.0f)s_phase2  -=1.0f;
 994              		.loc 6 754 84 view .LVU308
 995 04a4 81ED002A 		vstr.32	s4, [r1]
 755:src/main.cpp  ****         s_phase_sub+= freq_sub/sr;  if(s_phase_sub>=1.0f)s_phase_sub-=1.0f;
 996              		.loc 6 755 9 is_stmt 1 view .LVU309
 755:src/main.cpp  ****         s_phase_sub+= freq_sub/sr;  if(s_phase_sub>=1.0f)s_phase_sub-=1.0f;
 997              		.loc 6 755 67 is_stmt 0 view .LVU310
 998 04a8 DC49     		ldr	r1, .L132+4
 755:src/main.cpp  ****         s_phase_sub+= freq_sub/sr;  if(s_phase_sub>=1.0f)s_phase_sub-=1.0f;
 999              		.loc 6 755 20 view .LVU311
 1000 04aa 77EEA99A 		vadd.f32	s19, s15, s19
 755:src/main.cpp  ****         s_phase_sub+= freq_sub/sr;  if(s_phase_sub>=1.0f)s_phase_sub-=1.0f;
 1001              		.loc 6 755 37 is_stmt 1 view .LVU312
 756:src/main.cpp  ****         s_phase_oct+= freq_oct/sr;  if(s_phase_oct>=1.0f)s_phase_oct-=1.0f;
 1002              		.loc 6 756 31 is_stmt 0 view .LVU313
 1003 04ae CEEE087A 		vdiv.f32	s15, s28, s16
 755:src/main.cpp  ****         s_phase_sub+= freq_sub/sr;  if(s_phase_sub>=1.0f)s_phase_sub-=1.0f;
ARM GAS  /tmp/claude-502/ccb6uqMv.s 			page 43


 1004              		.loc 6 755 37 view .LVU314
 1005 04b2 F4EEE69A 		vcmpe.f32	s19, s13
 1006 04b6 F1EE10FA 		vmrs	APSR_nzcv, FPSCR
 755:src/main.cpp  ****         s_phase_sub+= freq_sub/sr;  if(s_phase_sub>=1.0f)s_phase_sub-=1.0f;
 1007              		.loc 6 755 57 is_stmt 1 view .LVU315
 755:src/main.cpp  ****         s_phase_sub+= freq_sub/sr;  if(s_phase_sub>=1.0f)s_phase_sub-=1.0f;
 1008              		.loc 6 755 67 is_stmt 0 view .LVU316
 1009 04ba A8BF     		it	ge
 1010 04bc 79EEE69A 		vsubge.f32	s19, s19, s13
 756:src/main.cpp  ****         s_phase_oct+= freq_oct/sr;  if(s_phase_oct>=1.0f)s_phase_oct-=1.0f;
 1011              		.loc 6 756 37 view .LVU317
 1012 04c0 F7EE006A 		vmov.f32	s13, #1.0e+0
 755:src/main.cpp  ****         s_phase_sub+= freq_sub/sr;  if(s_phase_sub>=1.0f)s_phase_sub-=1.0f;
 1013              		.loc 6 755 67 view .LVU318
 1014 04c4 C1ED009A 		vstr.32	s19, [r1]
 756:src/main.cpp  ****         s_phase_oct+= freq_oct/sr;  if(s_phase_oct>=1.0f)s_phase_oct-=1.0f;
 1015              		.loc 6 756 9 is_stmt 1 view .LVU319
 756:src/main.cpp  ****         s_phase_oct+= freq_oct/sr;  if(s_phase_oct>=1.0f)s_phase_oct-=1.0f;
 1016              		.loc 6 756 69 is_stmt 0 view .LVU320
 1017 04c8 D549     		ldr	r1, .L132+8
 756:src/main.cpp  ****         s_phase_oct+= freq_oct/sr;  if(s_phase_oct>=1.0f)s_phase_oct-=1.0f;
 1018              		.loc 6 756 20 view .LVU321
 1019 04ca 77EEA00A 		vadd.f32	s1, s15, s1
 1020              	.LVL87:
 756:src/main.cpp  ****         s_phase_oct+= freq_oct/sr;  if(s_phase_oct>=1.0f)s_phase_oct-=1.0f;
 1021              		.loc 6 756 37 is_stmt 1 view .LVU322
 757:src/main.cpp  ****         s_phase_rm += freq_rm /sr;  if(s_phase_rm >=1.0f)s_phase_rm -=1.0f;
 1022              		.loc 6 757 31 is_stmt 0 view .LVU323
 1023 04ce CDEE887A 		vdiv.f32	s15, s27, s16
 756:src/main.cpp  ****         s_phase_oct+= freq_oct/sr;  if(s_phase_oct>=1.0f)s_phase_oct-=1.0f;
 1024              		.loc 6 756 37 view .LVU324
 1025 04d2 F4EEE60A 		vcmpe.f32	s1, s13
 1026 04d6 F1EE10FA 		vmrs	APSR_nzcv, FPSCR
 756:src/main.cpp  ****         s_phase_oct+= freq_oct/sr;  if(s_phase_oct>=1.0f)s_phase_oct-=1.0f;
 1027              		.loc 6 756 58 is_stmt 1 view .LVU325
 756:src/main.cpp  ****         s_phase_oct+= freq_oct/sr;  if(s_phase_oct>=1.0f)s_phase_oct-=1.0f;
 1028              		.loc 6 756 69 is_stmt 0 view .LVU326
 1029 04da A8BF     		it	ge
 1030 04dc 70EEE60A 		vsubge.f32	s1, s1, s13
 757:src/main.cpp  ****         s_phase_rm += freq_rm /sr;  if(s_phase_rm >=1.0f)s_phase_rm -=1.0f;
 1031              		.loc 6 757 37 view .LVU327
 1032 04e0 F7EE006A 		vmov.f32	s13, #1.0e+0
 756:src/main.cpp  ****         s_phase_oct+= freq_oct/sr;  if(s_phase_oct>=1.0f)s_phase_oct-=1.0f;
 1033              		.loc 6 756 69 view .LVU328
 1034 04e4 C1ED000A 		vstr.32	s1, [r1]
 1035              	.LVL88:
 757:src/main.cpp  ****         s_phase_rm += freq_rm /sr;  if(s_phase_rm >=1.0f)s_phase_rm -=1.0f;
 1036              		.loc 6 757 9 is_stmt 1 view .LVU329
 757:src/main.cpp  ****         s_phase_rm += freq_rm /sr;  if(s_phase_rm >=1.0f)s_phase_rm -=1.0f;
 1037              		.loc 6 757 69 is_stmt 0 view .LVU330
 1038 04e8 CE49     		ldr	r1, .L132+12
 757:src/main.cpp  ****         s_phase_rm += freq_rm /sr;  if(s_phase_rm >=1.0f)s_phase_rm -=1.0f;
 1039              		.loc 6 757 20 view .LVU331
 1040 04ea 37EE899A 		vadd.f32	s18, s15, s18
 757:src/main.cpp  ****         s_phase_rm += freq_rm /sr;  if(s_phase_rm >=1.0f)s_phase_rm -=1.0f;
 1041              		.loc 6 757 37 is_stmt 1 view .LVU332
 758:src/main.cpp  **** 
ARM GAS  /tmp/claude-502/ccb6uqMv.s 			page 44


 1042              		.loc 6 758 37 is_stmt 0 view .LVU333
 1043 04ee F7EE007A 		vmov.f32	s15, #1.0e+0
 757:src/main.cpp  ****         s_phase_rm += freq_rm /sr;  if(s_phase_rm >=1.0f)s_phase_rm -=1.0f;
 1044              		.loc 6 757 37 view .LVU334
 1045 04f2 B4EEE69A 		vcmpe.f32	s18, s13
 1046 04f6 F1EE10FA 		vmrs	APSR_nzcv, FPSCR
 757:src/main.cpp  ****         s_phase_rm += freq_rm /sr;  if(s_phase_rm >=1.0f)s_phase_rm -=1.0f;
 1047              		.loc 6 757 58 is_stmt 1 view .LVU335
 758:src/main.cpp  **** 
 1048              		.loc 6 758 37 is_stmt 0 view .LVU336
 1049 04fa B4EEE71A 		vcmpe.f32	s2, s15
 757:src/main.cpp  ****         s_phase_rm += freq_rm /sr;  if(s_phase_rm >=1.0f)s_phase_rm -=1.0f;
 1050              		.loc 6 757 69 view .LVU337
 1051 04fe A8BF     		it	ge
 1052 0500 39EE669A 		vsubge.f32	s18, s18, s13
 762:src/main.cpp  ****         uint32_t threshold = (uint32_t)(led3_duty_smooth * (float)PWM_LEVELS + 0.5f);
 1053              		.loc 6 762 78 view .LVU338
 1054 0504 DFEDC86A 		vldr.32	s13, .L132+16
 758:src/main.cpp  **** 
 1055              		.loc 6 758 37 view .LVU339
 1056 0508 F1EE10FA 		vmrs	APSR_nzcv, FPSCR
 757:src/main.cpp  ****         s_phase_rm += freq_rm /sr;  if(s_phase_rm >=1.0f)s_phase_rm -=1.0f;
 1057              		.loc 6 757 69 view .LVU340
 1058 050c 81ED009A 		vstr.32	s18, [r1]
 758:src/main.cpp  **** 
 1059              		.loc 6 758 9 is_stmt 1 view .LVU341
 758:src/main.cpp  **** 
 1060              		.loc 6 758 37 view .LVU342
 758:src/main.cpp  **** 
 1061              		.loc 6 758 58 view .LVU343
 758:src/main.cpp  **** 
 1062              		.loc 6 758 69 is_stmt 0 view .LVU344
 1063 0510 A8BF     		it	ge
 1064 0512 31EE671A 		vsubge.f32	s2, s2, s15
 1065 0516 C549     		ldr	r1, .L132+20
 1066              		.loc 6 762 78 view .LVU345
 1067 0518 F6EE007A 		vmov.f32	s15, #5.0e-1
 758:src/main.cpp  **** 
 1068              		.loc 6 758 69 view .LVU346
 1069 051c 81ED001A 		vstr.32	s2, [r1]
 761:src/main.cpp  ****         uint32_t threshold = (uint32_t)(led3_duty_smooth * (float)PWM_LEVELS + 0.5f);
 1070              		.loc 6 761 9 is_stmt 1 view .LVU347
 761:src/main.cpp  ****         uint32_t threshold = (uint32_t)(led3_duty_smooth * (float)PWM_LEVELS + 0.5f);
 1071              		.loc 6 761 42 is_stmt 0 view .LVU348
 1072 0520 C349     		ldr	r1, .L132+24
 1073 0522 91ED007A 		vldr.32	s14, [r1]
 1074 0526 7EEEC75A 		vsub.f32	s11, s29, s14
 1075              	.LVL89:
 761:src/main.cpp  ****         uint32_t threshold = (uint32_t)(led3_duty_smooth * (float)PWM_LEVELS + 0.5f);
 1076              		.loc 6 761 26 view .LVU349
 1077 052a A5EE867A 		vfma.f32	s14, s11, s12
 1078              		.loc 6 762 78 view .LVU350
 1079 052e E7EE267A 		vfma.f32	s15, s14, s13
 761:src/main.cpp  ****         uint32_t threshold = (uint32_t)(led3_duty_smooth * (float)PWM_LEVELS + 0.5f);
 1080              		.loc 6 761 26 view .LVU351
 1081 0532 81ED007A 		vstr.32	s14, [r1]
 1082              		.loc 6 762 9 is_stmt 1 view .LVU352
ARM GAS  /tmp/claude-502/ccb6uqMv.s 			page 45


 763:src/main.cpp  ****         if(threshold > PWM_LEVELS) threshold = PWM_LEVELS;
 764:src/main.cpp  ****         if(++pwm_counter >= PWM_LEVELS) pwm_counter = 0;
 1083              		.loc 6 764 12 is_stmt 0 view .LVU353
 1084 0536 BF49     		ldr	r1, .L132+28
 1085 0538 0F46     		mov	r7, r1
 1086 053a 0968     		ldr	r1, [r1]
 1087 053c 481C     		adds	r0, r1, #1
 762:src/main.cpp  ****         if(threshold > PWM_LEVELS) threshold = PWM_LEVELS;
 1088              		.loc 6 762 18 view .LVU354
 1089 053e FCEEE77A 		vcvt.u32.f32	s15, s15
 1090 0542 17EE901A 		vmov	r1, s15	@ int
 1091              	.LVL90:
 763:src/main.cpp  ****         if(threshold > PWM_LEVELS) threshold = PWM_LEVELS;
 1092              		.loc 6 763 9 is_stmt 1 view .LVU355
 1093 0546 F029     		cmp	r1, #240
 1094 0548 28BF     		it	cs
 1095 054a F021     		movcs	r1, #240
 1096              	.LVL91:
 1097              		.loc 6 764 9 view .LVU356
 1098 054c EF28     		cmp	r0, #239
 1099              		.loc 6 764 41 view .LVU357
 765:src/main.cpp  ****         bool desired = (pwm_counter < threshold);
 1100              		.loc 6 765 9 view .LVU358
 764:src/main.cpp  ****         bool desired = (pwm_counter < threshold);
 1101              		.loc 6 764 53 is_stmt 0 view .LVU359
 1102 054e 84BF     		itt	hi
 1103 0550 0020     		movhi	r0, #0
 1104 0552 B84F     		ldrhi	r7, .L132+28
 1105              		.loc 6 765 14 view .LVU360
 1106 0554 8142     		cmp	r1, r0
 764:src/main.cpp  ****         bool desired = (pwm_counter < threshold);
 1107              		.loc 6 764 53 view .LVU361
 1108 0556 3860     		str	r0, [r7]
 766:src/main.cpp  ****         if(desired != led3_state){ led3.Write(desired); led3_state = desired; }
 1109              		.loc 6 766 9 view .LVU362
 1110 0558 B74F     		ldr	r7, .L132+32
 765:src/main.cpp  ****         bool desired = (pwm_counter < threshold);
 1111              		.loc 6 765 14 view .LVU363
 1112 055a 94BF     		ite	ls
 1113 055c 0021     		movls	r1, #0
 1114              	.LVL92:
 765:src/main.cpp  ****         bool desired = (pwm_counter < threshold);
 1115              		.loc 6 765 14 view .LVU364
 1116 055e 0121     		movhi	r1, #1
 1117              	.LVL93:
 1118              		.loc 6 766 9 is_stmt 1 view .LVU365
 1119 0560 3878     		ldrb	r0, [r7]	@ zero_extendqisi2
 1120 0562 8842     		cmp	r0, r1
 1121 0564 07D0     		beq	.L69
 1122              		.loc 6 766 36 discriminator 1 view .LVU366
 1123              		.loc 6 766 46 is_stmt 0 discriminator 1 view .LVU367
 1124 0566 B548     		ldr	r0, .L132+36
 1125 0568 0591     		str	r1, [sp, #20]
 1126 056a FFF7FEFF 		bl	_ZN5daisy4GPIO5WriteEb
 1127              	.LVL94:
 1128              		.loc 6 766 57 is_stmt 1 discriminator 1 view .LVU368
 1129              		.loc 6 766 68 is_stmt 0 discriminator 1 view .LVU369
ARM GAS  /tmp/claude-502/ccb6uqMv.s 			page 46


 1130 056e 0599     		ldr	r1, [sp, #20]
 1131 0570 B34B     		ldr	r3, .L132+40
 1132 0572 B44A     		ldr	r2, .L132+44
 1133 0574 3970     		strb	r1, [r7]
 1134              	.LVL95:
 1135              	.L69:
 1136              		.loc 6 766 68 discriminator 1 view .LVU370
 1137              	.LBE426:
 646:src/main.cpp  ****     {
 1138              		.loc 6 646 5 is_stmt 1 discriminator 2 view .LVU371
 1139 0576 0135     		adds	r5, r5, #1
 1140              	.LVL96:
 646:src/main.cpp  ****     {
 1141              		.loc 6 646 21 discriminator 2 view .LVU372
 1142 0578 0099     		ldr	r1, [sp]
 1143 057a A942     		cmp	r1, r5
 1144 057c 00F06F82 		beq	.L3
 1145              	.LVL97:
 1146              	.L71:
 1147              	.LBB673:
 649:src/main.cpp  ****         // Cutoff: fast when opening (smoothed), slow when closing (with release)
 1148              		.loc 6 649 9 view .LVU373
 649:src/main.cpp  ****         // Cutoff: fast when opening (smoothed), slow when closing (with release)
 1149              		.loc 6 649 30 is_stmt 0 view .LVU374
 1150 0580 0499     		ldr	r1, [sp, #16]
 649:src/main.cpp  ****         // Cutoff: fast when opening (smoothed), slow when closing (with release)
 1151              		.loc 6 649 54 view .LVU375
 1152 0582 B7EE005A 		vmov.f32	s10, #1.0e+0
 649:src/main.cpp  ****         // Cutoff: fast when opening (smoothed), slow when closing (with release)
 1153              		.loc 6 649 41 view .LVU376
 1154 0586 D2ED006A 		vldr.32	s13, [r2]
 649:src/main.cpp  ****         // Cutoff: fast when opening (smoothed), slow when closing (with release)
 1155              		.loc 6 649 30 view .LVU377
 1156 058a D1ED007A 		vldr.32	s15, [r1]
 1157              	.LBB541:
 651:src/main.cpp  ****           s_cutoff = s_cutoff * sc + tcut * (1.0f - sc); }
 1158              		.loc 6 651 28 view .LVU378
 1159 058e AE49     		ldr	r1, .L132+48
 1160              	.LBE541:
 649:src/main.cpp  ****         // Cutoff: fast when opening (smoothed), slow when closing (with release)
 1161              		.loc 6 649 54 view .LVU379
 1162 0590 75EE675A 		vsub.f32	s11, s10, s15
 1163              	.LBB542:
 651:src/main.cpp  ****           s_cutoff = s_cutoff * sc + tcut * (1.0f - sc); }
 1164              		.loc 6 651 28 view .LVU380
 1165 0594 91ED007A 		vldr.32	s14, [r1]
 1166              	.LBE542:
 649:src/main.cpp  ****         // Cutoff: fast when opening (smoothed), slow when closing (with release)
 1167              		.loc 6 649 48 view .LVU381
 1168 0598 65EEA85A 		vmul.f32	s11, s11, s17
 1169              	.LBB543:
 651:src/main.cpp  ****           s_cutoff = s_cutoff * sc + tcut * (1.0f - sc); }
 1170              		.loc 6 651 40 view .LVU382
 1171 059c B4EEEB7A 		vcmpe.f32	s14, s23
 1172              	.LBE543:
 649:src/main.cpp  ****         // Cutoff: fast when opening (smoothed), slow when closing (with release)
 1173              		.loc 6 649 41 view .LVU383
ARM GAS  /tmp/claude-502/ccb6uqMv.s 			page 47


 1174 05a0 B0EE656A 		vmov.f32	s12, s11
 1175              	.LBB544:
 651:src/main.cpp  ****           s_cutoff = s_cutoff * sc + tcut * (1.0f - sc); }
 1176              		.loc 6 651 40 view .LVU384
 1177 05a4 F1EE10FA 		vmrs	APSR_nzcv, FPSCR
 1178              	.LBE544:
 649:src/main.cpp  ****         // Cutoff: fast when opening (smoothed), slow when closing (with release)
 1179              		.loc 6 649 41 view .LVU385
 1180 05a8 A6EEA76A 		vfma.f32	s12, s13, s15
 649:src/main.cpp  ****         // Cutoff: fast when opening (smoothed), slow when closing (with release)
 1181              		.loc 6 649 19 view .LVU386
 1182 05ac 82ED006A 		vstr.32	s12, [r2]
 651:src/main.cpp  ****           s_cutoff = s_cutoff * sc + tcut * (1.0f - sc); }
 1183              		.loc 6 651 9 is_stmt 1 view .LVU387
 1184              	.LBB545:
 651:src/main.cpp  ****           s_cutoff = s_cutoff * sc + tcut * (1.0f - sc); }
 1185              		.loc 6 651 11 view .LVU388
 651:src/main.cpp  ****           s_cutoff = s_cutoff * sc + tcut * (1.0f - sc); }
 1186              		.loc 6 651 40 is_stmt 0 view .LVU389
 1187 05b0 00F10F82 		bmi	.L73
 651:src/main.cpp  ****           s_cutoff = s_cutoff * sc + tcut * (1.0f - sc); }
 1188              		.loc 6 651 40 discriminator 2 view .LVU390
 1189 05b4 A549     		ldr	r1, .L132+52
 1190 05b6 D1ED005A 		vldr.32	s11, [r1]
 652:src/main.cpp  ****         s_drive   = s_drive   * SLEW_MISC + tdrv * (1.0f - SLEW_MISC);
 1191              		.loc 6 652 51 discriminator 2 view .LVU391
 1192 05ba 35EE655A 		vsub.f32	s10, s10, s11
 1193              	.L8:
 1194              	.LVL98:
 652:src/main.cpp  ****         s_drive   = s_drive   * SLEW_MISC + tdrv * (1.0f - SLEW_MISC);
 1195              		.loc 6 652 11 is_stmt 1 discriminator 4 view .LVU392
 1196              	.LBE545:
 1197              	.LBB546:
 656:src/main.cpp  ****           s_detune   = s_detune   * sa + tdet * (1.0f - sa); }
 1198              		.loc 6 656 31 is_stmt 0 discriminator 4 view .LVU393
 1199 05be DAED001A 		vldr.32	s3, [r10]
 1200              	.LBE546:
 1201              	.LBB547:
 652:src/main.cpp  ****         s_drive   = s_drive   * SLEW_MISC + tdrv * (1.0f - SLEW_MISC);
 1202              		.loc 6 652 43 discriminator 4 view .LVU394
 1203 05c2 2BEE855A 		vmul.f32	s10, s23, s10
 1204              	.LBE547:
 1205              	.LBB548:
 658:src/main.cpp  ****           s_bitcrush = s_bitcrush * sa + tbc  * (1.0f - sa); }
 1206              		.loc 6 658 31 discriminator 4 view .LVU395
 1207 05c6 99ED003A 		vldr.32	s6, [r9]
 1208              	.LBE548:
 653:src/main.cpp  ****         s_vibdepth= s_vibdepth* SLEW_MISC + tvib * (1.0f - SLEW_MISC);
 1209              		.loc 6 653 43 discriminator 4 view .LVU396
 1210 05ca B0EE4FBA 		vmov.f32	s22, s30
 1211              	.LBB549:
 656:src/main.cpp  ****           s_detune   = s_detune   * sa + tdet * (1.0f - sa); }
 1212              		.loc 6 656 44 discriminator 4 view .LVU397
 1213 05ce F4EECC1A 		vcmpe.f32	s3, s24
 1214 05d2 DFED9F3A 		vldr.32	s7, .L132+56
 1215              	.LBE549:
 1216              	.LBB550:
ARM GAS  /tmp/claude-502/ccb6uqMv.s 			page 48


 660:src/main.cpp  ****           s_ringmod  = s_ringmod  * sa + trm  * (1.0f - sa); }
 1217              		.loc 6 660 31 discriminator 4 view .LVU398
 1218 05d6 D8ED004A 		vldr.32	s9, [r8]
 1219              	.LBE550:
 1220              	.LBB551:
 652:src/main.cpp  ****         s_drive   = s_drive   * SLEW_MISC + tdrv * (1.0f - SLEW_MISC);
 1221              		.loc 6 652 36 discriminator 4 view .LVU399
 1222 05da A7EE255A 		vfma.f32	s10, s14, s11
 1223              	.LBE551:
 1224              	.LBB552:
 656:src/main.cpp  ****           s_detune   = s_detune   * sa + tdet * (1.0f - sa); }
 1225              		.loc 6 656 44 discriminator 4 view .LVU400
 1226 05de DFED9D6A 		vldr.32	s13, .L132+60
 1227 05e2 F1EE10FA 		vmrs	APSR_nzcv, FPSCR
 1228 05e6 9FED9C2A 		vldr.32	s4, .L132+64
 1229              	.LBE552:
 1230              	.LBB553:
 658:src/main.cpp  ****           s_bitcrush = s_bitcrush * sa + tbc  * (1.0f - sa); }
 1231              		.loc 6 658 44 discriminator 4 view .LVU401
 1232 05ea B4EEEC3A 		vcmpe.f32	s6, s25
 1233              	.LBE553:
 1234              	.LBB554:
 656:src/main.cpp  ****           s_detune   = s_detune   * sa + tdet * (1.0f - sa); }
 1235              		.loc 6 656 44 discriminator 4 view .LVU402
 1236 05ee DFED9B7A 		vldr.32	s15, .L132+68
 1237              	.LBE554:
 653:src/main.cpp  ****         s_vibdepth= s_vibdepth* SLEW_MISC + tvib * (1.0f - SLEW_MISC);
 1238              		.loc 6 653 43 discriminator 4 view .LVU403
 1239 05f2 DFED9B2A 		vldr.32	s5, .L132+72
 1240              	.LBB555:
 656:src/main.cpp  ****           s_detune   = s_detune   * sa + tdet * (1.0f - sa); }
 1241              		.loc 6 656 44 discriminator 4 view .LVU404
 1242 05f6 54BF     		ite	pl
 1243 05f8 F0EE630A 		vmovpl.f32	s1, s7
 1244 05fc F0EE670A 		vmovmi.f32	s1, s15
 1245              	.LBE555:
 654:src/main.cpp  ****         // Finger 2 params: fast attack, slow release
 1246              		.loc 6 654 43 discriminator 4 view .LVU405
 1247 0600 9BED001A 		vldr.32	s2, [fp]
 1248              	.LBB556:
 656:src/main.cpp  ****           s_detune   = s_detune   * sa + tdet * (1.0f - sa); }
 1249              		.loc 6 656 44 discriminator 4 view .LVU406
 1250 0604 54BF     		ite	pl
 1251 0606 B0EE427A 		vmovpl.f32	s14, s4
 1252 060a B0EE667A 		vmovmi.f32	s14, s13
 1253              	.LBE556:
 653:src/main.cpp  ****         s_vibdepth= s_vibdepth* SLEW_MISC + tvib * (1.0f - SLEW_MISC);
 1254              		.loc 6 653 43 discriminator 4 view .LVU407
 1255 060e 93ED000A 		vldr.32	s0, [r3]
 1256              	.LBB557:
 658:src/main.cpp  ****           s_bitcrush = s_bitcrush * sa + tbc  * (1.0f - sa); }
 1257              		.loc 6 658 44 discriminator 4 view .LVU408
 1258 0612 F1EE10FA 		vmrs	APSR_nzcv, FPSCR
 1259              	.LBE557:
 654:src/main.cpp  ****         // Finger 2 params: fast attack, slow release
 1260              		.loc 6 654 43 discriminator 4 view .LVU409
 1261 0616 DDED015A 		vldr.32	s11, [sp, #4]
ARM GAS  /tmp/claude-502/ccb6uqMv.s 			page 49


 1262              	.LVL99:
 1263              	.LBB558:
 660:src/main.cpp  ****           s_ringmod  = s_ringmod  * sa + trm  * (1.0f - sa); }
 1264              		.loc 6 660 44 discriminator 4 view .LVU410
 1265 061a F4EECD4A 		vcmpe.f32	s9, s26
 1266              	.LBE558:
 663:src/main.cpp  ****         s_amp = s_amp * slew_amp + tamp * (1.0f - slew_amp);
 1267              		.loc 6 663 32 discriminator 4 view .LVU411
 1268 061e 9149     		ldr	r1, .L132+76
 654:src/main.cpp  ****         // Finger 2 params: fast attack, slow release
 1269              		.loc 6 654 43 discriminator 4 view .LVU412
 1270 0620 E1EE225A 		vfma.f32	s11, s2, s5
 653:src/main.cpp  ****         s_vibdepth= s_vibdepth* SLEW_MISC + tvib * (1.0f - SLEW_MISC);
 1271              		.loc 6 653 43 discriminator 4 view .LVU413
 1272 0624 A0EE22BA 		vfma.f32	s22, s0, s5
 663:src/main.cpp  ****         s_amp = s_amp * slew_amp + tamp * (1.0f - slew_amp);
 1273              		.loc 6 663 32 discriminator 4 view .LVU414
 1274 0628 91ED004A 		vldr.32	s8, [r1]
 1275              	.LBB559:
 658:src/main.cpp  ****           s_bitcrush = s_bitcrush * sa + tbc  * (1.0f - sa); }
 1276              		.loc 6 658 44 discriminator 4 view .LVU415
 1277 062c 54BF     		ite	pl
 1278 062e B0EE631A 		vmovpl.f32	s2, s7
 1279 0632 B0EE671A 		vmovmi.f32	s2, s15
 1280              	.LBE559:
 1281              	.LBB560:
 652:src/main.cpp  ****         s_drive   = s_drive   * SLEW_MISC + tdrv * (1.0f - SLEW_MISC);
 1282              		.loc 6 652 20 discriminator 4 view .LVU416
 1283 0636 8449     		ldr	r1, .L132+48
 1284              	.LBE560:
 1285              	.LBB561:
 658:src/main.cpp  ****           s_bitcrush = s_bitcrush * sa + tbc  * (1.0f - sa); }
 1286              		.loc 6 658 44 discriminator 4 view .LVU417
 1287 0638 54BF     		ite	pl
 1288 063a F0EE422A 		vmovpl.f32	s5, s4
 1289 063e F0EE662A 		vmovmi.f32	s5, s13
 1290              	.LBE561:
 1291              	.LBB562:
 660:src/main.cpp  ****           s_ringmod  = s_ringmod  * sa + trm  * (1.0f - sa); }
 1292              		.loc 6 660 44 discriminator 4 view .LVU418
 1293 0642 F1EE10FA 		vmrs	APSR_nzcv, FPSCR
 1294              	.LBE562:
 1295              	.LBB563:
 652:src/main.cpp  ****         s_drive   = s_drive   * SLEW_MISC + tdrv * (1.0f - SLEW_MISC);
 1296              		.loc 6 652 20 discriminator 4 view .LVU419
 1297 0646 81ED005A 		vstr.32	s10, [r1]
 1298              	.LBE563:
 653:src/main.cpp  ****         s_vibdepth= s_vibdepth* SLEW_MISC + tvib * (1.0f - SLEW_MISC);
 1299              		.loc 6 653 9 is_stmt 1 discriminator 4 view .LVU420
 1300              	.LBB564:
 657:src/main.cpp  ****         { float sa = tbc      > s_bitcrush ? SLEW_F2_A : SLEW_F2_R;
 1301              		.loc 6 657 47 is_stmt 0 discriminator 4 view .LVU421
 1302 064a 2CEE077A 		vmul.f32	s14, s24, s14
 1303              	.LBE564:
 1304              	.LBB565:
 659:src/main.cpp  ****         { float sa = trm      > s_ringmod  ? SLEW_F2_A : SLEW_F2_R;
 1305              		.loc 6 659 47 discriminator 4 view .LVU422
ARM GAS  /tmp/claude-502/ccb6uqMv.s 			page 50


 1306 064e 6CEEA22A 		vmul.f32	s5, s25, s5
 1307              	.LBE565:
 654:src/main.cpp  ****         // Finger 2 params: fast attack, slow release
 1308              		.loc 6 654 19 discriminator 4 view .LVU423
 1309 0652 CBED005A 		vstr.32	s11, [fp]
 1310              	.LBB566:
 660:src/main.cpp  ****           s_ringmod  = s_ringmod  * sa + trm  * (1.0f - sa); }
 1311              		.loc 6 660 44 discriminator 4 view .LVU424
 1312 0656 58BF     		it	pl
 1313 0658 F0EE426A 		vmovpl.f32	s13, s4
 1314              	.LBE566:
 653:src/main.cpp  ****         s_vibdepth= s_vibdepth* SLEW_MISC + tvib * (1.0f - SLEW_MISC);
 1315              		.loc 6 653 19 discriminator 4 view .LVU425
 1316 065c 83ED00BA 		vstr.32	s22, [r3]
 654:src/main.cpp  ****         // Finger 2 params: fast attack, slow release
 1317              		.loc 6 654 9 is_stmt 1 discriminator 4 view .LVU426
 656:src/main.cpp  ****           s_detune   = s_detune   * sa + tdet * (1.0f - sa); }
 1318              		.loc 6 656 9 discriminator 4 view .LVU427
 1319              	.LBB567:
 656:src/main.cpp  ****           s_detune   = s_detune   * sa + tdet * (1.0f - sa); }
 1320              		.loc 6 656 11 discriminator 4 view .LVU428
 1321              	.LVL100:
 657:src/main.cpp  ****         { float sa = tbc      > s_bitcrush ? SLEW_F2_A : SLEW_F2_R;
 1322              		.loc 6 657 11 discriminator 4 view .LVU429
 1323              	.LBE567:
 1324              	.LBB568:
 660:src/main.cpp  ****           s_ringmod  = s_ringmod  * sa + trm  * (1.0f - sa); }
 1325              		.loc 6 660 44 is_stmt 0 discriminator 4 view .LVU430
 1326 0660 58BF     		it	pl
 1327 0662 F0EE637A 		vmovpl.f32	s15, s7
 1328              	.LBE568:
 666:src/main.cpp  **** 
 1329              		.loc 6 666 49 discriminator 4 view .LVU431
 1330 0666 DFED7E3A 		vldr.32	s7, .L132+72
 663:src/main.cpp  ****         s_amp = s_amp * slew_amp + tamp * (1.0f - slew_amp);
 1331              		.loc 6 663 41 discriminator 4 view .LVU432
 1332 066a B4EEEA4A 		vcmpe.f32	s8, s21
 1333              	.LBB569:
 661:src/main.cpp  ****         // Asymmetric envelope: per-voice attack (rising) and release (falling)
 1334              		.loc 6 661 47 discriminator 4 view .LVU433
 1335 066e 6DEE266A 		vmul.f32	s13, s26, s13
 1336              	.LBE569:
 1337              	.LBB570:
 657:src/main.cpp  ****         { float sa = tbc      > s_bitcrush ? SLEW_F2_A : SLEW_F2_R;
 1338              		.loc 6 657 40 discriminator 4 view .LVU434
 1339 0672 A1EEA07A 		vfma.f32	s14, s3, s1
 1340              	.LBE570:
 666:src/main.cpp  **** 
 1341              		.loc 6 666 49 discriminator 4 view .LVU435
 1342 0676 DDED021A 		vldr.32	s3, [sp, #8]
 1343              	.LBB571:
 659:src/main.cpp  ****         { float sa = trm      > s_ringmod  ? SLEW_F2_A : SLEW_F2_R;
 1344              		.loc 6 659 40 discriminator 4 view .LVU436
 1345 067a E3EE012A 		vfma.f32	s5, s6, s2
 1346              	.LBE571:
 1347              	.LBB572:
 661:src/main.cpp  ****         // Asymmetric envelope: per-voice attack (rising) and release (falling)
ARM GAS  /tmp/claude-502/ccb6uqMv.s 			page 51


 1348              		.loc 6 661 40 discriminator 4 view .LVU437
 1349 067e E4EEA76A 		vfma.f32	s13, s9, s15
 1350              	.LBE572:
 663:src/main.cpp  ****         s_amp = s_amp * slew_amp + tamp * (1.0f - slew_amp);
 1351              		.loc 6 663 41 discriminator 4 view .LVU438
 1352 0682 F1EE10FA 		vmrs	APSR_nzcv, FPSCR
 664:src/main.cpp  ****         // Master volume slew (smooths FSR jitter / 16 Hz update steps).
 1353              		.loc 6 664 49 discriminator 4 view .LVU439
 1354 0686 F7EE004A 		vmov.f32	s9, #1.0e+0
 663:src/main.cpp  ****         s_amp = s_amp * slew_amp + tamp * (1.0f - slew_amp);
 1355              		.loc 6 663 41 discriminator 4 view .LVU440
 1356 068a 4CBF     		ite	mi
 1357 068c 7649     		ldrmi	r1, .L132+80
 1358 068e 6F49     		ldrpl	r1, .L132+52
 1359              	.LBB573:
 657:src/main.cpp  ****         { float sa = tbc      > s_bitcrush ? SLEW_F2_A : SLEW_F2_R;
 1360              		.loc 6 657 22 discriminator 4 view .LVU441
 1361 0690 8AED007A 		vstr.32	s14, [r10]
 1362              	.LBE573:
 658:src/main.cpp  ****           s_bitcrush = s_bitcrush * sa + tbc  * (1.0f - sa); }
 1363              		.loc 6 658 9 is_stmt 1 discriminator 4 view .LVU442
 1364              	.LBB574:
 658:src/main.cpp  ****           s_bitcrush = s_bitcrush * sa + tbc  * (1.0f - sa); }
 1365              		.loc 6 658 11 discriminator 4 view .LVU443
 1366              	.LVL101:
 659:src/main.cpp  ****         { float sa = trm      > s_ringmod  ? SLEW_F2_A : SLEW_F2_R;
 1367              		.loc 6 659 11 discriminator 4 view .LVU444
 659:src/main.cpp  ****         { float sa = trm      > s_ringmod  ? SLEW_F2_A : SLEW_F2_R;
 1368              		.loc 6 659 22 is_stmt 0 discriminator 4 view .LVU445
 1369 0694 C9ED002A 		vstr.32	s5, [r9]
 1370              	.LBE574:
 660:src/main.cpp  ****           s_ringmod  = s_ringmod  * sa + trm  * (1.0f - sa); }
 1371              		.loc 6 660 9 is_stmt 1 discriminator 4 view .LVU446
 1372              	.LBB575:
 660:src/main.cpp  ****           s_ringmod  = s_ringmod  * sa + trm  * (1.0f - sa); }
 1373              		.loc 6 660 11 discriminator 4 view .LVU447
 1374              	.LVL102:
 661:src/main.cpp  ****         // Asymmetric envelope: per-voice attack (rising) and release (falling)
 1375              		.loc 6 661 11 discriminator 4 view .LVU448
 661:src/main.cpp  ****         // Asymmetric envelope: per-voice attack (rising) and release (falling)
 1376              		.loc 6 661 22 is_stmt 0 discriminator 4 view .LVU449
 1377 0698 C8ED006A 		vstr.32	s13, [r8]
 1378              	.LBE575:
 663:src/main.cpp  ****         s_amp = s_amp * slew_amp + tamp * (1.0f - slew_amp);
 1379              		.loc 6 663 9 is_stmt 1 discriminator 4 view .LVU450
 663:src/main.cpp  ****         s_amp = s_amp * slew_amp + tamp * (1.0f - slew_amp);
 1380              		.loc 6 663 41 is_stmt 0 discriminator 4 view .LVU451
 1381 069c D1ED007A 		vldr.32	s15, [r1]
 1382              	.LVL103:
 664:src/main.cpp  ****         // Master volume slew (smooths FSR jitter / 16 Hz update steps).
 1383              		.loc 6 664 9 is_stmt 1 discriminator 4 view .LVU452
 666:src/main.cpp  **** 
 1384              		.loc 6 666 49 is_stmt 0 discriminator 4 view .LVU453
 1385 06a0 7249     		ldr	r1, .L132+84
 664:src/main.cpp  ****         // Master volume slew (smooths FSR jitter / 16 Hz update steps).
 1386              		.loc 6 664 49 discriminator 4 view .LVU454
 1387 06a2 74EEE74A 		vsub.f32	s9, s9, s15
ARM GAS  /tmp/claude-502/ccb6uqMv.s 			page 52


 670:src/main.cpp  ****             s_flt[0] *= 0.999f;
 1388              		.loc 6 670 9 discriminator 4 view .LVU455
 1389 06a6 9FED727A 		vldr.32	s14, .L132+88
 666:src/main.cpp  **** 
 1390              		.loc 6 666 49 discriminator 4 view .LVU456
 1391 06aa 91ED003A 		vldr.32	s6, [r1]
 664:src/main.cpp  ****         // Master volume slew (smooths FSR jitter / 16 Hz update steps).
 1392              		.loc 6 664 41 discriminator 4 view .LVU457
 1393 06ae 64EEAA4A 		vmul.f32	s9, s9, s21
 666:src/main.cpp  **** 
 1394              		.loc 6 666 49 discriminator 4 view .LVU458
 1395 06b2 E3EE231A 		vfma.f32	s3, s6, s7
 664:src/main.cpp  ****         // Master volume slew (smooths FSR jitter / 16 Hz update steps).
 1396              		.loc 6 664 34 discriminator 4 view .LVU459
 1397 06b6 E4EE274A 		vfma.f32	s9, s8, s15
 666:src/main.cpp  **** 
 1398              		.loc 6 666 22 discriminator 4 view .LVU460
 1399 06ba C1ED001A 		vstr.32	s3, [r1]
 664:src/main.cpp  ****         // Master volume slew (smooths FSR jitter / 16 Hz update steps).
 1400              		.loc 6 664 15 discriminator 4 view .LVU461
 1401 06be 6949     		ldr	r1, .L132+76
 670:src/main.cpp  ****             s_flt[0] *= 0.999f;
 1402              		.loc 6 670 9 discriminator 4 view .LVU462
 1403 06c0 F4EEC74A 		vcmpe.f32	s9, s14
 664:src/main.cpp  ****         // Master volume slew (smooths FSR jitter / 16 Hz update steps).
 1404              		.loc 6 664 15 discriminator 4 view .LVU463
 1405 06c4 C1ED004A 		vstr.32	s9, [r1]
 666:src/main.cpp  **** 
 1406              		.loc 6 666 9 is_stmt 1 discriminator 4 view .LVU464
 670:src/main.cpp  ****             s_flt[0] *= 0.999f;
 1407              		.loc 6 670 9 discriminator 4 view .LVU465
 1408 06c8 F1EE10FA 		vmrs	APSR_nzcv, FPSCR
 1409 06cc 00F16E81 		bmi	.L15
 1410              	.LBB576:
 1411              	.LBB513:
 578:src/main.cpp  ****     float x  = in - fb;
 1412              		.loc 6 578 25 is_stmt 0 view .LVU466
 1413 06d0 D4ED037A 		vldr.32	s15, [r4, #12]
 1414              	.LVL104:
 580:src/main.cpp  ****     s_flt[1]+=f*(fast_tanh(s_flt[0])-fast_tanh(s_flt[1]));
 1415              		.loc 6 580 46 view .LVU467
 1416 06d4 94ED003A 		vldr.32	s6, [r4]
 581:src/main.cpp  ****     s_flt[2]+=f*(fast_tanh(s_flt[1])-fast_tanh(s_flt[2]));
 1417              		.loc 6 581 47 view .LVU468
 1418 06d8 D4ED013A 		vldr.32	s7, [r4, #4]
 582:src/main.cpp  ****     s_flt[3]+=f*(fast_tanh(s_flt[2])-fast_tanh(s_flt[3]));
 1419              		.loc 6 582 47 view .LVU469
 1420 06dc 94ED024A 		vldr.32	s8, [r4, #8]
 1421              	.L16:
 1422              	.LBE513:
 1423              	.LBE576:
 679:src/main.cpp  ****             // Pull cutoff toward silence-floor proportional to amp decay
 1424              		.loc 6 679 9 is_stmt 1 view .LVU470
 1425              	.LBB577:
 1426 06e0 9FED637A 		vldr.32	s14, .L132+88
 1427 06e4 F4EEC7AA 		vcmpe.f32	s21, s14
 1428 06e8 F1EE10FA 		vmrs	APSR_nzcv, FPSCR
ARM GAS  /tmp/claude-502/ccb6uqMv.s 			page 53


 1429 06ec 0CD5     		bpl	.L17
 679:src/main.cpp  ****             // Pull cutoff toward silence-floor proportional to amp decay
 1430              		.loc 6 679 26 is_stmt 0 discriminator 1 view .LVU471
 1431 06ee 9FED617A 		vldr.32	s14, .L132+92
 1432 06f2 F4EEC74A 		vcmpe.f32	s9, s14
 1433 06f6 F1EE10FA 		vmrs	APSR_nzcv, FPSCR
 1434 06fa 05DD     		ble	.L17
 1435              	.LBB578:
 681:src/main.cpp  ****             tcut = close_target;
 1436              		.loc 6 681 13 is_stmt 1 view .LVU472
 681:src/main.cpp  ****             tcut = close_target;
 1437              		.loc 6 681 19 is_stmt 0 view .LVU473
 1438 06fc B3EE0E7A 		vmov.f32	s14, #3.0e+1
 1439 0700 A4EEAB7A 		vfma.f32	s14, s9, s23
 1440 0704 F0EE47BA 		vmov.f32	s23, s14
 1441              	.LVL105:
 682:src/main.cpp  ****         }
 1442              		.loc 6 682 13 is_stmt 1 view .LVU474
 1443              	.L17:
 682:src/main.cpp  ****         }
 1444              		.loc 6 682 13 is_stmt 0 view .LVU475
 1445              	.LBE578:
 1446              	.LBE577:
 686:src/main.cpp  ****         if(s_lfo_phase>=1.0f)s_lfo_phase-=1.0f;
 1447              		.loc 6 686 9 is_stmt 1 view .LVU476
 686:src/main.cpp  ****         if(s_lfo_phase>=1.0f)s_lfo_phase-=1.0f;
 1448              		.loc 6 686 21 is_stmt 0 view .LVU477
 1449 0708 5B49     		ldr	r1, .L132+96
 687:src/main.cpp  ****         float lfo = tri(s_lfo_phase); // -1..1
 1450              		.loc 6 687 9 view .LVU478
 1451 070a B7EE002A 		vmov.f32	s4, #1.0e+0
 686:src/main.cpp  ****         if(s_lfo_phase>=1.0f)s_lfo_phase-=1.0f;
 1452              		.loc 6 686 21 view .LVU479
 1453 070e 9DED031A 		vldr.32	s2, [sp, #12]
 1454              	.LVL106:
 686:src/main.cpp  ****         if(s_lfo_phase>=1.0f)s_lfo_phase-=1.0f;
 1455              		.loc 6 686 21 view .LVU480
 1456 0712 91ED007A 		vldr.32	s14, [r1]
 1457 0716 31EE077A 		vadd.f32	s14, s2, s14
 687:src/main.cpp  ****         float lfo = tri(s_lfo_phase); // -1..1
 1458              		.loc 6 687 9 is_stmt 1 view .LVU481
 1459              	.LBB579:
 1460              	.LBB580:
 546:src/main.cpp  **** }
 1461              		.loc 6 546 19 is_stmt 0 view .LVU482
 1462 071a B1EE001A 		vmov.f32	s2, #4.0e+0
 1463              	.LBE580:
 1464              	.LBE579:
 687:src/main.cpp  ****         float lfo = tri(s_lfo_phase); // -1..1
 1465              		.loc 6 687 9 view .LVU483
 1466 071e B4EEC27A 		vcmpe.f32	s14, s4
 1467 0722 F1EE10FA 		vmrs	APSR_nzcv, FPSCR
 687:src/main.cpp  ****         float lfo = tri(s_lfo_phase); // -1..1
 1468              		.loc 6 687 30 is_stmt 1 view .LVU484
 687:src/main.cpp  ****         float lfo = tri(s_lfo_phase); // -1..1
 1469              		.loc 6 687 41 is_stmt 0 view .LVU485
 1470 0726 A4BF     		itt	ge
ARM GAS  /tmp/claude-502/ccb6uqMv.s 			page 54


 1471 0728 37EE427A 		vsubge.f32	s14, s14, s4
 1472 072c 5249     		ldrge	r1, .L132+96
 1473              	.LBB584:
 1474              	.LBB581:
 546:src/main.cpp  **** }
 1475              		.loc 6 546 19 view .LVU486
 1476 072e B6EE002A 		vmov.f32	s4, #5.0e-1
 1477              	.LBE581:
 1478              	.LBE584:
 687:src/main.cpp  ****         float lfo = tri(s_lfo_phase); // -1..1
 1479              		.loc 6 687 41 view .LVU487
 1480 0732 81ED007A 		vstr.32	s14, [r1]
 688:src/main.cpp  **** 
 1481              		.loc 6 688 9 is_stmt 1 view .LVU488
 1482              	.LVL107:
 1483              	.LBB585:
 1484              	.LBI579:
 545:src/main.cpp  ****     return ph<0.5f?(4.0f*ph-1.0f):(3.0f-4.0f*ph);
 1485              		.loc 6 545 21 view .LVU489
 1486              	.LBB582:
 546:src/main.cpp  **** }
 1487              		.loc 6 546 5 view .LVU490
 546:src/main.cpp  **** }
 1488              		.loc 6 546 19 is_stmt 0 view .LVU491
 1489 0736 B4EEC27A 		vcmpe.f32	s14, s4
 1490 073a F1EE10FA 		vmrs	APSR_nzcv, FPSCR
 1491 073e 40F13081 		bpl	.L112
 546:src/main.cpp  **** }
 1492              		.loc 6 546 19 view .LVU492
 1493 0742 BFEE002A 		vmov.f32	s4, #-1.0e+0
 1494 0746 A7EE012A 		vfma.f32	s4, s14, s2
 1495              	.L24:
 1496              	.LVL108:
 546:src/main.cpp  **** }
 1497              		.loc 6 546 19 view .LVU493
 1498              	.LBE582:
 1499              	.LBE585:
 692:src/main.cpp  ****         float freq_vib = s_freq * (1.0f + vib_amt);
 1500              		.loc 6 692 9 is_stmt 1 view .LVU494
 693:src/main.cpp  **** 
 1501              		.loc 6 693 9 view .LVU495
 692:src/main.cpp  ****         float freq_vib = s_freq * (1.0f + vib_amt);
 1502              		.loc 6 692 29 is_stmt 0 view .LVU496
 1503 074a 25EE827A 		vmul.f32	s14, s11, s4
 693:src/main.cpp  **** 
 1504              		.loc 6 693 41 view .LVU497
 1505 074e DFED4B0A 		vldr.32	s1, .L132+100
 1506              	.LVL109:
 693:src/main.cpp  **** 
 1507              		.loc 6 693 41 view .LVU498
 1508 0752 F7EE005A 		vmov.f32	s11, #1.0e+0
 1509              	.LVL110:
 715:src/main.cpp  ****         float osc2    = osc(s_phase2,   VOICE.osc2_wave) * VOICE.osc2_level;
 1510              		.loc 6 715 28 view .LVU499
 1511 0756 3049     		ldr	r1, .L132
 707:src/main.cpp  ****         float freq_oct = freq_vib * VOICE.oct_ratio;
 1512              		.loc 6 707 15 view .LVU500
ARM GAS  /tmp/claude-502/ccb6uqMv.s 			page 55


 1513 0758 B6EE001A 		vmov.f32	s2, #5.0e-1
 1514              	.LBB586:
 703:src/main.cpp  ****         }
 1515              		.loc 6 703 19 view .LVU501
 1516 075c 9FED480A 		vldr.32	s0, .L132+104
 1517              	.LBE586:
 715:src/main.cpp  ****         float osc2    = osc(s_phase2,   VOICE.osc2_wave) * VOICE.osc2_level;
 1518              		.loc 6 715 28 view .LVU502
 1519 0760 91ED002A 		vldr.32	s4, [r1]
 1520              	.LVL111:
 693:src/main.cpp  **** 
 1521              		.loc 6 693 41 view .LVU503
 1522 0764 E7EE205A 		vfma.f32	s11, s14, s1
 1523              	.LBB587:
 1524              	.LBB588:
 1525              	.LBB589:
 1526              	.LBB590:
 546:src/main.cpp  **** }
 1527              		.loc 6 546 19 view .LVU504
 1528 0768 B4EEC12A 		vcmpe.f32	s4, s2
 1529 076c F1EE10FA 		vmrs	APSR_nzcv, FPSCR
 1530              	.LBE590:
 1531              	.LBE589:
 1532              	.LBE588:
 1533              	.LBE587:
 693:src/main.cpp  **** 
 1534              		.loc 6 693 15 view .LVU505
 1535 0770 66EE255A 		vmul.f32	s11, s12, s11
 1536              	.LVL112:
 698:src/main.cpp  ****         if(VOICE.osc2_detune) {
 1537              		.loc 6 698 9 is_stmt 1 view .LVU506
 699:src/main.cpp  ****             float det_ratio = 1.0f + s_detune * 0.05776f; // linear approx, good for ┬▒1 oct
 1538              		.loc 6 699 9 view .LVU507
 1539              	.LBB601:
 703:src/main.cpp  ****         }
 1540              		.loc 6 703 13 view .LVU508
 1541              	.LBE601:
 1542              	.LBB602:
 1543              	.LBB597:
 1544              	.LBB594:
 1545              	.LBB591:
 546:src/main.cpp  **** }
 1546              		.loc 6 546 19 is_stmt 0 view .LVU509
 1547 0774 B1EE006A 		vmov.f32	s12, #4.0e+0
 1548              	.LBE591:
 1549              	.LBE594:
 1550              	.LBE597:
 1551              	.LBE602:
 1552              	.LBB603:
 703:src/main.cpp  ****         }
 1553              		.loc 6 703 19 view .LVU510
 1554 0778 25EE800A 		vmul.f32	s0, s11, s0
 1555              	.LVL113:
 703:src/main.cpp  ****         }
 1556              		.loc 6 703 19 view .LVU511
 1557              	.LBE603:
 707:src/main.cpp  ****         float freq_oct = freq_vib * VOICE.oct_ratio;
ARM GAS  /tmp/claude-502/ccb6uqMv.s 			page 56


 1558              		.loc 6 707 9 is_stmt 1 view .LVU512
 707:src/main.cpp  ****         float freq_oct = freq_vib * VOICE.oct_ratio;
 1559              		.loc 6 707 15 is_stmt 0 view .LVU513
 1560 077c 25EE81EA 		vmul.f32	s28, s11, s2
 1561              	.LVL114:
 708:src/main.cpp  **** 
 1562              		.loc 6 708 9 is_stmt 1 view .LVU514
 708:src/main.cpp  **** 
 1563              		.loc 6 708 15 is_stmt 0 view .LVU515
 1564 0780 75EEA5DA 		vadd.f32	s27, s11, s11
 1565              	.LVL115:
 712:src/main.cpp  **** 
 1566              		.loc 6 712 9 is_stmt 1 view .LVU516
 715:src/main.cpp  ****         float osc2    = osc(s_phase2,   VOICE.osc2_wave) * VOICE.osc2_level;
 1567              		.loc 6 715 9 view .LVU517
 1568              	.LBB604:
 1569              	.LBI587:
 562:src/main.cpp  ****     switch(w){
 1570              		.loc 6 562 21 view .LVU518
 1571              	.LBE604:
 1572              	.LBE673:
 1573              	.LBE425:
 563:src/main.cpp  ****         case WAVE_SINE:   return osc_sine(ph);
 1574              		.loc 6 563 5 view .LVU519
 1575              	.LBB681:
 1576              	.LBB674:
 1577              	.LBB605:
 1578              	.LBB598:
 1579              	.LBI588:
 562:src/main.cpp  ****     switch(w){
 1580              		.loc 6 562 21 view .LVU520
 562:src/main.cpp  ****     switch(w){
 1581              		.loc 6 562 21 is_stmt 0 view .LVU521
 1582              	.LBE598:
 1583              	.LBE605:
 1584              	.LBE674:
 1585              	.LBE681:
 567:src/main.cpp  ****         default:          return tri(ph);
 1586              		.loc 6 567 9 is_stmt 1 view .LVU522
 568:src/main.cpp  ****     }
 1587              		.loc 6 568 9 view .LVU523
 568:src/main.cpp  ****     }
 1588              		.loc 6 568 27 view .LVU524
 1589              	.LBB682:
 1590              	.LBB675:
 1591              	.LBB606:
 1592              	.LBB599:
 1593              	.LBB595:
 1594              	.LBI589:
 545:src/main.cpp  ****     return ph<0.5f?(4.0f*ph-1.0f):(3.0f-4.0f*ph);
 1595              		.loc 6 545 21 view .LVU525
 1596              	.LBB592:
 546:src/main.cpp  **** }
 1597              		.loc 6 546 5 view .LVU526
 546:src/main.cpp  **** }
 1598              		.loc 6 546 19 is_stmt 0 view .LVU527
 1599 0784 40F10881 		bpl	.L113
ARM GAS  /tmp/claude-502/ccb6uqMv.s 			page 57


 1600 0788 BFEE007A 		vmov.f32	s14, #-1.0e+0
 1601 078c A2EE067A 		vfma.f32	s14, s4, s12
 1602              	.L27:
 1603              	.LVL116:
 546:src/main.cpp  **** }
 1604              		.loc 6 546 19 view .LVU528
 1605              	.LBE592:
 1606              	.LBE595:
 1607              	.LBE599:
 1608              	.LBE606:
 716:src/main.cpp  ****         float sub     = osc(s_phase_sub,VOICE.sub_wave)  * VOICE.sub_level;
 1609              		.loc 6 716 28 view .LVU529
 1610 0790 2249     		ldr	r1, .L132+4
 1611              	.LBB607:
 1612              	.LBB608:
 1613              	.LBB609:
 1614              	.LBB610:
 546:src/main.cpp  **** }
 1615              		.loc 6 546 19 view .LVU530
 1616 0792 B6EE006A 		vmov.f32	s12, #5.0e-1
 1617              	.LBE610:
 1618              	.LBE609:
 1619              	.LBE608:
 1620              	.LBE607:
 715:src/main.cpp  ****         float osc2    = osc(s_phase2,   VOICE.osc2_wave) * VOICE.osc2_level;
 1621              		.loc 6 715 66 view .LVU531
 1622 0796 9FED3B1A 		vldr.32	s2, .L132+108
 716:src/main.cpp  ****         float sub     = osc(s_phase_sub,VOICE.sub_wave)  * VOICE.sub_level;
 1623              		.loc 6 716 28 view .LVU532
 1624 079a D1ED009A 		vldr.32	s19, [r1]
 715:src/main.cpp  ****         float osc2    = osc(s_phase2,   VOICE.osc2_wave) * VOICE.osc2_level;
 1625              		.loc 6 715 66 view .LVU533
 1626 079e 27EE017A 		vmul.f32	s14, s14, s2
 1627              	.LVL117:
 716:src/main.cpp  ****         float sub     = osc(s_phase_sub,VOICE.sub_wave)  * VOICE.sub_level;
 1628              		.loc 6 716 9 is_stmt 1 view .LVU534
 1629              	.LBB618:
 1630              	.LBI607:
 562:src/main.cpp  ****     switch(w){
 1631              		.loc 6 562 21 view .LVU535
 1632              	.LBE618:
 1633              	.LBE675:
 1634              	.LBE682:
 563:src/main.cpp  ****         case WAVE_SINE:   return osc_sine(ph);
 1635              		.loc 6 563 5 view .LVU536
 1636              	.LBB683:
 1637              	.LBB676:
 1638              	.LBB619:
 1639              	.LBB615:
 1640              	.LBI608:
 562:src/main.cpp  ****     switch(w){
 1641              		.loc 6 562 21 view .LVU537
 562:src/main.cpp  ****     switch(w){
 1642              		.loc 6 562 21 is_stmt 0 view .LVU538
 1643              	.LBE615:
 1644              	.LBE619:
 1645              	.LBE676:
ARM GAS  /tmp/claude-502/ccb6uqMv.s 			page 58


 1646              	.LBE683:
 567:src/main.cpp  ****         default:          return tri(ph);
 1647              		.loc 6 567 9 is_stmt 1 view .LVU539
 568:src/main.cpp  ****     }
 1648              		.loc 6 568 9 view .LVU540
 568:src/main.cpp  ****     }
 1649              		.loc 6 568 27 view .LVU541
 1650              	.LBB684:
 1651              	.LBB677:
 1652              	.LBB620:
 1653              	.LBB616:
 1654              	.LBB613:
 1655              	.LBI609:
 545:src/main.cpp  ****     return ph<0.5f?(4.0f*ph-1.0f):(3.0f-4.0f*ph);
 1656              		.loc 6 545 21 view .LVU542
 1657              	.LBB611:
 546:src/main.cpp  **** }
 1658              		.loc 6 546 5 view .LVU543
 546:src/main.cpp  **** }
 1659              		.loc 6 546 19 is_stmt 0 view .LVU544
 1660 07a2 F4EEC69A 		vcmpe.f32	s19, s12
 1661 07a6 B1EE006A 		vmov.f32	s12, #4.0e+0
 1662 07aa F1EE10FA 		vmrs	APSR_nzcv, FPSCR
 1663 07ae 40F1EE80 		bpl	.L114
 1664 07b2 BFEE001A 		vmov.f32	s2, #-1.0e+0
 1665 07b6 A9EE861A 		vfma.f32	s2, s19, s12
 1666              	.L30:
 1667              	.LVL118:
 546:src/main.cpp  **** }
 1668              		.loc 6 546 19 view .LVU545
 1669              	.LBE611:
 1670              	.LBE613:
 1671              	.LBE616:
 1672              	.LBE620:
 717:src/main.cpp  ****         float osc_oct = osc(s_phase_oct,VOICE.oct_wave)  * VOICE.oct_level;
 1673              		.loc 6 717 28 view .LVU546
 1674 07ba 1949     		ldr	r1, .L132+8
 1675              	.LBB621:
 1676              	.LBB622:
 1677              	.LBB623:
 1678              	.LBB624:
 546:src/main.cpp  **** }
 1679              		.loc 6 546 19 view .LVU547
 1680 07bc F1EE00FA 		vmov.f32	s31, #4.0e+0
 1681              	.LBE624:
 1682              	.LBE623:
 1683              	.LBE622:
 1684              	.LBE621:
 716:src/main.cpp  ****         float sub     = osc(s_phase_sub,VOICE.sub_wave)  * VOICE.sub_level;
 1685              		.loc 6 716 66 view .LVU548
 1686 07c0 9FED316A 		vldr.32	s12, .L132+112
 717:src/main.cpp  ****         float osc_oct = osc(s_phase_oct,VOICE.oct_wave)  * VOICE.oct_level;
 1687              		.loc 6 717 28 view .LVU549
 1688 07c4 D1ED000A 		vldr.32	s1, [r1]
 716:src/main.cpp  ****         float sub     = osc(s_phase_sub,VOICE.sub_wave)  * VOICE.sub_level;
 1689              		.loc 6 716 66 view .LVU550
 1690 07c8 21EE061A 		vmul.f32	s2, s2, s12
ARM GAS  /tmp/claude-502/ccb6uqMv.s 			page 59


 1691              	.LVL119:
 717:src/main.cpp  ****         float osc_oct = osc(s_phase_oct,VOICE.oct_wave)  * VOICE.oct_level;
 1692              		.loc 6 717 9 is_stmt 1 view .LVU551
 1693              	.LBB635:
 1694              	.LBI635:
 562:src/main.cpp  ****     switch(w){
 1695              		.loc 6 562 21 view .LVU552
 1696              	.LBE635:
 1697              	.LBE677:
 1698              	.LBE684:
 563:src/main.cpp  ****         case WAVE_SINE:   return osc_sine(ph);
 1699              		.loc 6 563 5 view .LVU553
 564:src/main.cpp  ****         case WAVE_SQUARE: return osc_square(ph);
 1700              		.loc 6 564 9 view .LVU554
 564:src/main.cpp  ****         case WAVE_SQUARE: return osc_square(ph);
 1701              		.loc 6 564 27 view .LVU555
 1702              	.LBB685:
 1703              	.LBB678:
 1704              	.LBB640:
 1705              	.LBB636:
 1706              	.LBI636:
 549:src/main.cpp  ****     constexpr float PI = 3.14159265f;
 1707              		.loc 6 549 21 view .LVU556
 1708              	.LBB637:
 550:src/main.cpp  ****     float x = ph*2.0f*PI - PI;                 // -ŽĆ..ŽĆ (angle shifted by ŽĆ)
 1709              		.loc 6 550 5 view .LVU557
 551:src/main.cpp  ****     float y = 1.27323954f*x - 0.405284735f*x*(x<0?-x:x);
 1710              		.loc 6 551 5 view .LVU558
 551:src/main.cpp  ****     float y = 1.27323954f*x - 0.405284735f*x*(x<0?-x:x);
 1711              		.loc 6 551 11 is_stmt 0 view .LVU559
 1712 07cc 9FED2F9A 		vldr.32	s18, .L132+116
 551:src/main.cpp  ****     float y = 1.27323954f*x - 0.405284735f*x*(x<0?-x:x);
 1713              		.loc 6 551 17 view .LVU560
 1714 07d0 30EEA0AA 		vadd.f32	s20, s1, s1
 551:src/main.cpp  ****     float y = 1.27323954f*x - 0.405284735f*x*(x<0?-x:x);
 1715              		.loc 6 551 11 view .LVU561
 1716 07d4 9FED2E6A 		vldr.32	s12, .L132+120
 1717              	.LBE637:
 1718              	.LBE636:
 1719              	.LBE640:
 718:src/main.cpp  **** 
 1720              		.loc 6 718 28 view .LVU562
 1721 07d8 1249     		ldr	r1, .L132+12
 1722              	.LBB641:
 1723              	.LBB639:
 1724              	.LBB638:
 551:src/main.cpp  ****     float y = 1.27323954f*x - 0.405284735f*x*(x<0?-x:x);
 1725              		.loc 6 551 11 view .LVU563
 1726 07da AAEE069A 		vfma.f32	s18, s20, s12
 1727              	.LVL120:
 552:src/main.cpp  ****     y = 0.225f*(y*(y<0?-y:y) - y) + y;         // one refinement pass
 1728              		.loc 6 552 5 is_stmt 1 view .LVU564
 552:src/main.cpp  ****     y = 0.225f*(y*(y<0?-y:y) - y) + y;         // one refinement pass
 1729              		.loc 6 552 26 is_stmt 0 view .LVU565
 1730 07de 9FED2D6A 		vldr.32	s12, .L132+124
 552:src/main.cpp  ****     y = 0.225f*(y*(y<0?-y:y) - y) + y;         // one refinement pass
 1731              		.loc 6 552 43 view .LVU566
ARM GAS  /tmp/claude-502/ccb6uqMv.s 			page 60


 1732 07e2 9FED2DAA 		vldr.32	s20, .L132+128
 552:src/main.cpp  ****     y = 0.225f*(y*(y<0?-y:y) - y) + y;         // one refinement pass
 1733              		.loc 6 552 50 view .LVU567
 1734 07e6 B5EEC09A 		vcmpe.f32	s18, #0
 552:src/main.cpp  ****     y = 0.225f*(y*(y<0?-y:y) - y) + y;         // one refinement pass
 1735              		.loc 6 552 43 view .LVU568
 1736 07ea 29EE0AAA 		vmul.f32	s20, s18, s20
 552:src/main.cpp  ****     y = 0.225f*(y*(y<0?-y:y) - y) + y;         // one refinement pass
 1737              		.loc 6 552 26 view .LVU569
 1738 07ee 29EE066A 		vmul.f32	s12, s18, s12
 552:src/main.cpp  ****     y = 0.225f*(y*(y<0?-y:y) - y) + y;         // one refinement pass
 1739              		.loc 6 552 50 view .LVU570
 1740 07f2 F1EE10FA 		vmrs	APSR_nzcv, FPSCR
 1741 07f6 48BF     		it	mi
 1742 07f8 B1EE499A 		vnegmi.f32	s18, s18
 1743              	.LVL121:
 552:src/main.cpp  ****     y = 0.225f*(y*(y<0?-y:y) - y) + y;         // one refinement pass
 1744              		.loc 6 552 11 view .LVU571
 1745 07fc AAEE496A 		vfms.f32	s12, s20, s18
 1746              	.LVL122:
 553:src/main.cpp  ****     return -y;                                 // undo the ŽĆ shift: sin(x+ŽĆ) = -sin(x)
 1747              		.loc 6 553 5 is_stmt 1 view .LVU572
 553:src/main.cpp  ****     return -y;                                 // undo the ŽĆ shift: sin(x+ŽĆ) = -sin(x)
 1748              		.loc 6 553 23 is_stmt 0 view .LVU573
 1749 0800 B5EEC06A 		vcmpe.f32	s12, #0
 1750 0804 B1EE469A 		vneg.f32	s18, s12
 1751 0808 F1EE10FA 		vmrs	APSR_nzcv, FPSCR
 1752 080c 54BF     		ite	pl
 1753 080e B0EE46AA 		vmovpl.f32	s20, s12
 1754 0812 B0EE49AA 		vmovmi.f32	s20, s18
 1755 0816 47E0     		b	.L133
 1756              	.L134:
 1757              		.align	2
 1758              	.L132:
 1759 0818 00000000 		.word	.LANCHOR26
 1760 081c 00000000 		.word	.LANCHOR27
 1761 0820 00000000 		.word	.LANCHOR28
 1762 0824 00000000 		.word	.LANCHOR29
 1763 0828 00007043 		.word	1131413504
 1764 082c 00000000 		.word	.LANCHOR30
 1765 0830 00000000 		.word	.LANCHOR31
 1766 0834 00000000 		.word	.LANCHOR32
 1767 0838 00000000 		.word	.LANCHOR33
 1768 083c 00000000 		.word	.LANCHOR34
 1769 0840 00000000 		.word	.LANCHOR17
 1770 0844 00000000 		.word	.LANCHOR15
 1771 0848 00000000 		.word	.LANCHOR16
 1772 084c 00000000 		.word	.LANCHOR14
 1773 0850 77BE7F3F 		.word	1065336439
 1774 0854 00D7A33C 		.word	1017370368
 1775 0858 0012833A 		.word	981668352
 1776 085c 48E17A3F 		.word	1065017672
 1777 0860 A4707D3F 		.word	1065185444
 1778 0864 00000000 		.word	.LANCHOR22
 1779 0868 00000000 		.word	.LANCHOR13
 1780 086c 00000000 		.word	.LANCHOR23
 1781 0870 6F12833A 		.word	981668463
ARM GAS  /tmp/claude-502/ccb6uqMv.s 			page 61


 1782 0874 17B7D138 		.word	953267991
 1783 0878 00000000 		.word	.LANCHOR25
 1784 087c CDCC4C3D 		.word	1028443341
 1785 0880 9FC8BF3F 		.word	1069533343
 1786 0884 3D0AD73E 		.word	1054280253
 1787 0888 EC51383E 		.word	1043878380
 1788 088c DB0F49C0 		.word	-1068953637
 1789 0890 DB0F4940 		.word	1078530011
 1790 0894 83F9A23F 		.word	1067645315
 1791 0898 7B81CF3E 		.word	1053786491
 1792 089c 6666663E 		.word	1046898278
 1793 08a0 AE47E13E 		.word	1054951342
 1794 08a4 CDCCCC3D 		.word	1036831949
 1795              	.L133:
 553:src/main.cpp  ****     return -y;                                 // undo the ŽĆ shift: sin(x+ŽĆ) = -sin(x)
 1796              		.loc 6 553 30 view .LVU574
 1797 08a8 A6EE0A9A 		vfma.f32	s18, s12, s20
 553:src/main.cpp  ****     return -y;                                 // undo the ŽĆ shift: sin(x+ŽĆ) = -sin(x)
 1798              		.loc 6 553 7 view .LVU575
 1799 08ac 1FED05AA 		vldr.32	s20, .L132+132
 1800 08b0 A9EE0A6A 		vfma.f32	s12, s18, s20
 1801              	.LVL123:
 554:src/main.cpp  **** }
 1802              		.loc 6 554 5 is_stmt 1 view .LVU576
 554:src/main.cpp  **** }
 1803              		.loc 6 554 5 is_stmt 0 view .LVU577
 1804              	.LBE638:
 1805              	.LBE639:
 1806              	.LBE641:
 717:src/main.cpp  ****         float osc_oct = osc(s_phase_oct,VOICE.oct_wave)  * VOICE.oct_level;
 1807              		.loc 6 717 66 view .LVU578
 1808 08b4 1FED069A 		vldr.32	s18, .L132+136
 1809              	.LBB642:
 1810              	.LBB631:
 1811              	.LBB628:
 1812              	.LBB625:
 546:src/main.cpp  **** }
 1813              		.loc 6 546 19 view .LVU579
 1814 08b8 B6EE00AA 		vmov.f32	s20, #5.0e-1
 1815              	.LBE625:
 1816              	.LBE628:
 1817              	.LBE631:
 1818              	.LBE642:
 717:src/main.cpp  ****         float osc_oct = osc(s_phase_oct,VOICE.oct_wave)  * VOICE.oct_level;
 1819              		.loc 6 717 66 view .LVU580
 1820 08bc 26EE496A 		vnmul.f32	s12, s12, s18
 1821              	.LVL124:
 718:src/main.cpp  **** 
 1822              		.loc 6 718 9 is_stmt 1 view .LVU581
 718:src/main.cpp  **** 
 1823              		.loc 6 718 28 is_stmt 0 view .LVU582
 1824 08c0 91ED009A 		vldr.32	s18, [r1]
 1825              	.LVL125:
 1826              	.LBB643:
 1827              	.LBI621:
 562:src/main.cpp  ****     switch(w){
 1828              		.loc 6 562 21 is_stmt 1 view .LVU583
ARM GAS  /tmp/claude-502/ccb6uqMv.s 			page 62


 1829              	.LBE643:
 1830              	.LBE678:
 1831              	.LBE685:
 563:src/main.cpp  ****         case WAVE_SINE:   return osc_sine(ph);
 1832              		.loc 6 563 5 view .LVU584
 1833              	.LBB686:
 1834              	.LBB679:
 1835              	.LBB644:
 1836              	.LBB632:
 1837              	.LBI622:
 562:src/main.cpp  ****     switch(w){
 1838              		.loc 6 562 21 view .LVU585
 562:src/main.cpp  ****     switch(w){
 1839              		.loc 6 562 21 is_stmt 0 view .LVU586
 1840              	.LBE632:
 1841              	.LBE644:
 1842              	.LBE679:
 1843              	.LBE686:
 567:src/main.cpp  ****         default:          return tri(ph);
 1844              		.loc 6 567 9 is_stmt 1 view .LVU587
 568:src/main.cpp  ****     }
 1845              		.loc 6 568 9 view .LVU588
 568:src/main.cpp  ****     }
 1846              		.loc 6 568 27 view .LVU589
 1847              	.LBB687:
 1848              	.LBB680:
 1849              	.LBB645:
 1850              	.LBB633:
 1851              	.LBB629:
 1852              	.LBI623:
 545:src/main.cpp  ****     return ph<0.5f?(4.0f*ph-1.0f):(3.0f-4.0f*ph);
 1853              		.loc 6 545 21 view .LVU590
 1854              	.LBB626:
 546:src/main.cpp  **** }
 1855              		.loc 6 546 5 view .LVU591
 546:src/main.cpp  **** }
 1856              		.loc 6 546 19 is_stmt 0 view .LVU592
 1857 08c4 B4EECA9A 		vcmpe.f32	s18, s20
 1858 08c8 F1EE10FA 		vmrs	APSR_nzcv, FPSCR
 1859 08cc 5AD5     		bpl	.L116
 1860 08ce BFEE00AA 		vmov.f32	s20, #-1.0e+0
 1861 08d2 A9EE2FAA 		vfma.f32	s20, s18, s31
 1862              	.L37:
 1863              	.LVL126:
 546:src/main.cpp  **** }
 1864              		.loc 6 546 19 view .LVU593
 1865              	.LBE626:
 1866              	.LBE629:
 1867              	.LBE633:
 1868              	.LBE645:
 722:src/main.cpp  ****         if(VOICE.noise_level > 0.0f){
 1869              		.loc 6 722 9 is_stmt 1 view .LVU594
 723:src/main.cpp  ****             s_noise_rng ^= s_noise_rng << 13;
 1870              		.loc 6 723 9 view .LVU595
 731:src/main.cpp  **** 
 1871              		.loc 6 731 9 view .LVU596
 731:src/main.cpp  **** 
ARM GAS  /tmp/claude-502/ccb6uqMv.s 			page 63


 1872              		.loc 6 731 26 is_stmt 0 view .LVU597
 1873 08d6 37EE017A 		vadd.f32	s14, s14, s2
 1874              	.LVL127:
 731:src/main.cpp  **** 
 1875              		.loc 6 731 39 view .LVU598
 1876 08da 5FED0EFA 		vldr.32	s31, .L132+140
 734:src/main.cpp  ****         mix = mix*(1.0f-s_ringmod) + (mix*rm_carrier)*s_ringmod;
 1877              		.loc 6 734 31 view .LVU599
 1878 08de 7849     		ldr	r1, .L135
 731:src/main.cpp  **** 
 1879              		.loc 6 731 33 view .LVU600
 1880 08e0 37EE066A 		vadd.f32	s12, s14, s12
 1881              	.LVL128:
 734:src/main.cpp  ****         mix = mix*(1.0f-s_ringmod) + (mix*rm_carrier)*s_ringmod;
 1882              		.loc 6 734 31 view .LVU601
 1883 08e4 91ED001A 		vldr.32	s2, [r1]
 1884              	.LVL129:
 731:src/main.cpp  **** 
 1885              		.loc 6 731 15 view .LVU602
 1886 08e8 9FED767A 		vldr.32	s14, .L135+4
 731:src/main.cpp  **** 
 1887              		.loc 6 731 39 view .LVU603
 1888 08ec AAEE2F6A 		vfma.f32	s12, s20, s31
 1889              	.LBB646:
 1890              	.LBB647:
 546:src/main.cpp  **** }
 1891              		.loc 6 546 19 view .LVU604
 1892 08f0 B6EE00AA 		vmov.f32	s20, #5.0e-1
 1893              	.LVL130:
 546:src/main.cpp  **** }
 1894              		.loc 6 546 19 view .LVU605
 1895 08f4 B4EECA1A 		vcmpe.f32	s2, s20
 1896              	.LBE647:
 1897              	.LBE646:
 731:src/main.cpp  **** 
 1898              		.loc 6 731 15 view .LVU606
 1899 08f8 36EE076A 		vadd.f32	s12, s12, s14
 1900              	.LVL131:
 734:src/main.cpp  ****         mix = mix*(1.0f-s_ringmod) + (mix*rm_carrier)*s_ringmod;
 1901              		.loc 6 734 9 is_stmt 1 view .LVU607
 1902              	.LBB650:
 1903              	.LBI646:
 545:src/main.cpp  ****     return ph<0.5f?(4.0f*ph-1.0f):(3.0f-4.0f*ph);
 1904              		.loc 6 545 21 view .LVU608
 1905              	.LBB648:
 546:src/main.cpp  **** }
 1906              		.loc 6 546 5 view .LVU609
 546:src/main.cpp  **** }
 1907              		.loc 6 546 19 is_stmt 0 view .LVU610
 1908 08fc F1EE10FA 		vmrs	APSR_nzcv, FPSCR
 1909 0900 B1EE007A 		vmov.f32	s14, #4.0e+0
 1910 0904 39D5     		bpl	.L117
 1911 0906 BFEE00AA 		vmov.f32	s20, #-1.0e+0
 1912 090a A1EE07AA 		vfma.f32	s20, s2, s14
 1913              	.L40:
 1914              	.LVL132:
 546:src/main.cpp  **** }
ARM GAS  /tmp/claude-502/ccb6uqMv.s 			page 64


 1915              		.loc 6 546 19 view .LVU611
 1916              	.LBE648:
 1917              	.LBE650:
 735:src/main.cpp  **** 
 1918              		.loc 6 735 9 is_stmt 1 view .LVU612
 735:src/main.cpp  **** 
 1919              		.loc 6 735 42 is_stmt 0 view .LVU613
 1920 090e 26EE0AAA 		vmul.f32	s20, s12, s20
 1921              	.LVL133:
 735:src/main.cpp  **** 
 1922              		.loc 6 735 24 view .LVU614
 1923 0912 B7EE007A 		vmov.f32	s14, #1.0e+0
 735:src/main.cpp  **** 
 1924              		.loc 6 735 54 view .LVU615
 1925 0916 2AEE26AA 		vmul.f32	s20, s20, s13
 735:src/main.cpp  **** 
 1926              		.loc 6 735 24 view .LVU616
 1927 091a 77EE666A 		vsub.f32	s13, s14, s13
 735:src/main.cpp  **** 
 1928              		.loc 6 735 13 view .LVU617
 1929 091e A6EE86AA 		vfma.f32	s20, s13, s12
 1930              	.LVL134:
 738:src/main.cpp  **** 
 1931              		.loc 6 738 9 is_stmt 1 view .LVU618
 1932              	.LBB651:
 1933              	.LBB652:
 457:src/main.cpp  ****     if(x<-3.0f)return -1.0f;
 1934              		.loc 6 457 5 is_stmt 0 view .LVU619
 1935 0922 F0EE086A 		vmov.f32	s13, #3.0e+0
 1936              	.LBE652:
 1937              	.LBE651:
 738:src/main.cpp  **** 
 1938              		.loc 6 738 24 view .LVU620
 1939 0926 2BEE0ABA 		vmul.f32	s22, s22, s20
 1940              	.LVL135:
 1941              	.LBB658:
 1942              	.LBI651:
 455:src/main.cpp  **** {
 1943              		.loc 6 455 21 is_stmt 1 view .LVU621
 1944              	.LBB655:
 457:src/main.cpp  ****     if(x<-3.0f)return -1.0f;
 1945              		.loc 6 457 5 view .LVU622
 1946 092a B4EEE6BA 		vcmpe.f32	s22, s13
 1947 092e F1EE10FA 		vmrs	APSR_nzcv, FPSCR
 1948 0932 65DC     		bgt	.L78
 458:src/main.cpp  ****     float x2=x*x;
 1949              		.loc 6 458 5 view .LVU623
 1950 0934 B8EE087A 		vmov.f32	s14, #-3.0e+0
 1951 0938 B4EEC7BA 		vcmpe.f32	s22, s14
 1952 093c F1EE10FA 		vmrs	APSR_nzcv, FPSCR
 1953 0940 73D4     		bmi	.L79
 1954              	.LVL136:
 1955              	.LBB653:
 1956              	.LBI653:
 455:src/main.cpp  **** {
 1957              		.loc 6 455 21 view .LVU624
 1958              	.LBB654:
ARM GAS  /tmp/claude-502/ccb6uqMv.s 			page 65


 459:src/main.cpp  ****     return x*(27.0f+x2)/(27.0f+9.0f*x2);
 1959              		.loc 6 459 5 view .LVU625
 460:src/main.cpp  **** }
 1960              		.loc 6 460 20 is_stmt 0 view .LVU626
 1961 0942 F3EE0B6A 		vmov.f32	s13, #2.7e+1
 459:src/main.cpp  ****     return x*(27.0f+x2)/(27.0f+9.0f*x2);
 1962              		.loc 6 459 11 view .LVU627
 1963 0946 2BEE0B7A 		vmul.f32	s14, s22, s22
 1964              	.LVL137:
 460:src/main.cpp  **** }
 1965              		.loc 6 460 5 is_stmt 1 view .LVU628
 460:src/main.cpp  **** }
 1966              		.loc 6 460 31 is_stmt 0 view .LVU629
 1967 094a B2EE02AA 		vmov.f32	s20, #9.0e+0
 1968              	.LVL138:
 460:src/main.cpp  **** }
 1969              		.loc 6 460 31 view .LVU630
 1970 094e B0EE666A 		vmov.f32	s12, s13
 460:src/main.cpp  **** }
 1971              		.loc 6 460 31 view .LVU631
 1972 0952 A7EE0A6A 		vfma.f32	s12, s14, s20
 460:src/main.cpp  **** }
 1973              		.loc 6 460 20 view .LVU632
 1974 0956 37EE267A 		vadd.f32	s14, s14, s13
 1975              	.LVL139:
 460:src/main.cpp  **** }
 1976              		.loc 6 460 13 view .LVU633
 1977 095a 27EE0BBA 		vmul.f32	s22, s14, s22
 1978              	.LVL140:
 460:src/main.cpp  **** }
 1979              		.loc 6 460 39 view .LVU634
 1980 095e CBEE066A 		vdiv.f32	s13, s22, s12
 1981              	.L41:
 1982              	.LVL141:
 460:src/main.cpp  **** }
 1983              		.loc 6 460 39 view .LVU635
 1984              	.LBE654:
 1985              	.LBE653:
 1986              	.LBE655:
 1987              	.LBE658:
 741:src/main.cpp  ****         float filtered = moog(mix, eff_cutoff, VOICE.resonance, sr);
 1988              		.loc 6 741 9 is_stmt 1 view .LVU636
 1989              	.LBB659:
 1990              	.LBI427:
 450:src/main.cpp  ****     return v<lo?lo:v>hi?hi:v;
 1991              		.loc 6 450 21 view .LVU637
 1992              	.LBB429:
 451:src/main.cpp  **** }
 1993              		.loc 6 451 5 view .LVU638
 451:src/main.cpp  **** }
 1994              		.loc 6 451 16 is_stmt 0 view .LVU639
 1995 0962 B3EE047A 		vmov.f32	s14, #2.0e+1
 1996 0966 B4EEC75A 		vcmpe.f32	s10, s14
 1997 096a F1EE10FA 		vmrs	APSR_nzcv, FPSCR
 1998 096e 7FF5DFAB 		bpl	.L129
 1999 0972 9FED555A 		vldr.32	s10, .L135+8
 2000              	.LVL142:
ARM GAS  /tmp/claude-502/ccb6uqMv.s 			page 66


 451:src/main.cpp  **** }
 2001              		.loc 6 451 16 view .LVU640
 2002 0976 FFF7E5BB 		b	.L42
 2003              	.LVL143:
 2004              	.L117:
 451:src/main.cpp  **** }
 2005              		.loc 6 451 16 view .LVU641
 2006              	.LBE429:
 2007              	.LBE659:
 2008              	.LBB660:
 2009              	.LBB649:
 546:src/main.cpp  **** }
 2010              		.loc 6 546 19 view .LVU642
 2011 097a B0EE08AA 		vmov.f32	s20, #3.0e+0
 2012 097e A1EE47AA 		vfms.f32	s20, s2, s14
 2013 0982 C4E7     		b	.L40
 2014              	.LVL144:
 2015              	.L116:
 546:src/main.cpp  **** }
 2016              		.loc 6 546 19 view .LVU643
 2017              	.LBE649:
 2018              	.LBE660:
 2019              	.LBB661:
 2020              	.LBB634:
 2021              	.LBB630:
 2022              	.LBB627:
 2023 0984 B0EE08AA 		vmov.f32	s20, #3.0e+0
 2024 0988 A9EE6FAA 		vfms.f32	s20, s18, s31
 2025 098c A3E7     		b	.L37
 2026              	.LVL145:
 2027              	.L114:
 546:src/main.cpp  **** }
 2028              		.loc 6 546 19 view .LVU644
 2029              	.LBE627:
 2030              	.LBE630:
 2031              	.LBE634:
 2032              	.LBE661:
 2033              	.LBB662:
 2034              	.LBB617:
 2035              	.LBB614:
 2036              	.LBB612:
 2037 098e B0EE081A 		vmov.f32	s2, #3.0e+0
 2038 0992 A9EEC61A 		vfms.f32	s2, s19, s12
 2039 0996 10E7     		b	.L30
 2040              	.LVL146:
 2041              	.L113:
 546:src/main.cpp  **** }
 2042              		.loc 6 546 19 view .LVU645
 2043              	.LBE612:
 2044              	.LBE614:
 2045              	.LBE617:
 2046              	.LBE662:
 2047              	.LBB663:
 2048              	.LBB600:
 2049              	.LBB596:
 2050              	.LBB593:
 2051 0998 B0EE087A 		vmov.f32	s14, #3.0e+0
ARM GAS  /tmp/claude-502/ccb6uqMv.s 			page 67


 2052 099c A2EE467A 		vfms.f32	s14, s4, s12
 2053 09a0 F6E6     		b	.L27
 2054              	.LVL147:
 2055              	.L112:
 546:src/main.cpp  **** }
 2056              		.loc 6 546 19 view .LVU646
 2057              	.LBE593:
 2058              	.LBE596:
 2059              	.LBE600:
 2060              	.LBE663:
 2061              	.LBB664:
 2062              	.LBB583:
 2063 09a2 B0EE082A 		vmov.f32	s4, #3.0e+0
 2064 09a6 A7EE412A 		vfms.f32	s4, s14, s2
 2065 09aa CEE6     		b	.L24
 2066              	.LVL148:
 2067              	.L15:
 546:src/main.cpp  **** }
 2068              		.loc 6 546 19 view .LVU647
 2069              	.LBE583:
 2070              	.LBE664:
 671:src/main.cpp  ****             s_flt[1] *= 0.999f;
 2071              		.loc 6 671 13 is_stmt 1 view .LVU648
 671:src/main.cpp  ****             s_flt[1] *= 0.999f;
 2072              		.loc 6 671 22 is_stmt 0 view .LVU649
 2073 09ac DFED477A 		vldr.32	s15, .L135+12
 2074              	.LVL149:
 671:src/main.cpp  ****             s_flt[1] *= 0.999f;
 2075              		.loc 6 671 22 view .LVU650
 2076 09b0 94ED003A 		vldr.32	s6, [r4]
 672:src/main.cpp  ****             s_flt[2] *= 0.999f;
 2077              		.loc 6 672 22 view .LVU651
 2078 09b4 D4ED013A 		vldr.32	s7, [r4, #4]
 673:src/main.cpp  ****             s_flt[3] *= 0.999f;
 2079              		.loc 6 673 22 view .LVU652
 2080 09b8 94ED024A 		vldr.32	s8, [r4, #8]
 671:src/main.cpp  ****             s_flt[1] *= 0.999f;
 2081              		.loc 6 671 22 view .LVU653
 2082 09bc 23EE273A 		vmul.f32	s6, s6, s15
 672:src/main.cpp  ****             s_flt[2] *= 0.999f;
 2083              		.loc 6 672 13 is_stmt 1 view .LVU654
 674:src/main.cpp  ****         }
 2084              		.loc 6 674 22 is_stmt 0 view .LVU655
 2085 09c0 94ED037A 		vldr.32	s14, [r4, #12]
 672:src/main.cpp  ****             s_flt[2] *= 0.999f;
 2086              		.loc 6 672 22 view .LVU656
 2087 09c4 63EEA73A 		vmul.f32	s7, s7, s15
 673:src/main.cpp  ****             s_flt[3] *= 0.999f;
 2088              		.loc 6 673 13 is_stmt 1 view .LVU657
 673:src/main.cpp  ****             s_flt[3] *= 0.999f;
 2089              		.loc 6 673 22 is_stmt 0 view .LVU658
 2090 09c8 24EE274A 		vmul.f32	s8, s8, s15
 674:src/main.cpp  ****         }
 2091              		.loc 6 674 13 is_stmt 1 view .LVU659
 674:src/main.cpp  ****         }
 2092              		.loc 6 674 22 is_stmt 0 view .LVU660
 2093 09cc 67EE277A 		vmul.f32	s15, s14, s15
ARM GAS  /tmp/claude-502/ccb6uqMv.s 			page 68


 2094 09d0 86E6     		b	.L16
 2095              	.LVL150:
 2096              	.L73:
 2097              	.LBB665:
 674:src/main.cpp  ****         }
 2098              		.loc 6 674 22 view .LVU661
 2099 09d2 9FED3F5A 		vldr.32	s10, .L135+16
 651:src/main.cpp  ****           s_cutoff = s_cutoff * sc + tcut * (1.0f - sc); }
 2100              		.loc 6 651 40 view .LVU662
 2101 09d6 DFED3F5A 		vldr.32	s11, .L135+20
 2102 09da F0E5     		b	.L8
 2103              	.LVL151:
 2104              	.L96:
 651:src/main.cpp  ****           s_cutoff = s_cutoff * sc + tcut * (1.0f - sc); }
 2105              		.loc 6 651 40 view .LVU663
 2106              	.LBE665:
 2107              	.LBB666:
 2108              	.LBB514:
 2109              	.LBB493:
 2110              	.LBB491:
 457:src/main.cpp  ****     if(x<-3.0f)return -1.0f;
 2111              		.loc 6 457 24 view .LVU664
 2112 09dc B7EE005A 		vmov.f32	s10, #1.0e+0
 2113 09e0 D0E4     		b	.L52
 2114              	.LVL152:
 2115              	.L94:
 457:src/main.cpp  ****     if(x<-3.0f)return -1.0f;
 2116              		.loc 6 457 24 view .LVU665
 2117              	.LBE491:
 2118              	.LBE493:
 2119              	.LBB494:
 2120              	.LBB483:
 2121 09e2 F7EE006A 		vmov.f32	s13, #1.0e+0
 2122 09e6 ADE4     		b	.L51
 2123              	.LVL153:
 2124              	.L92:
 457:src/main.cpp  ****     if(x<-3.0f)return -1.0f;
 2125              		.loc 6 457 24 view .LVU666
 2126              	.LBE483:
 2127              	.LBE494:
 2128              	.LBB495:
 2129              	.LBB475:
 2130 09e8 F7EE003A 		vmov.f32	s7, #1.0e+0
 2131 09ec 84E4     		b	.L50
 2132              	.LVL154:
 2133              	.L90:
 457:src/main.cpp  ****     if(x<-3.0f)return -1.0f;
 2134              		.loc 6 457 24 view .LVU667
 2135              	.LBE475:
 2136              	.LBE495:
 2137              	.LBB496:
 2138              	.LBB467:
 2139 09ee F7EE006A 		vmov.f32	s13, #1.0e+0
 2140 09f2 61E4     		b	.L49
 2141              	.LVL155:
 2142              	.L88:
 457:src/main.cpp  ****     if(x<-3.0f)return -1.0f;
ARM GAS  /tmp/claude-502/ccb6uqMv.s 			page 69


 2143              		.loc 6 457 24 view .LVU668
 2144              	.LBE467:
 2145              	.LBE496:
 2146              	.LBB497:
 2147              	.LBB459:
 2148 09f4 B7EE005A 		vmov.f32	s10, #1.0e+0
 2149 09f8 38E4     		b	.L48
 2150              	.LVL156:
 2151              	.L86:
 457:src/main.cpp  ****     if(x<-3.0f)return -1.0f;
 2152              		.loc 6 457 24 view .LVU669
 2153              	.LBE459:
 2154              	.LBE497:
 2155              	.LBB498:
 2156              	.LBB451:
 2157 09fa F7EE006A 		vmov.f32	s13, #1.0e+0
 2158 09fe 15E4     		b	.L47
 2159              	.LVL157:
 2160              	.L78:
 457:src/main.cpp  ****     if(x<-3.0f)return -1.0f;
 2161              		.loc 6 457 24 view .LVU670
 2162              	.LBE451:
 2163              	.LBE498:
 2164              	.LBE514:
 2165              	.LBE666:
 2166              	.LBB667:
 2167              	.LBB656:
 2168 0a00 F0EE476A 		vmov.f32	s13, s14
 2169 0a04 ADE7     		b	.L41
 2170              	.LVL158:
 2171              	.L84:
 457:src/main.cpp  ****     if(x<-3.0f)return -1.0f;
 2172              		.loc 6 457 24 view .LVU671
 2173              	.LBE656:
 2174              	.LBE667:
 2175              	.LBB668:
 2176              	.LBB515:
 2177              	.LBB499:
 2178              	.LBB443:
 2179 0a06 B7EE005A 		vmov.f32	s10, #1.0e+0
 2180 0a0a FFF7E9BB 		b	.L46
 2181              	.LVL159:
 2182              	.L82:
 457:src/main.cpp  ****     if(x<-3.0f)return -1.0f;
 2183              		.loc 6 457 24 view .LVU672
 2184              	.LBE443:
 2185              	.LBE499:
 2186              	.LBB500:
 2187              	.LBB437:
 2188 0a0e B7EE006A 		vmov.f32	s12, #1.0e+0
 2189 0a12 FFF7C5BB 		b	.L45
 2190              	.LVL160:
 2191              	.L81:
 457:src/main.cpp  ****     if(x<-3.0f)return -1.0f;
 2192              		.loc 6 457 24 view .LVU673
 2193              	.LBE437:
 2194              	.LBE500:
ARM GAS  /tmp/claude-502/ccb6uqMv.s 			page 70


 2195              	.LBE515:
 2196              	.LBE668:
 2197              	.LBB669:
 2198              	.LBB430:
 2199 0a16 9FED305A 		vldr.32	s10, .L135+24
 2200              	.LVL161:
 457:src/main.cpp  ****     if(x<-3.0f)return -1.0f;
 2201              		.loc 6 457 24 view .LVU674
 2202 0a1a FFF793BB 		b	.L42
 2203              	.LVL162:
 2204              	.L128:
 457:src/main.cpp  ****     if(x<-3.0f)return -1.0f;
 2205              		.loc 6 457 24 view .LVU675
 2206 0a1e F1EE644A 		vneg.f32	s9, s9
 2207 0a22 1DE5     		b	.L54
 2208              	.LVL163:
 2209              	.L87:
 457:src/main.cpp  ****     if(x<-3.0f)return -1.0f;
 2210              		.loc 6 457 24 view .LVU676
 2211              	.LBE430:
 2212              	.LBE669:
 2213              	.LBB670:
 2214              	.LBB516:
 2215              	.LBB501:
 2216              	.LBB452:
 458:src/main.cpp  ****     float x2=x*x;
 2217              		.loc 6 458 24 view .LVU677
 2218 0a24 FFEE006A 		vmov.f32	s13, #-1.0e+0
 2219 0a28 00E4     		b	.L47
 2220              	.LVL164:
 2221              	.L79:
 458:src/main.cpp  ****     float x2=x*x;
 2222              		.loc 6 458 24 view .LVU678
 2223              	.LBE452:
 2224              	.LBE501:
 2225              	.LBE516:
 2226              	.LBE670:
 2227              	.LBB671:
 2228              	.LBB657:
 2229 0a2a FFEE006A 		vmov.f32	s13, #-1.0e+0
 2230 0a2e 98E7     		b	.L41
 2231              	.LVL165:
 2232              	.L97:
 458:src/main.cpp  ****     float x2=x*x;
 2233              		.loc 6 458 24 view .LVU679
 2234              	.LBE657:
 2235              	.LBE671:
 2236              	.LBB672:
 2237              	.LBB517:
 2238              	.LBB502:
 2239              	.LBB492:
 2240 0a30 BFEE005A 		vmov.f32	s10, #-1.0e+0
 2241 0a34 A6E4     		b	.L52
 2242              	.LVL166:
 2243              	.L95:
 458:src/main.cpp  ****     float x2=x*x;
 2244              		.loc 6 458 24 view .LVU680
ARM GAS  /tmp/claude-502/ccb6uqMv.s 			page 71


 2245              	.LBE492:
 2246              	.LBE502:
 2247              	.LBB503:
 2248              	.LBB484:
 2249 0a36 FFEE006A 		vmov.f32	s13, #-1.0e+0
 2250 0a3a 83E4     		b	.L51
 2251              	.LVL167:
 2252              	.L93:
 458:src/main.cpp  ****     float x2=x*x;
 2253              		.loc 6 458 24 view .LVU681
 2254              	.LBE484:
 2255              	.LBE503:
 2256              	.LBB504:
 2257              	.LBB476:
 2258 0a3c FFEE003A 		vmov.f32	s7, #-1.0e+0
 2259 0a40 5AE4     		b	.L50
 2260              	.LVL168:
 2261              	.L85:
 458:src/main.cpp  ****     float x2=x*x;
 2262              		.loc 6 458 24 view .LVU682
 2263              	.LBE476:
 2264              	.LBE504:
 2265              	.LBB505:
 2266              	.LBB444:
 2267 0a42 BFEE005A 		vmov.f32	s10, #-1.0e+0
 2268 0a46 FFF7CBBB 		b	.L46
 2269              	.LVL169:
 2270              	.L83:
 458:src/main.cpp  ****     float x2=x*x;
 2271              		.loc 6 458 24 view .LVU683
 2272              	.LBE444:
 2273              	.LBE505:
 2274              	.LBB506:
 2275              	.LBB438:
 2276 0a4a BFEE006A 		vmov.f32	s12, #-1.0e+0
 2277 0a4e FFF7A7BB 		b	.L45
 2278              	.LVL170:
 2279              	.L91:
 458:src/main.cpp  ****     float x2=x*x;
 2280              		.loc 6 458 24 view .LVU684
 2281              	.LBE438:
 2282              	.LBE506:
 2283              	.LBB507:
 2284              	.LBB468:
 2285 0a52 FFEE006A 		vmov.f32	s13, #-1.0e+0
 2286 0a56 2FE4     		b	.L49
 2287              	.LVL171:
 2288              	.L89:
 458:src/main.cpp  ****     float x2=x*x;
 2289              		.loc 6 458 24 view .LVU685
 2290              	.LBE468:
 2291              	.LBE507:
 2292              	.LBB508:
 2293              	.LBB460:
 2294 0a58 BFEE005A 		vmov.f32	s10, #-1.0e+0
 2295 0a5c 06E4     		b	.L48
 2296              	.LVL172:
ARM GAS  /tmp/claude-502/ccb6uqMv.s 			page 72


 2297              	.L3:
 458:src/main.cpp  ****     float x2=x*x;
 2298              		.loc 6 458 24 view .LVU686
 2299              	.LBE460:
 2300              	.LBE508:
 2301              	.LBE517:
 2302              	.LBE672:
 2303              	.LBE680:
 2304              	.LBE687:
 767:src/main.cpp  ****     }
 768:src/main.cpp  **** }
 2305              		.loc 6 768 1 view .LVU687
 2306 0a5e 07B0     		add	sp, sp, #28
 2307              		.cfi_remember_state
 2308              		.cfi_def_cfa_offset 100
 2309              	.LVL173:
 2310              		.loc 6 768 1 view .LVU688
 2311              		@ sp needed
 2312 0a60 BDEC108B 		vldm	sp!, {d8-d15}
 2313              		.cfi_restore 94
 2314              		.cfi_restore 95
 2315              		.cfi_restore 92
 2316              		.cfi_restore 93
 2317              		.cfi_restore 90
 2318              		.cfi_restore 91
 2319              		.cfi_restore 88
 2320              		.cfi_restore 89
 2321              		.cfi_restore 86
 2322              		.cfi_restore 87
 2323              		.cfi_restore 84
 2324              		.cfi_restore 85
 2325              		.cfi_restore 82
 2326              		.cfi_restore 83
 2327              		.cfi_restore 80
 2328              		.cfi_restore 81
 2329              		.cfi_def_cfa_offset 36
 2330              	.LVL174:
 2331              		.loc 6 768 1 view .LVU689
 2332 0a64 BDE8F08F 		pop	{r4, r5, r6, r7, r8, r9, r10, fp, pc}
 2333              	.LVL175:
 2334              	.L72:
 2335              		.cfi_restore_state
 621:src/main.cpp  **** 
 2336              		.loc 6 621 40 view .LVU690
 2337 0a68 DFED16EA 		vldr.32	s29, .L135+4
 2338              	.LVL176:
 621:src/main.cpp  **** 
 2339              		.loc 6 621 40 view .LVU691
 2340 0a6c FFF7E0BA 		b	.L4
 2341              	.LVL177:
 2342              	.L127:
 640:src/main.cpp  ****         s_atk_c   = ms_to_coeff(VOICE.attack_ms,  sr);
 2343              		.loc 6 640 9 is_stmt 1 view .LVU692
 2344              	.LBB688:
 2345              	.LBI688:
 538:src/main.cpp  ****     if(ms <= 0.0f) return 0.0f;            // instant
 2346              		.loc 6 538 21 view .LVU693
ARM GAS  /tmp/claude-502/ccb6uqMv.s 			page 73


 2347              	.LBE688:
 539:src/main.cpp  ****     return expf(-1.0f / (ms * 0.001f * sr));
 2348              		.loc 6 539 5 view .LVU694
 2349              	.LBB693:
 2350              	.LBB689:
 2351              	.LBI689:
 538:src/main.cpp  ****     if(ms <= 0.0f) return 0.0f;            // instant
 2352              		.loc 6 538 21 view .LVU695
 2353              	.LBB690:
 540:src/main.cpp  **** }
 2354              		.loc 6 540 5 view .LVU696
 540:src/main.cpp  **** }
 2355              		.loc 6 540 38 is_stmt 0 view .LVU697
 2356 0a70 9FED1A0A 		vldr.32	s0, .L135+28
 2357              	.LVL178:
 540:src/main.cpp  **** }
 2358              		.loc 6 540 16 view .LVU698
 2359 0a74 BFEE00AA 		vmov.f32	s20, #-1.0e+0
 2360              	.LBE690:
 2361              	.LBE689:
 2362              	.LBE693:
 640:src/main.cpp  ****         s_atk_c   = ms_to_coeff(VOICE.attack_ms,  sr);
 2363              		.loc 6 640 19 view .LVU699
 2364 0a78 194D     		ldr	r5, .L135+32
 2365              	.LBB694:
 2366              	.LBB692:
 2367              	.LBB691:
 540:src/main.cpp  **** }
 2368              		.loc 6 540 38 view .LVU700
 2369 0a7a 28EE000A 		vmul.f32	s0, s16, s0
 540:src/main.cpp  **** }
 2370              		.loc 6 540 16 view .LVU701
 2371 0a7e 8AEE000A 		vdiv.f32	s0, s20, s0
 2372 0a82 FFF7FEFF 		bl	expf
 2373              	.LVL179:
 540:src/main.cpp  **** }
 2374              		.loc 6 540 16 view .LVU702
 2375              	.LBE691:
 2376              	.LBE692:
 2377              	.LBE694:
 2378              	.LBB695:
 2379              	.LBB696:
 2380              	.LBB697:
 540:src/main.cpp  **** }
 2381              		.loc 6 540 38 view .LVU703
 2382 0a86 DFED177A 		vldr.32	s15, .L135+36
 2383              	.LBE697:
 2384              	.LBE696:
 2385              	.LBE695:
 640:src/main.cpp  ****         s_atk_c   = ms_to_coeff(VOICE.attack_ms,  sr);
 2386              		.loc 6 640 19 view .LVU704
 2387 0a8a 85ED000A 		vstr.32	s0, [r5]
 641:src/main.cpp  ****         s_rel_c   = ms_to_coeff(VOICE.release_ms, sr);
 2388              		.loc 6 641 9 is_stmt 1 view .LVU705
 2389              	.LVL180:
 2390              	.LBB700:
 2391              	.LBI695:
ARM GAS  /tmp/claude-502/ccb6uqMv.s 			page 74


 538:src/main.cpp  ****     if(ms <= 0.0f) return 0.0f;            // instant
 2392              		.loc 6 538 21 view .LVU706
 2393              	.LBE700:
 539:src/main.cpp  ****     return expf(-1.0f / (ms * 0.001f * sr));
 2394              		.loc 6 539 5 view .LVU707
 2395              	.LBB701:
 2396              	.LBB699:
 2397              	.LBI696:
 538:src/main.cpp  ****     if(ms <= 0.0f) return 0.0f;            // instant
 2398              		.loc 6 538 21 view .LVU708
 2399              	.LBB698:
 540:src/main.cpp  **** }
 2400              		.loc 6 540 5 view .LVU709
 540:src/main.cpp  **** }
 2401              		.loc 6 540 38 is_stmt 0 view .LVU710
 2402 0a8e 28EE270A 		vmul.f32	s0, s16, s15
 540:src/main.cpp  **** }
 2403              		.loc 6 540 16 view .LVU711
 2404 0a92 8AEE000A 		vdiv.f32	s0, s20, s0
 2405 0a96 FFF7FEFF 		bl	expf
 2406              	.LVL181:
 540:src/main.cpp  **** }
 2407              		.loc 6 540 16 view .LVU712
 2408              	.LBE698:
 2409              	.LBE699:
 2410              	.LBE701:
 641:src/main.cpp  ****         s_rel_c   = ms_to_coeff(VOICE.release_ms, sr);
 2411              		.loc 6 641 19 view .LVU713
 2412 0a9a 134B     		ldr	r3, .L135+40
 2413 0a9c 83ED000A 		vstr.32	s0, [r3]
 642:src/main.cpp  ****         s_coeff_init = true;
 2414              		.loc 6 642 9 is_stmt 1 view .LVU714
 2415              	.LVL182:
 2416              	.LBB702:
 2417              	.LBI702:
 538:src/main.cpp  ****     if(ms <= 0.0f) return 0.0f;            // instant
 2418              		.loc 6 538 21 view .LVU715
 2419              	.LBE702:
 539:src/main.cpp  ****     return expf(-1.0f / (ms * 0.001f * sr));
 2420              		.loc 6 539 5 view .LVU716
 2421              	.LBB705:
 2422              	.LBB703:
 2423              	.LBI703:
 538:src/main.cpp  ****     if(ms <= 0.0f) return 0.0f;            // instant
 2424              		.loc 6 538 21 view .LVU717
 2425              	.LBB704:
 540:src/main.cpp  **** }
 2426              		.loc 6 540 5 view .LVU718
 540:src/main.cpp  **** }
 2427              		.loc 6 540 38 is_stmt 0 view .LVU719
 2428 0aa0 F6EE007A 		vmov.f32	s15, #5.0e-1
 2429 0aa4 28EE270A 		vmul.f32	s0, s16, s15
 540:src/main.cpp  **** }
 2430              		.loc 6 540 16 view .LVU720
 2431 0aa8 8AEE000A 		vdiv.f32	s0, s20, s0
 2432 0aac FFF7FEFF 		bl	expf
 2433              	.LVL183:
ARM GAS  /tmp/claude-502/ccb6uqMv.s 			page 75


 540:src/main.cpp  **** }
 2434              		.loc 6 540 16 view .LVU721
 2435              	.LBE704:
 2436              	.LBE703:
 2437              	.LBE705:
 642:src/main.cpp  ****         s_coeff_init = true;
 2438              		.loc 6 642 19 view .LVU722
 2439 0ab0 0E4B     		ldr	r3, .L135+44
 2440 0ab2 83ED000A 		vstr.32	s0, [r3]
 643:src/main.cpp  ****     }
 2441              		.loc 6 643 9 is_stmt 1 view .LVU723
 643:src/main.cpp  ****     }
 2442              		.loc 6 643 22 is_stmt 0 view .LVU724
 2443 0ab6 0123     		movs	r3, #1
 2444 0ab8 2370     		strb	r3, [r4]
 2445 0aba FFF7DEBA 		b	.L6
 2446              	.L136:
 2447 0abe 00BF     		.align	2
 2448              	.L135:
 2449 0ac0 00000000 		.word	.LANCHOR30
 2450 0ac4 00000000 		.word	0
 2451 0ac8 00002042 		.word	1109393408
 2452 0acc 77BE7F3F 		.word	1065336439
 2453 0ad0 00481D3A 		.word	974997504
 2454 0ad4 AED87F3F 		.word	1065343150
 2455 0ad8 00401C47 		.word	1193033728
 2456 0adc 90C2F53C 		.word	1022739088
 2457 0ae0 00000000 		.word	.LANCHOR12
 2458 0ae4 0BD7233C 		.word	1008981771
 2459 0ae8 00000000 		.word	.LANCHOR13
 2460 0aec 00000000 		.word	.LANCHOR14
 2461              		.cfi_endproc
 2462              	.LFE2590:
 2464              		.section	.text._Z9i2c_startv,"ax",%progbits
 2465              		.align	1
 2466              		.p2align 2,,3
 2467              		.global	_Z9i2c_startv
 2468              		.syntax unified
 2469              		.thumb
 2470              		.thumb_func
 2472              	_Z9i2c_startv:
 2473              	.LFB2566:
 273:src/main.cpp  **** void i2c_stop() {sda_low();d();scl_high();d();sda_high();d();}
 2474              		.loc 6 273 17 is_stmt 1 view -0
 2475              		.cfi_startproc
 2476              		@ args = 0, pretend = 0, frame = 0
 2477              		@ frame_needed = 0, uses_anonymous_args = 0
 273:src/main.cpp  **** void i2c_stop() {sda_low();d();scl_high();d();sda_high();d();}
 2478              		.loc 6 273 18 view .LVU726
 2479              	.LBB722:
 2480              	.LBI722:
 267:src/main.cpp  **** inline void sda_low() {sda.Init(SDA_PIN,GPIO::Mode::OUTPUT,GPIO::Pull::NOPULL);sda.Write(false);}
 2481              		.loc 6 267 13 view .LVU727
 2482              	.LBB723:
 267:src/main.cpp  **** inline void sda_low() {sda.Init(SDA_PIN,GPIO::Mode::OUTPUT,GPIO::Pull::NOPULL);sda.Write(false);}
 2483              		.loc 6 267 24 view .LVU728
 2484              	.LBE723:
ARM GAS  /tmp/claude-502/ccb6uqMv.s 			page 76


 2485              	.LBE722:
 273:src/main.cpp  **** void i2c_stop() {sda_low();d();scl_high();d();sda_high();d();}
 2486              		.loc 6 273 17 is_stmt 0 view .LVU729
 2487 0000 2DE9F041 		push	{r4, r5, r6, r7, r8, lr}
 2488              		.cfi_def_cfa_offset 24
 2489              		.cfi_offset 4, -24
 2490              		.cfi_offset 5, -20
 2491              		.cfi_offset 6, -16
 2492              		.cfi_offset 7, -12
 2493              		.cfi_offset 8, -8
 2494              		.cfi_offset 14, -4
 2495              	.LBB728:
 2496              	.LBB724:
 267:src/main.cpp  **** inline void sda_low() {sda.Init(SDA_PIN,GPIO::Mode::OUTPUT,GPIO::Pull::NOPULL);sda.Write(false);}
 2497              		.loc 6 267 32 view .LVU730
 2498 0004 0024     		movs	r4, #0
 2499              	.LBE724:
 2500              	.LBE728:
 273:src/main.cpp  **** void i2c_stop() {sda_low();d();scl_high();d();sda_high();d();}
 2501              		.loc 6 273 17 view .LVU731
 2502 0006 82B0     		sub	sp, sp, #8
 2503              		.cfi_def_cfa_offset 32
 2504              	.LBB729:
 2505              	.LBB725:
 267:src/main.cpp  **** inline void sda_low() {sda.Init(SDA_PIN,GPIO::Mode::OUTPUT,GPIO::Pull::NOPULL);sda.Write(false);}
 2506              		.loc 6 267 32 view .LVU732
 2507 0008 1C4E     		ldr	r6, .L139
 2508 000a 0123     		movs	r3, #1
 2509 000c DFF87880 		ldr	r8, .L139+12
 2510 0010 2246     		mov	r2, r4
 2511              	.LBE725:
 2512              	.LBE729:
 2513              	.LBB730:
 2514              	.LBB731:
 269:src/main.cpp  **** inline void scl_low() {scl.Init(SCL_PIN,GPIO::Mode::OUTPUT,GPIO::Pull::NOPULL);scl.Write(false);}
 2515              		.loc 6 269 32 view .LVU733
 2516 0012 1B4D     		ldr	r5, .L139+4
 2517              	.LBE731:
 2518              	.LBE730:
 2519              	.LBB734:
 2520              	.LBB726:
 267:src/main.cpp  **** inline void sda_low() {sda.Init(SDA_PIN,GPIO::Mode::OUTPUT,GPIO::Pull::NOPULL);sda.Write(false);}
 2521              		.loc 6 267 32 view .LVU734
 2522 0014 3046     		mov	r0, r6
 2523 0016 D8F80010 		ldr	r1, [r8]
 2524              	.LBE726:
 2525              	.LBE734:
 2526              	.LBB735:
 2527              	.LBB732:
 269:src/main.cpp  **** inline void scl_low() {scl.Init(SCL_PIN,GPIO::Mode::OUTPUT,GPIO::Pull::NOPULL);scl.Write(false);}
 2528              		.loc 6 269 32 view .LVU735
 2529 001a 1A4F     		ldr	r7, .L139+8
 2530              	.LBE732:
 2531              	.LBE735:
 2532              	.LBB736:
 2533              	.LBB727:
 267:src/main.cpp  **** inline void sda_low() {sda.Init(SDA_PIN,GPIO::Mode::OUTPUT,GPIO::Pull::NOPULL);sda.Write(false);}
ARM GAS  /tmp/claude-502/ccb6uqMv.s 			page 77


 2534              		.loc 6 267 32 view .LVU736
 2535 001c 0094     		str	r4, [sp]
 2536 001e FFF7FEFF 		bl	_ZN5daisy4GPIO4InitENS_3PinENS0_4ModeENS0_4PullENS0_5SpeedE
 2537              	.LVL184:
 2538              	.LBE727:
 2539              	.LBE736:
 273:src/main.cpp  **** void i2c_stop() {sda_low();d();scl_high();d();sda_high();d();}
 2540              		.loc 6 273 29 is_stmt 1 view .LVU737
 2541              	.LBB737:
 2542              	.LBI737:
 271:src/main.cpp  **** 
 2543              		.loc 6 271 13 view .LVU738
 2544              	.LBB738:
 271:src/main.cpp  **** 
 2545              		.loc 6 271 17 view .LVU739
 271:src/main.cpp  **** 
 2546              		.loc 6 271 32 is_stmt 0 view .LVU740
 2547 0022 0520     		movs	r0, #5
 2548 0024 FFF7FEFF 		bl	_ZN5daisy6System7DelayUsEm
 2549              	.LVL185:
 2550              	.LBE738:
 2551              	.LBE737:
 273:src/main.cpp  **** void i2c_stop() {sda_low();d();scl_high();d();sda_high();d();}
 2552              		.loc 6 273 33 is_stmt 1 view .LVU741
 2553              	.LBB739:
 2554              	.LBI730:
 269:src/main.cpp  **** inline void scl_low() {scl.Init(SCL_PIN,GPIO::Mode::OUTPUT,GPIO::Pull::NOPULL);scl.Write(false);}
 2555              		.loc 6 269 13 view .LVU742
 2556              	.LBB733:
 269:src/main.cpp  **** inline void scl_low() {scl.Init(SCL_PIN,GPIO::Mode::OUTPUT,GPIO::Pull::NOPULL);scl.Write(false);}
 2557              		.loc 6 269 24 view .LVU743
 269:src/main.cpp  **** inline void scl_low() {scl.Init(SCL_PIN,GPIO::Mode::OUTPUT,GPIO::Pull::NOPULL);scl.Write(false);}
 2558              		.loc 6 269 32 is_stmt 0 view .LVU744
 2559 0028 2246     		mov	r2, r4
 2560 002a 3968     		ldr	r1, [r7]
 2561 002c 0123     		movs	r3, #1
 2562 002e 2846     		mov	r0, r5
 2563 0030 0094     		str	r4, [sp]
 2564 0032 FFF7FEFF 		bl	_ZN5daisy4GPIO4InitENS_3PinENS0_4ModeENS0_4PullENS0_5SpeedE
 2565              	.LVL186:
 2566              	.LBE733:
 2567              	.LBE739:
 273:src/main.cpp  **** void i2c_stop() {sda_low();d();scl_high();d();sda_high();d();}
 2568              		.loc 6 273 44 is_stmt 1 view .LVU745
 2569              	.LBB740:
 2570              	.LBI740:
 271:src/main.cpp  **** 
 2571              		.loc 6 271 13 view .LVU746
 2572              	.LBB741:
 271:src/main.cpp  **** 
 2573              		.loc 6 271 17 view .LVU747
 271:src/main.cpp  **** 
 2574              		.loc 6 271 32 is_stmt 0 view .LVU748
 2575 0036 0520     		movs	r0, #5
 2576 0038 FFF7FEFF 		bl	_ZN5daisy6System7DelayUsEm
 2577              	.LVL187:
 2578              	.LBE741:
ARM GAS  /tmp/claude-502/ccb6uqMv.s 			page 78


 2579              	.LBE740:
 273:src/main.cpp  **** void i2c_stop() {sda_low();d();scl_high();d();sda_high();d();}
 2580              		.loc 6 273 48 is_stmt 1 view .LVU749
 2581              	.LBB742:
 2582              	.LBI742:
 268:src/main.cpp  **** inline void scl_high(){scl.Init(SCL_PIN,GPIO::Mode::INPUT, GPIO::Pull::PULLUP);}
 2583              		.loc 6 268 13 view .LVU750
 2584              	.LBB743:
 268:src/main.cpp  **** inline void scl_high(){scl.Init(SCL_PIN,GPIO::Mode::INPUT, GPIO::Pull::PULLUP);}
 2585              		.loc 6 268 24 view .LVU751
 268:src/main.cpp  **** inline void scl_high(){scl.Init(SCL_PIN,GPIO::Mode::INPUT, GPIO::Pull::PULLUP);}
 2586              		.loc 6 268 32 is_stmt 0 view .LVU752
 2587 003c 2346     		mov	r3, r4
 2588 003e 0122     		movs	r2, #1
 2589 0040 D8F80010 		ldr	r1, [r8]
 2590 0044 3046     		mov	r0, r6
 2591 0046 0094     		str	r4, [sp]
 2592 0048 FFF7FEFF 		bl	_ZN5daisy4GPIO4InitENS_3PinENS0_4ModeENS0_4PullENS0_5SpeedE
 2593              	.LVL188:
 268:src/main.cpp  **** inline void scl_high(){scl.Init(SCL_PIN,GPIO::Mode::INPUT, GPIO::Pull::PULLUP);}
 2594              		.loc 6 268 80 is_stmt 1 view .LVU753
 268:src/main.cpp  **** inline void scl_high(){scl.Init(SCL_PIN,GPIO::Mode::INPUT, GPIO::Pull::PULLUP);}
 2595              		.loc 6 268 89 is_stmt 0 view .LVU754
 2596 004c 2146     		mov	r1, r4
 2597 004e 3046     		mov	r0, r6
 2598 0050 FFF7FEFF 		bl	_ZN5daisy4GPIO5WriteEb
 2599              	.LVL189:
 2600              	.LBE743:
 2601              	.LBE742:
 273:src/main.cpp  **** void i2c_stop() {sda_low();d();scl_high();d();sda_high();d();}
 2602              		.loc 6 273 58 is_stmt 1 view .LVU755
 2603              	.LBB744:
 2604              	.LBI744:
 271:src/main.cpp  **** 
 2605              		.loc 6 271 13 view .LVU756
 2606              	.LBB745:
 271:src/main.cpp  **** 
 2607              		.loc 6 271 17 view .LVU757
 271:src/main.cpp  **** 
 2608              		.loc 6 271 32 is_stmt 0 view .LVU758
 2609 0054 0520     		movs	r0, #5
 2610 0056 FFF7FEFF 		bl	_ZN5daisy6System7DelayUsEm
 2611              	.LVL190:
 2612              	.LBE745:
 2613              	.LBE744:
 273:src/main.cpp  **** void i2c_stop() {sda_low();d();scl_high();d();sda_high();d();}
 2614              		.loc 6 273 62 is_stmt 1 view .LVU759
 2615              	.LBB746:
 2616              	.LBI746:
 270:src/main.cpp  **** inline void d(){System::DelayUs(HP);}
 2617              		.loc 6 270 13 view .LVU760
 2618              	.LBB747:
 270:src/main.cpp  **** inline void d(){System::DelayUs(HP);}
 2619              		.loc 6 270 24 view .LVU761
 270:src/main.cpp  **** inline void d(){System::DelayUs(HP);}
 2620              		.loc 6 270 32 is_stmt 0 view .LVU762
 2621 005a 2346     		mov	r3, r4
ARM GAS  /tmp/claude-502/ccb6uqMv.s 			page 79


 2622 005c 0122     		movs	r2, #1
 2623 005e 3968     		ldr	r1, [r7]
 2624 0060 2846     		mov	r0, r5
 2625 0062 0094     		str	r4, [sp]
 2626 0064 FFF7FEFF 		bl	_ZN5daisy4GPIO4InitENS_3PinENS0_4ModeENS0_4PullENS0_5SpeedE
 2627              	.LVL191:
 270:src/main.cpp  **** inline void d(){System::DelayUs(HP);}
 2628              		.loc 6 270 80 is_stmt 1 view .LVU763
 270:src/main.cpp  **** inline void d(){System::DelayUs(HP);}
 2629              		.loc 6 270 89 is_stmt 0 view .LVU764
 2630 0068 2846     		mov	r0, r5
 2631 006a 2146     		mov	r1, r4
 2632 006c FFF7FEFF 		bl	_ZN5daisy4GPIO5WriteEb
 2633              	.LVL192:
 2634              	.LBE747:
 2635              	.LBE746:
 273:src/main.cpp  **** void i2c_stop() {sda_low();d();scl_high();d();sda_high();d();}
 2636              		.loc 6 273 72 is_stmt 1 view .LVU765
 2637              	.LBB748:
 2638              	.LBI748:
 271:src/main.cpp  **** 
 2639              		.loc 6 271 13 view .LVU766
 2640              	.LBB749:
 271:src/main.cpp  **** 
 2641              		.loc 6 271 17 view .LVU767
 271:src/main.cpp  **** 
 2642              		.loc 6 271 32 is_stmt 0 view .LVU768
 2643 0070 0520     		movs	r0, #5
 2644              	.LBE749:
 2645              	.LBE748:
 273:src/main.cpp  **** void i2c_stop() {sda_low();d();scl_high();d();sda_high();d();}
 2646              		.loc 6 273 76 view .LVU769
 2647 0072 02B0     		add	sp, sp, #8
 2648              		.cfi_def_cfa_offset 24
 2649              		@ sp needed
 2650 0074 BDE8F041 		pop	{r4, r5, r6, r7, r8, lr}
 2651              		.cfi_restore 14
 2652              		.cfi_restore 8
 2653              		.cfi_restore 7
 2654              		.cfi_restore 6
 2655              		.cfi_restore 5
 2656              		.cfi_restore 4
 2657              		.cfi_def_cfa_offset 0
 2658              	.LBB751:
 2659              	.LBB750:
 271:src/main.cpp  **** 
 2660              		.loc 6 271 32 view .LVU770
 2661 0078 FFF7FEBF 		b	_ZN5daisy6System7DelayUsEm
 2662              	.LVL193:
 2663              	.L140:
 2664              		.align	2
 2665              	.L139:
 2666 007c 00000000 		.word	.LANCHOR36
 2667 0080 00000000 		.word	.LANCHOR38
 2668 0084 00000000 		.word	.LANCHOR37
 2669 0088 00000000 		.word	.LANCHOR35
 2670              	.LBE750:
ARM GAS  /tmp/claude-502/ccb6uqMv.s 			page 80


 2671              	.LBE751:
 2672              		.cfi_endproc
 2673              	.LFE2566:
 2675              		.section	.text._Z8i2c_stopv,"ax",%progbits
 2676              		.align	1
 2677              		.p2align 2,,3
 2678              		.global	_Z8i2c_stopv
 2679              		.syntax unified
 2680              		.thumb
 2681              		.thumb_func
 2683              	_Z8i2c_stopv:
 2684              	.LFB2567:
 274:src/main.cpp  **** 
 2685              		.loc 6 274 17 is_stmt 1 view -0
 2686              		.cfi_startproc
 2687              		@ args = 0, pretend = 0, frame = 0
 2688              		@ frame_needed = 0, uses_anonymous_args = 0
 274:src/main.cpp  **** 
 2689              		.loc 6 274 18 view .LVU772
 2690              	.LBB764:
 2691              	.LBI764:
 268:src/main.cpp  **** inline void scl_high(){scl.Init(SCL_PIN,GPIO::Mode::INPUT, GPIO::Pull::PULLUP);}
 2692              		.loc 6 268 13 view .LVU773
 2693              	.LBB765:
 268:src/main.cpp  **** inline void scl_high(){scl.Init(SCL_PIN,GPIO::Mode::INPUT, GPIO::Pull::PULLUP);}
 2694              		.loc 6 268 24 view .LVU774
 2695              	.LBE765:
 2696              	.LBE764:
 274:src/main.cpp  **** 
 2697              		.loc 6 274 17 is_stmt 0 view .LVU775
 2698 0000 70B5     		push	{r4, r5, r6, lr}
 2699              		.cfi_def_cfa_offset 16
 2700              		.cfi_offset 4, -16
 2701              		.cfi_offset 5, -12
 2702              		.cfi_offset 6, -8
 2703              		.cfi_offset 14, -4
 2704              	.LBB768:
 2705              	.LBB766:
 268:src/main.cpp  **** inline void scl_high(){scl.Init(SCL_PIN,GPIO::Mode::INPUT, GPIO::Pull::PULLUP);}
 2706              		.loc 6 268 32 view .LVU776
 2707 0002 0024     		movs	r4, #0
 2708              	.LBE766:
 2709              	.LBE768:
 274:src/main.cpp  **** 
 2710              		.loc 6 274 17 view .LVU777
 2711 0004 82B0     		sub	sp, sp, #8
 2712              		.cfi_def_cfa_offset 24
 2713              	.LBB769:
 2714              	.LBB767:
 268:src/main.cpp  **** inline void scl_high(){scl.Init(SCL_PIN,GPIO::Mode::INPUT, GPIO::Pull::PULLUP);}
 2715              		.loc 6 268 32 view .LVU778
 2716 0006 144D     		ldr	r5, .L143
 2717 0008 0122     		movs	r2, #1
 2718 000a 144E     		ldr	r6, .L143+4
 2719 000c 2346     		mov	r3, r4
 2720 000e 2846     		mov	r0, r5
 2721 0010 0094     		str	r4, [sp]
ARM GAS  /tmp/claude-502/ccb6uqMv.s 			page 81


 2722 0012 3168     		ldr	r1, [r6]
 2723 0014 FFF7FEFF 		bl	_ZN5daisy4GPIO4InitENS_3PinENS0_4ModeENS0_4PullENS0_5SpeedE
 2724              	.LVL194:
 268:src/main.cpp  **** inline void scl_high(){scl.Init(SCL_PIN,GPIO::Mode::INPUT, GPIO::Pull::PULLUP);}
 2725              		.loc 6 268 80 is_stmt 1 view .LVU779
 268:src/main.cpp  **** inline void scl_high(){scl.Init(SCL_PIN,GPIO::Mode::INPUT, GPIO::Pull::PULLUP);}
 2726              		.loc 6 268 89 is_stmt 0 view .LVU780
 2727 0018 2146     		mov	r1, r4
 2728 001a 2846     		mov	r0, r5
 2729 001c FFF7FEFF 		bl	_ZN5daisy4GPIO5WriteEb
 2730              	.LVL195:
 2731              	.LBE767:
 2732              	.LBE769:
 274:src/main.cpp  **** 
 2733              		.loc 6 274 28 is_stmt 1 view .LVU781
 2734              	.LBB770:
 2735              	.LBI770:
 271:src/main.cpp  **** 
 2736              		.loc 6 271 13 view .LVU782
 2737              	.LBB771:
 271:src/main.cpp  **** 
 2738              		.loc 6 271 17 view .LVU783
 271:src/main.cpp  **** 
 2739              		.loc 6 271 32 is_stmt 0 view .LVU784
 2740 0020 0520     		movs	r0, #5
 2741 0022 FFF7FEFF 		bl	_ZN5daisy6System7DelayUsEm
 2742              	.LVL196:
 2743              	.LBE771:
 2744              	.LBE770:
 274:src/main.cpp  **** 
 2745              		.loc 6 274 32 is_stmt 1 view .LVU785
 2746              	.LBB772:
 2747              	.LBI772:
 269:src/main.cpp  **** inline void scl_low() {scl.Init(SCL_PIN,GPIO::Mode::OUTPUT,GPIO::Pull::NOPULL);scl.Write(false);}
 2748              		.loc 6 269 13 view .LVU786
 2749              	.LBB773:
 269:src/main.cpp  **** inline void scl_low() {scl.Init(SCL_PIN,GPIO::Mode::OUTPUT,GPIO::Pull::NOPULL);scl.Write(false);}
 2750              		.loc 6 269 24 view .LVU787
 269:src/main.cpp  **** inline void scl_low() {scl.Init(SCL_PIN,GPIO::Mode::OUTPUT,GPIO::Pull::NOPULL);scl.Write(false);}
 2751              		.loc 6 269 32 is_stmt 0 view .LVU788
 2752 0026 0E4A     		ldr	r2, .L143+8
 2753 0028 0123     		movs	r3, #1
 2754 002a 0E48     		ldr	r0, .L143+12
 2755 002c 1168     		ldr	r1, [r2]
 2756 002e 2246     		mov	r2, r4
 2757 0030 0094     		str	r4, [sp]
 2758 0032 FFF7FEFF 		bl	_ZN5daisy4GPIO4InitENS_3PinENS0_4ModeENS0_4PullENS0_5SpeedE
 2759              	.LVL197:
 2760              	.LBE773:
 2761              	.LBE772:
 274:src/main.cpp  **** 
 2762              		.loc 6 274 43 is_stmt 1 view .LVU789
 2763              	.LBB774:
 2764              	.LBI774:
 271:src/main.cpp  **** 
 2765              		.loc 6 271 13 view .LVU790
 2766              	.LBB775:
ARM GAS  /tmp/claude-502/ccb6uqMv.s 			page 82


 271:src/main.cpp  **** 
 2767              		.loc 6 271 17 view .LVU791
 271:src/main.cpp  **** 
 2768              		.loc 6 271 32 is_stmt 0 view .LVU792
 2769 0036 0520     		movs	r0, #5
 2770 0038 FFF7FEFF 		bl	_ZN5daisy6System7DelayUsEm
 2771              	.LVL198:
 2772              	.LBE775:
 2773              	.LBE774:
 274:src/main.cpp  **** 
 2774              		.loc 6 274 47 is_stmt 1 view .LVU793
 2775              	.LBB776:
 2776              	.LBI776:
 267:src/main.cpp  **** inline void sda_low() {sda.Init(SDA_PIN,GPIO::Mode::OUTPUT,GPIO::Pull::NOPULL);sda.Write(false);}
 2777              		.loc 6 267 13 view .LVU794
 2778              	.LBB777:
 267:src/main.cpp  **** inline void sda_low() {sda.Init(SDA_PIN,GPIO::Mode::OUTPUT,GPIO::Pull::NOPULL);sda.Write(false);}
 2779              		.loc 6 267 24 view .LVU795
 267:src/main.cpp  **** inline void sda_low() {sda.Init(SDA_PIN,GPIO::Mode::OUTPUT,GPIO::Pull::NOPULL);sda.Write(false);}
 2780              		.loc 6 267 32 is_stmt 0 view .LVU796
 2781 003c 2846     		mov	r0, r5
 2782 003e 0123     		movs	r3, #1
 2783 0040 2246     		mov	r2, r4
 2784 0042 3168     		ldr	r1, [r6]
 2785 0044 0094     		str	r4, [sp]
 2786 0046 FFF7FEFF 		bl	_ZN5daisy4GPIO4InitENS_3PinENS0_4ModeENS0_4PullENS0_5SpeedE
 2787              	.LVL199:
 2788              	.LBE777:
 2789              	.LBE776:
 274:src/main.cpp  **** 
 2790              		.loc 6 274 58 is_stmt 1 view .LVU797
 2791              	.LBB778:
 2792              	.LBI778:
 271:src/main.cpp  **** 
 2793              		.loc 6 271 13 view .LVU798
 2794              	.LBB779:
 271:src/main.cpp  **** 
 2795              		.loc 6 271 17 view .LVU799
 271:src/main.cpp  **** 
 2796              		.loc 6 271 32 is_stmt 0 view .LVU800
 2797 004a 0520     		movs	r0, #5
 2798              	.LBE779:
 2799              	.LBE778:
 274:src/main.cpp  **** 
 2800              		.loc 6 274 62 view .LVU801
 2801 004c 02B0     		add	sp, sp, #8
 2802              		.cfi_def_cfa_offset 16
 2803              		@ sp needed
 2804 004e BDE87040 		pop	{r4, r5, r6, lr}
 2805              		.cfi_restore 14
 2806              		.cfi_restore 6
 2807              		.cfi_restore 5
 2808              		.cfi_restore 4
 2809              		.cfi_def_cfa_offset 0
 2810              	.LBB781:
 2811              	.LBB780:
 271:src/main.cpp  **** 
ARM GAS  /tmp/claude-502/ccb6uqMv.s 			page 83


 2812              		.loc 6 271 32 view .LVU802
 2813 0052 FFF7FEBF 		b	_ZN5daisy6System7DelayUsEm
 2814              	.LVL200:
 2815              	.L144:
 2816 0056 00BF     		.align	2
 2817              	.L143:
 2818 0058 00000000 		.word	.LANCHOR36
 2819 005c 00000000 		.word	.LANCHOR35
 2820 0060 00000000 		.word	.LANCHOR37
 2821 0064 00000000 		.word	.LANCHOR38
 2822              	.LBE780:
 2823              	.LBE781:
 2824              		.cfi_endproc
 2825              	.LFE2567:
 2827              		.section	.text._Z14i2c_write_byteh,"ax",%progbits
 2828              		.align	1
 2829              		.p2align 2,,3
 2830              		.global	_Z14i2c_write_byteh
 2831              		.syntax unified
 2832              		.thumb
 2833              		.thumb_func
 2835              	_Z14i2c_write_byteh:
 2836              	.LVL201:
 2837              	.LFB2568:
 277:src/main.cpp  ****     for(int i=7;i>=0;i--){
 2838              		.loc 6 277 1 is_stmt 1 view -0
 2839              		.cfi_startproc
 2840              		@ args = 0, pretend = 0, frame = 0
 2841              		@ frame_needed = 0, uses_anonymous_args = 0
 278:src/main.cpp  ****         if(byte&(1<<i))sda_high();else sda_low();
 2842              		.loc 6 278 5 view .LVU804
 2843              	.LBB809:
 278:src/main.cpp  ****         if(byte&(1<<i))sda_high();else sda_low();
 2844              		.loc 6 278 18 view .LVU805
 2845              	.LBE809:
 277:src/main.cpp  ****     for(int i=7;i>=0;i--){
 2846              		.loc 6 277 1 is_stmt 0 view .LVU806
 2847 0000 2DE9F041 		push	{r4, r5, r6, r7, r8, lr}
 2848              		.cfi_def_cfa_offset 24
 2849              		.cfi_offset 4, -24
 2850              		.cfi_offset 5, -20
 2851              		.cfi_offset 6, -16
 2852              		.cfi_offset 7, -12
 2853              		.cfi_offset 8, -8
 2854              		.cfi_offset 14, -4
 2855              	.LBB840:
 278:src/main.cpp  ****         if(byte&(1<<i))sda_high();else sda_low();
 2856              		.loc 6 278 13 view .LVU807
 2857 0004 0725     		movs	r5, #7
 2858              	.LBE840:
 277:src/main.cpp  ****     for(int i=7;i>=0;i--){
 2859              		.loc 6 277 1 view .LVU808
 2860 0006 82B0     		sub	sp, sp, #8
 2861              		.cfi_def_cfa_offset 32
 2862 0008 DFF8E480 		ldr	r8, .L153+12
 277:src/main.cpp  ****     for(int i=7;i>=0;i--){
 2863              		.loc 6 277 1 view .LVU809
ARM GAS  /tmp/claude-502/ccb6uqMv.s 			page 84


 2864 000c 0746     		mov	r7, r0
 2865 000e 354E     		ldr	r6, .L153
 2866 0010 25E0     		b	.L148
 2867              	.LVL202:
 2868              	.L152:
 2869              	.LBB841:
 2870              	.LBB810:
 2871              	.LBB811:
 267:src/main.cpp  **** inline void sda_low() {sda.Init(SDA_PIN,GPIO::Mode::OUTPUT,GPIO::Pull::NOPULL);sda.Write(false);}
 2872              		.loc 6 267 32 view .LVU810
 2873 0012 6246     		mov	r2, ip
 2874 0014 D8F80010 		ldr	r1, [r8]
 2875 0018 CDF800C0 		str	ip, [sp]
 2876 001c FFF7FEFF 		bl	_ZN5daisy4GPIO4InitENS_3PinENS0_4ModeENS0_4PullENS0_5SpeedE
 2877              	.LVL203:
 2878              	.L147:
 2879              	.LBE811:
 2880              	.LBE810:
 280:src/main.cpp  ****     }
 2881              		.loc 6 280 9 is_stmt 1 discriminator 2 view .LVU811
 2882              	.LBB815:
 2883              	.LBI815:
 271:src/main.cpp  **** 
 2884              		.loc 6 271 13 discriminator 2 view .LVU812
 2885              	.LBB816:
 271:src/main.cpp  **** 
 2886              		.loc 6 271 17 discriminator 2 view .LVU813
 2887              	.LBE816:
 2888              	.LBE815:
 2889              	.LBB818:
 2890              	.LBB819:
 269:src/main.cpp  **** inline void scl_low() {scl.Init(SCL_PIN,GPIO::Mode::OUTPUT,GPIO::Pull::NOPULL);scl.Write(false);}
 2891              		.loc 6 269 32 is_stmt 0 discriminator 2 view .LVU814
 2892 0020 0024     		movs	r4, #0
 2893              	.LBE819:
 2894              	.LBE818:
 2895              	.LBB822:
 2896              	.LBB817:
 271:src/main.cpp  **** 
 2897              		.loc 6 271 32 discriminator 2 view .LVU815
 2898 0022 0520     		movs	r0, #5
 2899 0024 FFF7FEFF 		bl	_ZN5daisy6System7DelayUsEm
 2900              	.LVL204:
 2901              	.LBE817:
 2902              	.LBE822:
 280:src/main.cpp  ****     }
 2903              		.loc 6 280 13 is_stmt 1 discriminator 2 view .LVU816
 2904              	.LBB823:
 2905              	.LBI818:
 269:src/main.cpp  **** inline void scl_low() {scl.Init(SCL_PIN,GPIO::Mode::OUTPUT,GPIO::Pull::NOPULL);scl.Write(false);}
 2906              		.loc 6 269 13 discriminator 2 view .LVU817
 2907              	.LBB820:
 269:src/main.cpp  **** inline void scl_low() {scl.Init(SCL_PIN,GPIO::Mode::OUTPUT,GPIO::Pull::NOPULL);scl.Write(false);}
 2908              		.loc 6 269 24 discriminator 2 view .LVU818
 269:src/main.cpp  **** inline void scl_low() {scl.Init(SCL_PIN,GPIO::Mode::OUTPUT,GPIO::Pull::NOPULL);scl.Write(false);}
 2909              		.loc 6 269 32 is_stmt 0 discriminator 2 view .LVU819
 2910 0028 0123     		movs	r3, #1
ARM GAS  /tmp/claude-502/ccb6uqMv.s 			page 85


 2911 002a 2246     		mov	r2, r4
 2912 002c 3168     		ldr	r1, [r6]
 2913 002e 2E48     		ldr	r0, .L153+4
 2914              	.LBE820:
 2915              	.LBE823:
 278:src/main.cpp  ****         if(byte&(1<<i))sda_high();else sda_low();
 2916              		.loc 6 278 5 discriminator 2 view .LVU820
 2917 0030 013D     		subs	r5, r5, #1
 2918              	.LVL205:
 2919              	.LBB824:
 2920              	.LBB821:
 269:src/main.cpp  **** inline void scl_low() {scl.Init(SCL_PIN,GPIO::Mode::OUTPUT,GPIO::Pull::NOPULL);scl.Write(false);}
 2921              		.loc 6 269 32 discriminator 2 view .LVU821
 2922 0032 0094     		str	r4, [sp]
 2923 0034 FFF7FEFF 		bl	_ZN5daisy4GPIO4InitENS_3PinENS0_4ModeENS0_4PullENS0_5SpeedE
 2924              	.LVL206:
 2925              	.LBE821:
 2926              	.LBE824:
 280:src/main.cpp  ****     }
 2927              		.loc 6 280 24 is_stmt 1 discriminator 2 view .LVU822
 2928              	.LBB825:
 2929              	.LBI825:
 271:src/main.cpp  **** 
 2930              		.loc 6 271 13 discriminator 2 view .LVU823
 2931              	.LBB826:
 271:src/main.cpp  **** 
 2932              		.loc 6 271 17 discriminator 2 view .LVU824
 271:src/main.cpp  **** 
 2933              		.loc 6 271 32 is_stmt 0 discriminator 2 view .LVU825
 2934 0038 0520     		movs	r0, #5
 2935 003a FFF7FEFF 		bl	_ZN5daisy6System7DelayUsEm
 2936              	.LVL207:
 2937              	.LBE826:
 2938              	.LBE825:
 280:src/main.cpp  ****     }
 2939              		.loc 6 280 28 is_stmt 1 discriminator 2 view .LVU826
 2940              	.LBB827:
 2941              	.LBI827:
 270:src/main.cpp  **** inline void d(){System::DelayUs(HP);}
 2942              		.loc 6 270 13 discriminator 2 view .LVU827
 2943              	.LBB828:
 270:src/main.cpp  **** inline void d(){System::DelayUs(HP);}
 2944              		.loc 6 270 24 discriminator 2 view .LVU828
 270:src/main.cpp  **** inline void d(){System::DelayUs(HP);}
 2945              		.loc 6 270 32 is_stmt 0 discriminator 2 view .LVU829
 2946 003e 2346     		mov	r3, r4
 2947 0040 0122     		movs	r2, #1
 2948 0042 2948     		ldr	r0, .L153+4
 2949 0044 3168     		ldr	r1, [r6]
 2950 0046 0094     		str	r4, [sp]
 2951 0048 FFF7FEFF 		bl	_ZN5daisy4GPIO4InitENS_3PinENS0_4ModeENS0_4PullENS0_5SpeedE
 2952              	.LVL208:
 270:src/main.cpp  **** inline void d(){System::DelayUs(HP);}
 2953              		.loc 6 270 80 is_stmt 1 discriminator 2 view .LVU830
 270:src/main.cpp  **** inline void d(){System::DelayUs(HP);}
 2954              		.loc 6 270 89 is_stmt 0 discriminator 2 view .LVU831
 2955 004c 2146     		mov	r1, r4
ARM GAS  /tmp/claude-502/ccb6uqMv.s 			page 86


 2956 004e 2648     		ldr	r0, .L153+4
 2957 0050 FFF7FEFF 		bl	_ZN5daisy4GPIO5WriteEb
 2958              	.LVL209:
 2959              	.LBE828:
 2960              	.LBE827:
 280:src/main.cpp  ****     }
 2961              		.loc 6 280 38 is_stmt 1 discriminator 2 view .LVU832
 2962              	.LBB829:
 2963              	.LBI829:
 271:src/main.cpp  **** 
 2964              		.loc 6 271 13 discriminator 2 view .LVU833
 2965              	.LBB830:
 271:src/main.cpp  **** 
 2966              		.loc 6 271 17 discriminator 2 view .LVU834
 271:src/main.cpp  **** 
 2967              		.loc 6 271 32 is_stmt 0 discriminator 2 view .LVU835
 2968 0054 0520     		movs	r0, #5
 2969 0056 FFF7FEFF 		bl	_ZN5daisy6System7DelayUsEm
 2970              	.LVL210:
 2971              	.LBE830:
 2972              	.LBE829:
 278:src/main.cpp  ****         if(byte&(1<<i))sda_high();else sda_low();
 2973              		.loc 6 278 5 is_stmt 1 discriminator 2 view .LVU836
 278:src/main.cpp  ****         if(byte&(1<<i))sda_high();else sda_low();
 2974              		.loc 6 278 18 discriminator 2 view .LVU837
 2975 005a 6B1C     		adds	r3, r5, #1
 2976 005c 14D0     		beq	.L151
 2977              	.LVL211:
 2978              	.L148:
 279:src/main.cpp  ****         d();scl_high();d();scl_low();d();
 2979              		.loc 6 279 9 view .LVU838
 279:src/main.cpp  ****         d();scl_high();d();scl_low();d();
 2980              		.loc 6 279 24 view .LVU839
 2981              	.LBB831:
 2982              	.LBI810:
 267:src/main.cpp  **** inline void sda_low() {sda.Init(SDA_PIN,GPIO::Mode::OUTPUT,GPIO::Pull::NOPULL);sda.Write(false);}
 2983              		.loc 6 267 13 view .LVU840
 2984              	.LBB812:
 267:src/main.cpp  **** inline void sda_low() {sda.Init(SDA_PIN,GPIO::Mode::OUTPUT,GPIO::Pull::NOPULL);sda.Write(false);}
 2985              		.loc 6 267 24 view .LVU841
 2986              	.LBE812:
 2987              	.LBE831:
 279:src/main.cpp  ****         d();scl_high();d();scl_low();d();
 2988              		.loc 6 279 40 view .LVU842
 2989              	.LBB832:
 2990              	.LBI832:
 268:src/main.cpp  **** inline void scl_high(){scl.Init(SCL_PIN,GPIO::Mode::INPUT, GPIO::Pull::PULLUP);}
 2991              		.loc 6 268 13 view .LVU843
 2992              	.LBB833:
 268:src/main.cpp  **** inline void scl_high(){scl.Init(SCL_PIN,GPIO::Mode::INPUT, GPIO::Pull::PULLUP);}
 2993              		.loc 6 268 24 view .LVU844
 268:src/main.cpp  **** inline void scl_high(){scl.Init(SCL_PIN,GPIO::Mode::INPUT, GPIO::Pull::PULLUP);}
 2994              		.loc 6 268 32 is_stmt 0 view .LVU845
 2995 005e 0122     		movs	r2, #1
 2996              	.LBE833:
 2997              	.LBE832:
 279:src/main.cpp  ****         d();scl_high();d();scl_low();d();
ARM GAS  /tmp/claude-502/ccb6uqMv.s 			page 87


 2998              		.loc 6 279 16 view .LVU846
 2999 0060 47FA05F1 		asr	r1, r7, r5
 3000              	.LBB836:
 3001              	.LBB813:
 267:src/main.cpp  **** inline void sda_low() {sda.Init(SDA_PIN,GPIO::Mode::OUTPUT,GPIO::Pull::NOPULL);sda.Write(false);}
 3002              		.loc 6 267 32 view .LVU847
 3003 0064 4FF0000C 		mov	ip, #0
 3004              	.LBE813:
 3005              	.LBE836:
 3006              	.LBB837:
 3007              	.LBB834:
 268:src/main.cpp  **** inline void scl_high(){scl.Init(SCL_PIN,GPIO::Mode::INPUT, GPIO::Pull::PULLUP);}
 3008              		.loc 6 268 32 view .LVU848
 3009 0068 2048     		ldr	r0, .L153+8
 3010              	.LBE834:
 3011              	.LBE837:
 279:src/main.cpp  ****         d();scl_high();d();scl_low();d();
 3012              		.loc 6 279 9 view .LVU849
 3013 006a 11EA0204 		ands	r4, r1, r2
 3014              	.LBB838:
 3015              	.LBB814:
 267:src/main.cpp  **** inline void sda_low() {sda.Init(SDA_PIN,GPIO::Mode::OUTPUT,GPIO::Pull::NOPULL);sda.Write(false);}
 3016              		.loc 6 267 32 view .LVU850
 3017 006e 1346     		mov	r3, r2
 3018              	.LBE814:
 3019              	.LBE838:
 279:src/main.cpp  ****         d();scl_high();d();scl_low();d();
 3020              		.loc 6 279 9 view .LVU851
 3021 0070 CFD1     		bne	.L152
 3022              	.LBB839:
 3023              	.LBB835:
 268:src/main.cpp  **** inline void scl_high(){scl.Init(SCL_PIN,GPIO::Mode::INPUT, GPIO::Pull::PULLUP);}
 3024              		.loc 6 268 32 view .LVU852
 3025 0072 D8F80010 		ldr	r1, [r8]
 3026 0076 2346     		mov	r3, r4
 3027 0078 0094     		str	r4, [sp]
 3028 007a FFF7FEFF 		bl	_ZN5daisy4GPIO4InitENS_3PinENS0_4ModeENS0_4PullENS0_5SpeedE
 3029              	.LVL212:
 268:src/main.cpp  **** inline void scl_high(){scl.Init(SCL_PIN,GPIO::Mode::INPUT, GPIO::Pull::PULLUP);}
 3030              		.loc 6 268 80 is_stmt 1 view .LVU853
 268:src/main.cpp  **** inline void scl_high(){scl.Init(SCL_PIN,GPIO::Mode::INPUT, GPIO::Pull::PULLUP);}
 3031              		.loc 6 268 89 is_stmt 0 view .LVU854
 3032 007e 2146     		mov	r1, r4
 3033 0080 1A48     		ldr	r0, .L153+8
 3034 0082 FFF7FEFF 		bl	_ZN5daisy4GPIO5WriteEb
 3035              	.LVL213:
 268:src/main.cpp  **** inline void scl_high(){scl.Init(SCL_PIN,GPIO::Mode::INPUT, GPIO::Pull::PULLUP);}
 3036              		.loc 6 268 97 view .LVU855
 3037 0086 CBE7     		b	.L147
 3038              	.L151:
 268:src/main.cpp  **** inline void scl_high(){scl.Init(SCL_PIN,GPIO::Mode::INPUT, GPIO::Pull::PULLUP);}
 3039              		.loc 6 268 97 view .LVU856
 3040              	.LBE835:
 3041              	.LBE839:
 3042              	.LBE841:
 282:src/main.cpp  ****     bool ack=!sda.Read();
 3043              		.loc 6 282 5 is_stmt 1 view .LVU857
ARM GAS  /tmp/claude-502/ccb6uqMv.s 			page 88


 3044              	.LBB842:
 3045              	.LBI842:
 267:src/main.cpp  **** inline void sda_low() {sda.Init(SDA_PIN,GPIO::Mode::OUTPUT,GPIO::Pull::NOPULL);sda.Write(false);}
 3046              		.loc 6 267 13 view .LVU858
 3047              	.LBB843:
 267:src/main.cpp  **** inline void sda_low() {sda.Init(SDA_PIN,GPIO::Mode::OUTPUT,GPIO::Pull::NOPULL);sda.Write(false);}
 3048              		.loc 6 267 24 view .LVU859
 267:src/main.cpp  **** inline void sda_low() {sda.Init(SDA_PIN,GPIO::Mode::OUTPUT,GPIO::Pull::NOPULL);sda.Write(false);}
 3049              		.loc 6 267 32 is_stmt 0 view .LVU860
 3050 0088 2246     		mov	r2, r4
 3051 008a D8F80010 		ldr	r1, [r8]
 3052 008e 0123     		movs	r3, #1
 3053 0090 1648     		ldr	r0, .L153+8
 3054 0092 0094     		str	r4, [sp]
 3055 0094 FFF7FEFF 		bl	_ZN5daisy4GPIO4InitENS_3PinENS0_4ModeENS0_4PullENS0_5SpeedE
 3056              	.LVL214:
 3057              	.LBE843:
 3058              	.LBE842:
 282:src/main.cpp  ****     bool ack=!sda.Read();
 3059              		.loc 6 282 16 is_stmt 1 view .LVU861
 3060              	.LBB844:
 3061              	.LBI844:
 271:src/main.cpp  **** 
 3062              		.loc 6 271 13 view .LVU862
 3063              	.LBB845:
 271:src/main.cpp  **** 
 3064              		.loc 6 271 17 view .LVU863
 271:src/main.cpp  **** 
 3065              		.loc 6 271 32 is_stmt 0 view .LVU864
 3066 0098 0520     		movs	r0, #5
 3067 009a FFF7FEFF 		bl	_ZN5daisy6System7DelayUsEm
 3068              	.LVL215:
 3069              	.LBE845:
 3070              	.LBE844:
 282:src/main.cpp  ****     bool ack=!sda.Read();
 3071              		.loc 6 282 20 is_stmt 1 view .LVU865
 3072              	.LBB846:
 3073              	.LBI846:
 269:src/main.cpp  **** inline void scl_low() {scl.Init(SCL_PIN,GPIO::Mode::OUTPUT,GPIO::Pull::NOPULL);scl.Write(false);}
 3074              		.loc 6 269 13 view .LVU866
 3075              	.LBB847:
 269:src/main.cpp  **** inline void scl_low() {scl.Init(SCL_PIN,GPIO::Mode::OUTPUT,GPIO::Pull::NOPULL);scl.Write(false);}
 3076              		.loc 6 269 24 view .LVU867
 269:src/main.cpp  **** inline void scl_low() {scl.Init(SCL_PIN,GPIO::Mode::OUTPUT,GPIO::Pull::NOPULL);scl.Write(false);}
 3077              		.loc 6 269 32 is_stmt 0 view .LVU868
 3078 009e 2246     		mov	r2, r4
 3079 00a0 3168     		ldr	r1, [r6]
 3080 00a2 0123     		movs	r3, #1
 3081 00a4 1048     		ldr	r0, .L153+4
 3082 00a6 0094     		str	r4, [sp]
 3083 00a8 FFF7FEFF 		bl	_ZN5daisy4GPIO4InitENS_3PinENS0_4ModeENS0_4PullENS0_5SpeedE
 3084              	.LVL216:
 3085              	.LBE847:
 3086              	.LBE846:
 282:src/main.cpp  ****     bool ack=!sda.Read();
 3087              		.loc 6 282 31 is_stmt 1 view .LVU869
 3088              	.LBB848:
ARM GAS  /tmp/claude-502/ccb6uqMv.s 			page 89


 3089              	.LBI848:
 271:src/main.cpp  **** 
 3090              		.loc 6 271 13 view .LVU870
 3091              	.LBB849:
 271:src/main.cpp  **** 
 3092              		.loc 6 271 17 view .LVU871
 271:src/main.cpp  **** 
 3093              		.loc 6 271 32 is_stmt 0 view .LVU872
 3094 00ac 0520     		movs	r0, #5
 3095 00ae FFF7FEFF 		bl	_ZN5daisy6System7DelayUsEm
 3096              	.LVL217:
 3097              	.LBE849:
 3098              	.LBE848:
 283:src/main.cpp  ****     scl_low();d();
 3099              		.loc 6 283 5 is_stmt 1 view .LVU873
 283:src/main.cpp  ****     scl_low();d();
 3100              		.loc 6 283 23 is_stmt 0 view .LVU874
 3101 00b2 0E48     		ldr	r0, .L153+8
 3102 00b4 FFF7FEFF 		bl	_ZN5daisy4GPIO4ReadEv
 3103              	.LVL218:
 3104              	.LBB850:
 3105              	.LBB851:
 270:src/main.cpp  **** inline void d(){System::DelayUs(HP);}
 3106              		.loc 6 270 32 view .LVU875
 3107 00b8 2346     		mov	r3, r4
 3108 00ba 0122     		movs	r2, #1
 3109 00bc 3168     		ldr	r1, [r6]
 3110              	.LBE851:
 3111              	.LBE850:
 283:src/main.cpp  ****     scl_low();d();
 3112              		.loc 6 283 23 view .LVU876
 3113 00be 0546     		mov	r5, r0
 3114              	.LVL219:
 284:src/main.cpp  ****     return ack;
 3115              		.loc 6 284 5 is_stmt 1 view .LVU877
 3116              	.LBB853:
 3117              	.LBI850:
 270:src/main.cpp  **** inline void d(){System::DelayUs(HP);}
 3118              		.loc 6 270 13 view .LVU878
 3119              	.LBB852:
 270:src/main.cpp  **** inline void d(){System::DelayUs(HP);}
 3120              		.loc 6 270 24 view .LVU879
 270:src/main.cpp  **** inline void d(){System::DelayUs(HP);}
 3121              		.loc 6 270 32 is_stmt 0 view .LVU880
 3122 00c0 0094     		str	r4, [sp]
 3123 00c2 0948     		ldr	r0, .L153+4
 3124 00c4 FFF7FEFF 		bl	_ZN5daisy4GPIO4InitENS_3PinENS0_4ModeENS0_4PullENS0_5SpeedE
 3125              	.LVL220:
 270:src/main.cpp  **** inline void d(){System::DelayUs(HP);}
 3126              		.loc 6 270 80 is_stmt 1 view .LVU881
 270:src/main.cpp  **** inline void d(){System::DelayUs(HP);}
 3127              		.loc 6 270 89 is_stmt 0 view .LVU882
 3128 00c8 2146     		mov	r1, r4
 3129 00ca 0748     		ldr	r0, .L153+4
 3130 00cc FFF7FEFF 		bl	_ZN5daisy4GPIO5WriteEb
 3131              	.LVL221:
 3132              	.LBE852:
ARM GAS  /tmp/claude-502/ccb6uqMv.s 			page 90


 3133              	.LBE853:
 284:src/main.cpp  ****     return ack;
 3134              		.loc 6 284 15 is_stmt 1 view .LVU883
 3135              	.LBB854:
 3136              	.LBI854:
 271:src/main.cpp  **** 
 3137              		.loc 6 271 13 view .LVU884
 3138              	.LBB855:
 271:src/main.cpp  **** 
 3139              		.loc 6 271 17 view .LVU885
 271:src/main.cpp  **** 
 3140              		.loc 6 271 32 is_stmt 0 view .LVU886
 3141 00d0 0520     		movs	r0, #5
 3142 00d2 FFF7FEFF 		bl	_ZN5daisy6System7DelayUsEm
 3143              	.LVL222:
 3144              	.LBE855:
 3145              	.LBE854:
 285:src/main.cpp  **** }
 3146              		.loc 6 285 5 is_stmt 1 view .LVU887
 283:src/main.cpp  ****     scl_low();d();
 3147              		.loc 6 283 24 is_stmt 0 view .LVU888
 3148 00d6 85F00100 		eor	r0, r5, #1
 286:src/main.cpp  **** 
 3149              		.loc 6 286 1 view .LVU889
 3150 00da C0B2     		uxtb	r0, r0
 3151 00dc 02B0     		add	sp, sp, #8
 3152              		.cfi_def_cfa_offset 24
 3153              		@ sp needed
 3154 00de BDE8F081 		pop	{r4, r5, r6, r7, r8, pc}
 3155              	.LVL223:
 3156              	.L154:
 286:src/main.cpp  **** 
 3157              		.loc 6 286 1 view .LVU890
 3158 00e2 00BF     		.align	2
 3159              	.L153:
 3160 00e4 00000000 		.word	.LANCHOR37
 3161 00e8 00000000 		.word	.LANCHOR38
 3162 00ec 00000000 		.word	.LANCHOR36
 3163 00f0 00000000 		.word	.LANCHOR35
 3164              		.cfi_endproc
 3165              	.LFE2568:
 3167              		.section	.text._Z13i2c_read_byteb,"ax",%progbits
 3168              		.align	1
 3169              		.p2align 2,,3
 3170              		.global	_Z13i2c_read_byteb
 3171              		.syntax unified
 3172              		.thumb
 3173              		.thumb_func
 3175              	_Z13i2c_read_byteb:
 3176              	.LVL224:
 3177              	.LFB2569:
 289:src/main.cpp  ****     uint8_t b=0;sda_high();
 3178              		.loc 6 289 1 is_stmt 1 view -0
 3179              		.cfi_startproc
 3180              		@ args = 0, pretend = 0, frame = 0
 3181              		@ frame_needed = 0, uses_anonymous_args = 0
 290:src/main.cpp  ****     for(int i=7;i>=0;i--){d();scl_high();d();if(sda.Read())b|=(1<<i);scl_low();}
ARM GAS  /tmp/claude-502/ccb6uqMv.s 			page 91


 3182              		.loc 6 290 5 view .LVU892
 290:src/main.cpp  ****     for(int i=7;i>=0;i--){d();scl_high();d();if(sda.Read())b|=(1<<i);scl_low();}
 3183              		.loc 6 290 17 view .LVU893
 3184              	.LBB883:
 3185              	.LBI883:
 267:src/main.cpp  **** inline void sda_low() {sda.Init(SDA_PIN,GPIO::Mode::OUTPUT,GPIO::Pull::NOPULL);sda.Write(false);}
 3186              		.loc 6 267 13 view .LVU894
 3187              	.LBB884:
 267:src/main.cpp  **** inline void sda_low() {sda.Init(SDA_PIN,GPIO::Mode::OUTPUT,GPIO::Pull::NOPULL);sda.Write(false);}
 3188              		.loc 6 267 24 view .LVU895
 3189              	.LBE884:
 3190              	.LBE883:
 289:src/main.cpp  ****     uint8_t b=0;sda_high();
 3191              		.loc 6 289 1 is_stmt 0 view .LVU896
 3192 0000 2DE9F043 		push	{r4, r5, r6, r7, r8, r9, lr}
 3193              		.cfi_def_cfa_offset 28
 3194              		.cfi_offset 4, -28
 3195              		.cfi_offset 5, -24
 3196              		.cfi_offset 6, -20
 3197              		.cfi_offset 7, -16
 3198              		.cfi_offset 8, -12
 3199              		.cfi_offset 9, -8
 3200              		.cfi_offset 14, -4
 3201              	.LBB890:
 3202              	.LBB885:
 267:src/main.cpp  **** inline void sda_low() {sda.Init(SDA_PIN,GPIO::Mode::OUTPUT,GPIO::Pull::NOPULL);sda.Write(false);}
 3203              		.loc 6 267 32 view .LVU897
 3204 0004 0022     		movs	r2, #0
 3205              	.LBE885:
 3206              	.LBE890:
 289:src/main.cpp  ****     uint8_t b=0;sda_high();
 3207              		.loc 6 289 1 view .LVU898
 3208 0006 83B0     		sub	sp, sp, #12
 3209              		.cfi_def_cfa_offset 40
 3210              	.LBB891:
 3211              	.LBB886:
 267:src/main.cpp  **** inline void sda_low() {sda.Init(SDA_PIN,GPIO::Mode::OUTPUT,GPIO::Pull::NOPULL);sda.Write(false);}
 3212              		.loc 6 267 32 view .LVU899
 3213 0008 DFF8F480 		ldr	r8, .L165+12
 3214              	.LBE886:
 3215              	.LBE891:
 289:src/main.cpp  ****     uint8_t b=0;sda_high();
 3216              		.loc 6 289 1 view .LVU900
 3217 000c 0746     		mov	r7, r0
 3218              	.LBB892:
 3219              	.LBB887:
 267:src/main.cpp  **** inline void sda_low() {sda.Init(SDA_PIN,GPIO::Mode::OUTPUT,GPIO::Pull::NOPULL);sda.Write(false);}
 3220              		.loc 6 267 32 view .LVU901
 3221 000e 0123     		movs	r3, #1
 3222 0010 3848     		ldr	r0, .L165
 3223              	.LVL225:
 267:src/main.cpp  **** inline void sda_low() {sda.Init(SDA_PIN,GPIO::Mode::OUTPUT,GPIO::Pull::NOPULL);sda.Write(false);}
 3224              		.loc 6 267 32 view .LVU902
 3225 0012 D8F80010 		ldr	r1, [r8]
 3226              	.LBE887:
 3227              	.LBE892:
 290:src/main.cpp  ****     for(int i=7;i>=0;i--){d();scl_high();d();if(sda.Read())b|=(1<<i);scl_low();}
ARM GAS  /tmp/claude-502/ccb6uqMv.s 			page 92


 3228              		.loc 6 290 13 view .LVU903
 3229 0016 9146     		mov	r9, r2
 3230              	.LBB893:
 3231              	.LBB888:
 267:src/main.cpp  **** inline void sda_low() {sda.Init(SDA_PIN,GPIO::Mode::OUTPUT,GPIO::Pull::NOPULL);sda.Write(false);}
 3232              		.loc 6 267 32 view .LVU904
 3233 0018 0092     		str	r2, [sp]
 3234              	.LBE888:
 3235              	.LBE893:
 3236              	.LBB894:
 291:src/main.cpp  ****     if(ack)sda_low();else sda_high();
 3237              		.loc 6 291 13 view .LVU905
 3238 001a 0725     		movs	r5, #7
 3239 001c 364E     		ldr	r6, .L165+4
 3240              	.LBE894:
 3241              	.LBB913:
 3242              	.LBB889:
 267:src/main.cpp  **** inline void sda_low() {sda.Init(SDA_PIN,GPIO::Mode::OUTPUT,GPIO::Pull::NOPULL);sda.Write(false);}
 3243              		.loc 6 267 32 view .LVU906
 3244 001e FFF7FEFF 		bl	_ZN5daisy4GPIO4InitENS_3PinENS0_4ModeENS0_4PullENS0_5SpeedE
 3245              	.LVL226:
 267:src/main.cpp  **** inline void sda_low() {sda.Init(SDA_PIN,GPIO::Mode::OUTPUT,GPIO::Pull::NOPULL);sda.Write(false);}
 3246              		.loc 6 267 32 view .LVU907
 3247              	.LBE889:
 3248              	.LBE913:
 3249              	.LBB914:
 291:src/main.cpp  ****     if(ack)sda_low();else sda_high();
 3250              		.loc 6 291 18 is_stmt 1 view .LVU908
 3251              	.L157:
 291:src/main.cpp  ****     if(ack)sda_low();else sda_high();
 3252              		.loc 6 291 27 view .LVU909
 3253              	.LBB895:
 3254              	.LBI895:
 271:src/main.cpp  **** 
 3255              		.loc 6 271 13 view .LVU910
 3256              	.LBB896:
 271:src/main.cpp  **** 
 3257              		.loc 6 271 17 view .LVU911
 3258              	.LBE896:
 3259              	.LBE895:
 3260              	.LBB898:
 3261              	.LBB899:
 270:src/main.cpp  **** inline void d(){System::DelayUs(HP);}
 3262              		.loc 6 270 32 is_stmt 0 view .LVU912
 3263 0022 0024     		movs	r4, #0
 3264              	.LBE899:
 3265              	.LBE898:
 3266              	.LBB904:
 3267              	.LBB897:
 271:src/main.cpp  **** 
 3268              		.loc 6 271 32 view .LVU913
 3269 0024 0520     		movs	r0, #5
 3270 0026 FFF7FEFF 		bl	_ZN5daisy6System7DelayUsEm
 3271              	.LVL227:
 3272              	.LBE897:
 3273              	.LBE904:
 291:src/main.cpp  ****     if(ack)sda_low();else sda_high();
ARM GAS  /tmp/claude-502/ccb6uqMv.s 			page 93


 3274              		.loc 6 291 31 is_stmt 1 view .LVU914
 3275              	.LBB905:
 3276              	.LBI905:
 269:src/main.cpp  **** inline void scl_low() {scl.Init(SCL_PIN,GPIO::Mode::OUTPUT,GPIO::Pull::NOPULL);scl.Write(false);}
 3277              		.loc 6 269 13 view .LVU915
 3278              	.LBB906:
 269:src/main.cpp  **** inline void scl_low() {scl.Init(SCL_PIN,GPIO::Mode::OUTPUT,GPIO::Pull::NOPULL);scl.Write(false);}
 3279              		.loc 6 269 24 view .LVU916
 269:src/main.cpp  **** inline void scl_low() {scl.Init(SCL_PIN,GPIO::Mode::OUTPUT,GPIO::Pull::NOPULL);scl.Write(false);}
 3280              		.loc 6 269 32 is_stmt 0 view .LVU917
 3281 002a 0123     		movs	r3, #1
 3282 002c 2246     		mov	r2, r4
 3283 002e 3168     		ldr	r1, [r6]
 3284 0030 3248     		ldr	r0, .L165+8
 3285 0032 0094     		str	r4, [sp]
 3286 0034 FFF7FEFF 		bl	_ZN5daisy4GPIO4InitENS_3PinENS0_4ModeENS0_4PullENS0_5SpeedE
 3287              	.LVL228:
 3288              	.LBE906:
 3289              	.LBE905:
 291:src/main.cpp  ****     if(ack)sda_low();else sda_high();
 3290              		.loc 6 291 42 is_stmt 1 view .LVU918
 3291              	.LBB907:
 3292              	.LBI907:
 271:src/main.cpp  **** 
 3293              		.loc 6 271 13 view .LVU919
 3294              	.LBB908:
 271:src/main.cpp  **** 
 3295              		.loc 6 271 17 view .LVU920
 271:src/main.cpp  **** 
 3296              		.loc 6 271 32 is_stmt 0 view .LVU921
 3297 0038 0520     		movs	r0, #5
 3298 003a FFF7FEFF 		bl	_ZN5daisy6System7DelayUsEm
 3299              	.LVL229:
 3300              	.LBE908:
 3301              	.LBE907:
 291:src/main.cpp  ****     if(ack)sda_low();else sda_high();
 3302              		.loc 6 291 46 is_stmt 1 view .LVU922
 291:src/main.cpp  ****     if(ack)sda_low();else sda_high();
 3303              		.loc 6 291 57 is_stmt 0 view .LVU923
 3304 003e 2D48     		ldr	r0, .L165
 3305 0040 FFF7FEFF 		bl	_ZN5daisy4GPIO4ReadEv
 3306              	.LVL230:
 291:src/main.cpp  ****     if(ack)sda_low();else sda_high();
 3307              		.loc 6 291 60 is_stmt 1 view .LVU924
 291:src/main.cpp  ****     if(ack)sda_low();else sda_high();
 3308              		.loc 6 291 65 is_stmt 0 view .LVU925
 3309 0044 0121     		movs	r1, #1
 291:src/main.cpp  ****     if(ack)sda_low();else sda_high();
 3310              		.loc 6 291 57 view .LVU926
 3311 0046 8646     		mov	lr, r0
 3312              	.LBB909:
 3313              	.LBB900:
 270:src/main.cpp  **** inline void d(){System::DelayUs(HP);}
 3314              		.loc 6 270 32 view .LVU927
 3315 0048 2346     		mov	r3, r4
 3316              	.LBE900:
 3317              	.LBE909:
ARM GAS  /tmp/claude-502/ccb6uqMv.s 			page 94


 291:src/main.cpp  ****     if(ack)sda_low();else sda_high();
 3318              		.loc 6 291 65 view .LVU928
 3319 004a 01FA05FC 		lsl	ip, r1, r5
 3320              	.LBB910:
 3321              	.LBB901:
 270:src/main.cpp  **** inline void d(){System::DelayUs(HP);}
 3322              		.loc 6 270 32 view .LVU929
 3323 004e 0A46     		mov	r2, r1
 3324 0050 2A48     		ldr	r0, .L165+8
 3325              	.LBE901:
 3326              	.LBE910:
 291:src/main.cpp  ****     if(ack)sda_low();else sda_high();
 3327              		.loc 6 291 5 view .LVU930
 3328 0052 013D     		subs	r5, r5, #1
 3329              	.LVL231:
 3330              	.LBB911:
 3331              	.LBB902:
 270:src/main.cpp  **** inline void d(){System::DelayUs(HP);}
 3332              		.loc 6 270 32 view .LVU931
 3333 0054 3168     		ldr	r1, [r6]
 3334              	.LBE902:
 3335              	.LBE911:
 291:src/main.cpp  ****     if(ack)sda_low();else sda_high();
 3336              		.loc 6 291 46 view .LVU932
 3337 0056 BEF1000F 		cmp	lr, #0
 3338 005a 03D0     		beq	.L156
 291:src/main.cpp  ****     if(ack)sda_low();else sda_high();
 3339              		.loc 6 291 61 discriminator 3 view .LVU933
 3340 005c 4CEA090C 		orr	ip, ip, r9
 3341 0060 5FFA8CF9 		uxtb	r9, ip
 3342              	.LVL232:
 3343              	.L156:
 291:src/main.cpp  ****     if(ack)sda_low();else sda_high();
 3344              		.loc 6 291 70 is_stmt 1 discriminator 5 view .LVU934
 3345              	.LBB912:
 3346              	.LBI898:
 270:src/main.cpp  **** inline void d(){System::DelayUs(HP);}
 3347              		.loc 6 270 13 discriminator 5 view .LVU935
 3348              	.LBB903:
 270:src/main.cpp  **** inline void d(){System::DelayUs(HP);}
 3349              		.loc 6 270 24 discriminator 5 view .LVU936
 270:src/main.cpp  **** inline void d(){System::DelayUs(HP);}
 3350              		.loc 6 270 32 is_stmt 0 discriminator 5 view .LVU937
 3351 0064 0094     		str	r4, [sp]
 3352 0066 FFF7FEFF 		bl	_ZN5daisy4GPIO4InitENS_3PinENS0_4ModeENS0_4PullENS0_5SpeedE
 3353              	.LVL233:
 270:src/main.cpp  **** inline void d(){System::DelayUs(HP);}
 3354              		.loc 6 270 80 is_stmt 1 discriminator 5 view .LVU938
 270:src/main.cpp  **** inline void d(){System::DelayUs(HP);}
 3355              		.loc 6 270 89 is_stmt 0 discriminator 5 view .LVU939
 3356 006a 2146     		mov	r1, r4
 3357 006c 2348     		ldr	r0, .L165+8
 3358 006e FFF7FEFF 		bl	_ZN5daisy4GPIO5WriteEb
 3359              	.LVL234:
 3360              	.LBE903:
 3361              	.LBE912:
 291:src/main.cpp  ****     if(ack)sda_low();else sda_high();
ARM GAS  /tmp/claude-502/ccb6uqMv.s 			page 95


 3362              		.loc 6 291 5 is_stmt 1 discriminator 5 view .LVU940
 291:src/main.cpp  ****     if(ack)sda_low();else sda_high();
 3363              		.loc 6 291 18 discriminator 5 view .LVU941
 3364 0072 6B1C     		adds	r3, r5, #1
 3365 0074 D5D1     		bne	.L157
 291:src/main.cpp  ****     if(ack)sda_low();else sda_high();
 3366              		.loc 6 291 18 is_stmt 0 discriminator 5 view .LVU942
 3367              	.LBE914:
 292:src/main.cpp  ****     d();scl_high();d();scl_low();d();sda_high();
 3368              		.loc 6 292 5 is_stmt 1 view .LVU943
 3369 0076 002F     		cmp	r7, #0
 3370 0078 33D0     		beq	.L158
 292:src/main.cpp  ****     d();scl_high();d();scl_low();d();sda_high();
 3371              		.loc 6 292 12 view .LVU944
 3372              	.LBB915:
 3373              	.LBI915:
 268:src/main.cpp  **** inline void scl_high(){scl.Init(SCL_PIN,GPIO::Mode::INPUT, GPIO::Pull::PULLUP);}
 3374              		.loc 6 268 13 view .LVU945
 3375              	.LBB916:
 268:src/main.cpp  **** inline void scl_high(){scl.Init(SCL_PIN,GPIO::Mode::INPUT, GPIO::Pull::PULLUP);}
 3376              		.loc 6 268 24 view .LVU946
 268:src/main.cpp  **** inline void scl_high(){scl.Init(SCL_PIN,GPIO::Mode::INPUT, GPIO::Pull::PULLUP);}
 3377              		.loc 6 268 32 is_stmt 0 view .LVU947
 3378 007a D8F80010 		ldr	r1, [r8]
 3379 007e 2346     		mov	r3, r4
 3380 0080 1C48     		ldr	r0, .L165
 3381 0082 0122     		movs	r2, #1
 3382 0084 0094     		str	r4, [sp]
 3383 0086 FFF7FEFF 		bl	_ZN5daisy4GPIO4InitENS_3PinENS0_4ModeENS0_4PullENS0_5SpeedE
 3384              	.LVL235:
 268:src/main.cpp  **** inline void scl_high(){scl.Init(SCL_PIN,GPIO::Mode::INPUT, GPIO::Pull::PULLUP);}
 3385              		.loc 6 268 80 is_stmt 1 view .LVU948
 268:src/main.cpp  **** inline void scl_high(){scl.Init(SCL_PIN,GPIO::Mode::INPUT, GPIO::Pull::PULLUP);}
 3386              		.loc 6 268 89 is_stmt 0 view .LVU949
 3387 008a 2146     		mov	r1, r4
 3388 008c 1948     		ldr	r0, .L165
 3389 008e FFF7FEFF 		bl	_ZN5daisy4GPIO5WriteEb
 3390              	.LVL236:
 3391              	.L159:
 268:src/main.cpp  **** inline void scl_high(){scl.Init(SCL_PIN,GPIO::Mode::INPUT, GPIO::Pull::PULLUP);}
 3392              		.loc 6 268 89 view .LVU950
 3393              	.LBE916:
 3394              	.LBE915:
 293:src/main.cpp  ****     return b;
 3395              		.loc 6 293 5 is_stmt 1 view .LVU951
 3396              	.LBB917:
 3397              	.LBI917:
 271:src/main.cpp  **** 
 3398              		.loc 6 271 13 view .LVU952
 3399              	.LBB918:
 271:src/main.cpp  **** 
 3400              		.loc 6 271 17 view .LVU953
 3401              	.LBE918:
 3402              	.LBE917:
 3403              	.LBB920:
 3404              	.LBB921:
 269:src/main.cpp  **** inline void scl_low() {scl.Init(SCL_PIN,GPIO::Mode::OUTPUT,GPIO::Pull::NOPULL);scl.Write(false);}
ARM GAS  /tmp/claude-502/ccb6uqMv.s 			page 96


 3405              		.loc 6 269 32 is_stmt 0 view .LVU954
 3406 0092 0024     		movs	r4, #0
 3407              	.LBE921:
 3408              	.LBE920:
 3409              	.LBB923:
 3410              	.LBB919:
 271:src/main.cpp  **** 
 3411              		.loc 6 271 32 view .LVU955
 3412 0094 0520     		movs	r0, #5
 3413 0096 FFF7FEFF 		bl	_ZN5daisy6System7DelayUsEm
 3414              	.LVL237:
 3415              	.LBE919:
 3416              	.LBE923:
 293:src/main.cpp  ****     return b;
 3417              		.loc 6 293 9 is_stmt 1 view .LVU956
 3418              	.LBB924:
 3419              	.LBI920:
 269:src/main.cpp  **** inline void scl_low() {scl.Init(SCL_PIN,GPIO::Mode::OUTPUT,GPIO::Pull::NOPULL);scl.Write(false);}
 3420              		.loc 6 269 13 view .LVU957
 3421              	.LBB922:
 269:src/main.cpp  **** inline void scl_low() {scl.Init(SCL_PIN,GPIO::Mode::OUTPUT,GPIO::Pull::NOPULL);scl.Write(false);}
 3422              		.loc 6 269 24 view .LVU958
 269:src/main.cpp  **** inline void scl_low() {scl.Init(SCL_PIN,GPIO::Mode::OUTPUT,GPIO::Pull::NOPULL);scl.Write(false);}
 3423              		.loc 6 269 32 is_stmt 0 view .LVU959
 3424 009a 3168     		ldr	r1, [r6]
 3425 009c 2246     		mov	r2, r4
 3426 009e 0123     		movs	r3, #1
 3427 00a0 1648     		ldr	r0, .L165+8
 3428 00a2 0094     		str	r4, [sp]
 3429 00a4 FFF7FEFF 		bl	_ZN5daisy4GPIO4InitENS_3PinENS0_4ModeENS0_4PullENS0_5SpeedE
 3430              	.LVL238:
 3431              	.LBE922:
 3432              	.LBE924:
 293:src/main.cpp  ****     return b;
 3433              		.loc 6 293 20 is_stmt 1 view .LVU960
 3434              	.LBB925:
 3435              	.LBI925:
 271:src/main.cpp  **** 
 3436              		.loc 6 271 13 view .LVU961
 3437              	.LBB926:
 271:src/main.cpp  **** 
 3438              		.loc 6 271 17 view .LVU962
 271:src/main.cpp  **** 
 3439              		.loc 6 271 32 is_stmt 0 view .LVU963
 3440 00a8 0520     		movs	r0, #5
 3441 00aa FFF7FEFF 		bl	_ZN5daisy6System7DelayUsEm
 3442              	.LVL239:
 3443              	.LBE926:
 3444              	.LBE925:
 293:src/main.cpp  ****     return b;
 3445              		.loc 6 293 24 is_stmt 1 view .LVU964
 3446              	.LBB927:
 3447              	.LBI927:
 270:src/main.cpp  **** inline void d(){System::DelayUs(HP);}
 3448              		.loc 6 270 13 view .LVU965
 3449              	.LBB928:
 270:src/main.cpp  **** inline void d(){System::DelayUs(HP);}
ARM GAS  /tmp/claude-502/ccb6uqMv.s 			page 97


 3450              		.loc 6 270 24 view .LVU966
 270:src/main.cpp  **** inline void d(){System::DelayUs(HP);}
 3451              		.loc 6 270 32 is_stmt 0 view .LVU967
 3452 00ae 2346     		mov	r3, r4
 3453 00b0 0122     		movs	r2, #1
 3454 00b2 3168     		ldr	r1, [r6]
 3455 00b4 1148     		ldr	r0, .L165+8
 3456 00b6 0094     		str	r4, [sp]
 3457 00b8 FFF7FEFF 		bl	_ZN5daisy4GPIO4InitENS_3PinENS0_4ModeENS0_4PullENS0_5SpeedE
 3458              	.LVL240:
 270:src/main.cpp  **** inline void d(){System::DelayUs(HP);}
 3459              		.loc 6 270 80 is_stmt 1 view .LVU968
 270:src/main.cpp  **** inline void d(){System::DelayUs(HP);}
 3460              		.loc 6 270 89 is_stmt 0 view .LVU969
 3461 00bc 2146     		mov	r1, r4
 3462 00be 0F48     		ldr	r0, .L165+8
 3463 00c0 FFF7FEFF 		bl	_ZN5daisy4GPIO5WriteEb
 3464              	.LVL241:
 3465              	.LBE928:
 3466              	.LBE927:
 293:src/main.cpp  ****     return b;
 3467              		.loc 6 293 34 is_stmt 1 view .LVU970
 3468              	.LBB929:
 3469              	.LBI929:
 271:src/main.cpp  **** 
 3470              		.loc 6 271 13 view .LVU971
 3471              	.LBB930:
 271:src/main.cpp  **** 
 3472              		.loc 6 271 17 view .LVU972
 271:src/main.cpp  **** 
 3473              		.loc 6 271 32 is_stmt 0 view .LVU973
 3474 00c4 0520     		movs	r0, #5
 3475 00c6 FFF7FEFF 		bl	_ZN5daisy6System7DelayUsEm
 3476              	.LVL242:
 3477              	.LBE930:
 3478              	.LBE929:
 293:src/main.cpp  ****     return b;
 3479              		.loc 6 293 38 is_stmt 1 view .LVU974
 3480              	.LBB931:
 3481              	.LBI931:
 267:src/main.cpp  **** inline void sda_low() {sda.Init(SDA_PIN,GPIO::Mode::OUTPUT,GPIO::Pull::NOPULL);sda.Write(false);}
 3482              		.loc 6 267 13 view .LVU975
 3483              	.LBB932:
 267:src/main.cpp  **** inline void sda_low() {sda.Init(SDA_PIN,GPIO::Mode::OUTPUT,GPIO::Pull::NOPULL);sda.Write(false);}
 3484              		.loc 6 267 24 view .LVU976
 267:src/main.cpp  **** inline void sda_low() {sda.Init(SDA_PIN,GPIO::Mode::OUTPUT,GPIO::Pull::NOPULL);sda.Write(false);}
 3485              		.loc 6 267 32 is_stmt 0 view .LVU977
 3486 00ca 0123     		movs	r3, #1
 3487 00cc 2246     		mov	r2, r4
 3488 00ce D8F80010 		ldr	r1, [r8]
 3489 00d2 0848     		ldr	r0, .L165
 3490 00d4 0094     		str	r4, [sp]
 3491 00d6 FFF7FEFF 		bl	_ZN5daisy4GPIO4InitENS_3PinENS0_4ModeENS0_4PullENS0_5SpeedE
 3492              	.LVL243:
 3493              	.LBE932:
 3494              	.LBE931:
 294:src/main.cpp  **** }
ARM GAS  /tmp/claude-502/ccb6uqMv.s 			page 98


 3495              		.loc 6 294 5 is_stmt 1 view .LVU978
 295:src/main.cpp  **** 
 3496              		.loc 6 295 1 is_stmt 0 view .LVU979
 3497 00da 4846     		mov	r0, r9
 3498 00dc 03B0     		add	sp, sp, #12
 3499              		.cfi_remember_state
 3500              		.cfi_def_cfa_offset 28
 3501              		@ sp needed
 3502 00de BDE8F083 		pop	{r4, r5, r6, r7, r8, r9, pc}
 3503              	.LVL244:
 3504              	.L158:
 3505              		.cfi_restore_state
 292:src/main.cpp  ****     d();scl_high();d();scl_low();d();sda_high();
 3506              		.loc 6 292 27 is_stmt 1 view .LVU980
 3507              	.LBB933:
 3508              	.LBI933:
 267:src/main.cpp  **** inline void sda_low() {sda.Init(SDA_PIN,GPIO::Mode::OUTPUT,GPIO::Pull::NOPULL);sda.Write(false);}
 3509              		.loc 6 267 13 view .LVU981
 3510              	.LBB934:
 267:src/main.cpp  **** inline void sda_low() {sda.Init(SDA_PIN,GPIO::Mode::OUTPUT,GPIO::Pull::NOPULL);sda.Write(false);}
 3511              		.loc 6 267 24 view .LVU982
 267:src/main.cpp  **** inline void sda_low() {sda.Init(SDA_PIN,GPIO::Mode::OUTPUT,GPIO::Pull::NOPULL);sda.Write(false);}
 3512              		.loc 6 267 32 is_stmt 0 view .LVU983
 3513 00e2 0123     		movs	r3, #1
 3514 00e4 3A46     		mov	r2, r7
 3515 00e6 D8F80010 		ldr	r1, [r8]
 3516 00ea 0248     		ldr	r0, .L165
 3517 00ec 0097     		str	r7, [sp]
 3518 00ee FFF7FEFF 		bl	_ZN5daisy4GPIO4InitENS_3PinENS0_4ModeENS0_4PullENS0_5SpeedE
 3519              	.LVL245:
 267:src/main.cpp  **** inline void sda_low() {sda.Init(SDA_PIN,GPIO::Mode::OUTPUT,GPIO::Pull::NOPULL);sda.Write(false);}
 3520              		.loc 6 267 80 view .LVU984
 3521 00f2 CEE7     		b	.L159
 3522              	.L166:
 3523              		.align	2
 3524              	.L165:
 3525 00f4 00000000 		.word	.LANCHOR36
 3526 00f8 00000000 		.word	.LANCHOR37
 3527 00fc 00000000 		.word	.LANCHOR38
 3528 0100 00000000 		.word	.LANCHOR35
 3529              	.LBE934:
 3530              	.LBE933:
 3531              		.cfi_endproc
 3532              	.LFE2569:
 3534              		.section	.text._Z9mpr_writehh,"ax",%progbits
 3535              		.align	1
 3536              		.p2align 2,,3
 3537              		.global	_Z9mpr_writehh
 3538              		.syntax unified
 3539              		.thumb
 3540              		.thumb_func
 3542              	_Z9mpr_writehh:
 3543              	.LVL246:
 3544              	.LFB2570:
 298:src/main.cpp  ****     i2c_start();
 3545              		.loc 6 298 1 is_stmt 1 view -0
 3546              		.cfi_startproc
ARM GAS  /tmp/claude-502/ccb6uqMv.s 			page 99


 3547              		@ args = 0, pretend = 0, frame = 0
 3548              		@ frame_needed = 0, uses_anonymous_args = 0
 299:src/main.cpp  ****     if(!i2c_write_byte((MPR_ADDR<<1)|0)){i2c_stop();return false;}
 3549              		.loc 6 299 5 view .LVU986
 298:src/main.cpp  ****     i2c_start();
 3550              		.loc 6 298 1 is_stmt 0 view .LVU987
 3551 0000 38B5     		push	{r3, r4, r5, lr}
 3552              		.cfi_def_cfa_offset 16
 3553              		.cfi_offset 3, -16
 3554              		.cfi_offset 4, -12
 3555              		.cfi_offset 5, -8
 3556              		.cfi_offset 14, -4
 298:src/main.cpp  ****     i2c_start();
 3557              		.loc 6 298 1 view .LVU988
 3558 0002 0446     		mov	r4, r0
 3559 0004 0D46     		mov	r5, r1
 299:src/main.cpp  ****     if(!i2c_write_byte((MPR_ADDR<<1)|0)){i2c_stop();return false;}
 3560              		.loc 6 299 14 view .LVU989
 3561 0006 FFF7FEFF 		bl	_Z9i2c_startv
 3562              	.LVL247:
 300:src/main.cpp  ****     if(!i2c_write_byte(reg))            {i2c_stop();return false;}
 3563              		.loc 6 300 5 is_stmt 1 view .LVU990
 300:src/main.cpp  ****     if(!i2c_write_byte(reg))            {i2c_stop();return false;}
 3564              		.loc 6 300 23 is_stmt 0 view .LVU991
 3565 000a B420     		movs	r0, #180
 3566 000c FFF7FEFF 		bl	_Z14i2c_write_byteh
 3567              	.LVL248:
 300:src/main.cpp  ****     if(!i2c_write_byte(reg))            {i2c_stop();return false;}
 3568              		.loc 6 300 5 view .LVU992
 3569 0010 60B1     		cbz	r0, .L170
 301:src/main.cpp  ****     if(!i2c_write_byte(val))            {i2c_stop();return false;}
 3570              		.loc 6 301 5 is_stmt 1 view .LVU993
 301:src/main.cpp  ****     if(!i2c_write_byte(val))            {i2c_stop();return false;}
 3571              		.loc 6 301 23 is_stmt 0 view .LVU994
 3572 0012 2046     		mov	r0, r4
 3573 0014 FFF7FEFF 		bl	_Z14i2c_write_byteh
 3574              	.LVL249:
 301:src/main.cpp  ****     if(!i2c_write_byte(val))            {i2c_stop();return false;}
 3575              		.loc 6 301 5 view .LVU995
 3576 0018 40B1     		cbz	r0, .L170
 3577              	.LVL250:
 3578              	.LBB937:
 3579              	.LBI937:
 297:src/main.cpp  **** {
 3580              		.loc 6 297 6 is_stmt 1 view .LVU996
 3581              	.LBB938:
 302:src/main.cpp  ****     i2c_stop();return true;
 3582              		.loc 6 302 5 view .LVU997
 302:src/main.cpp  ****     i2c_stop();return true;
 3583              		.loc 6 302 23 is_stmt 0 view .LVU998
 3584 001a 2846     		mov	r0, r5
 3585 001c FFF7FEFF 		bl	_Z14i2c_write_byteh
 3586              	.LVL251:
 302:src/main.cpp  ****     i2c_stop();return true;
 3587              		.loc 6 302 5 view .LVU999
 3588 0020 0446     		mov	r4, r0
 3589              	.LVL252:
ARM GAS  /tmp/claude-502/ccb6uqMv.s 			page 100


 302:src/main.cpp  ****     i2c_stop();return true;
 3590              		.loc 6 302 5 view .LVU1000
 3591 0022 18B1     		cbz	r0, .L170
 303:src/main.cpp  **** }
 3592              		.loc 6 303 5 is_stmt 1 view .LVU1001
 303:src/main.cpp  **** }
 3593              		.loc 6 303 13 is_stmt 0 view .LVU1002
 3594 0024 FFF7FEFF 		bl	_Z8i2c_stopv
 3595              	.LVL253:
 303:src/main.cpp  **** }
 3596              		.loc 6 303 16 is_stmt 1 view .LVU1003
 303:src/main.cpp  **** }
 3597              		.loc 6 303 16 is_stmt 0 view .LVU1004
 3598              	.LBE938:
 3599              	.LBE937:
 304:src/main.cpp  **** 
 3600              		.loc 6 304 1 view .LVU1005
 3601 0028 2046     		mov	r0, r4
 3602 002a 38BD     		pop	{r3, r4, r5, pc}
 3603              	.L170:
 300:src/main.cpp  ****     if(!i2c_write_byte(reg))            {i2c_stop();return false;}
 3604              		.loc 6 300 42 is_stmt 1 discriminator 1 view .LVU1006
 300:src/main.cpp  ****     if(!i2c_write_byte(reg))            {i2c_stop();return false;}
 3605              		.loc 6 300 60 is_stmt 0 discriminator 1 view .LVU1007
 3606 002c 0024     		movs	r4, #0
 300:src/main.cpp  ****     if(!i2c_write_byte(reg))            {i2c_stop();return false;}
 3607              		.loc 6 300 50 discriminator 1 view .LVU1008
 3608 002e FFF7FEFF 		bl	_Z8i2c_stopv
 3609              	.LVL254:
 300:src/main.cpp  ****     if(!i2c_write_byte(reg))            {i2c_stop();return false;}
 3610              		.loc 6 300 53 is_stmt 1 discriminator 1 view .LVU1009
 304:src/main.cpp  **** 
 3611              		.loc 6 304 1 is_stmt 0 discriminator 1 view .LVU1010
 3612 0032 2046     		mov	r0, r4
 3613 0034 38BD     		pop	{r3, r4, r5, pc}
 3614              		.cfi_endproc
 3615              	.LFE2570:
 3617 0036 00BF     		.section	.text._Z8mpr_readhPhh,"ax",%progbits
 3618              		.align	1
 3619              		.p2align 2,,3
 3620              		.global	_Z8mpr_readhPhh
 3621              		.syntax unified
 3622              		.thumb
 3623              		.thumb_func
 3625              	_Z8mpr_readhPhh:
 3626              	.LVL255:
 3627              	.LFB2571:
 307:src/main.cpp  ****     i2c_start();
 3628              		.loc 6 307 1 is_stmt 1 view -0
 3629              		.cfi_startproc
 3630              		@ args = 0, pretend = 0, frame = 0
 3631              		@ frame_needed = 0, uses_anonymous_args = 0
 307:src/main.cpp  ****     i2c_start();
 3632              		.loc 6 307 1 is_stmt 0 view .LVU1012
 3633 0000 2DE9F041 		push	{r4, r5, r6, r7, r8, lr}
 3634              		.cfi_def_cfa_offset 24
 3635              		.cfi_offset 4, -24
ARM GAS  /tmp/claude-502/ccb6uqMv.s 			page 101


 3636              		.cfi_offset 5, -20
 3637              		.cfi_offset 6, -16
 3638              		.cfi_offset 7, -12
 3639              		.cfi_offset 8, -8
 3640              		.cfi_offset 14, -4
 307:src/main.cpp  ****     i2c_start();
 3641              		.loc 6 307 1 view .LVU1013
 3642 0004 0446     		mov	r4, r0
 308:src/main.cpp  ****     if(!i2c_write_byte((MPR_ADDR<<1)|0)){i2c_stop();return false;}
 3643              		.loc 6 308 5 is_stmt 1 view .LVU1014
 307:src/main.cpp  ****     i2c_start();
 3644              		.loc 6 307 1 is_stmt 0 view .LVU1015
 3645 0006 0E46     		mov	r6, r1
 3646 0008 1546     		mov	r5, r2
 308:src/main.cpp  ****     if(!i2c_write_byte((MPR_ADDR<<1)|0)){i2c_stop();return false;}
 3647              		.loc 6 308 14 view .LVU1016
 3648 000a FFF7FEFF 		bl	_Z9i2c_startv
 3649              	.LVL256:
 309:src/main.cpp  ****     if(!i2c_write_byte(reg))            {i2c_stop();return false;}
 3650              		.loc 6 309 5 is_stmt 1 view .LVU1017
 309:src/main.cpp  ****     if(!i2c_write_byte(reg))            {i2c_stop();return false;}
 3651              		.loc 6 309 23 is_stmt 0 view .LVU1018
 3652 000e B420     		movs	r0, #180
 3653 0010 FFF7FEFF 		bl	_Z14i2c_write_byteh
 3654              	.LVL257:
 309:src/main.cpp  ****     if(!i2c_write_byte(reg))            {i2c_stop();return false;}
 3655              		.loc 6 309 5 view .LVU1019
 3656 0014 08B3     		cbz	r0, .L181
 310:src/main.cpp  ****     i2c_start();
 3657              		.loc 6 310 5 is_stmt 1 view .LVU1020
 310:src/main.cpp  ****     i2c_start();
 3658              		.loc 6 310 23 is_stmt 0 view .LVU1021
 3659 0016 2046     		mov	r0, r4
 3660 0018 FFF7FEFF 		bl	_Z14i2c_write_byteh
 3661              	.LVL258:
 310:src/main.cpp  ****     i2c_start();
 3662              		.loc 6 310 5 view .LVU1022
 3663 001c E8B1     		cbz	r0, .L181
 3664              	.LVL259:
 3665              	.LBB942:
 3666              	.LBI942:
 306:src/main.cpp  **** {
 3667              		.loc 6 306 6 is_stmt 1 view .LVU1023
 3668              	.LBB943:
 311:src/main.cpp  ****     if(!i2c_write_byte((MPR_ADDR<<1)|1)){i2c_stop();return false;}
 3669              		.loc 6 311 5 view .LVU1024
 311:src/main.cpp  ****     if(!i2c_write_byte((MPR_ADDR<<1)|1)){i2c_stop();return false;}
 3670              		.loc 6 311 14 is_stmt 0 view .LVU1025
 3671 001e FFF7FEFF 		bl	_Z9i2c_startv
 3672              	.LVL260:
 312:src/main.cpp  ****     for(uint8_t i=0;i<len;i++) buf[i]=i2c_read_byte(i<len-1);
 3673              		.loc 6 312 5 is_stmt 1 view .LVU1026
 312:src/main.cpp  ****     for(uint8_t i=0;i<len;i++) buf[i]=i2c_read_byte(i<len-1);
 3674              		.loc 6 312 23 is_stmt 0 view .LVU1027
 3675 0022 B520     		movs	r0, #181
 3676 0024 FFF7FEFF 		bl	_Z14i2c_write_byteh
 3677              	.LVL261:
ARM GAS  /tmp/claude-502/ccb6uqMv.s 			page 102


 312:src/main.cpp  ****     for(uint8_t i=0;i<len;i++) buf[i]=i2c_read_byte(i<len-1);
 3678              		.loc 6 312 5 view .LVU1028
 3679 0028 0746     		mov	r7, r0
 3680 002a B0B1     		cbz	r0, .L181
 3681              	.LVL262:
 3682              	.LBB944:
 313:src/main.cpp  ****     i2c_stop();return true;
 3683              		.loc 6 313 22 is_stmt 1 view .LVU1029
 3684 002c 85B1     		cbz	r5, .L183
 313:src/main.cpp  ****     i2c_stop();return true;
 3685              		.loc 6 313 58 is_stmt 0 view .LVU1030
 3686 002e 013D     		subs	r5, r5, #1
 3687              	.LVL263:
 313:src/main.cpp  ****     i2c_stop();return true;
 3688              		.loc 6 313 58 view .LVU1031
 3689 0030 741E     		subs	r4, r6, #1
 3690              	.LVL264:
 313:src/main.cpp  ****     i2c_stop();return true;
 3691              		.loc 6 313 58 view .LVU1032
 3692 0032 56FA85F8 		uxtab	r8, r6, r5
 3693 0036 C6F10106 		rsb	r6, r6, #1
 3694              	.LVL265:
 3695              	.L184:
 313:src/main.cpp  ****     i2c_stop();return true;
 3696              		.loc 6 313 32 is_stmt 1 view .LVU1033
 313:src/main.cpp  ****     i2c_stop();return true;
 3697              		.loc 6 313 52 is_stmt 0 view .LVU1034
 3698 003a 3019     		adds	r0, r6, r4
 3699 003c 8542     		cmp	r5, r0
 3700 003e D4BF     		ite	le
 3701 0040 0020     		movle	r0, #0
 3702 0042 0120     		movgt	r0, #1
 3703 0044 FFF7FEFF 		bl	_Z13i2c_read_byteb
 3704              	.LVL266:
 313:src/main.cpp  ****     i2c_stop();return true;
 3705              		.loc 6 313 38 view .LVU1035
 3706 0048 04F8010F 		strb	r0, [r4, #1]!
 3707              	.LVL267:
 313:src/main.cpp  ****     i2c_stop();return true;
 3708              		.loc 6 313 5 is_stmt 1 view .LVU1036
 313:src/main.cpp  ****     i2c_stop();return true;
 3709              		.loc 6 313 22 view .LVU1037
 3710 004c 4445     		cmp	r4, r8
 3711 004e F4D1     		bne	.L184
 3712              	.LVL268:
 3713              	.L183:
 313:src/main.cpp  ****     i2c_stop();return true;
 3714              		.loc 6 313 22 is_stmt 0 view .LVU1038
 3715              	.LBE944:
 314:src/main.cpp  **** }
 3716              		.loc 6 314 5 is_stmt 1 view .LVU1039
 314:src/main.cpp  **** }
 3717              		.loc 6 314 13 is_stmt 0 view .LVU1040
 3718 0050 FFF7FEFF 		bl	_Z8i2c_stopv
 3719              	.LVL269:
 314:src/main.cpp  **** }
 3720              		.loc 6 314 16 is_stmt 1 view .LVU1041
ARM GAS  /tmp/claude-502/ccb6uqMv.s 			page 103


 314:src/main.cpp  **** }
 3721              		.loc 6 314 16 is_stmt 0 view .LVU1042
 3722              	.LBE943:
 3723              	.LBE942:
 315:src/main.cpp  **** 
 3724              		.loc 6 315 1 view .LVU1043
 3725 0054 3846     		mov	r0, r7
 3726 0056 BDE8F081 		pop	{r4, r5, r6, r7, r8, pc}
 3727              	.LVL270:
 3728              	.L181:
 309:src/main.cpp  ****     if(!i2c_write_byte(reg))            {i2c_stop();return false;}
 3729              		.loc 6 309 42 is_stmt 1 discriminator 1 view .LVU1044
 309:src/main.cpp  ****     if(!i2c_write_byte(reg))            {i2c_stop();return false;}
 3730              		.loc 6 309 60 is_stmt 0 discriminator 1 view .LVU1045
 3731 005a 0027     		movs	r7, #0
 309:src/main.cpp  ****     if(!i2c_write_byte(reg))            {i2c_stop();return false;}
 3732              		.loc 6 309 50 discriminator 1 view .LVU1046
 3733 005c FFF7FEFF 		bl	_Z8i2c_stopv
 3734              	.LVL271:
 309:src/main.cpp  ****     if(!i2c_write_byte(reg))            {i2c_stop();return false;}
 3735              		.loc 6 309 53 is_stmt 1 discriminator 1 view .LVU1047
 315:src/main.cpp  **** 
 3736              		.loc 6 315 1 is_stmt 0 discriminator 1 view .LVU1048
 3737 0060 3846     		mov	r0, r7
 3738 0062 BDE8F081 		pop	{r4, r5, r6, r7, r8, pc}
 315:src/main.cpp  **** 
 3739              		.loc 6 315 1 discriminator 1 view .LVU1049
 3740              		.cfi_endproc
 3741              	.LFE2571:
 3743 0066 00BF     		.section	.text._Z8mpr_initv,"ax",%progbits
 3744              		.align	1
 3745              		.p2align 2,,3
 3746              		.global	_Z8mpr_initv
 3747              		.syntax unified
 3748              		.thumb
 3749              		.thumb_func
 3751              	_Z8mpr_initv:
 3752              	.LFB2572:
 318:src/main.cpp  ****     mpr_write(REG_SOFTRESET,0x63);System::Delay(10);
 3753              		.loc 6 318 1 is_stmt 1 view -0
 3754              		.cfi_startproc
 3755              		@ args = 0, pretend = 0, frame = 8
 3756              		@ frame_needed = 0, uses_anonymous_args = 0
 319:src/main.cpp  ****     mpr_write(REG_ECR,0x00);
 3757              		.loc 6 319 5 view .LVU1051
 318:src/main.cpp  ****     mpr_write(REG_SOFTRESET,0x63);System::Delay(10);
 3758              		.loc 6 318 1 is_stmt 0 view .LVU1052
 3759 0000 10B5     		push	{r4, lr}
 3760              		.cfi_def_cfa_offset 8
 3761              		.cfi_offset 4, -8
 3762              		.cfi_offset 14, -4
 319:src/main.cpp  ****     mpr_write(REG_ECR,0x00);
 3763              		.loc 6 319 14 view .LVU1053
 3764 0002 6321     		movs	r1, #99
 318:src/main.cpp  ****     mpr_write(REG_SOFTRESET,0x63);System::Delay(10);
 3765              		.loc 6 318 1 view .LVU1054
 3766 0004 82B0     		sub	sp, sp, #8
ARM GAS  /tmp/claude-502/ccb6uqMv.s 			page 104


 3767              		.cfi_def_cfa_offset 16
 319:src/main.cpp  ****     mpr_write(REG_ECR,0x00);
 3768              		.loc 6 319 14 view .LVU1055
 3769 0006 8020     		movs	r0, #128
 325:src/main.cpp  ****     for(uint8_t ch=0;ch<12;ch++){mpr_write(0x41+ch*2,4);mpr_write(0x42+ch*2,2);}
 3770              		.loc 6 325 64 view .LVU1056
 3771 0008 4124     		movs	r4, #65
 319:src/main.cpp  ****     mpr_write(REG_ECR,0x00);
 3772              		.loc 6 319 14 view .LVU1057
 3773 000a FFF7FEFF 		bl	_Z9mpr_writehh
 3774              	.LVL272:
 319:src/main.cpp  ****     mpr_write(REG_ECR,0x00);
 3775              		.loc 6 319 35 is_stmt 1 view .LVU1058
 319:src/main.cpp  ****     mpr_write(REG_ECR,0x00);
 3776              		.loc 6 319 48 is_stmt 0 view .LVU1059
 3777 000e 0A20     		movs	r0, #10
 3778 0010 FFF7FEFF 		bl	_ZN5daisy6System5DelayEm
 3779              	.LVL273:
 320:src/main.cpp  ****     mpr_write(REG_MHDR,0x01);mpr_write(REG_NHDR,0x01);
 3780              		.loc 6 320 5 is_stmt 1 view .LVU1060
 320:src/main.cpp  ****     mpr_write(REG_MHDR,0x01);mpr_write(REG_NHDR,0x01);
 3781              		.loc 6 320 14 is_stmt 0 view .LVU1061
 3782 0014 0021     		movs	r1, #0
 3783 0016 5E20     		movs	r0, #94
 3784 0018 FFF7FEFF 		bl	_Z9mpr_writehh
 3785              	.LVL274:
 321:src/main.cpp  ****     mpr_write(REG_NCLR,0x10);mpr_write(REG_FDLR,0x20);
 3786              		.loc 6 321 5 is_stmt 1 view .LVU1062
 321:src/main.cpp  ****     mpr_write(REG_NCLR,0x10);mpr_write(REG_FDLR,0x20);
 3787              		.loc 6 321 14 is_stmt 0 view .LVU1063
 3788 001c 0121     		movs	r1, #1
 3789 001e 2B20     		movs	r0, #43
 3790 0020 FFF7FEFF 		bl	_Z9mpr_writehh
 3791              	.LVL275:
 321:src/main.cpp  ****     mpr_write(REG_NCLR,0x10);mpr_write(REG_FDLR,0x20);
 3792              		.loc 6 321 30 is_stmt 1 view .LVU1064
 321:src/main.cpp  ****     mpr_write(REG_NCLR,0x10);mpr_write(REG_FDLR,0x20);
 3793              		.loc 6 321 39 is_stmt 0 view .LVU1065
 3794 0024 0121     		movs	r1, #1
 3795 0026 2C20     		movs	r0, #44
 3796 0028 FFF7FEFF 		bl	_Z9mpr_writehh
 3797              	.LVL276:
 322:src/main.cpp  ****     mpr_write(REG_MHDF,0x01);mpr_write(REG_NHDF,0x01);
 3798              		.loc 6 322 5 is_stmt 1 view .LVU1066
 322:src/main.cpp  ****     mpr_write(REG_MHDF,0x01);mpr_write(REG_NHDF,0x01);
 3799              		.loc 6 322 14 is_stmt 0 view .LVU1067
 3800 002c 1021     		movs	r1, #16
 3801 002e 2D20     		movs	r0, #45
 3802 0030 FFF7FEFF 		bl	_Z9mpr_writehh
 3803              	.LVL277:
 322:src/main.cpp  ****     mpr_write(REG_MHDF,0x01);mpr_write(REG_NHDF,0x01);
 3804              		.loc 6 322 30 is_stmt 1 view .LVU1068
 322:src/main.cpp  ****     mpr_write(REG_MHDF,0x01);mpr_write(REG_NHDF,0x01);
 3805              		.loc 6 322 39 is_stmt 0 view .LVU1069
 3806 0034 2021     		movs	r1, #32
 3807 0036 2E20     		movs	r0, #46
 3808 0038 FFF7FEFF 		bl	_Z9mpr_writehh
ARM GAS  /tmp/claude-502/ccb6uqMv.s 			page 105


 3809              	.LVL278:
 323:src/main.cpp  ****     mpr_write(REG_NCLF,0x10);mpr_write(REG_FDLF,0x20);
 3810              		.loc 6 323 5 is_stmt 1 view .LVU1070
 323:src/main.cpp  ****     mpr_write(REG_NCLF,0x10);mpr_write(REG_FDLF,0x20);
 3811              		.loc 6 323 14 is_stmt 0 view .LVU1071
 3812 003c 0121     		movs	r1, #1
 3813 003e 2F20     		movs	r0, #47
 3814 0040 FFF7FEFF 		bl	_Z9mpr_writehh
 3815              	.LVL279:
 323:src/main.cpp  ****     mpr_write(REG_NCLF,0x10);mpr_write(REG_FDLF,0x20);
 3816              		.loc 6 323 30 is_stmt 1 view .LVU1072
 323:src/main.cpp  ****     mpr_write(REG_NCLF,0x10);mpr_write(REG_FDLF,0x20);
 3817              		.loc 6 323 39 is_stmt 0 view .LVU1073
 3818 0044 0121     		movs	r1, #1
 3819 0046 3020     		movs	r0, #48
 3820 0048 FFF7FEFF 		bl	_Z9mpr_writehh
 3821              	.LVL280:
 324:src/main.cpp  ****     mpr_write(REG_NHDT,0x00);mpr_write(REG_NCLT,0x00);mpr_write(REG_FDLT,0x00);
 3822              		.loc 6 324 5 is_stmt 1 view .LVU1074
 324:src/main.cpp  ****     mpr_write(REG_NHDT,0x00);mpr_write(REG_NCLT,0x00);mpr_write(REG_FDLT,0x00);
 3823              		.loc 6 324 14 is_stmt 0 view .LVU1075
 3824 004c 1021     		movs	r1, #16
 3825 004e 3120     		movs	r0, #49
 3826 0050 FFF7FEFF 		bl	_Z9mpr_writehh
 3827              	.LVL281:
 324:src/main.cpp  ****     mpr_write(REG_NHDT,0x00);mpr_write(REG_NCLT,0x00);mpr_write(REG_FDLT,0x00);
 3828              		.loc 6 324 30 is_stmt 1 view .LVU1076
 324:src/main.cpp  ****     mpr_write(REG_NHDT,0x00);mpr_write(REG_NCLT,0x00);mpr_write(REG_FDLT,0x00);
 3829              		.loc 6 324 39 is_stmt 0 view .LVU1077
 3830 0054 2021     		movs	r1, #32
 3831 0056 3220     		movs	r0, #50
 3832 0058 FFF7FEFF 		bl	_Z9mpr_writehh
 3833              	.LVL282:
 325:src/main.cpp  ****     for(uint8_t ch=0;ch<12;ch++){mpr_write(0x41+ch*2,4);mpr_write(0x42+ch*2,2);}
 3834              		.loc 6 325 5 is_stmt 1 view .LVU1078
 325:src/main.cpp  ****     for(uint8_t ch=0;ch<12;ch++){mpr_write(0x41+ch*2,4);mpr_write(0x42+ch*2,2);}
 3835              		.loc 6 325 14 is_stmt 0 view .LVU1079
 3836 005c 0021     		movs	r1, #0
 3837 005e 3320     		movs	r0, #51
 3838 0060 FFF7FEFF 		bl	_Z9mpr_writehh
 3839              	.LVL283:
 325:src/main.cpp  ****     for(uint8_t ch=0;ch<12;ch++){mpr_write(0x41+ch*2,4);mpr_write(0x42+ch*2,2);}
 3840              		.loc 6 325 30 is_stmt 1 view .LVU1080
 325:src/main.cpp  ****     for(uint8_t ch=0;ch<12;ch++){mpr_write(0x41+ch*2,4);mpr_write(0x42+ch*2,2);}
 3841              		.loc 6 325 39 is_stmt 0 view .LVU1081
 3842 0064 0021     		movs	r1, #0
 3843 0066 3420     		movs	r0, #52
 3844 0068 FFF7FEFF 		bl	_Z9mpr_writehh
 3845              	.LVL284:
 325:src/main.cpp  ****     for(uint8_t ch=0;ch<12;ch++){mpr_write(0x41+ch*2,4);mpr_write(0x42+ch*2,2);}
 3846              		.loc 6 325 55 is_stmt 1 view .LVU1082
 325:src/main.cpp  ****     for(uint8_t ch=0;ch<12;ch++){mpr_write(0x41+ch*2,4);mpr_write(0x42+ch*2,2);}
 3847              		.loc 6 325 64 is_stmt 0 view .LVU1083
 3848 006c 0021     		movs	r1, #0
 3849 006e 3520     		movs	r0, #53
 3850 0070 FFF7FEFF 		bl	_Z9mpr_writehh
 3851              	.LVL285:
ARM GAS  /tmp/claude-502/ccb6uqMv.s 			page 106


 326:src/main.cpp  ****     mpr_write(REG_DEBOUNCE,0x11);
 3852              		.loc 6 326 5 is_stmt 1 view .LVU1084
 3853              	.LBB945:
 326:src/main.cpp  ****     mpr_write(REG_DEBOUNCE,0x11);
 3854              		.loc 6 326 24 view .LVU1085
 3855              	.L193:
 326:src/main.cpp  ****     mpr_write(REG_DEBOUNCE,0x11);
 3856              		.loc 6 326 34 discriminator 2 view .LVU1086
 326:src/main.cpp  ****     mpr_write(REG_DEBOUNCE,0x11);
 3857              		.loc 6 326 43 is_stmt 0 discriminator 2 view .LVU1087
 3858 0074 0421     		movs	r1, #4
 3859 0076 2046     		mov	r0, r4
 3860 0078 FFF7FEFF 		bl	_Z9mpr_writehh
 3861              	.LVL286:
 326:src/main.cpp  ****     mpr_write(REG_DEBOUNCE,0x11);
 3862              		.loc 6 326 57 is_stmt 1 discriminator 2 view .LVU1088
 326:src/main.cpp  ****     mpr_write(REG_DEBOUNCE,0x11);
 3863              		.loc 6 326 66 is_stmt 0 discriminator 2 view .LVU1089
 3864 007c 601C     		adds	r0, r4, #1
 326:src/main.cpp  ****     mpr_write(REG_DEBOUNCE,0x11);
 3865              		.loc 6 326 24 discriminator 2 view .LVU1090
 3866 007e 0234     		adds	r4, r4, #2
 326:src/main.cpp  ****     mpr_write(REG_DEBOUNCE,0x11);
 3867              		.loc 6 326 66 discriminator 2 view .LVU1091
 3868 0080 0221     		movs	r1, #2
 3869 0082 C0B2     		uxtb	r0, r0
 326:src/main.cpp  ****     mpr_write(REG_DEBOUNCE,0x11);
 3870              		.loc 6 326 24 discriminator 2 view .LVU1092
 3871 0084 E4B2     		uxtb	r4, r4
 326:src/main.cpp  ****     mpr_write(REG_DEBOUNCE,0x11);
 3872              		.loc 6 326 66 discriminator 2 view .LVU1093
 3873 0086 FFF7FEFF 		bl	_Z9mpr_writehh
 3874              	.LVL287:
 326:src/main.cpp  ****     mpr_write(REG_DEBOUNCE,0x11);
 3875              		.loc 6 326 5 is_stmt 1 discriminator 2 view .LVU1094
 326:src/main.cpp  ****     mpr_write(REG_DEBOUNCE,0x11);
 3876              		.loc 6 326 24 discriminator 2 view .LVU1095
 3877 008a 592C     		cmp	r4, #89
 3878 008c F2D1     		bne	.L193
 3879              	.LBE945:
 327:src/main.cpp  ****     mpr_write(REG_CONFIG1,0xF0);  // FFI=34 | CDC=48uA
 3880              		.loc 6 327 5 view .LVU1096
 327:src/main.cpp  ****     mpr_write(REG_CONFIG1,0xF0);  // FFI=34 | CDC=48uA
 3881              		.loc 6 327 14 is_stmt 0 view .LVU1097
 3882 008e 1121     		movs	r1, #17
 3883 0090 5B20     		movs	r0, #91
 3884 0092 FFF7FEFF 		bl	_Z9mpr_writehh
 3885              	.LVL288:
 328:src/main.cpp  ****     mpr_write(REG_CONFIG2,0x4C);  // CDT=4us | SFI=18 | ESI=1ms
 3886              		.loc 6 328 5 is_stmt 1 view .LVU1098
 328:src/main.cpp  ****     mpr_write(REG_CONFIG2,0x4C);  // CDT=4us | SFI=18 | ESI=1ms
 3887              		.loc 6 328 14 is_stmt 0 view .LVU1099
 3888 0096 F021     		movs	r1, #240
 3889 0098 5C20     		movs	r0, #92
 3890 009a FFF7FEFF 		bl	_Z9mpr_writehh
 3891              	.LVL289:
 329:src/main.cpp  ****     mpr_write(REG_ECR,0x8C);
ARM GAS  /tmp/claude-502/ccb6uqMv.s 			page 107


 3892              		.loc 6 329 5 is_stmt 1 view .LVU1100
 329:src/main.cpp  ****     mpr_write(REG_ECR,0x8C);
 3893              		.loc 6 329 14 is_stmt 0 view .LVU1101
 3894 009e 4C21     		movs	r1, #76
 3895 00a0 5D20     		movs	r0, #93
 3896 00a2 FFF7FEFF 		bl	_Z9mpr_writehh
 3897              	.LVL290:
 330:src/main.cpp  ****     System::Delay(100);
 3898              		.loc 6 330 5 is_stmt 1 view .LVU1102
 330:src/main.cpp  ****     System::Delay(100);
 3899              		.loc 6 330 14 is_stmt 0 view .LVU1103
 3900 00a6 8C21     		movs	r1, #140
 3901 00a8 5E20     		movs	r0, #94
 3902 00aa FFF7FEFF 		bl	_Z9mpr_writehh
 3903              	.LVL291:
 331:src/main.cpp  ****     uint8_t ecr=0;mpr_read(REG_ECR,&ecr,1);
 3904              		.loc 6 331 5 is_stmt 1 view .LVU1104
 331:src/main.cpp  ****     uint8_t ecr=0;mpr_read(REG_ECR,&ecr,1);
 3905              		.loc 6 331 18 is_stmt 0 view .LVU1105
 3906 00ae 6420     		movs	r0, #100
 3907 00b0 FFF7FEFF 		bl	_ZN5daisy6System5DelayEm
 3908              	.LVL292:
 332:src/main.cpp  ****     return(ecr==0x8C);
 3909              		.loc 6 332 5 is_stmt 1 view .LVU1106
 332:src/main.cpp  ****     return(ecr==0x8C);
 3910              		.loc 6 332 13 is_stmt 0 view .LVU1107
 3911 00b4 0023     		movs	r3, #0
 332:src/main.cpp  ****     return(ecr==0x8C);
 3912              		.loc 6 332 27 view .LVU1108
 3913 00b6 0122     		movs	r2, #1
 3914 00b8 0DF10701 		add	r1, sp, #7
 3915 00bc 5E20     		movs	r0, #94
 332:src/main.cpp  ****     return(ecr==0x8C);
 3916              		.loc 6 332 13 view .LVU1109
 3917 00be 8DF80730 		strb	r3, [sp, #7]
 332:src/main.cpp  ****     return(ecr==0x8C);
 3918              		.loc 6 332 19 is_stmt 1 view .LVU1110
 332:src/main.cpp  ****     return(ecr==0x8C);
 3919              		.loc 6 332 27 is_stmt 0 view .LVU1111
 3920 00c2 FFF7FEFF 		bl	_Z8mpr_readhPhh
 3921              	.LVL293:
 333:src/main.cpp  **** }
 3922              		.loc 6 333 5 is_stmt 1 view .LVU1112
 333:src/main.cpp  **** }
 3923              		.loc 6 333 21 is_stmt 0 view .LVU1113
 3924 00c6 9DF80700 		ldrb	r0, [sp, #7]	@ zero_extendqisi2
 334:src/main.cpp  **** 
 3925              		.loc 6 334 1 view .LVU1114
 3926 00ca A0F18C00 		sub	r0, #140
 3927 00ce B0FA80F0 		clz	r0, r0
 3928 00d2 4009     		lsrs	r0, r0, #5
 3929 00d4 02B0     		add	sp, sp, #8
 3930              		.cfi_def_cfa_offset 8
 3931              		@ sp needed
 3932 00d6 10BD     		pop	{r4, pc}
 3933              		.cfi_endproc
 3934              	.LFE2572:
ARM GAS  /tmp/claude-502/ccb6uqMv.s 			page 108


 3936              		.section	.text._Z15read_electrodesPt,"ax",%progbits
 3937              		.align	1
 3938              		.p2align 2,,3
 3939              		.global	_Z15read_electrodesPt
 3940              		.syntax unified
 3941              		.thumb
 3942              		.thumb_func
 3944              	_Z15read_electrodesPt:
 3945              	.LVL294:
 3946              	.LFB2573:
 337:src/main.cpp  ****     uint8_t buf[24];
 3947              		.loc 6 337 1 is_stmt 1 view -0
 3948              		.cfi_startproc
 3949              		@ args = 0, pretend = 0, frame = 24
 3950              		@ frame_needed = 0, uses_anonymous_args = 0
 338:src/main.cpp  ****     mpr_read(REG_ELE0_LSB,buf,24);
 3951              		.loc 6 338 5 view .LVU1116
 339:src/main.cpp  ****     for(int i=0;i<N_CH;i++)
 3952              		.loc 6 339 5 view .LVU1117
 337:src/main.cpp  ****     uint8_t buf[24];
 3953              		.loc 6 337 1 is_stmt 0 view .LVU1118
 3954 0000 10B5     		push	{r4, lr}
 3955              		.cfi_def_cfa_offset 8
 3956              		.cfi_offset 4, -8
 3957              		.cfi_offset 14, -4
 3958 0002 86B0     		sub	sp, sp, #24
 3959              		.cfi_def_cfa_offset 32
 337:src/main.cpp  ****     uint8_t buf[24];
 3960              		.loc 6 337 1 view .LVU1119
 3961 0004 0446     		mov	r4, r0
 339:src/main.cpp  ****     for(int i=0;i<N_CH;i++)
 3962              		.loc 6 339 13 view .LVU1120
 3963 0006 1822     		movs	r2, #24
 3964 0008 0420     		movs	r0, #4
 3965              	.LVL295:
 339:src/main.cpp  ****     for(int i=0;i<N_CH;i++)
 3966              		.loc 6 339 13 view .LVU1121
 3967 000a 6946     		mov	r1, sp
 3968 000c FFF7FEFF 		bl	_Z8mpr_readhPhh
 3969              	.LVL296:
 340:src/main.cpp  ****         out[i]=(uint16_t)(buf[i*2]|((buf[i*2+1]&0x03)<<8));
 3970              		.loc 6 340 5 is_stmt 1 view .LVU1122
 3971              	.LBB946:
 340:src/main.cpp  ****         out[i]=(uint16_t)(buf[i*2]|((buf[i*2+1]&0x03)<<8));
 3972              		.loc 6 340 18 view .LVU1123
 3973 0010 A01E     		subs	r0, r4, #2
 3974 0012 6A46     		mov	r2, sp
 3975 0014 06AC     		add	r4, sp, #24
 3976              	.LVL297:
 3977              	.L197:
 341:src/main.cpp  **** }
 3978              		.loc 6 341 9 discriminator 2 view .LVU1124
 341:src/main.cpp  **** }
 3979              		.loc 6 341 48 is_stmt 0 discriminator 2 view .LVU1125
 3980 0016 5378     		ldrb	r3, [r2, #1]	@ zero_extendqisi2
 341:src/main.cpp  **** }
 3981              		.loc 6 341 34 discriminator 2 view .LVU1126
ARM GAS  /tmp/claude-502/ccb6uqMv.s 			page 109


 3982 0018 12F8021B 		ldrb	r1, [r2], #2	@ zero_extendqisi2
 341:src/main.cpp  **** }
 3983              		.loc 6 341 54 discriminator 2 view .LVU1127
 3984 001c 1B02     		lsls	r3, r3, #8
 340:src/main.cpp  ****         out[i]=(uint16_t)(buf[i*2]|((buf[i*2+1]&0x03)<<8));
 3985              		.loc 6 340 18 discriminator 2 view .LVU1128
 3986 001e 9442     		cmp	r4, r2
 341:src/main.cpp  **** }
 3987              		.loc 6 341 54 discriminator 2 view .LVU1129
 3988 0020 03F44073 		and	r3, r3, #768
 341:src/main.cpp  **** }
 3989              		.loc 6 341 35 discriminator 2 view .LVU1130
 3990 0024 43EA0103 		orr	r3, r3, r1
 341:src/main.cpp  **** }
 3991              		.loc 6 341 15 discriminator 2 view .LVU1131
 3992 0028 20F8023F 		strh	r3, [r0, #2]!	@ movhi
 340:src/main.cpp  ****         out[i]=(uint16_t)(buf[i*2]|((buf[i*2+1]&0x03)<<8));
 3993              		.loc 6 340 5 is_stmt 1 discriminator 2 view .LVU1132
 340:src/main.cpp  ****         out[i]=(uint16_t)(buf[i*2]|((buf[i*2+1]&0x03)<<8));
 3994              		.loc 6 340 18 discriminator 2 view .LVU1133
 3995 002c F3D1     		bne	.L197
 3996              	.LBE946:
 342:src/main.cpp  **** 
 3997              		.loc 6 342 1 is_stmt 0 view .LVU1134
 3998 002e 06B0     		add	sp, sp, #24
 3999              		.cfi_def_cfa_offset 8
 4000              		@ sp needed
 4001 0030 10BD     		pop	{r4, pc}
 4002              		.cfi_endproc
 4003              	.LFE2573:
 4005 0032 00BF     		.section	.text._Z16capture_baselinePt,"ax",%progbits
 4006              		.align	1
 4007              		.p2align 2,,3
 4008              		.global	_Z16capture_baselinePt
 4009              		.syntax unified
 4010              		.thumb
 4011              		.thumb_func
 4013              	_Z16capture_baselinePt:
 4014              	.LVL298:
 4015              	.LFB2574:
 345:src/main.cpp  ****     uint32_t acc[N_CH]={0};uint16_t tmp[N_CH];
 4016              		.loc 6 345 1 is_stmt 1 view -0
 4017              		.cfi_startproc
 4018              		@ args = 0, pretend = 0, frame = 72
 4019              		@ frame_needed = 0, uses_anonymous_args = 0
 346:src/main.cpp  ****     for(int s=0;s<REBASELINE_SAMPLES;s++){
 4020              		.loc 6 346 5 view .LVU1136
 345:src/main.cpp  ****     uint32_t acc[N_CH]={0};uint16_t tmp[N_CH];
 4021              		.loc 6 345 1 is_stmt 0 view .LVU1137
 4022 0000 2DE9F041 		push	{r4, r5, r6, r7, r8, lr}
 4023              		.cfi_def_cfa_offset 24
 4024              		.cfi_offset 4, -24
 4025              		.cfi_offset 5, -20
 4026              		.cfi_offset 6, -16
 4027              		.cfi_offset 7, -12
 4028              		.cfi_offset 8, -8
 4029              		.cfi_offset 14, -4
ARM GAS  /tmp/claude-502/ccb6uqMv.s 			page 110


 4030 0004 92B0     		sub	sp, sp, #72
 4031              		.cfi_def_cfa_offset 96
 346:src/main.cpp  ****     for(int s=0;s<REBASELINE_SAMPLES;s++){
 4032              		.loc 6 346 14 view .LVU1138
 4033 0006 2025     		movs	r5, #32
 4034 0008 0024     		movs	r4, #0
 345:src/main.cpp  ****     uint32_t acc[N_CH]={0};uint16_t tmp[N_CH];
 4035              		.loc 6 345 1 view .LVU1139
 4036 000a 0746     		mov	r7, r0
 346:src/main.cpp  ****     for(int s=0;s<REBASELINE_SAMPLES;s++){
 4037              		.loc 6 346 14 view .LVU1140
 4038 000c 0DF11808 		add	r8, sp, #24
 4039 0010 3022     		movs	r2, #48
 4040 0012 0021     		movs	r1, #0
 4041 0014 4046     		mov	r0, r8
 4042              	.LVL299:
 346:src/main.cpp  ****     for(int s=0;s<REBASELINE_SAMPLES;s++){
 4043              		.loc 6 346 14 view .LVU1141
 4044 0016 FFF7FEFF 		bl	memset
 4045              	.LVL300:
 346:src/main.cpp  ****     for(int s=0;s<REBASELINE_SAMPLES;s++){
 4046              		.loc 6 346 28 is_stmt 1 view .LVU1142
 347:src/main.cpp  ****         read_electrodes(tmp);
 4047              		.loc 6 347 5 view .LVU1143
 4048              	.LBB947:
 347:src/main.cpp  ****         read_electrodes(tmp);
 4049              		.loc 6 347 18 view .LVU1144
 4050              	.L204:
 4051              	.LBB948:
 348:src/main.cpp  ****         for(int i=0;i<N_CH;i++)acc[i]+=tmp[i];
 4052              		.loc 6 348 9 view .LVU1145
 348:src/main.cpp  ****         for(int i=0;i<N_CH;i++)acc[i]+=tmp[i];
 4053              		.loc 6 348 24 is_stmt 0 view .LVU1146
 4054 001a 6846     		mov	r0, sp
 4055 001c 4646     		mov	r6, r8
 4056 001e FFF7FEFF 		bl	_Z15read_electrodesPt
 4057              	.LVL301:
 349:src/main.cpp  ****         System::Delay(5);
 4058              		.loc 6 349 9 is_stmt 1 view .LVU1147
 4059              	.LBB949:
 349:src/main.cpp  ****         System::Delay(5);
 4060              		.loc 6 349 22 view .LVU1148
 4061 0022 6A46     		mov	r2, sp
 4062              	.LBE949:
 348:src/main.cpp  ****         for(int i=0;i<N_CH;i++)acc[i]+=tmp[i];
 4063              		.loc 6 348 24 is_stmt 0 view .LVU1149
 4064 0024 4146     		mov	r1, r8
 4065 0026 00E0     		b	.L202
 4066              	.LVL302:
 4067              	.L209:
 4068              	.LBB950:
 349:src/main.cpp  ****         System::Delay(5);
 4069              		.loc 6 349 38 view .LVU1150
 4070 0028 0C68     		ldr	r4, [r1]
 4071              	.L202:
 349:src/main.cpp  ****         System::Delay(5);
 4072              		.loc 6 349 32 is_stmt 1 discriminator 2 view .LVU1151
ARM GAS  /tmp/claude-502/ccb6uqMv.s 			page 111


 349:src/main.cpp  ****         System::Delay(5);
 4073              		.loc 6 349 45 is_stmt 0 discriminator 2 view .LVU1152
 4074 002a 32F8023B 		ldrh	r3, [r2], #2
 349:src/main.cpp  ****         System::Delay(5);
 4075              		.loc 6 349 38 discriminator 2 view .LVU1153
 4076 002e 2344     		add	r3, r3, r4
 349:src/main.cpp  ****         System::Delay(5);
 4077              		.loc 6 349 22 discriminator 2 view .LVU1154
 4078 0030 4245     		cmp	r2, r8
 349:src/main.cpp  ****         System::Delay(5);
 4079              		.loc 6 349 38 discriminator 2 view .LVU1155
 4080 0032 41F8043B 		str	r3, [r1], #4
 349:src/main.cpp  ****         System::Delay(5);
 4081              		.loc 6 349 9 is_stmt 1 discriminator 2 view .LVU1156
 349:src/main.cpp  ****         System::Delay(5);
 4082              		.loc 6 349 22 discriminator 2 view .LVU1157
 4083 0036 F7D1     		bne	.L209
 4084              	.LBE950:
 350:src/main.cpp  ****     }
 4085              		.loc 6 350 9 discriminator 2 view .LVU1158
 350:src/main.cpp  ****     }
 4086              		.loc 6 350 22 is_stmt 0 discriminator 2 view .LVU1159
 4087 0038 0520     		movs	r0, #5
 4088 003a FFF7FEFF 		bl	_ZN5daisy6System5DelayEm
 4089              	.LVL303:
 4090              	.LBE948:
 347:src/main.cpp  ****         read_electrodes(tmp);
 4091              		.loc 6 347 5 is_stmt 1 discriminator 2 view .LVU1160
 347:src/main.cpp  ****         read_electrodes(tmp);
 4092              		.loc 6 347 18 discriminator 2 view .LVU1161
 4093 003e 013D     		subs	r5, r5, #1
 4094              	.LVL304:
 347:src/main.cpp  ****         read_electrodes(tmp);
 4095              		.loc 6 347 18 is_stmt 0 discriminator 2 view .LVU1162
 4096 0040 01D0     		beq	.L203
 4097              	.LBB952:
 4098              	.LBB951:
 349:src/main.cpp  ****         System::Delay(5);
 4099              		.loc 6 349 38 view .LVU1163
 4100 0042 069C     		ldr	r4, [sp, #24]
 4101 0044 E9E7     		b	.L204
 4102              	.L203:
 4103 0046 BA1E     		subs	r2, r7, #2
 4104 0048 1637     		adds	r7, r7, #22
 4105              	.LVL305:
 4106              	.L205:
 349:src/main.cpp  ****         System::Delay(5);
 4107              		.loc 6 349 38 view .LVU1164
 4108              	.LBE951:
 4109              	.LBE952:
 4110              	.LBE947:
 4111              	.LBB953:
 352:src/main.cpp  **** }
 4112              		.loc 6 352 28 is_stmt 1 discriminator 2 view .LVU1165
 352:src/main.cpp  **** }
 4113              		.loc 6 352 50 is_stmt 0 discriminator 2 view .LVU1166
 4114 004a 56F8043B 		ldr	r3, [r6], #4
ARM GAS  /tmp/claude-502/ccb6uqMv.s 			page 112


 352:src/main.cpp  **** }
 4115              		.loc 6 352 51 discriminator 2 view .LVU1167
 4116 004e 5B09     		lsrs	r3, r3, #5
 352:src/main.cpp  **** }
 4117              		.loc 6 352 33 discriminator 2 view .LVU1168
 4118 0050 22F8023F 		strh	r3, [r2, #2]!	@ movhi
 352:src/main.cpp  **** }
 4119              		.loc 6 352 5 is_stmt 1 discriminator 2 view .LVU1169
 352:src/main.cpp  **** }
 4120              		.loc 6 352 18 discriminator 2 view .LVU1170
 4121 0054 BA42     		cmp	r2, r7
 4122 0056 F8D1     		bne	.L205
 4123              	.LBE953:
 353:src/main.cpp  **** 
 4124              		.loc 6 353 1 is_stmt 0 view .LVU1171
 4125 0058 12B0     		add	sp, sp, #72
 4126              		.cfi_def_cfa_offset 24
 4127              		@ sp needed
 4128 005a BDE8F081 		pop	{r4, r5, r6, r7, r8, pc}
 353:src/main.cpp  **** 
 4129              		.loc 6 353 1 view .LVU1172
 4130              		.cfi_endproc
 4131              	.LFE2574:
 4133 005e 00BF     		.section	.text._Z15centroid_windowPliiS_Pi,"ax",%progbits
 4134              		.align	1
 4135              		.p2align 2,,3
 4136              		.global	_Z15centroid_windowPliiS_Pi
 4137              		.syntax unified
 4138              		.thumb
 4139              		.thumb_func
 4141              	_Z15centroid_windowPliiS_Pi:
 4142              	.LVL306:
 4143              	.LFB2575:
 361:src/main.cpp  ****     int32_t sw=0,swx=0,pk=0;int pkc=s;
 4144              		.loc 6 361 1 is_stmt 1 view -0
 4145              		.cfi_startproc
 4146              		@ args = 4, pretend = 0, frame = 0
 4147              		@ frame_needed = 0, uses_anonymous_args = 0
 362:src/main.cpp  ****     for(int i=s;i<=e;i++){
 4148              		.loc 6 362 5 view .LVU1174
 362:src/main.cpp  ****     for(int i=s;i<=e;i++){
 4149              		.loc 6 362 29 view .LVU1175
 363:src/main.cpp  ****         int32_t w=d[i]>0?d[i]:0;
 4150              		.loc 6 363 5 view .LVU1176
 4151              	.LBB956:
 363:src/main.cpp  ****         int32_t w=d[i]>0?d[i]:0;
 4152              		.loc 6 363 18 view .LVU1177
 4153 0000 9142     		cmp	r1, r2
 4154              	.LBE956:
 361:src/main.cpp  ****     int32_t sw=0,swx=0,pk=0;int pkc=s;
 4155              		.loc 6 361 1 is_stmt 0 view .LVU1178
 4156 0002 F0B5     		push	{r4, r5, r6, r7, lr}
 4157              		.cfi_def_cfa_offset 20
 4158              		.cfi_offset 4, -20
 4159              		.cfi_offset 5, -16
 4160              		.cfi_offset 6, -12
 4161              		.cfi_offset 7, -8
ARM GAS  /tmp/claude-502/ccb6uqMv.s 			page 113


 4162              		.cfi_offset 14, -4
 361:src/main.cpp  ****     int32_t sw=0,swx=0,pk=0;int pkc=s;
 4163              		.loc 6 361 1 view .LVU1179
 4164 0004 059F     		ldr	r7, [sp, #20]
 4165              	.LBB958:
 363:src/main.cpp  ****         int32_t w=d[i]>0?d[i]:0;
 4166              		.loc 6 363 18 view .LVU1180
 4167 0006 2CDC     		bgt	.L217
 4168 0008 6FF0404E 		mvn	lr, #-1073741824
 4169              	.LBE958:
 362:src/main.cpp  ****     for(int i=s;i<=e;i++){
 4170              		.loc 6 362 24 view .LVU1181
 4171 000c 0025     		movs	r5, #0
 4172 000e 561C     		adds	r6, r2, #1
 4173 0010 8E44     		add	lr, lr, r1
 362:src/main.cpp  ****     for(int i=s;i<=e;i++){
 4174              		.loc 6 362 18 view .LVU1182
 4175 0012 AC46     		mov	ip, r5
 362:src/main.cpp  ****     for(int i=s;i<=e;i++){
 4176              		.loc 6 362 13 view .LVU1183
 4177 0014 2C46     		mov	r4, r5
 4178 0016 00EB8E0E 		add	lr, r0, lr, lsl #2
 4179              	.LBB959:
 363:src/main.cpp  ****         int32_t w=d[i]>0?d[i]:0;
 4180              		.loc 6 363 18 view .LVU1184
 4181 001a 0846     		mov	r0, r1
 4182              	.LVL307:
 4183              	.L213:
 4184              	.LBB957:
 364:src/main.cpp  ****         sw+=w;swx+=w*i;
 4185              		.loc 6 364 9 is_stmt 1 view .LVU1185
 364:src/main.cpp  ****         sw+=w;swx+=w*i;
 4186              		.loc 6 364 17 is_stmt 0 view .LVU1186
 4187 001c 5EF8042F 		ldr	r2, [lr, #4]!
 4188 0020 22EAE272 		bic	r2, r2, r2, asr #31
 4189              	.LVL308:
 365:src/main.cpp  ****         if(w>pk){pk=w;pkc=i;}
 4190              		.loc 6 365 9 is_stmt 1 view .LVU1187
 366:src/main.cpp  ****     }
 4191              		.loc 6 366 9 is_stmt 0 view .LVU1188
 4192 0024 AA42     		cmp	r2, r5
 365:src/main.cpp  ****         if(w>pk){pk=w;pkc=i;}
 4193              		.loc 6 365 18 view .LVU1189
 4194 0026 00FB02CC 		mla	ip, r0, r2, ip
 4195              	.LVL309:
 365:src/main.cpp  ****         if(w>pk){pk=w;pkc=i;}
 4196              		.loc 6 365 11 view .LVU1190
 4197 002a 1444     		add	r4, r4, r2
 4198              	.LVL310:
 365:src/main.cpp  ****         if(w>pk){pk=w;pkc=i;}
 4199              		.loc 6 365 15 is_stmt 1 view .LVU1191
 366:src/main.cpp  ****     }
 4200              		.loc 6 366 9 view .LVU1192
 4201 002c 01DD     		ble	.L212
 366:src/main.cpp  ****     }
 4202              		.loc 6 366 9 is_stmt 0 view .LVU1193
 4203 002e 0146     		mov	r1, r0
ARM GAS  /tmp/claude-502/ccb6uqMv.s 			page 114


 4204 0030 1546     		mov	r5, r2
 4205              	.LVL311:
 4206              	.L212:
 366:src/main.cpp  ****     }
 4207              		.loc 6 366 9 view .LVU1194
 4208              	.LBE957:
 363:src/main.cpp  ****         int32_t w=d[i]>0?d[i]:0;
 4209              		.loc 6 363 5 is_stmt 1 discriminator 2 view .LVU1195
 4210 0032 0130     		adds	r0, r0, #1
 4211              	.LVL312:
 363:src/main.cpp  ****         int32_t w=d[i]>0?d[i]:0;
 4212              		.loc 6 363 18 discriminator 2 view .LVU1196
 4213 0034 B042     		cmp	r0, r6
 4214 0036 F1D1     		bne	.L213
 4215              	.LVL313:
 4216              	.L211:
 363:src/main.cpp  ****         int32_t w=d[i]>0?d[i]:0;
 4217              		.loc 6 363 18 is_stmt 0 discriminator 2 view .LVU1197
 4218              	.LBE959:
 368:src/main.cpp  ****     if(sw==0)return -1;
 4219              		.loc 6 368 5 is_stmt 1 view .LVU1198
 4220 0038 03B1     		cbz	r3, .L214
 368:src/main.cpp  ****     if(sw==0)return -1;
 4221              		.loc 6 368 15 discriminator 1 view .LVU1199
 368:src/main.cpp  ****     if(sw==0)return -1;
 4222              		.loc 6 368 22 is_stmt 0 discriminator 1 view .LVU1200
 4223 003a 1D60     		str	r5, [r3]
 4224              	.L214:
 368:src/main.cpp  ****     if(sw==0)return -1;
 4225              		.loc 6 368 26 is_stmt 1 discriminator 3 view .LVU1201
 4226 003c 07B1     		cbz	r7, .L215
 368:src/main.cpp  ****     if(sw==0)return -1;
 4227              		.loc 6 368 38 discriminator 4 view .LVU1202
 368:src/main.cpp  ****     if(sw==0)return -1;
 4228              		.loc 6 368 47 is_stmt 0 discriminator 4 view .LVU1203
 4229 003e 3960     		str	r1, [r7]
 4230              	.L215:
 369:src/main.cpp  ****     int32_t p=(swx*1000)/(sw*(N_CH-1));
 4231              		.loc 6 369 5 is_stmt 1 view .LVU1204
 4232 0040 9CB1     		cbz	r4, .L218
 370:src/main.cpp  ****     if(p<0)p=0;if(p>1000)p=1000;
 4233              		.loc 6 370 5 view .LVU1205
 4234              	.LVL314:
 371:src/main.cpp  ****     return p;
 4235              		.loc 6 371 5 view .LVU1206
 370:src/main.cpp  ****     if(p<0)p=0;if(p>1000)p=1000;
 4236              		.loc 6 370 19 is_stmt 0 view .LVU1207
 4237 0042 4FF47A73 		mov	r3, #1000
 4238              	.LVL315:
 370:src/main.cpp  ****     if(p<0)p=0;if(p>1000)p=1000;
 4239              		.loc 6 370 29 view .LVU1208
 4240 0046 04EB8400 		add	r0, r4, r4, lsl #2
 370:src/main.cpp  ****     if(p<0)p=0;if(p>1000)p=1000;
 4241              		.loc 6 370 19 view .LVU1209
 4242 004a 03FB0CFC 		mul	ip, r3, ip
 4243              	.LVL316:
 370:src/main.cpp  ****     if(p<0)p=0;if(p>1000)p=1000;
ARM GAS  /tmp/claude-502/ccb6uqMv.s 			page 115


 4244              		.loc 6 370 29 view .LVU1210
 4245 004e 04EB4000 		add	r0, r4, r0, lsl #1
 370:src/main.cpp  ****     if(p<0)p=0;if(p>1000)p=1000;
 4246              		.loc 6 370 13 view .LVU1211
 4247 0052 9CFBF0F0 		sdiv	r0, ip, r0
 4248 0056 9842     		cmp	r0, r3
 4249 0058 A8BF     		it	ge
 4250 005a 1846     		movge	r0, r3
 4251 005c 20EAE070 		bic	r0, r0, r0, asr #31
 373:src/main.cpp  **** 
 4252              		.loc 6 373 1 view .LVU1212
 4253 0060 F0BD     		pop	{r4, r5, r6, r7, pc}
 4254              	.LVL317:
 4255              	.L217:
 362:src/main.cpp  ****     for(int i=s;i<=e;i++){
 4256              		.loc 6 362 24 view .LVU1213
 4257 0062 0025     		movs	r5, #0
 362:src/main.cpp  ****     for(int i=s;i<=e;i++){
 4258              		.loc 6 362 18 view .LVU1214
 4259 0064 AC46     		mov	ip, r5
 362:src/main.cpp  ****     for(int i=s;i<=e;i++){
 4260              		.loc 6 362 13 view .LVU1215
 4261 0066 2C46     		mov	r4, r5
 4262 0068 E6E7     		b	.L211
 4263              	.LVL318:
 4264              	.L218:
 369:src/main.cpp  ****     int32_t p=(swx*1000)/(sw*(N_CH-1));
 4265              		.loc 6 369 22 view .LVU1216
 4266 006a 4FF0FF30 		mov	r0, #-1
 373:src/main.cpp  **** 
 4267              		.loc 6 373 1 view .LVU1217
 4268 006e F0BD     		pop	{r4, r5, r6, r7, pc}
 373:src/main.cpp  **** 
 4269              		.loc 6 373 1 view .LVU1218
 4270              		.cfi_endproc
 4271              	.LFE2575:
 4273              		.section	.text._Z12pressure_pctli,"ax",%progbits
 4274              		.align	1
 4275              		.p2align 2,,3
 4276              		.global	_Z12pressure_pctli
 4277              		.syntax unified
 4278              		.thumb
 4279              		.thumb_func
 4281              	_Z12pressure_pctli:
 4282              	.LVL319:
 4283              	.LFB2576:
 375:src/main.cpp  ****     int32_t range = PRESSURE_MAX_REF[ch] - TOUCH_THRESHOLD;
 4284              		.loc 6 375 41 is_stmt 1 view -0
 4285              		.cfi_startproc
 4286              		@ args = 0, pretend = 0, frame = 0
 4287              		@ frame_needed = 0, uses_anonymous_args = 0
 4288              		@ link register save eliminated.
 376:src/main.cpp  ****     int32_t raw   = pk - TOUCH_THRESHOLD;
 4289              		.loc 6 376 5 view .LVU1220
 377:src/main.cpp  ****     if(raw <= 0)     return 0;
 4290              		.loc 6 377 13 is_stmt 0 view .LVU1221
 4291 0000 A0F10A02 		sub	r2, r0, #10
ARM GAS  /tmp/claude-502/ccb6uqMv.s 			page 116


 376:src/main.cpp  ****     int32_t raw   = pk - TOUCH_THRESHOLD;
 4292              		.loc 6 376 40 view .LVU1222
 4293 0004 1C4B     		ldr	r3, .L237
 378:src/main.cpp  ****     if(raw >= range) return 100;
 4294              		.loc 6 378 5 view .LVU1223
 4295 0006 002A     		cmp	r2, #0
 376:src/main.cpp  ****     int32_t raw   = pk - TOUCH_THRESHOLD;
 4296              		.loc 6 376 40 view .LVU1224
 4297 0008 53F82110 		ldr	r1, [r3, r1, lsl #2]
 4298              	.LVL320:
 377:src/main.cpp  ****     if(raw <= 0)     return 0;
 4299              		.loc 6 377 5 is_stmt 1 view .LVU1225
 378:src/main.cpp  ****     if(raw >= range) return 100;
 4300              		.loc 6 378 5 view .LVU1226
 4301 000c 30DD     		ble	.L236
 379:src/main.cpp  ****     // Clamp raw strictly before sqrt to prevent Newton overshoot
 4302              		.loc 6 379 5 view .LVU1227
 4303 000e 8142     		cmp	r1, r0
 4304 0010 30DD     		ble	.L235
 381:src/main.cpp  ****     int32_t scaled = raw * 10000 / range; // 0..10000
 4305              		.loc 6 381 5 view .LVU1228
 382:src/main.cpp  ****     if(scaled > 10000) scaled = 10000;
 4306              		.loc 6 382 5 view .LVU1229
 382:src/main.cpp  ****     if(scaled > 10000) scaled = 10000;
 4307              		.loc 6 382 26 is_stmt 0 view .LVU1230
 4308 0012 42F21070 		movw	r0, #10000
 4309              	.LVL321:
 376:src/main.cpp  ****     int32_t raw   = pk - TOUCH_THRESHOLD;
 4310              		.loc 6 376 13 view .LVU1231
 4311 0016 0A39     		subs	r1, r1, #10
 4312              	.LVL322:
 382:src/main.cpp  ****     if(scaled > 10000) scaled = 10000;
 4313              		.loc 6 382 26 view .LVU1232
 4314 0018 00FB02F2 		mul	r2, r0, r2
 4315              	.LVL323:
 382:src/main.cpp  ****     if(scaled > 10000) scaled = 10000;
 4316              		.loc 6 382 13 view .LVU1233
 4317 001c 92FBF1F3 		sdiv	r3, r2, r1
 4318              	.LVL324:
 383:src/main.cpp  ****     // Integer sqrt via Newton
 4319              		.loc 6 383 5 is_stmt 1 view .LVU1234
 4320 0020 8342     		cmp	r3, r0
 4321 0022 A8BF     		it	ge
 4322 0024 0346     		movge	r3, r0
 4323              	.LVL325:
 385:src/main.cpp  ****     s = (s + scaled/s) / 2;
 4324              		.loc 6 385 5 view .LVU1235
 385:src/main.cpp  ****     s = (s + scaled/s) / 2;
 4325              		.loc 6 385 24 is_stmt 0 view .LVU1236
 4326 0026 002B     		cmp	r3, #0
 4327 0028 1A46     		mov	r2, r3
 4328 002a B8BF     		it	lt
 4329 002c 5A1C     		addlt	r2, r3, #1
 4330 002e 5210     		asrs	r2, r2, #1
 385:src/main.cpp  ****     s = (s + scaled/s) / 2;
 4331              		.loc 6 385 13 view .LVU1237
 4332 0030 511C     		adds	r1, r2, #1
ARM GAS  /tmp/claude-502/ccb6uqMv.s 			page 117


 4333              	.LVL326:
 386:src/main.cpp  ****     s = (s + scaled/s) / 2;
 4334              		.loc 6 386 5 is_stmt 1 view .LVU1238
 386:src/main.cpp  ****     s = (s + scaled/s) / 2;
 4335              		.loc 6 386 20 is_stmt 0 view .LVU1239
 4336 0032 93FBF1F2 		sdiv	r2, r3, r1
 386:src/main.cpp  ****     s = (s + scaled/s) / 2;
 4337              		.loc 6 386 7 view .LVU1240
 4338 0036 5218     		adds	r2, r2, r1
 4339 0038 48BF     		it	mi
 4340 003a 0132     		addmi	r2, r2, #1
 4341 003c 5110     		asrs	r1, r2, #1
 4342              	.LVL327:
 387:src/main.cpp  ****     s = (s + scaled/s) / 2;
 4343              		.loc 6 387 5 is_stmt 1 view .LVU1241
 387:src/main.cpp  ****     s = (s + scaled/s) / 2;
 4344              		.loc 6 387 20 is_stmt 0 view .LVU1242
 4345 003e 93FBF1F2 		sdiv	r2, r3, r1
 387:src/main.cpp  ****     s = (s + scaled/s) / 2;
 4346              		.loc 6 387 7 view .LVU1243
 4347 0042 5218     		adds	r2, r2, r1
 4348 0044 48BF     		it	mi
 4349 0046 0132     		addmi	r2, r2, #1
 4350 0048 5210     		asrs	r2, r2, #1
 4351              	.LVL328:
 388:src/main.cpp  ****     s = (s + scaled/s) / 2;
 4352              		.loc 6 388 5 is_stmt 1 view .LVU1244
 388:src/main.cpp  ****     s = (s + scaled/s) / 2;
 4353              		.loc 6 388 20 is_stmt 0 view .LVU1245
 4354 004a 93FBF2F1 		sdiv	r1, r3, r2
 388:src/main.cpp  ****     s = (s + scaled/s) / 2;
 4355              		.loc 6 388 7 view .LVU1246
 4356 004e 8A18     		adds	r2, r1, r2
 4357              	.LVL329:
 388:src/main.cpp  ****     s = (s + scaled/s) / 2;
 4358              		.loc 6 388 7 view .LVU1247
 4359 0050 48BF     		it	mi
 4360 0052 0132     		addmi	r2, r2, #1
 4361 0054 5210     		asrs	r2, r2, #1
 4362              	.LVL330:
 389:src/main.cpp  ****     // Hard clamp output ŌĆö Newton can land at 101 due to rounding
 4363              		.loc 6 389 5 is_stmt 1 view .LVU1248
 389:src/main.cpp  ****     // Hard clamp output ŌĆö Newton can land at 101 due to rounding
 4364              		.loc 6 389 20 is_stmt 0 view .LVU1249
 4365 0056 93FBF2F3 		sdiv	r3, r3, r2
 4366              	.LVL331:
 389:src/main.cpp  ****     // Hard clamp output ŌĆö Newton can land at 101 due to rounding
 4367              		.loc 6 389 12 view .LVU1250
 4368 005a 1344     		add	r3, r3, r2
 4369              	.LVL332:
 391:src/main.cpp  ****     if(s > 100) s = 100;
 4370              		.loc 6 391 5 is_stmt 1 view .LVU1251
 4371 005c 5A1C     		adds	r2, r3, #1
 4372 005e 07DB     		blt	.L236
 392:src/main.cpp  ****     return s;
 4373              		.loc 6 392 5 view .LVU1252
 389:src/main.cpp  ****     // Hard clamp output ŌĆö Newton can land at 101 due to rounding
ARM GAS  /tmp/claude-502/ccb6uqMv.s 			page 118


 4374              		.loc 6 389 7 is_stmt 0 view .LVU1253
 4375 0060 002B     		cmp	r3, #0
 389:src/main.cpp  ****     // Hard clamp output ŌĆö Newton can land at 101 due to rounding
 4376              		.loc 6 389 7 view .LVU1254
 4377 0062 B8BF     		it	lt
 4378 0064 0133     		addlt	r3, r3, #1
 4379              	.LVL333:
 389:src/main.cpp  ****     // Hard clamp output ŌĆö Newton can land at 101 due to rounding
 4380              		.loc 6 389 7 view .LVU1255
 4381 0066 5810     		asrs	r0, r3, #1
 4382              	.LVL334:
 389:src/main.cpp  ****     // Hard clamp output ŌĆö Newton can land at 101 due to rounding
 4383              		.loc 6 389 7 view .LVU1256
 4384 0068 6428     		cmp	r0, #100
 4385 006a A8BF     		it	ge
 4386 006c 6420     		movge	r0, #100
 4387 006e 7047     		bx	lr
 4388              	.LVL335:
 4389              	.L236:
 378:src/main.cpp  ****     if(raw >= range) return 100;
 4390              		.loc 6 378 29 view .LVU1257
 4391 0070 0020     		movs	r0, #0
 394:src/main.cpp  **** 
 4392              		.loc 6 394 1 view .LVU1258
 4393 0072 7047     		bx	lr
 4394              	.LVL336:
 4395              	.L235:
 379:src/main.cpp  ****     // Clamp raw strictly before sqrt to prevent Newton overshoot
 4396              		.loc 6 379 29 view .LVU1259
 4397 0074 6420     		movs	r0, #100
 4398              	.LVL337:
 379:src/main.cpp  ****     // Clamp raw strictly before sqrt to prevent Newton overshoot
 4399              		.loc 6 379 29 view .LVU1260
 4400 0076 7047     		bx	lr
 4401              	.L238:
 4402              		.align	2
 4403              	.L237:
 4404 0078 00000000 		.word	.LANCHOR39
 4405              		.cfi_endproc
 4406              	.LFE2576:
 4408              		.section	.text._Z10detect_rawPlP6Finger,"ax",%progbits
 4409              		.align	1
 4410              		.p2align 2,,3
 4411              		.global	_Z10detect_rawPlP6Finger
 4412              		.syntax unified
 4413              		.thumb
 4414              		.thumb_func
 4416              	_Z10detect_rawPlP6Finger:
 4417              	.LVL338:
 4418              	.LFB2577:
 397:src/main.cpp  ****     out[0].active=out[1].active=false;
 4419              		.loc 6 397 1 is_stmt 1 view -0
 4420              		.cfi_startproc
 4421              		@ args = 0, pretend = 0, frame = 48
 4422              		@ frame_needed = 0, uses_anonymous_args = 0
 398:src/main.cpp  ****     int pka=0;int32_t da=0;
 4423              		.loc 6 398 5 view .LVU1262
ARM GAS  /tmp/claude-502/ccb6uqMv.s 			page 119


 398:src/main.cpp  ****     int pka=0;int32_t da=0;
 4424              		.loc 6 398 32 is_stmt 0 view .LVU1263
 4425 0000 0022     		movs	r2, #0
 4426 0002 A0F1040C 		sub	ip, r0, #4
 397:src/main.cpp  ****     out[0].active=out[1].active=false;
 4427              		.loc 6 397 1 view .LVU1264
 4428 0006 2DE9F04F 		push	{r4, r5, r6, r7, r8, r9, r10, fp, lr}
 4429              		.cfi_def_cfa_offset 36
 4430              		.cfi_offset 4, -36
 4431              		.cfi_offset 5, -32
 4432              		.cfi_offset 6, -28
 4433              		.cfi_offset 7, -24
 4434              		.cfi_offset 8, -20
 4435              		.cfi_offset 9, -16
 4436              		.cfi_offset 10, -12
 4437              		.cfi_offset 11, -8
 4438              		.cfi_offset 14, -4
 4439              	.LBB971:
 400:src/main.cpp  ****     if(da<TOUCH_THRESHOLD)return 0;
 4440              		.loc 6 400 13 view .LVU1265
 4441 000a 1346     		mov	r3, r2
 4442              	.LBE971:
 397:src/main.cpp  ****     out[0].active=out[1].active=false;
 4443              		.loc 6 397 1 view .LVU1266
 4444 000c 8DB0     		sub	sp, sp, #52
 4445              		.cfi_def_cfa_offset 88
 397:src/main.cpp  ****     out[0].active=out[1].active=false;
 4446              		.loc 6 397 1 view .LVU1267
 4447 000e 0646     		mov	r6, r0
 4448 0010 0D46     		mov	r5, r1
 399:src/main.cpp  ****     for(int i=0;i<N_CH;i++)if(delta[i]>da){da=delta[i];pka=i;}
 4449              		.loc 6 399 23 view .LVU1268
 4450 0012 9646     		mov	lr, r2
 399:src/main.cpp  ****     for(int i=0;i<N_CH;i++)if(delta[i]>da){da=delta[i];pka=i;}
 4451              		.loc 6 399 9 view .LVU1269
 4452 0014 1446     		mov	r4, r2
 398:src/main.cpp  ****     int pka=0;int32_t da=0;
 4453              		.loc 6 398 32 view .LVU1270
 4454 0016 0A75     		strb	r2, [r1, #20]
 398:src/main.cpp  ****     int pka=0;int32_t da=0;
 4455              		.loc 6 398 18 view .LVU1271
 4456 0018 0A70     		strb	r2, [r1]
 399:src/main.cpp  ****     for(int i=0;i<N_CH;i++)if(delta[i]>da){da=delta[i];pka=i;}
 4457              		.loc 6 399 5 is_stmt 1 view .LVU1272
 4458              	.LVL339:
 399:src/main.cpp  ****     for(int i=0;i<N_CH;i++)if(delta[i]>da){da=delta[i];pka=i;}
 4459              		.loc 6 399 15 view .LVU1273
 400:src/main.cpp  ****     if(da<TOUCH_THRESHOLD)return 0;
 4460              		.loc 6 400 5 view .LVU1274
 4461              	.LBB972:
 400:src/main.cpp  ****     if(da<TOUCH_THRESHOLD)return 0;
 4462              		.loc 6 400 18 view .LVU1275
 4463              	.L241:
 400:src/main.cpp  ****     if(da<TOUCH_THRESHOLD)return 0;
 4464              		.loc 6 400 28 discriminator 2 view .LVU1276
 400:src/main.cpp  ****     if(da<TOUCH_THRESHOLD)return 0;
 4465              		.loc 6 400 38 is_stmt 0 discriminator 2 view .LVU1277
ARM GAS  /tmp/claude-502/ccb6uqMv.s 			page 120


 4466 001a 5CF8042F 		ldr	r2, [ip, #4]!
 400:src/main.cpp  ****     if(da<TOUCH_THRESHOLD)return 0;
 4467              		.loc 6 400 28 discriminator 2 view .LVU1278
 4468 001e 7245     		cmp	r2, lr
 4469 0020 01DD     		ble	.L240
 400:src/main.cpp  ****     if(da<TOUCH_THRESHOLD)return 0;
 4470              		.loc 6 400 28 view .LVU1279
 4471 0022 1C46     		mov	r4, r3
 4472 0024 9646     		mov	lr, r2
 4473              	.LVL340:
 4474              	.L240:
 400:src/main.cpp  ****     if(da<TOUCH_THRESHOLD)return 0;
 4475              		.loc 6 400 5 is_stmt 1 discriminator 5 view .LVU1280
 4476 0026 0133     		adds	r3, r3, #1
 4477              	.LVL341:
 400:src/main.cpp  ****     if(da<TOUCH_THRESHOLD)return 0;
 4478              		.loc 6 400 18 discriminator 5 view .LVU1281
 4479 0028 0C2B     		cmp	r3, #12
 4480 002a F6D1     		bne	.L241
 4481              	.LBE972:
 401:src/main.cpp  ****     int ws=pka-2;if(ws<0)ws=0;int we=pka+2;if(we>=N_CH)we=N_CH-1;
 4482              		.loc 6 401 5 view .LVU1282
 4483 002c BEF1090F 		cmp	lr, #9
 4484 0030 03DC     		bgt	.L269
 401:src/main.cpp  ****     int ws=pka-2;if(ws<0)ws=0;int we=pka+2;if(we>=N_CH)we=N_CH-1;
 4485              		.loc 6 401 34 is_stmt 0 view .LVU1283
 4486 0032 0020     		movs	r0, #0
 4487              	.LVL342:
 419:src/main.cpp  **** 
 4488              		.loc 6 419 1 view .LVU1284
 4489 0034 0DB0     		add	sp, sp, #52
 4490              		.cfi_remember_state
 4491              		.cfi_def_cfa_offset 36
 4492              		@ sp needed
 4493 0036 BDE8F08F 		pop	{r4, r5, r6, r7, r8, r9, r10, fp, pc}
 4494              	.LVL343:
 4495              	.L269:
 4496              		.cfi_restore_state
 402:src/main.cpp  ****     int32_t pa;int pca;
 4497              		.loc 6 402 5 is_stmt 1 view .LVU1285
 402:src/main.cpp  ****     int32_t pa;int pca;
 4498              		.loc 6 402 35 is_stmt 0 view .LVU1286
 4499 003a 04F10208 		add	r8, r4, #2
 402:src/main.cpp  ****     int32_t pa;int pca;
 4500              		.loc 6 402 9 view .LVU1287
 4501 003e A71E     		subs	r7, r4, #2
 4502              	.LVL344:
 402:src/main.cpp  ****     int32_t pa;int pca;
 4503              		.loc 6 402 18 is_stmt 1 view .LVU1288
 4504 0040 B8F10B0F 		cmp	r8, #11
 4505 0044 27EAE777 		bic	r7, r7, r7, asr #31
 4506              	.LVL345:
 402:src/main.cpp  ****     int32_t pa;int pca;
 4507              		.loc 6 402 31 view .LVU1289
 402:src/main.cpp  ****     int32_t pa;int pca;
 4508              		.loc 6 402 44 view .LVU1290
 4509 0048 A8BF     		it	ge
ARM GAS  /tmp/claude-502/ccb6uqMv.s 			page 121


 4510 004a 4FF00B08 		movge	r8, #11
 4511              	.LVL346:
 403:src/main.cpp  ****     int32_t posa=centroid_window(delta,ws,we,&pa,&pca);
 4512              		.loc 6 403 5 view .LVU1291
 403:src/main.cpp  ****     int32_t posa=centroid_window(delta,ws,we,&pa,&pca);
 4513              		.loc 6 403 16 view .LVU1292
 404:src/main.cpp  ****     out[0]={true,posa,pressure_pct(pa,pca),pca,pa};
 4514              		.loc 6 404 5 view .LVU1293
 4515              	.LBB973:
 4516              	.LBI973:
 360:src/main.cpp  **** {
 4517              		.loc 6 360 9 view .LVU1294
 4518              	.LBB974:
 4519              	.LBB975:
 363:src/main.cpp  ****         int32_t w=d[i]>0?d[i]:0;
 4520              		.loc 6 363 18 view .LVU1295
 4521 004e B845     		cmp	r8, r7
 4522 0050 C0F2AD80 		blt	.L256
 4523 0054 6FF0404C 		mvn	ip, #-1073741824
 4524              	.LBE975:
 362:src/main.cpp  ****     for(int i=s;i<=e;i++){
 4525              		.loc 6 362 24 is_stmt 0 view .LVU1296
 4526 0058 4FF00009 		mov	r9, #0
 4527 005c 08F1010E 		add	lr, r8, #1
 4528              	.LVL347:
 4529              	.LBB977:
 363:src/main.cpp  ****         int32_t w=d[i]>0?d[i]:0;
 4530              		.loc 6 363 18 view .LVU1297
 4531 0060 BA46     		mov	r10, r7
 4532 0062 BC44     		add	ip, ip, r7
 4533 0064 3A46     		mov	r2, r7
 4534              	.LBE977:
 362:src/main.cpp  ****     for(int i=s;i<=e;i++){
 4535              		.loc 6 362 18 view .LVU1298
 4536 0066 4846     		mov	r0, r9
 4537              	.LVL348:
 362:src/main.cpp  ****     for(int i=s;i<=e;i++){
 4538              		.loc 6 362 13 view .LVU1299
 4539 0068 4946     		mov	r1, r9
 4540              	.LVL349:
 362:src/main.cpp  ****     for(int i=s;i<=e;i++){
 4541              		.loc 6 362 13 view .LVU1300
 4542 006a 06EB8C0C 		add	ip, r6, ip, lsl #2
 4543              	.LVL350:
 4544              	.L245:
 4545              	.LBB978:
 4546              	.LBB976:
 364:src/main.cpp  ****         sw+=w;swx+=w*i;
 4547              		.loc 6 364 9 is_stmt 1 view .LVU1301
 364:src/main.cpp  ****         sw+=w;swx+=w*i;
 4548              		.loc 6 364 17 is_stmt 0 view .LVU1302
 4549 006e 5CF8043F 		ldr	r3, [ip, #4]!
 4550 0072 23EAE373 		bic	r3, r3, r3, asr #31
 4551              	.LVL351:
 365:src/main.cpp  ****         if(w>pk){pk=w;pkc=i;}
 4552              		.loc 6 365 9 is_stmt 1 view .LVU1303
 366:src/main.cpp  ****     }
ARM GAS  /tmp/claude-502/ccb6uqMv.s 			page 122


 4553              		.loc 6 366 9 is_stmt 0 view .LVU1304
 4554 0076 9945     		cmp	r9, r3
 365:src/main.cpp  ****         if(w>pk){pk=w;pkc=i;}
 4555              		.loc 6 365 18 view .LVU1305
 4556 0078 02FB0300 		mla	r0, r2, r3, r0
 4557              	.LVL352:
 365:src/main.cpp  ****         if(w>pk){pk=w;pkc=i;}
 4558              		.loc 6 365 11 view .LVU1306
 4559 007c 1944     		add	r1, r1, r3
 4560              	.LVL353:
 365:src/main.cpp  ****         if(w>pk){pk=w;pkc=i;}
 4561              		.loc 6 365 15 is_stmt 1 view .LVU1307
 366:src/main.cpp  ****     }
 4562              		.loc 6 366 9 view .LVU1308
 4563 007e 01DA     		bge	.L244
 366:src/main.cpp  ****     }
 4564              		.loc 6 366 9 is_stmt 0 view .LVU1309
 4565 0080 9246     		mov	r10, r2
 4566 0082 9946     		mov	r9, r3
 4567              	.LVL354:
 4568              	.L244:
 366:src/main.cpp  ****     }
 4569              		.loc 6 366 9 view .LVU1310
 4570              	.LBE976:
 363:src/main.cpp  ****         int32_t w=d[i]>0?d[i]:0;
 4571              		.loc 6 363 5 is_stmt 1 view .LVU1311
 4572 0084 0132     		adds	r2, r2, #1
 4573              	.LVL355:
 363:src/main.cpp  ****         int32_t w=d[i]>0?d[i]:0;
 4574              		.loc 6 363 18 view .LVU1312
 4575 0086 7245     		cmp	r2, lr
 4576 0088 F1D1     		bne	.L245
 4577              	.LBE978:
 368:src/main.cpp  ****     if(sw==0)return -1;
 4578              		.loc 6 368 5 view .LVU1313
 368:src/main.cpp  ****     if(sw==0)return -1;
 4579              		.loc 6 368 15 view .LVU1314
 4580              	.LVL356:
 368:src/main.cpp  ****     if(sw==0)return -1;
 4581              		.loc 6 368 26 view .LVU1315
 368:src/main.cpp  ****     if(sw==0)return -1;
 4582              		.loc 6 368 38 view .LVU1316
 369:src/main.cpp  ****     int32_t p=(swx*1000)/(sw*(N_CH-1));
 4583              		.loc 6 369 5 view .LVU1317
 4584 008a 0029     		cmp	r1, #0
 4585 008c 00F09880 		beq	.L257
 370:src/main.cpp  ****     if(p<0)p=0;if(p>1000)p=1000;
 4586              		.loc 6 370 5 view .LVU1318
 4587              	.LVL357:
 371:src/main.cpp  ****     return p;
 4588              		.loc 6 371 5 view .LVU1319
 370:src/main.cpp  ****     if(p<0)p=0;if(p>1000)p=1000;
 4589              		.loc 6 370 19 is_stmt 0 view .LVU1320
 4590 0090 4FF47A7B 		mov	fp, #1000
 4591 0094 0BFB00F0 		mul	r0, fp, r0
 4592              	.LVL358:
 370:src/main.cpp  ****     if(p<0)p=0;if(p>1000)p=1000;
ARM GAS  /tmp/claude-502/ccb6uqMv.s 			page 123


 4593              		.loc 6 370 29 view .LVU1321
 4594 0098 01EB810B 		add	fp, r1, r1, lsl #2
 4595 009c 01EB4B0B 		add	fp, r1, fp, lsl #1
 370:src/main.cpp  ****     if(p<0)p=0;if(p>1000)p=1000;
 4596              		.loc 6 370 13 view .LVU1322
 4597 00a0 B0FBFBFB 		udiv	fp, r0, fp
 4598 00a4 BBF57A7F 		cmp	fp, #1000
 4599 00a8 A8BF     		it	ge
 4600 00aa 4FF47A7B 		movge	fp, #1000
 4601              	.LVL359:
 4602              	.L243:
 370:src/main.cpp  ****     if(p<0)p=0;if(p>1000)p=1000;
 4603              		.loc 6 370 13 view .LVU1323
 4604              	.LBE974:
 4605              	.LBE973:
 405:src/main.cpp  **** 
 4606              		.loc 6 405 5 is_stmt 1 view .LVU1324
 405:src/main.cpp  **** 
 4607              		.loc 6 405 35 is_stmt 0 view .LVU1325
 4608 00ae 5146     		mov	r1, r10
 4609 00b0 4846     		mov	r0, r9
 4610 00b2 FFF7FEFF 		bl	_Z12pressure_pctli
 4611              	.LVL360:
 405:src/main.cpp  **** 
 4612              		.loc 6 405 11 view .LVU1326
 4613 00b6 0123     		movs	r3, #1
 4614 00b8 EC46     		mov	ip, sp
 4615 00ba C5F804B0 		str	fp, [r5, #4]
 4616 00be 2B70     		strb	r3, [r5]
 4617              	.LBB982:
 409:src/main.cpp  ****     int pkb=0;int32_t db=0;
 4618              		.loc 6 409 13 view .LVU1327
 4619 00c0 0023     		movs	r3, #0
 4620              	.LBE982:
 405:src/main.cpp  **** 
 4621              		.loc 6 405 11 view .LVU1328
 4622 00c2 C5F81090 		str	r9, [r5, #16]
 407:src/main.cpp  ****     int ss=pka-2;if(ss<0)ss=0;int se=pka+2;if(se>=N_CH)se=N_CH-1;
 4623              		.loc 6 407 5 is_stmt 1 view .LVU1329
 408:src/main.cpp  ****     for(int i=0;i<N_CH;i++)d2[i]=(i>=ss&&i<=se)?0:delta[i];
 4624              		.loc 6 408 5 view .LVU1330
 4625              	.LVL361:
 408:src/main.cpp  ****     for(int i=0;i<N_CH;i++)d2[i]=(i>=ss&&i<=se)?0:delta[i];
 4626              		.loc 6 408 18 view .LVU1331
 408:src/main.cpp  ****     for(int i=0;i<N_CH;i++)d2[i]=(i>=ss&&i<=se)?0:delta[i];
 4627              		.loc 6 408 31 view .LVU1332
 408:src/main.cpp  ****     for(int i=0;i<N_CH;i++)d2[i]=(i>=ss&&i<=se)?0:delta[i];
 4628              		.loc 6 408 44 view .LVU1333
 4629              	.LBB983:
 409:src/main.cpp  ****     int pkb=0;int32_t db=0;
 4630              		.loc 6 409 18 view .LVU1334
 4631              	.LBE983:
 405:src/main.cpp  **** 
 4632              		.loc 6 405 11 is_stmt 0 view .LVU1335
 4633 00c6 C5E9020A 		strd	r0, r10, [r5, #8]
 4634 00ca 6846     		mov	r0, sp
 4635 00cc 04E0     		b	.L248
ARM GAS  /tmp/claude-502/ccb6uqMv.s 			page 124


 4636              	.LVL362:
 4637              	.L246:
 4638              	.LBB984:
 409:src/main.cpp  ****     int pkb=0;int32_t db=0;
 4639              		.loc 6 409 5 discriminator 6 view .LVU1336
 4640 00ce 0133     		adds	r3, r3, #1
 4641              	.LVL363:
 409:src/main.cpp  ****     int pkb=0;int32_t db=0;
 4642              		.loc 6 409 33 discriminator 6 view .LVU1337
 4643 00d0 4CF8042B 		str	r2, [ip], #4
 409:src/main.cpp  ****     int pkb=0;int32_t db=0;
 4644              		.loc 6 409 5 is_stmt 1 discriminator 6 view .LVU1338
 4645              	.LVL364:
 409:src/main.cpp  ****     int pkb=0;int32_t db=0;
 4646              		.loc 6 409 18 discriminator 6 view .LVU1339
 4647 00d4 0C2B     		cmp	r3, #12
 4648 00d6 0FD0     		beq	.L270
 4649              	.LVL365:
 4650              	.L248:
 409:src/main.cpp  ****     int pkb=0;int32_t db=0;
 4651              		.loc 6 409 28 discriminator 2 view .LVU1340
 409:src/main.cpp  ****     int pkb=0;int32_t db=0;
 4652              		.loc 6 409 48 is_stmt 0 discriminator 2 view .LVU1341
 4653 00d8 9F42     		cmp	r7, r3
 4654 00da 06DC     		bgt	.L262
 4655 00dc 9845     		cmp	r8, r3
 4656 00de ACBF     		ite	ge
 4657 00e0 0021     		movge	r1, #0
 4658 00e2 0121     		movlt	r1, #1
 4659 00e4 0A46     		mov	r2, r1
 4660 00e6 0029     		cmp	r1, #0
 4661 00e8 F1D0     		beq	.L246
 4662              	.L262:
 409:src/main.cpp  ****     int pkb=0;int32_t db=0;
 4663              		.loc 6 409 48 discriminator 3 view .LVU1342
 4664 00ea 56F82320 		ldr	r2, [r6, r3, lsl #2]
 409:src/main.cpp  ****     int pkb=0;int32_t db=0;
 4665              		.loc 6 409 5 discriminator 3 view .LVU1343
 4666 00ee 0133     		adds	r3, r3, #1
 4667              	.LVL366:
 409:src/main.cpp  ****     int pkb=0;int32_t db=0;
 4668              		.loc 6 409 18 discriminator 3 view .LVU1344
 4669 00f0 0C2B     		cmp	r3, #12
 409:src/main.cpp  ****     int pkb=0;int32_t db=0;
 4670              		.loc 6 409 33 discriminator 3 view .LVU1345
 4671 00f2 4CF8042B 		str	r2, [ip], #4
 409:src/main.cpp  ****     int pkb=0;int32_t db=0;
 4672              		.loc 6 409 5 is_stmt 1 discriminator 3 view .LVU1346
 4673              	.LVL367:
 409:src/main.cpp  ****     int pkb=0;int32_t db=0;
 4674              		.loc 6 409 18 discriminator 3 view .LVU1347
 4675 00f6 EFD1     		bne	.L248
 4676              	.L270:
 409:src/main.cpp  ****     int pkb=0;int32_t db=0;
 4677              		.loc 6 409 18 is_stmt 0 discriminator 3 view .LVU1348
 4678              	.LBE984:
 4679              	.LBB985:
ARM GAS  /tmp/claude-502/ccb6uqMv.s 			page 125


 411:src/main.cpp  ****     int sep=pkb-pka;if(sep<0)sep=-sep;
 4680              		.loc 6 411 13 view .LVU1349
 4681 00f8 0023     		movs	r3, #0
 4682              	.LVL368:
 411:src/main.cpp  ****     int sep=pkb-pka;if(sep<0)sep=-sep;
 4683              		.loc 6 411 13 view .LVU1350
 4684              	.LBE985:
 410:src/main.cpp  ****     for(int i=0;i<N_CH;i++)if(d2[i]>db){db=d2[i];pkb=i;}
 4685              		.loc 6 410 23 view .LVU1351
 4686 00fa 1946     		mov	r1, r3
 410:src/main.cpp  ****     for(int i=0;i<N_CH;i++)if(d2[i]>db){db=d2[i];pkb=i;}
 4687              		.loc 6 410 9 view .LVU1352
 4688 00fc 1E46     		mov	r6, r3
 4689              	.LVL369:
 4690              	.L250:
 4691              	.LBB986:
 411:src/main.cpp  ****     int sep=pkb-pka;if(sep<0)sep=-sep;
 4692              		.loc 6 411 28 is_stmt 1 discriminator 2 view .LVU1353
 411:src/main.cpp  ****     int sep=pkb-pka;if(sep<0)sep=-sep;
 4693              		.loc 6 411 35 is_stmt 0 discriminator 2 view .LVU1354
 4694 00fe 50F8042B 		ldr	r2, [r0], #4
 411:src/main.cpp  ****     int sep=pkb-pka;if(sep<0)sep=-sep;
 4695              		.loc 6 411 28 discriminator 2 view .LVU1355
 4696 0102 8A42     		cmp	r2, r1
 4697 0104 01DD     		ble	.L249
 411:src/main.cpp  ****     int sep=pkb-pka;if(sep<0)sep=-sep;
 4698              		.loc 6 411 28 view .LVU1356
 4699 0106 1E46     		mov	r6, r3
 4700 0108 1146     		mov	r1, r2
 4701              	.LVL370:
 4702              	.L249:
 411:src/main.cpp  ****     int sep=pkb-pka;if(sep<0)sep=-sep;
 4703              		.loc 6 411 5 is_stmt 1 discriminator 5 view .LVU1357
 4704 010a 0133     		adds	r3, r3, #1
 4705              	.LVL371:
 411:src/main.cpp  ****     int sep=pkb-pka;if(sep<0)sep=-sep;
 4706              		.loc 6 411 18 discriminator 5 view .LVU1358
 4707 010c 0C2B     		cmp	r3, #12
 4708 010e F6D1     		bne	.L250
 4709              	.LBE986:
 412:src/main.cpp  ****     if(db<TOUCH_THRESHOLD||sep<MIN_FINGER_SEP)return 1;
 4710              		.loc 6 412 5 view .LVU1359
 4711              	.LVL372:
 412:src/main.cpp  ****     if(db<TOUCH_THRESHOLD||sep<MIN_FINGER_SEP)return 1;
 4712              		.loc 6 412 21 view .LVU1360
 4713 0110 331B     		subs	r3, r6, r4
 4714              	.LVL373:
 412:src/main.cpp  ****     if(db<TOUCH_THRESHOLD||sep<MIN_FINGER_SEP)return 1;
 4715              		.loc 6 412 30 view .LVU1361
 412:src/main.cpp  ****     if(db<TOUCH_THRESHOLD||sep<MIN_FINGER_SEP)return 1;
 4716              		.loc 6 412 33 is_stmt 0 view .LVU1362
 4717 0112 48BF     		it	mi
 4718 0114 A31B     		submi	r3, r4, r6
 4719              	.LVL374:
 413:src/main.cpp  ****     int ws2=pkb-2;if(ws2<0)ws2=0;int we2=pkb+2;if(we2>=N_CH)we2=N_CH-1;
 4720              		.loc 6 413 5 is_stmt 1 view .LVU1363
 4721 0116 0929     		cmp	r1, #9
ARM GAS  /tmp/claude-502/ccb6uqMv.s 			page 126


 4722 0118 45DD     		ble	.L259
 4723 011a 032B     		cmp	r3, #3
 4724 011c CCBF     		ite	gt
 4725 011e 0024     		movgt	r4, #0
 4726 0120 0124     		movle	r4, #1
 4727 0122 002C     		cmp	r4, #0
 4728 0124 3FD1     		bne	.L259
 414:src/main.cpp  ****     int32_t pb;int pcb;
 4729              		.loc 6 414 5 view .LVU1364
 414:src/main.cpp  ****     int32_t pb;int pcb;
 4730              		.loc 6 414 9 is_stmt 0 view .LVU1365
 4731 0126 A6F10208 		sub	r8, r6, #2
 4732              	.LVL375:
 414:src/main.cpp  ****     int32_t pb;int pcb;
 4733              		.loc 6 414 19 is_stmt 1 view .LVU1366
 414:src/main.cpp  ****     int32_t pb;int pcb;
 4734              		.loc 6 414 38 is_stmt 0 view .LVU1367
 4735 012a 0236     		adds	r6, r6, #2
 4736 012c 0B2E     		cmp	r6, #11
 4737 012e 28EAE878 		bic	r8, r8, r8, asr #31
 4738              	.LVL376:
 414:src/main.cpp  ****     int32_t pb;int pcb;
 4739              		.loc 6 414 34 is_stmt 1 view .LVU1368
 414:src/main.cpp  ****     int32_t pb;int pcb;
 4740              		.loc 6 414 48 view .LVU1369
 4741 0132 A8BF     		it	ge
 4742 0134 0B26     		movge	r6, #11
 4743              	.LVL377:
 415:src/main.cpp  ****     int32_t posb=centroid_window(d2,ws2,we2,&pb,&pcb);
 4744              		.loc 6 415 5 view .LVU1370
 415:src/main.cpp  ****     int32_t posb=centroid_window(d2,ws2,we2,&pb,&pcb);
 4745              		.loc 6 415 16 view .LVU1371
 416:src/main.cpp  ****     out[1]={true,posb,pressure_pct(pb,pcb),pcb,pb};
 4746              		.loc 6 416 5 view .LVU1372
 4747              	.LBB987:
 4748              	.LBI987:
 360:src/main.cpp  **** {
 4749              		.loc 6 360 9 view .LVU1373
 4750              	.LBB988:
 4751              	.LBB989:
 363:src/main.cpp  ****         int32_t w=d[i]>0?d[i]:0;
 4752              		.loc 6 363 18 view .LVU1374
 4753 0136 4645     		cmp	r6, r8
 4754 0138 3FDB     		blt	.L261
 4755 013a 721C     		adds	r2, r6, #1
 4756 013c 6FF04046 		mvn	r6, #-1073741824
 4757              	.LVL378:
 363:src/main.cpp  ****         int32_t w=d[i]>0?d[i]:0;
 4758              		.loc 6 363 18 is_stmt 0 view .LVU1375
 4759 0140 4046     		mov	r0, r8
 4760              	.LBE989:
 362:src/main.cpp  ****     for(int i=s;i<=e;i++){
 4761              		.loc 6 362 18 view .LVU1376
 4762 0142 2746     		mov	r7, r4
 4763              	.LVL379:
 362:src/main.cpp  ****     for(int i=s;i<=e;i++){
 4764              		.loc 6 362 18 view .LVU1377
ARM GAS  /tmp/claude-502/ccb6uqMv.s 			page 127


 4765 0144 4644     		add	r6, r6, r8
 362:src/main.cpp  ****     for(int i=s;i<=e;i++){
 4766              		.loc 6 362 13 view .LVU1378
 4767 0146 2146     		mov	r1, r4
 4768              	.LVL380:
 362:src/main.cpp  ****     for(int i=s;i<=e;i++){
 4769              		.loc 6 362 13 view .LVU1379
 4770 0148 0DEB8606 		add	r6, sp, r6, lsl #2
 4771              	.LVL381:
 4772              	.L254:
 4773              	.LBB991:
 4774              	.LBB990:
 364:src/main.cpp  ****         sw+=w;swx+=w*i;
 4775              		.loc 6 364 9 is_stmt 1 view .LVU1380
 364:src/main.cpp  ****         sw+=w;swx+=w*i;
 4776              		.loc 6 364 17 is_stmt 0 view .LVU1381
 4777 014c 56F8043F 		ldr	r3, [r6, #4]!
 4778 0150 23EAE373 		bic	r3, r3, r3, asr #31
 4779              	.LVL382:
 365:src/main.cpp  ****         if(w>pk){pk=w;pkc=i;}
 4780              		.loc 6 365 9 is_stmt 1 view .LVU1382
 366:src/main.cpp  ****     }
 4781              		.loc 6 366 9 is_stmt 0 view .LVU1383
 4782 0154 9C42     		cmp	r4, r3
 365:src/main.cpp  ****         if(w>pk){pk=w;pkc=i;}
 4783              		.loc 6 365 18 view .LVU1384
 4784 0156 03FB0077 		mla	r7, r3, r0, r7
 4785              	.LVL383:
 365:src/main.cpp  ****         if(w>pk){pk=w;pkc=i;}
 4786              		.loc 6 365 11 view .LVU1385
 4787 015a 1944     		add	r1, r1, r3
 4788              	.LVL384:
 365:src/main.cpp  ****         if(w>pk){pk=w;pkc=i;}
 4789              		.loc 6 365 15 is_stmt 1 view .LVU1386
 366:src/main.cpp  ****     }
 4790              		.loc 6 366 9 view .LVU1387
 4791 015c 01DA     		bge	.L253
 366:src/main.cpp  ****     }
 4792              		.loc 6 366 9 is_stmt 0 view .LVU1388
 4793 015e 8046     		mov	r8, r0
 4794 0160 1C46     		mov	r4, r3
 4795              	.LVL385:
 4796              	.L253:
 366:src/main.cpp  ****     }
 4797              		.loc 6 366 9 view .LVU1389
 4798              	.LBE990:
 363:src/main.cpp  ****         int32_t w=d[i]>0?d[i]:0;
 4799              		.loc 6 363 5 is_stmt 1 view .LVU1390
 4800 0162 0130     		adds	r0, r0, #1
 4801              	.LVL386:
 363:src/main.cpp  ****         int32_t w=d[i]>0?d[i]:0;
 4802              		.loc 6 363 18 view .LVU1391
 4803 0164 8242     		cmp	r2, r0
 4804 0166 F1D1     		bne	.L254
 4805              	.LBE991:
 368:src/main.cpp  ****     if(sw==0)return -1;
 4806              		.loc 6 368 5 view .LVU1392
ARM GAS  /tmp/claude-502/ccb6uqMv.s 			page 128


 368:src/main.cpp  ****     if(sw==0)return -1;
 4807              		.loc 6 368 15 view .LVU1393
 4808              	.LVL387:
 368:src/main.cpp  ****     if(sw==0)return -1;
 4809              		.loc 6 368 26 view .LVU1394
 368:src/main.cpp  ****     if(sw==0)return -1;
 4810              		.loc 6 368 38 view .LVU1395
 369:src/main.cpp  ****     int32_t p=(swx*1000)/(sw*(N_CH-1));
 4811              		.loc 6 369 5 view .LVU1396
 4812 0168 39B3     		cbz	r1, .L261
 370:src/main.cpp  ****     if(p<0)p=0;if(p>1000)p=1000;
 4813              		.loc 6 370 5 view .LVU1397
 4814              	.LVL388:
 371:src/main.cpp  ****     return p;
 4815              		.loc 6 371 5 view .LVU1398
 370:src/main.cpp  ****     if(p<0)p=0;if(p>1000)p=1000;
 4816              		.loc 6 370 19 is_stmt 0 view .LVU1399
 4817 016a 4FF47A76 		mov	r6, #1000
 370:src/main.cpp  ****     if(p<0)p=0;if(p>1000)p=1000;
 4818              		.loc 6 370 29 view .LVU1400
 4819 016e 01EB8103 		add	r3, r1, r1, lsl #2
 4820              	.LVL389:
 370:src/main.cpp  ****     if(p<0)p=0;if(p>1000)p=1000;
 4821              		.loc 6 370 19 view .LVU1401
 4822 0172 07FB06F6 		mul	r6, r7, r6
 370:src/main.cpp  ****     if(p<0)p=0;if(p>1000)p=1000;
 4823              		.loc 6 370 29 view .LVU1402
 4824 0176 01EB4301 		add	r1, r1, r3, lsl #1
 4825              	.LVL390:
 370:src/main.cpp  ****     if(p<0)p=0;if(p>1000)p=1000;
 4826              		.loc 6 370 13 view .LVU1403
 4827 017a B6FBF1F6 		udiv	r6, r6, r1
 4828 017e B6F57A7F 		cmp	r6, #1000
 4829 0182 A8BF     		it	ge
 4830 0184 4FF47A76 		movge	r6, #1000
 4831              	.LVL391:
 4832              	.L252:
 370:src/main.cpp  ****     if(p<0)p=0;if(p>1000)p=1000;
 4833              		.loc 6 370 13 view .LVU1404
 4834              	.LBE988:
 4835              	.LBE987:
 417:src/main.cpp  ****     return 2;
 4836              		.loc 6 417 5 is_stmt 1 view .LVU1405
 417:src/main.cpp  ****     return 2;
 4837              		.loc 6 417 35 is_stmt 0 view .LVU1406
 4838 0188 4146     		mov	r1, r8
 4839 018a 2046     		mov	r0, r4
 4840 018c FFF7FEFF 		bl	_Z12pressure_pctli
 4841              	.LVL392:
 4842 0190 0346     		mov	r3, r0
 418:src/main.cpp  **** }
 4843              		.loc 6 418 12 view .LVU1407
 4844 0192 0220     		movs	r0, #2
 417:src/main.cpp  ****     return 2;
 4845              		.loc 6 417 11 view .LVU1408
 4846 0194 AE61     		str	r6, [r5, #24]
 4847 0196 6C62     		str	r4, [r5, #36]
ARM GAS  /tmp/claude-502/ccb6uqMv.s 			page 129


 418:src/main.cpp  **** }
 4848              		.loc 6 418 5 is_stmt 1 view .LVU1409
 417:src/main.cpp  ****     return 2;
 4849              		.loc 6 417 11 is_stmt 0 view .LVU1410
 4850 0198 C5E90738 		strd	r3, r8, [r5, #28]
 4851 019c 0123     		movs	r3, #1
 4852 019e 2B75     		strb	r3, [r5, #20]
 419:src/main.cpp  **** 
 4853              		.loc 6 419 1 view .LVU1411
 4854 01a0 0DB0     		add	sp, sp, #52
 4855              		.cfi_remember_state
 4856              		.cfi_def_cfa_offset 36
 4857              		@ sp needed
 4858 01a2 BDE8F08F 		pop	{r4, r5, r6, r7, r8, r9, r10, fp, pc}
 4859              	.LVL393:
 4860              	.L259:
 4861              		.cfi_restore_state
 413:src/main.cpp  ****     int ws2=pkb-2;if(ws2<0)ws2=0;int we2=pkb+2;if(we2>=N_CH)we2=N_CH-1;
 4862              		.loc 6 413 54 view .LVU1412
 4863 01a6 0120     		movs	r0, #1
 419:src/main.cpp  **** 
 4864              		.loc 6 419 1 view .LVU1413
 4865 01a8 0DB0     		add	sp, sp, #52
 4866              		.cfi_remember_state
 4867              		.cfi_def_cfa_offset 36
 4868              		@ sp needed
 4869 01aa BDE8F08F 		pop	{r4, r5, r6, r7, r8, r9, r10, fp, pc}
 4870              	.LVL394:
 4871              	.L256:
 4872              		.cfi_restore_state
 4873              	.LBB993:
 4874              	.LBB980:
 4875              	.LBB979:
 363:src/main.cpp  ****         int32_t w=d[i]>0?d[i]:0;
 4876              		.loc 6 363 18 view .LVU1414
 4877 01ae BA46     		mov	r10, r7
 4878              	.LBE979:
 362:src/main.cpp  ****     for(int i=s;i<=e;i++){
 4879              		.loc 6 362 24 view .LVU1415
 4880 01b0 4FF00009 		mov	r9, #0
 369:src/main.cpp  ****     int32_t p=(swx*1000)/(sw*(N_CH-1));
 4881              		.loc 6 369 22 view .LVU1416
 4882 01b4 4FF0FF3B 		mov	fp, #-1
 4883 01b8 79E7     		b	.L243
 4884              	.LVL395:
 4885              	.L261:
 369:src/main.cpp  ****     int32_t p=(swx*1000)/(sw*(N_CH-1));
 4886              		.loc 6 369 22 view .LVU1417
 4887              	.LBE980:
 4888              	.LBE993:
 4889              	.LBB994:
 4890              	.LBB992:
 4891 01ba 4FF0FF36 		mov	r6, #-1
 4892 01be E3E7     		b	.L252
 4893              	.LVL396:
 4894              	.L257:
 369:src/main.cpp  ****     int32_t p=(swx*1000)/(sw*(N_CH-1));
ARM GAS  /tmp/claude-502/ccb6uqMv.s 			page 130


 4895              		.loc 6 369 22 view .LVU1418
 4896              	.LBE992:
 4897              	.LBE994:
 4898              	.LBB995:
 4899              	.LBB981:
 4900 01c0 4FF0FF3B 		mov	fp, #-1
 4901 01c4 73E7     		b	.L243
 4902              	.LBE981:
 4903              	.LBE995:
 4904              		.cfi_endproc
 4905              	.LFE2577:
 4907 01c6 00BF     		.section	.text._Z14update_trackedP6Fingeri,"ax",%progbits
 4908              		.align	1
 4909              		.p2align 2,,3
 4910              		.global	_Z14update_trackedP6Fingeri
 4911              		.syntax unified
 4912              		.thumb
 4913              		.thumb_func
 4915              	_Z14update_trackedP6Fingeri:
 4916              	.LVL397:
 4917              	.LFB2578:
 422:src/main.cpp  ****     bool ra[2]={false,false};
 4918              		.loc 6 422 1 is_stmt 1 view -0
 4919              		.cfi_startproc
 4920              		@ args = 0, pretend = 0, frame = 8
 4921              		@ frame_needed = 0, uses_anonymous_args = 0
 423:src/main.cpp  ****     for(int slot=0;slot<2;slot++){
 4922              		.loc 6 423 5 view .LVU1420
 422:src/main.cpp  ****     bool ra[2]={false,false};
 4923              		.loc 6 422 1 is_stmt 0 view .LVU1421
 4924 0000 2DE9F047 		push	{r4, r5, r6, r7, r8, r9, r10, lr}
 4925              		.cfi_def_cfa_offset 32
 4926              		.cfi_offset 4, -32
 4927              		.cfi_offset 5, -28
 4928              		.cfi_offset 6, -24
 4929              		.cfi_offset 7, -20
 4930              		.cfi_offset 8, -16
 4931              		.cfi_offset 9, -12
 4932              		.cfi_offset 10, -8
 4933              		.cfi_offset 14, -4
 4934 0004 374C     		ldr	r4, .L295
 4935 0006 82B0     		sub	sp, sp, #8
 4936              		.cfi_def_cfa_offset 40
 423:src/main.cpp  ****     for(int slot=0;slot<2;slot++){
 4937              		.loc 6 423 10 view .LVU1422
 4938 0008 0022     		movs	r2, #0
 4939 000a 2346     		mov	r3, r4
 4940 000c 04F12808 		add	r8, r4, #40
 4941 0010 8DF80420 		strb	r2, [sp, #4]
 4942 0014 8DF80520 		strb	r2, [sp, #5]
 424:src/main.cpp  ****         if(!tracked[slot].alive)continue;
 4943              		.loc 6 424 5 is_stmt 1 view .LVU1423
 4944              	.LVL398:
 4945              	.LBB996:
 424:src/main.cpp  ****         if(!tracked[slot].alive)continue;
 4946              		.loc 6 424 24 view .LVU1424
 4947              	.L277:
ARM GAS  /tmp/claude-502/ccb6uqMv.s 			page 131


 4948              	.LBB997:
 425:src/main.cpp  ****         int32_t best=MAX_POS_JUMP+1;int br=-1;
 4949              		.loc 6 425 9 view .LVU1425
 4950 0018 1A78     		ldrb	r2, [r3]	@ zero_extendqisi2
 4951 001a 9AB9     		cbnz	r2, .L293
 4952              	.L272:
 4953              	.LBE997:
 424:src/main.cpp  ****         if(!tracked[slot].alive)continue;
 4954              		.loc 6 424 5 discriminator 2 view .LVU1426
 424:src/main.cpp  ****         if(!tracked[slot].alive)continue;
 4955              		.loc 6 424 24 discriminator 2 view .LVU1427
 4956 001c 1433     		adds	r3, r3, #20
 4957 001e 4345     		cmp	r3, r8
 4958 0020 FAD1     		bne	.L277
 4959              	.LVL399:
 424:src/main.cpp  ****         if(!tracked[slot].alive)continue;
 4960              		.loc 6 424 24 is_stmt 0 discriminator 2 view .LVU1428
 4961              	.LBE996:
 4962              	.LBB1003:
 438:src/main.cpp  ****         if(ra[r])continue;
 4963              		.loc 6 438 18 is_stmt 1 view .LVU1429
 4964 0022 0029     		cmp	r1, #0
 4965 0024 0BDD     		ble	.L271
 438:src/main.cpp  ****         if(ra[r])continue;
 4966              		.loc 6 438 18 is_stmt 0 view .LVU1430
 4967 0026 01EB8103 		add	r3, r1, r1, lsl #2
 4968 002a 01AA     		add	r2, sp, #4
 4969 002c 00EB8303 		add	r3, r0, r3, lsl #2
 4970              	.LVL400:
 4971              	.L281:
 4972              	.LBB1004:
 439:src/main.cpp  ****         for(int slot=0;slot<2;slot++){
 4973              		.loc 6 439 9 is_stmt 1 view .LVU1431
 4974              	.LBB1005:
 440:src/main.cpp  ****             if(!tracked[slot].alive){
 4975              		.loc 6 440 28 view .LVU1432
 441:src/main.cpp  ****                 tracked[slot]={true,raw[r].pos,raw[r].pressure,raw[r].peak_ch,raw[r].peak_delta};
 4976              		.loc 6 441 13 view .LVU1433
 440:src/main.cpp  ****             if(!tracked[slot].alive){
 4977              		.loc 6 440 9 view .LVU1434
 440:src/main.cpp  ****             if(!tracked[slot].alive){
 4978              		.loc 6 440 28 view .LVU1435
 441:src/main.cpp  ****                 tracked[slot]={true,raw[r].pos,raw[r].pressure,raw[r].peak_ch,raw[r].peak_delta};
 4979              		.loc 6 441 13 view .LVU1436
 4980              	.LBE1005:
 439:src/main.cpp  ****         for(int slot=0;slot<2;slot++){
 4981              		.loc 6 439 16 is_stmt 0 view .LVU1437
 4982 0030 12F8011B 		ldrb	r1, [r2], #1	@ zero_extendqisi2
 4983              	.LVL401:
 439:src/main.cpp  ****         for(int slot=0;slot<2;slot++){
 4984              		.loc 6 439 9 view .LVU1438
 4985 0034 0029     		cmp	r1, #0
 4986 0036 39D0     		beq	.L294
 4987              	.L279:
 4988              	.LVL402:
 439:src/main.cpp  ****         for(int slot=0;slot<2;slot++){
 4989              		.loc 6 439 9 view .LVU1439
ARM GAS  /tmp/claude-502/ccb6uqMv.s 			page 132


 4990              	.LBE1004:
 438:src/main.cpp  ****         if(ra[r])continue;
 4991              		.loc 6 438 5 is_stmt 1 discriminator 2 view .LVU1440
 438:src/main.cpp  ****         if(ra[r])continue;
 4992              		.loc 6 438 18 discriminator 2 view .LVU1441
 4993 0038 1430     		adds	r0, r0, #20
 4994 003a 9842     		cmp	r0, r3
 4995 003c F8D1     		bne	.L281
 4996              	.LVL403:
 4997              	.L271:
 438:src/main.cpp  ****         if(ra[r])continue;
 4998              		.loc 6 438 18 is_stmt 0 discriminator 2 view .LVU1442
 4999              	.LBE1003:
 447:src/main.cpp  **** 
 5000              		.loc 6 447 1 view .LVU1443
 5001 003e 02B0     		add	sp, sp, #8
 5002              		.cfi_remember_state
 5003              		.cfi_def_cfa_offset 32
 5004              		@ sp needed
 5005 0040 BDE8F087 		pop	{r4, r5, r6, r7, r8, r9, r10, pc}
 5006              	.LVL404:
 5007              	.L293:
 5008              		.cfi_restore_state
 5009              	.LBB1008:
 5010              	.LBB1001:
 5011              	.LBB998:
 427:src/main.cpp  ****             if(ra[r])continue;
 5012              		.loc 6 427 22 is_stmt 1 view .LVU1444
 5013 0044 0029     		cmp	r1, #0
 5014 0046 49DD     		ble	.L273
 5015 0048 01AD     		add	r5, sp, #4
 5016 004a 8446     		mov	ip, r0
 427:src/main.cpp  ****             if(ra[r])continue;
 5017              		.loc 6 427 17 is_stmt 0 view .LVU1445
 5018 004c 0022     		movs	r2, #0
 5019              	.LBE998:
 426:src/main.cpp  ****         for(int r=0;r<n;r++){
 5020              		.loc 6 426 41 view .LVU1446
 5021 004e 4FF0FF3E 		mov	lr, #-1
 426:src/main.cpp  ****         for(int r=0;r<n;r++){
 5022              		.loc 6 426 17 view .LVU1447
 5023 0052 4FF0C90A 		mov	r10, #201
 5024              	.LVL405:
 5025              	.L276:
 5026              	.LBB1000:
 5027              	.LBB999:
 428:src/main.cpp  ****             int32_t c=raw[r].pos-tracked[slot].pos;if(c<0)c=-c;
 5028              		.loc 6 428 13 is_stmt 1 view .LVU1448
 429:src/main.cpp  ****             if(c<best){best=c;br=r;}
 5029              		.loc 6 429 13 view .LVU1449
 428:src/main.cpp  ****             int32_t c=raw[r].pos-tracked[slot].pos;if(c<0)c=-c;
 5030              		.loc 6 428 20 is_stmt 0 view .LVU1450
 5031 0056 15F8016B 		ldrb	r6, [r5], #1	@ zero_extendqisi2
 428:src/main.cpp  ****             int32_t c=raw[r].pos-tracked[slot].pos;if(c<0)c=-c;
 5032              		.loc 6 428 13 view .LVU1451
 5033 005a 5EB9     		cbnz	r6, .L274
 429:src/main.cpp  ****             if(c<best){best=c;br=r;}
ARM GAS  /tmp/claude-502/ccb6uqMv.s 			page 133


 5034              		.loc 6 429 59 is_stmt 1 view .LVU1452
 429:src/main.cpp  ****             if(c<best){best=c;br=r;}
 5035              		.loc 6 429 30 is_stmt 0 view .LVU1453
 5036 005c DCF80460 		ldr	r6, [ip, #4]
 429:src/main.cpp  ****             if(c<best){best=c;br=r;}
 5037              		.loc 6 429 48 view .LVU1454
 5038 0060 5F68     		ldr	r7, [r3, #4]
 5039              	.LVL406:
 429:src/main.cpp  ****             if(c<best){best=c;br=r;}
 5040              		.loc 6 429 52 is_stmt 1 view .LVU1455
 5041 0062 B6EB0709 		subs	r9, r6, r7
 5042              	.LVL407:
 429:src/main.cpp  ****             if(c<best){best=c;br=r;}
 5043              		.loc 6 429 60 is_stmt 0 view .LVU1456
 5044 0066 48BF     		it	mi
 5045 0068 A7EB0609 		submi	r9, r7, r6
 5046              	.LVL408:
 430:src/main.cpp  ****         }
 5047              		.loc 6 430 13 is_stmt 1 view .LVU1457
 5048 006c CA45     		cmp	r10, r9
 5049 006e 01DD     		ble	.L274
 5050 0070 9646     		mov	lr, r2
 5051 0072 CA46     		mov	r10, r9
 5052              	.LVL409:
 5053              	.L274:
 430:src/main.cpp  ****         }
 5054              		.loc 6 430 13 is_stmt 0 view .LVU1458
 5055              	.LBE999:
 427:src/main.cpp  ****             if(ra[r])continue;
 5056              		.loc 6 427 9 is_stmt 1 discriminator 2 view .LVU1459
 5057 0074 0132     		adds	r2, r2, #1
 5058              	.LVL410:
 427:src/main.cpp  ****             if(ra[r])continue;
 5059              		.loc 6 427 22 discriminator 2 view .LVU1460
 5060 0076 0CF1140C 		add	ip, ip, #20
 5061 007a 9142     		cmp	r1, r2
 5062 007c EBD1     		bne	.L276
 5063              	.LBE1000:
 432:src/main.cpp  ****             tracked[slot].pos=raw[br].pos;tracked[slot].pressure=raw[br].pressure;
 5064              		.loc 6 432 9 view .LVU1461
 5065 007e BEF1FF3F 		cmp	lr, #-1
 5066 0082 2BD0     		beq	.L273
 433:src/main.cpp  ****             tracked[slot].peak_ch=raw[br].peak_ch;tracked[slot].peak_delta=raw[br].peak_delta;
 5067              		.loc 6 433 13 view .LVU1462
 433:src/main.cpp  ****             tracked[slot].peak_ch=raw[br].peak_ch;tracked[slot].peak_delta=raw[br].peak_delta;
 5068              		.loc 6 433 37 is_stmt 0 view .LVU1463
 5069 0084 0EEB8E02 		add	r2, lr, lr, lsl #2
 5070              	.LVL411:
 435:src/main.cpp  ****         } else tracked[slot].alive=false;
 5071              		.loc 6 435 19 view .LVU1464
 5072 0088 0EF10805 		add	r5, lr, #8
 433:src/main.cpp  ****             tracked[slot].peak_ch=raw[br].peak_ch;tracked[slot].peak_delta=raw[br].peak_delta;
 5073              		.loc 6 433 37 view .LVU1465
 5074 008c 00EB8202 		add	r2, r0, r2, lsl #2
 435:src/main.cpp  ****         } else tracked[slot].alive=false;
 5075              		.loc 6 435 19 view .LVU1466
 5076 0090 0DEB050E 		add	lr, sp, r5
ARM GAS  /tmp/claude-502/ccb6uqMv.s 			page 134


 5077 0094 0125     		movs	r5, #1
 5078 0096 0EF8045C 		strb	r5, [lr, #-4]
 433:src/main.cpp  ****             tracked[slot].peak_ch=raw[br].peak_ch;tracked[slot].peak_delta=raw[br].peak_delta;
 5079              		.loc 6 433 39 view .LVU1467
 5080 009a 5568     		ldr	r5, [r2, #4]
 433:src/main.cpp  ****             tracked[slot].peak_ch=raw[br].peak_ch;tracked[slot].peak_delta=raw[br].peak_delta;
 5081              		.loc 6 433 30 view .LVU1468
 5082 009c 5D60     		str	r5, [r3, #4]
 433:src/main.cpp  ****             tracked[slot].peak_ch=raw[br].peak_ch;tracked[slot].peak_delta=raw[br].peak_delta;
 5083              		.loc 6 433 43 is_stmt 1 view .LVU1469
 433:src/main.cpp  ****             tracked[slot].peak_ch=raw[br].peak_ch;tracked[slot].peak_delta=raw[br].peak_delta;
 5084              		.loc 6 433 74 is_stmt 0 view .LVU1470
 5085 009e 9568     		ldr	r5, [r2, #8]
 433:src/main.cpp  ****             tracked[slot].peak_ch=raw[br].peak_ch;tracked[slot].peak_delta=raw[br].peak_delta;
 5086              		.loc 6 433 65 view .LVU1471
 5087 00a0 9D60     		str	r5, [r3, #8]
 434:src/main.cpp  ****             ra[br]=true;
 5088              		.loc 6 434 13 is_stmt 1 view .LVU1472
 434:src/main.cpp  ****             ra[br]=true;
 5089              		.loc 6 434 34 is_stmt 0 view .LVU1473
 5090 00a2 D568     		ldr	r5, [r2, #12]
 434:src/main.cpp  ****             ra[br]=true;
 5091              		.loc 6 434 84 view .LVU1474
 5092 00a4 1269     		ldr	r2, [r2, #16]
 434:src/main.cpp  ****             ra[br]=true;
 5093              		.loc 6 434 34 view .LVU1475
 5094 00a6 DD60     		str	r5, [r3, #12]
 434:src/main.cpp  ****             ra[br]=true;
 5095              		.loc 6 434 51 is_stmt 1 view .LVU1476
 434:src/main.cpp  ****             ra[br]=true;
 5096              		.loc 6 434 75 is_stmt 0 view .LVU1477
 5097 00a8 1A61     		str	r2, [r3, #16]
 435:src/main.cpp  ****         } else tracked[slot].alive=false;
 5098              		.loc 6 435 13 is_stmt 1 view .LVU1478
 5099 00aa B7E7     		b	.L272
 5100              	.LVL412:
 5101              	.L294:
 435:src/main.cpp  ****         } else tracked[slot].alive=false;
 5102              		.loc 6 435 13 is_stmt 0 view .LVU1479
 5103              	.LBE1001:
 5104              	.LBE1008:
 5105              	.LBB1009:
 5106              	.LBB1007:
 5107              	.LBB1006:
 441:src/main.cpp  ****                 tracked[slot]={true,raw[r].pos,raw[r].pressure,raw[r].peak_ch,raw[r].peak_delta};
 5108              		.loc 6 441 13 view .LVU1480
 5109 00ac 2178     		ldrb	r1, [r4]	@ zero_extendqisi2
 5110 00ae 19B1     		cbz	r1, .L280
 5111 00b0 217D     		ldrb	r1, [r4, #20]	@ zero_extendqisi2
 5112 00b2 0029     		cmp	r1, #0
 5113 00b4 C0D1     		bne	.L279
 440:src/main.cpp  ****             if(!tracked[slot].alive){
 5114              		.loc 6 440 9 view .LVU1481
 5115 00b6 0121     		movs	r1, #1
 5116              	.L280:
 442:src/main.cpp  ****                 ra[r]=true;break;
 5117              		.loc 6 442 17 is_stmt 1 view .LVU1482
ARM GAS  /tmp/claude-502/ccb6uqMv.s 			page 135


 442:src/main.cpp  ****                 ra[r]=true;break;
 5118              		.loc 6 442 30 is_stmt 0 view .LVU1483
 5119 00b8 01EB8101 		add	r1, r1, r1, lsl #2
 442:src/main.cpp  ****                 ra[r]=true;break;
 5120              		.loc 6 442 86 view .LVU1484
 5121 00bc 0769     		ldr	r7, [r0, #16]
 442:src/main.cpp  ****                 ra[r]=true;break;
 5122              		.loc 6 442 30 view .LVU1485
 5123 00be 4668     		ldr	r6, [r0, #4]
 5124 00c0 04EB8105 		add	r5, r4, r1, lsl #2
 442:src/main.cpp  ****                 ra[r]=true;break;
 5125              		.loc 6 442 71 view .LVU1486
 5126 00c4 D0E902EC 		ldrd	lr, ip, [r0, #8]
 442:src/main.cpp  ****                 ra[r]=true;break;
 5127              		.loc 6 442 30 view .LVU1487
 5128 00c8 C5E9016E 		strd	r6, lr, [r5, #4]
 5129 00cc C5E903C7 		strd	ip, r7, [r5, #12]
 443:src/main.cpp  ****             }
 5130              		.loc 6 443 17 is_stmt 1 view .LVU1488
 442:src/main.cpp  ****                 ra[r]=true;break;
 5131              		.loc 6 442 30 is_stmt 0 view .LVU1489
 5132 00d0 0125     		movs	r5, #1
 5133 00d2 04F82150 		strb	r5, [r4, r1, lsl #2]
 443:src/main.cpp  ****             }
 5134              		.loc 6 443 22 view .LVU1490
 5135 00d6 02F8015C 		strb	r5, [r2, #-1]
 443:src/main.cpp  ****             }
 5136              		.loc 6 443 28 is_stmt 1 view .LVU1491
 5137 00da ADE7     		b	.L279
 5138              	.LVL413:
 5139              	.L273:
 443:src/main.cpp  ****             }
 5140              		.loc 6 443 28 is_stmt 0 view .LVU1492
 5141              	.LBE1006:
 5142              	.LBE1007:
 5143              	.LBE1009:
 5144              	.LBB1010:
 5145              	.LBB1002:
 432:src/main.cpp  ****             tracked[slot].pos=raw[br].pos;tracked[slot].pressure=raw[br].pressure;
 5146              		.loc 6 432 9 is_stmt 1 view .LVU1493
 436:src/main.cpp  ****     }
 5147              		.loc 6 436 16 view .LVU1494
 436:src/main.cpp  ****     }
 5148              		.loc 6 436 35 is_stmt 0 view .LVU1495
 5149 00dc 0022     		movs	r2, #0
 5150 00de 1A70     		strb	r2, [r3]
 5151 00e0 9CE7     		b	.L272
 5152              	.L296:
 5153 00e2 00BF     		.align	2
 5154              	.L295:
 5155 00e4 00000000 		.word	.LANCHOR40
 5156              	.LBE1002:
 5157              	.LBE1010:
 5158              		.cfi_endproc
 5159              	.LFE2578:
 5161              		.section	.text._Z13quantize_midif,"ax",%progbits
 5162              		.align	1
ARM GAS  /tmp/claude-502/ccb6uqMv.s 			page 136


 5163              		.p2align 2,,3
 5164              		.global	_Z13quantize_midif
 5165              		.syntax unified
 5166              		.thumb
 5167              		.thumb_func
 5169              	_Z13quantize_midif:
 5170              	.LVL414:
 5171              	.LFB2581:
 466:src/main.cpp  ****     int root = (int)midi;
 5172              		.loc 6 466 1 is_stmt 1 view -0
 5173              		.cfi_startproc
 5174              		@ args = 0, pretend = 0, frame = 0
 5175              		@ frame_needed = 0, uses_anonymous_args = 0
 467:src/main.cpp  ****     int pc   = root % 12;
 5176              		.loc 6 467 5 view .LVU1497
 467:src/main.cpp  ****     int pc   = root % 12;
 5177              		.loc 6 467 9 is_stmt 0 view .LVU1498
 5178 0000 FDEEC07A 		vcvt.s32.f32	s15, s0
 468:src/main.cpp  ****     int oct  = root / 12;
 5179              		.loc 6 468 9 view .LVU1499
 5180 0004 1B4B     		ldr	r3, .L305
 5181 0006 1C49     		ldr	r1, .L305+4
 469:src/main.cpp  ****     // find nearest scale degree
 5182              		.loc 6 469 9 view .LVU1500
 5183 0008 0022     		movs	r2, #0
 466:src/main.cpp  ****     int root = (int)midi;
 5184              		.loc 6 466 1 view .LVU1501
 5185 000a F0B5     		push	{r4, r5, r6, r7, lr}
 5186              		.cfi_def_cfa_offset 20
 5187              		.cfi_offset 4, -20
 5188              		.cfi_offset 5, -16
 5189              		.cfi_offset 6, -12
 5190              		.cfi_offset 7, -8
 5191              		.cfi_offset 14, -4
 467:src/main.cpp  ****     int pc   = root % 12;
 5192              		.loc 6 467 9 view .LVU1502
 5193 000c 17EE906A 		vmov	r6, s15	@ int
 5194              	.LVL415:
 468:src/main.cpp  ****     int oct  = root / 12;
 5195              		.loc 6 468 5 is_stmt 1 view .LVU1503
 5196 0010 01F12C04 		add	r4, r1, #44
 471:src/main.cpp  ****     for(int i=0;i<SCALE_LEN;i++){
 5197              		.loc 6 471 21 is_stmt 0 view .LVU1504
 5198 0014 4FF07F0E 		mov	lr, #127
 471:src/main.cpp  ****     for(int i=0;i<SCALE_LEN;i++){
 5199              		.loc 6 471 9 view .LVU1505
 5200 0018 1546     		mov	r5, r2
 468:src/main.cpp  ****     int oct  = root / 12;
 5201              		.loc 6 468 9 view .LVU1506
 5202 001a 83FB0603 		smull	r0, r3, r3, r6
 5203 001e F017     		asrs	r0, r6, #31
 5204 0020 C0EB6300 		rsb	r0, r0, r3, asr #1
 5205 0024 0746     		mov	r7, r0
 5206 0026 00EB4000 		add	r0, r0, r0, lsl #1
 5207 002a A6EB8000 		sub	r0, r6, r0, lsl #2
 5208              	.LVL416:
 469:src/main.cpp  ****     // find nearest scale degree
ARM GAS  /tmp/claude-502/ccb6uqMv.s 			page 137


 5209              		.loc 6 469 5 is_stmt 1 view .LVU1507
 471:src/main.cpp  ****     for(int i=0;i<SCALE_LEN;i++){
 5210              		.loc 6 471 5 view .LVU1508
 472:src/main.cpp  ****         int d=SCALE[i]-pc; if(d<0)d=-d;
 5211              		.loc 6 472 5 view .LVU1509
 5212              	.LBB1011:
 472:src/main.cpp  ****         int d=SCALE[i]-pc; if(d<0)d=-d;
 5213              		.loc 6 472 18 view .LVU1510
 5214 002e 01E0     		b	.L301
 5215              	.LVL417:
 5216              	.L304:
 5217              	.LBB1012:
 473:src/main.cpp  ****         int d2=12-d; if(d2<d)d=d2;
 5218              		.loc 6 473 22 is_stmt 0 view .LVU1511
 5219 0030 51F8042F 		ldr	r2, [r1, #4]!
 5220              	.LVL418:
 5221              	.L301:
 473:src/main.cpp  ****         int d2=12-d; if(d2<d)d=d2;
 5222              		.loc 6 473 9 is_stmt 1 view .LVU1512
 473:src/main.cpp  ****         int d2=12-d; if(d2<d)d=d2;
 5223              		.loc 6 473 28 view .LVU1513
 473:src/main.cpp  ****         int d2=12-d; if(d2<d)d=d2;
 5224              		.loc 6 473 35 view .LVU1514
 473:src/main.cpp  ****         int d2=12-d; if(d2<d)d=d2;
 5225              		.loc 6 473 28 is_stmt 0 view .LVU1515
 5226 0034 131A     		subs	r3, r2, r0
 5227              	.LVL419:
 473:src/main.cpp  ****         int d2=12-d; if(d2<d)d=d2;
 5228              		.loc 6 473 36 view .LVU1516
 5229 0036 48BF     		it	mi
 5230 0038 831A     		submi	r3, r0, r2
 5231              	.LVL420:
 474:src/main.cpp  ****         if(d<best_dist){best_dist=d;best_deg=SCALE[i];}
 5232              		.loc 6 474 9 is_stmt 1 view .LVU1517
 474:src/main.cpp  ****         if(d<best_dist){best_dist=d;best_deg=SCALE[i];}
 5233              		.loc 6 474 13 is_stmt 0 view .LVU1518
 5234 003a C3F10C0C 		rsb	ip, r3, #12
 5235              	.LVL421:
 474:src/main.cpp  ****         if(d<best_dist){best_dist=d;best_deg=SCALE[i];}
 5236              		.loc 6 474 22 is_stmt 1 view .LVU1519
 5237 003e 6345     		cmp	r3, ip
 5238 0040 A8BF     		it	ge
 5239 0042 6346     		movge	r3, ip
 5240              	.LVL422:
 475:src/main.cpp  ****     }
 5241              		.loc 6 475 9 view .LVU1520
 5242 0044 7345     		cmp	r3, lr
 5243 0046 01DA     		bge	.L299
 475:src/main.cpp  ****     }
 5244              		.loc 6 475 45 is_stmt 0 view .LVU1521
 5245 0048 1546     		mov	r5, r2
 475:src/main.cpp  ****     }
 5246              		.loc 6 475 9 view .LVU1522
 5247 004a 9E46     		mov	lr, r3
 5248              	.LVL423:
 5249              	.L299:
 475:src/main.cpp  ****     }
ARM GAS  /tmp/claude-502/ccb6uqMv.s 			page 138


 5250              		.loc 6 475 9 view .LVU1523
 5251              	.LBE1012:
 472:src/main.cpp  ****         int d=SCALE[i]-pc; if(d<0)d=-d;
 5252              		.loc 6 472 5 is_stmt 1 discriminator 2 view .LVU1524
 472:src/main.cpp  ****         int d=SCALE[i]-pc; if(d<0)d=-d;
 5253              		.loc 6 472 18 discriminator 2 view .LVU1525
 5254 004c A142     		cmp	r1, r4
 5255 004e EFD1     		bne	.L304
 5256              	.LBE1011:
 477:src/main.cpp  ****     // fractional semitone from the quantized note (for slide expression)
 5257              		.loc 6 477 5 view .LVU1526
 5258              	.LVL424:
 479:src/main.cpp  ****     return q+frac;
 5259              		.loc 6 479 5 view .LVU1527
 480:src/main.cpp  **** }
 5260              		.loc 6 480 5 view .LVU1528
 479:src/main.cpp  ****     return q+frac;
 5261              		.loc 6 479 21 is_stmt 0 view .LVU1529
 5262 0050 07EE906A 		vmov	s15, r6	@ int
 477:src/main.cpp  ****     // fractional semitone from the quantized note (for slide expression)
 5263              		.loc 6 477 24 view .LVU1530
 5264 0054 07EB4707 		add	r7, r7, r7, lsl #1
 5265              	.LVL425:
 479:src/main.cpp  ****     return q+frac;
 5266              		.loc 6 479 21 view .LVU1531
 5267 0058 F8EEE77A 		vcvt.f32.s32	s15, s15
 477:src/main.cpp  ****     // fractional semitone from the quantized note (for slide expression)
 5268              		.loc 6 477 27 view .LVU1532
 5269 005c 05EB8705 		add	r5, r5, r7, lsl #2
 5270              	.LVL426:
 479:src/main.cpp  ****     return q+frac;
 5271              		.loc 6 479 11 view .LVU1533
 5272 0060 30EE670A 		vsub.f32	s0, s0, s15
 5273              	.LVL427:
 477:src/main.cpp  ****     // fractional semitone from the quantized note (for slide expression)
 5274              		.loc 6 477 11 view .LVU1534
 5275 0064 07EE905A 		vmov	s15, r5	@ int
 5276 0068 F8EEE77A 		vcvt.f32.s32	s15, s15
 481:src/main.cpp  **** 
 5277              		.loc 6 481 1 view .LVU1535
 5278 006c 37EE800A 		vadd.f32	s0, s15, s0
 5279              	.LVL428:
 481:src/main.cpp  **** 
 5280              		.loc 6 481 1 view .LVU1536
 5281 0070 F0BD     		pop	{r4, r5, r6, r7, pc}
 5282              	.LVL429:
 5283              	.L306:
 481:src/main.cpp  **** 
 5284              		.loc 6 481 1 view .LVU1537
 5285 0072 00BF     		.align	2
 5286              	.L305:
 5287 0074 ABAAAA2A 		.word	715827883
 5288 0078 00000000 		.word	.LANCHOR41
 5289              		.cfi_endproc
 5290              	.LFE2581:
 5292              		.section	.text._Z8make_barPclli,"ax",%progbits
 5293              		.align	1
ARM GAS  /tmp/claude-502/ccb6uqMv.s 			page 139


 5294              		.p2align 2,,3
 5295              		.global	_Z8make_barPclli
 5296              		.syntax unified
 5297              		.thumb
 5298              		.thumb_func
 5300              	_Z8make_barPclli:
 5301              	.LVL430:
 5302              	.LFB2591:
 769:src/main.cpp  **** 
 770:src/main.cpp  **** // ŌöĆŌöĆ Bar helpers ŌöĆŌöĆŌöĆŌöĆŌöĆŌöĆŌöĆŌöĆŌöĆŌöĆŌöĆŌöĆŌöĆŌöĆŌöĆŌöĆŌöĆŌöĆŌöĆŌöĆŌöĆŌöĆŌöĆŌöĆŌöĆŌö
 771:src/main.cpp  **** void make_bar(char* out,int32_t val,int32_t max,int w)
 772:src/main.cpp  **** {
 5303              		.loc 6 772 1 is_stmt 1 view -0
 5304              		.cfi_startproc
 5305              		@ args = 0, pretend = 0, frame = 0
 5306              		@ frame_needed = 0, uses_anonymous_args = 0
 773:src/main.cpp  ****     int n=(max>0&&val>0)?(int)((val*w+max/2)/max):0;
 5307              		.loc 6 773 5 view .LVU1539
 5308              		.loc 6 773 25 is_stmt 0 view .LVU1540
 5309 0000 002A     		cmp	r2, #0
 772:src/main.cpp  ****     int n=(max>0&&val>0)?(int)((val*w+max/2)/max):0;
 5310              		.loc 6 772 1 view .LVU1541
 5311 0002 10B5     		push	{r4, lr}
 5312              		.cfi_def_cfa_offset 8
 5313              		.cfi_offset 4, -8
 5314              		.cfi_offset 14, -4
 5315              		.loc 6 773 25 view .LVU1542
 5316 0004 23DD     		ble	.L312
 5317 0006 0029     		cmp	r1, #0
 5318 0008 21DD     		ble	.L312
 5319              		.loc 6 773 42 discriminator 1 view .LVU1543
 5320 000a 4FEA620E 		asr	lr, r2, #1
 5321              		.loc 6 773 38 discriminator 1 view .LVU1544
 5322 000e 03FB01E1 		mla	r1, r3, r1, lr
 5323              	.LVL431:
 5324              		.loc 6 773 25 discriminator 1 view .LVU1545
 5325 0012 91FBF2FC 		sdiv	ip, r1, r2
 5326              	.L308:
 5327              	.LVL432:
 774:src/main.cpp  ****     if(n>w)n=w;
 5328              		.loc 6 774 5 is_stmt 1 discriminator 4 view .LVU1546
 5329 0016 9C45     		cmp	ip, r3
 775:src/main.cpp  ****     out[0]='[';
 5330              		.loc 6 775 11 is_stmt 0 discriminator 4 view .LVU1547
 5331 0018 4FF05B02 		mov	r2, #91
 5332              	.LVL433:
 5333              		.loc 6 775 11 discriminator 4 view .LVU1548
 5334 001c A8BF     		it	ge
 5335 001e 9C46     		movge	ip, r3
 5336              	.LVL434:
 5337              		.loc 6 775 5 is_stmt 1 discriminator 4 view .LVU1549
 5338              	.LBB1014:
 776:src/main.cpp  ****     for(int i=0;i<w;i++)out[1+i]=(i<n)?'#':' ';
 5339              		.loc 6 776 18 is_stmt 0 discriminator 4 view .LVU1550
 5340 0020 002B     		cmp	r3, #0
 5341              	.LBE1014:
 775:src/main.cpp  ****     out[0]='[';
ARM GAS  /tmp/claude-502/ccb6uqMv.s 			page 140


 5342              		.loc 6 775 11 discriminator 4 view .LVU1551
 5343 0022 0270     		strb	r2, [r0]
 5344              		.loc 6 776 5 is_stmt 1 discriminator 4 view .LVU1552
 5345              	.LVL435:
 5346              	.LBB1015:
 5347              		.loc 6 776 18 discriminator 4 view .LVU1553
 5348 0024 0DDD     		ble	.L309
 5349 0026 421C     		adds	r2, r0, #1
 5350 0028 6FEA000E 		mvn	lr, r0
 5351 002c D418     		adds	r4, r2, r3
 5352              	.LVL436:
 5353              	.L311:
 5354              		.loc 6 776 25 discriminator 2 view .LVU1554
 5355              		.loc 6 776 39 is_stmt 0 discriminator 2 view .LVU1555
 5356 002e 0EEB0201 		add	r1, lr, r2
 5357 0032 8C45     		cmp	ip, r1
 5358 0034 D4BF     		ite	le
 5359 0036 2021     		movle	r1, #32
 5360 0038 2321     		movgt	r1, #35
 5361              		.loc 6 776 33 discriminator 2 view .LVU1556
 5362 003a 02F8011B 		strb	r1, [r2], #1
 5363              		.loc 6 776 5 is_stmt 1 discriminator 2 view .LVU1557
 5364              		.loc 6 776 18 discriminator 2 view .LVU1558
 5365 003e A242     		cmp	r2, r4
 5366 0040 F5D1     		bne	.L311
 5367              	.L309:
 5368              		.loc 6 776 18 is_stmt 0 discriminator 2 view .LVU1559
 5369              	.LBE1015:
 777:src/main.cpp  ****     out[1+w]=']';out[2+w]='\0';
 5370              		.loc 6 777 5 is_stmt 1 view .LVU1560
 5371              		.loc 6 777 13 is_stmt 0 view .LVU1561
 5372 0042 1844     		add	r0, r0, r3
 5373              	.LVL437:
 5374              		.loc 6 777 13 view .LVU1562
 5375 0044 5D22     		movs	r2, #93
 5376              		.loc 6 777 26 view .LVU1563
 5377 0046 0023     		movs	r3, #0
 5378              	.LVL438:
 5379              		.loc 6 777 13 view .LVU1564
 5380 0048 4270     		strb	r2, [r0, #1]
 5381              		.loc 6 777 18 is_stmt 1 view .LVU1565
 5382              		.loc 6 777 26 is_stmt 0 view .LVU1566
 5383 004a 8370     		strb	r3, [r0, #2]
 778:src/main.cpp  **** }
 5384              		.loc 6 778 1 view .LVU1567
 5385 004c 10BD     		pop	{r4, pc}
 5386              	.LVL439:
 5387              	.L312:
 773:src/main.cpp  ****     if(n>w)n=w;
 5388              		.loc 6 773 25 view .LVU1568
 5389 004e 4FF0000C 		mov	ip, #0
 5390 0052 E0E7     		b	.L308
 5391              		.cfi_endproc
 5392              	.LFE2591:
 5394              		.global	__aeabi_ldivmod
 5395              		.section	.text._Z12make_pos_barPci,"ax",%progbits
 5396              		.align	1
ARM GAS  /tmp/claude-502/ccb6uqMv.s 			page 141


 5397              		.p2align 2,,3
 5398              		.global	_Z12make_pos_barPci
 5399              		.syntax unified
 5400              		.thumb
 5401              		.thumb_func
 5403              	_Z12make_pos_barPci:
 5404              	.LVL440:
 5405              	.LFB2592:
 779:src/main.cpp  **** 
 780:src/main.cpp  **** void make_pos_bar(char* out,int w)
 781:src/main.cpp  **** {
 5406              		.loc 6 781 1 is_stmt 1 view -0
 5407              		.cfi_startproc
 5408              		@ args = 0, pretend = 0, frame = 0
 5409              		@ frame_needed = 0, uses_anonymous_args = 0
 782:src/main.cpp  ****     out[0]='|';
 5410              		.loc 6 782 5 view .LVU1570
 781:src/main.cpp  ****     out[0]='|';
 5411              		.loc 6 781 1 is_stmt 0 view .LVU1571
 5412 0000 70B5     		push	{r4, r5, r6, lr}
 5413              		.cfi_def_cfa_offset 16
 5414              		.cfi_offset 4, -16
 5415              		.cfi_offset 5, -12
 5416              		.cfi_offset 6, -8
 5417              		.cfi_offset 14, -4
 5418              		.loc 6 782 11 view .LVU1572
 5419 0002 7C23     		movs	r3, #124
 5420              	.LBB1019:
 783:src/main.cpp  ****     for(int i=0;i<w;i++)out[1+i]='-';
 5421              		.loc 6 783 18 view .LVU1573
 5422 0004 0C1E     		subs	r4, r1, #0
 5423              	.LBE1019:
 781:src/main.cpp  ****     out[0]='|';
 5424              		.loc 6 781 1 view .LVU1574
 5425 0006 0546     		mov	r5, r0
 782:src/main.cpp  ****     out[0]='|';
 5426              		.loc 6 782 11 view .LVU1575
 5427 0008 0370     		strb	r3, [r0]
 5428              		.loc 6 783 5 is_stmt 1 view .LVU1576
 5429              	.LVL441:
 5430              	.LBB1020:
 5431              		.loc 6 783 18 view .LVU1577
 5432 000a 04DD     		ble	.L326
 5433              		.loc 6 783 33 is_stmt 0 view .LVU1578
 5434 000c 2246     		mov	r2, r4
 5435 000e 2D21     		movs	r1, #45
 5436              	.LVL442:
 5437              		.loc 6 783 33 view .LVU1579
 5438 0010 0130     		adds	r0, r0, #1
 5439              	.LVL443:
 5440              		.loc 6 783 33 view .LVU1580
 5441 0012 FFF7FEFF 		bl	memset
 5442              	.LVL444:
 5443              	.L326:
 5444              		.loc 6 783 33 view .LVU1581
 5445              	.LBE1020:
 784:src/main.cpp  ****     out[1+w]='|';out[2+w]='\0';
ARM GAS  /tmp/claude-502/ccb6uqMv.s 			page 142


 5446              		.loc 6 784 5 is_stmt 1 view .LVU1582
 5447              		.loc 6 784 13 is_stmt 0 view .LVU1583
 5448 0016 2B19     		adds	r3, r5, r4
 5449 0018 7C22     		movs	r2, #124
 5450              		.loc 6 784 26 view .LVU1584
 5451 001a 0021     		movs	r1, #0
 5452              	.LBB1021:
 5453              	.LBB1022:
 785:src/main.cpp  ****     for(int slot=0;slot<2;slot++){
 786:src/main.cpp  ****         if(!tracked[slot].alive)continue;
 5454              		.loc 6 786 27 view .LVU1585
 5455 001c 164E     		ldr	r6, .L335
 5456              	.LBE1022:
 5457              	.LBE1021:
 784:src/main.cpp  ****     out[1+w]='|';out[2+w]='\0';
 5458              		.loc 6 784 13 view .LVU1586
 5459 001e 5A70     		strb	r2, [r3, #1]
 784:src/main.cpp  ****     out[1+w]='|';out[2+w]='\0';
 5460              		.loc 6 784 18 is_stmt 1 view .LVU1587
 784:src/main.cpp  ****     out[1+w]='|';out[2+w]='\0';
 5461              		.loc 6 784 26 is_stmt 0 view .LVU1588
 5462 0020 9970     		strb	r1, [r3, #2]
 785:src/main.cpp  ****     for(int slot=0;slot<2;slot++){
 5463              		.loc 6 785 5 is_stmt 1 view .LVU1589
 5464              	.LVL445:
 5465              	.LBB1025:
 785:src/main.cpp  ****     for(int slot=0;slot<2;slot++){
 5466              		.loc 6 785 24 view .LVU1590
 5467              	.LBB1023:
 5468              		.loc 6 786 9 view .LVU1591
 5469 0022 3378     		ldrb	r3, [r6]	@ zero_extendqisi2
 5470 0024 93B1     		cbz	r3, .L325
 787:src/main.cpp  ****         int p=(int)(((int64_t)tracked[slot].pos*(w-1)+500)/1000);
 5471              		.loc 6 787 9 view .LVU1592
 5472              		.loc 6 787 54 is_stmt 0 view .LVU1593
 5473 0026 7268     		ldr	r2, [r6, #4]
 5474              		.loc 6 787 51 view .LVU1594
 5475 0028 631E     		subs	r3, r4, #1
 5476              		.loc 6 787 54 view .LVU1595
 5477 002a 4FF4FA70 		mov	r0, #500
 5478              		.loc 6 787 59 view .LVU1596
 5479 002e C2FB0301 		smlal	r0, r1, r2, r3
 5480 0032 0023     		movs	r3, #0
 5481 0034 4FF47A72 		mov	r2, #1000
 5482 0038 FFF7FEFF 		bl	__aeabi_ldivmod
 5483              	.LVL446:
 788:src/main.cpp  ****         if(p<0)p=0;if(p>=w)p=w-1;
 5484              		.loc 6 788 9 is_stmt 1 view .LVU1597
 5485 003c 20EAE070 		bic	r0, r0, r0, asr #31
 5486              	.LVL447:
 5487              		.loc 6 788 20 view .LVU1598
 789:src/main.cpp  ****         out[1+p]=(char)('1'+slot);
 5488              		.loc 6 789 17 is_stmt 0 view .LVU1599
 5489 0040 3123     		movs	r3, #49
 788:src/main.cpp  ****         if(p<0)p=0;if(p>=w)p=w-1;
 5490              		.loc 6 788 20 view .LVU1600
 5491 0042 8442     		cmp	r4, r0
ARM GAS  /tmp/claude-502/ccb6uqMv.s 			page 143


 5492              		.loc 6 789 14 view .LVU1601
 5493 0044 CCBF     		ite	gt
 5494 0046 0130     		addgt	r0, r0, #1
 5495              	.LVL448:
 788:src/main.cpp  ****         if(p<0)p=0;if(p>=w)p=w-1;
 5496              		.loc 6 788 20 view .LVU1602
 5497 0048 2046     		movle	r0, r4
 5498              		.loc 6 789 9 is_stmt 1 view .LVU1603
 5499              		.loc 6 789 17 is_stmt 0 view .LVU1604
 5500 004a 2B54     		strb	r3, [r5, r0]
 5501              	.L325:
 5502              	.LBE1023:
 785:src/main.cpp  ****         if(!tracked[slot].alive)continue;
 5503              		.loc 6 785 5 is_stmt 1 view .LVU1605
 5504              	.LVL449:
 785:src/main.cpp  ****         if(!tracked[slot].alive)continue;
 5505              		.loc 6 785 24 view .LVU1606
 5506              	.LBB1024:
 786:src/main.cpp  ****         int p=(int)(((int64_t)tracked[slot].pos*(w-1)+500)/1000);
 5507              		.loc 6 786 9 view .LVU1607
 5508 004c 337D     		ldrb	r3, [r6, #20]	@ zero_extendqisi2
 5509 004e 93B1     		cbz	r3, .L322
 787:src/main.cpp  ****         if(p<0)p=0;if(p>=w)p=w-1;
 5510              		.loc 6 787 9 view .LVU1608
 787:src/main.cpp  ****         if(p<0)p=0;if(p>=w)p=w-1;
 5511              		.loc 6 787 51 is_stmt 0 view .LVU1609
 5512 0050 631E     		subs	r3, r4, #1
 787:src/main.cpp  ****         if(p<0)p=0;if(p>=w)p=w-1;
 5513              		.loc 6 787 54 view .LVU1610
 5514 0052 B269     		ldr	r2, [r6, #24]
 5515 0054 4FF4FA70 		mov	r0, #500
 5516 0058 0021     		movs	r1, #0
 787:src/main.cpp  ****         if(p<0)p=0;if(p>=w)p=w-1;
 5517              		.loc 6 787 59 view .LVU1611
 5518 005a C2FB0301 		smlal	r0, r1, r2, r3
 5519 005e 0023     		movs	r3, #0
 5520 0060 4FF47A72 		mov	r2, #1000
 5521 0064 FFF7FEFF 		bl	__aeabi_ldivmod
 5522              	.LVL450:
 788:src/main.cpp  ****         out[1+p]=(char)('1'+slot);
 5523              		.loc 6 788 9 is_stmt 1 view .LVU1612
 5524 0068 20EAE070 		bic	r0, r0, r0, asr #31
 5525              	.LVL451:
 788:src/main.cpp  ****         out[1+p]=(char)('1'+slot);
 5526              		.loc 6 788 20 view .LVU1613
 5527              		.loc 6 789 17 is_stmt 0 view .LVU1614
 5528 006c 3223     		movs	r3, #50
 788:src/main.cpp  ****         out[1+p]=(char)('1'+slot);
 5529              		.loc 6 788 20 view .LVU1615
 5530 006e 8442     		cmp	r4, r0
 5531              		.loc 6 789 14 view .LVU1616
 5532 0070 C8BF     		it	gt
 5533 0072 441C     		addgt	r4, r0, #1
 5534              	.LVL452:
 5535              		.loc 6 789 9 is_stmt 1 view .LVU1617
 5536              		.loc 6 789 17 is_stmt 0 view .LVU1618
 5537 0074 2B55     		strb	r3, [r5, r4]
ARM GAS  /tmp/claude-502/ccb6uqMv.s 			page 144


 5538              	.LBE1024:
 785:src/main.cpp  ****         if(!tracked[slot].alive)continue;
 5539              		.loc 6 785 5 is_stmt 1 view .LVU1619
 5540              	.LVL453:
 785:src/main.cpp  ****         if(!tracked[slot].alive)continue;
 5541              		.loc 6 785 24 view .LVU1620
 5542              	.L322:
 785:src/main.cpp  ****         if(!tracked[slot].alive)continue;
 5543              		.loc 6 785 24 is_stmt 0 view .LVU1621
 5544              	.LBE1025:
 790:src/main.cpp  ****     }
 791:src/main.cpp  **** }
 5545              		.loc 6 791 1 view .LVU1622
 5546 0076 70BD     		pop	{r4, r5, r6, pc}
 5547              	.LVL454:
 5548              	.L336:
 5549              		.loc 6 791 1 view .LVU1623
 5550              		.align	2
 5551              	.L335:
 5552 0078 00000000 		.word	.LANCHOR40
 5553              		.cfi_endproc
 5554              	.LFE2592:
 5556              		.section	.rodata.main.str1.4,"aMS",%progbits,1
 5557              		.align	2
 5558              	.LC0:
 5559 0000 476C6173 		.ascii	"Glass Moog Synth\000"
 5559      73204D6F 
 5559      6F672053 
 5559      796E7468 
 5559      00
 5560 0011 000000   		.align	2
 5561              	.LC1:
 5562 0014 3D3D3D3D 		.ascii	"================\000"
 5562      3D3D3D3D 
 5562      3D3D3D3D 
 5562      3D3D3D3D 
 5562      00
 5563 0025 000000   		.align	2
 5564              	.LC2:
 5565 0028 436C6F73 		.ascii	"ClosedBass\000"
 5565      65644261 
 5565      737300
 5566 0033 00       		.align	2
 5567              	.LC3:
 5568 0034 566F6963 		.ascii	"Voice: %s  (%d-%dHz)\000"
 5568      653A2025 
 5568      73202028 
 5568      25642D25 
 5568      64487A29 
 5569 0049 000000   		.align	2
 5570              	.LC4:
 5571 004c 46312070 		.ascii	"F1 pos=pitch  F1 prs=cutoff+vibrato\000"
 5571      6F733D70 
 5571      69746368 
 5571      20204631 
 5571      20707273 
 5572              		.align	2
ARM GAS  /tmp/claude-502/ccb6uqMv.s 			page 145


 5573              	.LC5:
 5574 0070 46322070 		.ascii	"F2 prs=wavefold+ringmod (osc2=fixed)\000"
 5574      72733D77 
 5574      61766566 
 5574      6F6C642B 
 5574      72696E67 
 5575 0095 000000   		.align	2
 5576              	.LC6:
 5577 0098 4D505231 		.ascii	"MPR121 OK \342\200\224 baseline captured\000"
 5577      3231204F 
 5577      4B20E280 
 5577      94206261 
 5577      73656C69 
 5578              		.align	2
 5579              	.LC7:
 5580 00b8 52656164 		.ascii	"Ready.\012\000"
 5580      792E0A00 
 5581              		.align	2
 5582              	.LC8:
 5583 00c0 5B726562 		.ascii	"[rebaseline]\000"
 5583      6173656C 
 5583      696E655D 
 5583      00
 5584 00cd 000000   		.align	2
 5585              	.LC9:
 5586 00d0 5B667372 		.ascii	"[fsr recal] fsr_max=%d\000"
 5586      20726563 
 5586      616C5D20 
 5586      6673725F 
 5586      6D61783D 
 5587 00e7 00       		.align	2
 5588              	.LC10:
 5589 00e8 20434820 		.ascii	" CH | DELTA | BAR\000"
 5589      7C204445 
 5589      4C544120 
 5589      7C204241 
 5589      5200
 5590 00fa 0000     		.align	2
 5591              	.LC11:
 5592 00fc 2D2D2D2D 		.ascii	"----+-------+--------------------\000"
 5592      2B2D2D2D 
 5592      2D2D2D2D 
 5592      2B2D2D2D 
 5592      2D2D2D2D 
 5593 011e 0000     		.align	2
 5594              	.LC12:
 5595 0120 20253264 		.ascii	" %2d | %5d | %s %c\000"
 5595      207C2025 
 5595      3564207C 
 5595      20257320 
 5595      256300
 5596 0133 00       		.align	2
 5597              	.LC13:
 5598 0134 0A504F53 		.ascii	"\012POS  %s\000"
 5598      20202573 
 5598      00
 5599 013d 000000   		.align	2
ARM GAS  /tmp/claude-502/ccb6uqMv.s 			page 146


 5600              	.LC14:
 5601 0140 20202564 		.ascii	"  %d  pos:%4d  prs:%3d%%  %s\000"
 5601      2020706F 
 5601      733A2534 
 5601      64202070 
 5601      72733A25 
 5602 015d 000000   		.align	2
 5603              	.LC15:
 5604 0160 20202564 		.ascii	"  %d  pos: ---  prs: --%%  [                ]\000"
 5604      2020706F 
 5604      733A202D 
 5604      2D2D2020 
 5604      7072733A 
 5605 018e 0000     		.align	2
 5606              	.LC16:
 5607 0190 20206672 		.ascii	"  freq:%4dHz  cut:%5dHz  det:%c%d.%ds  fx:%2d%%  vi"
 5607      65713A25 
 5607      3464487A 
 5607      20206375 
 5607      743A2535 
 5608 01c3 623A2532 		.ascii	"b:%2d%%\000"
 5608      64252500 
 5609 01cb 00       		.align	2
 5610              	.LC17:
 5611 01cc 2D2D2D2D 		.ascii	"--------------------------------------------\000"
 5611      2D2D2D2D 
 5611      2D2D2D2D 
 5611      2D2D2D2D 
 5611      2D2D2D2D 
 5612              		.section	.text.startup.main,"ax",%progbits
 5613              		.align	1
 5614              		.p2align 2,,3
 5615              		.global	main
 5616              		.syntax unified
 5617              		.thumb
 5618              		.thumb_func
 5620              	main:
 5621              	.LFB2593:
 792:src/main.cpp  **** 
 793:src/main.cpp  **** // ŌöĆŌöĆ Main ŌöĆŌöĆŌöĆŌöĆŌöĆŌöĆŌöĆŌöĆŌöĆŌöĆŌöĆŌöĆŌöĆŌöĆŌöĆŌöĆŌöĆŌöĆŌöĆŌöĆŌöĆŌöĆŌöĆŌöĆŌöĆŌöĆŌöĆŌöĆ
 794:src/main.cpp  **** int main()
 795:src/main.cpp  **** {
 5622              		.loc 6 795 1 is_stmt 1 view -0
 5623              		.cfi_startproc
 5624              		@ args = 0, pretend = 0, frame = 320
 5625              		@ frame_needed = 0, uses_anonymous_args = 0
 796:src/main.cpp  ****     hw.Init();
 5626              		.loc 6 796 5 view .LVU1625
 795:src/main.cpp  ****     hw.Init();
 5627              		.loc 6 795 1 is_stmt 0 view .LVU1626
 5628 0000 2DE9F04F 		push	{r4, r5, r6, r7, r8, r9, r10, fp, lr}
 5629              		.cfi_def_cfa_offset 36
 5630              		.cfi_offset 4, -36
 5631              		.cfi_offset 5, -32
 5632              		.cfi_offset 6, -28
 5633              		.cfi_offset 7, -24
 5634              		.cfi_offset 8, -20
ARM GAS  /tmp/claude-502/ccb6uqMv.s 			page 147


 5635              		.cfi_offset 9, -16
 5636              		.cfi_offset 10, -12
 5637              		.cfi_offset 11, -8
 5638              		.cfi_offset 14, -4
 5639              		.loc 6 796 12 view .LVU1627
 5640 0004 0021     		movs	r1, #0
 5641 0006 7548     		ldr	r0, .L597
 5642              	.LBB1150:
 5643              	.LBB1151:
 267:src/main.cpp  **** inline void sda_low() {sda.Init(SDA_PIN,GPIO::Mode::OUTPUT,GPIO::Pull::NOPULL);sda.Write(false);}
 5644              		.loc 6 267 32 view .LVU1628
 5645 0008 0024     		movs	r4, #0
 5646              	.LBE1151:
 5647              	.LBE1150:
 795:src/main.cpp  ****     hw.Init();
 5648              		.loc 6 795 1 view .LVU1629
 5649 000a 2DED0A8B 		vpush.64	{d8, d9, d10, d11, d12}
 5650              		.cfi_def_cfa_offset 76
 5651              		.cfi_offset 80, -76
 5652              		.cfi_offset 81, -72
 5653              		.cfi_offset 82, -68
 5654              		.cfi_offset 83, -64
 5655              		.cfi_offset 84, -60
 5656              		.cfi_offset 85, -56
 5657              		.cfi_offset 86, -52
 5658              		.cfi_offset 87, -48
 5659              		.cfi_offset 88, -44
 5660              		.cfi_offset 89, -40
 5661 000e D5B0     		sub	sp, sp, #340
 5662              		.cfi_def_cfa_offset 416
 5663              		.loc 6 796 12 view .LVU1630
 5664 0010 FFF7FEFF 		bl	_ZN5daisy9DaisySeed4InitEb
 5665              	.LVL455:
 797:src/main.cpp  ****     hw.SetAudioBlockSize(4);
 5666              		.loc 6 797 5 is_stmt 1 view .LVU1631
 5667              		.loc 6 797 25 is_stmt 0 view .LVU1632
 5668 0014 0421     		movs	r1, #4
 5669 0016 7148     		ldr	r0, .L597
 5670 0018 FFF7FEFF 		bl	_ZN5daisy9DaisySeed17SetAudioBlockSizeEj
 5671              	.LVL456:
 798:src/main.cpp  **** 
 799:src/main.cpp  ****     // Power-on grace period so the lid can be closed before baseline capture.
 800:src/main.cpp  ****     System::Delay(5000);
 5672              		.loc 6 800 5 is_stmt 1 view .LVU1633
 5673              		.loc 6 800 18 is_stmt 0 view .LVU1634
 5674 001c 41F28830 		movw	r0, #5000
 5675 0020 FFF7FEFF 		bl	_ZN5daisy6System5DelayEm
 5676              	.LVL457:
 801:src/main.cpp  **** 
 802:src/main.cpp  ****     // ŌöĆŌöĆ I2C pins + MPR121 init BEFORE audio starts ŌöĆŌöĆŌöĆŌöĆŌöĆŌöĆŌöĆŌöĆŌöĆŌöĆŌöĆŌöĆŌöĆŌöĆ
 803:src/main.cpp  ****     // The audio ISR firing during bit-bang I2C corrupts I2C timing.
 804:src/main.cpp  ****     // Do all sensor work first, then start the audio engine.
 805:src/main.cpp  ****     sda_high();
 5677              		.loc 6 805 5 is_stmt 1 view .LVU1635
 5678              	.LBB1153:
 5679              	.LBI1150:
 267:src/main.cpp  **** inline void sda_low() {sda.Init(SDA_PIN,GPIO::Mode::OUTPUT,GPIO::Pull::NOPULL);sda.Write(false);}
ARM GAS  /tmp/claude-502/ccb6uqMv.s 			page 148


 5680              		.loc 6 267 13 view .LVU1636
 5681              	.LBB1152:
 267:src/main.cpp  **** inline void sda_low() {sda.Init(SDA_PIN,GPIO::Mode::OUTPUT,GPIO::Pull::NOPULL);sda.Write(false);}
 5682              		.loc 6 267 24 view .LVU1637
 267:src/main.cpp  **** inline void sda_low() {sda.Init(SDA_PIN,GPIO::Mode::OUTPUT,GPIO::Pull::NOPULL);sda.Write(false);}
 5683              		.loc 6 267 32 is_stmt 0 view .LVU1638
 5684 0024 6E49     		ldr	r1, .L597+4
 5685 0026 0123     		movs	r3, #1
 5686 0028 2246     		mov	r2, r4
 5687 002a 0968     		ldr	r1, [r1]
 5688 002c 6D48     		ldr	r0, .L597+8
 5689 002e 0094     		str	r4, [sp]
 5690 0030 FFF7FEFF 		bl	_ZN5daisy4GPIO4InitENS_3PinENS0_4ModeENS0_4PullENS0_5SpeedE
 5691              	.LVL458:
 5692              	.LBE1152:
 5693              	.LBE1153:
 806:src/main.cpp  ****     scl_high();
 5694              		.loc 6 806 5 is_stmt 1 view .LVU1639
 5695              	.LBB1154:
 5696              	.LBI1154:
 269:src/main.cpp  **** inline void scl_low() {scl.Init(SCL_PIN,GPIO::Mode::OUTPUT,GPIO::Pull::NOPULL);scl.Write(false);}
 5697              		.loc 6 269 13 view .LVU1640
 5698              	.LBB1155:
 269:src/main.cpp  **** inline void scl_low() {scl.Init(SCL_PIN,GPIO::Mode::OUTPUT,GPIO::Pull::NOPULL);scl.Write(false);}
 5699              		.loc 6 269 24 view .LVU1641
 269:src/main.cpp  **** inline void scl_low() {scl.Init(SCL_PIN,GPIO::Mode::OUTPUT,GPIO::Pull::NOPULL);scl.Write(false);}
 5700              		.loc 6 269 32 is_stmt 0 view .LVU1642
 5701 0034 6C49     		ldr	r1, .L597+12
 5702 0036 0123     		movs	r3, #1
 5703 0038 2246     		mov	r2, r4
 5704 003a 0968     		ldr	r1, [r1]
 5705 003c 6B48     		ldr	r0, .L597+16
 5706 003e 0094     		str	r4, [sp]
 5707 0040 FFF7FEFF 		bl	_ZN5daisy4GPIO4InitENS_3PinENS0_4ModeENS0_4PullENS0_5SpeedE
 5708              	.LVL459:
 5709              	.LBE1155:
 5710              	.LBE1154:
 807:src/main.cpp  **** 
 808:src/main.cpp  ****     uint16_t baseline[N_CH];
 5711              		.loc 6 808 5 is_stmt 1 view .LVU1643
 809:src/main.cpp  ****     if(mpr_init())
 5712              		.loc 6 809 5 view .LVU1644
 5713              		.loc 6 809 16 is_stmt 0 view .LVU1645
 5714 0044 FFF7FEFF 		bl	_Z8mpr_initv
 5715              	.LVL460:
 810:src/main.cpp  ****     {
 811:src/main.cpp  ****         System::Delay(300);
 812:src/main.cpp  ****         capture_baseline(baseline);
 5716              		.loc 6 812 25 view .LVU1646
 5717 0048 17AB     		add	r3, sp, #92
 809:src/main.cpp  ****     if(mpr_init())
 5718              		.loc 6 809 5 view .LVU1647
 5719 004a 0028     		cmp	r0, #0
 5720 004c 40F0FA87 		bne	.L548
 5721 0050 0793     		str	r3, [sp, #28]
 5722              	.L338:
 813:src/main.cpp  ****     }
ARM GAS  /tmp/claude-502/ccb6uqMv.s 			page 149


 814:src/main.cpp  ****     // If MPR121 fails we still start audio so the problem is audible (silence)
 815:src/main.cpp  **** 
 816:src/main.cpp  ****     // ŌöĆŌöĆ DAC LEDs (pin 30 = DAC1, pin 31 = DAC2) + PWM LED (A0 = pin 22) ŌöĆŌöĆŌöĆŌöĆŌöĆŌöĆ
 817:src/main.cpp  ****     DacHandle::Config dac_cfg;
 5723              		.loc 6 817 5 is_stmt 1 view .LVU1648
 818:src/main.cpp  ****     dac_cfg.bitdepth   = DacHandle::BitDepth::BITS_12;
 5724              		.loc 6 818 5 view .LVU1649
 819:src/main.cpp  ****     dac_cfg.buff_state = DacHandle::BufferState::ENABLED;
 5725              		.loc 6 819 24 is_stmt 0 view .LVU1650
 5726 0052 0024     		movs	r4, #0
 818:src/main.cpp  ****     dac_cfg.bitdepth   = DacHandle::BitDepth::BITS_12;
 5727              		.loc 6 818 24 view .LVU1651
 5728 0054 0125     		movs	r5, #1
 820:src/main.cpp  ****     dac_cfg.mode       = DacHandle::Mode::POLLING;
 821:src/main.cpp  ****     dac_cfg.chn        = DacHandle::Channel::BOTH;
 5729              		.loc 6 821 24 view .LVU1652
 5730 0056 0226     		movs	r6, #2
 822:src/main.cpp  ****     hw.dac.Init(dac_cfg);
 5731              		.loc 6 822 16 view .LVU1653
 5732 0058 12A9     		add	r1, sp, #72
 5733 005a 6548     		ldr	r0, .L597+20
 821:src/main.cpp  ****     hw.dac.Init(dac_cfg);
 5734              		.loc 6 821 24 view .LVU1654
 5735 005c 1396     		str	r6, [sp, #76]
 819:src/main.cpp  ****     dac_cfg.mode       = DacHandle::Mode::POLLING;
 5736              		.loc 6 819 24 view .LVU1655
 5737 005e 1694     		str	r4, [sp, #88]
 818:src/main.cpp  ****     dac_cfg.buff_state = DacHandle::BufferState::ENABLED;
 5738              		.loc 6 818 24 view .LVU1656
 5739 0060 CDE91445 		strd	r4, r5, [sp, #80]
 819:src/main.cpp  ****     dac_cfg.mode       = DacHandle::Mode::POLLING;
 5740              		.loc 6 819 5 is_stmt 1 view .LVU1657
 820:src/main.cpp  ****     dac_cfg.chn        = DacHandle::Channel::BOTH;
 5741              		.loc 6 820 5 view .LVU1658
 821:src/main.cpp  ****     hw.dac.Init(dac_cfg);
 5742              		.loc 6 821 5 view .LVU1659
 5743              		.loc 6 822 5 view .LVU1660
 5744              		.loc 6 822 16 is_stmt 0 view .LVU1661
 5745 0064 FFF7FEFF 		bl	_ZN5daisy9DacHandle4InitERKNS0_6ConfigE
 5746              	.LVL461:
 823:src/main.cpp  ****     hw.dac.WriteValue(DacHandle::Channel::BOTH, 0);
 5747              		.loc 6 823 5 is_stmt 1 view .LVU1662
 5748              		.loc 6 823 22 is_stmt 0 view .LVU1663
 5749 0068 3146     		mov	r1, r6
 5750 006a 2246     		mov	r2, r4
 5751 006c 6048     		ldr	r0, .L597+20
 5752 006e FFF7FEFF 		bl	_ZN5daisy9DacHandle10WriteValueENS0_7ChannelEt
 5753              	.LVL462:
 824:src/main.cpp  **** 
 825:src/main.cpp  ****     led3.Init(seed::A0, GPIO::Mode::OUTPUT, GPIO::Pull::NOPULL);
 5754              		.loc 6 825 5 is_stmt 1 view .LVU1664
 5755              		.loc 6 825 14 is_stmt 0 view .LVU1665
 5756 0072 604B     		ldr	r3, .L597+24
 5757 0074 2A46     		mov	r2, r5
 5758 0076 6048     		ldr	r0, .L597+28
 5759 0078 1968     		ldr	r1, [r3]
 5760 007a 2346     		mov	r3, r4
ARM GAS  /tmp/claude-502/ccb6uqMv.s 			page 150


 5761 007c 0094     		str	r4, [sp]
 5762 007e FFF7FEFF 		bl	_ZN5daisy4GPIO4InitENS_3PinENS0_4ModeENS0_4PullENS0_5SpeedE
 5763              	.LVL463:
 826:src/main.cpp  ****     led3.Write(false);
 5764              		.loc 6 826 5 is_stmt 1 view .LVU1666
 5765              		.loc 6 826 15 is_stmt 0 view .LVU1667
 5766 0082 2146     		mov	r1, r4
 5767 0084 5C48     		ldr	r0, .L597+28
 5768 0086 FFF7FEFF 		bl	_ZN5daisy4GPIO5WriteEb
 5769              	.LVL464:
 827:src/main.cpp  **** 
 828:src/main.cpp  ****     // ŌöĆŌöĆ FSR (A1 / ADC1) ŌöĆŌöĆŌöĆŌöĆŌöĆŌöĆŌöĆŌöĆŌöĆŌöĆŌöĆŌöĆŌöĆŌöĆŌöĆŌöĆŌöĆŌöĆŌöĆŌöĆŌöĆŌöĆŌöĆ
 829:src/main.cpp  ****     // Wired so unpressed reads ~max (3.3V). Press pulls ADC down. Fixed
 830:src/main.cpp  ****     // thresholds: raw Ōēż FSR_MIN ŌåÆ 0%, raw Ōēź FSR_MAX ŌåÆ 100%, linear between.
 831:src/main.cpp  ****     AdcChannelConfig fsr_cfg;
 5770              		.loc 6 831 5 is_stmt 1 view .LVU1668
 832:src/main.cpp  ****     fsr_cfg.InitSingle(seed::A1);
 5771              		.loc 6 832 5 view .LVU1669
 5772              		.loc 6 832 23 is_stmt 0 view .LVU1670
 5773 008a 0323     		movs	r3, #3
 5774 008c 8DF83040 		strb	r4, [sp, #48]
 5775 0090 3246     		mov	r2, r6
 5776 0092 8DF83130 		strb	r3, [sp, #49]
 5777 0096 0DA8     		add	r0, sp, #52
 5778 0098 0C99     		ldr	r1, [sp, #48]
 5779 009a FFF7FEFF 		bl	_ZN5daisy16AdcChannelConfig10InitSingleE12dsy_gpio_pinNS0_15ConversionSpeedE
 5780              	.LVL465:
 833:src/main.cpp  ****     hw.adc.Init(&fsr_cfg, 1);
 5781              		.loc 6 833 5 is_stmt 1 view .LVU1671
 5782              		.loc 6 833 16 is_stmt 0 view .LVU1672
 5783 009e 2A46     		mov	r2, r5
 5784 00a0 0423     		movs	r3, #4
 5785 00a2 0DA9     		add	r1, sp, #52
 5786 00a4 5548     		ldr	r0, .L597+32
 5787              	.LBB1156:
 5788              	.LBB1157:
 5789              	.LBB1158:
 834:src/main.cpp  ****     hw.adc.Start();
 835:src/main.cpp  **** 
 836:src/main.cpp  ****     constexpr uint16_t FSR_MIN       = 8000;
 837:src/main.cpp  ****     uint16_t           fsr_max       = 55000;
 838:src/main.cpp  ****     float              fsr_range_inv = 1.0f / (float)(fsr_max - FSR_MIN);
 839:src/main.cpp  **** 
 840:src/main.cpp  ****     auto commit_fsr_avg = [&](uint32_t acc, int n) {
 841:src/main.cpp  ****         if(n == 0) return;
 842:src/main.cpp  ****         uint16_t avg = (uint16_t)(acc / n);
 843:src/main.cpp  ****         // Sanity floor ŌĆö without enough headroom over FSR_MIN the volume curve
 844:src/main.cpp  ****         // becomes hyper-sensitive to noise.
 845:src/main.cpp  ****         if(avg < FSR_MIN + 500) avg = FSR_MIN + 500;
 846:src/main.cpp  ****         fsr_max       = avg;
 847:src/main.cpp  ****         fsr_range_inv = 1.0f / (float)(fsr_max - FSR_MIN);
 848:src/main.cpp  ****     };
 849:src/main.cpp  **** 
 850:src/main.cpp  ****     // Startup calibration: 2 s silent FSR average ŌåÆ fsr_max.
 851:src/main.cpp  ****     auto calibrate_fsr_silent = [&]() {
 852:src/main.cpp  ****         uint32_t start = System::GetNow();
 853:src/main.cpp  ****         uint32_t acc = 0; int n = 0;
ARM GAS  /tmp/claude-502/ccb6uqMv.s 			page 151


 5790              		.loc 6 853 18 view .LVU1673
 5791 00a6 2546     		mov	r5, r4
 5792              	.LBE1158:
 5793              	.LBE1157:
 5794              	.LBE1156:
 833:src/main.cpp  ****     hw.adc.Init(&fsr_cfg, 1);
 5795              		.loc 6 833 16 view .LVU1674
 5796 00a8 FFF7FEFF 		bl	_ZN5daisy9AdcHandle4InitEPNS_16AdcChannelConfigEjNS0_12OverSamplingE
 5797              	.LVL466:
 834:src/main.cpp  ****     hw.adc.Start();
 5798              		.loc 6 834 5 is_stmt 1 view .LVU1675
 834:src/main.cpp  ****     hw.adc.Start();
 5799              		.loc 6 834 17 is_stmt 0 view .LVU1676
 5800 00ac 5348     		ldr	r0, .L597+32
 5801 00ae FFF7FEFF 		bl	_ZN5daisy9AdcHandle5StartEv
 5802              	.LVL467:
 836:src/main.cpp  ****     uint16_t           fsr_max       = 55000;
 5803              		.loc 6 836 5 is_stmt 1 view .LVU1677
 837:src/main.cpp  ****     float              fsr_range_inv = 1.0f / (float)(fsr_max - FSR_MIN);
 5804              		.loc 6 837 5 view .LVU1678
 838:src/main.cpp  **** 
 5805              		.loc 6 838 5 view .LVU1679
 840:src/main.cpp  ****         if(n == 0) return;
 5806              		.loc 6 840 5 view .LVU1680
 851:src/main.cpp  ****         uint32_t start = System::GetNow();
 5807              		.loc 6 851 5 view .LVU1681
 854:src/main.cpp  ****         while(System::GetNow() - start < 2000) {
 855:src/main.cpp  ****             acc += hw.adc.Get(0);
 856:src/main.cpp  ****             n++;
 857:src/main.cpp  ****             System::Delay(10);
 858:src/main.cpp  ****         }
 859:src/main.cpp  ****         commit_fsr_avg(acc, n);
 860:src/main.cpp  ****     };
 861:src/main.cpp  **** 
 862:src/main.cpp  ****     // Idle behaviour: sweep a virtual position 0ŌåÆ1000ŌåÆ0 through the same
 863:src/main.cpp  ****     // LED-tent math as the pitch mapping (LED2=pos 0, LED1=middle, LED3=pos 1),
 864:src/main.cpp  ****     // recalibrate fsr_max during the first 2 s, then keep sweeping until any
 865:src/main.cpp  ****     // electrode crosses TOUCH_THRESHOLD.
 866:src/main.cpp  ****     auto idle_chase_and_calibrate = [&]() {
 5808              		.loc 6 866 5 view .LVU1682
 867:src/main.cpp  ****         uint32_t start = System::GetNow();
 868:src/main.cpp  ****         uint32_t acc = 0; int n = 0;
 869:src/main.cpp  ****         bool     calibrated = false;
 870:src/main.cpp  ****         constexpr uint32_t SWEEP_PERIOD_MS = 12000;  // one 0ŌåÆ1ŌåÆ0 cycle
 871:src/main.cpp  ****         constexpr float    TAU             = 6.2831853f;
 872:src/main.cpp  ****         uint16_t scan[N_CH];
 873:src/main.cpp  **** 
 874:src/main.cpp  ****         while(true) {
 875:src/main.cpp  ****             uint32_t elapsed = System::GetNow() - start;
 876:src/main.cpp  **** 
 877:src/main.cpp  ****             // Sinusoidal position 0ŌåÆ1ŌåÆ0 over SWEEP_PERIOD_MS ŌĆö eases at the
 878:src/main.cpp  ****             // endpoints so the reversal is gentle instead of a triangle kink.
 879:src/main.cpp  ****             float phase = (float)(elapsed % SWEEP_PERIOD_MS) / (float)SWEEP_PERIOD_MS;
 880:src/main.cpp  ****             float p01   = 0.5f * (1.0f - cosf(phase * TAU));
 881:src/main.cpp  **** 
 882:src/main.cpp  ****             // Same tent + gamma-0.25 math as the pitch LED mapping.
 883:src/main.cpp  ****             float l1_raw = 1.0f - 2.0f * p01;                 if(l1_raw < 0) l1_raw = 0;
ARM GAS  /tmp/claude-502/ccb6uqMv.s 			page 152


 884:src/main.cpp  ****             float l3_raw = 2.0f * p01 - 1.0f;                 if(l3_raw < 0) l3_raw = 0;
 885:src/main.cpp  ****             float l2_raw = 1.0f - 2.0f * fabsf(p01 - 0.5f);   if(l2_raw < 0) l2_raw = 0;
 886:src/main.cpp  ****             float led1   = sqrtf(sqrtf(l2_raw));              // middle (DAC1)
 887:src/main.cpp  ****             float led2   = sqrtf(sqrtf(l1_raw));              // pos 0  (DAC2)
 888:src/main.cpp  ****             float led3   = sqrtf(sqrtf(l3_raw)) * LED3_INTENSITY; // pos 1 (PWM A0)
 889:src/main.cpp  ****             hw.dac.WriteValue(DacHandle::Channel::ONE, (uint16_t)(led1 * 4095.0f));
 890:src/main.cpp  ****             hw.dac.WriteValue(DacHandle::Channel::TWO, (uint16_t)(led2 * 4095.0f));
 891:src/main.cpp  ****             g_led3_duty = led3;
 892:src/main.cpp  **** 
 893:src/main.cpp  ****             // FSR calibration window: first 2 s only.
 894:src/main.cpp  ****             if(!calibrated) {
 895:src/main.cpp  ****                 acc += hw.adc.Get(0);
 896:src/main.cpp  ****                 n++;
 897:src/main.cpp  ****                 if(elapsed >= 2000) {
 898:src/main.cpp  ****                     commit_fsr_avg(acc, n);
 899:src/main.cpp  ****                     calibrated = true;
 900:src/main.cpp  ****                 }
 901:src/main.cpp  ****             }
 902:src/main.cpp  **** 
 903:src/main.cpp  ****             // Exit on any touch.
 904:src/main.cpp  ****             read_electrodes(scan);
 905:src/main.cpp  ****             int32_t max_d = 0;
 906:src/main.cpp  ****             for(int i = 0; i < N_CH; i++) {
 907:src/main.cpp  ****                 int32_t d = (int32_t)baseline[i] - (int32_t)scan[i];
 908:src/main.cpp  ****                 if(d > max_d) max_d = d;
 909:src/main.cpp  ****             }
 910:src/main.cpp  ****             if(max_d >= TOUCH_THRESHOLD) break;
 911:src/main.cpp  **** 
 912:src/main.cpp  ****             System::Delay(10);
 913:src/main.cpp  ****         }
 914:src/main.cpp  **** 
 915:src/main.cpp  ****         // Clean handoff back to the main loop's LED writer.
 916:src/main.cpp  ****         hw.dac.WriteValue(DacHandle::Channel::ONE, 0);
 917:src/main.cpp  ****         hw.dac.WriteValue(DacHandle::Channel::TWO, 0);
 918:src/main.cpp  ****         g_led3_duty = 0.0f;
 919:src/main.cpp  ****     };
 920:src/main.cpp  **** 
 921:src/main.cpp  ****     calibrate_fsr_silent();
 5809              		.loc 6 921 5 view .LVU1683
 5810              	.LBB1167:
 5811              	.LBI1156:
 851:src/main.cpp  ****         uint32_t start = System::GetNow();
 5812              		.loc 6 851 33 view .LVU1684
 5813              	.LBB1166:
 5814              	.LBB1165:
 852:src/main.cpp  ****         uint32_t acc = 0; int n = 0;
 5815              		.loc 6 852 9 view .LVU1685
 852:src/main.cpp  ****         uint32_t acc = 0; int n = 0;
 5816              		.loc 6 852 40 is_stmt 0 view .LVU1686
 5817 00b2 FFF7FEFF 		bl	_ZN5daisy6System6GetNowEv
 5818              	.LVL468:
 5819 00b6 0646     		mov	r6, r0
 5820              	.LVL469:
 853:src/main.cpp  ****         while(System::GetNow() - start < 2000) {
 5821              		.loc 6 853 9 is_stmt 1 view .LVU1687
 853:src/main.cpp  ****         while(System::GetNow() - start < 2000) {
 5822              		.loc 6 853 27 view .LVU1688
ARM GAS  /tmp/claude-502/ccb6uqMv.s 			page 153


 853:src/main.cpp  ****         while(System::GetNow() - start < 2000) {
 5823              		.loc 6 853 27 is_stmt 0 view .LVU1689
 5824 00b8 07E0     		b	.L340
 5825              	.LVL470:
 5826              	.L575:
 855:src/main.cpp  ****             n++;
 5827              		.loc 6 855 30 view .LVU1690
 5828 00ba FFF7FEFF 		bl	_ZNK5daisy9AdcHandle3GetEh
 5829              	.LVL471:
 5830 00be 0346     		mov	r3, r0
 857:src/main.cpp  ****         }
 5831              		.loc 6 857 26 view .LVU1691
 5832 00c0 0A20     		movs	r0, #10
 856:src/main.cpp  ****             System::Delay(10);
 5833              		.loc 6 856 14 view .LVU1692
 5834 00c2 0134     		adds	r4, r4, #1
 5835              	.LVL472:
 855:src/main.cpp  ****             n++;
 5836              		.loc 6 855 17 view .LVU1693
 5837 00c4 1D44     		add	r5, r5, r3
 5838              	.LVL473:
 856:src/main.cpp  ****             System::Delay(10);
 5839              		.loc 6 856 13 is_stmt 1 view .LVU1694
 857:src/main.cpp  ****         }
 5840              		.loc 6 857 13 view .LVU1695
 857:src/main.cpp  ****         }
 5841              		.loc 6 857 26 is_stmt 0 view .LVU1696
 5842 00c6 FFF7FEFF 		bl	_ZN5daisy6System5DelayEm
 5843              	.LVL474:
 5844              	.L340:
 854:src/main.cpp  ****             acc += hw.adc.Get(0);
 5845              		.loc 6 854 9 is_stmt 1 view .LVU1697
 854:src/main.cpp  ****             acc += hw.adc.Get(0);
 5846              		.loc 6 854 40 view .LVU1698
 854:src/main.cpp  ****             acc += hw.adc.Get(0);
 5847              		.loc 6 854 29 is_stmt 0 view .LVU1699
 5848 00ca FFF7FEFF 		bl	_ZN5daisy6System6GetNowEv
 5849              	.LVL475:
 855:src/main.cpp  ****             n++;
 5850              		.loc 6 855 13 is_stmt 1 view .LVU1700
 854:src/main.cpp  ****             acc += hw.adc.Get(0);
 5851              		.loc 6 854 29 is_stmt 0 view .LVU1701
 5852 00ce 0346     		mov	r3, r0
 855:src/main.cpp  ****             n++;
 5853              		.loc 6 855 30 view .LVU1702
 5854 00d0 0021     		movs	r1, #0
 5855 00d2 4A48     		ldr	r0, .L597+32
 854:src/main.cpp  ****             acc += hw.adc.Get(0);
 5856              		.loc 6 854 32 view .LVU1703
 5857 00d4 9B1B     		subs	r3, r3, r6
 854:src/main.cpp  ****             acc += hw.adc.Get(0);
 5858              		.loc 6 854 40 view .LVU1704
 5859 00d6 B3F5FA6F 		cmp	r3, #2000
 5860 00da EED3     		bcc	.L575
 859:src/main.cpp  ****     };
 5861              		.loc 6 859 9 is_stmt 1 view .LVU1705
 5862              	.LVL476:
ARM GAS  /tmp/claude-502/ccb6uqMv.s 			page 154


 5863              	.LBB1159:
 5864              	.LBI1159:
 840:src/main.cpp  ****         if(n == 0) return;
 5865              		.loc 6 840 27 view .LVU1706
 5866              	.LBB1160:
 5867              	.LBB1161:
 841:src/main.cpp  ****         uint16_t avg = (uint16_t)(acc / n);
 5868              		.loc 6 841 9 view .LVU1707
 5869 00dc 002C     		cmp	r4, #0
 5870 00de 00F0AA87 		beq	.L470
 5871              	.LVL477:
 841:src/main.cpp  ****         uint16_t avg = (uint16_t)(acc / n);
 5872              		.loc 6 841 9 is_stmt 0 view .LVU1708
 5873              	.LBE1161:
 5874              	.LBB1162:
 5875              	.LBI1162:
 840:src/main.cpp  ****         if(n == 0) return;
 5876              		.loc 6 840 27 is_stmt 1 view .LVU1709
 5877              	.LBB1163:
 5878              	.LBB1164:
 842:src/main.cpp  ****         // Sanity floor ŌĆö without enough headroom over FSR_MIN the volume curve
 5879              		.loc 6 842 9 view .LVU1710
 5880 00e2 42F23412 		movw	r2, #8500
 847:src/main.cpp  ****     };
 5881              		.loc 6 847 30 is_stmt 0 view .LVU1711
 5882 00e6 B7EE007A 		vmov.f32	s14, #1.0e+0
 842:src/main.cpp  ****         // Sanity floor ŌĆö without enough headroom over FSR_MIN the volume curve
 5883              		.loc 6 842 39 view .LVU1712
 5884 00ea B5FBF4F4 		udiv	r4, r5, r4
 5885              	.LVL478:
 842:src/main.cpp  ****         // Sanity floor ŌĆö without enough headroom over FSR_MIN the volume curve
 5886              		.loc 6 842 18 view .LVU1713
 5887 00ee A3B2     		uxth	r3, r4
 5888              	.LVL479:
 845:src/main.cpp  ****         fsr_max       = avg;
 5889              		.loc 6 845 9 is_stmt 1 view .LVU1714
 5890 00f0 9342     		cmp	r3, r2
 5891 00f2 38BF     		it	cc
 5892 00f4 1346     		movcc	r3, r2
 5893              	.LVL480:
 845:src/main.cpp  ****         fsr_max       = avg;
 5894              		.loc 6 845 9 is_stmt 0 view .LVU1715
 5895 00f6 0A93     		str	r3, [sp, #40]
 5896              	.LVL481:
 846:src/main.cpp  ****         fsr_range_inv = 1.0f / (float)(fsr_max - FSR_MIN);
 5897              		.loc 6 846 9 is_stmt 1 view .LVU1716
 847:src/main.cpp  ****     };
 5898              		.loc 6 847 9 view .LVU1717
 847:src/main.cpp  ****     };
 5899              		.loc 6 847 48 is_stmt 0 view .LVU1718
 5900 00f8 A3F5FA53 		sub	r3, r3, #8000
 5901              	.LVL482:
 847:src/main.cpp  ****     };
 5902              		.loc 6 847 48 view .LVU1719
 5903 00fc 07EE903A 		vmov	s15, r3	@ int
 847:src/main.cpp  ****     };
 5904              		.loc 6 847 32 view .LVU1720
ARM GAS  /tmp/claude-502/ccb6uqMv.s 			page 155


 5905 0100 F8EEE77A 		vcvt.f32.s32	s15, s15
 847:src/main.cpp  ****     };
 5906              		.loc 6 847 30 view .LVU1721
 5907 0104 C7EE27AA 		vdiv.f32	s21, s14, s15
 5908              	.LVL483:
 5909              	.L341:
 847:src/main.cpp  ****     };
 5910              		.loc 6 847 30 view .LVU1722
 5911              	.LBE1164:
 5912              	.LBE1163:
 5913              	.LBE1162:
 5914              	.LBE1160:
 5915              	.LBE1159:
 5916              	.LBE1165:
 5917              	.LBE1166:
 5918              	.LBE1167:
 922:src/main.cpp  **** 
 923:src/main.cpp  ****     // ŌöĆŌöĆ Start audio ŌöĆŌöĆŌöĆŌöĆŌöĆŌöĆŌöĆŌöĆŌöĆŌöĆŌöĆŌöĆŌöĆŌöĆŌöĆŌöĆŌöĆŌöĆŌöĆŌöĆŌöĆŌöĆŌöĆŌöĆŌ
 924:src/main.cpp  ****     // Set initial targets before callback fires (voice-relative starting pitch)
 925:src/main.cpp  ****     g_target_freq   = VOICE.freq_low * 2.0f;
 5919              		.loc 6 925 5 is_stmt 1 view .LVU1723
 5920              		.loc 6 925 21 is_stmt 0 view .LVU1724
 5921 0108 3D4B     		ldr	r3, .L597+36
 5922 010a 0DF17408 		add	r8, sp, #116
 5923 010e 3D4A     		ldr	r2, .L597+40
 5924 0110 0DF1A40A 		add	r10, sp, #164
 926:src/main.cpp  ****     g_target_cutoff = 100.0f;
 927:src/main.cpp  ****     g_amp_target    = 0.0f;
 5925              		.loc 6 927 21 view .LVU1725
 5926 0114 9FED4B8A 		vldr.32	s16, .L597+104
 5927 0118 0DF1B90B 		add	fp, sp, #185
 925:src/main.cpp  ****     g_target_cutoff = 100.0f;
 5928              		.loc 6 925 21 view .LVU1726
 5929 011c 1360     		str	r3, [r2]	@ float
 926:src/main.cpp  ****     g_target_cutoff = 100.0f;
 5930              		.loc 6 926 5 is_stmt 1 view .LVU1727
 5931              		.loc 6 927 21 is_stmt 0 view .LVU1728
 5932 011e 3A4C     		ldr	r4, .L597+44
 928:src/main.cpp  ****     hw.StartAudio(AudioCallback);
 929:src/main.cpp  **** 
 930:src/main.cpp  ****     // Boot beep ŌĆö 200ms tone so you can confirm headphone audio is working
 931:src/main.cpp  ****     g_amp_target = 0.4f;
 932:src/main.cpp  ****     System::Delay(200);
 933:src/main.cpp  ****     g_amp_target = 0.0f;
 934:src/main.cpp  ****     System::Delay(50);
 935:src/main.cpp  **** 
 936:src/main.cpp  ****     // ŌöĆŌöĆ USB serial (blocks until host connects) ŌöĆŌöĆŌöĆŌöĆŌöĆŌöĆŌöĆŌöĆŌöĆŌöĆŌöĆŌöĆŌöĆŌöĆŌöĆ
 937:src/main.cpp  ****     hw.StartLog(false); // false = don't wait for serial monitor
 938:src/main.cpp  **** 
 939:src/main.cpp  ****     hw.PrintLine("Glass Moog Synth");
 940:src/main.cpp  ****     hw.PrintLine("================");
 941:src/main.cpp  ****     hw.PrintLine("Voice: %s  (%d-%dHz)",
 942:src/main.cpp  ****                  VOICE.name, (int)VOICE.freq_low, (int)VOICE.freq_high);
 943:src/main.cpp  ****     hw.PrintLine("F1 pos=pitch  F1 prs=cutoff+vibrato");
 944:src/main.cpp  ****     if(VOICE.osc2_detune)
 945:src/main.cpp  ****         hw.PrintLine("F2 pos=detune F2 prs=wavefold+ringmod");
 946:src/main.cpp  ****     else
ARM GAS  /tmp/claude-502/ccb6uqMv.s 			page 156


 947:src/main.cpp  ****         hw.PrintLine("F2 prs=wavefold+ringmod (osc2=fixed)");
 948:src/main.cpp  ****     hw.PrintLine("MPR121 OK ŌĆö baseline captured");
 949:src/main.cpp  ****     hw.PrintLine("Ready.\n");
 950:src/main.cpp  **** 
 951:src/main.cpp  ****     uint16_t data[N_CH];
 952:src/main.cpp  ****     int32_t  delta[N_CH];
 953:src/main.cpp  ****     char     bar[32], pos_bar[52];
 954:src/main.cpp  ****     Finger   raw[2];
 955:src/main.cpp  **** 
 956:src/main.cpp  ****     uint32_t idle_since      = System::GetNow();
 957:src/main.cpp  ****     uint32_t last_touch_ms   = System::GetNow();
 958:src/main.cpp  ****     bool     f1_was_on       = false;
 959:src/main.cpp  ****     uint32_t f1_last_seen_ms = 0;
 960:src/main.cpp  ****     static constexpr uint32_t F1_REQUANTIZE_MS = 200; // re-quantize only after this long off
 961:src/main.cpp  ****     float    f1_midi_base    = 60.0f; // last quantized note
 962:src/main.cpp  ****     bool     f1_sliding      = false; // true after first touch settles
 963:src/main.cpp  **** 
 964:src/main.cpp  ****     // Per-frame display counter (print every N frames to reduce serial spam)
 965:src/main.cpp  ****     int print_every = 1;
 966:src/main.cpp  ****     int frame_count = 0;
 967:src/main.cpp  **** 
 968:src/main.cpp  ****     // Smoothed LED brightness state (0..1), slewed toward per-frame targets.
 969:src/main.cpp  ****     // LED1 = DAC1 (pos 0 end), LED2 = DAC2 (middle), LED3 = PWM A0 (pos 1000 end).
 970:src/main.cpp  ****     float s_led1 = 0.0f, s_led2 = 0.0f, s_led3 = 0.0f;
 5933              		.loc 6 970 41 view .LVU1729
 5934 0120 B0EE489A 		vmov.f32	s18, s16
 926:src/main.cpp  ****     g_amp_target    = 0.0f;
 5935              		.loc 6 926 21 view .LVU1730
 5936 0124 394A     		ldr	r2, .L597+48
 5937              		.loc 6 970 26 view .LVU1731
 5938 0126 B0EE48AA 		vmov.f32	s20, s16
 926:src/main.cpp  ****     g_amp_target    = 0.0f;
 5939              		.loc 6 926 21 view .LVU1732
 5940 012a 394B     		ldr	r3, .L597+52
 5941              		.loc 6 970 11 view .LVU1733
 5942 012c F0EE489A 		vmov.f32	s19, s16
 928:src/main.cpp  ****     hw.StartAudio(AudioCallback);
 5943              		.loc 6 928 18 view .LVU1734
 5944 0130 3849     		ldr	r1, .L597+56
 5945 0132 2A48     		ldr	r0, .L597
 926:src/main.cpp  ****     g_amp_target    = 0.0f;
 5946              		.loc 6 926 21 view .LVU1735
 5947 0134 1360     		str	r3, [r2]	@ float
 927:src/main.cpp  ****     hw.StartAudio(AudioCallback);
 5948              		.loc 6 927 5 is_stmt 1 view .LVU1736
 927:src/main.cpp  ****     hw.StartAudio(AudioCallback);
 5949              		.loc 6 927 21 is_stmt 0 view .LVU1737
 5950 0136 84ED008A 		vstr.32	s16, [r4]
 928:src/main.cpp  ****     hw.StartAudio(AudioCallback);
 5951              		.loc 6 928 5 is_stmt 1 view .LVU1738
 928:src/main.cpp  ****     hw.StartAudio(AudioCallback);
 5952              		.loc 6 928 18 is_stmt 0 view .LVU1739
 5953 013a FFF7FEFF 		bl	_ZN5daisy9DaisySeed10StartAudioEPFvPKPKfPPfjE
 5954              	.LVL484:
 931:src/main.cpp  ****     System::Delay(200);
 5955              		.loc 6 931 5 is_stmt 1 view .LVU1740
 931:src/main.cpp  ****     System::Delay(200);
ARM GAS  /tmp/claude-502/ccb6uqMv.s 			page 157


 5956              		.loc 6 931 18 is_stmt 0 view .LVU1741
 5957 013e 364B     		ldr	r3, .L597+60
 932:src/main.cpp  ****     g_amp_target = 0.0f;
 5958              		.loc 6 932 18 view .LVU1742
 5959 0140 C820     		movs	r0, #200
 5960 0142 DFF8FC90 		ldr	r9, .L597+100
 931:src/main.cpp  ****     System::Delay(200);
 5961              		.loc 6 931 18 view .LVU1743
 5962 0146 2360     		str	r3, [r4]	@ float
 932:src/main.cpp  ****     g_amp_target = 0.0f;
 5963              		.loc 6 932 5 is_stmt 1 view .LVU1744
 932:src/main.cpp  ****     g_amp_target = 0.0f;
 5964              		.loc 6 932 18 is_stmt 0 view .LVU1745
 5965 0148 FFF7FEFF 		bl	_ZN5daisy6System5DelayEm
 5966              	.LVL485:
 933:src/main.cpp  ****     System::Delay(50);
 5967              		.loc 6 933 5 is_stmt 1 view .LVU1746
 934:src/main.cpp  **** 
 5968              		.loc 6 934 18 is_stmt 0 view .LVU1747
 5969 014c 3220     		movs	r0, #50
 933:src/main.cpp  ****     System::Delay(50);
 5970              		.loc 6 933 18 view .LVU1748
 5971 014e 84ED008A 		vstr.32	s16, [r4]
 934:src/main.cpp  **** 
 5972              		.loc 6 934 5 is_stmt 1 view .LVU1749
 934:src/main.cpp  **** 
 5973              		.loc 6 934 18 is_stmt 0 view .LVU1750
 5974 0152 FFF7FEFF 		bl	_ZN5daisy6System5DelayEm
 5975              	.LVL486:
 937:src/main.cpp  **** 
 5976              		.loc 6 937 5 is_stmt 1 view .LVU1751
 5977              	.LBB1168:
 5978              	.LBI1168:
  23:/Users/reza.kalfane/Workspaces/Daisy/DaisyExamples/libDaisy/src/daisy_seed.h **** 
  24:/Users/reza.kalfane/Workspaces/Daisy/DaisyExamples/libDaisy/src/daisy_seed.h ****     /** This function used to provide a pre-initialization configuraiton 
  25:/Users/reza.kalfane/Workspaces/Daisy/DaisyExamples/libDaisy/src/daisy_seed.h ****      *  it has since been deprecated, and does nothing.
  26:/Users/reza.kalfane/Workspaces/Daisy/DaisyExamples/libDaisy/src/daisy_seed.h ****      */
  27:/Users/reza.kalfane/Workspaces/Daisy/DaisyExamples/libDaisy/src/daisy_seed.h ****     void Configure();
  28:/Users/reza.kalfane/Workspaces/Daisy/DaisyExamples/libDaisy/src/daisy_seed.h **** 
  29:/Users/reza.kalfane/Workspaces/Daisy/DaisyExamples/libDaisy/src/daisy_seed.h ****     /** 
  30:/Users/reza.kalfane/Workspaces/Daisy/DaisyExamples/libDaisy/src/daisy_seed.h ****     Initializes the Daisy Seed and the following peripherals:
  31:/Users/reza.kalfane/Workspaces/Daisy/DaisyExamples/libDaisy/src/daisy_seed.h ****     SDRAM, QSPI, 24-bit 48kHz Audio via AK4556, Internal USB,
  32:/Users/reza.kalfane/Workspaces/Daisy/DaisyExamples/libDaisy/src/daisy_seed.h ****     as well as the built-in LED and Testpoint.
  33:/Users/reza.kalfane/Workspaces/Daisy/DaisyExamples/libDaisy/src/daisy_seed.h **** 
  34:/Users/reza.kalfane/Workspaces/Daisy/DaisyExamples/libDaisy/src/daisy_seed.h ****     ADCs, DACs, and other special peripherals (such as I2C, SPI, etc.)
  35:/Users/reza.kalfane/Workspaces/Daisy/DaisyExamples/libDaisy/src/daisy_seed.h ****     can be initialized using their specific initializers within libdaisy
  36:/Users/reza.kalfane/Workspaces/Daisy/DaisyExamples/libDaisy/src/daisy_seed.h ****     for a specific application.
  37:/Users/reza.kalfane/Workspaces/Daisy/DaisyExamples/libDaisy/src/daisy_seed.h ****     */
  38:/Users/reza.kalfane/Workspaces/Daisy/DaisyExamples/libDaisy/src/daisy_seed.h ****     void Init(bool boost = false);
  39:/Users/reza.kalfane/Workspaces/Daisy/DaisyExamples/libDaisy/src/daisy_seed.h **** 
  40:/Users/reza.kalfane/Workspaces/Daisy/DaisyExamples/libDaisy/src/daisy_seed.h ****     /** 
  41:/Users/reza.kalfane/Workspaces/Daisy/DaisyExamples/libDaisy/src/daisy_seed.h ****     Deinitializes all peripherals automatically handled by `Init`.
  42:/Users/reza.kalfane/Workspaces/Daisy/DaisyExamples/libDaisy/src/daisy_seed.h ****     */
  43:/Users/reza.kalfane/Workspaces/Daisy/DaisyExamples/libDaisy/src/daisy_seed.h ****     void DeInit();
  44:/Users/reza.kalfane/Workspaces/Daisy/DaisyExamples/libDaisy/src/daisy_seed.h **** 
  45:/Users/reza.kalfane/Workspaces/Daisy/DaisyExamples/libDaisy/src/daisy_seed.h ****     /** 
  46:/Users/reza.kalfane/Workspaces/Daisy/DaisyExamples/libDaisy/src/daisy_seed.h ****     Wait some ms before going on.
ARM GAS  /tmp/claude-502/ccb6uqMv.s 			page 158


  47:/Users/reza.kalfane/Workspaces/Daisy/DaisyExamples/libDaisy/src/daisy_seed.h ****     \param del Delay time in ms.
  48:/Users/reza.kalfane/Workspaces/Daisy/DaisyExamples/libDaisy/src/daisy_seed.h ****     */
  49:/Users/reza.kalfane/Workspaces/Daisy/DaisyExamples/libDaisy/src/daisy_seed.h ****     void DelayMs(size_t del);
  50:/Users/reza.kalfane/Workspaces/Daisy/DaisyExamples/libDaisy/src/daisy_seed.h **** 
  51:/Users/reza.kalfane/Workspaces/Daisy/DaisyExamples/libDaisy/src/daisy_seed.h ****     /** 
  52:/Users/reza.kalfane/Workspaces/Daisy/DaisyExamples/libDaisy/src/daisy_seed.h ****     Returns the gpio_pin corresponding to the index 0-31.
  53:/Users/reza.kalfane/Workspaces/Daisy/DaisyExamples/libDaisy/src/daisy_seed.h ****     For the given GPIO on the Daisy Seed (labeled 1-32 in docs).
  54:/Users/reza.kalfane/Workspaces/Daisy/DaisyExamples/libDaisy/src/daisy_seed.h ****     */
  55:/Users/reza.kalfane/Workspaces/Daisy/DaisyExamples/libDaisy/src/daisy_seed.h ****     static dsy_gpio_pin GetPin(uint8_t pin_idx);
  56:/Users/reza.kalfane/Workspaces/Daisy/DaisyExamples/libDaisy/src/daisy_seed.h **** 
  57:/Users/reza.kalfane/Workspaces/Daisy/DaisyExamples/libDaisy/src/daisy_seed.h ****     /** Begins the audio for the seeds builtin audio.
  58:/Users/reza.kalfane/Workspaces/Daisy/DaisyExamples/libDaisy/src/daisy_seed.h ****     the specified callback will get called whenever
  59:/Users/reza.kalfane/Workspaces/Daisy/DaisyExamples/libDaisy/src/daisy_seed.h ****     new data is ready to be prepared.
  60:/Users/reza.kalfane/Workspaces/Daisy/DaisyExamples/libDaisy/src/daisy_seed.h ****     */
  61:/Users/reza.kalfane/Workspaces/Daisy/DaisyExamples/libDaisy/src/daisy_seed.h ****     void StartAudio(AudioHandle::InterleavingAudioCallback cb);
  62:/Users/reza.kalfane/Workspaces/Daisy/DaisyExamples/libDaisy/src/daisy_seed.h **** 
  63:/Users/reza.kalfane/Workspaces/Daisy/DaisyExamples/libDaisy/src/daisy_seed.h ****     /** Begins the audio for the seeds builtin audio.
  64:/Users/reza.kalfane/Workspaces/Daisy/DaisyExamples/libDaisy/src/daisy_seed.h ****     the specified callback will get called whenever
  65:/Users/reza.kalfane/Workspaces/Daisy/DaisyExamples/libDaisy/src/daisy_seed.h ****     new data is ready to be prepared.
  66:/Users/reza.kalfane/Workspaces/Daisy/DaisyExamples/libDaisy/src/daisy_seed.h ****     This will use the newer non-interleaved callback.
  67:/Users/reza.kalfane/Workspaces/Daisy/DaisyExamples/libDaisy/src/daisy_seed.h ****     */
  68:/Users/reza.kalfane/Workspaces/Daisy/DaisyExamples/libDaisy/src/daisy_seed.h ****     void StartAudio(AudioHandle::AudioCallback cb);
  69:/Users/reza.kalfane/Workspaces/Daisy/DaisyExamples/libDaisy/src/daisy_seed.h **** 
  70:/Users/reza.kalfane/Workspaces/Daisy/DaisyExamples/libDaisy/src/daisy_seed.h ****     /** Changes to a new interleaved callback
  71:/Users/reza.kalfane/Workspaces/Daisy/DaisyExamples/libDaisy/src/daisy_seed.h ****      */
  72:/Users/reza.kalfane/Workspaces/Daisy/DaisyExamples/libDaisy/src/daisy_seed.h ****     void ChangeAudioCallback(AudioHandle::InterleavingAudioCallback cb);
  73:/Users/reza.kalfane/Workspaces/Daisy/DaisyExamples/libDaisy/src/daisy_seed.h **** 
  74:/Users/reza.kalfane/Workspaces/Daisy/DaisyExamples/libDaisy/src/daisy_seed.h ****     /** Changes to a new multichannel callback
  75:/Users/reza.kalfane/Workspaces/Daisy/DaisyExamples/libDaisy/src/daisy_seed.h ****      */
  76:/Users/reza.kalfane/Workspaces/Daisy/DaisyExamples/libDaisy/src/daisy_seed.h ****     void ChangeAudioCallback(AudioHandle::AudioCallback cb);
  77:/Users/reza.kalfane/Workspaces/Daisy/DaisyExamples/libDaisy/src/daisy_seed.h **** 
  78:/Users/reza.kalfane/Workspaces/Daisy/DaisyExamples/libDaisy/src/daisy_seed.h ****     /** Stops the audio if it is running. */
  79:/Users/reza.kalfane/Workspaces/Daisy/DaisyExamples/libDaisy/src/daisy_seed.h ****     void StopAudio();
  80:/Users/reza.kalfane/Workspaces/Daisy/DaisyExamples/libDaisy/src/daisy_seed.h **** 
  81:/Users/reza.kalfane/Workspaces/Daisy/DaisyExamples/libDaisy/src/daisy_seed.h ****     /** Updates the Audio Sample Rate, and reinitializes.
  82:/Users/reza.kalfane/Workspaces/Daisy/DaisyExamples/libDaisy/src/daisy_seed.h ****      ** Audio must be stopped for this to work.
  83:/Users/reza.kalfane/Workspaces/Daisy/DaisyExamples/libDaisy/src/daisy_seed.h ****      */
  84:/Users/reza.kalfane/Workspaces/Daisy/DaisyExamples/libDaisy/src/daisy_seed.h ****     void SetAudioSampleRate(SaiHandle::Config::SampleRate samplerate);
  85:/Users/reza.kalfane/Workspaces/Daisy/DaisyExamples/libDaisy/src/daisy_seed.h **** 
  86:/Users/reza.kalfane/Workspaces/Daisy/DaisyExamples/libDaisy/src/daisy_seed.h ****     /** Returns the audio sample rate in Hz as a floating point number.
  87:/Users/reza.kalfane/Workspaces/Daisy/DaisyExamples/libDaisy/src/daisy_seed.h ****      */
  88:/Users/reza.kalfane/Workspaces/Daisy/DaisyExamples/libDaisy/src/daisy_seed.h ****     float AudioSampleRate();
  89:/Users/reza.kalfane/Workspaces/Daisy/DaisyExamples/libDaisy/src/daisy_seed.h **** 
  90:/Users/reza.kalfane/Workspaces/Daisy/DaisyExamples/libDaisy/src/daisy_seed.h ****     /** Sets the number of samples processed per channel by the audio callback.
  91:/Users/reza.kalfane/Workspaces/Daisy/DaisyExamples/libDaisy/src/daisy_seed.h ****      */
  92:/Users/reza.kalfane/Workspaces/Daisy/DaisyExamples/libDaisy/src/daisy_seed.h ****     void SetAudioBlockSize(size_t blocksize);
  93:/Users/reza.kalfane/Workspaces/Daisy/DaisyExamples/libDaisy/src/daisy_seed.h **** 
  94:/Users/reza.kalfane/Workspaces/Daisy/DaisyExamples/libDaisy/src/daisy_seed.h ****     /** Returns the number of samples per channel in a block of audio. */
  95:/Users/reza.kalfane/Workspaces/Daisy/DaisyExamples/libDaisy/src/daisy_seed.h ****     size_t AudioBlockSize();
  96:/Users/reza.kalfane/Workspaces/Daisy/DaisyExamples/libDaisy/src/daisy_seed.h **** 
  97:/Users/reza.kalfane/Workspaces/Daisy/DaisyExamples/libDaisy/src/daisy_seed.h ****     /** Returns the rate in Hz that the Audio callback is called */
  98:/Users/reza.kalfane/Workspaces/Daisy/DaisyExamples/libDaisy/src/daisy_seed.h ****     float AudioCallbackRate() const;
  99:/Users/reza.kalfane/Workspaces/Daisy/DaisyExamples/libDaisy/src/daisy_seed.h **** 
 100:/Users/reza.kalfane/Workspaces/Daisy/DaisyExamples/libDaisy/src/daisy_seed.h ****     /** Returns the SAI Handle for the Daisy Seed 
 101:/Users/reza.kalfane/Workspaces/Daisy/DaisyExamples/libDaisy/src/daisy_seed.h ****      *  This can be useful when adding a secondary codec,
 102:/Users/reza.kalfane/Workspaces/Daisy/DaisyExamples/libDaisy/src/daisy_seed.h ****      *  the result of this function can be passed to the audio reinit 
 103:/Users/reza.kalfane/Workspaces/Daisy/DaisyExamples/libDaisy/src/daisy_seed.h ****      *  with an SAI2 configuration
ARM GAS  /tmp/claude-502/ccb6uqMv.s 			page 159


 104:/Users/reza.kalfane/Workspaces/Daisy/DaisyExamples/libDaisy/src/daisy_seed.h ****      */
 105:/Users/reza.kalfane/Workspaces/Daisy/DaisyExamples/libDaisy/src/daisy_seed.h ****     const SaiHandle& AudioSaiHandle() const;
 106:/Users/reza.kalfane/Workspaces/Daisy/DaisyExamples/libDaisy/src/daisy_seed.h **** 
 107:/Users/reza.kalfane/Workspaces/Daisy/DaisyExamples/libDaisy/src/daisy_seed.h ****     /** Sets the state of the built in LED
 108:/Users/reza.kalfane/Workspaces/Daisy/DaisyExamples/libDaisy/src/daisy_seed.h ****      */
 109:/Users/reza.kalfane/Workspaces/Daisy/DaisyExamples/libDaisy/src/daisy_seed.h ****     void SetLed(bool state);
 110:/Users/reza.kalfane/Workspaces/Daisy/DaisyExamples/libDaisy/src/daisy_seed.h **** 
 111:/Users/reza.kalfane/Workspaces/Daisy/DaisyExamples/libDaisy/src/daisy_seed.h ****     /** Sets the state of the test point near pin 10
 112:/Users/reza.kalfane/Workspaces/Daisy/DaisyExamples/libDaisy/src/daisy_seed.h ****      */
 113:/Users/reza.kalfane/Workspaces/Daisy/DaisyExamples/libDaisy/src/daisy_seed.h ****     void SetTestPoint(bool state);
 114:/Users/reza.kalfane/Workspaces/Daisy/DaisyExamples/libDaisy/src/daisy_seed.h **** 
 115:/Users/reza.kalfane/Workspaces/Daisy/DaisyExamples/libDaisy/src/daisy_seed.h ****     /** Print formatted debug log message
 116:/Users/reza.kalfane/Workspaces/Daisy/DaisyExamples/libDaisy/src/daisy_seed.h ****      */
 117:/Users/reza.kalfane/Workspaces/Daisy/DaisyExamples/libDaisy/src/daisy_seed.h ****     template <typename... VA>
 118:/Users/reza.kalfane/Workspaces/Daisy/DaisyExamples/libDaisy/src/daisy_seed.h ****     static void Print(const char* format, VA... va)
 119:/Users/reza.kalfane/Workspaces/Daisy/DaisyExamples/libDaisy/src/daisy_seed.h ****     {
 120:/Users/reza.kalfane/Workspaces/Daisy/DaisyExamples/libDaisy/src/daisy_seed.h ****         Log::Print(format, va...);
 121:/Users/reza.kalfane/Workspaces/Daisy/DaisyExamples/libDaisy/src/daisy_seed.h ****     }
 122:/Users/reza.kalfane/Workspaces/Daisy/DaisyExamples/libDaisy/src/daisy_seed.h **** 
 123:/Users/reza.kalfane/Workspaces/Daisy/DaisyExamples/libDaisy/src/daisy_seed.h ****     /** Print formatted debug log message with automatic line termination
 124:/Users/reza.kalfane/Workspaces/Daisy/DaisyExamples/libDaisy/src/daisy_seed.h ****     */
 125:/Users/reza.kalfane/Workspaces/Daisy/DaisyExamples/libDaisy/src/daisy_seed.h ****     template <typename... VA>
 126:/Users/reza.kalfane/Workspaces/Daisy/DaisyExamples/libDaisy/src/daisy_seed.h ****     static void PrintLine(const char* format, VA... va)
 127:/Users/reza.kalfane/Workspaces/Daisy/DaisyExamples/libDaisy/src/daisy_seed.h ****     {
 128:/Users/reza.kalfane/Workspaces/Daisy/DaisyExamples/libDaisy/src/daisy_seed.h ****         Log::PrintLine(format, va...);
 129:/Users/reza.kalfane/Workspaces/Daisy/DaisyExamples/libDaisy/src/daisy_seed.h ****     }
 130:/Users/reza.kalfane/Workspaces/Daisy/DaisyExamples/libDaisy/src/daisy_seed.h **** 
 131:/Users/reza.kalfane/Workspaces/Daisy/DaisyExamples/libDaisy/src/daisy_seed.h ****     /** Start the logging session. Optionally wait for terminal connection before proceeding.
 132:/Users/reza.kalfane/Workspaces/Daisy/DaisyExamples/libDaisy/src/daisy_seed.h ****     */
 133:/Users/reza.kalfane/Workspaces/Daisy/DaisyExamples/libDaisy/src/daisy_seed.h ****     static void StartLog(bool wait_for_pc = false)
 5979              		.loc 1 133 17 view .LVU1752
 5980              	.LBB1169:
 134:/Users/reza.kalfane/Workspaces/Daisy/DaisyExamples/libDaisy/src/daisy_seed.h ****     {
 135:/Users/reza.kalfane/Workspaces/Daisy/DaisyExamples/libDaisy/src/daisy_seed.h ****         Log::StartLog(wait_for_pc);
 5981              		.loc 1 135 9 view .LVU1753
 5982              		.loc 1 135 22 is_stmt 0 view .LVU1754
 5983 0156 0020     		movs	r0, #0
 5984 0158 FFF7FEFF 		bl	_ZN5daisy6LoggerILNS_17LoggerDestinationE1EE8StartLogEb
 5985              	.LVL487:
 5986              		.loc 1 135 22 view .LVU1755
 5987              	.LBE1169:
 5988              	.LBE1168:
 939:src/main.cpp  ****     hw.PrintLine("================");
 5989              		.loc 6 939 5 is_stmt 1 view .LVU1756
 5990              	.LBB1170:
 5991              	.LBI1170:
 126:/Users/reza.kalfane/Workspaces/Daisy/DaisyExamples/libDaisy/src/daisy_seed.h ****     {
 5992              		.loc 1 126 17 view .LVU1757
 5993              	.LBB1171:
 128:/Users/reza.kalfane/Workspaces/Daisy/DaisyExamples/libDaisy/src/daisy_seed.h ****     }
 5994              		.loc 1 128 23 is_stmt 0 view .LVU1758
 5995 015c 2F48     		ldr	r0, .L597+64
 5996 015e FFF7FEFF 		bl	_ZN5daisy6LoggerILNS_17LoggerDestinationE1EE9PrintLineEPKcz
 5997              	.LVL488:
 128:/Users/reza.kalfane/Workspaces/Daisy/DaisyExamples/libDaisy/src/daisy_seed.h ****     }
 5998              		.loc 1 128 23 view .LVU1759
 5999              	.LBE1171:
ARM GAS  /tmp/claude-502/ccb6uqMv.s 			page 160


 6000              	.LBE1170:
 940:src/main.cpp  ****     hw.PrintLine("Voice: %s  (%d-%dHz)",
 6001              		.loc 6 940 5 is_stmt 1 view .LVU1760
 6002              	.LBB1172:
 6003              	.LBI1172:
 126:/Users/reza.kalfane/Workspaces/Daisy/DaisyExamples/libDaisy/src/daisy_seed.h ****     {
 6004              		.loc 1 126 17 view .LVU1761
 6005              	.LBB1173:
 128:/Users/reza.kalfane/Workspaces/Daisy/DaisyExamples/libDaisy/src/daisy_seed.h ****     }
 6006              		.loc 1 128 23 is_stmt 0 view .LVU1762
 6007 0162 2F48     		ldr	r0, .L597+68
 6008 0164 FFF7FEFF 		bl	_ZN5daisy6LoggerILNS_17LoggerDestinationE1EE9PrintLineEPKcz
 6009              	.LVL489:
 128:/Users/reza.kalfane/Workspaces/Daisy/DaisyExamples/libDaisy/src/daisy_seed.h ****     }
 6010              		.loc 1 128 23 view .LVU1763
 6011              	.LBE1173:
 6012              	.LBE1172:
 941:src/main.cpp  ****                  VOICE.name, (int)VOICE.freq_low, (int)VOICE.freq_high);
 6013              		.loc 6 941 5 is_stmt 1 view .LVU1764
 6014              	.LBB1174:
 6015              	.LBI1174:
 126:/Users/reza.kalfane/Workspaces/Daisy/DaisyExamples/libDaisy/src/daisy_seed.h ****     {
 6016              		.loc 1 126 17 view .LVU1765
 6017              	.LBB1175:
 128:/Users/reza.kalfane/Workspaces/Daisy/DaisyExamples/libDaisy/src/daisy_seed.h ****     }
 6018              		.loc 1 128 23 is_stmt 0 view .LVU1766
 6019 0168 8C23     		movs	r3, #140
 6020 016a 2322     		movs	r2, #35
 6021 016c 2D49     		ldr	r1, .L597+72
 6022 016e 2E48     		ldr	r0, .L597+76
 6023 0170 FFF7FEFF 		bl	_ZN5daisy6LoggerILNS_17LoggerDestinationE1EE9PrintLineEPKcz
 6024              	.LVL490:
 128:/Users/reza.kalfane/Workspaces/Daisy/DaisyExamples/libDaisy/src/daisy_seed.h ****     }
 6025              		.loc 1 128 23 view .LVU1767
 6026              	.LBE1175:
 6027              	.LBE1174:
 943:src/main.cpp  ****     if(VOICE.osc2_detune)
 6028              		.loc 6 943 5 is_stmt 1 view .LVU1768
 6029              	.LBB1176:
 6030              	.LBI1176:
 126:/Users/reza.kalfane/Workspaces/Daisy/DaisyExamples/libDaisy/src/daisy_seed.h ****     {
 6031              		.loc 1 126 17 view .LVU1769
 6032              	.LBB1177:
 128:/Users/reza.kalfane/Workspaces/Daisy/DaisyExamples/libDaisy/src/daisy_seed.h ****     }
 6033              		.loc 1 128 23 is_stmt 0 view .LVU1770
 6034 0174 2D48     		ldr	r0, .L597+80
 6035 0176 FFF7FEFF 		bl	_ZN5daisy6LoggerILNS_17LoggerDestinationE1EE9PrintLineEPKcz
 6036              	.LVL491:
 128:/Users/reza.kalfane/Workspaces/Daisy/DaisyExamples/libDaisy/src/daisy_seed.h ****     }
 6037              		.loc 1 128 23 view .LVU1771
 6038              	.LBE1177:
 6039              	.LBE1176:
 944:src/main.cpp  ****         hw.PrintLine("F2 pos=detune F2 prs=wavefold+ringmod");
 6040              		.loc 6 944 5 is_stmt 1 view .LVU1772
 947:src/main.cpp  ****     hw.PrintLine("MPR121 OK ŌĆö baseline captured");
 6041              		.loc 6 947 9 view .LVU1773
 6042              	.LBB1178:
ARM GAS  /tmp/claude-502/ccb6uqMv.s 			page 161


 6043              	.LBI1178:
 126:/Users/reza.kalfane/Workspaces/Daisy/DaisyExamples/libDaisy/src/daisy_seed.h ****     {
 6044              		.loc 1 126 17 view .LVU1774
 6045              	.LBB1179:
 128:/Users/reza.kalfane/Workspaces/Daisy/DaisyExamples/libDaisy/src/daisy_seed.h ****     }
 6046              		.loc 1 128 23 is_stmt 0 view .LVU1775
 6047 017a 2D48     		ldr	r0, .L597+84
 6048 017c FFF7FEFF 		bl	_ZN5daisy6LoggerILNS_17LoggerDestinationE1EE9PrintLineEPKcz
 6049              	.LVL492:
 128:/Users/reza.kalfane/Workspaces/Daisy/DaisyExamples/libDaisy/src/daisy_seed.h ****     }
 6050              		.loc 1 128 23 view .LVU1776
 6051              	.LBE1179:
 6052              	.LBE1178:
 948:src/main.cpp  ****     hw.PrintLine("Ready.\n");
 6053              		.loc 6 948 5 is_stmt 1 view .LVU1777
 6054              	.LBB1180:
 6055              	.LBI1180:
 126:/Users/reza.kalfane/Workspaces/Daisy/DaisyExamples/libDaisy/src/daisy_seed.h ****     {
 6056              		.loc 1 126 17 view .LVU1778
 6057              	.LBB1181:
 128:/Users/reza.kalfane/Workspaces/Daisy/DaisyExamples/libDaisy/src/daisy_seed.h ****     }
 6058              		.loc 1 128 23 is_stmt 0 view .LVU1779
 6059 0180 2C48     		ldr	r0, .L597+88
 6060 0182 FFF7FEFF 		bl	_ZN5daisy6LoggerILNS_17LoggerDestinationE1EE9PrintLineEPKcz
 6061              	.LVL493:
 128:/Users/reza.kalfane/Workspaces/Daisy/DaisyExamples/libDaisy/src/daisy_seed.h ****     }
 6062              		.loc 1 128 23 view .LVU1780
 6063              	.LBE1181:
 6064              	.LBE1180:
 949:src/main.cpp  **** 
 6065              		.loc 6 949 5 is_stmt 1 view .LVU1781
 6066              	.LBB1182:
 6067              	.LBI1182:
 126:/Users/reza.kalfane/Workspaces/Daisy/DaisyExamples/libDaisy/src/daisy_seed.h ****     {
 6068              		.loc 1 126 17 view .LVU1782
 6069              	.LBB1183:
 128:/Users/reza.kalfane/Workspaces/Daisy/DaisyExamples/libDaisy/src/daisy_seed.h ****     }
 6070              		.loc 1 128 23 is_stmt 0 view .LVU1783
 6071 0186 2C48     		ldr	r0, .L597+92
 6072 0188 FFF7FEFF 		bl	_ZN5daisy6LoggerILNS_17LoggerDestinationE1EE9PrintLineEPKcz
 6073              	.LVL494:
 128:/Users/reza.kalfane/Workspaces/Daisy/DaisyExamples/libDaisy/src/daisy_seed.h ****     }
 6074              		.loc 1 128 23 view .LVU1784
 6075              	.LBE1183:
 6076              	.LBE1182:
 951:src/main.cpp  ****     int32_t  delta[N_CH];
 6077              		.loc 6 951 5 is_stmt 1 view .LVU1785
 952:src/main.cpp  ****     char     bar[32], pos_bar[52];
 6078              		.loc 6 952 5 view .LVU1786
 953:src/main.cpp  ****     Finger   raw[2];
 6079              		.loc 6 953 5 view .LVU1787
 954:src/main.cpp  **** 
 6080              		.loc 6 954 5 view .LVU1788
 956:src/main.cpp  ****     uint32_t last_touch_ms   = System::GetNow();
 6081              		.loc 6 956 5 view .LVU1789
 956:src/main.cpp  ****     uint32_t last_touch_ms   = System::GetNow();
 6082              		.loc 6 956 46 is_stmt 0 view .LVU1790
ARM GAS  /tmp/claude-502/ccb6uqMv.s 			page 162


 6083 018c FFF7FEFF 		bl	_ZN5daisy6System6GetNowEv
 6084              	.LVL495:
 6085 0190 0890     		str	r0, [sp, #32]
 6086              	.LVL496:
 957:src/main.cpp  ****     bool     f1_was_on       = false;
 6087              		.loc 6 957 5 is_stmt 1 view .LVU1791
 957:src/main.cpp  ****     bool     f1_was_on       = false;
 6088              		.loc 6 957 46 is_stmt 0 view .LVU1792
 6089 0192 FFF7FEFF 		bl	_ZN5daisy6System6GetNowEv
 6090              	.LVL497:
 958:src/main.cpp  ****     uint32_t f1_last_seen_ms = 0;
 6091              		.loc 6 958 14 view .LVU1793
 6092 0196 0023     		movs	r3, #0
 957:src/main.cpp  ****     bool     f1_was_on       = false;
 6093              		.loc 6 957 46 view .LVU1794
 6094 0198 0990     		str	r0, [sp, #36]
 6095              	.LVL498:
 958:src/main.cpp  ****     uint32_t f1_last_seen_ms = 0;
 6096              		.loc 6 958 5 is_stmt 1 view .LVU1795
 959:src/main.cpp  ****     static constexpr uint32_t F1_REQUANTIZE_MS = 200; // re-quantize only after this long off
 6097              		.loc 6 959 5 view .LVU1796
 960:src/main.cpp  ****     float    f1_midi_base    = 60.0f; // last quantized note
 6098              		.loc 6 960 5 view .LVU1797
 961:src/main.cpp  ****     bool     f1_sliding      = false; // true after first touch settles
 6099              		.loc 6 961 5 view .LVU1798
 962:src/main.cpp  **** 
 6100              		.loc 6 962 5 view .LVU1799
 965:src/main.cpp  ****     int frame_count = 0;
 6101              		.loc 6 965 5 view .LVU1800
 966:src/main.cpp  **** 
 6102              		.loc 6 966 5 view .LVU1801
 6103              		.loc 6 970 5 view .LVU1802
 958:src/main.cpp  ****     uint32_t f1_last_seen_ms = 0;
 6104              		.loc 6 958 14 is_stmt 0 view .LVU1803
 6105 019a 0593     		str	r3, [sp, #20]
 6106              	.LVL499:
 6107              	.L451:
 971:src/main.cpp  **** 
 972:src/main.cpp  ****     while(true)
 6108              		.loc 6 972 5 is_stmt 1 view .LVU1804
 6109              	.LBB1184:
 973:src/main.cpp  ****     {
 974:src/main.cpp  ****         // ŌöĆŌöĆ FSR ŌåÆ master volume (no pressure = 100%, press attenuates) ŌöĆŌöĆŌöĆŌöĆŌöĆŌöĆŌö
 975:src/main.cpp  ****         uint16_t fsr_raw = hw.adc.Get(0);
 6110              		.loc 6 975 9 view .LVU1805
 6111              		.loc 6 975 38 is_stmt 0 view .LVU1806
 6112 019c 0021     		movs	r1, #0
 6113 019e 1748     		ldr	r0, .L597+32
 6114 01a0 FFF7FEFF 		bl	_ZNK5daisy9AdcHandle3GetEh
 6115              	.LVL500:
 976:src/main.cpp  ****         float    vol;
 6116              		.loc 6 976 9 is_stmt 1 view .LVU1807
 977:src/main.cpp  ****         if(fsr_raw <= FSR_MIN)      vol = 0.0f;
 6117              		.loc 6 977 9 view .LVU1808
 6118 01a4 B0F5FA5F 		cmp	r0, #8000
 6119 01a8 40F27882 		bls	.L471
 978:src/main.cpp  ****         else if(fsr_raw >= fsr_max) vol = 1.0f;
ARM GAS  /tmp/claude-502/ccb6uqMv.s 			page 163


 6120              		.loc 6 978 14 view .LVU1809
 6121 01ac 0A9B     		ldr	r3, [sp, #40]
 6122 01ae 9842     		cmp	r0, r3
 6123 01b0 80F02B85 		bcs	.L472
 979:src/main.cpp  ****         else                        vol = (float)(fsr_raw - FSR_MIN) * fsr_range_inv;
 6124              		.loc 6 979 37 view .LVU1810
 6125              		.loc 6 979 59 is_stmt 0 view .LVU1811
 6126 01b4 A0F5FA50 		sub	r0, r0, #8000
 6127              	.LVL501:
 6128              		.loc 6 979 43 view .LVU1812
 6129 01b8 07EE900A 		vmov	s15, r0	@ int
 6130 01bc F8EEE77A 		vcvt.f32.s32	s15, s15
 6131              		.loc 6 979 41 view .LVU1813
 6132 01c0 67EEAA7A 		vmul.f32	s15, s15, s21
 6133              	.LVL502:
 6134              	.L342:
 980:src/main.cpp  ****         g_master_vol = vol;
 6135              		.loc 6 980 9 is_stmt 1 view .LVU1814
 6136              		.loc 6 980 22 is_stmt 0 view .LVU1815
 6137 01c4 1D4B     		ldr	r3, .L597+96
 6138 01c6 3BAF     		add	r7, sp, #236
 981:src/main.cpp  **** 
 982:src/main.cpp  ****         read_electrodes(data);
 6139              		.loc 6 982 24 view .LVU1816
 6140 01c8 4046     		mov	r0, r8
 983:src/main.cpp  **** 
 984:src/main.cpp  ****         int32_t max_delta=1;
 6141              		.loc 6 984 17 view .LVU1817
 6142 01ca 0126     		movs	r6, #1
 980:src/main.cpp  **** 
 6143              		.loc 6 980 22 view .LVU1818
 6144 01cc C3ED007A 		vstr.32	s15, [r3]
 982:src/main.cpp  **** 
 6145              		.loc 6 982 9 is_stmt 1 view .LVU1819
 982:src/main.cpp  **** 
 6146              		.loc 6 982 24 is_stmt 0 view .LVU1820
 6147 01d0 FFF7FEFF 		bl	_Z15read_electrodesPt
 6148              	.LVL503:
 6149              		.loc 6 984 9 is_stmt 1 view .LVU1821
 985:src/main.cpp  ****         for(int i=0;i<N_CH;i++){
 6150              		.loc 6 985 9 view .LVU1822
 6151              	.LBB1185:
 6152              		.loc 6 985 22 view .LVU1823
 6153 01d4 4046     		mov	r0, r8
 6154              	.LBE1185:
 982:src/main.cpp  **** 
 6155              		.loc 6 982 24 is_stmt 0 view .LVU1824
 6156 01d6 3946     		mov	r1, r7
 6157 01d8 079A     		ldr	r2, [sp, #28]
 6158 01da 3DE0     		b	.L345
 6159              	.L598:
 6160              		.align	2
 6161              	.L597:
 6162 01dc 00000000 		.word	.LANCHOR10
 6163 01e0 00000000 		.word	.LANCHOR35
 6164 01e4 00000000 		.word	.LANCHOR36
 6165 01e8 00000000 		.word	.LANCHOR37
ARM GAS  /tmp/claude-502/ccb6uqMv.s 			page 164


 6166 01ec 00000000 		.word	.LANCHOR38
 6167 01f0 20000000 		.word	.LANCHOR10+32
 6168 01f4 00000000 		.word	.LANCHOR42
 6169 01f8 00000000 		.word	.LANCHOR34
 6170 01fc 18000000 		.word	.LANCHOR10+24
 6171 0200 00008C42 		.word	1116471296
 6172 0204 00000000 		.word	.LANCHOR1
 6173 0208 00000000 		.word	.LANCHOR8
 6174 020c 00000000 		.word	.LANCHOR2
 6175 0210 0000C842 		.word	1120403456
 6176 0214 00000000 		.word	_Z13AudioCallbackPKPKfPPfj
 6177 0218 CDCCCC3E 		.word	1053609165
 6178 021c 00000000 		.word	.LC0
 6179 0220 14000000 		.word	.LC1
 6180 0224 28000000 		.word	.LC2
 6181 0228 34000000 		.word	.LC3
 6182 022c 4C000000 		.word	.LC4
 6183 0230 70000000 		.word	.LC5
 6184 0234 98000000 		.word	.LC6
 6185 0238 B8000000 		.word	.LC7
 6186 023c 00000000 		.word	.LANCHOR9
 6187 0240 00000000 		.word	.LANCHOR40
 6188 0244 00000000 		.word	0
 6189              	.LVL504:
 6190              	.L577:
 982:src/main.cpp  **** 
 6191              		.loc 6 982 24 view .LVU1825
 6192 0248 9E42     		cmp	r6, r3
 6193              	.LBB1186:
 986:src/main.cpp  ****             delta[i]=(int32_t)baseline[i]-(int32_t)data[i];
 6194              		.loc 6 986 21 view .LVU1826
 6195 024a 0B60     		str	r3, [r1]
 987:src/main.cpp  ****             if(delta[i]<0)delta[i]=0;
 988:src/main.cpp  ****             if(delta[i]>max_delta)max_delta=delta[i];
 6196              		.loc 6 988 13 is_stmt 1 view .LVU1827
 985:src/main.cpp  ****             delta[i]=(int32_t)baseline[i]-(int32_t)data[i];
 6197              		.loc 6 985 22 is_stmt 0 view .LVU1828
 6198 024c 01F10401 		add	r1, r1, #4
 6199 0250 B8BF     		it	lt
 6200 0252 1E46     		movlt	r6, r3
 6201              	.LVL505:
 985:src/main.cpp  ****             delta[i]=(int32_t)baseline[i]-(int32_t)data[i];
 6202              		.loc 6 985 9 is_stmt 1 view .LVU1829
 985:src/main.cpp  ****             delta[i]=(int32_t)baseline[i]-(int32_t)data[i];
 6203              		.loc 6 985 22 view .LVU1830
 6204 0254 9045     		cmp	r8, r2
 6205 0256 0ED0     		beq	.L576
 6206              	.LVL506:
 6207              	.L345:
 986:src/main.cpp  ****             delta[i]=(int32_t)baseline[i]-(int32_t)data[i];
 6208              		.loc 6 986 13 view .LVU1831
 987:src/main.cpp  ****             if(delta[i]<0)delta[i]=0;
 6209              		.loc 6 987 13 view .LVU1832
 987:src/main.cpp  ****             if(delta[i]<0)delta[i]=0;
 6210              		.loc 6 987 27 view .LVU1833
 986:src/main.cpp  ****             delta[i]=(int32_t)baseline[i]-(int32_t)data[i];
 6211              		.loc 6 986 41 is_stmt 0 view .LVU1834
ARM GAS  /tmp/claude-502/ccb6uqMv.s 			page 165


 6212 0258 32F8023B 		ldrh	r3, [r2], #2
 987:src/main.cpp  ****             if(delta[i]<0)delta[i]=0;
 6213              		.loc 6 987 35 view .LVU1835
 6214 025c 0025     		movs	r5, #0
 986:src/main.cpp  ****             delta[i]=(int32_t)baseline[i]-(int32_t)data[i];
 6215              		.loc 6 986 58 view .LVU1836
 6216 025e 30F8024B 		ldrh	r4, [r0], #2
 987:src/main.cpp  ****             if(delta[i]<0)delta[i]=0;
 6217              		.loc 6 987 13 view .LVU1837
 6218 0262 1B1B     		subs	r3, r3, r4
 6219 0264 F0D5     		bpl	.L577
 6220 0266 2B46     		mov	r3, r5
 987:src/main.cpp  ****             if(delta[i]<0)delta[i]=0;
 6221              		.loc 6 987 35 discriminator 1 view .LVU1838
 6222 0268 0D60     		str	r5, [r1]
 6223              		.loc 6 988 13 is_stmt 1 discriminator 1 view .LVU1839
 985:src/main.cpp  ****             delta[i]=(int32_t)baseline[i]-(int32_t)data[i];
 6224              		.loc 6 985 22 is_stmt 0 discriminator 1 view .LVU1840
 6225 026a 0431     		adds	r1, r1, #4
 6226 026c 9E42     		cmp	r6, r3
 6227 026e B8BF     		it	lt
 6228 0270 1E46     		movlt	r6, r3
 6229              	.LVL507:
 985:src/main.cpp  ****             delta[i]=(int32_t)baseline[i]-(int32_t)data[i];
 6230              		.loc 6 985 9 is_stmt 1 discriminator 1 view .LVU1841
 985:src/main.cpp  ****             delta[i]=(int32_t)baseline[i]-(int32_t)data[i];
 6231              		.loc 6 985 22 discriminator 1 view .LVU1842
 6232 0272 9045     		cmp	r8, r2
 6233 0274 F0D1     		bne	.L345
 6234              	.L576:
 985:src/main.cpp  ****             delta[i]=(int32_t)baseline[i]-(int32_t)data[i];
 6235              		.loc 6 985 22 is_stmt 0 discriminator 1 view .LVU1843
 6236              	.LBE1186:
 989:src/main.cpp  ****         }
 990:src/main.cpp  **** 
 991:src/main.cpp  ****         int n_raw=detect_raw(delta,raw);
 6237              		.loc 6 991 9 is_stmt 1 view .LVU1844
 6238              		.loc 6 991 29 is_stmt 0 view .LVU1845
 6239 0276 31A9     		add	r1, sp, #196
 6240 0278 3BA8     		add	r0, sp, #236
 6241 027a FFF7FEFF 		bl	_Z10detect_rawPlP6Finger
 6242              	.LVL508:
 992:src/main.cpp  ****         bool touching=(n_raw>0);
 6243              		.loc 6 992 9 is_stmt 1 view .LVU1846
 993:src/main.cpp  **** 
 994:src/main.cpp  ****         // ŌöĆŌöĆ Auto-rebaseline ŌöĆŌöĆŌöĆŌöĆŌöĆŌöĆŌöĆŌöĆŌöĆŌöĆŌöĆŌöĆŌöĆŌöĆŌöĆŌöĆŌöĆŌöĆŌöĆŌöĆŌöĆŌö
 995:src/main.cpp  ****         if(touching){
 6244              		.loc 6 995 9 view .LVU1847
 6245 027e 051E     		subs	r5, r0, #0
 6246 0280 40F34882 		ble	.L346
 996:src/main.cpp  ****             idle_since=System::GetNow();
 6247              		.loc 6 996 13 view .LVU1848
 6248              		.loc 6 996 38 is_stmt 0 view .LVU1849
 6249 0284 FFF7FEFF 		bl	_ZN5daisy6System6GetNowEv
 6250              	.LVL509:
 6251              		.loc 6 996 38 view .LVU1850
 6252 0288 0890     		str	r0, [sp, #32]
ARM GAS  /tmp/claude-502/ccb6uqMv.s 			page 166


 6253              	.LVL510:
 997:src/main.cpp  ****         } else {
 998:src/main.cpp  ****             if(System::GetNow()-idle_since>=REBASELINE_IDLE_MS){
 999:src/main.cpp  ****                 tracked[0].alive=tracked[1].alive=false;
1000:src/main.cpp  ****                 capture_baseline(baseline);
1001:src/main.cpp  ****                 hw.PrintLine("[rebaseline]");
1002:src/main.cpp  ****                 idle_since=System::GetNow();
1003:src/main.cpp  ****             }
1004:src/main.cpp  ****         }
1005:src/main.cpp  **** 
1006:src/main.cpp  ****         // ŌöĆŌöĆ 5 s idle ŌåÆ chase + FSR recalibration, loops until touch ŌöĆŌöĆŌöĆŌöĆŌöĆŌöĆŌöĆŌö
1007:src/main.cpp  ****         if(touching){
 6254              		.loc 6 1007 9 is_stmt 1 view .LVU1851
1008:src/main.cpp  ****             last_touch_ms = System::GetNow();
 6255              		.loc 6 1008 13 view .LVU1852
 6256              		.loc 6 1008 43 is_stmt 0 view .LVU1853
 6257 028a FFF7FEFF 		bl	_ZN5daisy6System6GetNowEv
 6258              	.LVL511:
 6259              		.loc 6 1008 43 view .LVU1854
 6260 028e 0990     		str	r0, [sp, #36]
 6261              	.LVL512:
 6262              	.L347:
1009:src/main.cpp  ****         } else if(System::GetNow() - last_touch_ms >= 5000){
1010:src/main.cpp  ****             idle_chase_and_calibrate();
1011:src/main.cpp  ****             last_touch_ms = System::GetNow();
1012:src/main.cpp  ****             idle_since    = System::GetNow();
1013:src/main.cpp  ****             hw.PrintLine("[fsr recal] fsr_max=%d", (int)fsr_max);
1014:src/main.cpp  ****         }
1015:src/main.cpp  **** 
1016:src/main.cpp  ****         update_tracked(raw,n_raw);
 6263              		.loc 6 1016 9 is_stmt 1 view .LVU1855
 6264              		.loc 6 1016 23 is_stmt 0 view .LVU1856
 6265 0290 2946     		mov	r1, r5
 6266 0292 31A8     		add	r0, sp, #196
 6267 0294 FFF7FEFF 		bl	_Z14update_trackedP6Fingeri
 6268              	.LVL513:
1017:src/main.cpp  **** 
1018:src/main.cpp  ****         // ŌöĆŌöĆ Finger 1 ŌåÆ Pitch + Filter cutoff + Vibrato ŌöĆŌöĆŌöĆŌöĆŌöĆŌöĆŌöĆŌöĆŌöĆŌöĆŌöĆŌöĆ
1019:src/main.cpp  ****         bool f1_on = tracked[0].alive;
 6269              		.loc 6 1019 9 is_stmt 1 view .LVU1857
 6270              		.loc 6 1019 14 is_stmt 0 view .LVU1858
 6271 0298 99F80030 		ldrb	r3, [r9]	@ zero_extendqisi2
 6272 029c 0693     		str	r3, [sp, #24]
 6273              	.LVL514:
1020:src/main.cpp  ****         if(f1_on) f1_last_seen_ms = System::GetNow();
 6274              		.loc 6 1020 9 is_stmt 1 view .LVU1859
 6275 029e 002B     		cmp	r3, #0
 6276 02a0 40F05683 		bne	.L578
1021:src/main.cpp  ****         bool f1_fresh = !f1_was_on && (System::GetNow() - f1_last_seen_ms >= F1_REQUANTIZE_MS);
 6277              		.loc 6 1021 9 view .LVU1860
 6278              		.loc 6 1021 36 is_stmt 0 view .LVU1861
 6279 02a4 059B     		ldr	r3, [sp, #20]
 6280              	.LVL515:
 6281              		.loc 6 1021 36 view .LVU1862
 6282 02a6 002B     		cmp	r3, #0
 6283 02a8 00F05486 		beq	.L579
 6284              	.L459:
ARM GAS  /tmp/claude-502/ccb6uqMv.s 			page 167


 6285              	.LBB1187:
1022:src/main.cpp  **** 
1023:src/main.cpp  ****         if(f1_on)
1024:src/main.cpp  ****         {
1025:src/main.cpp  ****             float pos01 = clampf((float)tracked[0].pos / 1000.0f, 0.0f, 1.0f);
1026:src/main.cpp  ****             float prs01 = clampf((float)tracked[0].pressure / 100.0f, 0.0f, 1.0f); // hard clamp
1027:src/main.cpp  **** 
1028:src/main.cpp  ****             // ŌöĆŌöĆ Direct exponential frequency mapping across the voice range ŌöĆŌöĆ
1029:src/main.cpp  ****             // freq = freq_low * (freq_high/freq_low)^pos01
1030:src/main.cpp  ****             //      = freq_low * e^(pos01 * log_freq_ratio)
1031:src/main.cpp  ****             float earg = pos01 * VOICE.log_freq_ratio;
1032:src/main.cpp  ****             float ex   = 1.0f + earg*(1.0f + earg*(0.5f + earg*0.1667f));
1033:src/main.cpp  ****             float freq_continuous = clampf(VOICE.freq_low * ex, VOICE.freq_low, VOICE.freq_high);
1034:src/main.cpp  **** 
1035:src/main.cpp  ****             // Convert to MIDI for quantizer: midi = 69 + 12*log2(freq/440)
1036:src/main.cpp  ****             // log2(x) = ln(x)/ln(2); ln approx via y=(x-1)/(x+1) series
1037:src/main.cpp  ****             float freq_ratio = freq_continuous / 440.0f;
1038:src/main.cpp  ****             float y = (freq_ratio - 1.0f) / (freq_ratio + 1.0f);
1039:src/main.cpp  ****             float y2 = y*y;
1040:src/main.cpp  ****             float ln_ratio = 2.0f*y*(1.0f + y2*(0.3333f + y2*0.2f));
1041:src/main.cpp  ****             float midi_raw = 69.0f + 17.3123f * ln_ratio; // 17.3123 = 12/ln(2)
1042:src/main.cpp  **** 
1043:src/main.cpp  ****             float freq; // final frequency to use
1044:src/main.cpp  **** 
1045:src/main.cpp  ****             if(QUANTIZE_ENABLED && f1_fresh)
1046:src/main.cpp  ****             {
1047:src/main.cpp  ****                 // Touch-down: snap to nearest chromatic note
1048:src/main.cpp  ****                 f1_midi_base = quantize_midi(midi_raw);
1049:src/main.cpp  ****                 // Convert quantized MIDI back to Hz
1050:src/main.cpp  ****                 float qe = (f1_midi_base - 69.0f) * 0.05776f;
1051:src/main.cpp  ****                 freq = clampf(440.0f*(1.0f+qe*(1.0f+qe*(0.5f+qe*0.1667f))), VOICE.freq_low, VOICE.f
1052:src/main.cpp  ****                 f1_sliding = false;
1053:src/main.cpp  ****             }
1054:src/main.cpp  ****             else
1055:src/main.cpp  ****             {
1056:src/main.cpp  ****                 // Sliding or quantize disabled: follow continuous frequency directly
1057:src/main.cpp  ****                 f1_midi_base = f1_midi_base*0.88f + midi_raw*0.12f;
1058:src/main.cpp  ****                 freq = freq_continuous;
1059:src/main.cpp  ****                 f1_sliding = true;
1060:src/main.cpp  ****             }
1061:src/main.cpp  ****             freq = clampf(freq, VOICE.freq_low, VOICE.freq_high);
1062:src/main.cpp  **** 
1063:src/main.cpp  ****             // Cutoff: base tracks 2├Ś pitch, pressure opens it up
1064:src/main.cpp  ****             // Light press = 1├Ś pitch (dark, Moog-like tracking)
1065:src/main.cpp  ****             // Hard press = up to 12000 Hz (wide open)
1066:src/main.cpp  ****             // ŌöĆŌöĆ Moog-style exponential cutoff ŌöĆŌöĆŌöĆŌöĆŌöĆŌöĆŌöĆŌöĆŌöĆŌöĆŌöĆŌöĆŌöĆŌöĆŌöĆŌö
1067:src/main.cpp  ****             // At zero pressure: cutoff = 0.5x pitch (below fundamental, very dark)
1068:src/main.cpp  ****             // At full pressure: cutoff = 0.5x * 2^(6*prs) ŌĆö exponential opening
1069:src/main.cpp  ****             // 6 octaves of sweep = factor of 64x, so fully open = 32x pitch
1070:src/main.cpp  ****             // This gives the classic Moog "closed ŌåÆ wah ŌåÆ bright" feel.
1071:src/main.cpp  ****             // Power-3 on pressure so the bottom half stays dark and controlled.
1072:src/main.cpp  ****             // ŌöĆŌöĆ Smootherstep pressure curves (6xŌüĄ - 15xŌü┤ + 10x┬│) ŌöĆŌöĆŌöĆŌöĆŌöĆŌöĆŌöĆŌö
1073:src/main.cpp  ****             // Starts slow, steep in the middle, eases gently at the top.
1074:src/main.cpp  ****             // Much more playable than power curves ŌĆö feels like a real knob.
1075:src/main.cpp  ****             auto smoothstep = [](float x) -> float {
1076:src/main.cpp  ****                 x = x<0?0:x>1?1:x;
1077:src/main.cpp  ****                 return x*x*(3.0f - 2.0f*x);
ARM GAS  /tmp/claude-502/ccb6uqMv.s 			page 168


1078:src/main.cpp  ****             };
1079:src/main.cpp  ****             auto smootherstep = [](float x) -> float {
1080:src/main.cpp  ****                 x = x<0?0:x>1?1:x;
1081:src/main.cpp  ****                 return x*x*x*(x*(x*6.0f - 15.0f) + 10.0f);
1082:src/main.cpp  ****             };
1083:src/main.cpp  **** 
1084:src/main.cpp  ****             // Cutoff: smootherstep ŌĆö very dark at low, dramatic in mid, eases at top.
1085:src/main.cpp  ****             // Base cutoff and sweep depth are voice-defined.
1086:src/main.cpp  ****             float prs_cut  = smootherstep(prs01);
1087:src/main.cpp  ****             float cutoff_oct = VOICE.cutoff_oct_max * prs_cut;
1088:src/main.cpp  ****             float oct_arg  = cutoff_oct * 0.6931f;
1089:src/main.cpp  ****             float oct_mult = 1.0f + oct_arg*(1.0f + oct_arg*(0.5f + oct_arg*(0.1667f + oct_arg*0.04
1090:src/main.cpp  ****             // Keytracking: how much the cutoff base follows pitch. keytrack=1 is
1091:src/main.cpp  ****             // full tracking (cutoff ŌłØ freq); <1 holds the cutoff lower as pitch
1092:src/main.cpp  ****             // rises, for a more consistent tone across the range. (constexpr ŌåÆ
1093:src/main.cpp  ****             // the common keytrack=1 case folds to no powf.)
1094:src/main.cpp  ****             float track_freq = (VOICE.keytrack >= 0.999f)
1095:src/main.cpp  ****                 ? freq
1096:src/main.cpp  ****                 : VOICE.freq_low * powf(freq / VOICE.freq_low, VOICE.keytrack);
1097:src/main.cpp  ****             float cutoff   = clampf(track_freq * VOICE.cutoff_mult * oct_mult, 20.0f, 18000.0f);
1098:src/main.cpp  **** 
1099:src/main.cpp  ****             // Vibrato: smoothstep, only activates above 60% pressure
1100:src/main.cpp  ****             float vib_in = clampf((prs01 - 0.6f) / 0.4f, 0.0f, 1.0f);
1101:src/main.cpp  ****             float vib    = smoothstep(vib_in) * 0.8f;
1102:src/main.cpp  **** 
1103:src/main.cpp  ****             // Drive: smoothstep ŌĆö clean at low, progressively warmer (voice-defined max)
1104:src/main.cpp  ****             float drive = 1.0f + smoothstep(prs01) * VOICE.drive_max;
1105:src/main.cpp  **** 
1106:src/main.cpp  ****             g_target_freq    = freq;
1107:src/main.cpp  ****             g_target_cutoff  = cutoff;
1108:src/main.cpp  ****             g_vibrato_depth  = vib;
1109:src/main.cpp  ****             g_target_drive   = drive;
1110:src/main.cpp  ****             g_finger_on      = true;
1111:src/main.cpp  ****             g_amp_target     = 0.72f;
1112:src/main.cpp  **** 
1113:src/main.cpp  ****         }
1114:src/main.cpp  ****         else
1115:src/main.cpp  ****         {
1116:src/main.cpp  ****             // Finger lifted: gate off, reset slide state
1117:src/main.cpp  ****             f1_sliding = false;
 6286              		.loc 6 1117 13 is_stmt 1 view .LVU1863
 6287              	.LVL516:
1118:src/main.cpp  ****             g_finger_on  = false;
 6288              		.loc 6 1118 13 view .LVU1864
1119:src/main.cpp  ****             g_amp_target = 0.0f;
 6289              		.loc 6 1119 26 is_stmt 0 view .LVU1865
 6290 02ac 1FED1B6A 		vldr.32	s12, .L597+104
1118:src/main.cpp  ****             g_finger_on  = false;
 6291              		.loc 6 1118 26 view .LVU1866
 6292 02b0 0023     		movs	r3, #0
 6293 02b2 5A4A     		ldr	r2, .L599
 6294              		.loc 6 1119 26 view .LVU1867
 6295 02b4 F0EE467A 		vmov.f32	s15, s12
 6296              	.LBE1187:
 6297              	.LBB1281:
 6298              	.LBB1282:
1120:src/main.cpp  ****             // Do NOT reset cutoff here ŌĆö let it close with the amplitude
ARM GAS  /tmp/claude-502/ccb6uqMv.s 			page 169


1121:src/main.cpp  ****             // in the audio callback to avoid discontinuity clicks
1122:src/main.cpp  ****         }
1123:src/main.cpp  **** 
1124:src/main.cpp  ****         // ŌöĆŌöĆ LED targets + slew ŌöĆŌöĆŌöĆŌöĆŌöĆŌöĆŌöĆŌöĆŌöĆŌöĆŌöĆŌöĆŌöĆŌöĆŌöĆŌöĆŌöĆŌöĆŌöĆŌöĆŌö
1125:src/main.cpp  ****         // Three-LED position indicator. Linear "tents" hand off cleanly:
1126:src/main.cpp  ****         //   LED1 (DAC1, middle)       ŌåÆ 1 - 2*|p - 0.5|
1127:src/main.cpp  ****         //   LED2 (DAC2, pos 0 end)    ŌåÆ max(0, 1 - 2*p)
1128:src/main.cpp  ****         //   LED3 (PWM A0, pos 1 end)  ŌåÆ max(0, 2*p - 1)
1129:src/main.cpp  ****         // Fourth-root curve (gamma=0.25) keeps each LED above its forward-voltage
1130:src/main.cpp  ****         // floor at the handoff points (50% raw ŌåÆ ~84% drive). Pressure adds a
1131:src/main.cpp  ****         // subtle ~75%ŌåÆ100% intensity scale.
1132:src/main.cpp  ****         float led1_target = 0.0f, led2_target = 0.0f, led3_target = 0.0f;
1133:src/main.cpp  ****         if(f1_on) {
1134:src/main.cpp  ****             float p01      = clampf((float)tracked[0].pos / 1000.0f, 0.0f, 1.0f);
1135:src/main.cpp  ****             float pr01     = clampf((float)tracked[0].pressure / 100.0f, 0.0f, 1.0f);
1136:src/main.cpp  ****             float prs_mult = 0.75f + 0.25f * pr01;
1137:src/main.cpp  ****             float l1_raw   = 1.0f - 2.0f * p01;                 if(l1_raw < 0) l1_raw = 0;
1138:src/main.cpp  ****             float l3_raw   = 2.0f * p01 - 1.0f;                 if(l3_raw < 0) l3_raw = 0;
1139:src/main.cpp  ****             float l2_raw   = 1.0f - 2.0f * fabsf(p01 - 0.5f);   if(l2_raw < 0) l2_raw = 0;
1140:src/main.cpp  ****             led1_target    = sqrtf(sqrtf(l2_raw)) * prs_mult;  // middle tent
1141:src/main.cpp  ****             led2_target    = sqrtf(sqrtf(l1_raw)) * prs_mult;  // pos 0 ramp
1142:src/main.cpp  ****             led3_target    = sqrtf(sqrtf(l3_raw)) * prs_mult * LED3_INTENSITY;
1143:src/main.cpp  ****         }
1144:src/main.cpp  ****         // Snap on touch onset so the LEDs respond instantly to the initial touch;
1145:src/main.cpp  ****         // smooth during sustained touch and on lift-off.
1146:src/main.cpp  ****         if(f1_on && !f1_was_on) {
1147:src/main.cpp  ****             s_led1 = led1_target;
1148:src/main.cpp  ****             s_led2 = led2_target;
1149:src/main.cpp  ****             s_led3 = led3_target;
1150:src/main.cpp  ****         } else {
1151:src/main.cpp  ****             float smooth3 = f1_on ? LED_SMOOTH : LED3_RELEASE_SMOOTH;
 6299              		.loc 6 1151 35 view .LVU1868
 6300 02b8 DFED595A 		vldr.32	s11, .L599+4
 6301              	.LBE1282:
 6302              	.LBE1281:
 6303              	.LBB1285:
1119:src/main.cpp  ****             g_amp_target = 0.0f;
 6304              		.loc 6 1119 26 view .LVU1869
 6305 02bc F0EE466A 		vmov.f32	s13, s12
1118:src/main.cpp  ****             g_amp_target = 0.0f;
 6306              		.loc 6 1118 26 view .LVU1870
 6307 02c0 1370     		strb	r3, [r2]
1119:src/main.cpp  ****             g_amp_target = 0.0f;
 6308              		.loc 6 1119 13 is_stmt 1 view .LVU1871
1119:src/main.cpp  ****             g_amp_target = 0.0f;
 6309              		.loc 6 1119 26 is_stmt 0 view .LVU1872
 6310 02c2 B0EE467A 		vmov.f32	s14, s12
 6311 02c6 574B     		ldr	r3, .L599+8
 6312 02c8 83ED006A 		vstr.32	s12, [r3]
 6313              	.LBE1285:
1132:src/main.cpp  ****         if(f1_on) {
 6314              		.loc 6 1132 9 is_stmt 1 view .LVU1873
 6315              	.LVL517:
1133:src/main.cpp  ****             float p01      = clampf((float)tracked[0].pos / 1000.0f, 0.0f, 1.0f);
 6316              		.loc 6 1133 9 view .LVU1874
1146:src/main.cpp  ****             s_led1 = led1_target;
 6317              		.loc 6 1146 9 view .LVU1875
ARM GAS  /tmp/claude-502/ccb6uqMv.s 			page 170


 6318              	.L388:
 6319              	.LBB1286:
 6320              	.LBB1283:
1152:src/main.cpp  ****             s_led1 = s_led1 * LED_SMOOTH + led1_target * (1.0f - LED_SMOOTH);
 6321              		.loc 6 1152 13 discriminator 4 view .LVU1876
 6322              		.loc 6 1152 20 is_stmt 0 discriminator 4 view .LVU1877
 6323 02cc 9FED566A 		vldr.32	s12, .L599+12
1153:src/main.cpp  ****             s_led2 = s_led2 * LED_SMOOTH + led2_target * (1.0f - LED_SMOOTH);
1154:src/main.cpp  ****             s_led3 = s_led3 * smooth3   + led3_target * (1.0f - smooth3);
 6324              		.loc 6 1154 20 discriminator 4 view .LVU1878
 6325 02d0 E9EE257A 		vfma.f32	s15, s18, s11
1152:src/main.cpp  ****             s_led1 = s_led1 * LED_SMOOTH + led1_target * (1.0f - LED_SMOOTH);
 6326              		.loc 6 1152 20 discriminator 4 view .LVU1879
 6327 02d4 A9EE867A 		vfma.f32	s14, s19, s12
1153:src/main.cpp  ****             s_led2 = s_led2 * LED_SMOOTH + led2_target * (1.0f - LED_SMOOTH);
 6328              		.loc 6 1153 20 discriminator 4 view .LVU1880
 6329 02d8 EAEE066A 		vfma.f32	s13, s20, s12
 6330              		.loc 6 1154 20 discriminator 4 view .LVU1881
 6331 02dc B0EE679A 		vmov.f32	s18, s15
 6332              	.LVL518:
1152:src/main.cpp  ****             s_led1 = s_led1 * LED_SMOOTH + led1_target * (1.0f - LED_SMOOTH);
 6333              		.loc 6 1152 20 discriminator 4 view .LVU1882
 6334 02e0 F0EE479A 		vmov.f32	s19, s14
 6335              	.LVL519:
1153:src/main.cpp  ****             s_led2 = s_led2 * LED_SMOOTH + led2_target * (1.0f - LED_SMOOTH);
 6336              		.loc 6 1153 13 is_stmt 1 discriminator 4 view .LVU1883
1153:src/main.cpp  ****             s_led2 = s_led2 * LED_SMOOTH + led2_target * (1.0f - LED_SMOOTH);
 6337              		.loc 6 1153 20 is_stmt 0 discriminator 4 view .LVU1884
 6338 02e4 B0EE66AA 		vmov.f32	s20, s13
 6339              	.LVL520:
 6340              		.loc 6 1154 13 is_stmt 1 discriminator 4 view .LVU1885
 6341              	.L418:
 6342              		.loc 6 1154 13 is_stmt 0 discriminator 4 view .LVU1886
 6343              	.LBE1283:
 6344              	.LBE1286:
1155:src/main.cpp  ****         }
1156:src/main.cpp  ****         hw.dac.WriteValue(DacHandle::Channel::ONE, (uint16_t)(s_led1 * 4095.0f));
 6345              		.loc 6 1156 9 is_stmt 1 view .LVU1887
 6346              		.loc 6 1156 70 is_stmt 0 view .LVU1888
 6347 02e8 9FED508A 		vldr.32	s16, .L599+16
 6348              		.loc 6 1156 26 view .LVU1889
 6349 02ec 0021     		movs	r1, #0
 6350 02ee 5048     		ldr	r0, .L599+20
 6351              		.loc 6 1156 70 view .LVU1890
 6352 02f0 69EE887A 		vmul.f32	s15, s19, s16
 6353              		.loc 6 1156 26 view .LVU1891
 6354 02f4 FCEEE77A 		vcvt.u32.f32	s15, s15
 6355 02f8 17EE903A 		vmov	r3, s15	@ int
 6356 02fc 9AB2     		uxth	r2, r3
 6357 02fe FFF7FEFF 		bl	_ZN5daisy9DacHandle10WriteValueENS0_7ChannelEt
 6358              	.LVL521:
1157:src/main.cpp  ****         hw.dac.WriteValue(DacHandle::Channel::TWO, (uint16_t)(s_led2 * 4095.0f));
 6359              		.loc 6 1157 9 is_stmt 1 view .LVU1892
 6360              		.loc 6 1157 70 is_stmt 0 view .LVU1893
 6361 0302 6AEE087A 		vmul.f32	s15, s20, s16
 6362              		.loc 6 1157 26 view .LVU1894
 6363 0306 0121     		movs	r1, #1
ARM GAS  /tmp/claude-502/ccb6uqMv.s 			page 171


 6364 0308 4948     		ldr	r0, .L599+20
 6365 030a FCEEE77A 		vcvt.u32.f32	s15, s15
 6366 030e 17EE903A 		vmov	r3, s15	@ int
 6367 0312 9AB2     		uxth	r2, r3
 6368 0314 FFF7FEFF 		bl	_ZN5daisy9DacHandle10WriteValueENS0_7ChannelEt
 6369              	.LVL522:
1158:src/main.cpp  ****         g_led3_duty = s_led3;  // audio callback sigma-delta's this onto A0
 6370              		.loc 6 1158 9 is_stmt 1 view .LVU1895
 6371              		.loc 6 1158 21 is_stmt 0 view .LVU1896
 6372 0318 464B     		ldr	r3, .L599+24
 6373 031a 83ED009A 		vstr.32	s18, [r3]
1159:src/main.cpp  **** 
1160:src/main.cpp  ****         f1_was_on = f1_on;
 6374              		.loc 6 1160 9 is_stmt 1 view .LVU1897
 6375              	.LVL523:
1161:src/main.cpp  **** 
1162:src/main.cpp  ****         // ŌöĆŌöĆ Finger 2 ŌåÆ Detune + Bitcrush + Ring mod ŌöĆŌöĆŌöĆŌöĆŌöĆŌöĆŌöĆŌöĆŌöĆŌöĆŌöĆŌöĆŌöĆ
1163:src/main.cpp  ****         if(tracked[1].alive)
 6376              		.loc 6 1163 9 view .LVU1898
 6377              	.LBB1287:
 6378 031e 99F81430 		ldrb	r3, [r9, #20]	@ zero_extendqisi2
 6379 0322 002B     		cmp	r3, #0
 6380 0324 00F09680 		beq	.L419
 6381              	.LBB1288:
1164:src/main.cpp  ****         {
1165:src/main.cpp  ****             float pos01 = clampf((float)tracked[1].pos / 1000.0f, 0.0f, 1.0f);
 6382              		.loc 6 1165 13 view .LVU1899
 6383              		.loc 6 1165 34 is_stmt 0 view .LVU1900
 6384 0328 D9ED067A 		vldr.32	s15, [r9, #24]	@ int
 6385              		.loc 6 1165 33 view .LVU1901
 6386 032c DFED426A 		vldr.32	s13, .L599+28
 6387              		.loc 6 1165 34 view .LVU1902
 6388 0330 F8EEE77A 		vcvt.f32.s32	s15, s15
 6389              		.loc 6 1165 33 view .LVU1903
 6390 0334 87EEA67A 		vdiv.f32	s14, s15, s13
 6391              	.LVL524:
 6392              	.LBB1289:
 6393              	.LBI1289:
 450:src/main.cpp  ****     return v<lo?lo:v>hi?hi:v;
 6394              		.loc 6 450 21 is_stmt 1 view .LVU1904
 6395              	.LBB1290:
 451:src/main.cpp  **** }
 6396              		.loc 6 451 5 view .LVU1905
 451:src/main.cpp  **** }
 6397              		.loc 6 451 16 is_stmt 0 view .LVU1906
 6398 0338 B5EEC07A 		vcmpe.f32	s14, #0
 6399 033c F1EE10FA 		vmrs	APSR_nzcv, FPSCR
 6400 0340 00F15F84 		bmi	.L490
 451:src/main.cpp  **** }
 6401              		.loc 6 451 24 view .LVU1907
 6402 0344 F7EE007A 		vmov.f32	s15, #1.0e+0
 6403 0348 B4EEE77A 		vcmpe.f32	s14, s15
 6404 034c F1EE10FA 		vmrs	APSR_nzcv, FPSCR
 6405 0350 00F33185 		bgt	.L491
 6406              	.LBE1290:
 6407              	.LBE1289:
1166:src/main.cpp  ****             float prs01 = clampf((float)tracked[1].pressure / 100.0f, 0.0f, 1.0f); // hard clamp
ARM GAS  /tmp/claude-502/ccb6uqMv.s 			page 172


1167:src/main.cpp  **** 
1168:src/main.cpp  ****             // Detune: finger 2 position maps to ┬▒7 semitones (┬▒1 fifth)
1169:src/main.cpp  ****             // Centre (pos=0.5) = no detune, left = flat, right = sharp
1170:src/main.cpp  ****             float detune_pos  = (pos01 - 0.5f) * 3.0f;  // ┬▒1.5 semitones raw
 6408              		.loc 6 1170 40 view .LVU1908
 6409 0354 F6EE007A 		vmov.f32	s15, #5.0e-1
 6410              		.loc 6 1170 19 view .LVU1909
 6411 0358 F0EE086A 		vmov.f32	s13, #3.0e+0
 6412              		.loc 6 1170 40 view .LVU1910
 6413 035c 37EE677A 		vsub.f32	s14, s14, s15
 6414              	.LVL525:
 6415              		.loc 6 1170 19 view .LVU1911
 6416 0360 67EE266A 		vmul.f32	s13, s14, s13
 6417              	.L420:
 6418              	.LVL526:
1166:src/main.cpp  ****             float prs01 = clampf((float)tracked[1].pressure / 100.0f, 0.0f, 1.0f); // hard clamp
 6419              		.loc 6 1166 13 is_stmt 1 view .LVU1912
1166:src/main.cpp  ****             float prs01 = clampf((float)tracked[1].pressure / 100.0f, 0.0f, 1.0f); // hard clamp
 6420              		.loc 6 1166 34 is_stmt 0 view .LVU1913
 6421 0364 D9ED077A 		vldr.32	s15, [r9, #28]	@ int
1166:src/main.cpp  ****             float prs01 = clampf((float)tracked[1].pressure / 100.0f, 0.0f, 1.0f); // hard clamp
 6422              		.loc 6 1166 33 view .LVU1914
 6423 0368 9FED346A 		vldr.32	s12, .L599+32
1166:src/main.cpp  ****             float prs01 = clampf((float)tracked[1].pressure / 100.0f, 0.0f, 1.0f); // hard clamp
 6424              		.loc 6 1166 34 view .LVU1915
 6425 036c B8EEE77A 		vcvt.f32.s32	s14, s15
1166:src/main.cpp  ****             float prs01 = clampf((float)tracked[1].pressure / 100.0f, 0.0f, 1.0f); // hard clamp
 6426              		.loc 6 1166 33 view .LVU1916
 6427 0370 C7EE067A 		vdiv.f32	s15, s14, s12
 6428              	.LVL527:
 6429              	.LBB1293:
 6430              	.LBI1293:
 450:src/main.cpp  ****     return v<lo?lo:v>hi?hi:v;
 6431              		.loc 6 450 21 is_stmt 1 view .LVU1917
 6432              	.LBB1294:
 451:src/main.cpp  **** }
 6433              		.loc 6 451 5 view .LVU1918
 451:src/main.cpp  **** }
 6434              		.loc 6 451 16 is_stmt 0 view .LVU1919
 6435 0374 F5EEC07A 		vcmpe.f32	s15, #0
 6436 0378 F1EE10FA 		vmrs	APSR_nzcv, FPSCR
 6437 037c 00F14984 		bmi	.L492
 451:src/main.cpp  **** }
 6438              		.loc 6 451 24 view .LVU1920
 6439 0380 B7EE004A 		vmov.f32	s8, #1.0e+0
 6440 0384 F4EEC47A 		vcmpe.f32	s15, s8
 6441 0388 F1EE10FA 		vmrs	APSR_nzcv, FPSCR
 6442 038c 40F30A84 		ble	.L580
 6443 0390 F0EE447A 		vmov.f32	s15, s8
 6444              	.LVL528:
 451:src/main.cpp  **** }
 6445              		.loc 6 451 24 view .LVU1921
 6446 0394 DFED2A4A 		vldr.32	s9, .L599+36
 6447              	.L421:
 6448              	.LVL529:
 451:src/main.cpp  **** }
 6449              		.loc 6 451 24 view .LVU1922
ARM GAS  /tmp/claude-502/ccb6uqMv.s 			page 173


 6450              	.LBE1294:
 6451              	.LBE1293:
 6452              		.loc 6 1170 13 is_stmt 1 view .LVU1923
1171:src/main.cpp  **** 
1172:src/main.cpp  ****             // Wavefold: smootherstep ŌĆö barely there until deliberate pressure
1173:src/main.cpp  ****             auto smootherstep2 = [](float x) -> float {
 6453              		.loc 6 1173 13 view .LVU1924
1174:src/main.cpp  ****                 x = x<0?0:x>1?1:x;
1175:src/main.cpp  ****                 return x*x*x*(x*(x*6.0f - 15.0f) + 10.0f);
1176:src/main.cpp  ****             };
1177:src/main.cpp  ****             // Apply smootherstep twice and cap at 0.20 ŌĆö effect only arrives
1178:src/main.cpp  ****             // with real deliberate pressure, stays subtle even at max
1179:src/main.cpp  ****             float ss2 = smootherstep2(prs01);
 6454              		.loc 6 1179 13 view .LVU1925
 6455              	.LBB1296:
 6456              	.LBI1296:
1079:src/main.cpp  ****                 x = x<0?0:x>1?1:x;
 6457              		.loc 6 1079 33 view .LVU1926
 6458              	.LBB1297:
1080:src/main.cpp  ****                 return x*x*x*(x*(x*6.0f - 15.0f) + 10.0f);
 6459              		.loc 6 1080 17 view .LVU1927
1081:src/main.cpp  ****             };
 6460              		.loc 6 1081 17 view .LVU1928
1081:src/main.cpp  ****             };
 6461              		.loc 6 1081 17 is_stmt 0 view .LVU1929
 6462              	.LBE1297:
 6463              	.LBE1296:
1180:src/main.cpp  ****             float ss3 = smootherstep2(ss2);   // triple smootherstep ŌĆö very lazy
 6464              		.loc 6 1180 13 is_stmt 1 view .LVU1930
 6465              	.LBB1304:
 6466              	.LBI1304:
1079:src/main.cpp  ****                 x = x<0?0:x>1?1:x;
 6467              		.loc 6 1079 33 view .LVU1931
 6468              	.LBB1305:
1080:src/main.cpp  ****                 return x*x*x*(x*(x*6.0f - 15.0f) + 10.0f);
 6469              		.loc 6 1080 17 view .LVU1932
1080:src/main.cpp  ****                 return x*x*x*(x*(x*6.0f - 15.0f) + 10.0f);
 6470              		.loc 6 1080 30 is_stmt 0 view .LVU1933
 6471 0398 B7EE007A 		vmov.f32	s14, #1.0e+0
 6472 039c F4EEC77A 		vcmpe.f32	s15, s14
 6473 03a0 F1EE10FA 		vmrs	APSR_nzcv, FPSCR
 6474 03a4 40F3AE86 		ble	.L581
 6475 03a8 9FED267A 		vldr.32	s14, .L599+40
 6476              	.LVL530:
 6477              	.L427:
1080:src/main.cpp  ****                 return x*x*x*(x*(x*6.0f - 15.0f) + 10.0f);
 6478              		.loc 6 1080 30 view .LVU1934
 6479              	.LBE1305:
 6480              	.LBE1304:
 6481              	.LBB1310:
 6482              	.LBB1311:
1181:src/main.cpp  ****             float bc  = smootherstep2(ss3) * VOICE.fold_max; // ceiling is voice-defined
1182:src/main.cpp  **** 
1183:src/main.cpp  ****             // Detune: smoothstep on position offset from centre
1184:src/main.cpp  ****             auto smoothstep2 = [](float x) -> float {
1185:src/main.cpp  ****                 x = x<0?0:x>1?1:x;
 6483              		.loc 6 1185 30 view .LVU1935
ARM GAS  /tmp/claude-502/ccb6uqMv.s 			page 174


 6484 03ac B7EE006A 		vmov.f32	s12, #1.0e+0
 6485 03b0 F4EEC67A 		vcmpe.f32	s15, s12
 6486 03b4 F1EE10FA 		vmrs	APSR_nzcv, FPSCR
 6487 03b8 0BDC     		bgt	.L429
1186:src/main.cpp  ****                 return x*x*(3.0f - 2.0f*x);
 6488              		.loc 6 1186 34 view .LVU1936
 6489 03ba B0EE005A 		vmov.f32	s10, #2.0e+0
 6490 03be F0EE085A 		vmov.f32	s11, #3.0e+0
 6491              	.LBE1311:
 6492              	.LBE1310:
 6493              	.LBB1315:
 6494              	.LBB1298:
1081:src/main.cpp  ****             };
 6495              		.loc 6 1081 25 view .LVU1937
 6496 03c2 27EEA76A 		vmul.f32	s12, s15, s15
 6497              	.LBE1298:
 6498              	.LBE1315:
 6499              	.LBB1316:
 6500              	.LBB1312:
 6501              		.loc 6 1186 34 view .LVU1938
 6502 03c6 E7EEC55A 		vfms.f32	s11, s15, s10
 6503              		.loc 6 1186 42 view .LVU1939
 6504 03ca 66EE257A 		vmul.f32	s15, s12, s11
 6505              	.LVL531:
 6506              		.loc 6 1186 42 view .LVU1940
 6507              	.LBE1312:
 6508              	.LBE1316:
1187:src/main.cpp  ****             };
1188:src/main.cpp  ****             // Detune amount scales with pressure via smoothstep ŌĆö no detune at low pressure
1189:src/main.cpp  ****             float det_prs = smoothstep2(prs01);
1190:src/main.cpp  **** 
1191:src/main.cpp  ****             // Ring mod: smoothstep, only above 85% pressure (ceiling voice-defined)
1192:src/main.cpp  ****             float rm_in = clampf((prs01 - 0.85f) / 0.15f, 0.0f, 1.0f);
1193:src/main.cpp  ****             float rm    = smoothstep2(rm_in) * VOICE.ringmod_max;
1194:src/main.cpp  **** 
1195:src/main.cpp  ****             g_target_detune = detune_pos * det_prs; // pressure gates detune amount
 6509              		.loc 6 1195 42 view .LVU1941
 6510 03ce 66EEA76A 		vmul.f32	s13, s13, s15
 6511              	.L429:
 6512              	.LBB1317:
 6513              	.LBB1313:
1186:src/main.cpp  ****             };
 6514              		.loc 6 1186 17 is_stmt 1 view .LVU1942
 6515              	.LVL532:
1186:src/main.cpp  ****             };
 6516              		.loc 6 1186 17 is_stmt 0 view .LVU1943
 6517              	.LBE1313:
 6518              	.LBE1317:
1192:src/main.cpp  ****             float rm    = smoothstep2(rm_in) * VOICE.ringmod_max;
 6519              		.loc 6 1192 13 is_stmt 1 view .LVU1944
 6520              	.LBB1318:
 6521              	.LBI1318:
 450:src/main.cpp  ****     return v<lo?lo:v>hi?hi:v;
 6522              		.loc 6 450 21 view .LVU1945
 6523              	.LBB1319:
 451:src/main.cpp  **** }
 6524              		.loc 6 451 5 view .LVU1946
ARM GAS  /tmp/claude-502/ccb6uqMv.s 			page 175


 451:src/main.cpp  **** }
 6525              		.loc 6 451 16 is_stmt 0 view .LVU1947
 6526 03d2 DFED1C7A 		vldr.32	s15, .L599+40
 6527 03d6 F4EEE74A 		vcmpe.f32	s9, s15
 6528 03da F1EE10FA 		vmrs	APSR_nzcv, FPSCR
 6529 03de 12D4     		bmi	.L430
 451:src/main.cpp  **** }
 6530              		.loc 6 451 24 view .LVU1948
 6531 03e0 B7EE006A 		vmov.f32	s12, #1.0e+0
 6532 03e4 F4EEC64A 		vcmpe.f32	s9, s12
 6533 03e8 F1EE10FA 		vmrs	APSR_nzcv, FPSCR
 6534 03ec 0BDC     		bgt	.L430
 6535              	.LVL533:
 451:src/main.cpp  **** }
 6536              		.loc 6 451 24 view .LVU1949
 6537              	.LBE1319:
 6538              	.LBE1318:
1193:src/main.cpp  **** 
 6539              		.loc 6 1193 13 is_stmt 1 view .LVU1950
 6540              	.LBB1320:
 6541              	.LBI1320:
1184:src/main.cpp  ****                 x = x<0?0:x>1?1:x;
 6542              		.loc 6 1184 32 view .LVU1951
 6543              	.LBB1321:
1185:src/main.cpp  ****                 return x*x*(3.0f - 2.0f*x);
 6544              		.loc 6 1185 17 view .LVU1952
1186:src/main.cpp  ****             };
 6545              		.loc 6 1186 34 is_stmt 0 view .LVU1953
 6546 03ee B0EE005A 		vmov.f32	s10, #2.0e+0
 6547 03f2 F0EE085A 		vmov.f32	s11, #3.0e+0
1186:src/main.cpp  ****             };
 6548              		.loc 6 1186 25 view .LVU1954
 6549 03f6 24EEA46A 		vmul.f32	s12, s9, s9
1186:src/main.cpp  ****             };
 6550              		.loc 6 1186 34 view .LVU1955
 6551 03fa E4EEC55A 		vfms.f32	s11, s9, s10
1186:src/main.cpp  ****             };
 6552              		.loc 6 1186 42 view .LVU1956
 6553 03fe 26EE256A 		vmul.f32	s12, s12, s11
 6554              	.LBE1321:
 6555              	.LBE1320:
1193:src/main.cpp  **** 
 6556              		.loc 6 1193 54 view .LVU1957
 6557 0402 66EE277A 		vmul.f32	s15, s12, s15
 6558              	.LVL534:
 6559              	.L430:
 6560              	.LBB1323:
 6561              	.LBB1322:
1186:src/main.cpp  ****             };
 6562              		.loc 6 1186 17 is_stmt 1 view .LVU1958
1186:src/main.cpp  ****             };
 6563              		.loc 6 1186 17 is_stmt 0 view .LVU1959
 6564              	.LBE1322:
 6565              	.LBE1323:
 6566              		.loc 6 1195 13 is_stmt 1 view .LVU1960
 6567              		.loc 6 1195 29 is_stmt 0 view .LVU1961
 6568 0406 104B     		ldr	r3, .L599+44
ARM GAS  /tmp/claude-502/ccb6uqMv.s 			page 176


 6569 0408 C3ED006A 		vstr.32	s13, [r3]
1196:src/main.cpp  ****             g_bitcrush      = bc;
 6570              		.loc 6 1196 13 is_stmt 1 view .LVU1962
 6571              		.loc 6 1196 29 is_stmt 0 view .LVU1963
 6572 040c 0F4B     		ldr	r3, .L599+48
 6573 040e 83ED007A 		vstr.32	s14, [r3]
1197:src/main.cpp  ****             g_ringmod       = rm;
 6574              		.loc 6 1197 13 is_stmt 1 view .LVU1964
 6575              		.loc 6 1197 29 is_stmt 0 view .LVU1965
 6576 0412 0F4B     		ldr	r3, .L599+52
 6577 0414 C3ED007A 		vstr.32	s15, [r3]
 6578              	.LBE1288:
 6579 0418 23E0     		b	.L431
 6580              	.L600:
 6581 041a 00BF     		.align	2
 6582              	.L599:
 6583 041c 00000000 		.word	.LANCHOR43
 6584 0420 CDCCCC3D 		.word	1036831949
 6585 0424 00000000 		.word	.LANCHOR8
 6586 0428 6666E63E 		.word	1055286886
 6587 042c 00F07F45 		.word	1166012416
 6588 0430 20000000 		.word	.LANCHOR10+32
 6589 0434 00000000 		.word	.LANCHOR0
 6590 0438 00007A44 		.word	1148846080
 6591 043c 0000C842 		.word	1120403456
 6592 0440 FDFF7F3F 		.word	1065353213
 6593 0444 00000000 		.word	0
 6594 0448 00000000 		.word	.LANCHOR3
 6595 044c 00000000 		.word	.LANCHOR6
 6596 0450 00000000 		.word	.LANCHOR7
 6597              	.LVL535:
 6598              	.L419:
1198:src/main.cpp  ****         }
1199:src/main.cpp  ****         else
1200:src/main.cpp  ****         {
1201:src/main.cpp  ****             // No second finger: return detune to zero, clear effects
1202:src/main.cpp  ****             g_target_detune = 0.0f;
 6599              		.loc 6 1202 13 is_stmt 1 view .LVU1966
 6600              		.loc 6 1202 29 is_stmt 0 view .LVU1967
 6601 0454 0023     		movs	r3, #0
 6602 0456 9B4A     		ldr	r2, .L601
 6603 0458 1360     		str	r3, [r2]	@ float
1203:src/main.cpp  ****             g_bitcrush      = 0.0f;
 6604              		.loc 6 1203 13 is_stmt 1 view .LVU1968
 6605              		.loc 6 1203 29 is_stmt 0 view .LVU1969
 6606 045a 9B4A     		ldr	r2, .L601+4
 6607 045c 1360     		str	r3, [r2]	@ float
1204:src/main.cpp  ****             g_ringmod       = 0.0f;
 6608              		.loc 6 1204 13 is_stmt 1 view .LVU1970
 6609              		.loc 6 1204 29 is_stmt 0 view .LVU1971
 6610 045e 9B4A     		ldr	r2, .L601+8
 6611 0460 1360     		str	r3, [r2]	@ float
 6612              	.L431:
 6613              	.LBE1287:
1205:src/main.cpp  ****         }
1206:src/main.cpp  **** 
1207:src/main.cpp  ****         // ŌöĆŌöĆ Serial display ŌöĆŌöĆŌöĆŌöĆŌöĆŌöĆŌöĆŌöĆŌöĆŌöĆŌöĆŌöĆŌöĆŌöĆŌöĆŌöĆŌöĆŌöĆŌöĆŌöĆŌöĆŌöĆ
ARM GAS  /tmp/claude-502/ccb6uqMv.s 			page 177


1208:src/main.cpp  ****         frame_count++;
 6614              		.loc 6 1208 9 is_stmt 1 view .LVU1972
 6615              	.LVL536:
1209:src/main.cpp  ****         if(frame_count < print_every){ System::Delay(10); continue; }
 6616              		.loc 6 1209 9 view .LVU1973
1210:src/main.cpp  ****         frame_count = 0;
 6617              		.loc 6 1210 9 view .LVU1974
1211:src/main.cpp  **** 
1212:src/main.cpp  ****         hw.PrintLine(" CH | DELTA | BAR");
 6618              		.loc 6 1212 9 view .LVU1975
 6619              	.LBB1357:
 6620              	.LBI1357:
 126:/Users/reza.kalfane/Workspaces/Daisy/DaisyExamples/libDaisy/src/daisy_seed.h ****     {
 6621              		.loc 1 126 17 view .LVU1976
 6622              	.LBB1358:
 128:/Users/reza.kalfane/Workspaces/Daisy/DaisyExamples/libDaisy/src/daisy_seed.h ****     }
 6623              		.loc 1 128 23 is_stmt 0 view .LVU1977
 6624 0462 9B48     		ldr	r0, .L601+12
 6625              	.LBE1358:
 6626              	.LBE1357:
 6627              	.LBB1360:
1213:src/main.cpp  ****         hw.PrintLine("----+-------+--------------------");
1214:src/main.cpp  ****         for(int i=0;i<N_CH;i++){
 6628              		.loc 6 1214 17 view .LVU1978
 6629 0464 0025     		movs	r5, #0
 6630              	.LVL537:
 6631              		.loc 6 1214 17 view .LVU1979
 6632              	.LBE1360:
 6633              	.LBB1382:
 6634              	.LBB1359:
 128:/Users/reza.kalfane/Workspaces/Daisy/DaisyExamples/libDaisy/src/daisy_seed.h ****     }
 6635              		.loc 1 128 23 view .LVU1980
 6636 0466 FFF7FEFF 		bl	_ZN5daisy6LoggerILNS_17LoggerDestinationE1EE9PrintLineEPKcz
 6637              	.LVL538:
 128:/Users/reza.kalfane/Workspaces/Daisy/DaisyExamples/libDaisy/src/daisy_seed.h ****     }
 6638              		.loc 1 128 23 view .LVU1981
 6639              	.LBE1359:
 6640              	.LBE1382:
1213:src/main.cpp  ****         hw.PrintLine("----+-------+--------------------");
 6641              		.loc 6 1213 9 is_stmt 1 view .LVU1982
 6642              	.LBB1383:
 6643              	.LBI1383:
 126:/Users/reza.kalfane/Workspaces/Daisy/DaisyExamples/libDaisy/src/daisy_seed.h ****     {
 6644              		.loc 1 126 17 view .LVU1983
 6645              	.LBB1384:
 128:/Users/reza.kalfane/Workspaces/Daisy/DaisyExamples/libDaisy/src/daisy_seed.h ****     }
 6646              		.loc 1 128 23 is_stmt 0 view .LVU1984
 6647 046a 9A48     		ldr	r0, .L601+16
 6648              	.LBE1384:
 6649              	.LBE1383:
 6650              	.LBB1386:
 6651              	.LBB1361:
 6652              	.LBB1362:
 6653              	.LBB1363:
 773:src/main.cpp  ****     if(n>w)n=w;
 6654              		.loc 6 773 42 view .LVU1985
 6655 046c 7310     		asrs	r3, r6, #1
ARM GAS  /tmp/claude-502/ccb6uqMv.s 			page 178


 6656 046e 0593     		str	r3, [sp, #20]
 6657              	.LBE1363:
 6658              	.LBE1362:
 6659              	.LBE1361:
 6660              	.LBE1386:
 6661              	.LBB1387:
 6662              	.LBB1385:
 128:/Users/reza.kalfane/Workspaces/Daisy/DaisyExamples/libDaisy/src/daisy_seed.h ****     }
 6663              		.loc 1 128 23 view .LVU1986
 6664 0470 FFF7FEFF 		bl	_ZN5daisy6LoggerILNS_17LoggerDestinationE1EE9PrintLineEPKcz
 6665              	.LVL539:
 128:/Users/reza.kalfane/Workspaces/Daisy/DaisyExamples/libDaisy/src/daisy_seed.h ****     }
 6666              		.loc 1 128 23 view .LVU1987
 6667              	.LBE1385:
 6668              	.LBE1387:
 6669              		.loc 6 1214 9 is_stmt 1 view .LVU1988
 6670              	.LBB1388:
 6671              		.loc 6 1214 22 view .LVU1989
 6672              	.L438:
 6673              	.LBB1379:
1215:src/main.cpp  ****             make_bar(bar,delta[i],max_delta,20);
 6674              		.loc 6 1215 13 view .LVU1990
 6675              		.loc 6 1215 21 is_stmt 0 view .LVU1991
 6676 0474 57F8042B 		ldr	r2, [r7], #4
 6677              	.LVL540:
 6678              	.LBB1368:
 6679              	.LBI1362:
 771:src/main.cpp  **** {
 6680              		.loc 6 771 6 is_stmt 1 view .LVU1992
 6681              	.LBB1366:
 773:src/main.cpp  ****     if(n>w)n=w;
 6682              		.loc 6 773 5 view .LVU1993
 773:src/main.cpp  ****     if(n>w)n=w;
 6683              		.loc 6 773 25 is_stmt 0 view .LVU1994
 6684 0478 002A     		cmp	r2, #0
 6685 047a 40F30181 		ble	.L498
 773:src/main.cpp  ****     if(n>w)n=w;
 6686              		.loc 6 773 36 view .LVU1995
 6687 047e 02EB8200 		add	r0, r2, r2, lsl #2
 773:src/main.cpp  ****     if(n>w)n=w;
 6688              		.loc 6 773 38 view .LVU1996
 6689 0482 059B     		ldr	r3, [sp, #20]
 6690 0484 03EB8000 		add	r0, r3, r0, lsl #2
 773:src/main.cpp  ****     if(n>w)n=w;
 6691              		.loc 6 773 25 view .LVU1997
 6692 0488 B0FBF6F0 		udiv	r0, r0, r6
 6693 048c 1428     		cmp	r0, #20
 6694 048e A8BF     		it	ge
 6695 0490 1420     		movge	r0, #20
 6696              	.L432:
 774:src/main.cpp  ****     out[0]='[';
 6697              		.loc 6 774 5 is_stmt 1 view .LVU1998
 775:src/main.cpp  ****     for(int i=0;i<w;i++)out[1+i]=(i<n)?'#':' ';
 6698              		.loc 6 775 5 view .LVU1999
 775:src/main.cpp  ****     for(int i=0;i<w;i++)out[1+i]=(i<n)?'#':' ';
 6699              		.loc 6 775 11 is_stmt 0 view .LVU2000
 6700 0492 5B23     		movs	r3, #91
ARM GAS  /tmp/claude-502/ccb6uqMv.s 			page 179


 6701 0494 6FEA0A04 		mvn	r4, r10
 6702 0498 8DF8A430 		strb	r3, [sp, #164]
 776:src/main.cpp  ****     out[1+w]=']';out[2+w]='\0';
 6703              		.loc 6 776 5 is_stmt 1 view .LVU2001
 6704              	.LVL541:
 6705              	.LBB1364:
 776:src/main.cpp  ****     out[1+w]=']';out[2+w]='\0';
 6706              		.loc 6 776 18 view .LVU2002
 6707              	.LBE1364:
 775:src/main.cpp  ****     for(int i=0;i<w;i++)out[1+i]=(i<n)?'#':' ';
 6708              		.loc 6 775 11 is_stmt 0 view .LVU2003
 6709 049c 0DF1A503 		add	r3, sp, #165
 6710              	.LVL542:
 6711              	.L434:
 6712              	.LBB1365:
 776:src/main.cpp  ****     out[1+w]=']';out[2+w]='\0';
 6713              		.loc 6 776 25 is_stmt 1 view .LVU2004
 776:src/main.cpp  ****     out[1+w]=']';out[2+w]='\0';
 6714              		.loc 6 776 39 is_stmt 0 view .LVU2005
 6715 04a0 E118     		adds	r1, r4, r3
 6716 04a2 8142     		cmp	r1, r0
 6717 04a4 ACBF     		ite	ge
 6718 04a6 2021     		movge	r1, #32
 6719 04a8 2321     		movlt	r1, #35
 776:src/main.cpp  ****     out[1+w]=']';out[2+w]='\0';
 6720              		.loc 6 776 33 view .LVU2006
 6721 04aa 03F8011B 		strb	r1, [r3], #1
 6722              	.LVL543:
 776:src/main.cpp  ****     out[1+w]=']';out[2+w]='\0';
 6723              		.loc 6 776 5 is_stmt 1 view .LVU2007
 776:src/main.cpp  ****     out[1+w]=']';out[2+w]='\0';
 6724              		.loc 6 776 18 view .LVU2008
 6725 04ae 9B45     		cmp	fp, r3
 6726 04b0 F6D1     		bne	.L434
 6727              	.LBE1365:
 777:src/main.cpp  **** }
 6728              		.loc 6 777 5 view .LVU2009
 777:src/main.cpp  **** }
 6729              		.loc 6 777 13 is_stmt 0 view .LVU2010
 6730 04b2 5D23     		movs	r3, #93
 6731              	.LVL544:
 777:src/main.cpp  **** }
 6732              		.loc 6 777 13 view .LVU2011
 6733 04b4 8DF8B930 		strb	r3, [sp, #185]
 777:src/main.cpp  **** }
 6734              		.loc 6 777 18 is_stmt 1 view .LVU2012
 777:src/main.cpp  **** }
 6735              		.loc 6 777 26 is_stmt 0 view .LVU2013
 6736 04b8 0023     		movs	r3, #0
 6737 04ba 8DF8BA30 		strb	r3, [sp, #186]
 6738              	.LVL545:
 777:src/main.cpp  **** }
 6739              		.loc 6 777 26 view .LVU2014
 6740              	.LBE1366:
 6741              	.LBE1368:
 6742              	.LBB1369:
1216:src/main.cpp  ****             char mk=' ';
ARM GAS  /tmp/claude-502/ccb6uqMv.s 			page 180


1217:src/main.cpp  ****             for(int s=0;s<2;s++)
 6743              		.loc 6 1217 26 is_stmt 1 view .LVU2015
1218:src/main.cpp  ****                 if(tracked[s].alive&&i==tracked[s].peak_ch)mk=(char)('1'+s);
 6744              		.loc 6 1218 17 view .LVU2016
 6745 04be 99F80030 		ldrb	r3, [r9]	@ zero_extendqisi2
 6746 04c2 002B     		cmp	r3, #0
 6747 04c4 00F0DA80 		beq	.L500
 6748              		.loc 6 1218 36 is_stmt 0 view .LVU2017
 6749 04c8 D9F80C30 		ldr	r3, [r9, #12]
 6750              	.LBE1369:
1216:src/main.cpp  ****             char mk=' ';
 6751              		.loc 6 1216 18 view .LVU2018
 6752 04cc AB42     		cmp	r3, r5
 6753 04ce 0CBF     		ite	eq
 6754 04d0 3123     		moveq	r3, #49
 6755 04d2 2023     		movne	r3, #32
 6756              	.L435:
 6757              	.LVL546:
 6758              	.LBB1370:
1217:src/main.cpp  ****                 if(tracked[s].alive&&i==tracked[s].peak_ch)mk=(char)('1'+s);
 6759              		.loc 6 1217 13 is_stmt 1 view .LVU2019
1217:src/main.cpp  ****                 if(tracked[s].alive&&i==tracked[s].peak_ch)mk=(char)('1'+s);
 6760              		.loc 6 1217 26 view .LVU2020
 6761              		.loc 6 1218 17 view .LVU2021
 6762 04d4 99F81410 		ldrb	r1, [r9, #20]	@ zero_extendqisi2
 6763 04d8 21B1     		cbz	r1, .L437
 6764              		.loc 6 1218 36 is_stmt 0 view .LVU2022
 6765 04da D9F82010 		ldr	r1, [r9, #32]
 6766              	.LBE1370:
 6767              	.LBB1371:
 6768              	.LBB1372:
 128:/Users/reza.kalfane/Workspaces/Daisy/DaisyExamples/libDaisy/src/daisy_seed.h ****     }
 6769              		.loc 1 128 23 view .LVU2023
 6770 04de A942     		cmp	r1, r5
 6771 04e0 08BF     		it	eq
 6772 04e2 3223     		moveq	r3, #50
 6773              	.LVL547:
 6774              	.L437:
 128:/Users/reza.kalfane/Workspaces/Daisy/DaisyExamples/libDaisy/src/daisy_seed.h ****     }
 6775              		.loc 1 128 23 view .LVU2024
 6776              	.LBE1372:
 6777              	.LBE1371:
 6778              	.LBB1375:
1217:src/main.cpp  ****                 if(tracked[s].alive&&i==tracked[s].peak_ch)mk=(char)('1'+s);
 6779              		.loc 6 1217 13 is_stmt 1 view .LVU2025
1217:src/main.cpp  ****                 if(tracked[s].alive&&i==tracked[s].peak_ch)mk=(char)('1'+s);
 6780              		.loc 6 1217 26 view .LVU2026
 6781              	.LBE1375:
1219:src/main.cpp  ****             hw.PrintLine(" %2d | %5d | %s %c",i,(int)delta[i],bar,mk);
 6782              		.loc 6 1219 13 view .LVU2027
 6783              	.LBB1376:
 6784              	.LBI1371:
 126:/Users/reza.kalfane/Workspaces/Daisy/DaisyExamples/libDaisy/src/daisy_seed.h ****     {
 6785              		.loc 1 126 17 view .LVU2028
 6786              	.LBB1373:
 128:/Users/reza.kalfane/Workspaces/Daisy/DaisyExamples/libDaisy/src/daisy_seed.h ****     }
 6787              		.loc 1 128 23 is_stmt 0 view .LVU2029
ARM GAS  /tmp/claude-502/ccb6uqMv.s 			page 181


 6788 04e4 2946     		mov	r1, r5
 6789              	.LBE1373:
 6790              	.LBE1376:
 6791              	.LBE1379:
1214:src/main.cpp  ****             make_bar(bar,delta[i],max_delta,20);
 6792              		.loc 6 1214 9 view .LVU2030
 6793 04e6 0135     		adds	r5, r5, #1
 6794              	.LVL548:
 6795              	.LBB1380:
 6796              	.LBB1377:
 6797              	.LBB1374:
 128:/Users/reza.kalfane/Workspaces/Daisy/DaisyExamples/libDaisy/src/daisy_seed.h ****     }
 6798              		.loc 1 128 23 view .LVU2031
 6799 04e8 0093     		str	r3, [sp]
 6800 04ea 5346     		mov	r3, r10
 6801 04ec 7A48     		ldr	r0, .L601+20
 6802 04ee FFF7FEFF 		bl	_ZN5daisy6LoggerILNS_17LoggerDestinationE1EE9PrintLineEPKcz
 6803              	.LVL549:
 128:/Users/reza.kalfane/Workspaces/Daisy/DaisyExamples/libDaisy/src/daisy_seed.h ****     }
 6804              		.loc 1 128 23 view .LVU2032
 6805              	.LBE1374:
 6806              	.LBE1377:
 6807              	.LBE1380:
1214:src/main.cpp  ****             make_bar(bar,delta[i],max_delta,20);
 6808              		.loc 6 1214 9 is_stmt 1 view .LVU2033
1214:src/main.cpp  ****             make_bar(bar,delta[i],max_delta,20);
 6809              		.loc 6 1214 22 view .LVU2034
 6810 04f2 0C2D     		cmp	r5, #12
 6811 04f4 BED1     		bne	.L438
 6812              	.LBE1388:
1220:src/main.cpp  ****         }
1221:src/main.cpp  **** 
1222:src/main.cpp  ****         make_pos_bar(pos_bar,40);
 6813              		.loc 6 1222 9 view .LVU2035
 6814              	.LVL550:
 6815              	.LBB1389:
 6816              	.LBI1389:
 780:src/main.cpp  **** {
 6817              		.loc 6 780 6 view .LVU2036
 6818              	.LBB1390:
 782:src/main.cpp  ****     for(int i=0;i<w;i++)out[1+i]='-';
 6819              		.loc 6 782 5 view .LVU2037
 782:src/main.cpp  ****     for(int i=0;i<w;i++)out[1+i]='-';
 6820              		.loc 6 782 11 is_stmt 0 view .LVU2038
 6821 04f6 7C25     		movs	r5, #124
 6822              	.LVL551:
 6823              	.LBB1391:
 783:src/main.cpp  ****     out[1+w]='|';out[2+w]='\0';
 6824              		.loc 6 783 33 view .LVU2039
 6825 04f8 2D21     		movs	r1, #45
 6826 04fa 2822     		movs	r2, #40
 6827 04fc 0DF21D10 		addw	r0, sp, #285
 6828              	.LBE1391:
 782:src/main.cpp  ****     for(int i=0;i<w;i++)out[1+i]='-';
 6829              		.loc 6 782 11 view .LVU2040
 6830 0500 8DF81C51 		strb	r5, [sp, #284]
 783:src/main.cpp  ****     out[1+w]='|';out[2+w]='\0';
ARM GAS  /tmp/claude-502/ccb6uqMv.s 			page 182


 6831              		.loc 6 783 5 is_stmt 1 view .LVU2041
 6832              	.LVL552:
 6833              	.LBB1392:
 783:src/main.cpp  ****     out[1+w]='|';out[2+w]='\0';
 6834              		.loc 6 783 18 view .LVU2042
 783:src/main.cpp  ****     out[1+w]='|';out[2+w]='\0';
 6835              		.loc 6 783 33 is_stmt 0 view .LVU2043
 6836 0504 FFF7FEFF 		bl	memset
 6837              	.LVL553:
 783:src/main.cpp  ****     out[1+w]='|';out[2+w]='\0';
 6838              		.loc 6 783 33 view .LVU2044
 6839              	.LBE1392:
 784:src/main.cpp  ****     for(int slot=0;slot<2;slot++){
 6840              		.loc 6 784 5 is_stmt 1 view .LVU2045
 784:src/main.cpp  ****     for(int slot=0;slot<2;slot++){
 6841              		.loc 6 784 26 is_stmt 0 view .LVU2046
 6842 0508 0021     		movs	r1, #0
 6843              	.LBB1393:
 6844              	.LBB1394:
 786:src/main.cpp  ****         int p=(int)(((int64_t)tracked[slot].pos*(w-1)+500)/1000);
 6845              		.loc 6 786 9 view .LVU2047
 6846 050a 99F80030 		ldrb	r3, [r9]	@ zero_extendqisi2
 6847              	.LBE1394:
 6848              	.LBE1393:
 784:src/main.cpp  ****     for(int slot=0;slot<2;slot++){
 6849              		.loc 6 784 13 view .LVU2048
 6850 050e 8DF84551 		strb	r5, [sp, #325]
 784:src/main.cpp  ****     for(int slot=0;slot<2;slot++){
 6851              		.loc 6 784 18 is_stmt 1 view .LVU2049
 784:src/main.cpp  ****     for(int slot=0;slot<2;slot++){
 6852              		.loc 6 784 26 is_stmt 0 view .LVU2050
 6853 0512 8DF84611 		strb	r1, [sp, #326]
 785:src/main.cpp  ****         if(!tracked[slot].alive)continue;
 6854              		.loc 6 785 5 is_stmt 1 view .LVU2051
 6855              	.LVL554:
 6856              	.LBB1398:
 785:src/main.cpp  ****         if(!tracked[slot].alive)continue;
 6857              		.loc 6 785 24 view .LVU2052
 6858              	.LBB1395:
 786:src/main.cpp  ****         int p=(int)(((int64_t)tracked[slot].pos*(w-1)+500)/1000);
 6859              		.loc 6 786 9 view .LVU2053
 6860 0516 BBB1     		cbz	r3, .L439
 787:src/main.cpp  ****         if(p<0)p=0;if(p>=w)p=w-1;
 6861              		.loc 6 787 9 view .LVU2054
 787:src/main.cpp  ****         if(p<0)p=0;if(p>=w)p=w-1;
 6862              		.loc 6 787 54 is_stmt 0 view .LVU2055
 6863 0518 D9F80430 		ldr	r3, [r9, #4]
 6864 051c 2722     		movs	r2, #39
 6865 051e 4FF4FA70 		mov	r0, #500
 787:src/main.cpp  ****         if(p<0)p=0;if(p>=w)p=w-1;
 6866              		.loc 6 787 59 view .LVU2056
 6867 0522 C3FB0201 		smlal	r0, r1, r3, r2
 6868 0526 4FF47A72 		mov	r2, #1000
 6869 052a 0023     		movs	r3, #0
 6870 052c FFF7FEFF 		bl	__aeabi_ldivmod
 6871              	.LVL555:
 788:src/main.cpp  ****         out[1+p]=(char)('1'+slot);
ARM GAS  /tmp/claude-502/ccb6uqMv.s 			page 183


 6872              		.loc 6 788 9 is_stmt 1 view .LVU2057
 788:src/main.cpp  ****         out[1+p]=(char)('1'+slot);
 6873              		.loc 6 788 20 view .LVU2058
 6874 0530 2728     		cmp	r0, #39
 6875 0532 00F3E281 		bgt	.L503
 789:src/main.cpp  ****     }
 6876              		.loc 6 789 14 is_stmt 0 view .LVU2059
 6877 0536 20EAE073 		bic	r3, r0, r0, asr #31
 6878              	.LVL556:
 789:src/main.cpp  ****     }
 6879              		.loc 6 789 14 view .LVU2060
 6880 053a 0133     		adds	r3, r3, #1
 6881              	.LVL557:
 6882              	.L440:
 789:src/main.cpp  ****     }
 6883              		.loc 6 789 9 is_stmt 1 view .LVU2061
 789:src/main.cpp  ****     }
 6884              		.loc 6 789 17 is_stmt 0 view .LVU2062
 6885 053c 03F5A873 		add	r3, r3, #336
 6886 0540 3122     		movs	r2, #49
 6887 0542 6B44     		add	r3, sp, r3
 6888 0544 03F8342C 		strb	r2, [r3, #-52]
 6889              	.L439:
 6890              	.LBE1395:
 785:src/main.cpp  ****         if(!tracked[slot].alive)continue;
 6891              		.loc 6 785 5 is_stmt 1 view .LVU2063
 6892              	.LVL558:
 785:src/main.cpp  ****         if(!tracked[slot].alive)continue;
 6893              		.loc 6 785 24 view .LVU2064
 6894              	.LBB1396:
 786:src/main.cpp  ****         int p=(int)(((int64_t)tracked[slot].pos*(w-1)+500)/1000);
 6895              		.loc 6 786 9 view .LVU2065
 6896 0548 99F81430 		ldrb	r3, [r9, #20]	@ zero_extendqisi2
 6897 054c C3B1     		cbz	r3, .L441
 787:src/main.cpp  ****         if(p<0)p=0;if(p>=w)p=w-1;
 6898              		.loc 6 787 9 view .LVU2066
 787:src/main.cpp  ****         if(p<0)p=0;if(p>=w)p=w-1;
 6899              		.loc 6 787 54 is_stmt 0 view .LVU2067
 6900 054e D9F81830 		ldr	r3, [r9, #24]
 6901 0552 2722     		movs	r2, #39
 6902 0554 4FF4FA70 		mov	r0, #500
 6903 0558 0021     		movs	r1, #0
 787:src/main.cpp  ****         if(p<0)p=0;if(p>=w)p=w-1;
 6904              		.loc 6 787 59 view .LVU2068
 6905 055a C3FB0201 		smlal	r0, r1, r3, r2
 6906 055e 4FF47A72 		mov	r2, #1000
 6907 0562 0023     		movs	r3, #0
 6908 0564 FFF7FEFF 		bl	__aeabi_ldivmod
 6909              	.LVL559:
 788:src/main.cpp  ****         out[1+p]=(char)('1'+slot);
 6910              		.loc 6 788 9 is_stmt 1 view .LVU2069
 788:src/main.cpp  ****         out[1+p]=(char)('1'+slot);
 6911              		.loc 6 788 20 view .LVU2070
 6912 0568 2728     		cmp	r0, #39
 6913 056a 00F3C881 		bgt	.L504
 789:src/main.cpp  ****     }
 6914              		.loc 6 789 14 is_stmt 0 view .LVU2071
ARM GAS  /tmp/claude-502/ccb6uqMv.s 			page 184


 6915 056e 20EAE073 		bic	r3, r0, r0, asr #31
 6916              	.LVL560:
 789:src/main.cpp  ****     }
 6917              		.loc 6 789 14 view .LVU2072
 6918 0572 0133     		adds	r3, r3, #1
 6919              	.LVL561:
 6920              	.L442:
 789:src/main.cpp  ****     }
 6921              		.loc 6 789 9 is_stmt 1 view .LVU2073
 789:src/main.cpp  ****     }
 6922              		.loc 6 789 17 is_stmt 0 view .LVU2074
 6923 0574 03F5A873 		add	r3, r3, #336
 6924 0578 3222     		movs	r2, #50
 6925 057a 6B44     		add	r3, sp, r3
 6926 057c 03F8342C 		strb	r2, [r3, #-52]
 6927              	.L441:
 6928              	.LBE1396:
 785:src/main.cpp  ****         if(!tracked[slot].alive)continue;
 6929              		.loc 6 785 5 is_stmt 1 view .LVU2075
 6930              	.LVL562:
 785:src/main.cpp  ****         if(!tracked[slot].alive)continue;
 6931              		.loc 6 785 24 view .LVU2076
 785:src/main.cpp  ****         if(!tracked[slot].alive)continue;
 6932              		.loc 6 785 24 is_stmt 0 view .LVU2077
 6933              	.LBE1398:
 6934              	.LBE1390:
 6935              	.LBE1389:
1223:src/main.cpp  ****         hw.PrintLine("\nPOS  %s",pos_bar);
 6936              		.loc 6 1223 9 is_stmt 1 view .LVU2078
 6937              	.LBB1401:
 6938              	.LBI1401:
 126:/Users/reza.kalfane/Workspaces/Daisy/DaisyExamples/libDaisy/src/daisy_seed.h ****     {
 6939              		.loc 1 126 17 view .LVU2079
 6940 0580 564D     		ldr	r5, .L601+24
 6941              	.LBB1402:
 128:/Users/reza.kalfane/Workspaces/Daisy/DaisyExamples/libDaisy/src/daisy_seed.h ****     }
 6942              		.loc 1 128 23 is_stmt 0 view .LVU2080
 6943 0582 0126     		movs	r6, #1
 6944 0584 47A9     		add	r1, sp, #284
 6945              	.LVL563:
 128:/Users/reza.kalfane/Workspaces/Daisy/DaisyExamples/libDaisy/src/daisy_seed.h ****     }
 6946              		.loc 1 128 23 view .LVU2081
 6947 0586 5648     		ldr	r0, .L601+28
 6948 0588 FFF7FEFF 		bl	_ZN5daisy6LoggerILNS_17LoggerDestinationE1EE9PrintLineEPKcz
 6949              	.LVL564:
 128:/Users/reza.kalfane/Workspaces/Daisy/DaisyExamples/libDaisy/src/daisy_seed.h ****     }
 6950              		.loc 1 128 23 view .LVU2082
 6951              	.LBE1402:
 6952              	.LBE1401:
1224:src/main.cpp  **** 
1225:src/main.cpp  ****         // Always print both finger rows ŌĆö inactive shows dashes so line count is stable
1226:src/main.cpp  ****         for(int slot=0;slot<2;slot++){
 6953              		.loc 6 1226 9 is_stmt 1 view .LVU2083
 6954              	.LBB1403:
 6955              		.loc 6 1226 28 view .LVU2084
 6956              	.L448:
1227:src/main.cpp  ****             if(tracked[slot].alive){
ARM GAS  /tmp/claude-502/ccb6uqMv.s 			page 185


 6957              		.loc 6 1227 13 view .LVU2085
 6958 058c 2B78     		ldrb	r3, [r5]	@ zero_extendqisi2
 6959 058e 002B     		cmp	r3, #0
 6960 0590 78D0     		beq	.L443
1228:src/main.cpp  ****                 make_bar(bar,tracked[slot].pressure,100,16);
 6961              		.loc 6 1228 17 view .LVU2086
 6962              		.loc 6 1228 25 is_stmt 0 view .LVU2087
 6963 0592 AB68     		ldr	r3, [r5, #8]
 6964              	.LVL565:
 6965              	.LBB1404:
 6966              	.LBI1404:
 771:src/main.cpp  **** {
 6967              		.loc 6 771 6 is_stmt 1 view .LVU2088
 6968              	.LBB1405:
 773:src/main.cpp  ****     if(n>w)n=w;
 6969              		.loc 6 773 5 view .LVU2089
 773:src/main.cpp  ****     if(n>w)n=w;
 6970              		.loc 6 773 25 is_stmt 0 view .LVU2090
 6971 0594 002B     		cmp	r3, #0
 6972 0596 7FDD     		ble	.L505
 773:src/main.cpp  ****     if(n>w)n=w;
 6973              		.loc 6 773 36 view .LVU2091
 6974 0598 1901     		lsls	r1, r3, #4
 773:src/main.cpp  ****     if(n>w)n=w;
 6975              		.loc 6 773 25 view .LVU2092
 6976 059a 524A     		ldr	r2, .L601+32
 773:src/main.cpp  ****     if(n>w)n=w;
 6977              		.loc 6 773 38 view .LVU2093
 6978 059c 3231     		adds	r1, r1, #50
 773:src/main.cpp  ****     if(n>w)n=w;
 6979              		.loc 6 773 25 view .LVU2094
 6980 059e A2FB0121 		umull	r2, r1, r2, r1
 6981 05a2 4909     		lsrs	r1, r1, #5
 6982 05a4 1029     		cmp	r1, #16
 6983 05a6 A8BF     		it	ge
 6984 05a8 1021     		movge	r1, #16
 6985              	.L444:
 774:src/main.cpp  ****     out[0]='[';
 6986              		.loc 6 774 5 is_stmt 1 view .LVU2095
 775:src/main.cpp  ****     for(int i=0;i<w;i++)out[1+i]=(i<n)?'#':' ';
 6987              		.loc 6 775 5 view .LVU2096
 775:src/main.cpp  ****     for(int i=0;i<w;i++)out[1+i]=(i<n)?'#':' ';
 6988              		.loc 6 775 11 is_stmt 0 view .LVU2097
 6989 05aa 5B22     		movs	r2, #91
 6990 05ac 0AF11107 		add	r7, r10, #17
 6991 05b0 8DF8A420 		strb	r2, [sp, #164]
 776:src/main.cpp  ****     out[1+w]=']';out[2+w]='\0';
 6992              		.loc 6 776 5 is_stmt 1 view .LVU2098
 6993              	.LVL566:
 6994              	.LBB1406:
 776:src/main.cpp  ****     out[1+w]=']';out[2+w]='\0';
 6995              		.loc 6 776 18 view .LVU2099
 6996              	.LBE1406:
 775:src/main.cpp  ****     for(int i=0;i<w;i++)out[1+i]=(i<n)?'#':' ';
 6997              		.loc 6 775 11 is_stmt 0 view .LVU2100
 6998 05b4 0DF1A502 		add	r2, sp, #165
 6999              	.LVL567:
ARM GAS  /tmp/claude-502/ccb6uqMv.s 			page 186


 7000              	.L446:
 7001              	.LBB1407:
 776:src/main.cpp  ****     out[1+w]=']';out[2+w]='\0';
 7002              		.loc 6 776 25 is_stmt 1 view .LVU2101
 776:src/main.cpp  ****     out[1+w]=']';out[2+w]='\0';
 7003              		.loc 6 776 39 is_stmt 0 view .LVU2102
 7004 05b8 1019     		adds	r0, r2, r4
 7005 05ba 8842     		cmp	r0, r1
 7006 05bc ACBF     		ite	ge
 7007 05be 2020     		movge	r0, #32
 7008 05c0 2320     		movlt	r0, #35
 776:src/main.cpp  ****     out[1+w]=']';out[2+w]='\0';
 7009              		.loc 6 776 33 view .LVU2103
 7010 05c2 02F8010B 		strb	r0, [r2], #1
 7011              	.LVL568:
 776:src/main.cpp  ****     out[1+w]=']';out[2+w]='\0';
 7012              		.loc 6 776 5 is_stmt 1 view .LVU2104
 776:src/main.cpp  ****     out[1+w]=']';out[2+w]='\0';
 7013              		.loc 6 776 18 view .LVU2105
 7014 05c6 9742     		cmp	r7, r2
 7015 05c8 F6D1     		bne	.L446
 7016              	.LBE1407:
 777:src/main.cpp  **** }
 7017              		.loc 6 777 5 view .LVU2106
 777:src/main.cpp  **** }
 7018              		.loc 6 777 13 is_stmt 0 view .LVU2107
 7019 05ca 5D22     		movs	r2, #93
 7020              	.LVL569:
 777:src/main.cpp  **** }
 7021              		.loc 6 777 13 view .LVU2108
 7022              	.LBE1405:
 7023              	.LBE1404:
 7024              	.LBB1411:
 7025              	.LBB1412:
 128:/Users/reza.kalfane/Workspaces/Daisy/DaisyExamples/libDaisy/src/daisy_seed.h ****     }
 7026              		.loc 1 128 23 view .LVU2109
 7027 05cc CDF800A0 		str	r10, [sp]
 7028 05d0 3146     		mov	r1, r6
 7029 05d2 4548     		ldr	r0, .L601+36
 7030              	.LBE1412:
 7031              	.LBE1411:
 7032              	.LBB1414:
 7033              	.LBB1408:
 777:src/main.cpp  **** }
 7034              		.loc 6 777 13 view .LVU2110
 7035 05d4 8DF8B520 		strb	r2, [sp, #181]
 777:src/main.cpp  **** }
 7036              		.loc 6 777 18 is_stmt 1 view .LVU2111
 777:src/main.cpp  **** }
 7037              		.loc 6 777 26 is_stmt 0 view .LVU2112
 7038 05d8 0022     		movs	r2, #0
 7039              	.LBE1408:
 7040              	.LBE1414:
1226:src/main.cpp  ****             if(tracked[slot].alive){
 7041              		.loc 6 1226 28 view .LVU2113
 7042 05da 1435     		adds	r5, r5, #20
 7043              	.LBB1415:
ARM GAS  /tmp/claude-502/ccb6uqMv.s 			page 187


 7044              	.LBB1409:
 777:src/main.cpp  **** }
 7045              		.loc 6 777 26 view .LVU2114
 7046 05dc 8DF8B620 		strb	r2, [sp, #182]
 7047              	.LVL570:
 777:src/main.cpp  **** }
 7048              		.loc 6 777 26 view .LVU2115
 7049              	.LBE1409:
 7050              	.LBE1415:
1229:src/main.cpp  ****                 hw.PrintLine("  %d  pos:%4d  prs:%3d%%  %s",
 7051              		.loc 6 1229 17 is_stmt 1 view .LVU2116
 7052              	.LBB1416:
 7053              	.LBI1411:
 126:/Users/reza.kalfane/Workspaces/Daisy/DaisyExamples/libDaisy/src/daisy_seed.h ****     {
 7054              		.loc 1 126 17 view .LVU2117
 7055              	.LBB1413:
 128:/Users/reza.kalfane/Workspaces/Daisy/DaisyExamples/libDaisy/src/daisy_seed.h ****     }
 7056              		.loc 1 128 23 is_stmt 0 view .LVU2118
 7057 05e0 55F8102C 		ldr	r2, [r5, #-16]
 7058 05e4 FFF7FEFF 		bl	_ZN5daisy6LoggerILNS_17LoggerDestinationE1EE9PrintLineEPKcz
 7059              	.LVL571:
 128:/Users/reza.kalfane/Workspaces/Daisy/DaisyExamples/libDaisy/src/daisy_seed.h ****     }
 7060              		.loc 1 128 23 view .LVU2119
 7061              	.LBE1413:
 7062              	.LBE1416:
1226:src/main.cpp  ****             if(tracked[slot].alive){
 7063              		.loc 6 1226 9 is_stmt 1 view .LVU2120
1226:src/main.cpp  ****             if(tracked[slot].alive){
 7064              		.loc 6 1226 28 view .LVU2121
 7065 05e8 022E     		cmp	r6, #2
 7066 05ea 53D1     		bne	.L507
 7067              	.LVL572:
 7068              	.L583:
1226:src/main.cpp  ****             if(tracked[slot].alive){
 7069              		.loc 6 1226 28 is_stmt 0 view .LVU2122
 7070              	.LBE1403:
1230:src/main.cpp  ****                     slot+1,(int)tracked[slot].pos,(int)tracked[slot].pressure,bar);
1231:src/main.cpp  ****             } else {
1232:src/main.cpp  ****                 hw.PrintLine("  %d  pos: ---  prs: --%%  [                ]",slot+1);
1233:src/main.cpp  ****             }
1234:src/main.cpp  ****         }
1235:src/main.cpp  **** 
1236:src/main.cpp  ****         // Audio param display ŌĆö fixed width, always same line count
1237:src/main.cpp  ****         int freq_i  = (int)g_target_freq;
 7071              		.loc 6 1237 9 is_stmt 1 view .LVU2123
 7072              		.loc 6 1237 23 is_stmt 0 view .LVU2124
 7073 05ec 3F4B     		ldr	r3, .L601+40
1238:src/main.cpp  ****         int cut_i   = (int)g_target_cutoff;
1239:src/main.cpp  ****         int det_i10 = (int)(g_target_detune*10);
 7074              		.loc 6 1239 44 view .LVU2125
 7075 05ee B2EE047A 		vmov.f32	s14, #1.0e+1
1240:src/main.cpp  ****         int bc_i    = (int)(g_bitcrush*100);
 7076              		.loc 6 1240 39 view .LVU2126
 7077 05f2 9FED3F5A 		vldr.32	s10, .L601+44
1237:src/main.cpp  ****         int cut_i   = (int)g_target_cutoff;
 7078              		.loc 6 1237 23 view .LVU2127
 7079 05f6 D3ED006A 		vldr.32	s13, [r3]
ARM GAS  /tmp/claude-502/ccb6uqMv.s 			page 188


1238:src/main.cpp  ****         int cut_i   = (int)g_target_cutoff;
 7080              		.loc 6 1238 23 view .LVU2128
 7081 05fa 3E4B     		ldr	r3, .L601+48
1237:src/main.cpp  ****         int cut_i   = (int)g_target_cutoff;
 7082              		.loc 6 1237 28 view .LVU2129
 7083 05fc FDEEE66A 		vcvt.s32.f32	s13, s13
1238:src/main.cpp  ****         int cut_i   = (int)g_target_cutoff;
 7084              		.loc 6 1238 23 view .LVU2130
 7085 0600 93ED006A 		vldr.32	s12, [r3]
1239:src/main.cpp  ****         int bc_i    = (int)(g_bitcrush*100);
 7086              		.loc 6 1239 29 view .LVU2131
 7087 0604 2F4B     		ldr	r3, .L601
1237:src/main.cpp  ****         int cut_i   = (int)g_target_cutoff;
 7088              		.loc 6 1237 28 view .LVU2132
 7089 0606 16EE901A 		vmov	r1, s13	@ int
 7090              	.LVL573:
1238:src/main.cpp  ****         int det_i10 = (int)(g_target_detune*10);
 7091              		.loc 6 1238 9 is_stmt 1 view .LVU2133
1239:src/main.cpp  ****         int bc_i    = (int)(g_bitcrush*100);
 7092              		.loc 6 1239 29 is_stmt 0 view .LVU2134
 7093 060a D3ED005A 		vldr.32	s11, [r3]
 7094              		.loc 6 1240 29 view .LVU2135
 7095 060e 2E4B     		ldr	r3, .L601+4
1239:src/main.cpp  ****         int bc_i    = (int)(g_bitcrush*100);
 7096              		.loc 6 1239 44 view .LVU2136
 7097 0610 65EE875A 		vmul.f32	s11, s11, s14
 7098              		.loc 6 1240 29 view .LVU2137
 7099 0614 D3ED007A 		vldr.32	s15, [r3]
1241:src/main.cpp  ****         int vib_i   = (int)(g_vibrato_depth*100);
 7100              		.loc 6 1241 29 view .LVU2138
 7101 0618 374B     		ldr	r3, .L601+52
1239:src/main.cpp  ****         int bc_i    = (int)(g_bitcrush*100);
 7102              		.loc 6 1239 47 view .LVU2139
 7103 061a FDEEE56A 		vcvt.s32.f32	s13, s11
 7104              		.loc 6 1241 29 view .LVU2140
 7105 061e 93ED007A 		vldr.32	s14, [r3]
1240:src/main.cpp  ****         int vib_i   = (int)(g_vibrato_depth*100);
 7106              		.loc 6 1240 39 view .LVU2141
 7107 0622 67EE857A 		vmul.f32	s15, s15, s10
1239:src/main.cpp  ****         int bc_i    = (int)(g_bitcrush*100);
 7108              		.loc 6 1239 47 view .LVU2142
 7109 0626 16EE900A 		vmov	r0, s13	@ int
 7110              		.loc 6 1241 44 view .LVU2143
 7111 062a 27EE057A 		vmul.f32	s14, s14, s10
1238:src/main.cpp  ****         int det_i10 = (int)(g_target_detune*10);
 7112              		.loc 6 1238 28 view .LVU2144
 7113 062e FDEEC66A 		vcvt.s32.f32	s13, s12
1242:src/main.cpp  ****         hw.PrintLine("  freq:%4dHz  cut:%5dHz  det:%c%d.%ds  fx:%2d%%  vib:%2d%%",
 7114              		.loc 6 1242 21 view .LVU2145
 7115 0632 0028     		cmp	r0, #0
1240:src/main.cpp  ****         int vib_i   = (int)(g_vibrato_depth*100);
 7116              		.loc 6 1240 43 view .LVU2146
 7117 0634 FDEEE77A 		vcvt.s32.f32	s15, s15
1241:src/main.cpp  ****         hw.PrintLine("  freq:%4dHz  cut:%5dHz  det:%c%d.%ds  fx:%2d%%  vib:%2d%%",
 7118              		.loc 6 1241 48 view .LVU2147
 7119 0638 BDEEC77A 		vcvt.s32.f32	s14, s14
1238:src/main.cpp  ****         int det_i10 = (int)(g_target_detune*10);
ARM GAS  /tmp/claude-502/ccb6uqMv.s 			page 189


 7120              		.loc 6 1238 28 view .LVU2148
 7121 063c 16EE902A 		vmov	r2, s13	@ int
 7122              	.LVL574:
1239:src/main.cpp  ****         int bc_i    = (int)(g_bitcrush*100);
 7123              		.loc 6 1239 9 is_stmt 1 view .LVU2149
1240:src/main.cpp  ****         int vib_i   = (int)(g_vibrato_depth*100);
 7124              		.loc 6 1240 9 view .LVU2150
1241:src/main.cpp  ****         hw.PrintLine("  freq:%4dHz  cut:%5dHz  det:%c%d.%ds  fx:%2d%%  vib:%2d%%",
 7125              		.loc 6 1241 9 view .LVU2151
 7126              		.loc 6 1242 9 view .LVU2152
 7127              		.loc 6 1242 21 is_stmt 0 view .LVU2153
 7128 0640 2FDB     		blt	.L582
 7129 0642 2E4B     		ldr	r3, .L601+56
 7130 0644 C517     		asrs	r5, r0, #31
 7131 0646 83FB0043 		smull	r4, r3, r3, r0
 7132 064a C5EBA305 		rsb	r5, r5, r3, asr #2
 7133 064e 2B23     		movs	r3, #43
 7134 0650 05EB8504 		add	r4, r5, r5, lsl #2
 7135 0654 A0EB4404 		sub	r4, r0, r4, lsl #1
 7136              	.LVL575:
 7137              	.L452:
 7138              	.LBB1420:
 7139              	.LBI1420:
 126:/Users/reza.kalfane/Workspaces/Daisy/DaisyExamples/libDaisy/src/daisy_seed.h ****     {
 7140              		.loc 1 126 17 is_stmt 1 discriminator 12 view .LVU2154
 7141              	.LBE1420:
1019:src/main.cpp  ****         if(f1_on) f1_last_seen_ms = System::GetNow();
 7142              		.loc 6 1019 14 is_stmt 0 discriminator 12 view .LVU2155
 7143 0658 0698     		ldr	r0, [sp, #24]
 7144              	.LBB1423:
 7145              	.LBB1421:
 128:/Users/reza.kalfane/Workspaces/Daisy/DaisyExamples/libDaisy/src/daisy_seed.h ****     }
 7146              		.loc 1 128 23 discriminator 12 view .LVU2156
 7147 065a 8DED037A 		vstr.32	s14, [sp, #12]	@ int
 7148 065e CDED027A 		vstr.32	s15, [sp, #8]	@ int
 7149              	.LBE1421:
 7150              	.LBE1423:
1019:src/main.cpp  ****         if(f1_on) f1_last_seen_ms = System::GetNow();
 7151              		.loc 6 1019 14 discriminator 12 view .LVU2157
 7152 0662 0590     		str	r0, [sp, #20]
 7153              	.LBB1424:
 7154              	.LBB1422:
 128:/Users/reza.kalfane/Workspaces/Daisy/DaisyExamples/libDaisy/src/daisy_seed.h ****     }
 7155              		.loc 1 128 23 discriminator 12 view .LVU2158
 7156 0664 2648     		ldr	r0, .L601+60
 7157 0666 CDE90054 		strd	r5, r4, [sp]
 7158 066a FFF7FEFF 		bl	_ZN5daisy6LoggerILNS_17LoggerDestinationE1EE9PrintLineEPKcz
 7159              	.LVL576:
 128:/Users/reza.kalfane/Workspaces/Daisy/DaisyExamples/libDaisy/src/daisy_seed.h ****     }
 7160              		.loc 1 128 23 discriminator 12 view .LVU2159
 7161              	.LBE1422:
 7162              	.LBE1424:
1243:src/main.cpp  ****             freq_i, cut_i,
1244:src/main.cpp  ****             det_i10<0?'-':'+',
1245:src/main.cpp  ****             det_i10<0?(-det_i10)/10:det_i10/10,
1246:src/main.cpp  ****             det_i10<0?(-det_i10)%10:det_i10%10,
1247:src/main.cpp  ****             bc_i, vib_i);
ARM GAS  /tmp/claude-502/ccb6uqMv.s 			page 190


1248:src/main.cpp  ****         hw.PrintLine("--------------------------------------------");
 7163              		.loc 6 1248 9 is_stmt 1 discriminator 12 view .LVU2160
 7164              	.LBB1425:
 7165              	.LBI1425:
 126:/Users/reza.kalfane/Workspaces/Daisy/DaisyExamples/libDaisy/src/daisy_seed.h ****     {
 7166              		.loc 1 126 17 discriminator 12 view .LVU2161
 7167              	.LBB1426:
 128:/Users/reza.kalfane/Workspaces/Daisy/DaisyExamples/libDaisy/src/daisy_seed.h ****     }
 7168              		.loc 1 128 23 is_stmt 0 discriminator 12 view .LVU2162
 7169 066e 2548     		ldr	r0, .L601+64
 7170 0670 FFF7FEFF 		bl	_ZN5daisy6LoggerILNS_17LoggerDestinationE1EE9PrintLineEPKcz
 7171              	.LVL577:
 128:/Users/reza.kalfane/Workspaces/Daisy/DaisyExamples/libDaisy/src/daisy_seed.h ****     }
 7172              		.loc 1 128 23 discriminator 12 view .LVU2163
 7173              	.LBE1426:
 7174              	.LBE1425:
1249:src/main.cpp  **** 
1250:src/main.cpp  ****         System::Delay(60);
 7175              		.loc 6 1250 9 is_stmt 1 discriminator 12 view .LVU2164
 7176              		.loc 6 1250 22 is_stmt 0 discriminator 12 view .LVU2165
 7177 0674 3C20     		movs	r0, #60
 7178 0676 FFF7FEFF 		bl	_ZN5daisy6System5DelayEm
 7179              	.LVL578:
 7180 067a 8FE5     		b	.L451
 7181              	.LVL579:
 7182              	.L500:
 7183              	.LBB1427:
 7184              	.LBB1381:
1216:src/main.cpp  ****             for(int s=0;s<2;s++)
 7185              		.loc 6 1216 18 view .LVU2166
 7186 067c 2023     		movs	r3, #32
 7187 067e 29E7     		b	.L435
 7188              	.LVL580:
 7189              	.L498:
 7190              	.LBB1378:
 7191              	.LBB1367:
1216:src/main.cpp  ****             for(int s=0;s<2;s++)
 7192              		.loc 6 1216 18 view .LVU2167
 7193 0680 0020     		movs	r0, #0
 7194 0682 06E7     		b	.L432
 7195              	.LVL581:
 7196              	.L443:
1216:src/main.cpp  ****             for(int s=0;s<2;s++)
 7197              		.loc 6 1216 18 view .LVU2168
 7198              	.LBE1367:
 7199              	.LBE1378:
 7200              	.LBE1381:
 7201              	.LBE1427:
 7202              	.LBB1428:
1232:src/main.cpp  ****             }
 7203              		.loc 6 1232 17 is_stmt 1 view .LVU2169
 7204              	.LBB1417:
 7205              	.LBI1417:
 126:/Users/reza.kalfane/Workspaces/Daisy/DaisyExamples/libDaisy/src/daisy_seed.h ****     {
 7206              		.loc 1 126 17 view .LVU2170
 7207              	.LBB1418:
 128:/Users/reza.kalfane/Workspaces/Daisy/DaisyExamples/libDaisy/src/daisy_seed.h ****     }
ARM GAS  /tmp/claude-502/ccb6uqMv.s 			page 191


 7208              		.loc 1 128 23 is_stmt 0 view .LVU2171
 7209 0684 3146     		mov	r1, r6
 7210 0686 2048     		ldr	r0, .L601+68
 7211 0688 FFF7FEFF 		bl	_ZN5daisy6LoggerILNS_17LoggerDestinationE1EE9PrintLineEPKcz
 7212              	.LVL582:
 128:/Users/reza.kalfane/Workspaces/Daisy/DaisyExamples/libDaisy/src/daisy_seed.h ****     }
 7213              		.loc 1 128 23 view .LVU2172
 7214              	.LBE1418:
 7215              	.LBE1417:
1226:src/main.cpp  ****             if(tracked[slot].alive){
 7216              		.loc 6 1226 9 is_stmt 1 view .LVU2173
1226:src/main.cpp  ****             if(tracked[slot].alive){
 7217              		.loc 6 1226 28 view .LVU2174
 7218 068c 022E     		cmp	r6, #2
 7219 068e 05F11405 		add	r5, r5, #20
 7220 0692 ABD0     		beq	.L583
 7221              	.LVL583:
 7222              	.L507:
1226:src/main.cpp  ****             if(tracked[slot].alive){
 7223              		.loc 6 1226 28 is_stmt 0 view .LVU2175
 7224 0694 0226     		movs	r6, #2
 7225 0696 79E7     		b	.L448
 7226              	.LVL584:
 7227              	.L505:
 7228              	.LBB1419:
 7229              	.LBB1410:
1226:src/main.cpp  ****             if(tracked[slot].alive){
 7230              		.loc 6 1226 28 view .LVU2176
 7231 0698 0021     		movs	r1, #0
 7232 069a 86E7     		b	.L444
 7233              	.LVL585:
 7234              	.L471:
1226:src/main.cpp  ****             if(tracked[slot].alive){
 7235              		.loc 6 1226 28 view .LVU2177
 7236              	.LBE1410:
 7237              	.LBE1419:
 7238              	.LBE1428:
 977:src/main.cpp  ****         else if(fsr_raw >= fsr_max) vol = 1.0f;
 7239              		.loc 6 977 41 view .LVU2178
 7240 069c DFED1B7A 		vldr.32	s15, .L601+72
 7241 06a0 90E5     		b	.L342
 7242              	.LVL586:
 7243              	.L582:
1246:src/main.cpp  ****             bc_i, vib_i);
 7244              		.loc 6 1246 24 view .LVU2179
 7245 06a2 4342     		rsbs	r3, r0, #0
1242:src/main.cpp  ****             freq_i, cut_i,
 7246              		.loc 6 1242 21 view .LVU2180
 7247 06a4 1A4C     		ldr	r4, .L601+76
 7248 06a6 A4FB0354 		umull	r5, r4, r4, r3
 7249 06aa E408     		lsrs	r4, r4, #3
 7250 06ac 04EB8404 		add	r4, r4, r4, lsl #2
 7251 06b0 A3EB4404 		sub	r4, r3, r4, lsl #1
 7252 06b4 114B     		ldr	r3, .L601+56
 7253 06b6 83FB0053 		smull	r5, r3, r3, r0
 7254 06ba C017     		asrs	r0, r0, #31
 7255              	.LVL587:
ARM GAS  /tmp/claude-502/ccb6uqMv.s 			page 192


1242:src/main.cpp  ****             freq_i, cut_i,
 7256              		.loc 6 1242 21 view .LVU2181
 7257 06bc A0EBA305 		sub	r5, r0, r3, asr #2
 7258 06c0 2D23     		movs	r3, #45
 7259 06c2 C9E7     		b	.L452
 7260              	.L602:
 7261              		.align	2
 7262              	.L601:
 7263 06c4 00000000 		.word	.LANCHOR3
 7264 06c8 00000000 		.word	.LANCHOR6
 7265 06cc 00000000 		.word	.LANCHOR7
 7266 06d0 E8000000 		.word	.LC10
 7267 06d4 FC000000 		.word	.LC11
 7268 06d8 20010000 		.word	.LC12
 7269 06dc 00000000 		.word	.LANCHOR40
 7270 06e0 34010000 		.word	.LC13
 7271 06e4 1F85EB51 		.word	1374389535
 7272 06e8 40010000 		.word	.LC14
 7273 06ec 00000000 		.word	.LANCHOR1
 7274 06f0 0000C842 		.word	1120403456
 7275 06f4 00000000 		.word	.LANCHOR2
 7276 06f8 00000000 		.word	.LANCHOR5
 7277 06fc 67666666 		.word	1717986919
 7278 0700 90010000 		.word	.LC16
 7279 0704 CC010000 		.word	.LC17
 7280 0708 60010000 		.word	.LC15
 7281 070c 00000000 		.word	0
 7282 0710 CDCCCCCC 		.word	-858993459
 7283              	.LVL588:
 7284              	.L346:
 998:src/main.cpp  ****                 tracked[0].alive=tracked[1].alive=false;
 7285              		.loc 6 998 13 is_stmt 1 view .LVU2182
 998:src/main.cpp  ****                 tracked[0].alive=tracked[1].alive=false;
 7286              		.loc 6 998 30 is_stmt 0 view .LVU2183
 7287 0714 FFF7FEFF 		bl	_ZN5daisy6System6GetNowEv
 7288              	.LVL589:
 998:src/main.cpp  ****                 tracked[0].alive=tracked[1].alive=false;
 7289              		.loc 6 998 32 view .LVU2184
 7290 0718 089B     		ldr	r3, [sp, #32]
 7291 071a C01A     		subs	r0, r0, r3
 998:src/main.cpp  ****                 tracked[0].alive=tracked[1].alive=false;
 7292              		.loc 6 998 13 view .LVU2185
 7293 071c B0F5FA6F 		cmp	r0, #2000
 7294 0720 80F02B83 		bcs	.L584
 7295              	.L348:
1007:src/main.cpp  ****             last_touch_ms = System::GetNow();
 7296              		.loc 6 1007 9 is_stmt 1 view .LVU2186
1009:src/main.cpp  ****             idle_chase_and_calibrate();
 7297              		.loc 6 1009 16 view .LVU2187
1009:src/main.cpp  ****             idle_chase_and_calibrate();
 7298              		.loc 6 1009 33 is_stmt 0 view .LVU2188
 7299 0724 FFF7FEFF 		bl	_ZN5daisy6System6GetNowEv
 7300              	.LVL590:
1009:src/main.cpp  ****             idle_chase_and_calibrate();
 7301              		.loc 6 1009 36 view .LVU2189
 7302 0728 099B     		ldr	r3, [sp, #36]
 7303 072a C01A     		subs	r0, r0, r3
ARM GAS  /tmp/claude-502/ccb6uqMv.s 			page 193


1009:src/main.cpp  ****             idle_chase_and_calibrate();
 7304              		.loc 6 1009 16 view .LVU2190
 7305 072c 41F28733 		movw	r3, #4999
 7306 0730 9842     		cmp	r0, r3
 7307 0732 7FF6ADAD 		bls	.L347
1010:src/main.cpp  ****             last_touch_ms = System::GetNow();
 7308              		.loc 6 1010 13 is_stmt 1 view .LVU2191
 7309              	.LVL591:
 7310              	.LBB1429:
 7311              	.LBI1429:
 866:src/main.cpp  ****         uint32_t start = System::GetNow();
 7312              		.loc 6 866 37 view .LVU2192
 7313              	.LBB1430:
 7314              	.LBB1431:
 867:src/main.cpp  ****         uint32_t acc = 0; int n = 0;
 7315              		.loc 6 867 9 view .LVU2193
 869:src/main.cpp  ****         constexpr uint32_t SWEEP_PERIOD_MS = 12000;  // one 0ŌåÆ1ŌåÆ0 cycle
 7316              		.loc 6 869 18 is_stmt 0 view .LVU2194
 7317 0736 0023     		movs	r3, #0
 868:src/main.cpp  ****         bool     calibrated = false;
 7318              		.loc 6 868 18 view .LVU2195
 7319 0738 0CEE105A 		vmov	s24, r5	@ int
 869:src/main.cpp  ****         constexpr uint32_t SWEEP_PERIOD_MS = 12000;  // one 0ŌåÆ1ŌåÆ0 cycle
 7320              		.loc 6 869 18 view .LVU2196
 7321 073c 1C46     		mov	r4, r3
 867:src/main.cpp  ****         uint32_t acc = 0; int n = 0;
 7322              		.loc 6 867 40 view .LVU2197
 7323 073e FFF7FEFF 		bl	_ZN5daisy6System6GetNowEv
 7324              	.LVL592:
 868:src/main.cpp  ****         bool     calibrated = false;
 7325              		.loc 6 868 9 is_stmt 1 view .LVU2198
 868:src/main.cpp  ****         bool     calibrated = false;
 7326              		.loc 6 868 27 view .LVU2199
 869:src/main.cpp  ****         constexpr uint32_t SWEEP_PERIOD_MS = 12000;  // one 0ŌåÆ1ŌåÆ0 cycle
 7327              		.loc 6 869 9 view .LVU2200
 870:src/main.cpp  ****         constexpr float    TAU             = 6.2831853f;
 7328              		.loc 6 870 9 view .LVU2201
 871:src/main.cpp  ****         uint16_t scan[N_CH];
 7329              		.loc 6 871 9 view .LVU2202
 868:src/main.cpp  ****         bool     calibrated = false;
 7330              		.loc 6 868 18 is_stmt 0 view .LVU2203
 7331 0742 0B97     		str	r7, [sp, #44]
 7332 0744 0746     		mov	r7, r0
 7333 0746 079D     		ldr	r5, [sp, #28]
 7334              	.LVL593:
 868:src/main.cpp  ****         bool     calibrated = false;
 7335              		.loc 6 868 31 view .LVU2204
 7336 0748 0694     		str	r4, [sp, #24]
 868:src/main.cpp  ****         bool     calibrated = false;
 7337              		.loc 6 868 18 view .LVU2205
 7338 074a CDE90846 		strd	r4, r6, [sp, #32]
 7339              	.LVL594:
 868:src/main.cpp  ****         bool     calibrated = false;
 7340              		.loc 6 868 18 view .LVU2206
 7341 074e 2646     		mov	r6, r4
 7342              	.LVL595:
 7343              	.L375:
ARM GAS  /tmp/claude-502/ccb6uqMv.s 			page 194


 872:src/main.cpp  **** 
 7344              		.loc 6 872 9 is_stmt 1 view .LVU2207
 874:src/main.cpp  ****             uint32_t elapsed = System::GetNow() - start;
 7345              		.loc 6 874 9 view .LVU2208
 7346              	.LBB1432:
 875:src/main.cpp  **** 
 7347              		.loc 6 875 13 view .LVU2209
 875:src/main.cpp  **** 
 7348              		.loc 6 875 46 is_stmt 0 view .LVU2210
 7349 0750 FFF7FEFF 		bl	_ZN5daisy6System6GetNowEv
 7350              	.LVL596:
 879:src/main.cpp  ****             float p01   = 0.5f * (1.0f - cosf(phase * TAU));
 7351              		.loc 6 879 43 view .LVU2211
 7352 0754 6B4B     		ldr	r3, .L603
 875:src/main.cpp  **** 
 7353              		.loc 6 875 51 view .LVU2212
 7354 0756 C41B     		subs	r4, r0, r7
 7355              	.LVL597:
 879:src/main.cpp  ****             float p01   = 0.5f * (1.0f - cosf(phase * TAU));
 7356              		.loc 6 879 13 is_stmt 1 view .LVU2213
 880:src/main.cpp  **** 
 7357              		.loc 6 880 13 view .LVU2214
 879:src/main.cpp  ****             float p01   = 0.5f * (1.0f - cosf(phase * TAU));
 7358              		.loc 6 879 19 is_stmt 0 view .LVU2215
 7359 0758 DFED6B6A 		vldr.32	s13, .L603+4
 880:src/main.cpp  **** 
 7360              		.loc 6 880 46 view .LVU2216
 7361 075c 9FED6B7A 		vldr.32	s14, .L603+8
 880:src/main.cpp  **** 
 7362              		.loc 6 880 40 view .LVU2217
 7363 0760 F7EE008A 		vmov.f32	s17, #1.0e+0
 879:src/main.cpp  ****             float p01   = 0.5f * (1.0f - cosf(phase * TAU));
 7364              		.loc 6 879 43 view .LVU2218
 7365 0764 A3FB0423 		umull	r2, r3, r3, r4
 7366 0768 42F6E062 		movw	r2, #12000
 7367 076c 1B0A     		lsrs	r3, r3, #8
 7368 076e 02FB1343 		mls	r3, r2, r3, r4
 879:src/main.cpp  ****             float p01   = 0.5f * (1.0f - cosf(phase * TAU));
 7369              		.loc 6 879 27 view .LVU2219
 7370 0772 07EE903A 		vmov	s15, r3	@ int
 7371 0776 F8EEE77A 		vcvt.f32.s32	s15, s15
 879:src/main.cpp  ****             float p01   = 0.5f * (1.0f - cosf(phase * TAU));
 7372              		.loc 6 879 19 view .LVU2220
 7373 077a 87EEA60A 		vdiv.f32	s0, s15, s13
 880:src/main.cpp  **** 
 7374              		.loc 6 880 46 view .LVU2221
 7375 077e 20EE070A 		vmul.f32	s0, s0, s14
 7376 0782 FFF7FEFF 		bl	cosf
 7377              	.LVL598:
 880:src/main.cpp  **** 
 7378              		.loc 6 880 19 view .LVU2222
 7379 0786 F6EE007A 		vmov.f32	s15, #5.0e-1
 880:src/main.cpp  **** 
 7380              		.loc 6 880 40 view .LVU2223
 7381 078a 38EEC00A 		vsub.f32	s0, s17, s0
 885:src/main.cpp  ****             float led1   = sqrtf(sqrtf(l2_raw));              // middle (DAC1)
 7382              		.loc 6 885 52 view .LVU2224
ARM GAS  /tmp/claude-502/ccb6uqMv.s 			page 195


 7383 078e B6EE006A 		vmov.f32	s12, #5.0e-1
 884:src/main.cpp  ****             float l2_raw = 1.0f - 2.0f * fabsf(p01 - 0.5f);   if(l2_raw < 0) l2_raw = 0;
 7384              		.loc 6 884 19 view .LVU2225
 7385 0792 B7EE007A 		vmov.f32	s14, #1.0e+0
 880:src/main.cpp  **** 
 7386              		.loc 6 880 19 view .LVU2226
 7387 0796 60EE277A 		vmul.f32	s15, s0, s15
 7388              	.LVL599:
 883:src/main.cpp  ****             float l3_raw = 2.0f * p01 - 1.0f;                 if(l3_raw < 0) l3_raw = 0;
 7389              		.loc 6 883 13 is_stmt 1 view .LVU2227
 885:src/main.cpp  ****             float led1   = sqrtf(sqrtf(l2_raw));              // middle (DAC1)
 7390              		.loc 6 885 19 is_stmt 0 view .LVU2228
 7391 079a F0EE006A 		vmov.f32	s13, #2.0e+0
 883:src/main.cpp  ****             float l3_raw = 2.0f * p01 - 1.0f;                 if(l3_raw < 0) l3_raw = 0;
 7392              		.loc 6 883 40 view .LVU2229
 7393 079e 37EEA78A 		vadd.f32	s16, s15, s15
 885:src/main.cpp  ****             float led1   = sqrtf(sqrtf(l2_raw));              // middle (DAC1)
 7394              		.loc 6 885 52 view .LVU2230
 7395 07a2 77EEC67A 		vsub.f32	s15, s15, s12
 7396              	.LVL600:
 883:src/main.cpp  ****             float l3_raw = 2.0f * p01 - 1.0f;                 if(l3_raw < 0) l3_raw = 0;
 7397              		.loc 6 883 19 view .LVU2231
 7398 07a6 78EEC88A 		vsub.f32	s17, s17, s16
 7399              	.LVL601:
 883:src/main.cpp  ****             float l3_raw = 2.0f * p01 - 1.0f;                 if(l3_raw < 0) l3_raw = 0;
 7400              		.loc 6 883 63 is_stmt 1 view .LVU2232
 885:src/main.cpp  ****             float led1   = sqrtf(sqrtf(l2_raw));              // middle (DAC1)
 7401              		.loc 6 885 47 is_stmt 0 view .LVU2233
 7402 07aa F0EEE77A 		vabs.f32	s15, s15
 884:src/main.cpp  ****             float l2_raw = 1.0f - 2.0f * fabsf(p01 - 0.5f);   if(l2_raw < 0) l2_raw = 0;
 7403              		.loc 6 884 19 view .LVU2234
 7404 07ae 38EE478A 		vsub.f32	s16, s16, s14
 885:src/main.cpp  ****             float led1   = sqrtf(sqrtf(l2_raw));              // middle (DAC1)
 7405              		.loc 6 885 19 view .LVU2235
 7406 07b2 B7EE007A 		vmov.f32	s14, #1.0e+0
 883:src/main.cpp  ****             float l3_raw = 2.0f * p01 - 1.0f;                 if(l3_raw < 0) l3_raw = 0;
 7407              		.loc 6 883 63 view .LVU2236
 7408 07b6 F5EEC08A 		vcmpe.f32	s17, #0
 885:src/main.cpp  ****             float led1   = sqrtf(sqrtf(l2_raw));              // middle (DAC1)
 7409              		.loc 6 885 19 view .LVU2237
 7410 07ba A7EEE67A 		vfms.f32	s14, s15, s13
 883:src/main.cpp  ****             float l3_raw = 2.0f * p01 - 1.0f;                 if(l3_raw < 0) l3_raw = 0;
 7411              		.loc 6 883 63 view .LVU2238
 7412 07be F1EE10FA 		vmrs	APSR_nzcv, FPSCR
 884:src/main.cpp  ****             float l2_raw = 1.0f - 2.0f * fabsf(p01 - 0.5f);   if(l2_raw < 0) l2_raw = 0;
 7413              		.loc 6 884 63 view .LVU2239
 7414 07c2 B5EEC08A 		vcmpe.f32	s16, #0
 883:src/main.cpp  ****             float l3_raw = 2.0f * p01 - 1.0f;                 if(l3_raw < 0) l3_raw = 0;
 7415              		.loc 6 883 85 view .LVU2240
 7416 07c6 48BF     		it	mi
 7417 07c8 DFED598A 		vldrmi.32	s17, .L603+44
 7418              	.LVL602:
 884:src/main.cpp  ****             float l2_raw = 1.0f - 2.0f * fabsf(p01 - 0.5f);   if(l2_raw < 0) l2_raw = 0;
 7419              		.loc 6 884 13 is_stmt 1 view .LVU2241
 884:src/main.cpp  ****             float l2_raw = 1.0f - 2.0f * fabsf(p01 - 0.5f);   if(l2_raw < 0) l2_raw = 0;
 7420              		.loc 6 884 63 view .LVU2242
 7421 07cc F1EE10FA 		vmrs	APSR_nzcv, FPSCR
ARM GAS  /tmp/claude-502/ccb6uqMv.s 			page 196


 885:src/main.cpp  ****             float led1   = sqrtf(sqrtf(l2_raw));              // middle (DAC1)
 7422              		.loc 6 885 63 is_stmt 0 view .LVU2243
 7423 07d0 B5EEC07A 		vcmpe.f32	s14, #0
 884:src/main.cpp  ****             float l2_raw = 1.0f - 2.0f * fabsf(p01 - 0.5f);   if(l2_raw < 0) l2_raw = 0;
 7424              		.loc 6 884 85 view .LVU2244
 7425 07d4 48BF     		it	mi
 7426 07d6 9FED568A 		vldrmi.32	s16, .L603+44
 7427              	.LVL603:
 885:src/main.cpp  ****             float led1   = sqrtf(sqrtf(l2_raw));              // middle (DAC1)
 7428              		.loc 6 885 13 is_stmt 1 view .LVU2245
 885:src/main.cpp  ****             float led1   = sqrtf(sqrtf(l2_raw));              // middle (DAC1)
 7429              		.loc 6 885 63 view .LVU2246
 7430 07da F1EE10FA 		vmrs	APSR_nzcv, FPSCR
 7431 07de 66D4     		bmi	.L473
 886:src/main.cpp  ****             float led2   = sqrtf(sqrtf(l1_raw));              // pos 0  (DAC2)
 7432              		.loc 6 886 13 view .LVU2247
 7433 07e0 B5EE407A 		vcmp.f32	s14, #0
 7434 07e4 F1EE10FA 		vmrs	APSR_nzcv, FPSCR
 7435 07e8 00F13784 		bmi	.L585
 7436              	.LVL604:
 7437              	.L353:
 886:src/main.cpp  ****             float led2   = sqrtf(sqrtf(l1_raw));              // pos 0  (DAC2)
 7438              		.loc 6 886 33 is_stmt 0 view .LVU2248
 7439 07ec B1EEC70A 		vsqrt.f32	s0, s14
 7440              	.LVL605:
 7441              	.L356:
 886:src/main.cpp  ****             float led2   = sqrtf(sqrtf(l1_raw));              // pos 0  (DAC2)
 7442              		.loc 6 886 33 view .LVU2249
 7443 07f0 B5EE400A 		vcmp.f32	s0, #0
 7444 07f4 F1EE10FA 		vmrs	APSR_nzcv, FPSCR
 7445 07f8 00F13584 		bmi	.L550
 7446 07fc B1EEC0BA 		vsqrt.f32	s22, s0
 7447              	.L359:
 887:src/main.cpp  ****             float led3   = sqrtf(sqrtf(l3_raw)) * LED3_INTENSITY; // pos 1 (PWM A0)
 7448              		.loc 6 887 13 is_stmt 1 view .LVU2250
 7449 0800 F5EE408A 		vcmp.f32	s17, #0
 7450 0804 F1EE10FA 		vmrs	APSR_nzcv, FPSCR
 7451 0808 00F13384 		bmi	.L551
 887:src/main.cpp  ****             float led3   = sqrtf(sqrtf(l3_raw)) * LED3_INTENSITY; // pos 1 (PWM A0)
 7452              		.loc 6 887 33 is_stmt 0 view .LVU2251
 7453 080c B1EEE80A 		vsqrt.f32	s0, s17
 7454              	.L362:
 7455 0810 B5EE400A 		vcmp.f32	s0, #0
 7456 0814 F1EE10FA 		vmrs	APSR_nzcv, FPSCR
 7457 0818 00F13184 		bmi	.L552
 7458 081c F1EEC08A 		vsqrt.f32	s17, s0
 7459              	.LVL606:
 7460              	.L365:
 888:src/main.cpp  ****             hw.dac.WriteValue(DacHandle::Channel::ONE, (uint16_t)(led1 * 4095.0f));
 7461              		.loc 6 888 13 is_stmt 1 view .LVU2252
 7462 0820 B5EE408A 		vcmp.f32	s16, #0
 7463 0824 F1EE10FA 		vmrs	APSR_nzcv, FPSCR
 7464 0828 00F12F84 		bmi	.L553
 888:src/main.cpp  ****             hw.dac.WriteValue(DacHandle::Channel::ONE, (uint16_t)(led1 * 4095.0f));
 7465              		.loc 6 888 33 is_stmt 0 view .LVU2253
 7466 082c B1EEC80A 		vsqrt.f32	s0, s16
 7467              	.L368:
ARM GAS  /tmp/claude-502/ccb6uqMv.s 			page 197


 7468 0830 B5EE400A 		vcmp.f32	s0, #0
 7469 0834 F1EE10FA 		vmrs	APSR_nzcv, FPSCR
 7470 0838 00F12D84 		bmi	.L554
 7471 083c B1EEC07A 		vsqrt.f32	s14, s0
 7472              	.L371:
 889:src/main.cpp  ****             hw.dac.WriteValue(DacHandle::Channel::TWO, (uint16_t)(led2 * 4095.0f));
 7473              		.loc 6 889 72 view .LVU2254
 7474 0840 DFED33BA 		vldr.32	s23, .L603+12
 889:src/main.cpp  ****             hw.dac.WriteValue(DacHandle::Channel::TWO, (uint16_t)(led2 * 4095.0f));
 7475              		.loc 6 889 30 view .LVU2255
 7476 0844 0021     		movs	r1, #0
 888:src/main.cpp  ****             hw.dac.WriteValue(DacHandle::Channel::ONE, (uint16_t)(led1 * 4095.0f));
 7477              		.loc 6 888 51 view .LVU2256
 7478 0846 9FED338A 		vldr.32	s16, .L603+16
 7479              	.LVL607:
 889:src/main.cpp  ****             hw.dac.WriteValue(DacHandle::Channel::TWO, (uint16_t)(led2 * 4095.0f));
 7480              		.loc 6 889 30 view .LVU2257
 7481 084a 3348     		ldr	r0, .L603+20
 889:src/main.cpp  ****             hw.dac.WriteValue(DacHandle::Channel::TWO, (uint16_t)(led2 * 4095.0f));
 7482              		.loc 6 889 72 view .LVU2258
 7483 084c 6BEE2B7A 		vmul.f32	s15, s22, s23
 888:src/main.cpp  ****             hw.dac.WriteValue(DacHandle::Channel::ONE, (uint16_t)(led1 * 4095.0f));
 7484              		.loc 6 888 51 view .LVU2259
 7485 0850 27EE088A 		vmul.f32	s16, s14, s16
 7486              	.LVL608:
 889:src/main.cpp  ****             hw.dac.WriteValue(DacHandle::Channel::TWO, (uint16_t)(led2 * 4095.0f));
 7487              		.loc 6 889 13 is_stmt 1 view .LVU2260
 889:src/main.cpp  ****             hw.dac.WriteValue(DacHandle::Channel::TWO, (uint16_t)(led2 * 4095.0f));
 7488              		.loc 6 889 30 is_stmt 0 view .LVU2261
 7489 0854 FCEEE77A 		vcvt.u32.f32	s15, s15
 7490 0858 17EE903A 		vmov	r3, s15	@ int
 7491 085c 9AB2     		uxth	r2, r3
 7492 085e FFF7FEFF 		bl	_ZN5daisy9DacHandle10WriteValueENS0_7ChannelEt
 7493              	.LVL609:
 890:src/main.cpp  ****             g_led3_duty = led3;
 7494              		.loc 6 890 13 is_stmt 1 view .LVU2262
 890:src/main.cpp  ****             g_led3_duty = led3;
 7495              		.loc 6 890 72 is_stmt 0 view .LVU2263
 7496 0862 68EEAB7A 		vmul.f32	s15, s17, s23
 890:src/main.cpp  ****             g_led3_duty = led3;
 7497              		.loc 6 890 30 view .LVU2264
 7498 0866 0121     		movs	r1, #1
 7499 0868 2B48     		ldr	r0, .L603+20
 7500 086a FCEEE77A 		vcvt.u32.f32	s15, s15
 7501 086e 17EE903A 		vmov	r3, s15	@ int
 7502 0872 9AB2     		uxth	r2, r3
 7503 0874 FFF7FEFF 		bl	_ZN5daisy9DacHandle10WriteValueENS0_7ChannelEt
 7504              	.LVL610:
 891:src/main.cpp  **** 
 7505              		.loc 6 891 13 is_stmt 1 view .LVU2265
 891:src/main.cpp  **** 
 7506              		.loc 6 891 25 is_stmt 0 view .LVU2266
 7507 0878 284B     		ldr	r3, .L603+24
 7508 087a 83ED008A 		vstr.32	s16, [r3]
 894:src/main.cpp  ****                 acc += hw.adc.Get(0);
 7509              		.loc 6 894 13 is_stmt 1 view .LVU2267
 7510 087e CEB1     		cbz	r6, .L586
ARM GAS  /tmp/claude-502/ccb6uqMv.s 			page 198


 7511              	.LVL611:
 7512              	.L372:
 904:src/main.cpp  ****             int32_t max_d = 0;
 7513              		.loc 6 904 13 view .LVU2268
 904:src/main.cpp  ****             int32_t max_d = 0;
 7514              		.loc 6 904 28 is_stmt 0 view .LVU2269
 7515 0880 23A8     		add	r0, sp, #140
 7516 0882 FFF7FEFF 		bl	_Z15read_electrodesPt
 7517              	.LVL612:
 905:src/main.cpp  ****             for(int i = 0; i < N_CH; i++) {
 7518              		.loc 6 905 13 is_stmt 1 view .LVU2270
 906:src/main.cpp  ****                 int32_t d = (int32_t)baseline[i] - (int32_t)scan[i];
 7519              		.loc 6 906 13 view .LVU2271
 7520              	.LBB1433:
 906:src/main.cpp  ****                 int32_t d = (int32_t)baseline[i] - (int32_t)scan[i];
 7521              		.loc 6 906 30 view .LVU2272
 7522 0886 23A8     		add	r0, sp, #140
 7523              	.LBE1433:
 904:src/main.cpp  ****             int32_t max_d = 0;
 7524              		.loc 6 904 28 is_stmt 0 view .LVU2273
 7525 0888 2A46     		mov	r2, r5
 905:src/main.cpp  ****             for(int i = 0; i < N_CH; i++) {
 7526              		.loc 6 905 21 view .LVU2274
 7527 088a 0021     		movs	r1, #0
 7528              	.LVL613:
 7529              	.L373:
 7530              	.LBB1435:
 7531              	.LBB1434:
 907:src/main.cpp  ****                 if(d > max_d) max_d = d;
 7532              		.loc 6 907 17 is_stmt 1 view .LVU2275
 907:src/main.cpp  ****                 if(d > max_d) max_d = d;
 7533              		.loc 6 907 48 is_stmt 0 view .LVU2276
 7534 088c 32F8023B 		ldrh	r3, [r2], #2
 907:src/main.cpp  ****                 if(d > max_d) max_d = d;
 7535              		.loc 6 907 67 view .LVU2277
 7536 0890 30F8024B 		ldrh	r4, [r0], #2
 7537              	.LVL614:
 908:src/main.cpp  ****             }
 7538              		.loc 6 908 17 is_stmt 1 view .LVU2278
 907:src/main.cpp  ****                 if(d > max_d) max_d = d;
 7539              		.loc 6 907 25 is_stmt 0 view .LVU2279
 7540 0894 1B1B     		subs	r3, r3, r4
 7541              	.LVL615:
 907:src/main.cpp  ****                 if(d > max_d) max_d = d;
 7542              		.loc 6 907 25 view .LVU2280
 7543 0896 9942     		cmp	r1, r3
 7544 0898 B8BF     		it	lt
 7545 089a 1946     		movlt	r1, r3
 7546              	.LVL616:
 907:src/main.cpp  ****                 if(d > max_d) max_d = d;
 7547              		.loc 6 907 25 view .LVU2281
 7548              	.LBE1434:
 906:src/main.cpp  ****                 int32_t d = (int32_t)baseline[i] - (int32_t)scan[i];
 7549              		.loc 6 906 13 is_stmt 1 view .LVU2282
 906:src/main.cpp  ****                 int32_t d = (int32_t)baseline[i] - (int32_t)scan[i];
 7550              		.loc 6 906 30 view .LVU2283
 7551 089c 9045     		cmp	r8, r2
ARM GAS  /tmp/claude-502/ccb6uqMv.s 			page 199


 7552 089e F5D1     		bne	.L373
 7553              	.LBE1435:
 910:src/main.cpp  **** 
 7554              		.loc 6 910 13 view .LVU2284
 7555 08a0 0929     		cmp	r1, #9
 7556 08a2 00F34D82 		bgt	.L374
 912:src/main.cpp  ****         }
 7557              		.loc 6 912 13 view .LVU2285
 912:src/main.cpp  ****         }
 7558              		.loc 6 912 26 is_stmt 0 view .LVU2286
 7559 08a6 0A20     		movs	r0, #10
 7560 08a8 FFF7FEFF 		bl	_ZN5daisy6System5DelayEm
 7561              	.LVL617:
 912:src/main.cpp  ****         }
 7562              		.loc 6 912 26 view .LVU2287
 7563              	.LBE1432:
 874:src/main.cpp  ****             uint32_t elapsed = System::GetNow() - start;
 7564              		.loc 6 874 9 is_stmt 1 view .LVU2288
 913:src/main.cpp  **** 
 7565              		.loc 6 913 9 is_stmt 0 view .LVU2289
 7566 08ac 50E7     		b	.L375
 7567              	.LVL618:
 7568              	.L473:
 7569              	.LBB1447:
 885:src/main.cpp  ****             float led1   = sqrtf(sqrtf(l2_raw));              // middle (DAC1)
 7570              		.loc 6 885 85 view .LVU2290
 7571 08ae 9FED207A 		vldr.32	s14, .L603+44
 7572              	.LVL619:
 885:src/main.cpp  ****             float led1   = sqrtf(sqrtf(l2_raw));              // middle (DAC1)
 7573              		.loc 6 885 85 view .LVU2291
 7574 08b2 9BE7     		b	.L353
 7575              	.LVL620:
 7576              	.L586:
 895:src/main.cpp  ****                 n++;
 7577              		.loc 6 895 17 is_stmt 1 view .LVU2292
 896:src/main.cpp  ****                 if(elapsed >= 2000) {
 7578              		.loc 6 896 18 is_stmt 0 view .LVU2293
 7579 08b4 069B     		ldr	r3, [sp, #24]
 895:src/main.cpp  ****                 n++;
 7580              		.loc 6 895 34 view .LVU2294
 7581 08b6 3146     		mov	r1, r6
 7582 08b8 1948     		ldr	r0, .L603+28
 896:src/main.cpp  ****                 if(elapsed >= 2000) {
 7583              		.loc 6 896 18 view .LVU2295
 7584 08ba 0133     		adds	r3, r3, #1
 7585 08bc 0693     		str	r3, [sp, #24]
 7586              	.LVL621:
 895:src/main.cpp  ****                 n++;
 7587              		.loc 6 895 34 view .LVU2296
 7588 08be FFF7FEFF 		bl	_ZNK5daisy9AdcHandle3GetEh
 7589              	.LVL622:
 895:src/main.cpp  ****                 n++;
 7590              		.loc 6 895 21 view .LVU2297
 7591 08c2 089A     		ldr	r2, [sp, #32]
 897:src/main.cpp  ****                     commit_fsr_avg(acc, n);
 7592              		.loc 6 897 17 view .LVU2298
 7593 08c4 B4F5FA6F 		cmp	r4, #2000
ARM GAS  /tmp/claude-502/ccb6uqMv.s 			page 200


 895:src/main.cpp  ****                 n++;
 7594              		.loc 6 895 21 view .LVU2299
 7595 08c8 0244     		add	r2, r2, r0
 7596 08ca 0892     		str	r2, [sp, #32]
 7597              	.LVL623:
 896:src/main.cpp  ****                 if(elapsed >= 2000) {
 7598              		.loc 6 896 17 is_stmt 1 view .LVU2300
 897:src/main.cpp  ****                     commit_fsr_avg(acc, n);
 7599              		.loc 6 897 17 view .LVU2301
 7600 08cc D8D3     		bcc	.L372
 898:src/main.cpp  ****                     calibrated = true;
 7601              		.loc 6 898 21 view .LVU2302
 7602              	.LVL624:
 7603              	.LBB1436:
 7604              	.LBI1436:
 840:src/main.cpp  ****         if(n == 0) return;
 7605              		.loc 6 840 27 view .LVU2303
 7606              	.LBE1436:
 7607              	.LBE1447:
 7608              	.LBE1431:
 7609              	.LBE1430:
 7610              	.LBE1429:
 7611              	.LBE1184:
 841:src/main.cpp  ****         uint16_t avg = (uint16_t)(acc / n);
 7612              		.loc 6 841 9 view .LVU2304
 7613              	.LBB1525:
 7614              	.LBB1456:
 7615              	.LBB1453:
 7616              	.LBB1450:
 7617              	.LBB1448:
 7618              	.LBB1445:
 7619              	.LBB1437:
 7620              	.LBB1438:
 7621              	.LBI1438:
 840:src/main.cpp  ****         if(n == 0) return;
 7622              		.loc 6 840 27 view .LVU2305
 7623              	.LBB1439:
 7624              	.LBB1440:
 842:src/main.cpp  ****         // Sanity floor ŌĆö without enough headroom over FSR_MIN the volume curve
 7625              		.loc 6 842 9 view .LVU2306
 842:src/main.cpp  ****         // Sanity floor ŌĆö without enough headroom over FSR_MIN the volume curve
 7626              		.loc 6 842 39 is_stmt 0 view .LVU2307
 7627 08ce 069B     		ldr	r3, [sp, #24]
 847:src/main.cpp  ****     };
 7628              		.loc 6 847 30 view .LVU2308
 7629 08d0 B7EE007A 		vmov.f32	s14, #1.0e+0
 847:src/main.cpp  ****     };
 7630              		.loc 6 847 30 view .LVU2309
 7631              	.LBE1440:
 7632              	.LBE1439:
 7633              	.LBE1438:
 7634              	.LBE1437:
 7635              	.LBE1445:
 899:src/main.cpp  ****                 }
 7636              		.loc 6 899 32 view .LVU2310
 7637 08d4 0126     		movs	r6, #1
 7638              	.LVL625:
ARM GAS  /tmp/claude-502/ccb6uqMv.s 			page 201


 7639              	.LBB1446:
 7640              	.LBB1444:
 7641              	.LBB1443:
 7642              	.LBB1442:
 7643              	.LBB1441:
 842:src/main.cpp  ****         // Sanity floor ŌĆö without enough headroom over FSR_MIN the volume curve
 7644              		.loc 6 842 39 view .LVU2311
 7645 08d6 B2FBF3F3 		udiv	r3, r2, r3
 7646 08da 42F23412 		movw	r2, #8500
 7647              	.LVL626:
 842:src/main.cpp  ****         // Sanity floor ŌĆö without enough headroom over FSR_MIN the volume curve
 7648              		.loc 6 842 18 view .LVU2312
 7649 08de 9BB2     		uxth	r3, r3
 7650              	.LVL627:
 845:src/main.cpp  ****         fsr_max       = avg;
 7651              		.loc 6 845 9 is_stmt 1 view .LVU2313
 7652 08e0 9342     		cmp	r3, r2
 7653 08e2 38BF     		it	cc
 7654 08e4 1346     		movcc	r3, r2
 7655              	.LVL628:
 845:src/main.cpp  ****         fsr_max       = avg;
 7656              		.loc 6 845 9 is_stmt 0 view .LVU2314
 7657 08e6 0A93     		str	r3, [sp, #40]
 7658              	.LVL629:
 846:src/main.cpp  ****         fsr_range_inv = 1.0f / (float)(fsr_max - FSR_MIN);
 7659              		.loc 6 846 9 is_stmt 1 view .LVU2315
 847:src/main.cpp  ****     };
 7660              		.loc 6 847 9 view .LVU2316
 847:src/main.cpp  ****     };
 7661              		.loc 6 847 48 is_stmt 0 view .LVU2317
 7662 08e8 A3F5FA53 		sub	r3, r3, #8000
 7663              	.LVL630:
 847:src/main.cpp  ****     };
 7664              		.loc 6 847 48 view .LVU2318
 7665 08ec 07EE903A 		vmov	s15, r3	@ int
 847:src/main.cpp  ****     };
 7666              		.loc 6 847 32 view .LVU2319
 7667 08f0 F8EEE77A 		vcvt.f32.s32	s15, s15
 847:src/main.cpp  ****     };
 7668              		.loc 6 847 30 view .LVU2320
 7669 08f4 C7EE27AA 		vdiv.f32	s21, s14, s15
 7670              	.LVL631:
 847:src/main.cpp  ****     };
 7671              		.loc 6 847 30 view .LVU2321
 7672 08f8 C2E7     		b	.L372
 7673              	.LVL632:
 7674              	.L503:
 847:src/main.cpp  ****     };
 7675              		.loc 6 847 30 view .LVU2322
 7676              	.LBE1441:
 7677              	.LBE1442:
 7678              	.LBE1443:
 7679              	.LBE1444:
 7680              	.LBE1446:
 7681              	.LBE1448:
 7682              	.LBE1450:
 7683              	.LBE1453:
ARM GAS  /tmp/claude-502/ccb6uqMv.s 			page 202


 7684              	.LBE1456:
 7685              	.LBB1457:
 7686              	.LBB1400:
 7687              	.LBB1399:
 7688              	.LBB1397:
 788:src/main.cpp  ****         out[1+p]=(char)('1'+slot);
 7689              		.loc 6 788 20 view .LVU2323
 7690 08fa 2823     		movs	r3, #40
 7691 08fc 1EE6     		b	.L440
 7692              	.LVL633:
 7693              	.L504:
 788:src/main.cpp  ****         out[1+p]=(char)('1'+slot);
 7694              		.loc 6 788 20 view .LVU2324
 7695 08fe 2823     		movs	r3, #40
 7696 0900 38E6     		b	.L442
 7697              	.L604:
 7698 0902 00BF     		.align	2
 7699              	.L603:
 7700 0904 F1197605 		.word	91625969
 7701 0908 00803B46 		.word	1178304512
 7702 090c DB0FC940 		.word	1086918619
 7703 0910 00F07F45 		.word	1166012416
 7704 0914 CDCCCC3D 		.word	1036831949
 7705 0918 20000000 		.word	.LANCHOR10+32
 7706 091c 00000000 		.word	.LANCHOR0
 7707 0920 18000000 		.word	.LANCHOR10+24
 7708 0924 00007A44 		.word	1148846080
 7709 0928 F371B13F 		.word	1068593651
 7710 092c 0000C842 		.word	1120403456
 7711 0930 00000000 		.word	0
 7712 0934 006F313F 		.word	1060204288
 7713 0938 9FCD2A3D 		.word	1026215327
 7714 093c 68B32A3E 		.word	1042985832
 7715 0940 00000C42 		.word	1108082688
 7716 0944 9A99193F 		.word	1058642330
 7717 0948 CDCCCC3E 		.word	1053609165
 7718 094c CDCC4C3F 		.word	1061997773
 7719              	.LVL634:
 7720              	.L578:
 788:src/main.cpp  ****         out[1+p]=(char)('1'+slot);
 7721              		.loc 6 788 20 view .LVU2325
 7722              	.LBE1397:
 7723              	.LBE1399:
 7724              	.LBE1400:
 7725              	.LBE1457:
1020:src/main.cpp  ****         bool f1_fresh = !f1_was_on && (System::GetNow() - f1_last_seen_ms >= F1_REQUANTIZE_MS);
 7726              		.loc 6 1020 19 is_stmt 1 discriminator 1 view .LVU2326
1020:src/main.cpp  ****         bool f1_fresh = !f1_was_on && (System::GetNow() - f1_last_seen_ms >= F1_REQUANTIZE_MS);
 7727              		.loc 6 1020 51 is_stmt 0 discriminator 1 view .LVU2327
 7728 0950 FFF7FEFF 		bl	_ZN5daisy6System6GetNowEv
 7729              	.LVL635:
1021:src/main.cpp  **** 
 7730              		.loc 6 1021 9 is_stmt 1 discriminator 1 view .LVU2328
1021:src/main.cpp  **** 
 7731              		.loc 6 1021 36 is_stmt 0 discriminator 1 view .LVU2329
 7732 0954 059B     		ldr	r3, [sp, #20]
 7733 0956 002B     		cmp	r3, #0
ARM GAS  /tmp/claude-502/ccb6uqMv.s 			page 203


 7734 0958 00F0D882 		beq	.L377
 7735              	.L466:
 7736              	.LBB1458:
 7737              	.LBB1188:
1025:src/main.cpp  ****             float prs01 = clampf((float)tracked[0].pressure / 100.0f, 0.0f, 1.0f); // hard clamp
 7738              		.loc 6 1025 13 is_stmt 1 view .LVU2330
1025:src/main.cpp  ****             float prs01 = clampf((float)tracked[0].pressure / 100.0f, 0.0f, 1.0f); // hard clamp
 7739              		.loc 6 1025 34 is_stmt 0 view .LVU2331
 7740 095c D9ED017A 		vldr.32	s15, [r9, #4]	@ int
1025:src/main.cpp  ****             float prs01 = clampf((float)tracked[0].pressure / 100.0f, 0.0f, 1.0f); // hard clamp
 7741              		.loc 6 1025 33 view .LVU2332
 7742 0960 1FED107A 		vldr.32	s14, .L603+32
1025:src/main.cpp  ****             float prs01 = clampf((float)tracked[0].pressure / 100.0f, 0.0f, 1.0f); // hard clamp
 7743              		.loc 6 1025 34 view .LVU2333
 7744 0964 F8EEE77A 		vcvt.f32.s32	s15, s15
1025:src/main.cpp  ****             float prs01 = clampf((float)tracked[0].pressure / 100.0f, 0.0f, 1.0f); // hard clamp
 7745              		.loc 6 1025 33 view .LVU2334
 7746 0968 C7EE87BA 		vdiv.f32	s23, s15, s14
 7747              	.LVL636:
 7748              	.LBB1189:
 7749              	.LBI1189:
 450:src/main.cpp  ****     return v<lo?lo:v>hi?hi:v;
 7750              		.loc 6 450 21 is_stmt 1 view .LVU2335
 7751              	.LBB1190:
 451:src/main.cpp  **** }
 7752              		.loc 6 451 5 view .LVU2336
 451:src/main.cpp  **** }
 7753              		.loc 6 451 16 is_stmt 0 view .LVU2337
 7754 096c F5EEC0BA 		vcmpe.f32	s23, #0
 7755 0970 F1EE10FA 		vmrs	APSR_nzcv, FPSCR
 7756 0974 00F19281 		bmi	.L378
 451:src/main.cpp  **** }
 7757              		.loc 6 451 24 view .LVU2338
 7758 0978 F7EE007A 		vmov.f32	s15, #1.0e+0
 7759 097c F4EEE7BA 		vcmpe.f32	s23, s15
 7760 0980 F1EE10FA 		vmrs	APSR_nzcv, FPSCR
 7761 0984 00F3B782 		bgt	.L474
 7762              	.LBE1190:
 7763              	.LBE1189:
1031:src/main.cpp  ****             float ex   = 1.0f + earg*(1.0f + earg*(0.5f + earg*0.1667f));
 7764              		.loc 6 1031 19 view .LVU2339
 7765 0988 1FED197A 		vldr.32	s14, .L603+36
1032:src/main.cpp  ****             float freq_continuous = clampf(VOICE.freq_low * ex, VOICE.freq_low, VOICE.freq_high);
 7766              		.loc 6 1032 57 view .LVU2340
 7767 098c F6EE006A 		vmov.f32	s13, #5.0e-1
 7768 0990 1FED166A 		vldr.32	s12, .L603+56
1031:src/main.cpp  ****             float ex   = 1.0f + earg*(1.0f + earg*(0.5f + earg*0.1667f));
 7769              		.loc 6 1031 19 view .LVU2341
 7770 0994 2BEE877A 		vmul.f32	s14, s23, s14
1033:src/main.cpp  **** 
 7771              		.loc 6 1033 43 view .LVU2342
 7772 0998 5FED178A 		vldr.32	s17, .L603+60
1032:src/main.cpp  ****             float freq_continuous = clampf(VOICE.freq_low * ex, VOICE.freq_low, VOICE.freq_high);
 7773              		.loc 6 1032 57 view .LVU2343
 7774 099c E7EE066A 		vfma.f32	s13, s14, s12
1032:src/main.cpp  ****             float freq_continuous = clampf(VOICE.freq_low * ex, VOICE.freq_low, VOICE.freq_high);
 7775              		.loc 6 1032 44 view .LVU2344
ARM GAS  /tmp/claude-502/ccb6uqMv.s 			page 204


 7776 09a0 B0EE676A 		vmov.f32	s12, s15
 7777 09a4 A7EE266A 		vfma.f32	s12, s14, s13
1032:src/main.cpp  ****             float freq_continuous = clampf(VOICE.freq_low * ex, VOICE.freq_low, VOICE.freq_high);
 7778              		.loc 6 1032 19 view .LVU2345
 7779 09a8 E7EE067A 		vfma.f32	s15, s14, s12
1033:src/main.cpp  **** 
 7780              		.loc 6 1033 43 view .LVU2346
 7781 09ac 67EEA88A 		vmul.f32	s17, s15, s17
 7782              	.L379:
 7783              	.LVL637:
1026:src/main.cpp  **** 
 7784              		.loc 6 1026 13 is_stmt 1 view .LVU2347
1026:src/main.cpp  **** 
 7785              		.loc 6 1026 52 is_stmt 0 view .LVU2348
 7786 09b0 99ED02BA 		vldr.32	s22, [r9, #8]	@ int
1026:src/main.cpp  **** 
 7787              		.loc 6 1026 33 view .LVU2349
 7788 09b4 5FED237A 		vldr.32	s15, .L603+40
1026:src/main.cpp  **** 
 7789              		.loc 6 1026 34 view .LVU2350
 7790 09b8 B8EECBBA 		vcvt.f32.s32	s22, s22
1026:src/main.cpp  **** 
 7791              		.loc 6 1026 33 view .LVU2351
 7792 09bc 8BEE278A 		vdiv.f32	s16, s22, s15
 7793              	.LVL638:
 7794              	.LBB1192:
 7795              	.LBI1192:
 450:src/main.cpp  ****     return v<lo?lo:v>hi?hi:v;
 7796              		.loc 6 450 21 is_stmt 1 view .LVU2352
 7797              	.LBB1193:
 451:src/main.cpp  **** }
 7798              		.loc 6 451 5 view .LVU2353
 451:src/main.cpp  **** }
 7799              		.loc 6 451 16 is_stmt 0 view .LVU2354
 7800 09c0 B5EEC08A 		vcmpe.f32	s16, #0
 7801 09c4 F1EE10FA 		vmrs	APSR_nzcv, FPSCR
 7802 09c8 40F17881 		bpl	.L458
 7803 09cc 1FED288A 		vldr.32	s16, .L603+44
 7804              	.LVL639:
 7805              	.L380:
 451:src/main.cpp  **** }
 7806              		.loc 6 451 16 view .LVU2355
 7807              	.LBE1193:
 7808              	.LBE1192:
1031:src/main.cpp  ****             float ex   = 1.0f + earg*(1.0f + earg*(0.5f + earg*0.1667f));
 7809              		.loc 6 1031 13 is_stmt 1 view .LVU2356
1032:src/main.cpp  ****             float freq_continuous = clampf(VOICE.freq_low * ex, VOICE.freq_low, VOICE.freq_high);
 7810              		.loc 6 1032 13 view .LVU2357
1033:src/main.cpp  **** 
 7811              		.loc 6 1033 13 view .LVU2358
 7812              	.LBB1196:
 7813              	.LBI1196:
 450:src/main.cpp  ****     return v<lo?lo:v>hi?hi:v;
 7814              		.loc 6 450 21 view .LVU2359
 7815              	.LBB1197:
 451:src/main.cpp  **** }
 7816              		.loc 6 451 5 view .LVU2360
ARM GAS  /tmp/claude-502/ccb6uqMv.s 			page 205


 451:src/main.cpp  **** }
 7817              		.loc 6 451 16 is_stmt 0 view .LVU2361
 7818 09d0 1FED257A 		vldr.32	s14, .L603+60
 7819 09d4 F4EEC78A 		vcmpe.f32	s17, s14
 7820 09d8 F1EE10FA 		vmrs	APSR_nzcv, FPSCR
 7821 09dc 40F18E81 		bpl	.L570
 7822              	.LBE1197:
 7823              	.LBE1196:
 7824              	.LBB1202:
 7825              	.LBB1203:
1081:src/main.cpp  ****             };
 7826              		.loc 6 1081 41 view .LVU2362
 7827 09e0 F1EE086A 		vmov.f32	s13, #6.0e+0
 7828              	.LBE1203:
 7829              	.LBE1202:
1088:src/main.cpp  ****             float oct_mult = 1.0f + oct_arg*(1.0f + oct_arg*(0.5f + oct_arg*(0.1667f + oct_arg*0.04
 7830              		.loc 6 1088 19 view .LVU2363
 7831 09e4 1FED2D4A 		vldr.32	s8, .L603+48
 7832              	.LBB1220:
 7833              	.LBB1204:
1081:src/main.cpp  ****             };
 7834              		.loc 6 1081 41 view .LVU2364
 7835 09e8 BAEE0E5A 		vmov.f32	s10, #-1.5e+1
 7836              	.LBE1204:
 7837              	.LBE1220:
1089:src/main.cpp  ****             // Keytracking: how much the cutoff base follows pitch. keytrack=1 is
 7838              		.loc 6 1089 86 view .LVU2365
 7839 09ec 5FED2E4A 		vldr.32	s9, .L603+52
 7840              	.LBB1221:
 7841              	.LBB1205:
1081:src/main.cpp  ****             };
 7842              		.loc 6 1081 50 view .LVU2366
 7843 09f0 F2EE045A 		vmov.f32	s11, #1.0e+1
 7844              	.LBE1205:
 7845              	.LBE1221:
1089:src/main.cpp  ****             // Keytracking: how much the cutoff base follows pitch. keytrack=1 is
 7846              		.loc 6 1089 86 view .LVU2367
 7847 09f4 1FED2F6A 		vldr.32	s12, .L603+56
 7848              	.LBB1222:
 7849              	.LBB1198:
 451:src/main.cpp  **** }
 7850              		.loc 6 451 16 view .LVU2368
 7851 09f8 F0EE478A 		vmov.f32	s17, s14
 7852              	.LBE1198:
 7853              	.LBE1222:
 7854              	.LBB1223:
 7855              	.LBB1206:
1081:src/main.cpp  ****             };
 7856              		.loc 6 1081 41 view .LVU2369
 7857 09fc A8EE265A 		vfma.f32	s10, s16, s13
1081:src/main.cpp  ****             };
 7858              		.loc 6 1081 50 view .LVU2370
 7859 0a00 B0EE657A 		vmov.f32	s14, s11
1081:src/main.cpp  ****             };
 7860              		.loc 6 1081 25 view .LVU2371
 7861 0a04 68EE087A 		vmul.f32	s15, s16, s16
 7862              	.LBE1206:
ARM GAS  /tmp/claude-502/ccb6uqMv.s 			page 206


 7863              	.LBE1223:
1089:src/main.cpp  ****             // Keytracking: how much the cutoff base follows pitch. keytrack=1 is
 7864              		.loc 6 1089 67 view .LVU2372
 7865 0a08 F6EE006A 		vmov.f32	s13, #5.0e-1
1089:src/main.cpp  ****             // Keytracking: how much the cutoff base follows pitch. keytrack=1 is
 7866              		.loc 6 1089 51 view .LVU2373
 7867 0a0c B7EE00CA 		vmov.f32	s24, #1.0e+0
 7868              	.LBB1224:
 7869              	.LBB1207:
1081:src/main.cpp  ****             };
 7870              		.loc 6 1081 27 view .LVU2374
 7871 0a10 67EE887A 		vmul.f32	s15, s15, s16
1081:src/main.cpp  ****             };
 7872              		.loc 6 1081 50 view .LVU2375
 7873 0a14 A8EE057A 		vfma.f32	s14, s16, s10
 7874              	.LBE1207:
 7875              	.LBE1224:
1089:src/main.cpp  ****             // Keytracking: how much the cutoff base follows pitch. keytrack=1 is
 7876              		.loc 6 1089 19 view .LVU2376
 7877 0a18 B0EE4C0A 		vmov.f32	s0, s24
 7878              	.LBB1225:
 7879              	.LBB1208:
1081:src/main.cpp  ****             };
 7880              		.loc 6 1081 57 view .LVU2377
 7881 0a1c 67EE877A 		vmul.f32	s15, s15, s14
 7882              	.LBE1208:
 7883              	.LBE1225:
1089:src/main.cpp  ****             // Keytracking: how much the cutoff base follows pitch. keytrack=1 is
 7884              		.loc 6 1089 67 view .LVU2378
 7885 0a20 B0EE667A 		vmov.f32	s14, s13
1089:src/main.cpp  ****             // Keytracking: how much the cutoff base follows pitch. keytrack=1 is
 7886              		.loc 6 1089 51 view .LVU2379
 7887 0a24 F0EE4C6A 		vmov.f32	s13, s24
1087:src/main.cpp  ****             float oct_arg  = cutoff_oct * 0.6931f;
 7888              		.loc 6 1087 19 view .LVU2380
 7889 0a28 77EEA77A 		vadd.f32	s15, s15, s15
1088:src/main.cpp  ****             float oct_mult = 1.0f + oct_arg*(1.0f + oct_arg*(0.5f + oct_arg*(0.1667f + oct_arg*0.04
 7890              		.loc 6 1088 19 view .LVU2381
 7891 0a2c 67EE847A 		vmul.f32	s15, s15, s8
1089:src/main.cpp  ****             // Keytracking: how much the cutoff base follows pitch. keytrack=1 is
 7892              		.loc 6 1089 86 view .LVU2382
 7893 0a30 A7EEA46A 		vfma.f32	s12, s15, s9
1089:src/main.cpp  ****             // Keytracking: how much the cutoff base follows pitch. keytrack=1 is
 7894              		.loc 6 1089 67 view .LVU2383
 7895 0a34 A7EE867A 		vfma.f32	s14, s15, s12
1089:src/main.cpp  ****             // Keytracking: how much the cutoff base follows pitch. keytrack=1 is
 7896              		.loc 6 1089 51 view .LVU2384
 7897 0a38 E7EE876A 		vfma.f32	s13, s15, s14
1089:src/main.cpp  ****             // Keytracking: how much the cutoff base follows pitch. keytrack=1 is
 7898              		.loc 6 1089 19 view .LVU2385
 7899 0a3c A7EEA6CA 		vfma.f32	s24, s15, s13
 7900              	.LVL640:
 7901              	.L382:
 7902              	.LBB1226:
 7903              	.LBB1209:
1081:src/main.cpp  ****             };
 7904              		.loc 6 1081 17 is_stmt 1 view .LVU2386
ARM GAS  /tmp/claude-502/ccb6uqMv.s 			page 207


1081:src/main.cpp  ****             };
 7905              		.loc 6 1081 17 is_stmt 0 view .LVU2387
 7906              	.LBE1209:
 7907              	.LBE1226:
1087:src/main.cpp  ****             float oct_arg  = cutoff_oct * 0.6931f;
 7908              		.loc 6 1087 13 is_stmt 1 view .LVU2388
1088:src/main.cpp  ****             float oct_mult = 1.0f + oct_arg*(1.0f + oct_arg*(0.5f + oct_arg*(0.1667f + oct_arg*0.04
 7909              		.loc 6 1088 13 view .LVU2389
1089:src/main.cpp  ****             // Keytracking: how much the cutoff base follows pitch. keytrack=1 is
 7910              		.loc 6 1089 13 view .LVU2390
1094:src/main.cpp  ****                 ? freq
 7911              		.loc 6 1094 13 view .LVU2391
1096:src/main.cpp  ****             float cutoff   = clampf(track_freq * VOICE.cutoff_mult * oct_mult, 20.0f, 18000.0f);
 7912              		.loc 6 1096 40 is_stmt 0 view .LVU2392
 7913 0a40 5FED400A 		vldr.32	s1, .L603+64
 7914 0a44 FFF7FEFF 		bl	powf
 7915              	.LVL641:
1097:src/main.cpp  **** 
 7916              		.loc 6 1097 13 is_stmt 1 view .LVU2393
1095:src/main.cpp  ****                 : VOICE.freq_low * powf(freq / VOICE.freq_low, VOICE.keytrack);
 7917              		.loc 6 1095 17 is_stmt 0 view .LVU2394
 7918 0a48 5FED437A 		vldr.32	s15, .L603+60
 7919 0a4c 20EE270A 		vmul.f32	s0, s0, s15
 7920              	.LVL642:
 7921              	.LBB1227:
 7922              	.LBB1228:
 451:src/main.cpp  **** }
 7923              		.loc 6 451 16 view .LVU2395
 7924 0a50 F3EE047A 		vmov.f32	s15, #2.0e+1
 7925              	.LBE1228:
 7926              	.LBE1227:
1097:src/main.cpp  **** 
 7927              		.loc 6 1097 36 view .LVU2396
 7928 0a54 20EE0C0A 		vmul.f32	s0, s0, s24
 7929              	.LVL643:
 7930              	.LBB1232:
 7931              	.LBI1227:
 450:src/main.cpp  ****     return v<lo?lo:v>hi?hi:v;
 7932              		.loc 6 450 21 is_stmt 1 view .LVU2397
 7933              	.LBB1229:
 451:src/main.cpp  **** }
 7934              		.loc 6 451 5 view .LVU2398
 451:src/main.cpp  **** }
 7935              		.loc 6 451 16 is_stmt 0 view .LVU2399
 7936 0a58 B4EEE70A 		vcmpe.f32	s0, s15
 7937 0a5c F1EE10FA 		vmrs	APSR_nzcv, FPSCR
 7938 0a60 40F13282 		bpl	.L587
 7939 0a64 B0EE670A 		vmov.f32	s0, s15
 7940              	.LVL644:
 7941              	.L383:
 451:src/main.cpp  **** }
 7942              		.loc 6 451 16 view .LVU2400
 7943              	.LBE1229:
 7944              	.LBE1232:
1100:src/main.cpp  ****             float vib    = smoothstep(vib_in) * 0.8f;
 7945              		.loc 6 1100 13 is_stmt 1 view .LVU2401
1100:src/main.cpp  ****             float vib    = smoothstep(vib_in) * 0.8f;
ARM GAS  /tmp/claude-502/ccb6uqMv.s 			page 208


 7946              		.loc 6 1100 42 is_stmt 0 view .LVU2402
 7947 0a68 5FED4A7A 		vldr.32	s15, .L603+64
1100:src/main.cpp  ****             float vib    = smoothstep(vib_in) * 0.8f;
 7948              		.loc 6 1100 34 view .LVU2403
 7949 0a6c 5FED4A6A 		vldr.32	s13, .L603+68
1100:src/main.cpp  ****             float vib    = smoothstep(vib_in) * 0.8f;
 7950              		.loc 6 1100 42 view .LVU2404
 7951 0a70 78EE677A 		vsub.f32	s15, s16, s15
1100:src/main.cpp  ****             float vib    = smoothstep(vib_in) * 0.8f;
 7952              		.loc 6 1100 34 view .LVU2405
 7953 0a74 87EEA67A 		vdiv.f32	s14, s15, s13
 7954              	.LVL645:
 7955              	.LBB1233:
 7956              	.LBI1233:
 450:src/main.cpp  ****     return v<lo?lo:v>hi?hi:v;
 7957              		.loc 6 450 21 is_stmt 1 view .LVU2406
 7958              	.LBB1234:
 451:src/main.cpp  **** }
 7959              		.loc 6 451 5 view .LVU2407
 451:src/main.cpp  **** }
 7960              		.loc 6 451 16 is_stmt 0 view .LVU2408
 7961 0a78 B5EEC07A 		vcmpe.f32	s14, #0
 7962 0a7c F1EE10FA 		vmrs	APSR_nzcv, FPSCR
 7963 0a80 00F1BC80 		bmi	.L484
 451:src/main.cpp  **** }
 7964              		.loc 6 451 24 view .LVU2409
 7965 0a84 F7EE007A 		vmov.f32	s15, #1.0e+0
 7966 0a88 B4EEE77A 		vcmpe.f32	s14, s15
 7967 0a8c F1EE10FA 		vmrs	APSR_nzcv, FPSCR
 7968 0a90 00F32E82 		bgt	.L485
 7969              	.LVL646:
 451:src/main.cpp  **** }
 7970              		.loc 6 451 24 view .LVU2410
 7971              	.LBE1234:
 7972              	.LBE1233:
1101:src/main.cpp  **** 
 7973              		.loc 6 1101 13 is_stmt 1 view .LVU2411
 7974              	.LBB1237:
 7975              	.LBI1237:
1075:src/main.cpp  ****                 x = x<0?0:x>1?1:x;
 7976              		.loc 6 1075 31 view .LVU2412
 7977              	.LBB1238:
1076:src/main.cpp  ****                 return x*x*(3.0f - 2.0f*x);
 7978              		.loc 6 1076 17 view .LVU2413
1077:src/main.cpp  ****             };
 7979              		.loc 6 1077 34 is_stmt 0 view .LVU2414
 7980 0a94 F0EE005A 		vmov.f32	s11, #2.0e+0
 7981              	.LBE1238:
 7982              	.LBE1237:
1101:src/main.cpp  **** 
 7983              		.loc 6 1101 49 view .LVU2415
 7984 0a98 1FED546A 		vldr.32	s12, .L603+72
 7985              	.LBB1241:
 7986              	.LBB1239:
1077:src/main.cpp  ****             };
 7987              		.loc 6 1077 34 view .LVU2416
 7988 0a9c F0EE086A 		vmov.f32	s13, #3.0e+0
ARM GAS  /tmp/claude-502/ccb6uqMv.s 			page 209


1077:src/main.cpp  ****             };
 7989              		.loc 6 1077 25 view .LVU2417
 7990 0aa0 67EE077A 		vmul.f32	s15, s14, s14
1077:src/main.cpp  ****             };
 7991              		.loc 6 1077 34 view .LVU2418
 7992 0aa4 E7EE656A 		vfms.f32	s13, s14, s11
1077:src/main.cpp  ****             };
 7993              		.loc 6 1077 42 view .LVU2419
 7994 0aa8 27EEA67A 		vmul.f32	s14, s15, s13
 7995              	.LVL647:
1077:src/main.cpp  ****             };
 7996              		.loc 6 1077 42 view .LVU2420
 7997              	.LBE1239:
 7998              	.LBE1241:
1101:src/main.cpp  **** 
 7999              		.loc 6 1101 49 view .LVU2421
 8000 0aac 27EE067A 		vmul.f32	s14, s14, s12
 8001              	.LVL648:
 8002              	.L384:
 8003              	.LBB1242:
 8004              	.LBB1240:
1077:src/main.cpp  ****             };
 8005              		.loc 6 1077 17 is_stmt 1 view .LVU2422
1077:src/main.cpp  ****             };
 8006              		.loc 6 1077 17 is_stmt 0 view .LVU2423
 8007              	.LBE1240:
 8008              	.LBE1242:
1104:src/main.cpp  **** 
 8009              		.loc 6 1104 13 is_stmt 1 view .LVU2424
 8010              	.LBB1243:
 8011              	.LBI1243:
1075:src/main.cpp  ****                 x = x<0?0:x>1?1:x;
 8012              		.loc 6 1075 31 view .LVU2425
 8013              	.LBB1244:
1076:src/main.cpp  ****                 return x*x*(3.0f - 2.0f*x);
 8014              		.loc 6 1076 17 view .LVU2426
1076:src/main.cpp  ****                 return x*x*(3.0f - 2.0f*x);
 8015              		.loc 6 1076 24 is_stmt 0 view .LVU2427
 8016 0ab0 B5EEC08A 		vcmpe.f32	s16, #0
 8017 0ab4 F7EE007A 		vmov.f32	s15, #1.0e+0
 8018 0ab8 F1EE10FA 		vmrs	APSR_nzcv, FPSCR
 8019 0abc 07D4     		bmi	.L385
1076:src/main.cpp  ****                 return x*x*(3.0f - 2.0f*x);
 8020              		.loc 6 1076 30 view .LVU2428
 8021 0abe B4EEE78A 		vcmpe.f32	s16, s15
 8022 0ac2 F1EE10FA 		vmrs	APSR_nzcv, FPSCR
 8023 0ac6 40F36781 		ble	.L588
 8024 0aca F7EE087A 		vmov.f32	s15, #1.5e+0
 8025              	.L385:
 8026              	.LVL649:
1077:src/main.cpp  ****             };
 8027              		.loc 6 1077 17 is_stmt 1 view .LVU2429
1077:src/main.cpp  ****             };
 8028              		.loc 6 1077 17 is_stmt 0 view .LVU2430
 8029              	.LBE1244:
 8030              	.LBE1243:
1106:src/main.cpp  ****             g_target_cutoff  = cutoff;
ARM GAS  /tmp/claude-502/ccb6uqMv.s 			page 210


 8031              		.loc 6 1106 13 is_stmt 1 view .LVU2431
1106:src/main.cpp  ****             g_target_cutoff  = cutoff;
 8032              		.loc 6 1106 30 is_stmt 0 view .LVU2432
 8033 0ace DF4B     		ldr	r3, .L605
 8034              	.LBE1188:
 8035              	.LBE1458:
 8036              	.LBB1459:
 8037              	.LBB1460:
 8038              	.LBB1461:
 451:src/main.cpp  **** }
 8039              		.loc 6 451 16 view .LVU2433
 8040 0ad0 F5EEC0BA 		vcmpe.f32	s23, #0
 8041              	.LBE1461:
 8042              	.LBE1460:
 8043              	.LBE1459:
 8044              	.LBB1490:
 8045              	.LBB1273:
1110:src/main.cpp  ****             g_amp_target     = 0.72f;
 8046              		.loc 6 1110 30 view .LVU2434
 8047 0ad4 DE4A     		ldr	r2, .L605+4
1106:src/main.cpp  ****             g_target_cutoff  = cutoff;
 8048              		.loc 6 1106 30 view .LVU2435
 8049 0ad6 C3ED008A 		vstr.32	s17, [r3]
1107:src/main.cpp  ****             g_vibrato_depth  = vib;
 8050              		.loc 6 1107 13 is_stmt 1 view .LVU2436
1107:src/main.cpp  ****             g_vibrato_depth  = vib;
 8051              		.loc 6 1107 30 is_stmt 0 view .LVU2437
 8052 0ada DE4B     		ldr	r3, .L605+8
 8053              	.LBE1273:
 8054              	.LBE1490:
 8055              	.LBB1491:
 8056              	.LBB1467:
 8057              	.LBB1462:
 451:src/main.cpp  **** }
 8058              		.loc 6 451 16 view .LVU2438
 8059 0adc F1EE10FA 		vmrs	APSR_nzcv, FPSCR
 8060              	.LBE1462:
 8061              	.LBE1467:
 8062              	.LBE1491:
 8063              	.LBB1492:
 8064              	.LBB1274:
1107:src/main.cpp  ****             g_vibrato_depth  = vib;
 8065              		.loc 6 1107 30 view .LVU2439
 8066 0ae0 83ED000A 		vstr.32	s0, [r3]
1108:src/main.cpp  ****             g_target_drive   = drive;
 8067              		.loc 6 1108 13 is_stmt 1 view .LVU2440
1108:src/main.cpp  ****             g_target_drive   = drive;
 8068              		.loc 6 1108 30 is_stmt 0 view .LVU2441
 8069 0ae4 DC4B     		ldr	r3, .L605+12
 8070 0ae6 83ED007A 		vstr.32	s14, [r3]
1109:src/main.cpp  ****             g_finger_on      = true;
 8071              		.loc 6 1109 13 is_stmt 1 view .LVU2442
1109:src/main.cpp  ****             g_finger_on      = true;
 8072              		.loc 6 1109 30 is_stmt 0 view .LVU2443
 8073 0aea DC4B     		ldr	r3, .L605+16
 8074 0aec C3ED007A 		vstr.32	s15, [r3]
1110:src/main.cpp  ****             g_amp_target     = 0.72f;
ARM GAS  /tmp/claude-502/ccb6uqMv.s 			page 211


 8075              		.loc 6 1110 13 is_stmt 1 view .LVU2444
1110:src/main.cpp  ****             g_amp_target     = 0.72f;
 8076              		.loc 6 1110 30 is_stmt 0 view .LVU2445
 8077 0af0 4FF00103 		mov	r3, #1
 8078 0af4 1370     		strb	r3, [r2]
1111:src/main.cpp  **** 
 8079              		.loc 6 1111 13 is_stmt 1 view .LVU2446
1111:src/main.cpp  **** 
 8080              		.loc 6 1111 30 is_stmt 0 view .LVU2447
 8081 0af6 DA4B     		ldr	r3, .L605+20
 8082 0af8 DA4A     		ldr	r2, .L605+24
 8083 0afa 1360     		str	r3, [r2]	@ float
 8084              	.LBE1274:
 8085              	.LBE1492:
1132:src/main.cpp  ****         if(f1_on) {
 8086              		.loc 6 1132 9 is_stmt 1 view .LVU2448
 8087              	.LVL650:
1133:src/main.cpp  ****             float p01      = clampf((float)tracked[0].pos / 1000.0f, 0.0f, 1.0f);
 8088              		.loc 6 1133 9 view .LVU2449
 8089              	.LBB1493:
1134:src/main.cpp  ****             float pr01     = clampf((float)tracked[0].pressure / 100.0f, 0.0f, 1.0f);
 8090              		.loc 6 1134 13 view .LVU2450
 8091              	.LBB1468:
 8092              	.LBI1460:
 450:src/main.cpp  ****     return v<lo?lo:v>hi?hi:v;
 8093              		.loc 6 450 21 view .LVU2451
 8094              	.LBB1463:
 451:src/main.cpp  **** }
 8095              		.loc 6 451 5 view .LVU2452
 451:src/main.cpp  **** }
 8096              		.loc 6 451 16 is_stmt 0 view .LVU2453
 8097 0afc 40F18F80 		bpl	.L589
 8098              	.LVL651:
 451:src/main.cpp  **** }
 8099              		.loc 6 451 16 view .LVU2454
 8100              	.LBE1463:
 8101              	.LBE1468:
1135:src/main.cpp  ****             float prs_mult = 0.75f + 0.25f * pr01;
 8102              		.loc 6 1135 13 is_stmt 1 view .LVU2455
1135:src/main.cpp  ****             float prs_mult = 0.75f + 0.25f * pr01;
 8103              		.loc 6 1135 36 is_stmt 0 view .LVU2456
 8104 0b00 DFEDD97A 		vldr.32	s15, .L605+28
 8105 0b04 CBEE276A 		vdiv.f32	s13, s22, s15
 8106              	.LVL652:
 8107              	.LBB1469:
 8108              	.LBI1469:
 450:src/main.cpp  ****     return v<lo?lo:v>hi?hi:v;
 8109              		.loc 6 450 21 is_stmt 1 view .LVU2457
 8110              	.LBB1470:
 451:src/main.cpp  **** }
 8111              		.loc 6 451 5 view .LVU2458
 451:src/main.cpp  **** }
 8112              		.loc 6 451 16 is_stmt 0 view .LVU2459
 8113 0b08 F5EEC06A 		vcmpe.f32	s13, #0
 8114 0b0c F1EE10FA 		vmrs	APSR_nzcv, FPSCR
 8115 0b10 40F15581 		bpl	.L590
 8116              	.LBE1470:
ARM GAS  /tmp/claude-502/ccb6uqMv.s 			page 212


 8117              	.LBE1469:
1137:src/main.cpp  ****             float l3_raw   = 2.0f * p01 - 1.0f;                 if(l3_raw < 0) l3_raw = 0;
 8118              		.loc 6 1137 19 view .LVU2460
 8119 0b14 F7EE008A 		vmov.f32	s17, #1.0e+0
1138:src/main.cpp  ****             float l2_raw   = 1.0f - 2.0f * fabsf(p01 - 0.5f);   if(l2_raw < 0) l2_raw = 0;
 8120              		.loc 6 1138 87 view .LVU2461
 8121 0b18 9FEDD4BA 		vldr.32	s22, .L605+32
 8122              	.LVL653:
 8123              	.L454:
1139:src/main.cpp  ****             led1_target    = sqrtf(sqrtf(l2_raw)) * prs_mult;  // middle tent
 8124              		.loc 6 1139 13 is_stmt 1 view .LVU2462
1139:src/main.cpp  ****             led1_target    = sqrtf(sqrtf(l2_raw)) * prs_mult;  // middle tent
 8125              		.loc 6 1139 65 view .LVU2463
1139:src/main.cpp  ****             led1_target    = sqrtf(sqrtf(l2_raw)) * prs_mult;  // middle tent
 8126              		.loc 6 1139 87 is_stmt 0 view .LVU2464
 8127 0b1c B6EE08CA 		vmov.f32	s24, #7.5e-1
 8128 0b20 9FEDD27A 		vldr.32	s14, .L605+32
 8129              	.L399:
 8130              	.LVL654:
1140:src/main.cpp  ****             led2_target    = sqrtf(sqrtf(l1_raw)) * prs_mult;  // pos 0 ramp
 8131              		.loc 6 1140 35 view .LVU2465
 8132 0b24 B1EEC70A 		vsqrt.f32	s0, s14
 8133              	.LVL655:
 8134              	.L402:
1140:src/main.cpp  ****             led2_target    = sqrtf(sqrtf(l1_raw)) * prs_mult;  // pos 0 ramp
 8135              		.loc 6 1140 35 view .LVU2466
 8136 0b28 B5EE400A 		vcmp.f32	s0, #0
 8137 0b2c F1EE10FA 		vmrs	APSR_nzcv, FPSCR
 8138 0b30 00F1E382 		bmi	.L559
 8139 0b34 F1EEC07A 		vsqrt.f32	s15, s0
 8140              	.L405:
 8141 0b38 F5EE408A 		vcmp.f32	s17, #0
1140:src/main.cpp  ****             led2_target    = sqrtf(sqrtf(l1_raw)) * prs_mult;  // pos 0 ramp
 8142              		.loc 6 1140 28 view .LVU2467
 8143 0b3c 2CEE278A 		vmul.f32	s16, s24, s15
 8144              	.LVL656:
1141:src/main.cpp  ****             led3_target    = sqrtf(sqrtf(l3_raw)) * prs_mult * LED3_INTENSITY;
 8145              		.loc 6 1141 13 is_stmt 1 view .LVU2468
 8146 0b40 F1EE10FA 		vmrs	APSR_nzcv, FPSCR
 8147 0b44 00F1D482 		bmi	.L560
1141:src/main.cpp  ****             led3_target    = sqrtf(sqrtf(l3_raw)) * prs_mult * LED3_INTENSITY;
 8148              		.loc 6 1141 35 is_stmt 0 view .LVU2469
 8149 0b48 B1EEE80A 		vsqrt.f32	s0, s17
 8150              	.L408:
 8151 0b4c B5EE400A 		vcmp.f32	s0, #0
 8152 0b50 F1EE10FA 		vmrs	APSR_nzcv, FPSCR
 8153 0b54 00F1C782 		bmi	.L561
 8154 0b58 F1EEC07A 		vsqrt.f32	s15, s0
 8155              	.L411:
 8156 0b5c B5EE40BA 		vcmp.f32	s22, #0
1141:src/main.cpp  ****             led3_target    = sqrtf(sqrtf(l3_raw)) * prs_mult * LED3_INTENSITY;
 8157              		.loc 6 1141 28 view .LVU2470
 8158 0b60 6CEE278A 		vmul.f32	s17, s24, s15
 8159              	.LVL657:
1142:src/main.cpp  ****         }
 8160              		.loc 6 1142 13 is_stmt 1 view .LVU2471
 8161 0b64 F1EE10FA 		vmrs	APSR_nzcv, FPSCR
ARM GAS  /tmp/claude-502/ccb6uqMv.s 			page 213


 8162 0b68 00F1B882 		bmi	.L562
1142:src/main.cpp  ****         }
 8163              		.loc 6 1142 35 is_stmt 0 view .LVU2472
 8164 0b6c B1EECB0A 		vsqrt.f32	s0, s22
 8165              	.L414:
1142:src/main.cpp  ****         }
 8166              		.loc 6 1142 35 view .LVU2473
 8167 0b70 B5EE400A 		vcmp.f32	s0, #0
 8168 0b74 F1EE10FA 		vmrs	APSR_nzcv, FPSCR
 8169 0b78 00F1AB82 		bmi	.L563
 8170 0b7c F1EEC07A 		vsqrt.f32	s15, s0
 8171              	.L417:
1142:src/main.cpp  ****         }
 8172              		.loc 6 1142 28 view .LVU2474
 8173 0b80 9FEDBB7A 		vldr.32	s14, .L605+36
 8174              	.LBE1493:
 8175              	.LBB1494:
1146:src/main.cpp  ****             s_led1 = led1_target;
 8176              		.loc 6 1146 9 view .LVU2475
 8177 0b84 059B     		ldr	r3, [sp, #20]
 8178              	.LBE1494:
 8179              	.LBB1495:
1142:src/main.cpp  ****         }
 8180              		.loc 6 1142 51 view .LVU2476
 8181 0b86 6CEE277A 		vmul.f32	s15, s24, s15
1142:src/main.cpp  ****         }
 8182              		.loc 6 1142 28 view .LVU2477
 8183 0b8a 67EE877A 		vmul.f32	s15, s15, s14
 8184              	.LVL658:
1142:src/main.cpp  ****         }
 8185              		.loc 6 1142 28 view .LVU2478
 8186              	.LBE1495:
1146:src/main.cpp  ****             s_led1 = led1_target;
 8187              		.loc 6 1146 9 is_stmt 1 view .LVU2479
 8188              	.LBB1496:
 8189 0b8e 002B     		cmp	r3, #0
 8190 0b90 40F0CA80 		bne	.L591
 8191              	.LBE1496:
 8192              	.LBB1497:
1142:src/main.cpp  ****         }
 8193              		.loc 6 1142 28 is_stmt 0 view .LVU2480
 8194 0b94 B0EE679A 		vmov.f32	s18, s15
 8195              	.LVL659:
1141:src/main.cpp  ****             led3_target    = sqrtf(sqrtf(l3_raw)) * prs_mult * LED3_INTENSITY;
 8196              		.loc 6 1141 28 view .LVU2481
 8197 0b98 B0EE68AA 		vmov.f32	s20, s17
 8198              	.LVL660:
1140:src/main.cpp  ****             led2_target    = sqrtf(sqrtf(l1_raw)) * prs_mult;  // pos 0 ramp
 8199              		.loc 6 1140 28 view .LVU2482
 8200 0b9c F0EE489A 		vmov.f32	s19, s16
 8201              	.LVL661:
1140:src/main.cpp  ****             led2_target    = sqrtf(sqrtf(l1_raw)) * prs_mult;  // pos 0 ramp
 8202              		.loc 6 1140 28 view .LVU2483
 8203 0ba0 FFF7A2BB 		b	.L418
 8204              	.LVL662:
 8205              	.L580:
1140:src/main.cpp  ****             led2_target    = sqrtf(sqrtf(l1_raw)) * prs_mult;  // pos 0 ramp
ARM GAS  /tmp/claude-502/ccb6uqMv.s 			page 214


 8206              		.loc 6 1140 28 view .LVU2484
 8207              	.LBE1497:
 8208              	.LBB1498:
 8209              	.LBB1351:
1170:src/main.cpp  **** 
 8210              		.loc 6 1170 13 is_stmt 1 view .LVU2485
1173:src/main.cpp  ****                 x = x<0?0:x>1?1:x;
 8211              		.loc 6 1173 13 view .LVU2486
1179:src/main.cpp  ****             float ss3 = smootherstep2(ss2);   // triple smootherstep ŌĆö very lazy
 8212              		.loc 6 1179 13 view .LVU2487
 8213              	.LBB1324:
1079:src/main.cpp  ****                 x = x<0?0:x>1?1:x;
 8214              		.loc 6 1079 33 view .LVU2488
 8215              	.LBB1299:
1080:src/main.cpp  ****                 return x*x*x*(x*(x*6.0f - 15.0f) + 10.0f);
 8216              		.loc 6 1080 17 view .LVU2489
1081:src/main.cpp  ****             };
 8217              		.loc 6 1081 41 is_stmt 0 view .LVU2490
 8218 0ba4 F1EE084A 		vmov.f32	s9, #6.0e+0
 8219              	.LBE1299:
 8220              	.LBE1324:
1192:src/main.cpp  ****             float rm    = smoothstep2(rm_in) * VOICE.ringmod_max;
 8221              		.loc 6 1192 41 view .LVU2491
 8222 0ba8 9FEDC25A 		vldr.32	s10, .L605+104
 8223              	.LBB1325:
 8224              	.LBB1300:
1081:src/main.cpp  ****             };
 8225              		.loc 6 1081 41 view .LVU2492
 8226 0bac FAEE0E5A 		vmov.f32	s11, #-1.5e+1
 8227              	.LBE1300:
 8228              	.LBE1325:
1192:src/main.cpp  ****             float rm    = smoothstep2(rm_in) * VOICE.ringmod_max;
 8229              		.loc 6 1192 33 view .LVU2493
 8230 0bb0 DFEDC13A 		vldr.32	s7, .L605+108
 8231              	.LBB1326:
 8232              	.LBB1301:
1081:src/main.cpp  ****             };
 8233              		.loc 6 1081 50 view .LVU2494
 8234 0bb4 B2EE046A 		vmov.f32	s12, #1.0e+1
1081:src/main.cpp  ****             };
 8235              		.loc 6 1081 25 view .LVU2495
 8236 0bb8 27EEA77A 		vmul.f32	s14, s15, s15
1081:src/main.cpp  ****             };
 8237              		.loc 6 1081 41 view .LVU2496
 8238 0bbc E7EEA45A 		vfma.f32	s11, s15, s9
 8239              	.LBE1301:
 8240              	.LBE1326:
1192:src/main.cpp  ****             float rm    = smoothstep2(rm_in) * VOICE.ringmod_max;
 8241              		.loc 6 1192 41 view .LVU2497
 8242 0bc0 37EEC55A 		vsub.f32	s10, s15, s10
 8243              	.LBB1327:
 8244              	.LBB1302:
1081:src/main.cpp  ****             };
 8245              		.loc 6 1081 27 view .LVU2498
 8246 0bc4 27EE277A 		vmul.f32	s14, s14, s15
 8247              	.LBE1302:
 8248              	.LBE1327:
ARM GAS  /tmp/claude-502/ccb6uqMv.s 			page 215


1192:src/main.cpp  ****             float rm    = smoothstep2(rm_in) * VOICE.ringmod_max;
 8249              		.loc 6 1192 33 view .LVU2499
 8250 0bc8 C5EE234A 		vdiv.f32	s9, s10, s7
 8251              	.LBB1328:
 8252              	.LBB1303:
1081:src/main.cpp  ****             };
 8253              		.loc 6 1081 50 view .LVU2500
 8254 0bcc A7EEA56A 		vfma.f32	s12, s15, s11
1081:src/main.cpp  ****             };
 8255              		.loc 6 1081 57 view .LVU2501
 8256 0bd0 27EE067A 		vmul.f32	s14, s14, s12
1081:src/main.cpp  ****             };
 8257              		.loc 6 1081 17 is_stmt 1 view .LVU2502
 8258              	.LVL663:
1081:src/main.cpp  ****             };
 8259              		.loc 6 1081 17 is_stmt 0 view .LVU2503
 8260              	.LBE1303:
 8261              	.LBE1328:
1180:src/main.cpp  ****             float bc  = smootherstep2(ss3) * VOICE.fold_max; // ceiling is voice-defined
 8262              		.loc 6 1180 13 is_stmt 1 view .LVU2504
 8263              	.LBB1329:
1079:src/main.cpp  ****                 x = x<0?0:x>1?1:x;
 8264              		.loc 6 1079 33 view .LVU2505
 8265              	.LBB1306:
1080:src/main.cpp  ****                 return x*x*x*(x*(x*6.0f - 15.0f) + 10.0f);
 8266              		.loc 6 1080 17 view .LVU2506
1080:src/main.cpp  ****                 return x*x*x*(x*(x*6.0f - 15.0f) + 10.0f);
 8267              		.loc 6 1080 24 is_stmt 0 view .LVU2507
 8268 0bd4 B5EEC07A 		vcmpe.f32	s14, #0
 8269 0bd8 F1EE10FA 		vmrs	APSR_nzcv, FPSCR
 8270 0bdc 40F1BE81 		bpl	.L592
 8271              	.LVL664:
 8272              	.L495:
1080:src/main.cpp  ****                 return x*x*x*(x*(x*6.0f - 15.0f) + 10.0f);
 8273              		.loc 6 1080 24 view .LVU2508
 8274 0be0 9FEDA27A 		vldr.32	s14, .L605+32
 8275              	.L422:
1080:src/main.cpp  ****                 return x*x*x*(x*(x*6.0f - 15.0f) + 10.0f);
 8276              		.loc 6 1080 24 view .LVU2509
 8277              	.LBE1306:
 8278              	.LBE1329:
 8279              	.LBB1330:
 8280              	.LBB1331:
1081:src/main.cpp  ****             };
 8281              		.loc 6 1081 17 is_stmt 1 view .LVU2510
1081:src/main.cpp  ****             };
 8282              		.loc 6 1081 17 is_stmt 0 view .LVU2511
 8283              	.LBE1331:
 8284              	.LBE1330:
1184:src/main.cpp  ****                 x = x<0?0:x>1?1:x;
 8285              		.loc 6 1184 13 is_stmt 1 view .LVU2512
1189:src/main.cpp  **** 
 8286              		.loc 6 1189 13 view .LVU2513
 8287              	.LVL665:
 8288              	.LBB1338:
 8289              	.LBI1310:
1184:src/main.cpp  ****                 x = x<0?0:x>1?1:x;
ARM GAS  /tmp/claude-502/ccb6uqMv.s 			page 216


 8290              		.loc 6 1184 32 view .LVU2514
 8291              	.LBB1314:
1185:src/main.cpp  ****                 return x*x*(3.0f - 2.0f*x);
 8292              		.loc 6 1185 17 view .LVU2515
1185:src/main.cpp  ****                 return x*x*(3.0f - 2.0f*x);
 8293              		.loc 6 1185 24 is_stmt 0 view .LVU2516
 8294 0be4 9FEDA16A 		vldr.32	s12, .L605+32
 8295 0be8 F4EEC67A 		vcmpe.f32	s15, s12
 8296 0bec F1EE10FA 		vmrs	APSR_nzcv, FPSCR
 8297 0bf0 7FF5DCAB 		bpl	.L427
1185:src/main.cpp  ****                 return x*x*(3.0f - 2.0f*x);
 8298              		.loc 6 1185 24 view .LVU2517
 8299              	.LBE1314:
 8300              	.LBE1338:
1195:src/main.cpp  ****             g_bitcrush      = bc;
 8301              		.loc 6 1195 42 view .LVU2518
 8302 0bf4 66EE866A 		vmul.f32	s13, s13, s12
 8303 0bf8 FFF7EBBB 		b	.L429
 8304              	.LVL666:
 8305              	.L484:
1195:src/main.cpp  ****             g_bitcrush      = bc;
 8306              		.loc 6 1195 42 view .LVU2519
 8307              	.LBE1351:
 8308              	.LBE1498:
 8309              	.LBB1499:
 8310              	.LBB1275:
 8311              	.LBB1247:
 8312              	.LBB1235:
 8313 0bfc 9FED9B7A 		vldr.32	s14, .L605+32
 8314              	.LVL667:
1195:src/main.cpp  ****             g_bitcrush      = bc;
 8315              		.loc 6 1195 42 view .LVU2520
 8316 0c00 56E7     		b	.L384
 8317              	.LVL668:
 8318              	.L490:
1195:src/main.cpp  ****             g_bitcrush      = bc;
 8319              		.loc 6 1195 42 view .LVU2521
 8320              	.LBE1235:
 8321              	.LBE1247:
 8322              	.LBE1275:
 8323              	.LBE1499:
 8324              	.LBB1500:
 8325              	.LBB1352:
 8326              	.LBB1339:
 8327              	.LBB1291:
 8328 0c02 FFEE086A 		vmov.f32	s13, #-1.5e+0
 8329 0c06 FFF7ADBB 		b	.L420
 8330              	.LVL669:
 8331              	.L472:
1195:src/main.cpp  ****             g_bitcrush      = bc;
 8332              		.loc 6 1195 42 view .LVU2522
 8333              	.LBE1291:
 8334              	.LBE1339:
 8335              	.LBE1352:
 8336              	.LBE1500:
 978:src/main.cpp  ****         else                        vol = (float)(fsr_raw - FSR_MIN) * fsr_range_inv;
 8337              		.loc 6 978 41 view .LVU2523
ARM GAS  /tmp/claude-502/ccb6uqMv.s 			page 217


 8338 0c0a F7EE007A 		vmov.f32	s15, #1.0e+0
 8339 0c0e FFF7D9BA 		b	.L342
 8340              	.LVL670:
 8341              	.L492:
 8342              	.LBB1501:
 8343              	.LBB1353:
 8344              	.LBB1340:
 8345              	.LBB1295:
 978:src/main.cpp  ****         else                        vol = (float)(fsr_raw - FSR_MIN) * fsr_range_inv;
 8346              		.loc 6 978 41 view .LVU2524
 8347 0c12 DFED984A 		vldr.32	s9, .L605+40
 451:src/main.cpp  **** }
 8348              		.loc 6 451 16 view .LVU2525
 8349 0c16 DFED957A 		vldr.32	s15, .L605+32
 8350              	.LVL671:
 451:src/main.cpp  **** }
 8351              		.loc 6 451 16 view .LVU2526
 8352 0c1a FFF7BDBB 		b	.L421
 8353              	.LVL672:
 8354              	.L589:
 451:src/main.cpp  **** }
 8355              		.loc 6 451 16 view .LVU2527
 8356              	.LBE1295:
 8357              	.LBE1340:
 8358              	.LBE1353:
 8359              	.LBE1501:
 8360              	.LBB1502:
1135:src/main.cpp  ****             float prs_mult = 0.75f + 0.25f * pr01;
 8361              		.loc 6 1135 36 view .LVU2528
 8362 0c1e 9FED927A 		vldr.32	s14, .L605+28
 8363              	.LBB1479:
 8364              	.LBB1464:
 451:src/main.cpp  **** }
 8365              		.loc 6 451 24 view .LVU2529
 8366 0c22 F7EE007A 		vmov.f32	s15, #1.0e+0
 8367              	.LBE1464:
 8368              	.LBE1479:
1135:src/main.cpp  ****             float prs_mult = 0.75f + 0.25f * pr01;
 8369              		.loc 6 1135 36 view .LVU2530
 8370 0c26 CBEE076A 		vdiv.f32	s13, s22, s14
 8371              	.LVL673:
 8372              	.LBB1480:
 450:src/main.cpp  ****     return v<lo?lo:v>hi?hi:v;
 8373              		.loc 6 450 21 is_stmt 1 view .LVU2531
 8374              	.LBB1471:
 451:src/main.cpp  **** }
 8375              		.loc 6 451 5 view .LVU2532
 8376              	.LBE1471:
 8377              	.LBE1480:
 8378              	.LBB1481:
 8379              	.LBB1465:
 451:src/main.cpp  **** }
 8380              		.loc 6 451 24 is_stmt 0 view .LVU2533
 8381 0c2a F4EEE7BA 		vcmpe.f32	s23, s15
 8382 0c2e F1EE10FA 		vmrs	APSR_nzcv, FPSCR
 8383              	.LBE1465:
 8384              	.LBE1481:
ARM GAS  /tmp/claude-502/ccb6uqMv.s 			page 218


 8385              	.LBB1482:
 8386              	.LBB1472:
 451:src/main.cpp  **** }
 8387              		.loc 6 451 16 view .LVU2534
 8388 0c32 F5EEC06A 		vcmpe.f32	s13, #0
 8389              	.LBE1472:
 8390              	.LBE1482:
 8391              	.LBB1483:
 8392              	.LBB1466:
 451:src/main.cpp  **** }
 8393              		.loc 6 451 24 view .LVU2535
 8394 0c36 00F36181 		bgt	.L389
 8395              	.LVL674:
 451:src/main.cpp  **** }
 8396              		.loc 6 451 24 view .LVU2536
 8397              	.LBE1466:
 8398              	.LBE1483:
1135:src/main.cpp  ****             float prs_mult = 0.75f + 0.25f * pr01;
 8399              		.loc 6 1135 13 is_stmt 1 view .LVU2537
 8400              	.LBB1484:
 8401              	.LBB1473:
 451:src/main.cpp  **** }
 8402              		.loc 6 451 16 is_stmt 0 view .LVU2538
 8403 0c3a F1EE10FA 		vmrs	APSR_nzcv, FPSCR
 8404 0c3e 40F16881 		bpl	.L556
 8405              	.LBE1473:
 8406              	.LBE1484:
1139:src/main.cpp  ****             led1_target    = sqrtf(sqrtf(l2_raw)) * prs_mult;  // middle tent
 8407              		.loc 6 1139 54 view .LVU2539
 8408 0c42 F6EE006A 		vmov.f32	s13, #5.0e-1
 8409              	.LVL675:
1137:src/main.cpp  ****             float l3_raw   = 2.0f * p01 - 1.0f;                 if(l3_raw < 0) l3_raw = 0;
 8410              		.loc 6 1137 19 view .LVU2540
 8411 0c46 B0EE006A 		vmov.f32	s12, #2.0e+0
1138:src/main.cpp  ****             float l2_raw   = 1.0f - 2.0f * fabsf(p01 - 0.5f);   if(l2_raw < 0) l2_raw = 0;
 8412              		.loc 6 1138 19 view .LVU2541
 8413 0c4a BFEE00BA 		vmov.f32	s22, #-1.0e+0
 8414              	.LVL676:
1139:src/main.cpp  ****             led1_target    = sqrtf(sqrtf(l2_raw)) * prs_mult;  // middle tent
 8415              		.loc 6 1139 19 view .LVU2542
 8416 0c4e B6EE08CA 		vmov.f32	s24, #7.5e-1
 8417              	.L572:
1139:src/main.cpp  ****             led1_target    = sqrtf(sqrtf(l2_raw)) * prs_mult;  // middle tent
 8418              		.loc 6 1139 54 view .LVU2543
 8419 0c52 7BEEE66A 		vsub.f32	s13, s23, s13
1137:src/main.cpp  ****             float l3_raw   = 2.0f * p01 - 1.0f;                 if(l3_raw < 0) l3_raw = 0;
 8420              		.loc 6 1137 19 view .LVU2544
 8421 0c56 F0EE678A 		vmov.f32	s17, s15
1138:src/main.cpp  ****             float l2_raw   = 1.0f - 2.0f * fabsf(p01 - 0.5f);   if(l2_raw < 0) l2_raw = 0;
 8422              		.loc 6 1138 19 view .LVU2545
 8423 0c5a ABEE86BA 		vfma.f32	s22, s23, s12
1139:src/main.cpp  ****             led1_target    = sqrtf(sqrtf(l2_raw)) * prs_mult;  // middle tent
 8424              		.loc 6 1139 49 view .LVU2546
 8425 0c5e F0EEE66A 		vabs.f32	s13, s13
1137:src/main.cpp  ****             float l3_raw   = 2.0f * p01 - 1.0f;                 if(l3_raw < 0) l3_raw = 0;
 8426              		.loc 6 1137 19 view .LVU2547
 8427 0c62 EBEEC68A 		vfms.f32	s17, s23, s12
ARM GAS  /tmp/claude-502/ccb6uqMv.s 			page 219


1139:src/main.cpp  ****             led1_target    = sqrtf(sqrtf(l2_raw)) * prs_mult;  // middle tent
 8428              		.loc 6 1139 19 view .LVU2548
 8429 0c66 E6EEC67A 		vfms.f32	s15, s13, s12
 8430 0c6a B0EE677A 		vmov.f32	s14, s15
 8431              	.LVL677:
 8432              	.L392:
1136:src/main.cpp  ****             float l1_raw   = 1.0f - 2.0f * p01;                 if(l1_raw < 0) l1_raw = 0;
 8433              		.loc 6 1136 13 is_stmt 1 view .LVU2549
1137:src/main.cpp  ****             float l3_raw   = 2.0f * p01 - 1.0f;                 if(l3_raw < 0) l3_raw = 0;
 8434              		.loc 6 1137 13 view .LVU2550
1137:src/main.cpp  ****             float l3_raw   = 2.0f * p01 - 1.0f;                 if(l3_raw < 0) l3_raw = 0;
 8435              		.loc 6 1137 65 view .LVU2551
 8436 0c6e F5EEC08A 		vcmpe.f32	s17, #0
 8437 0c72 F1EE10FA 		vmrs	APSR_nzcv, FPSCR
1138:src/main.cpp  ****             float l2_raw   = 1.0f - 2.0f * fabsf(p01 - 0.5f);   if(l2_raw < 0) l2_raw = 0;
 8438              		.loc 6 1138 65 is_stmt 0 view .LVU2552
 8439 0c76 B5EEC0BA 		vcmpe.f32	s22, #0
1137:src/main.cpp  ****             float l3_raw   = 2.0f * p01 - 1.0f;                 if(l3_raw < 0) l3_raw = 0;
 8440              		.loc 6 1137 87 view .LVU2553
 8441 0c7a 48BF     		it	mi
 8442 0c7c DFED7B8A 		vldrmi.32	s17, .L605+32
 8443              	.LVL678:
1138:src/main.cpp  ****             float l2_raw   = 1.0f - 2.0f * fabsf(p01 - 0.5f);   if(l2_raw < 0) l2_raw = 0;
 8444              		.loc 6 1138 13 is_stmt 1 view .LVU2554
1138:src/main.cpp  ****             float l2_raw   = 1.0f - 2.0f * fabsf(p01 - 0.5f);   if(l2_raw < 0) l2_raw = 0;
 8445              		.loc 6 1138 65 view .LVU2555
 8446 0c80 F1EE10FA 		vmrs	APSR_nzcv, FPSCR
1139:src/main.cpp  ****             led1_target    = sqrtf(sqrtf(l2_raw)) * prs_mult;  // middle tent
 8447              		.loc 6 1139 65 is_stmt 0 view .LVU2556
 8448 0c84 B5EEC07A 		vcmpe.f32	s14, #0
1138:src/main.cpp  ****             float l2_raw   = 1.0f - 2.0f * fabsf(p01 - 0.5f);   if(l2_raw < 0) l2_raw = 0;
 8449              		.loc 6 1138 87 view .LVU2557
 8450 0c88 48BF     		it	mi
 8451 0c8a 9FED78BA 		vldrmi.32	s22, .L605+32
 8452              	.LVL679:
1139:src/main.cpp  ****             led1_target    = sqrtf(sqrtf(l2_raw)) * prs_mult;  // middle tent
 8453              		.loc 6 1139 13 is_stmt 1 view .LVU2558
1139:src/main.cpp  ****             led1_target    = sqrtf(sqrtf(l2_raw)) * prs_mult;  // middle tent
 8454              		.loc 6 1139 65 view .LVU2559
 8455 0c8e F1EE10FA 		vmrs	APSR_nzcv, FPSCR
 8456 0c92 40F1C581 		bpl	.L593
1139:src/main.cpp  ****             led1_target    = sqrtf(sqrtf(l2_raw)) * prs_mult;  // middle tent
 8457              		.loc 6 1139 87 is_stmt 0 view .LVU2560
 8458 0c96 9FED757A 		vldr.32	s14, .L605+32
 8459 0c9a 43E7     		b	.L399
 8460              	.LVL680:
 8461              	.L378:
1139:src/main.cpp  ****             led1_target    = sqrtf(sqrtf(l2_raw)) * prs_mult;  // middle tent
 8462              		.loc 6 1139 87 view .LVU2561
 8463              	.LBE1502:
 8464              	.LBB1503:
 8465              	.LBB1276:
1026:src/main.cpp  **** 
 8466              		.loc 6 1026 13 is_stmt 1 view .LVU2562
1026:src/main.cpp  **** 
 8467              		.loc 6 1026 52 is_stmt 0 view .LVU2563
 8468 0c9c 99ED02BA 		vldr.32	s22, [r9, #8]	@ int
ARM GAS  /tmp/claude-502/ccb6uqMv.s 			page 220


1026:src/main.cpp  **** 
 8469              		.loc 6 1026 33 view .LVU2564
 8470 0ca0 DFED717A 		vldr.32	s15, .L605+28
1026:src/main.cpp  **** 
 8471              		.loc 6 1026 34 view .LVU2565
 8472 0ca4 B8EECBBA 		vcvt.f32.s32	s22, s22
1026:src/main.cpp  **** 
 8473              		.loc 6 1026 33 view .LVU2566
 8474 0ca8 8BEE278A 		vdiv.f32	s16, s22, s15
 8475              	.LVL681:
 8476              	.LBB1248:
 450:src/main.cpp  ****     return v<lo?lo:v>hi?hi:v;
 8477              		.loc 6 450 21 is_stmt 1 view .LVU2567
 8478              	.LBB1194:
 451:src/main.cpp  **** }
 8479              		.loc 6 451 5 view .LVU2568
 451:src/main.cpp  **** }
 8480              		.loc 6 451 16 is_stmt 0 view .LVU2569
 8481 0cac B5EEC08A 		vcmpe.f32	s16, #0
 8482 0cb0 F1EE10FA 		vmrs	APSR_nzcv, FPSCR
 8483 0cb4 00F19B80 		bmi	.L511
 8484 0cb8 DFED7B8A 		vldr.32	s17, .L605+92
 8485              	.LVL682:
 8486              	.L458:
 451:src/main.cpp  **** }
 8487              		.loc 6 451 24 view .LVU2570
 8488 0cbc B7EE000A 		vmov.f32	s0, #1.0e+0
 8489 0cc0 B4EEC08A 		vcmpe.f32	s16, s0
 8490 0cc4 F1EE10FA 		vmrs	APSR_nzcv, FPSCR
 8491 0cc8 00F38E80 		bgt	.L476
 8492              	.LVL683:
 451:src/main.cpp  **** }
 8493              		.loc 6 451 24 view .LVU2571
 8494              	.LBE1194:
 8495              	.LBE1248:
1031:src/main.cpp  ****             float ex   = 1.0f + earg*(1.0f + earg*(0.5f + earg*0.1667f));
 8496              		.loc 6 1031 13 is_stmt 1 view .LVU2572
1032:src/main.cpp  ****             float freq_continuous = clampf(VOICE.freq_low * ex, VOICE.freq_low, VOICE.freq_high);
 8497              		.loc 6 1032 13 view .LVU2573
1033:src/main.cpp  **** 
 8498              		.loc 6 1033 13 view .LVU2574
 8499              	.LBB1249:
 450:src/main.cpp  ****     return v<lo?lo:v>hi?hi:v;
 8500              		.loc 6 450 21 view .LVU2575
 8501              	.LBB1199:
 451:src/main.cpp  **** }
 8502              		.loc 6 451 5 view .LVU2576
 451:src/main.cpp  **** }
 8503              		.loc 6 451 16 is_stmt 0 view .LVU2577
 8504 0ccc DFED767A 		vldr.32	s15, .L605+92
 8505 0cd0 F4EEE78A 		vcmpe.f32	s17, s15
 8506 0cd4 F1EE10FA 		vmrs	APSR_nzcv, FPSCR
 8507 0cd8 40F1E381 		bpl	.L594
 8508              	.LVL684:
 8509              	.L574:
 451:src/main.cpp  **** }
 8510              		.loc 6 451 16 view .LVU2578
ARM GAS  /tmp/claude-502/ccb6uqMv.s 			page 221


 8511              	.LBE1199:
 8512              	.LBE1249:
 8513              	.LBB1250:
 8514              	.LBB1251:
 8515 0cdc F0EE678A 		vmov.f32	s17, s15
 8516              	.L381:
 8517              	.LVL685:
 451:src/main.cpp  **** }
 8518              		.loc 6 451 16 view .LVU2579
 8519              	.LBE1251:
 8520              	.LBE1250:
1075:src/main.cpp  ****                 x = x<0?0:x>1?1:x;
 8521              		.loc 6 1075 13 is_stmt 1 view .LVU2580
1079:src/main.cpp  ****                 x = x<0?0:x>1?1:x;
 8522              		.loc 6 1079 13 view .LVU2581
1086:src/main.cpp  ****             float cutoff_oct = VOICE.cutoff_oct_max * prs_cut;
 8523              		.loc 6 1086 13 view .LVU2582
 8524              	.LBB1253:
 8525              	.LBI1202:
1079:src/main.cpp  ****                 x = x<0?0:x>1?1:x;
 8526              		.loc 6 1079 33 view .LVU2583
 8527              	.LBB1210:
1080:src/main.cpp  ****                 return x*x*x*(x*(x*6.0f - 15.0f) + 10.0f);
 8528              		.loc 6 1080 17 view .LVU2584
1080:src/main.cpp  ****                 return x*x*x*(x*(x*6.0f - 15.0f) + 10.0f);
 8529              		.loc 6 1080 24 is_stmt 0 view .LVU2585
 8530 0ce0 B5EEC08A 		vcmpe.f32	s16, #0
 8531 0ce4 F1EE10FA 		vmrs	APSR_nzcv, FPSCR
 8532 0ce8 14D5     		bpl	.L468
 8533              	.LVL686:
1081:src/main.cpp  ****             };
 8534              		.loc 6 1081 17 is_stmt 1 view .LVU2586
1081:src/main.cpp  ****             };
 8535              		.loc 6 1081 17 is_stmt 0 view .LVU2587
 8536              	.LBE1210:
 8537              	.LBE1253:
1087:src/main.cpp  ****             float oct_arg  = cutoff_oct * 0.6931f;
 8538              		.loc 6 1087 13 is_stmt 1 view .LVU2588
1088:src/main.cpp  ****             float oct_mult = 1.0f + oct_arg*(1.0f + oct_arg*(0.5f + oct_arg*(0.1667f + oct_arg*0.04
 8539              		.loc 6 1088 13 view .LVU2589
1089:src/main.cpp  ****             // Keytracking: how much the cutoff base follows pitch. keytrack=1 is
 8540              		.loc 6 1089 13 view .LVU2590
1094:src/main.cpp  ****                 ? freq
 8541              		.loc 6 1094 13 view .LVU2591
1096:src/main.cpp  ****             float cutoff   = clampf(track_freq * VOICE.cutoff_mult * oct_mult, 20.0f, 18000.0f);
 8542              		.loc 6 1096 40 is_stmt 0 view .LVU2592
 8543 0cea DFED630A 		vldr.32	s1, .L605+44
 8544 0cee FFF7FEFF 		bl	powf
 8545              	.LVL687:
1095:src/main.cpp  ****                 : VOICE.freq_low * powf(freq / VOICE.freq_low, VOICE.keytrack);
 8546              		.loc 6 1095 17 view .LVU2593
 8547 0cf2 DFED6D7A 		vldr.32	s15, .L605+92
 8548 0cf6 20EE270A 		vmul.f32	s0, s0, s15
 8549              	.LVL688:
1097:src/main.cpp  **** 
 8550              		.loc 6 1097 13 is_stmt 1 view .LVU2594
 8551              	.LBB1254:
ARM GAS  /tmp/claude-502/ccb6uqMv.s 			page 222


 450:src/main.cpp  ****     return v<lo?lo:v>hi?hi:v;
 8552              		.loc 6 450 21 view .LVU2595
 8553              	.LBB1230:
 451:src/main.cpp  **** }
 8554              		.loc 6 451 5 view .LVU2596
 8555 0cfa B5E6     		b	.L383
 8556              	.LVL689:
 8557              	.L570:
 451:src/main.cpp  **** }
 8558              		.loc 6 451 5 is_stmt 0 view .LVU2597
 8559              	.LBE1230:
 8560              	.LBE1254:
 8561              	.LBB1255:
 8562              	.LBB1200:
 451:src/main.cpp  **** }
 8563              		.loc 6 451 24 view .LVU2598
 8564 0cfc DFED717A 		vldr.32	s15, .L605+120
 8565 0d00 F4EEE78A 		vcmpe.f32	s17, s15
 8566 0d04 F1EE10FA 		vmrs	APSR_nzcv, FPSCR
 8567 0d08 40F3E780 		ble	.L469
 8568 0d0c B1EE000A 		vmov.f32	s0, #4.0e+0
 8569 0d10 F0EE678A 		vmov.f32	s17, s15
 8570              	.LVL690:
 8571              	.L468:
 451:src/main.cpp  **** }
 8572              		.loc 6 451 24 view .LVU2599
 8573              	.LBE1200:
 8574              	.LBE1255:
 8575              	.LBB1256:
 8576              	.LBB1211:
1080:src/main.cpp  ****                 return x*x*x*(x*(x*6.0f - 15.0f) + 10.0f);
 8577              		.loc 6 1080 30 view .LVU2600
 8578 0d14 F7EE007A 		vmov.f32	s15, #1.0e+0
 8579 0d18 B4EEE78A 		vcmpe.f32	s16, s15
 8580 0d1c F1EE10FA 		vmrs	APSR_nzcv, FPSCR
 8581 0d20 6BDD     		ble	.L457
 8582 0d22 9FED56CA 		vldr.32	s24, .L605+48
 8583 0d26 8BE6     		b	.L382
 8584              	.LVL691:
 8585              	.L591:
1080:src/main.cpp  ****                 return x*x*x*(x*(x*6.0f - 15.0f) + 10.0f);
 8586              		.loc 6 1080 30 view .LVU2601
 8587              	.LBE1211:
 8588              	.LBE1256:
 8589              	.LBE1276:
 8590              	.LBE1503:
 8591              	.LBB1504:
 8592              	.LBB1284:
1152:src/main.cpp  ****             s_led2 = s_led2 * LED_SMOOTH + led2_target * (1.0f - LED_SMOOTH);
 8593              		.loc 6 1152 56 view .LVU2602
 8594 0d28 9FED556A 		vldr.32	s12, .L605+52
1151:src/main.cpp  ****             s_led1 = s_led1 * LED_SMOOTH + led1_target * (1.0f - LED_SMOOTH);
 8595              		.loc 6 1151 35 view .LVU2603
 8596 0d2c DFED555A 		vldr.32	s11, .L605+56
1152:src/main.cpp  ****             s_led2 = s_led2 * LED_SMOOTH + led2_target * (1.0f - LED_SMOOTH);
 8597              		.loc 6 1152 56 view .LVU2604
 8598 0d30 28EE067A 		vmul.f32	s14, s16, s12
ARM GAS  /tmp/claude-502/ccb6uqMv.s 			page 223


1153:src/main.cpp  ****             s_led3 = s_led3 * smooth3   + led3_target * (1.0f - smooth3);
 8599              		.loc 6 1153 56 view .LVU2605
 8600 0d34 68EE866A 		vmul.f32	s13, s17, s12
1154:src/main.cpp  ****         }
 8601              		.loc 6 1154 55 view .LVU2606
 8602 0d38 67EE867A 		vmul.f32	s15, s15, s12
 8603              	.LVL692:
1154:src/main.cpp  ****         }
 8604              		.loc 6 1154 55 view .LVU2607
 8605 0d3c FFF7C6BA 		b	.L388
 8606              	.LVL693:
 8607              	.L374:
1154:src/main.cpp  ****         }
 8608              		.loc 6 1154 55 view .LVU2608
 8609              	.LBE1284:
 8610              	.LBE1504:
 8611              	.LBB1505:
 8612              	.LBB1454:
 8613              	.LBB1451:
 916:src/main.cpp  ****         hw.dac.WriteValue(DacHandle::Channel::TWO, 0);
 8614              		.loc 6 916 26 view .LVU2609
 8615 0d40 0022     		movs	r2, #0
 8616              	.LVL694:
 916:src/main.cpp  ****         hw.dac.WriteValue(DacHandle::Channel::TWO, 0);
 8617              		.loc 6 916 26 view .LVU2610
 8618 0d42 5148     		ldr	r0, .L605+60
 8619 0d44 099E     		ldr	r6, [sp, #36]
 8620              	.LVL695:
 916:src/main.cpp  ****         hw.dac.WriteValue(DacHandle::Channel::TWO, 0);
 8621              		.loc 6 916 26 view .LVU2611
 8622 0d46 1CEE105A 		vmov	r5, s24	@ int
 8623 0d4a 1146     		mov	r1, r2
 8624              	.LVL696:
 916:src/main.cpp  ****         hw.dac.WriteValue(DacHandle::Channel::TWO, 0);
 8625              		.loc 6 916 26 view .LVU2612
 8626 0d4c 0B9F     		ldr	r7, [sp, #44]
 8627              	.LVL697:
 916:src/main.cpp  ****         hw.dac.WriteValue(DacHandle::Channel::TWO, 0);
 8628              		.loc 6 916 9 is_stmt 1 view .LVU2613
 916:src/main.cpp  ****         hw.dac.WriteValue(DacHandle::Channel::TWO, 0);
 8629              		.loc 6 916 26 is_stmt 0 view .LVU2614
 8630 0d4e FFF7FEFF 		bl	_ZN5daisy9DacHandle10WriteValueENS0_7ChannelEt
 8631              	.LVL698:
 917:src/main.cpp  ****         g_led3_duty = 0.0f;
 8632              		.loc 6 917 9 is_stmt 1 view .LVU2615
 917:src/main.cpp  ****         g_led3_duty = 0.0f;
 8633              		.loc 6 917 26 is_stmt 0 view .LVU2616
 8634 0d52 0121     		movs	r1, #1
 8635 0d54 0022     		movs	r2, #0
 8636 0d56 4C48     		ldr	r0, .L605+60
 8637 0d58 FFF7FEFF 		bl	_ZN5daisy9DacHandle10WriteValueENS0_7ChannelEt
 8638              	.LVL699:
 918:src/main.cpp  ****     };
 8639              		.loc 6 918 9 is_stmt 1 view .LVU2617
 918:src/main.cpp  ****     };
 8640              		.loc 6 918 21 is_stmt 0 view .LVU2618
 8641 0d5c 0023     		movs	r3, #0
ARM GAS  /tmp/claude-502/ccb6uqMv.s 			page 224


 8642 0d5e 4B4A     		ldr	r2, .L605+64
 8643 0d60 1360     		str	r3, [r2]	@ float
 8644              	.LVL700:
 918:src/main.cpp  ****     };
 8645              		.loc 6 918 21 view .LVU2619
 8646              	.LBE1451:
 8647              	.LBE1454:
 8648              	.LBE1505:
1011:src/main.cpp  ****             idle_since    = System::GetNow();
 8649              		.loc 6 1011 13 is_stmt 1 view .LVU2620
1011:src/main.cpp  ****             idle_since    = System::GetNow();
 8650              		.loc 6 1011 43 is_stmt 0 view .LVU2621
 8651 0d62 FFF7FEFF 		bl	_ZN5daisy6System6GetNowEv
 8652              	.LVL701:
 8653 0d66 0990     		str	r0, [sp, #36]
 8654              	.LVL702:
1012:src/main.cpp  ****             hw.PrintLine("[fsr recal] fsr_max=%d", (int)fsr_max);
 8655              		.loc 6 1012 13 is_stmt 1 view .LVU2622
1012:src/main.cpp  ****             hw.PrintLine("[fsr recal] fsr_max=%d", (int)fsr_max);
 8656              		.loc 6 1012 43 is_stmt 0 view .LVU2623
 8657 0d68 FFF7FEFF 		bl	_ZN5daisy6System6GetNowEv
 8658              	.LVL703:
 8659              	.LBB1506:
 8660              	.LBB1507:
 128:/Users/reza.kalfane/Workspaces/Daisy/DaisyExamples/libDaisy/src/daisy_seed.h ****     }
 8661              		.loc 1 128 23 view .LVU2624
 8662 0d6c 0A99     		ldr	r1, [sp, #40]
 8663              	.LBE1507:
 8664              	.LBE1506:
1012:src/main.cpp  ****             hw.PrintLine("[fsr recal] fsr_max=%d", (int)fsr_max);
 8665              		.loc 6 1012 43 view .LVU2625
 8666 0d6e 0890     		str	r0, [sp, #32]
 8667              	.LVL704:
1013:src/main.cpp  ****         }
 8668              		.loc 6 1013 13 is_stmt 1 view .LVU2626
 8669              	.LBB1509:
 8670              	.LBI1506:
 126:/Users/reza.kalfane/Workspaces/Daisy/DaisyExamples/libDaisy/src/daisy_seed.h ****     {
 8671              		.loc 1 126 17 view .LVU2627
 8672              	.LBB1508:
 128:/Users/reza.kalfane/Workspaces/Daisy/DaisyExamples/libDaisy/src/daisy_seed.h ****     }
 8673              		.loc 1 128 23 is_stmt 0 view .LVU2628
 8674 0d70 4748     		ldr	r0, .L605+68
 8675              	.LVL705:
 128:/Users/reza.kalfane/Workspaces/Daisy/DaisyExamples/libDaisy/src/daisy_seed.h ****     }
 8676              		.loc 1 128 23 view .LVU2629
 8677 0d72 FFF7FEFF 		bl	_ZN5daisy6LoggerILNS_17LoggerDestinationE1EE9PrintLineEPKcz
 8678              	.LVL706:
 129:/Users/reza.kalfane/Workspaces/Daisy/DaisyExamples/libDaisy/src/daisy_seed.h **** 
 8679              		.loc 1 129 5 view .LVU2630
 8680 0d76 FFF78BBA 		b	.L347
 8681              	.LVL707:
 8682              	.L584:
 129:/Users/reza.kalfane/Workspaces/Daisy/DaisyExamples/libDaisy/src/daisy_seed.h **** 
 8683              		.loc 1 129 5 view .LVU2631
 8684              	.LBE1508:
 8685              	.LBE1509:
ARM GAS  /tmp/claude-502/ccb6uqMv.s 			page 225


 999:src/main.cpp  ****                 capture_baseline(baseline);
 8686              		.loc 6 999 17 is_stmt 1 view .LVU2632
 999:src/main.cpp  ****                 capture_baseline(baseline);
 8687              		.loc 6 999 50 is_stmt 0 view .LVU2633
 8688 0d7a 0023     		movs	r3, #0
1000:src/main.cpp  ****                 hw.PrintLine("[rebaseline]");
 8689              		.loc 6 1000 33 view .LVU2634
 8690 0d7c 0798     		ldr	r0, [sp, #28]
 999:src/main.cpp  ****                 capture_baseline(baseline);
 8691              		.loc 6 999 50 view .LVU2635
 8692 0d7e 89F81430 		strb	r3, [r9, #20]
 999:src/main.cpp  ****                 capture_baseline(baseline);
 8693              		.loc 6 999 33 view .LVU2636
 8694 0d82 89F80030 		strb	r3, [r9]
1000:src/main.cpp  ****                 hw.PrintLine("[rebaseline]");
 8695              		.loc 6 1000 17 is_stmt 1 view .LVU2637
1000:src/main.cpp  ****                 hw.PrintLine("[rebaseline]");
 8696              		.loc 6 1000 33 is_stmt 0 view .LVU2638
 8697 0d86 FFF7FEFF 		bl	_Z16capture_baselinePt
 8698              	.LVL708:
1001:src/main.cpp  ****                 idle_since=System::GetNow();
 8699              		.loc 6 1001 17 is_stmt 1 view .LVU2639
 8700              	.LBB1510:
 8701              	.LBI1510:
 126:/Users/reza.kalfane/Workspaces/Daisy/DaisyExamples/libDaisy/src/daisy_seed.h ****     {
 8702              		.loc 1 126 17 view .LVU2640
 8703              	.LBB1511:
 128:/Users/reza.kalfane/Workspaces/Daisy/DaisyExamples/libDaisy/src/daisy_seed.h ****     }
 8704              		.loc 1 128 23 is_stmt 0 view .LVU2641
 8705 0d8a 4248     		ldr	r0, .L605+72
 8706 0d8c FFF7FEFF 		bl	_ZN5daisy6LoggerILNS_17LoggerDestinationE1EE9PrintLineEPKcz
 8707              	.LVL709:
 128:/Users/reza.kalfane/Workspaces/Daisy/DaisyExamples/libDaisy/src/daisy_seed.h ****     }
 8708              		.loc 1 128 23 view .LVU2642
 8709              	.LBE1511:
 8710              	.LBE1510:
1002:src/main.cpp  ****             }
 8711              		.loc 6 1002 17 is_stmt 1 view .LVU2643
1002:src/main.cpp  ****             }
 8712              		.loc 6 1002 42 is_stmt 0 view .LVU2644
 8713 0d90 FFF7FEFF 		bl	_ZN5daisy6System6GetNowEv
 8714              	.LVL710:
 8715 0d94 0890     		str	r0, [sp, #32]
 8716              	.LVL711:
1002:src/main.cpp  ****             }
 8717              		.loc 6 1002 42 view .LVU2645
 8718 0d96 C5E4     		b	.L348
 8719              	.LVL712:
 8720              	.L588:
 8721              	.LBB1512:
 8722              	.LBB1277:
 8723              	.LBB1257:
 8724              	.LBB1245:
1077:src/main.cpp  ****             };
 8725              		.loc 6 1077 34 view .LVU2646
 8726 0d98 B0EE005A 		vmov.f32	s10, #2.0e+0
 8727 0d9c B0EE086A 		vmov.f32	s12, #3.0e+0
ARM GAS  /tmp/claude-502/ccb6uqMv.s 			page 226


1077:src/main.cpp  ****             };
 8728              		.loc 6 1077 25 view .LVU2647
 8729 0da0 68EE086A 		vmul.f32	s13, s16, s16
 8730              	.LBE1245:
 8731              	.LBE1257:
1104:src/main.cpp  **** 
 8732              		.loc 6 1104 60 view .LVU2648
 8733 0da4 F6EE005A 		vmov.f32	s11, #5.0e-1
 8734              	.LBB1258:
 8735              	.LBB1246:
1077:src/main.cpp  ****             };
 8736              		.loc 6 1077 34 view .LVU2649
 8737 0da8 A8EE456A 		vfms.f32	s12, s16, s10
1077:src/main.cpp  ****             };
 8738              		.loc 6 1077 42 view .LVU2650
 8739 0dac 66EE866A 		vmul.f32	s13, s13, s12
 8740              	.LBE1246:
 8741              	.LBE1258:
1104:src/main.cpp  **** 
 8742              		.loc 6 1104 60 view .LVU2651
 8743 0db0 E6EEA57A 		vfma.f32	s15, s13, s11
 8744 0db4 8BE6     		b	.L385
 8745              	.LVL713:
 8746              	.L491:
1104:src/main.cpp  **** 
 8747              		.loc 6 1104 60 view .LVU2652
 8748              	.LBE1277:
 8749              	.LBE1512:
 8750              	.LBB1513:
 8751              	.LBB1354:
 8752              	.LBB1341:
 8753              	.LBB1292:
 8754 0db6 F7EE086A 		vmov.f32	s13, #1.5e+0
 8755 0dba FFF7D3BA 		b	.L420
 8756              	.LVL714:
 8757              	.L590:
1104:src/main.cpp  **** 
 8758              		.loc 6 1104 60 view .LVU2653
 8759              	.LBE1292:
 8760              	.LBE1341:
 8761              	.LBE1354:
 8762              	.LBE1513:
 8763              	.LBB1514:
 8764              	.LBB1485:
 8765              	.LBB1474:
 451:src/main.cpp  **** }
 8766              		.loc 6 451 24 view .LVU2654
 8767 0dbe F7EE008A 		vmov.f32	s17, #1.0e+0
 8768 0dc2 F4EEE86A 		vcmpe.f32	s13, s17
 8769 0dc6 F1EE10FA 		vmrs	APSR_nzcv, FPSCR
 8770 0dca 00F3B080 		bgt	.L513
 8771 0dce BFEE00BA 		vmov.f32	s22, #-1.0e+0
 8772 0dd2 9FED267A 		vldr.32	s14, .L605+32
 8773              	.LVL715:
 8774              	.L463:
 451:src/main.cpp  **** }
 8775              		.loc 6 451 24 view .LVU2655
ARM GAS  /tmp/claude-502/ccb6uqMv.s 			page 227


 8776              	.LBE1474:
 8777              	.LBE1485:
1136:src/main.cpp  ****             float l1_raw   = 1.0f - 2.0f * p01;                 if(l1_raw < 0) l1_raw = 0;
 8778              		.loc 6 1136 19 view .LVU2656
 8779 0dd6 B5EE006A 		vmov.f32	s12, #2.5e-1
 8780 0dda F6EE087A 		vmov.f32	s15, #7.5e-1
 8781 0dde E6EE867A 		vfma.f32	s15, s13, s12
 8782 0de2 B0EE67CA 		vmov.f32	s24, s15
 8783 0de6 42E7     		b	.L392
 8784              	.LVL716:
 8785              	.L476:
1136:src/main.cpp  ****             float l1_raw   = 1.0f - 2.0f * p01;                 if(l1_raw < 0) l1_raw = 0;
 8786              		.loc 6 1136 19 view .LVU2657
 8787              	.LBE1514:
 8788              	.LBB1515:
 8789              	.LBB1278:
 8790              	.LBB1259:
 8791              	.LBB1195:
 451:src/main.cpp  **** }
 8792              		.loc 6 451 24 view .LVU2658
 8793 0de8 B0EE408A 		vmov.f32	s16, s0
 8794              	.LVL717:
 451:src/main.cpp  **** }
 8795              		.loc 6 451 24 view .LVU2659
 8796 0dec F0E5     		b	.L380
 8797              	.LVL718:
 8798              	.L511:
 451:src/main.cpp  **** }
 8799              		.loc 6 451 16 view .LVU2660
 8800 0dee B7EE000A 		vmov.f32	s0, #1.0e+0
 8801 0df2 9FED1E8A 		vldr.32	s16, .L605+32
 8802              	.LVL719:
 451:src/main.cpp  **** }
 8803              		.loc 6 451 16 view .LVU2661
 8804              	.LBE1195:
 8805              	.LBE1259:
1033:src/main.cpp  **** 
 8806              		.loc 6 1033 43 view .LVU2662
 8807 0df6 DFED2C8A 		vldr.32	s17, .L605+92
 8808              	.LVL720:
 8809              	.L457:
 8810              	.LBB1260:
 8811              	.LBB1212:
1081:src/main.cpp  ****             };
 8812              		.loc 6 1081 41 view .LVU2663
 8813 0dfa B1EE087A 		vmov.f32	s14, #6.0e+0
 8814              	.LBE1212:
 8815              	.LBE1260:
1088:src/main.cpp  ****             float oct_mult = 1.0f + oct_arg*(1.0f + oct_arg*(0.5f + oct_arg*(0.1667f + oct_arg*0.04
 8816              		.loc 6 1088 19 view .LVU2664
 8817 0dfe DFED264A 		vldr.32	s9, .L605+76
 8818              	.LBB1261:
 8819              	.LBB1213:
1081:src/main.cpp  ****             };
 8820              		.loc 6 1081 41 view .LVU2665
 8821 0e02 FAEE0E5A 		vmov.f32	s11, #-1.5e+1
 8822              	.LBE1213:
ARM GAS  /tmp/claude-502/ccb6uqMv.s 			page 228


 8823              	.LBE1261:
1089:src/main.cpp  ****             // Keytracking: how much the cutoff base follows pitch. keytrack=1 is
 8824              		.loc 6 1089 86 view .LVU2666
 8825 0e06 9FED255A 		vldr.32	s10, .L605+80
 8826              	.LBB1262:
 8827              	.LBB1214:
1081:src/main.cpp  ****             };
 8828              		.loc 6 1081 50 view .LVU2667
 8829 0e0a B2EE046A 		vmov.f32	s12, #1.0e+1
 8830              	.LBE1214:
 8831              	.LBE1262:
1089:src/main.cpp  ****             // Keytracking: how much the cutoff base follows pitch. keytrack=1 is
 8832              		.loc 6 1089 86 view .LVU2668
 8833 0e0e DFED246A 		vldr.32	s13, .L605+84
 8834              	.LBB1263:
 8835              	.LBB1215:
1081:src/main.cpp  ****             };
 8836              		.loc 6 1081 25 view .LVU2669
 8837 0e12 68EE087A 		vmul.f32	s15, s16, s16
1081:src/main.cpp  ****             };
 8838              		.loc 6 1081 41 view .LVU2670
 8839 0e16 E8EE075A 		vfma.f32	s11, s16, s14
 8840              	.LBE1215:
 8841              	.LBE1263:
1089:src/main.cpp  ****             // Keytracking: how much the cutoff base follows pitch. keytrack=1 is
 8842              		.loc 6 1089 67 view .LVU2671
 8843 0e1a B6EE007A 		vmov.f32	s14, #5.0e-1
 8844              	.LBB1264:
 8845              	.LBB1216:
1081:src/main.cpp  ****             };
 8846              		.loc 6 1081 27 view .LVU2672
 8847 0e1e 67EE887A 		vmul.f32	s15, s15, s16
 8848              	.LBE1216:
 8849              	.LBE1264:
1089:src/main.cpp  ****             // Keytracking: how much the cutoff base follows pitch. keytrack=1 is
 8850              		.loc 6 1089 51 view .LVU2673
 8851 0e22 B7EE00CA 		vmov.f32	s24, #1.0e+0
 8852              	.LBB1265:
 8853              	.LBB1217:
1081:src/main.cpp  ****             };
 8854              		.loc 6 1081 50 view .LVU2674
 8855 0e26 A8EE256A 		vfma.f32	s12, s16, s11
1081:src/main.cpp  ****             };
 8856              		.loc 6 1081 57 view .LVU2675
 8857 0e2a 67EE867A 		vmul.f32	s15, s15, s12
 8858              	.LBE1217:
 8859              	.LBE1265:
1087:src/main.cpp  ****             float oct_arg  = cutoff_oct * 0.6931f;
 8860              		.loc 6 1087 19 view .LVU2676
 8861 0e2e 77EEA77A 		vadd.f32	s15, s15, s15
1088:src/main.cpp  ****             float oct_mult = 1.0f + oct_arg*(1.0f + oct_arg*(0.5f + oct_arg*(0.1667f + oct_arg*0.04
 8862              		.loc 6 1088 19 view .LVU2677
 8863 0e32 67EEA47A 		vmul.f32	s15, s15, s9
1089:src/main.cpp  ****             // Keytracking: how much the cutoff base follows pitch. keytrack=1 is
 8864              		.loc 6 1089 86 view .LVU2678
 8865 0e36 E7EE856A 		vfma.f32	s13, s15, s10
1089:src/main.cpp  ****             // Keytracking: how much the cutoff base follows pitch. keytrack=1 is
ARM GAS  /tmp/claude-502/ccb6uqMv.s 			page 229


 8866              		.loc 6 1089 67 view .LVU2679
 8867 0e3a A7EEA67A 		vfma.f32	s14, s15, s13
1089:src/main.cpp  ****             // Keytracking: how much the cutoff base follows pitch. keytrack=1 is
 8868              		.loc 6 1089 51 view .LVU2680
 8869 0e3e F0EE4C6A 		vmov.f32	s13, s24
 8870 0e42 E7EE876A 		vfma.f32	s13, s15, s14
1089:src/main.cpp  ****             // Keytracking: how much the cutoff base follows pitch. keytrack=1 is
 8871              		.loc 6 1089 19 view .LVU2681
 8872 0e46 A7EEA6CA 		vfma.f32	s24, s15, s13
 8873 0e4a F9E5     		b	.L382
 8874              	.L606:
 8875              		.align	2
 8876              	.L605:
 8877 0e4c 00000000 		.word	.LANCHOR1
 8878 0e50 00000000 		.word	.LANCHOR43
 8879 0e54 00000000 		.word	.LANCHOR2
 8880 0e58 00000000 		.word	.LANCHOR5
 8881 0e5c 00000000 		.word	.LANCHOR4
 8882 0e60 EC51383F 		.word	1060655596
 8883 0e64 00000000 		.word	.LANCHOR8
 8884 0e68 0000C842 		.word	1120403456
 8885 0e6c 00000000 		.word	0
 8886 0e70 CDCCCC3D 		.word	1036831949
 8887 0e74 5555B5C0 		.word	-1061857963
 8888 0e78 9A99193F 		.word	1058642330
 8889 0e7c 827A7C40 		.word	1081899650
 8890 0e80 CDCC0C3F 		.word	1057803469
 8891 0e84 6666E63E 		.word	1055286886
 8892 0e88 20000000 		.word	.LANCHOR10+32
 8893 0e8c 00000000 		.word	.LANCHOR0
 8894 0e90 D0000000 		.word	.LC9
 8895 0e94 C0000000 		.word	.LC8
 8896 0e98 006F313F 		.word	1060204288
 8897 0e9c 9FCD2A3D 		.word	1026215327
 8898 0ea0 68B32A3E 		.word	1042985832
 8899 0ea4 00A08C46 		.word	1183621120
 8900 0ea8 00000C42 		.word	1108082688
 8901 0eac CDCC4C3F 		.word	1061997773
 8902 0eb0 1DB20443 		.word	1124381213
 8903 0eb4 9A99593F 		.word	1062836634
 8904 0eb8 9A99193E 		.word	1041865114
 8905 0ebc 00000000 		.word	0
 8906 0ec0 247BB237 		.word	934443812
 8907 0ec4 00000C43 		.word	1124859904
 8908              	.LVL721:
 8909              	.L587:
 8910              	.LBB1266:
 8911              	.LBB1231:
 451:src/main.cpp  **** }
 8912              		.loc 6 451 24 view .LVU2682
 8913 0ec8 5FED0A7A 		vldr.32	s15, .L605+88
 8914 0ecc B4EE670A 		vcmp.f32	s0, s15
 8915 0ed0 F1EE10FA 		vmrs	APSR_nzcv, FPSCR
 8916 0ed4 37FE800A 		vselgt.f32	s0, s15, s0
 8917              	.LVL722:
 451:src/main.cpp  **** }
 8918              		.loc 6 451 24 view .LVU2683
ARM GAS  /tmp/claude-502/ccb6uqMv.s 			page 230


 8919 0ed8 C6E5     		b	.L383
 8920              	.LVL723:
 8921              	.L469:
 451:src/main.cpp  **** }
 8922              		.loc 6 451 24 view .LVU2684
 8923              	.LBE1231:
 8924              	.LBE1266:
1037:src/main.cpp  ****             float y = (freq_ratio - 1.0f) / (freq_ratio + 1.0f);
 8925              		.loc 6 1037 13 is_stmt 1 view .LVU2685
1038:src/main.cpp  ****             float y2 = y*y;
 8926              		.loc 6 1038 13 view .LVU2686
1039:src/main.cpp  ****             float ln_ratio = 2.0f*y*(1.0f + y2*(0.3333f + y2*0.2f));
 8927              		.loc 6 1039 13 view .LVU2687
1040:src/main.cpp  ****             float midi_raw = 69.0f + 17.3123f * ln_ratio; // 17.3123 = 12/ln(2)
 8928              		.loc 6 1040 13 view .LVU2688
1041:src/main.cpp  **** 
 8929              		.loc 6 1041 13 view .LVU2689
1043:src/main.cpp  **** 
 8930              		.loc 6 1043 13 view .LVU2690
1045:src/main.cpp  ****             {
 8931              		.loc 6 1045 13 view .LVU2691
 8932              	.LBE1278:
 8933              	.LBE1515:
 8934              	.LBE1525:
1057:src/main.cpp  ****                 freq = freq_continuous;
 8935              		.loc 6 1057 17 view .LVU2692
1058:src/main.cpp  ****                 f1_sliding = true;
 8936              		.loc 6 1058 17 view .LVU2693
1059:src/main.cpp  ****             }
 8937              		.loc 6 1059 17 view .LVU2694
 8938              	.LBB1526:
 8939              	.LBB1516:
 8940              	.LBB1279:
1061:src/main.cpp  **** 
 8941              		.loc 6 1061 13 view .LVU2695
 8942              	.LBB1267:
 8943              	.LBI1250:
 450:src/main.cpp  ****     return v<lo?lo:v>hi?hi:v;
 8944              		.loc 6 450 21 view .LVU2696
 8945              	.LBB1252:
 451:src/main.cpp  **** }
 8946              		.loc 6 451 5 view .LVU2697
 451:src/main.cpp  **** }
 8947              		.loc 6 451 16 is_stmt 0 view .LVU2698
 8948 0eda 5FED0D7A 		vldr.32	s15, .L605+92
 8949 0ede F4EEE78A 		vcmpe.f32	s17, s15
 8950 0ee2 F1EE10FA 		vmrs	APSR_nzcv, FPSCR
 8951 0ee6 40F1E980 		bpl	.L595
 8952 0eea B7EE000A 		vmov.f32	s0, #1.0e+0
 8953 0eee F5E6     		b	.L574
 8954              	.LVL724:
 8955              	.L485:
 451:src/main.cpp  **** }
 8956              		.loc 6 451 16 view .LVU2699
 8957              	.LBE1252:
 8958              	.LBE1267:
 8959              	.LBB1268:
ARM GAS  /tmp/claude-502/ccb6uqMv.s 			page 231


 8960              	.LBB1236:
 8961 0ef0 1FED127A 		vldr.32	s14, .L605+96
 8962              	.LVL725:
 451:src/main.cpp  **** }
 8963              		.loc 6 451 16 view .LVU2700
 8964 0ef4 DCE5     		b	.L384
 8965              	.LVL726:
 8966              	.L474:
 451:src/main.cpp  **** }
 8967              		.loc 6 451 16 view .LVU2701
 8968              	.LBE1236:
 8969              	.LBE1268:
 8970              	.LBB1269:
 8971              	.LBB1191:
 8972 0ef6 5FED128A 		vldr.32	s17, .L605+100
 8973 0efa 59E5     		b	.L379
 8974              	.LVL727:
 8975              	.L389:
 451:src/main.cpp  **** }
 8976              		.loc 6 451 16 view .LVU2702
 8977              	.LBE1191:
 8978              	.LBE1269:
 8979              	.LBE1279:
 8980              	.LBE1516:
 8981              	.LBB1517:
1135:src/main.cpp  ****             float prs_mult = 0.75f + 0.25f * pr01;
 8982              		.loc 6 1135 13 is_stmt 1 view .LVU2703
 8983              	.LBB1486:
 8984              	.LBB1475:
 451:src/main.cpp  **** }
 8985              		.loc 6 451 16 is_stmt 0 view .LVU2704
 8986 0efc F1EE10FA 		vmrs	APSR_nzcv, FPSCR
 8987 0f00 1CD5     		bpl	.L596
 8988              	.LBE1475:
 8989              	.LBE1486:
1138:src/main.cpp  ****             float l2_raw   = 1.0f - 2.0f * fabsf(p01 - 0.5f);   if(l2_raw < 0) l2_raw = 0;
 8990              		.loc 6 1138 19 view .LVU2705
 8991 0f02 B0EE67BA 		vmov.f32	s22, s15
1137:src/main.cpp  ****             float l3_raw   = 2.0f * p01 - 1.0f;                 if(l3_raw < 0) l3_raw = 0;
 8992              		.loc 6 1137 87 view .LVU2706
 8993 0f06 5FED138A 		vldr.32	s17, .L605+112
 8994 0f0a 07E6     		b	.L454
 8995              	.LVL728:
 8996              	.L377:
1137:src/main.cpp  ****             float l3_raw   = 2.0f * p01 - 1.0f;                 if(l3_raw < 0) l3_raw = 0;
 8997              		.loc 6 1137 87 view .LVU2707
 8998              	.LBE1517:
1021:src/main.cpp  **** 
 8999              		.loc 6 1021 54 view .LVU2708
 9000 0f0c FFF7FEFF 		bl	_ZN5daisy6System6GetNowEv
 9001              	.LVL729:
1023:src/main.cpp  ****         {
 9002              		.loc 6 1023 9 is_stmt 1 view .LVU2709
 9003 0f10 24E5     		b	.L466
 9004              	.LVL730:
 9005              	.L556:
 9006              	.LBB1518:
ARM GAS  /tmp/claude-502/ccb6uqMv.s 			page 232


 9007              	.LBB1487:
 9008              	.LBB1476:
 451:src/main.cpp  **** }
 9009              		.loc 6 451 24 is_stmt 0 view .LVU2710
 9010 0f12 F4EEE76A 		vcmpe.f32	s13, s15
 9011 0f16 F1EE10FA 		vmrs	APSR_nzcv, FPSCR
 9012 0f1a 67DD     		ble	.L557
 9013              	.LBE1476:
 9014              	.LBE1487:
1139:src/main.cpp  ****             led1_target    = sqrtf(sqrtf(l2_raw)) * prs_mult;  // middle tent
 9015              		.loc 6 1139 54 view .LVU2711
 9016 0f1c F6EE006A 		vmov.f32	s13, #5.0e-1
 9017              	.LVL731:
1137:src/main.cpp  ****             float l3_raw   = 2.0f * p01 - 1.0f;                 if(l3_raw < 0) l3_raw = 0;
 9018              		.loc 6 1137 19 view .LVU2712
 9019 0f20 B0EE006A 		vmov.f32	s12, #2.0e+0
1138:src/main.cpp  ****             float l2_raw   = 1.0f - 2.0f * fabsf(p01 - 0.5f);   if(l2_raw < 0) l2_raw = 0;
 9020              		.loc 6 1138 19 view .LVU2713
 9021 0f24 BFEE00BA 		vmov.f32	s22, #-1.0e+0
 9022              	.LVL732:
1139:src/main.cpp  ****             led1_target    = sqrtf(sqrtf(l2_raw)) * prs_mult;  // middle tent
 9023              		.loc 6 1139 19 view .LVU2714
 9024 0f28 B0EE67CA 		vmov.f32	s24, s15
 9025 0f2c 91E6     		b	.L572
 9026              	.LVL733:
 9027              	.L513:
1138:src/main.cpp  ****             float l2_raw   = 1.0f - 2.0f * fabsf(p01 - 0.5f);   if(l2_raw < 0) l2_raw = 0;
 9028              		.loc 6 1138 87 view .LVU2715
 9029 0f2e 1FED1DBA 		vldr.32	s22, .L605+112
 9030              	.LVL734:
 9031              	.L462:
1139:src/main.cpp  ****             led1_target    = sqrtf(sqrtf(l2_raw)) * prs_mult;  // middle tent
 9032              		.loc 6 1139 13 is_stmt 1 view .LVU2716
1139:src/main.cpp  ****             led1_target    = sqrtf(sqrtf(l2_raw)) * prs_mult;  // middle tent
 9033              		.loc 6 1139 65 view .LVU2717
1138:src/main.cpp  ****             float l2_raw   = 1.0f - 2.0f * fabsf(p01 - 0.5f);   if(l2_raw < 0) l2_raw = 0;
 9034              		.loc 6 1138 87 is_stmt 0 view .LVU2718
 9035 0f32 B7EE00CA 		vmov.f32	s24, #1.0e+0
 9036 0f36 1FED1F7A 		vldr.32	s14, .L605+112
 9037 0f3a F3E5     		b	.L399
 9038              	.LVL735:
 9039              	.L596:
 9040              	.LBB1488:
 9041              	.LBB1477:
 451:src/main.cpp  **** }
 9042              		.loc 6 451 24 view .LVU2719
 9043 0f3c F4EEE76A 		vcmpe.f32	s13, s15
 9044 0f40 F1EE10FA 		vmrs	APSR_nzcv, FPSCR
 9045 0f44 67DC     		bgt	.L512
 9046 0f46 FFEE008A 		vmov.f32	s17, #-1.0e+0
 9047 0f4a 1FED247A 		vldr.32	s14, .L605+112
 9048 0f4e B0EE67BA 		vmov.f32	s22, s15
 9049 0f52 40E7     		b	.L463
 9050              	.LVL736:
 9051              	.L579:
 451:src/main.cpp  **** }
 9052              		.loc 6 451 24 view .LVU2720
ARM GAS  /tmp/claude-502/ccb6uqMv.s 			page 233


 9053              	.LBE1477:
 9054              	.LBE1488:
 9055              	.LBE1518:
1021:src/main.cpp  **** 
 9056              		.loc 6 1021 54 view .LVU2721
 9057 0f54 FFF7FEFF 		bl	_ZN5daisy6System6GetNowEv
 9058              	.LVL737:
1023:src/main.cpp  ****         {
 9059              		.loc 6 1023 9 is_stmt 1 view .LVU2722
 9060 0f58 FFF7A8B9 		b	.L459
 9061              	.LVL738:
 9062              	.L592:
 9063              	.LBB1519:
 9064              	.LBB1355:
 9065              	.LBB1342:
 9066              	.LBB1307:
1080:src/main.cpp  ****                 return x*x*x*(x*(x*6.0f - 15.0f) + 10.0f);
 9067              		.loc 6 1080 30 is_stmt 0 view .LVU2723
 9068 0f5c B4EEC47A 		vcmpe.f32	s14, s8
 9069 0f60 F1EE10FA 		vmrs	APSR_nzcv, FPSCR
 9070 0f64 3FF73CAE 		bgt	.L495
 9071              	.LVL739:
 9072              	.L453:
1081:src/main.cpp  ****             };
 9073              		.loc 6 1081 17 is_stmt 1 view .LVU2724
1081:src/main.cpp  ****             };
 9074              		.loc 6 1081 41 is_stmt 0 view .LVU2725
 9075 0f68 BAEE0E5A 		vmov.f32	s10, #-1.5e+1
 9076              	.LBE1307:
 9077              	.LBE1342:
 9078              	.LBB1343:
 9079              	.LBB1332:
1080:src/main.cpp  ****                 return x*x*x*(x*(x*6.0f - 15.0f) + 10.0f);
 9080              		.loc 6 1080 24 view .LVU2726
 9081 0f6c 1FED2D4A 		vldr.32	s8, .L605+112
 9082              	.LBE1332:
 9083              	.LBE1343:
 9084              	.LBB1344:
 9085              	.LBB1308:
1081:src/main.cpp  ****             };
 9086              		.loc 6 1081 41 view .LVU2727
 9087 0f70 F1EE084A 		vmov.f32	s9, #6.0e+0
1081:src/main.cpp  ****             };
 9088              		.loc 6 1081 50 view .LVU2728
 9089 0f74 F2EE045A 		vmov.f32	s11, #1.0e+1
1081:src/main.cpp  ****             };
 9090              		.loc 6 1081 41 view .LVU2729
 9091 0f78 B0EE453A 		vmov.f32	s6, s10
1081:src/main.cpp  ****             };
 9092              		.loc 6 1081 25 view .LVU2730
 9093 0f7c 27EE076A 		vmul.f32	s12, s14, s14
1081:src/main.cpp  ****             };
 9094              		.loc 6 1081 50 view .LVU2731
 9095 0f80 F0EE653A 		vmov.f32	s7, s11
1081:src/main.cpp  ****             };
 9096              		.loc 6 1081 41 view .LVU2732
 9097 0f84 A7EE243A 		vfma.f32	s6, s14, s9
ARM GAS  /tmp/claude-502/ccb6uqMv.s 			page 234


1081:src/main.cpp  ****             };
 9098              		.loc 6 1081 27 view .LVU2733
 9099 0f88 26EE076A 		vmul.f32	s12, s12, s14
1081:src/main.cpp  ****             };
 9100              		.loc 6 1081 50 view .LVU2734
 9101 0f8c E3EE073A 		vfma.f32	s7, s6, s14
1081:src/main.cpp  ****             };
 9102              		.loc 6 1081 57 view .LVU2735
 9103 0f90 26EE237A 		vmul.f32	s14, s12, s7
 9104              	.LVL740:
1081:src/main.cpp  ****             };
 9105              		.loc 6 1081 57 view .LVU2736
 9106              	.LBE1308:
 9107              	.LBE1344:
1181:src/main.cpp  **** 
 9108              		.loc 6 1181 13 is_stmt 1 view .LVU2737
 9109              	.LBB1345:
 9110              	.LBI1330:
1079:src/main.cpp  ****                 x = x<0?0:x>1?1:x;
 9111              		.loc 6 1079 33 view .LVU2738
 9112              	.LBB1333:
1080:src/main.cpp  ****                 return x*x*x*(x*(x*6.0f - 15.0f) + 10.0f);
 9113              		.loc 6 1080 17 view .LVU2739
1080:src/main.cpp  ****                 return x*x*x*(x*(x*6.0f - 15.0f) + 10.0f);
 9114              		.loc 6 1080 24 is_stmt 0 view .LVU2740
 9115 0f94 B4EEC47A 		vcmpe.f32	s14, s8
 9116 0f98 F1EE10FA 		vmrs	APSR_nzcv, FPSCR
 9117 0f9c 0AD5     		bpl	.L564
 9118              	.L573:
1080:src/main.cpp  ****                 return x*x*x*(x*(x*6.0f - 15.0f) + 10.0f);
 9119              		.loc 6 1080 24 view .LVU2741
 9120              	.LBE1333:
 9121              	.LBE1345:
1192:src/main.cpp  ****             float rm    = smoothstep2(rm_in) * VOICE.ringmod_max;
 9122              		.loc 6 1192 41 view .LVU2742
 9123 0f9e 1FED3B6A 		vldr.32	s12, .L605+104
1192:src/main.cpp  ****             float rm    = smoothstep2(rm_in) * VOICE.ringmod_max;
 9124              		.loc 6 1192 33 view .LVU2743
 9125 0fa2 B0EE447A 		vmov.f32	s14, s8
 9126              	.LVL741:
1192:src/main.cpp  ****             float rm    = smoothstep2(rm_in) * VOICE.ringmod_max;
 9127              		.loc 6 1192 33 view .LVU2744
 9128 0fa6 5FED3C5A 		vldr.32	s11, .L605+108
1192:src/main.cpp  ****             float rm    = smoothstep2(rm_in) * VOICE.ringmod_max;
 9129              		.loc 6 1192 41 view .LVU2745
 9130 0faa 37EEC66A 		vsub.f32	s12, s15, s12
1192:src/main.cpp  ****             float rm    = smoothstep2(rm_in) * VOICE.ringmod_max;
 9131              		.loc 6 1192 33 view .LVU2746
 9132 0fae C6EE254A 		vdiv.f32	s9, s12, s11
 9133 0fb2 17E6     		b	.L422
 9134              	.LVL742:
 9135              	.L564:
 9136              	.LBB1346:
 9137              	.LBB1334:
1080:src/main.cpp  ****                 return x*x*x*(x*(x*6.0f - 15.0f) + 10.0f);
 9138              		.loc 6 1080 30 view .LVU2747
 9139 0fb4 B7EE006A 		vmov.f32	s12, #1.0e+0
ARM GAS  /tmp/claude-502/ccb6uqMv.s 			page 235


 9140 0fb8 B4EEC67A 		vcmpe.f32	s14, s12
 9141 0fbc F1EE10FA 		vmrs	APSR_nzcv, FPSCR
 9142 0fc0 EDDC     		bgt	.L573
1081:src/main.cpp  ****             };
 9143              		.loc 6 1081 41 view .LVU2748
 9144 0fc2 A7EE245A 		vfma.f32	s10, s14, s9
 9145              	.LBE1334:
 9146              	.LBE1346:
1192:src/main.cpp  ****             float rm    = smoothstep2(rm_in) * VOICE.ringmod_max;
 9147              		.loc 6 1192 41 view .LVU2749
 9148 0fc6 5FED453A 		vldr.32	s7, .L605+104
 9149              	.LBB1347:
 9150              	.LBB1335:
1081:src/main.cpp  ****             };
 9151              		.loc 6 1081 25 view .LVU2750
 9152 0fca 27EE076A 		vmul.f32	s12, s14, s14
 9153              	.LBE1335:
 9154              	.LBE1347:
1192:src/main.cpp  ****             float rm    = smoothstep2(rm_in) * VOICE.ringmod_max;
 9155              		.loc 6 1192 33 view .LVU2751
 9156 0fce 1FED463A 		vldr.32	s6, .L605+108
1192:src/main.cpp  ****             float rm    = smoothstep2(rm_in) * VOICE.ringmod_max;
 9157              		.loc 6 1192 41 view .LVU2752
 9158 0fd2 77EEE33A 		vsub.f32	s7, s15, s7
 9159              	.LBB1348:
 9160              	.LBB1336:
1081:src/main.cpp  ****             };
 9161              		.loc 6 1081 27 view .LVU2753
 9162 0fd6 26EE076A 		vmul.f32	s12, s12, s14
 9163              	.LBE1336:
 9164              	.LBE1348:
1192:src/main.cpp  ****             float rm    = smoothstep2(rm_in) * VOICE.ringmod_max;
 9165              		.loc 6 1192 33 view .LVU2754
 9166 0fda C3EE834A 		vdiv.f32	s9, s7, s6
 9167              	.LBB1349:
 9168              	.LBB1337:
1081:src/main.cpp  ****             };
 9169              		.loc 6 1081 50 view .LVU2755
 9170 0fde E7EE055A 		vfma.f32	s11, s14, s10
1081:src/main.cpp  ****             };
 9171              		.loc 6 1081 57 view .LVU2756
 9172 0fe2 26EE257A 		vmul.f32	s14, s12, s11
 9173              	.LVL743:
1081:src/main.cpp  ****             };
 9174              		.loc 6 1081 57 view .LVU2757
 9175              	.LBE1337:
 9176              	.LBE1349:
1181:src/main.cpp  **** 
 9177              		.loc 6 1181 52 view .LVU2758
 9178 0fe6 27EE047A 		vmul.f32	s14, s14, s8
 9179 0fea FBE5     		b	.L422
 9180              	.LVL744:
 9181              	.L557:
1181:src/main.cpp  **** 
 9182              		.loc 6 1181 52 view .LVU2759
 9183              	.LBE1355:
 9184              	.LBE1519:
ARM GAS  /tmp/claude-502/ccb6uqMv.s 			page 236


 9185              	.LBB1520:
1139:src/main.cpp  ****             led1_target    = sqrtf(sqrtf(l2_raw)) * prs_mult;  // middle tent
 9186              		.loc 6 1139 54 view .LVU2760
 9187 0fec B6EE006A 		vmov.f32	s12, #5.0e-1
1137:src/main.cpp  ****             float l3_raw   = 2.0f * p01 - 1.0f;                 if(l3_raw < 0) l3_raw = 0;
 9188              		.loc 6 1137 19 view .LVU2761
 9189 0ff0 F0EE005A 		vmov.f32	s11, #2.0e+0
 9190 0ff4 F0EE678A 		vmov.f32	s17, s15
1139:src/main.cpp  ****             led1_target    = sqrtf(sqrtf(l2_raw)) * prs_mult;  // middle tent
 9191              		.loc 6 1139 54 view .LVU2762
 9192 0ff8 3BEEC66A 		vsub.f32	s12, s23, s12
1138:src/main.cpp  ****             float l2_raw   = 1.0f - 2.0f * fabsf(p01 - 0.5f);   if(l2_raw < 0) l2_raw = 0;
 9193              		.loc 6 1138 19 view .LVU2763
 9194 0ffc BFEE00BA 		vmov.f32	s22, #-1.0e+0
1137:src/main.cpp  ****             float l3_raw   = 2.0f * p01 - 1.0f;                 if(l3_raw < 0) l3_raw = 0;
 9195              		.loc 6 1137 19 view .LVU2764
 9196 1000 EBEEE58A 		vfms.f32	s17, s23, s11
1139:src/main.cpp  ****             led1_target    = sqrtf(sqrtf(l2_raw)) * prs_mult;  // middle tent
 9197              		.loc 6 1139 49 view .LVU2765
 9198 1004 B0EEC66A 		vabs.f32	s12, s12
1138:src/main.cpp  ****             float l2_raw   = 1.0f - 2.0f * fabsf(p01 - 0.5f);   if(l2_raw < 0) l2_raw = 0;
 9199              		.loc 6 1138 19 view .LVU2766
 9200 1008 ABEEA5BA 		vfma.f32	s22, s23, s11
1139:src/main.cpp  ****             led1_target    = sqrtf(sqrtf(l2_raw)) * prs_mult;  // middle tent
 9201              		.loc 6 1139 19 view .LVU2767
 9202 100c E6EE657A 		vfms.f32	s15, s12, s11
 9203 1010 B0EE677A 		vmov.f32	s14, s15
 9204 1014 DFE6     		b	.L463
 9205              	.LVL745:
 9206              	.L512:
 9207              	.LBB1489:
 9208              	.LBB1478:
 451:src/main.cpp  **** }
 9209              		.loc 6 451 24 view .LVU2768
 9210 1016 B0EE67BA 		vmov.f32	s22, s15
 9211              	.LBE1478:
 9212              	.LBE1489:
1137:src/main.cpp  ****             float l3_raw   = 2.0f * p01 - 1.0f;                 if(l3_raw < 0) l3_raw = 0;
 9213              		.loc 6 1137 87 view .LVU2769
 9214 101a 5FED588A 		vldr.32	s17, .L605+112
 9215 101e 88E7     		b	.L462
 9216              	.LVL746:
 9217              	.L593:
1140:src/main.cpp  ****             led2_target    = sqrtf(sqrtf(l1_raw)) * prs_mult;  // pos 0 ramp
 9218              		.loc 6 1140 13 is_stmt 1 view .LVU2770
 9219 1020 B5EE407A 		vcmp.f32	s14, #0
 9220 1024 F1EE10FA 		vmrs	APSR_nzcv, FPSCR
 9221 1028 7FF57CAD 		bpl	.L399
1140:src/main.cpp  ****             led2_target    = sqrtf(sqrtf(l1_raw)) * prs_mult;  // pos 0 ramp
 9222              		.loc 6 1140 35 is_stmt 0 view .LVU2771
 9223 102c B0EE470A 		vmov.f32	s0, s14
 9224              	.LVL747:
1140:src/main.cpp  ****             led2_target    = sqrtf(sqrtf(l1_raw)) * prs_mult;  // pos 0 ramp
 9225              		.loc 6 1140 35 view .LVU2772
 9226 1030 FFF7FEFF 		bl	sqrtf
 9227              	.LVL748:
 9228 1034 78E5     		b	.L402
ARM GAS  /tmp/claude-502/ccb6uqMv.s 			page 237


 9229              	.LVL749:
 9230              	.L470:
1140:src/main.cpp  ****             led2_target    = sqrtf(sqrtf(l1_raw)) * prs_mult;  // pos 0 ramp
 9231              		.loc 6 1140 35 view .LVU2773
 9232              	.LBE1520:
 9233              	.LBE1526:
 837:src/main.cpp  ****     float              fsr_range_inv = 1.0f / (float)(fsr_max - FSR_MIN);
 9234              		.loc 6 837 24 view .LVU2774
 9235 1036 4DF2D863 		movw	r3, #55000
 838:src/main.cpp  **** 
 9236              		.loc 6 838 24 view .LVU2775
 9237 103a 5FED5FAA 		vldr.32	s21, .L605+116
 837:src/main.cpp  ****     float              fsr_range_inv = 1.0f / (float)(fsr_max - FSR_MIN);
 9238              		.loc 6 837 24 view .LVU2776
 9239 103e 0A93     		str	r3, [sp, #40]
 9240 1040 FFF762B8 		b	.L341
 9241              	.LVL750:
 9242              	.L548:
 811:src/main.cpp  ****         capture_baseline(baseline);
 9243              		.loc 6 811 9 is_stmt 1 view .LVU2777
 812:src/main.cpp  ****     }
 9244              		.loc 6 812 25 is_stmt 0 view .LVU2778
 9245 1044 1C46     		mov	r4, r3
 811:src/main.cpp  ****         capture_baseline(baseline);
 9246              		.loc 6 811 22 view .LVU2779
 9247 1046 4FF49670 		mov	r0, #300
 812:src/main.cpp  ****     }
 9248              		.loc 6 812 25 view .LVU2780
 9249 104a 0793     		str	r3, [sp, #28]
 811:src/main.cpp  ****         capture_baseline(baseline);
 9250              		.loc 6 811 22 view .LVU2781
 9251 104c FFF7FEFF 		bl	_ZN5daisy6System5DelayEm
 9252              	.LVL751:
 812:src/main.cpp  ****     }
 9253              		.loc 6 812 9 is_stmt 1 view .LVU2782
 812:src/main.cpp  ****     }
 9254              		.loc 6 812 25 is_stmt 0 view .LVU2783
 9255 1050 2046     		mov	r0, r4
 9256 1052 FFF7FEFF 		bl	_Z16capture_baselinePt
 9257              	.LVL752:
 9258 1056 FEF7FCBF 		b	.L338
 9259              	.LVL753:
 9260              	.L585:
 9261              	.LBB1527:
 9262              	.LBB1521:
 9263              	.LBB1455:
 9264              	.LBB1452:
 9265              	.LBB1449:
 886:src/main.cpp  ****             float led2   = sqrtf(sqrtf(l1_raw));              // pos 0  (DAC2)
 9266              		.loc 6 886 33 view .LVU2784
 9267 105a B0EE470A 		vmov.f32	s0, s14
 9268              	.LVL754:
 886:src/main.cpp  ****             float led2   = sqrtf(sqrtf(l1_raw));              // pos 0  (DAC2)
 9269              		.loc 6 886 33 view .LVU2785
 9270 105e FFF7FEFF 		bl	sqrtf
 9271              	.LVL755:
 886:src/main.cpp  ****             float led2   = sqrtf(sqrtf(l1_raw));              // pos 0  (DAC2)
ARM GAS  /tmp/claude-502/ccb6uqMv.s 			page 238


 9272              		.loc 6 886 33 view .LVU2786
 9273 1062 FFF7C5BB 		b	.L356
 9274              	.L550:
 886:src/main.cpp  ****             float led2   = sqrtf(sqrtf(l1_raw));              // pos 0  (DAC2)
 9275              		.loc 6 886 33 view .LVU2787
 9276 1066 FFF7FEFF 		bl	sqrtf
 9277              	.LVL756:
 9278 106a B0EE40BA 		vmov.f32	s22, s0
 9279 106e FFF7C7BB 		b	.L359
 9280              	.L551:
 887:src/main.cpp  ****             float led3   = sqrtf(sqrtf(l3_raw)) * LED3_INTENSITY; // pos 1 (PWM A0)
 9281              		.loc 6 887 33 view .LVU2788
 9282 1072 B0EE680A 		vmov.f32	s0, s17
 9283 1076 FFF7FEFF 		bl	sqrtf
 9284              	.LVL757:
 9285 107a FFF7C9BB 		b	.L362
 9286              	.L552:
 887:src/main.cpp  ****             float led3   = sqrtf(sqrtf(l3_raw)) * LED3_INTENSITY; // pos 1 (PWM A0)
 9287              		.loc 6 887 33 view .LVU2789
 9288 107e FFF7FEFF 		bl	sqrtf
 9289              	.LVL758:
 9290 1082 F0EE408A 		vmov.f32	s17, s0
 9291              	.LVL759:
 887:src/main.cpp  ****             float led3   = sqrtf(sqrtf(l3_raw)) * LED3_INTENSITY; // pos 1 (PWM A0)
 9292              		.loc 6 887 33 view .LVU2790
 9293 1086 FFF7CBBB 		b	.L365
 9294              	.L553:
 888:src/main.cpp  ****             hw.dac.WriteValue(DacHandle::Channel::ONE, (uint16_t)(led1 * 4095.0f));
 9295              		.loc 6 888 33 view .LVU2791
 9296 108a B0EE480A 		vmov.f32	s0, s16
 9297 108e FFF7FEFF 		bl	sqrtf
 9298              	.LVL760:
 9299 1092 FFF7CDBB 		b	.L368
 9300              	.L554:
 888:src/main.cpp  ****             hw.dac.WriteValue(DacHandle::Channel::ONE, (uint16_t)(led1 * 4095.0f));
 9301              		.loc 6 888 33 view .LVU2792
 9302 1096 FFF7FEFF 		bl	sqrtf
 9303              	.LVL761:
 9304 109a B0EE407A 		vmov.f32	s14, s0
 9305 109e FFF7CFBB 		b	.L371
 9306              	.LVL762:
 9307              	.L594:
 888:src/main.cpp  ****             hw.dac.WriteValue(DacHandle::Channel::ONE, (uint16_t)(led1 * 4095.0f));
 9308              		.loc 6 888 33 view .LVU2793
 9309              	.LBE1449:
 9310              	.LBE1452:
 9311              	.LBE1455:
 9312              	.LBE1521:
 9313              	.LBB1522:
 9314              	.LBB1280:
 9315              	.LBB1270:
 9316              	.LBB1201:
 451:src/main.cpp  **** }
 9317              		.loc 6 451 24 view .LVU2794
 9318 10a2 5FED787A 		vldr.32	s15, .L605+120
 9319 10a6 F4EEE78A 		vcmpe.f32	s17, s15
 9320 10aa F1EE10FA 		vmrs	APSR_nzcv, FPSCR
ARM GAS  /tmp/claude-502/ccb6uqMv.s 			page 239


 9321 10ae 7FF714AF 		ble	.L469
 9322 10b2 B1EE000A 		vmov.f32	s0, #4.0e+0
 9323 10b6 F0EE678A 		vmov.f32	s17, s15
 9324 10ba 11E6     		b	.L381
 9325              	.LVL763:
 9326              	.L595:
 451:src/main.cpp  **** }
 9327              		.loc 6 451 24 view .LVU2795
 9328              	.LBE1201:
 9329              	.LBE1270:
 9330              	.LBB1271:
 9331              	.LBB1218:
1080:src/main.cpp  ****                 return x*x*x*(x*(x*6.0f - 15.0f) + 10.0f);
 9332              		.loc 6 1080 24 view .LVU2796
 9333 10bc B5EEC08A 		vcmpe.f32	s16, #0
 9334              	.LBE1218:
 9335              	.LBE1271:
1096:src/main.cpp  ****             float cutoff   = clampf(track_freq * VOICE.cutoff_mult * oct_mult, 20.0f, 18000.0f);
 9336              		.loc 6 1096 40 view .LVU2797
 9337 10c0 88EEA70A 		vdiv.f32	s0, s17, s15
 9338              	.LVL764:
1075:src/main.cpp  ****                 x = x<0?0:x>1?1:x;
 9339              		.loc 6 1075 13 is_stmt 1 view .LVU2798
1079:src/main.cpp  ****                 x = x<0?0:x>1?1:x;
 9340              		.loc 6 1079 13 view .LVU2799
1086:src/main.cpp  ****             float cutoff_oct = VOICE.cutoff_oct_max * prs_cut;
 9341              		.loc 6 1086 13 view .LVU2800
 9342              	.LBB1272:
1079:src/main.cpp  ****                 x = x<0?0:x>1?1:x;
 9343              		.loc 6 1079 33 view .LVU2801
 9344              	.LBB1219:
1080:src/main.cpp  ****                 return x*x*x*(x*(x*6.0f - 15.0f) + 10.0f);
 9345              		.loc 6 1080 17 view .LVU2802
1080:src/main.cpp  ****                 return x*x*x*(x*(x*6.0f - 15.0f) + 10.0f);
 9346              		.loc 6 1080 24 is_stmt 0 view .LVU2803
 9347 10c4 F1EE10FA 		vmrs	APSR_nzcv, FPSCR
 9348 10c8 7FF524AE 		bpl	.L468
1080:src/main.cpp  ****                 return x*x*x*(x*(x*6.0f - 15.0f) + 10.0f);
 9349              		.loc 6 1080 24 view .LVU2804
 9350 10cc B7EE00CA 		vmov.f32	s24, #1.0e+0
 9351 10d0 B6E4     		b	.L382
 9352              	.LVL765:
 9353              	.L563:
1080:src/main.cpp  ****                 return x*x*x*(x*(x*6.0f - 15.0f) + 10.0f);
 9354              		.loc 6 1080 24 view .LVU2805
 9355              	.LBE1219:
 9356              	.LBE1272:
 9357              	.LBE1280:
 9358              	.LBE1522:
 9359              	.LBB1523:
1142:src/main.cpp  ****         }
 9360              		.loc 6 1142 35 view .LVU2806
 9361 10d2 FFF7FEFF 		bl	sqrtf
 9362              	.LVL766:
 9363 10d6 F0EE407A 		vmov.f32	s15, s0
 9364 10da 51E5     		b	.L417
 9365              	.L562:
ARM GAS  /tmp/claude-502/ccb6uqMv.s 			page 240


1142:src/main.cpp  ****         }
 9366              		.loc 6 1142 35 view .LVU2807
 9367 10dc B0EE4B0A 		vmov.f32	s0, s22
 9368 10e0 FFF7FEFF 		bl	sqrtf
 9369              	.LVL767:
 9370 10e4 44E5     		b	.L414
 9371              	.LVL768:
 9372              	.L561:
1141:src/main.cpp  ****             led3_target    = sqrtf(sqrtf(l3_raw)) * prs_mult * LED3_INTENSITY;
 9373              		.loc 6 1141 35 view .LVU2808
 9374 10e6 FFF7FEFF 		bl	sqrtf
 9375              	.LVL769:
 9376 10ea F0EE407A 		vmov.f32	s15, s0
 9377 10ee 35E5     		b	.L411
 9378              	.L560:
 9379 10f0 B0EE680A 		vmov.f32	s0, s17
 9380 10f4 FFF7FEFF 		bl	sqrtf
 9381              	.LVL770:
 9382 10f8 28E5     		b	.L408
 9383              	.LVL771:
 9384              	.L559:
1140:src/main.cpp  ****             led2_target    = sqrtf(sqrtf(l1_raw)) * prs_mult;  // pos 0 ramp
 9385              		.loc 6 1140 35 view .LVU2809
 9386 10fa FFF7FEFF 		bl	sqrtf
 9387              	.LVL772:
 9388 10fe F0EE407A 		vmov.f32	s15, s0
 9389 1102 19E5     		b	.L405
 9390              	.LVL773:
 9391              	.L581:
1140:src/main.cpp  ****             led2_target    = sqrtf(sqrtf(l1_raw)) * prs_mult;  // pos 0 ramp
 9392              		.loc 6 1140 35 view .LVU2810
 9393              	.LBE1523:
 9394              	.LBB1524:
 9395              	.LBB1356:
 9396              	.LBB1350:
 9397              	.LBB1309:
1080:src/main.cpp  ****                 return x*x*x*(x*(x*6.0f - 15.0f) + 10.0f);
 9398              		.loc 6 1080 30 view .LVU2811
 9399 1104 B0EE677A 		vmov.f32	s14, s15
 9400 1108 2EE7     		b	.L453
 9401              	.LBE1309:
 9402              	.LBE1350:
 9403              	.LBE1356:
 9404              	.LBE1524:
 9405              	.LBE1527:
 9406              		.cfi_endproc
 9407              	.LFE2593:
 9409 110a 00BF     		.section	.text.startup._GLOBAL__sub_I_hw,"ax",%progbits
 9410              		.align	1
 9411              		.p2align 2,,3
 9412              		.syntax unified
 9413              		.thumb
 9414              		.thumb_func
 9416              	_GLOBAL__sub_I_hw:
 9417              	.LFB2634:
1251:src/main.cpp  ****     }
1252:src/main.cpp  **** }
ARM GAS  /tmp/claude-502/ccb6uqMv.s 			page 241


 9418              		.loc 6 1252 1 is_stmt 1 view -0
 9419              		.cfi_startproc
 9420              		@ args = 0, pretend = 0, frame = 0
 9421              		@ frame_needed = 0, uses_anonymous_args = 0
 9422              	.LBB1573:
 9423              	.LBI1573:
 9424              		.loc 6 1252 1 view .LVU2813
 9425              	.LVL774:
 9426              	.LBB1574:
 9427              	.LBB1575:
 9428              	.LBI1575:
  21:/Users/reza.kalfane/Workspaces/Daisy/DaisyExamples/libDaisy/src/daisy_seed.h ****     ~DaisySeed() {}
 9429              		.loc 1 21 5 view .LVU2814
 9430              	.LBB1576:
 9431              	.LBB1577:
 9432              	.LBI1577:
 9433              		.file 7 "/Users/reza.kalfane/Workspaces/Daisy/DaisyExamples/libDaisy/src/per/qspi.h"
   1:/Users/reza.kalfane/Workspaces/Daisy/DaisyExamples/libDaisy/src/per/qspi.h **** #ifndef DSY_QSPI
   2:/Users/reza.kalfane/Workspaces/Daisy/DaisyExamples/libDaisy/src/per/qspi.h **** #define DSY_QSPI /**< Macro */
   3:/Users/reza.kalfane/Workspaces/Daisy/DaisyExamples/libDaisy/src/per/qspi.h **** 
   4:/Users/reza.kalfane/Workspaces/Daisy/DaisyExamples/libDaisy/src/per/qspi.h **** #ifndef UNIT_TEST // for unit tests, a dummy implementation
   5:/Users/reza.kalfane/Workspaces/Daisy/DaisyExamples/libDaisy/src/per/qspi.h **** 
   6:/Users/reza.kalfane/Workspaces/Daisy/DaisyExamples/libDaisy/src/per/qspi.h **** #include <cstdint>
   7:/Users/reza.kalfane/Workspaces/Daisy/DaisyExamples/libDaisy/src/per/qspi.h **** #include "daisy_core.h" // Added for dsy_gpio_pin typedef
   8:/Users/reza.kalfane/Workspaces/Daisy/DaisyExamples/libDaisy/src/per/qspi.h **** 
   9:/Users/reza.kalfane/Workspaces/Daisy/DaisyExamples/libDaisy/src/per/qspi.h **** #define DSY_QSPI_TEXT       \
  10:/Users/reza.kalfane/Workspaces/Daisy/DaisyExamples/libDaisy/src/per/qspi.h ****     __attribute__((section( \
  11:/Users/reza.kalfane/Workspaces/Daisy/DaisyExamples/libDaisy/src/per/qspi.h ****         ".qspiflash_text"))) /**< used for reading memory in memory_mapped mode. */
  12:/Users/reza.kalfane/Workspaces/Daisy/DaisyExamples/libDaisy/src/per/qspi.h **** #define DSY_QSPI_DATA       \
  13:/Users/reza.kalfane/Workspaces/Daisy/DaisyExamples/libDaisy/src/per/qspi.h ****     __attribute__((section( \
  14:/Users/reza.kalfane/Workspaces/Daisy/DaisyExamples/libDaisy/src/per/qspi.h ****         ".qspiflash_data"))) /**< used for reading memory in memory_mapped mode. */
  15:/Users/reza.kalfane/Workspaces/Daisy/DaisyExamples/libDaisy/src/per/qspi.h **** #define DSY_QSPI_BSS        \
  16:/Users/reza.kalfane/Workspaces/Daisy/DaisyExamples/libDaisy/src/per/qspi.h ****     __attribute__((section( \
  17:/Users/reza.kalfane/Workspaces/Daisy/DaisyExamples/libDaisy/src/per/qspi.h ****         ".qspiflash_bss"))) /**< used for reading memory in memory_mapped mode. */
  18:/Users/reza.kalfane/Workspaces/Daisy/DaisyExamples/libDaisy/src/per/qspi.h **** 
  19:/Users/reza.kalfane/Workspaces/Daisy/DaisyExamples/libDaisy/src/per/qspi.h **** namespace daisy
  20:/Users/reza.kalfane/Workspaces/Daisy/DaisyExamples/libDaisy/src/per/qspi.h **** {
  21:/Users/reza.kalfane/Workspaces/Daisy/DaisyExamples/libDaisy/src/per/qspi.h **** /** @addtogroup serial
  22:/Users/reza.kalfane/Workspaces/Daisy/DaisyExamples/libDaisy/src/per/qspi.h **** @{
  23:/Users/reza.kalfane/Workspaces/Daisy/DaisyExamples/libDaisy/src/per/qspi.h **** */
  24:/Users/reza.kalfane/Workspaces/Daisy/DaisyExamples/libDaisy/src/per/qspi.h **** 
  25:/Users/reza.kalfane/Workspaces/Daisy/DaisyExamples/libDaisy/src/per/qspi.h **** /** 
  26:/Users/reza.kalfane/Workspaces/Daisy/DaisyExamples/libDaisy/src/per/qspi.h ****  Driver for QSPI peripheral to interface with external flash memory. \n 
  27:/Users/reza.kalfane/Workspaces/Daisy/DaisyExamples/libDaisy/src/per/qspi.h ****     Currently supported QSPI Devices: \n 
  28:/Users/reza.kalfane/Workspaces/Daisy/DaisyExamples/libDaisy/src/per/qspi.h ****     * IS25LP080D
  29:/Users/reza.kalfane/Workspaces/Daisy/DaisyExamples/libDaisy/src/per/qspi.h **** */
  30:/Users/reza.kalfane/Workspaces/Daisy/DaisyExamples/libDaisy/src/per/qspi.h **** class QSPIHandle
  31:/Users/reza.kalfane/Workspaces/Daisy/DaisyExamples/libDaisy/src/per/qspi.h **** {
  32:/Users/reza.kalfane/Workspaces/Daisy/DaisyExamples/libDaisy/src/per/qspi.h ****   public:
  33:/Users/reza.kalfane/Workspaces/Daisy/DaisyExamples/libDaisy/src/per/qspi.h ****     enum Result
  34:/Users/reza.kalfane/Workspaces/Daisy/DaisyExamples/libDaisy/src/per/qspi.h ****     {
  35:/Users/reza.kalfane/Workspaces/Daisy/DaisyExamples/libDaisy/src/per/qspi.h ****         OK = 0,
  36:/Users/reza.kalfane/Workspaces/Daisy/DaisyExamples/libDaisy/src/per/qspi.h ****         ERR
  37:/Users/reza.kalfane/Workspaces/Daisy/DaisyExamples/libDaisy/src/per/qspi.h ****     };
  38:/Users/reza.kalfane/Workspaces/Daisy/DaisyExamples/libDaisy/src/per/qspi.h **** 
  39:/Users/reza.kalfane/Workspaces/Daisy/DaisyExamples/libDaisy/src/per/qspi.h ****     /** Indicates the current status of the module. 
  40:/Users/reza.kalfane/Workspaces/Daisy/DaisyExamples/libDaisy/src/per/qspi.h ****          *  Warnings are indicated by a leading W.
ARM GAS  /tmp/claude-502/ccb6uqMv.s 			page 242


  41:/Users/reza.kalfane/Workspaces/Daisy/DaisyExamples/libDaisy/src/per/qspi.h ****          *  Errors are indicated by a leading E and cause an immediate exit.
  42:/Users/reza.kalfane/Workspaces/Daisy/DaisyExamples/libDaisy/src/per/qspi.h ****          * 
  43:/Users/reza.kalfane/Workspaces/Daisy/DaisyExamples/libDaisy/src/per/qspi.h ****          *  \param GOOD - No errors have been reported.
  44:/Users/reza.kalfane/Workspaces/Daisy/DaisyExamples/libDaisy/src/per/qspi.h ****          *  \param E_HAL_ERROR - HAL code did not return HAL_OK.
  45:/Users/reza.kalfane/Workspaces/Daisy/DaisyExamples/libDaisy/src/per/qspi.h ****          *  \param E_SWITCHING_MODES - An error was encountered while switching QSPI peripheral mod
  46:/Users/reza.kalfane/Workspaces/Daisy/DaisyExamples/libDaisy/src/per/qspi.h ****          *  \param E_INVALID_MODE - QSPI should not be written to while the program is executing fr
  47:/Users/reza.kalfane/Workspaces/Daisy/DaisyExamples/libDaisy/src/per/qspi.h ****          */
  48:/Users/reza.kalfane/Workspaces/Daisy/DaisyExamples/libDaisy/src/per/qspi.h ****     enum Status
  49:/Users/reza.kalfane/Workspaces/Daisy/DaisyExamples/libDaisy/src/per/qspi.h ****     {
  50:/Users/reza.kalfane/Workspaces/Daisy/DaisyExamples/libDaisy/src/per/qspi.h ****         GOOD = 0,
  51:/Users/reza.kalfane/Workspaces/Daisy/DaisyExamples/libDaisy/src/per/qspi.h ****         E_HAL_ERROR,
  52:/Users/reza.kalfane/Workspaces/Daisy/DaisyExamples/libDaisy/src/per/qspi.h ****         E_SWITCHING_MODES,
  53:/Users/reza.kalfane/Workspaces/Daisy/DaisyExamples/libDaisy/src/per/qspi.h ****         E_INVALID_MODE,
  54:/Users/reza.kalfane/Workspaces/Daisy/DaisyExamples/libDaisy/src/per/qspi.h ****     };
  55:/Users/reza.kalfane/Workspaces/Daisy/DaisyExamples/libDaisy/src/per/qspi.h **** 
  56:/Users/reza.kalfane/Workspaces/Daisy/DaisyExamples/libDaisy/src/per/qspi.h ****     /** Configuration structure for interfacing with QSPI Driver */
  57:/Users/reza.kalfane/Workspaces/Daisy/DaisyExamples/libDaisy/src/per/qspi.h ****     struct Config
  58:/Users/reza.kalfane/Workspaces/Daisy/DaisyExamples/libDaisy/src/per/qspi.h ****     {
  59:/Users/reza.kalfane/Workspaces/Daisy/DaisyExamples/libDaisy/src/per/qspi.h ****         /** Flash Devices supported. (Both of these are more-or-less the same, just different sizes
  60:/Users/reza.kalfane/Workspaces/Daisy/DaisyExamples/libDaisy/src/per/qspi.h ****         enum Device
  61:/Users/reza.kalfane/Workspaces/Daisy/DaisyExamples/libDaisy/src/per/qspi.h ****         {
  62:/Users/reza.kalfane/Workspaces/Daisy/DaisyExamples/libDaisy/src/per/qspi.h ****             IS25LP080D,  /**< & */
  63:/Users/reza.kalfane/Workspaces/Daisy/DaisyExamples/libDaisy/src/per/qspi.h ****             IS25LP064A,  /**< & */
  64:/Users/reza.kalfane/Workspaces/Daisy/DaisyExamples/libDaisy/src/per/qspi.h ****             DEVICE_LAST, /**< & */
  65:/Users/reza.kalfane/Workspaces/Daisy/DaisyExamples/libDaisy/src/per/qspi.h ****         };
  66:/Users/reza.kalfane/Workspaces/Daisy/DaisyExamples/libDaisy/src/per/qspi.h **** 
  67:/Users/reza.kalfane/Workspaces/Daisy/DaisyExamples/libDaisy/src/per/qspi.h ****         /** 
  68:/Users/reza.kalfane/Workspaces/Daisy/DaisyExamples/libDaisy/src/per/qspi.h ****         Modes of operation.
  69:/Users/reza.kalfane/Workspaces/Daisy/DaisyExamples/libDaisy/src/per/qspi.h ****         Memory Mapped mode: QSPI configured so that the QSPI can be
  70:/Users/reza.kalfane/Workspaces/Daisy/DaisyExamples/libDaisy/src/per/qspi.h ****         read from starting address 0x90000000. Writing is not
  71:/Users/reza.kalfane/Workspaces/Daisy/DaisyExamples/libDaisy/src/per/qspi.h ****         possible in this mode. \n 
  72:/Users/reza.kalfane/Workspaces/Daisy/DaisyExamples/libDaisy/src/per/qspi.h ****         Indirect Polling mode: Device driver enabled. 
  73:/Users/reza.kalfane/Workspaces/Daisy/DaisyExamples/libDaisy/src/per/qspi.h ****         */
  74:/Users/reza.kalfane/Workspaces/Daisy/DaisyExamples/libDaisy/src/per/qspi.h ****         enum Mode
  75:/Users/reza.kalfane/Workspaces/Daisy/DaisyExamples/libDaisy/src/per/qspi.h ****         {
  76:/Users/reza.kalfane/Workspaces/Daisy/DaisyExamples/libDaisy/src/per/qspi.h ****             MEMORY_MAPPED,    /**< & */
  77:/Users/reza.kalfane/Workspaces/Daisy/DaisyExamples/libDaisy/src/per/qspi.h ****             INDIRECT_POLLING, /**< & */
  78:/Users/reza.kalfane/Workspaces/Daisy/DaisyExamples/libDaisy/src/per/qspi.h ****             MODE_LAST,
  79:/Users/reza.kalfane/Workspaces/Daisy/DaisyExamples/libDaisy/src/per/qspi.h ****         };
  80:/Users/reza.kalfane/Workspaces/Daisy/DaisyExamples/libDaisy/src/per/qspi.h **** 
  81:/Users/reza.kalfane/Workspaces/Daisy/DaisyExamples/libDaisy/src/per/qspi.h ****         //SCK,  CE# (active low)
  82:/Users/reza.kalfane/Workspaces/Daisy/DaisyExamples/libDaisy/src/per/qspi.h ****         struct
  83:/Users/reza.kalfane/Workspaces/Daisy/DaisyExamples/libDaisy/src/per/qspi.h ****         {
  84:/Users/reza.kalfane/Workspaces/Daisy/DaisyExamples/libDaisy/src/per/qspi.h ****             dsy_gpio_pin io0; /**< & */
  85:/Users/reza.kalfane/Workspaces/Daisy/DaisyExamples/libDaisy/src/per/qspi.h ****             dsy_gpio_pin io1; /**< & */
  86:/Users/reza.kalfane/Workspaces/Daisy/DaisyExamples/libDaisy/src/per/qspi.h ****             dsy_gpio_pin io2; /**< & */
  87:/Users/reza.kalfane/Workspaces/Daisy/DaisyExamples/libDaisy/src/per/qspi.h ****             dsy_gpio_pin io3; /**< & */
  88:/Users/reza.kalfane/Workspaces/Daisy/DaisyExamples/libDaisy/src/per/qspi.h ****             dsy_gpio_pin clk; /**< & */
  89:/Users/reza.kalfane/Workspaces/Daisy/DaisyExamples/libDaisy/src/per/qspi.h ****             dsy_gpio_pin ncs; /**< & */
  90:/Users/reza.kalfane/Workspaces/Daisy/DaisyExamples/libDaisy/src/per/qspi.h ****         } pin_config;
  91:/Users/reza.kalfane/Workspaces/Daisy/DaisyExamples/libDaisy/src/per/qspi.h **** 
  92:/Users/reza.kalfane/Workspaces/Daisy/DaisyExamples/libDaisy/src/per/qspi.h ****         Device device;
  93:/Users/reza.kalfane/Workspaces/Daisy/DaisyExamples/libDaisy/src/per/qspi.h ****         Mode   mode;
  94:/Users/reza.kalfane/Workspaces/Daisy/DaisyExamples/libDaisy/src/per/qspi.h ****     };
  95:/Users/reza.kalfane/Workspaces/Daisy/DaisyExamples/libDaisy/src/per/qspi.h **** 
  96:/Users/reza.kalfane/Workspaces/Daisy/DaisyExamples/libDaisy/src/per/qspi.h ****     /** 
  97:/Users/reza.kalfane/Workspaces/Daisy/DaisyExamples/libDaisy/src/per/qspi.h ****         Initializes QSPI peripheral, and Resets, and prepares memory for access.
ARM GAS  /tmp/claude-502/ccb6uqMv.s 			page 243


  98:/Users/reza.kalfane/Workspaces/Daisy/DaisyExamples/libDaisy/src/per/qspi.h ****         \param config should be populated with the mode, device and pin_config before calling this 
  99:/Users/reza.kalfane/Workspaces/Daisy/DaisyExamples/libDaisy/src/per/qspi.h ****         \return Result::OK or Result::ERR
 100:/Users/reza.kalfane/Workspaces/Daisy/DaisyExamples/libDaisy/src/per/qspi.h ****         */
 101:/Users/reza.kalfane/Workspaces/Daisy/DaisyExamples/libDaisy/src/per/qspi.h ****     Result Init(const Config& config);
 102:/Users/reza.kalfane/Workspaces/Daisy/DaisyExamples/libDaisy/src/per/qspi.h **** 
 103:/Users/reza.kalfane/Workspaces/Daisy/DaisyExamples/libDaisy/src/per/qspi.h ****     /** Returns the current config. */
 104:/Users/reza.kalfane/Workspaces/Daisy/DaisyExamples/libDaisy/src/per/qspi.h ****     const Config& GetConfig() const;
 105:/Users/reza.kalfane/Workspaces/Daisy/DaisyExamples/libDaisy/src/per/qspi.h **** 
 106:/Users/reza.kalfane/Workspaces/Daisy/DaisyExamples/libDaisy/src/per/qspi.h ****     // Couldn't this just be called before anything else in init? That
 107:/Users/reza.kalfane/Workspaces/Daisy/DaisyExamples/libDaisy/src/per/qspi.h ****     // would make manually calling it unnecessary.
 108:/Users/reza.kalfane/Workspaces/Daisy/DaisyExamples/libDaisy/src/per/qspi.h ****     /** 
 109:/Users/reza.kalfane/Workspaces/Daisy/DaisyExamples/libDaisy/src/per/qspi.h ****         Deinitializes the peripheral
 110:/Users/reza.kalfane/Workspaces/Daisy/DaisyExamples/libDaisy/src/per/qspi.h ****         This should be called before reinitializing QSPI in a different mode.
 111:/Users/reza.kalfane/Workspaces/Daisy/DaisyExamples/libDaisy/src/per/qspi.h ****         \return Result::OK or Result::ERR
 112:/Users/reza.kalfane/Workspaces/Daisy/DaisyExamples/libDaisy/src/per/qspi.h ****         */
 113:/Users/reza.kalfane/Workspaces/Daisy/DaisyExamples/libDaisy/src/per/qspi.h ****     Result DeInit();
 114:/Users/reza.kalfane/Workspaces/Daisy/DaisyExamples/libDaisy/src/per/qspi.h **** 
 115:/Users/reza.kalfane/Workspaces/Daisy/DaisyExamples/libDaisy/src/per/qspi.h ****     /** 
 116:/Users/reza.kalfane/Workspaces/Daisy/DaisyExamples/libDaisy/src/per/qspi.h ****         Writes a single page to to the specified address on the QSPI chip.
 117:/Users/reza.kalfane/Workspaces/Daisy/DaisyExamples/libDaisy/src/per/qspi.h ****         For IS25LP*, page size is 256 bytes.
 118:/Users/reza.kalfane/Workspaces/Daisy/DaisyExamples/libDaisy/src/per/qspi.h ****         \param address Address to write to
 119:/Users/reza.kalfane/Workspaces/Daisy/DaisyExamples/libDaisy/src/per/qspi.h ****         \param size Buffer size
 120:/Users/reza.kalfane/Workspaces/Daisy/DaisyExamples/libDaisy/src/per/qspi.h ****         \param buffer Buffer to write
 121:/Users/reza.kalfane/Workspaces/Daisy/DaisyExamples/libDaisy/src/per/qspi.h ****         \return Result::OK or Result::ERR
 122:/Users/reza.kalfane/Workspaces/Daisy/DaisyExamples/libDaisy/src/per/qspi.h ****         */
 123:/Users/reza.kalfane/Workspaces/Daisy/DaisyExamples/libDaisy/src/per/qspi.h ****     Result WritePage(uint32_t address, uint32_t size, uint8_t* buffer);
 124:/Users/reza.kalfane/Workspaces/Daisy/DaisyExamples/libDaisy/src/per/qspi.h **** 
 125:/Users/reza.kalfane/Workspaces/Daisy/DaisyExamples/libDaisy/src/per/qspi.h ****     /** 
 126:/Users/reza.kalfane/Workspaces/Daisy/DaisyExamples/libDaisy/src/per/qspi.h ****         Writes data in buffer to to the QSPI. Starting at address to address+size 
 127:/Users/reza.kalfane/Workspaces/Daisy/DaisyExamples/libDaisy/src/per/qspi.h ****         \param address Address to write to
 128:/Users/reza.kalfane/Workspaces/Daisy/DaisyExamples/libDaisy/src/per/qspi.h ****         \param size Buffer size
 129:/Users/reza.kalfane/Workspaces/Daisy/DaisyExamples/libDaisy/src/per/qspi.h ****         \param buffer Buffer to write
 130:/Users/reza.kalfane/Workspaces/Daisy/DaisyExamples/libDaisy/src/per/qspi.h ****         \return Result::OK or Result::ERR
 131:/Users/reza.kalfane/Workspaces/Daisy/DaisyExamples/libDaisy/src/per/qspi.h ****         */
 132:/Users/reza.kalfane/Workspaces/Daisy/DaisyExamples/libDaisy/src/per/qspi.h ****     Result Write(uint32_t address, uint32_t size, uint8_t* buffer);
 133:/Users/reza.kalfane/Workspaces/Daisy/DaisyExamples/libDaisy/src/per/qspi.h **** 
 134:/Users/reza.kalfane/Workspaces/Daisy/DaisyExamples/libDaisy/src/per/qspi.h ****     /** 
 135:/Users/reza.kalfane/Workspaces/Daisy/DaisyExamples/libDaisy/src/per/qspi.h ****         Erases the area specified on the chip.
 136:/Users/reza.kalfane/Workspaces/Daisy/DaisyExamples/libDaisy/src/per/qspi.h ****         Erasures will happen by 4K, 32K or 64K increments.
 137:/Users/reza.kalfane/Workspaces/Daisy/DaisyExamples/libDaisy/src/per/qspi.h ****         Smallest erase possible is 4kB at a time. (on IS25LP*)
 138:/Users/reza.kalfane/Workspaces/Daisy/DaisyExamples/libDaisy/src/per/qspi.h ****         \param start_addr Address to begin erasing from
 139:/Users/reza.kalfane/Workspaces/Daisy/DaisyExamples/libDaisy/src/per/qspi.h ****         \param end_addr  Address to stop erasing at
 140:/Users/reza.kalfane/Workspaces/Daisy/DaisyExamples/libDaisy/src/per/qspi.h ****         \return Result::OK or Result::ERR
 141:/Users/reza.kalfane/Workspaces/Daisy/DaisyExamples/libDaisy/src/per/qspi.h ****         */
 142:/Users/reza.kalfane/Workspaces/Daisy/DaisyExamples/libDaisy/src/per/qspi.h ****     Result Erase(uint32_t start_addr, uint32_t end_addr);
 143:/Users/reza.kalfane/Workspaces/Daisy/DaisyExamples/libDaisy/src/per/qspi.h **** 
 144:/Users/reza.kalfane/Workspaces/Daisy/DaisyExamples/libDaisy/src/per/qspi.h ****     /**  
 145:/Users/reza.kalfane/Workspaces/Daisy/DaisyExamples/libDaisy/src/per/qspi.h ****          Erases a single sector of the chip.  
 146:/Users/reza.kalfane/Workspaces/Daisy/DaisyExamples/libDaisy/src/per/qspi.h ****         TODO: Document the size of this function. 
 147:/Users/reza.kalfane/Workspaces/Daisy/DaisyExamples/libDaisy/src/per/qspi.h ****         \param address Address of sector to erase
 148:/Users/reza.kalfane/Workspaces/Daisy/DaisyExamples/libDaisy/src/per/qspi.h ****         \return Result::OK or Result::ERR
 149:/Users/reza.kalfane/Workspaces/Daisy/DaisyExamples/libDaisy/src/per/qspi.h ****         */
 150:/Users/reza.kalfane/Workspaces/Daisy/DaisyExamples/libDaisy/src/per/qspi.h ****     Result EraseSector(uint32_t address);
 151:/Users/reza.kalfane/Workspaces/Daisy/DaisyExamples/libDaisy/src/per/qspi.h **** 
 152:/Users/reza.kalfane/Workspaces/Daisy/DaisyExamples/libDaisy/src/per/qspi.h ****     /** Returns the current class status. Useful for debugging.
 153:/Users/reza.kalfane/Workspaces/Daisy/DaisyExamples/libDaisy/src/per/qspi.h ****      *  \returns Status
 154:/Users/reza.kalfane/Workspaces/Daisy/DaisyExamples/libDaisy/src/per/qspi.h ****      */
ARM GAS  /tmp/claude-502/ccb6uqMv.s 			page 244


 155:/Users/reza.kalfane/Workspaces/Daisy/DaisyExamples/libDaisy/src/per/qspi.h ****     Status GetStatus();
 156:/Users/reza.kalfane/Workspaces/Daisy/DaisyExamples/libDaisy/src/per/qspi.h **** 
 157:/Users/reza.kalfane/Workspaces/Daisy/DaisyExamples/libDaisy/src/per/qspi.h ****     /** Returns a pointer to the actual memory used 
 158:/Users/reza.kalfane/Workspaces/Daisy/DaisyExamples/libDaisy/src/per/qspi.h ****      *  The memory at this address is read-only
 159:/Users/reza.kalfane/Workspaces/Daisy/DaisyExamples/libDaisy/src/per/qspi.h ****      *  to write to it use the Write function.
 160:/Users/reza.kalfane/Workspaces/Daisy/DaisyExamples/libDaisy/src/per/qspi.h ****      * 
 161:/Users/reza.kalfane/Workspaces/Daisy/DaisyExamples/libDaisy/src/per/qspi.h ****      *  \param offset returns the pointer starting this 
 162:/Users/reza.kalfane/Workspaces/Daisy/DaisyExamples/libDaisy/src/per/qspi.h ****      *                many bytes into the memory
 163:/Users/reza.kalfane/Workspaces/Daisy/DaisyExamples/libDaisy/src/per/qspi.h ****     */
 164:/Users/reza.kalfane/Workspaces/Daisy/DaisyExamples/libDaisy/src/per/qspi.h ****     void* GetData(uint32_t offset = 0);
 165:/Users/reza.kalfane/Workspaces/Daisy/DaisyExamples/libDaisy/src/per/qspi.h **** 
 166:/Users/reza.kalfane/Workspaces/Daisy/DaisyExamples/libDaisy/src/per/qspi.h ****     QSPIHandle() : pimpl_(nullptr) {}
 9434              		.loc 7 166 5 view .LVU2815
 9435              	.LBE1577:
 9436              	.LBE1576:
 9437              	.LBE1575:
 9438              	.LBE1574:
 9439              	.LBE1573:
 9440              		.loc 6 1252 1 is_stmt 0 view .LVU2816
 9441 0000 10B5     		push	{r4, lr}
 9442              		.cfi_def_cfa_offset 8
 9443              		.cfi_offset 4, -8
 9444              		.cfi_offset 14, -4
 9445              	.LBB1638:
 9446              	.LBB1637:
 9447              	.LBB1598:
 9448              	.LBB1596:
 9449              	.LBB1582:
 9450              	.LBB1578:
 9451              	.LBB1579:
 9452              		.loc 7 166 34 view .LVU2817
 9453 0002 0E48     		ldr	r0, .L609
 9454 0004 0024     		movs	r4, #0
 9455              	.LBE1579:
 9456              	.LBE1578:
 9457              	.LBE1582:
 9458              	.LBE1596:
 9459              	.LBE1598:
 262:src/main.cpp  **** GPIO      sda, scl;
 9460              		.loc 6 262 11 view .LVU2818
 9461 0006 0E4A     		ldr	r2, .L609+4
 9462 0008 0E49     		ldr	r1, .L609+8
 9463              	.LBB1599:
 9464              	.LBB1597:
 9465              	.LBB1583:
 9466              	.LBB1581:
 9467              	.LBB1580:
 9468              		.loc 7 166 34 view .LVU2819
 9469 000a 0460     		str	r4, [r0]
 9470              	.LVL775:
 9471              		.loc 7 166 34 view .LVU2820
 9472              	.LBE1580:
 9473              	.LBE1581:
 9474              	.LBE1583:
 9475              	.LBB1584:
 9476              	.LBI1584:
  95:/Users/reza.kalfane/Workspaces/Daisy/DaisyExamples/libDaisy/src/hid/audio.h ****     ~AudioHandle() {}
ARM GAS  /tmp/claude-502/ccb6uqMv.s 			page 245


 9477              		.loc 5 95 5 is_stmt 1 view .LVU2821
 9478              	.LBB1585:
 9479              	.LBB1586:
  95:/Users/reza.kalfane/Workspaces/Daisy/DaisyExamples/libDaisy/src/hid/audio.h ****     ~AudioHandle() {}
 9480              		.loc 5 95 35 is_stmt 0 view .LVU2822
 9481 000c 4461     		str	r4, [r0, #20]
 9482              	.LVL776:
  95:/Users/reza.kalfane/Workspaces/Daisy/DaisyExamples/libDaisy/src/hid/audio.h ****     ~AudioHandle() {}
 9483              		.loc 5 95 35 view .LVU2823
 9484              	.LBE1586:
 9485              	.LBE1585:
 9486              	.LBE1584:
 9487              	.LBB1587:
 9488              	.LBI1587:
 109:/Users/reza.kalfane/Workspaces/Daisy/DaisyExamples/libDaisy/src/per/adc.h ****     ~AdcHandle() {}
 9489              		.loc 4 109 5 is_stmt 1 view .LVU2824
 109:/Users/reza.kalfane/Workspaces/Daisy/DaisyExamples/libDaisy/src/per/adc.h ****     ~AdcHandle() {}
 9490              		.loc 4 109 5 is_stmt 0 view .LVU2825
 9491              	.LBE1587:
 9492              	.LBB1588:
 9493              	.LBI1588:
 9494              		.file 8 "/Users/reza.kalfane/Workspaces/Daisy/DaisyExamples/libDaisy/src/per/dac.h"
   1:/Users/reza.kalfane/Workspaces/Daisy/DaisyExamples/libDaisy/src/per/dac.h **** #pragma once
   2:/Users/reza.kalfane/Workspaces/Daisy/DaisyExamples/libDaisy/src/per/dac.h **** #ifndef DSY_DAC_H
   3:/Users/reza.kalfane/Workspaces/Daisy/DaisyExamples/libDaisy/src/per/dac.h **** #define DSY_DAC_H
   4:/Users/reza.kalfane/Workspaces/Daisy/DaisyExamples/libDaisy/src/per/dac.h **** 
   5:/Users/reza.kalfane/Workspaces/Daisy/DaisyExamples/libDaisy/src/per/dac.h **** #include "daisy_core.h"
   6:/Users/reza.kalfane/Workspaces/Daisy/DaisyExamples/libDaisy/src/per/dac.h **** 
   7:/Users/reza.kalfane/Workspaces/Daisy/DaisyExamples/libDaisy/src/per/dac.h **** namespace daisy
   8:/Users/reza.kalfane/Workspaces/Daisy/DaisyExamples/libDaisy/src/per/dac.h **** {
   9:/Users/reza.kalfane/Workspaces/Daisy/DaisyExamples/libDaisy/src/per/dac.h **** /** @brief DAC handle for Built-in DAC Peripheral 
  10:/Users/reza.kalfane/Workspaces/Daisy/DaisyExamples/libDaisy/src/per/dac.h ****  *  @ingroup per_analog
  11:/Users/reza.kalfane/Workspaces/Daisy/DaisyExamples/libDaisy/src/per/dac.h ****  ** 
  12:/Users/reza.kalfane/Workspaces/Daisy/DaisyExamples/libDaisy/src/per/dac.h ****  ** For now only Normal Mode is supported,
  13:/Users/reza.kalfane/Workspaces/Daisy/DaisyExamples/libDaisy/src/per/dac.h ****  ** Sample and hold mode provides reduced power consumption, but requires a bit more setup.
  14:/Users/reza.kalfane/Workspaces/Daisy/DaisyExamples/libDaisy/src/per/dac.h ****  **
  15:/Users/reza.kalfane/Workspaces/Daisy/DaisyExamples/libDaisy/src/per/dac.h ****  ** For now connecting the DAC through other internal peripherals is also not supported.
  16:/Users/reza.kalfane/Workspaces/Daisy/DaisyExamples/libDaisy/src/per/dac.h ****  **
  17:/Users/reza.kalfane/Workspaces/Daisy/DaisyExamples/libDaisy/src/per/dac.h ****  ** Since the DAC channels have dedicated pins we don't need to pass in a pin config like with
  18:/Users/reza.kalfane/Workspaces/Daisy/DaisyExamples/libDaisy/src/per/dac.h ****  ** other modules. However, it is still important to not try to use the DAC pins for anything else.
  19:/Users/reza.kalfane/Workspaces/Daisy/DaisyExamples/libDaisy/src/per/dac.h ****  ** DAC Channel 1 is on PA4, and DAC Channel 2 is on PA5
  20:/Users/reza.kalfane/Workspaces/Daisy/DaisyExamples/libDaisy/src/per/dac.h ****  ***/
  21:/Users/reza.kalfane/Workspaces/Daisy/DaisyExamples/libDaisy/src/per/dac.h **** class DacHandle
  22:/Users/reza.kalfane/Workspaces/Daisy/DaisyExamples/libDaisy/src/per/dac.h **** {
  23:/Users/reza.kalfane/Workspaces/Daisy/DaisyExamples/libDaisy/src/per/dac.h ****   public:
  24:/Users/reza.kalfane/Workspaces/Daisy/DaisyExamples/libDaisy/src/per/dac.h ****     /** Return Values for the DacHandle class */
  25:/Users/reza.kalfane/Workspaces/Daisy/DaisyExamples/libDaisy/src/per/dac.h ****     enum class Result
  26:/Users/reza.kalfane/Workspaces/Daisy/DaisyExamples/libDaisy/src/per/dac.h ****     {
  27:/Users/reza.kalfane/Workspaces/Daisy/DaisyExamples/libDaisy/src/per/dac.h ****         OK,
  28:/Users/reza.kalfane/Workspaces/Daisy/DaisyExamples/libDaisy/src/per/dac.h ****         ERR,
  29:/Users/reza.kalfane/Workspaces/Daisy/DaisyExamples/libDaisy/src/per/dac.h ****     };
  30:/Users/reza.kalfane/Workspaces/Daisy/DaisyExamples/libDaisy/src/per/dac.h **** 
  31:/Users/reza.kalfane/Workspaces/Daisy/DaisyExamples/libDaisy/src/per/dac.h ****     /** Selects which channel(s) will be configured for use. */
  32:/Users/reza.kalfane/Workspaces/Daisy/DaisyExamples/libDaisy/src/per/dac.h ****     enum class Channel
  33:/Users/reza.kalfane/Workspaces/Daisy/DaisyExamples/libDaisy/src/per/dac.h ****     {
  34:/Users/reza.kalfane/Workspaces/Daisy/DaisyExamples/libDaisy/src/per/dac.h ****         ONE,
  35:/Users/reza.kalfane/Workspaces/Daisy/DaisyExamples/libDaisy/src/per/dac.h ****         TWO,
ARM GAS  /tmp/claude-502/ccb6uqMv.s 			page 246


  36:/Users/reza.kalfane/Workspaces/Daisy/DaisyExamples/libDaisy/src/per/dac.h ****         BOTH,
  37:/Users/reza.kalfane/Workspaces/Daisy/DaisyExamples/libDaisy/src/per/dac.h ****     };
  38:/Users/reza.kalfane/Workspaces/Daisy/DaisyExamples/libDaisy/src/per/dac.h **** 
  39:/Users/reza.kalfane/Workspaces/Daisy/DaisyExamples/libDaisy/src/per/dac.h ****     /** Sets the Mode for the DAC channels.
  40:/Users/reza.kalfane/Workspaces/Daisy/DaisyExamples/libDaisy/src/per/dac.h ****      **
  41:/Users/reza.kalfane/Workspaces/Daisy/DaisyExamples/libDaisy/src/per/dac.h ****      ** Polling mode uses the blocking mode to transmit a single value at a time.
  42:/Users/reza.kalfane/Workspaces/Daisy/DaisyExamples/libDaisy/src/per/dac.h ****      **
  43:/Users/reza.kalfane/Workspaces/Daisy/DaisyExamples/libDaisy/src/per/dac.h ****      ** DMA mode uses a buffer, and periodically transmits it triggering a 
  44:/Users/reza.kalfane/Workspaces/Daisy/DaisyExamples/libDaisy/src/per/dac.h ****      ** callback to fill the buffer when it is ready for more samples.
  45:/Users/reza.kalfane/Workspaces/Daisy/DaisyExamples/libDaisy/src/per/dac.h ****      ***/
  46:/Users/reza.kalfane/Workspaces/Daisy/DaisyExamples/libDaisy/src/per/dac.h ****     enum class Mode
  47:/Users/reza.kalfane/Workspaces/Daisy/DaisyExamples/libDaisy/src/per/dac.h ****     {
  48:/Users/reza.kalfane/Workspaces/Daisy/DaisyExamples/libDaisy/src/per/dac.h ****         POLLING,
  49:/Users/reza.kalfane/Workspaces/Daisy/DaisyExamples/libDaisy/src/per/dac.h ****         DMA,
  50:/Users/reza.kalfane/Workspaces/Daisy/DaisyExamples/libDaisy/src/per/dac.h ****     };
  51:/Users/reza.kalfane/Workspaces/Daisy/DaisyExamples/libDaisy/src/per/dac.h **** 
  52:/Users/reza.kalfane/Workspaces/Daisy/DaisyExamples/libDaisy/src/per/dac.h ****     /** Sets the number of bits per sample transmitted out of the DAC.
  53:/Users/reza.kalfane/Workspaces/Daisy/DaisyExamples/libDaisy/src/per/dac.h ****      ** The output range will be: 0V - VDDA
  54:/Users/reza.kalfane/Workspaces/Daisy/DaisyExamples/libDaisy/src/per/dac.h ****      ** The resolution will be roughly: bitdepth / (VDDA - 0V) 
  55:/Users/reza.kalfane/Workspaces/Daisy/DaisyExamples/libDaisy/src/per/dac.h ****      ***/
  56:/Users/reza.kalfane/Workspaces/Daisy/DaisyExamples/libDaisy/src/per/dac.h ****     enum class BitDepth
  57:/Users/reza.kalfane/Workspaces/Daisy/DaisyExamples/libDaisy/src/per/dac.h ****     {
  58:/Users/reza.kalfane/Workspaces/Daisy/DaisyExamples/libDaisy/src/per/dac.h ****         BITS_8,
  59:/Users/reza.kalfane/Workspaces/Daisy/DaisyExamples/libDaisy/src/per/dac.h ****         BITS_12
  60:/Users/reza.kalfane/Workspaces/Daisy/DaisyExamples/libDaisy/src/per/dac.h ****     };
  61:/Users/reza.kalfane/Workspaces/Daisy/DaisyExamples/libDaisy/src/per/dac.h **** 
  62:/Users/reza.kalfane/Workspaces/Daisy/DaisyExamples/libDaisy/src/per/dac.h ****     /** Sets whether the DAC output is buffered for higher drive ability. */
  63:/Users/reza.kalfane/Workspaces/Daisy/DaisyExamples/libDaisy/src/per/dac.h ****     enum class BufferState
  64:/Users/reza.kalfane/Workspaces/Daisy/DaisyExamples/libDaisy/src/per/dac.h ****     {
  65:/Users/reza.kalfane/Workspaces/Daisy/DaisyExamples/libDaisy/src/per/dac.h ****         ENABLED,
  66:/Users/reza.kalfane/Workspaces/Daisy/DaisyExamples/libDaisy/src/per/dac.h ****         DISABLED,
  67:/Users/reza.kalfane/Workspaces/Daisy/DaisyExamples/libDaisy/src/per/dac.h ****     };
  68:/Users/reza.kalfane/Workspaces/Daisy/DaisyExamples/libDaisy/src/per/dac.h **** 
  69:/Users/reza.kalfane/Workspaces/Daisy/DaisyExamples/libDaisy/src/per/dac.h ****     /** Configuration structure for initializing the DAC structure. */
  70:/Users/reza.kalfane/Workspaces/Daisy/DaisyExamples/libDaisy/src/per/dac.h ****     struct Config
  71:/Users/reza.kalfane/Workspaces/Daisy/DaisyExamples/libDaisy/src/per/dac.h ****     {
  72:/Users/reza.kalfane/Workspaces/Daisy/DaisyExamples/libDaisy/src/per/dac.h ****         /** Target Samplerate in Hz used to configure the internal 
  73:/Users/reza.kalfane/Workspaces/Daisy/DaisyExamples/libDaisy/src/per/dac.h ****          ** timebase for DMA mode. Does nothing in POLLING mode.
  74:/Users/reza.kalfane/Workspaces/Daisy/DaisyExamples/libDaisy/src/per/dac.h ****          ** If the value is 0 at Init time this will default to 48000Hz 
  75:/Users/reza.kalfane/Workspaces/Daisy/DaisyExamples/libDaisy/src/per/dac.h ****          ** otherwise the driver will attempt meet the target.*/
  76:/Users/reza.kalfane/Workspaces/Daisy/DaisyExamples/libDaisy/src/per/dac.h ****         uint32_t target_samplerate;
  77:/Users/reza.kalfane/Workspaces/Daisy/DaisyExamples/libDaisy/src/per/dac.h **** 
  78:/Users/reza.kalfane/Workspaces/Daisy/DaisyExamples/libDaisy/src/per/dac.h ****         Channel     chn;
  79:/Users/reza.kalfane/Workspaces/Daisy/DaisyExamples/libDaisy/src/per/dac.h ****         Mode        mode;
  80:/Users/reza.kalfane/Workspaces/Daisy/DaisyExamples/libDaisy/src/per/dac.h ****         BitDepth    bitdepth;
  81:/Users/reza.kalfane/Workspaces/Daisy/DaisyExamples/libDaisy/src/per/dac.h ****         BufferState buff_state;
  82:/Users/reza.kalfane/Workspaces/Daisy/DaisyExamples/libDaisy/src/per/dac.h ****     };
  83:/Users/reza.kalfane/Workspaces/Daisy/DaisyExamples/libDaisy/src/per/dac.h **** 
  84:/Users/reza.kalfane/Workspaces/Daisy/DaisyExamples/libDaisy/src/per/dac.h ****     DacHandle() : pimpl_(nullptr) {}
 9495              		.loc 8 84 5 is_stmt 1 view .LVU2826
 9496              	.LBB1589:
 9497              	.LBB1590:
 9498              		.loc 8 84 33 is_stmt 0 view .LVU2827
 9499 000e 0462     		str	r4, [r0, #32]
 9500              	.LVL777:
 9501              		.loc 8 84 33 view .LVU2828
 9502              	.LBE1590:
ARM GAS  /tmp/claude-502/ccb6uqMv.s 			page 247


 9503              	.LBE1589:
 9504              	.LBE1588:
 9505              	.LBB1591:
 9506              	.LBI1591:
  40:/Users/reza.kalfane/Workspaces/Daisy/DaisyExamples/libDaisy/src/hid/usb.h **** 
 9507              		.loc 3 40 5 is_stmt 1 view .LVU2829
  40:/Users/reza.kalfane/Workspaces/Daisy/DaisyExamples/libDaisy/src/hid/usb.h **** 
 9508              		.loc 3 40 5 is_stmt 0 view .LVU2830
 9509              	.LBE1591:
 9510              	.LBB1592:
 9511              	.LBI1592:
  96:/Users/reza.kalfane/Workspaces/Daisy/DaisyExamples/libDaisy/src/sys/system.h ****     ~System() {}
 9512              		.loc 2 96 5 is_stmt 1 view .LVU2831
  96:/Users/reza.kalfane/Workspaces/Daisy/DaisyExamples/libDaisy/src/sys/system.h ****     ~System() {}
 9513              		.loc 2 96 5 is_stmt 0 view .LVU2832
 9514              	.LBE1592:
 9515              	.LBB1593:
 9516              	.LBI1593:
 9517              		.file 9 "/Users/reza.kalfane/Workspaces/Daisy/DaisyExamples/libDaisy/src/per/sai.h"
   1:/Users/reza.kalfane/Workspaces/Daisy/DaisyExamples/libDaisy/src/per/sai.h **** #pragma once
   2:/Users/reza.kalfane/Workspaces/Daisy/DaisyExamples/libDaisy/src/per/sai.h **** #ifndef DSY_SAI_H
   3:/Users/reza.kalfane/Workspaces/Daisy/DaisyExamples/libDaisy/src/per/sai.h **** #define DSY_SAI_H
   4:/Users/reza.kalfane/Workspaces/Daisy/DaisyExamples/libDaisy/src/per/sai.h **** 
   5:/Users/reza.kalfane/Workspaces/Daisy/DaisyExamples/libDaisy/src/per/sai.h **** #include "daisy_core.h"
   6:/Users/reza.kalfane/Workspaces/Daisy/DaisyExamples/libDaisy/src/per/sai.h **** 
   7:/Users/reza.kalfane/Workspaces/Daisy/DaisyExamples/libDaisy/src/per/sai.h **** namespace daisy
   8:/Users/reza.kalfane/Workspaces/Daisy/DaisyExamples/libDaisy/src/per/sai.h **** {
   9:/Users/reza.kalfane/Workspaces/Daisy/DaisyExamples/libDaisy/src/per/sai.h **** /** 
  10:/Users/reza.kalfane/Workspaces/Daisy/DaisyExamples/libDaisy/src/per/sai.h ****  * Support for I2S Audio Protocol with different bit-depth, samplerate options
  11:/Users/reza.kalfane/Workspaces/Daisy/DaisyExamples/libDaisy/src/per/sai.h ****  * Allows for master or slave, as well as freedom of selecting direction, 
  12:/Users/reza.kalfane/Workspaces/Daisy/DaisyExamples/libDaisy/src/per/sai.h ****  * and other behavior for each peripheral, and block.
  13:/Users/reza.kalfane/Workspaces/Daisy/DaisyExamples/libDaisy/src/per/sai.h ****  * 
  14:/Users/reza.kalfane/Workspaces/Daisy/DaisyExamples/libDaisy/src/per/sai.h ****  * DMA Transfer commands must use buffers located within non-cached memory or use cache maintenance
  15:/Users/reza.kalfane/Workspaces/Daisy/DaisyExamples/libDaisy/src/per/sai.h ****  * To declare an unitialized global element in the DMA memory section:
  16:/Users/reza.kalfane/Workspaces/Daisy/DaisyExamples/libDaisy/src/per/sai.h ****  *    int32_t DSY_DMA_BUFFER_SECTOR my_buffer[96];
  17:/Users/reza.kalfane/Workspaces/Daisy/DaisyExamples/libDaisy/src/per/sai.h ****  *
  18:/Users/reza.kalfane/Workspaces/Daisy/DaisyExamples/libDaisy/src/per/sai.h ****  * Callback functions will be called once per half of the buffer. In the above example, 
  19:/Users/reza.kalfane/Workspaces/Daisy/DaisyExamples/libDaisy/src/per/sai.h ****  * the callback function would be called once for every 48 samples.
  20:/Users/reza.kalfane/Workspaces/Daisy/DaisyExamples/libDaisy/src/per/sai.h ****  * 
  21:/Users/reza.kalfane/Workspaces/Daisy/DaisyExamples/libDaisy/src/per/sai.h ****  * Use SAI Handle like this:
  22:/Users/reza.kalfane/Workspaces/Daisy/DaisyExamples/libDaisy/src/per/sai.h ****  * 
  23:/Users/reza.kalfane/Workspaces/Daisy/DaisyExamples/libDaisy/src/per/sai.h ****  *  SaiHandle::Config sai_config;
  24:/Users/reza.kalfane/Workspaces/Daisy/DaisyExamples/libDaisy/src/per/sai.h ****  *  sai_config.periph          = SaiHandle::Config::Peripheral::SAI_1;
  25:/Users/reza.kalfane/Workspaces/Daisy/DaisyExamples/libDaisy/src/per/sai.h ****  *  sai_config.sr              = SaiHandle::Config::SampleRate::SAI_48KHZ;
  26:/Users/reza.kalfane/Workspaces/Daisy/DaisyExamples/libDaisy/src/per/sai.h ****  *  sai_config.bit_depth       = SaiHandle::Config::BitDepth::SAI_24BIT;
  27:/Users/reza.kalfane/Workspaces/Daisy/DaisyExamples/libDaisy/src/per/sai.h ****  *  sai_config.a_sync          = SaiHandle::Config::Sync::MASTER;
  28:/Users/reza.kalfane/Workspaces/Daisy/DaisyExamples/libDaisy/src/per/sai.h ****  *  sai_config.b_sync          = SaiHandle::Config::Sync::SLAVE;
  29:/Users/reza.kalfane/Workspaces/Daisy/DaisyExamples/libDaisy/src/per/sai.h ****  *  sai_config.a_dir           = SaiHandle::Config::Direction::RECEIVE;
  30:/Users/reza.kalfane/Workspaces/Daisy/DaisyExamples/libDaisy/src/per/sai.h ****  *  sai_config.b_dir           = SaiHandle::Config::Direction::TRANSMIT;
  31:/Users/reza.kalfane/Workspaces/Daisy/DaisyExamples/libDaisy/src/per/sai.h ****  *  sai_config.pin_config.fs   = {DSY_GPIOE, 4};
  32:/Users/reza.kalfane/Workspaces/Daisy/DaisyExamples/libDaisy/src/per/sai.h ****  *  sai_config.pin_config.mclk = {DSY_GPIOE, 2};
  33:/Users/reza.kalfane/Workspaces/Daisy/DaisyExamples/libDaisy/src/per/sai.h ****  *  sai_config.pin_config.sck  = {DSY_GPIOE, 5};
  34:/Users/reza.kalfane/Workspaces/Daisy/DaisyExamples/libDaisy/src/per/sai.h ****  *  sai_config.pin_config.sa   = {DSY_GPIOE, 6};
  35:/Users/reza.kalfane/Workspaces/Daisy/DaisyExamples/libDaisy/src/per/sai.h ****  *  sai_config.pin_config.sb   = {DSY_GPIOE, 3};
  36:/Users/reza.kalfane/Workspaces/Daisy/DaisyExamples/libDaisy/src/per/sai.h ****  *  // Then Initialize
  37:/Users/reza.kalfane/Workspaces/Daisy/DaisyExamples/libDaisy/src/per/sai.h ****  *  SaiHandle sai;
  38:/Users/reza.kalfane/Workspaces/Daisy/DaisyExamples/libDaisy/src/per/sai.h ****  *  sai.Init(sai_config);
ARM GAS  /tmp/claude-502/ccb6uqMv.s 			page 248


  39:/Users/reza.kalfane/Workspaces/Daisy/DaisyExamples/libDaisy/src/per/sai.h ****  *  // Now you can use it:
  40:/Users/reza.kalfane/Workspaces/Daisy/DaisyExamples/libDaisy/src/per/sai.h ****  *  sai.StartDma(. . .);
  41:/Users/reza.kalfane/Workspaces/Daisy/DaisyExamples/libDaisy/src/per/sai.h ****  */
  42:/Users/reza.kalfane/Workspaces/Daisy/DaisyExamples/libDaisy/src/per/sai.h **** class SaiHandle
  43:/Users/reza.kalfane/Workspaces/Daisy/DaisyExamples/libDaisy/src/per/sai.h **** {
  44:/Users/reza.kalfane/Workspaces/Daisy/DaisyExamples/libDaisy/src/per/sai.h ****   public:
  45:/Users/reza.kalfane/Workspaces/Daisy/DaisyExamples/libDaisy/src/per/sai.h ****     /** Contains settings for initialising an SAI Interface */
  46:/Users/reza.kalfane/Workspaces/Daisy/DaisyExamples/libDaisy/src/per/sai.h ****     struct Config
  47:/Users/reza.kalfane/Workspaces/Daisy/DaisyExamples/libDaisy/src/per/sai.h ****     {
  48:/Users/reza.kalfane/Workspaces/Daisy/DaisyExamples/libDaisy/src/per/sai.h ****         /** Specifies the internal peripheral to use (mapped to different hardware pins) */
  49:/Users/reza.kalfane/Workspaces/Daisy/DaisyExamples/libDaisy/src/per/sai.h ****         enum class Peripheral
  50:/Users/reza.kalfane/Workspaces/Daisy/DaisyExamples/libDaisy/src/per/sai.h ****         {
  51:/Users/reza.kalfane/Workspaces/Daisy/DaisyExamples/libDaisy/src/per/sai.h ****             SAI_1,
  52:/Users/reza.kalfane/Workspaces/Daisy/DaisyExamples/libDaisy/src/per/sai.h ****             SAI_2,
  53:/Users/reza.kalfane/Workspaces/Daisy/DaisyExamples/libDaisy/src/per/sai.h ****         };
  54:/Users/reza.kalfane/Workspaces/Daisy/DaisyExamples/libDaisy/src/per/sai.h **** 
  55:/Users/reza.kalfane/Workspaces/Daisy/DaisyExamples/libDaisy/src/per/sai.h ****         /** Rate at which samples will be streaming to/from the device. */
  56:/Users/reza.kalfane/Workspaces/Daisy/DaisyExamples/libDaisy/src/per/sai.h ****         enum class SampleRate
  57:/Users/reza.kalfane/Workspaces/Daisy/DaisyExamples/libDaisy/src/per/sai.h ****         {
  58:/Users/reza.kalfane/Workspaces/Daisy/DaisyExamples/libDaisy/src/per/sai.h ****             SAI_8KHZ,
  59:/Users/reza.kalfane/Workspaces/Daisy/DaisyExamples/libDaisy/src/per/sai.h ****             SAI_16KHZ,
  60:/Users/reza.kalfane/Workspaces/Daisy/DaisyExamples/libDaisy/src/per/sai.h ****             SAI_32KHZ,
  61:/Users/reza.kalfane/Workspaces/Daisy/DaisyExamples/libDaisy/src/per/sai.h ****             SAI_48KHZ,
  62:/Users/reza.kalfane/Workspaces/Daisy/DaisyExamples/libDaisy/src/per/sai.h ****             SAI_96KHZ,
  63:/Users/reza.kalfane/Workspaces/Daisy/DaisyExamples/libDaisy/src/per/sai.h ****         };
  64:/Users/reza.kalfane/Workspaces/Daisy/DaisyExamples/libDaisy/src/per/sai.h **** 
  65:/Users/reza.kalfane/Workspaces/Daisy/DaisyExamples/libDaisy/src/per/sai.h ****         /** Bit Depth that the hardware expects to be transferred to/from the device. */
  66:/Users/reza.kalfane/Workspaces/Daisy/DaisyExamples/libDaisy/src/per/sai.h ****         enum class BitDepth
  67:/Users/reza.kalfane/Workspaces/Daisy/DaisyExamples/libDaisy/src/per/sai.h ****         {
  68:/Users/reza.kalfane/Workspaces/Daisy/DaisyExamples/libDaisy/src/per/sai.h ****             SAI_16BIT,
  69:/Users/reza.kalfane/Workspaces/Daisy/DaisyExamples/libDaisy/src/per/sai.h ****             SAI_24BIT,
  70:/Users/reza.kalfane/Workspaces/Daisy/DaisyExamples/libDaisy/src/per/sai.h ****             SAI_32BIT,
  71:/Users/reza.kalfane/Workspaces/Daisy/DaisyExamples/libDaisy/src/per/sai.h ****         };
  72:/Users/reza.kalfane/Workspaces/Daisy/DaisyExamples/libDaisy/src/per/sai.h **** 
  73:/Users/reza.kalfane/Workspaces/Daisy/DaisyExamples/libDaisy/src/per/sai.h ****         /** Specifies whether a particular block is the master or the slave 
  74:/Users/reza.kalfane/Workspaces/Daisy/DaisyExamples/libDaisy/src/per/sai.h ****          ** If both are set to slave, no MCLK signal will be used, and it is
  75:/Users/reza.kalfane/Workspaces/Daisy/DaisyExamples/libDaisy/src/per/sai.h ****          ** expected that the codec will have its own xtal.
  76:/Users/reza.kalfane/Workspaces/Daisy/DaisyExamples/libDaisy/src/per/sai.h ****          */
  77:/Users/reza.kalfane/Workspaces/Daisy/DaisyExamples/libDaisy/src/per/sai.h ****         enum class Sync
  78:/Users/reza.kalfane/Workspaces/Daisy/DaisyExamples/libDaisy/src/per/sai.h ****         {
  79:/Users/reza.kalfane/Workspaces/Daisy/DaisyExamples/libDaisy/src/per/sai.h ****             MASTER,
  80:/Users/reza.kalfane/Workspaces/Daisy/DaisyExamples/libDaisy/src/per/sai.h ****             SLAVE,
  81:/Users/reza.kalfane/Workspaces/Daisy/DaisyExamples/libDaisy/src/per/sai.h ****         };
  82:/Users/reza.kalfane/Workspaces/Daisy/DaisyExamples/libDaisy/src/per/sai.h **** 
  83:/Users/reza.kalfane/Workspaces/Daisy/DaisyExamples/libDaisy/src/per/sai.h ****         /** Specifies the direction for each peripheral block. */
  84:/Users/reza.kalfane/Workspaces/Daisy/DaisyExamples/libDaisy/src/per/sai.h ****         enum class Direction
  85:/Users/reza.kalfane/Workspaces/Daisy/DaisyExamples/libDaisy/src/per/sai.h ****         {
  86:/Users/reza.kalfane/Workspaces/Daisy/DaisyExamples/libDaisy/src/per/sai.h ****             TRANSMIT,
  87:/Users/reza.kalfane/Workspaces/Daisy/DaisyExamples/libDaisy/src/per/sai.h ****             RECEIVE,
  88:/Users/reza.kalfane/Workspaces/Daisy/DaisyExamples/libDaisy/src/per/sai.h ****         };
  89:/Users/reza.kalfane/Workspaces/Daisy/DaisyExamples/libDaisy/src/per/sai.h **** 
  90:/Users/reza.kalfane/Workspaces/Daisy/DaisyExamples/libDaisy/src/per/sai.h ****         Peripheral periph;
  91:/Users/reza.kalfane/Workspaces/Daisy/DaisyExamples/libDaisy/src/per/sai.h ****         struct
  92:/Users/reza.kalfane/Workspaces/Daisy/DaisyExamples/libDaisy/src/per/sai.h ****         {
  93:/Users/reza.kalfane/Workspaces/Daisy/DaisyExamples/libDaisy/src/per/sai.h ****             dsy_gpio_pin mclk, fs, sck, sa, sb;
  94:/Users/reza.kalfane/Workspaces/Daisy/DaisyExamples/libDaisy/src/per/sai.h ****         } pin_config;
  95:/Users/reza.kalfane/Workspaces/Daisy/DaisyExamples/libDaisy/src/per/sai.h ****         SampleRate sr;
ARM GAS  /tmp/claude-502/ccb6uqMv.s 			page 249


  96:/Users/reza.kalfane/Workspaces/Daisy/DaisyExamples/libDaisy/src/per/sai.h ****         BitDepth   bit_depth;
  97:/Users/reza.kalfane/Workspaces/Daisy/DaisyExamples/libDaisy/src/per/sai.h ****         Sync       a_sync, b_sync;
  98:/Users/reza.kalfane/Workspaces/Daisy/DaisyExamples/libDaisy/src/per/sai.h ****         Direction  a_dir, b_dir;
  99:/Users/reza.kalfane/Workspaces/Daisy/DaisyExamples/libDaisy/src/per/sai.h ****     };
 100:/Users/reza.kalfane/Workspaces/Daisy/DaisyExamples/libDaisy/src/per/sai.h **** 
 101:/Users/reza.kalfane/Workspaces/Daisy/DaisyExamples/libDaisy/src/per/sai.h ****     /** Return values for SAI functions */
 102:/Users/reza.kalfane/Workspaces/Daisy/DaisyExamples/libDaisy/src/per/sai.h ****     enum class Result
 103:/Users/reza.kalfane/Workspaces/Daisy/DaisyExamples/libDaisy/src/per/sai.h ****     {
 104:/Users/reza.kalfane/Workspaces/Daisy/DaisyExamples/libDaisy/src/per/sai.h ****         OK,
 105:/Users/reza.kalfane/Workspaces/Daisy/DaisyExamples/libDaisy/src/per/sai.h ****         ERR,
 106:/Users/reza.kalfane/Workspaces/Daisy/DaisyExamples/libDaisy/src/per/sai.h ****     };
 107:/Users/reza.kalfane/Workspaces/Daisy/DaisyExamples/libDaisy/src/per/sai.h **** 
 108:/Users/reza.kalfane/Workspaces/Daisy/DaisyExamples/libDaisy/src/per/sai.h ****     SaiHandle() : pimpl_(nullptr) {}
 9518              		.loc 9 108 5 is_stmt 1 view .LVU2833
 9519              	.LBB1594:
 9520              	.LBB1595:
 9521              		.loc 9 108 33 is_stmt 0 view .LVU2834
 9522 0010 C463     		str	r4, [r0, #60]
 9523              	.LVL778:
 9524              		.loc 9 108 33 view .LVU2835
 9525              	.LBE1595:
 9526              	.LBE1594:
 9527              	.LBE1593:
 9528              	.LBE1597:
 9529              	.LBE1599:
 262:src/main.cpp  **** GPIO      sda, scl;
 9530              		.loc 6 262 11 view .LVU2836
 9531 0012 FFF7FEFF 		bl	__aeabi_atexit
 9532              	.LVL779:
 9533              	.LBB1600:
 9534              	.LBI1600:
 9535              		.file 10 "/Users/reza.kalfane/Workspaces/Daisy/DaisyExamples/libDaisy/src/per/gpio.h"
   1:/Users/reza.kalfane/Workspaces/Daisy/DaisyExamples/libDaisy/src/per/gpio.h **** #pragma once
   2:/Users/reza.kalfane/Workspaces/Daisy/DaisyExamples/libDaisy/src/per/gpio.h **** #ifndef DSY_GPIO_H
   3:/Users/reza.kalfane/Workspaces/Daisy/DaisyExamples/libDaisy/src/per/gpio.h **** #define DSY_GPIO_H
   4:/Users/reza.kalfane/Workspaces/Daisy/DaisyExamples/libDaisy/src/per/gpio.h **** #include "daisy_core.h"
   5:/Users/reza.kalfane/Workspaces/Daisy/DaisyExamples/libDaisy/src/per/gpio.h **** 
   6:/Users/reza.kalfane/Workspaces/Daisy/DaisyExamples/libDaisy/src/per/gpio.h **** #ifdef __cplusplus
   7:/Users/reza.kalfane/Workspaces/Daisy/DaisyExamples/libDaisy/src/per/gpio.h **** 
   8:/Users/reza.kalfane/Workspaces/Daisy/DaisyExamples/libDaisy/src/per/gpio.h **** namespace daisy
   9:/Users/reza.kalfane/Workspaces/Daisy/DaisyExamples/libDaisy/src/per/gpio.h **** {
  10:/Users/reza.kalfane/Workspaces/Daisy/DaisyExamples/libDaisy/src/per/gpio.h **** /** @brief General Purpose I/O control 
  11:/Users/reza.kalfane/Workspaces/Daisy/DaisyExamples/libDaisy/src/per/gpio.h ****  *  @details peripheral control over a single GPIO
  12:/Users/reza.kalfane/Workspaces/Daisy/DaisyExamples/libDaisy/src/per/gpio.h ****  *  @ingroup peripheral
  13:/Users/reza.kalfane/Workspaces/Daisy/DaisyExamples/libDaisy/src/per/gpio.h ****  *   
  14:/Users/reza.kalfane/Workspaces/Daisy/DaisyExamples/libDaisy/src/per/gpio.h ****  *  Button Input (with internal Pullup resistor)
  15:/Users/reza.kalfane/Workspaces/Daisy/DaisyExamples/libDaisy/src/per/gpio.h ****  *  @include GPIO_Input.cpp 
  16:/Users/reza.kalfane/Workspaces/Daisy/DaisyExamples/libDaisy/src/per/gpio.h ****  * 
  17:/Users/reza.kalfane/Workspaces/Daisy/DaisyExamples/libDaisy/src/per/gpio.h ****  *  Output Example (perfect for blinking an LED)
  18:/Users/reza.kalfane/Workspaces/Daisy/DaisyExamples/libDaisy/src/per/gpio.h ****  *  @include GPIO_Output.cpp
  19:/Users/reza.kalfane/Workspaces/Daisy/DaisyExamples/libDaisy/src/per/gpio.h ****  * 
  20:/Users/reza.kalfane/Workspaces/Daisy/DaisyExamples/libDaisy/src/per/gpio.h **** */
  21:/Users/reza.kalfane/Workspaces/Daisy/DaisyExamples/libDaisy/src/per/gpio.h **** class GPIO
  22:/Users/reza.kalfane/Workspaces/Daisy/DaisyExamples/libDaisy/src/per/gpio.h **** {
  23:/Users/reza.kalfane/Workspaces/Daisy/DaisyExamples/libDaisy/src/per/gpio.h ****   public:
  24:/Users/reza.kalfane/Workspaces/Daisy/DaisyExamples/libDaisy/src/per/gpio.h ****     /** @brief Mode of operation for the specified GPIO */
  25:/Users/reza.kalfane/Workspaces/Daisy/DaisyExamples/libDaisy/src/per/gpio.h ****     enum class Mode
ARM GAS  /tmp/claude-502/ccb6uqMv.s 			page 250


  26:/Users/reza.kalfane/Workspaces/Daisy/DaisyExamples/libDaisy/src/per/gpio.h ****     {
  27:/Users/reza.kalfane/Workspaces/Daisy/DaisyExamples/libDaisy/src/per/gpio.h ****         INPUT,     /**< Input for reading state of pin */
  28:/Users/reza.kalfane/Workspaces/Daisy/DaisyExamples/libDaisy/src/per/gpio.h ****         OUTPUT,    /**< Output w/ push-pull configuration */
  29:/Users/reza.kalfane/Workspaces/Daisy/DaisyExamples/libDaisy/src/per/gpio.h ****         OUTPUT_OD, /**< Output w/ open-drain configuration */
  30:/Users/reza.kalfane/Workspaces/Daisy/DaisyExamples/libDaisy/src/per/gpio.h ****         ANALOG,    /**< Analog for connection to ADC or DAC peripheral */
  31:/Users/reza.kalfane/Workspaces/Daisy/DaisyExamples/libDaisy/src/per/gpio.h ****     };
  32:/Users/reza.kalfane/Workspaces/Daisy/DaisyExamples/libDaisy/src/per/gpio.h **** 
  33:/Users/reza.kalfane/Workspaces/Daisy/DaisyExamples/libDaisy/src/per/gpio.h ****     /** @brief Configures whether an internal Pull up or Pull down resistor is used. 
  34:/Users/reza.kalfane/Workspaces/Daisy/DaisyExamples/libDaisy/src/per/gpio.h ****      *  
  35:/Users/reza.kalfane/Workspaces/Daisy/DaisyExamples/libDaisy/src/per/gpio.h ****      * Internal Pull up/down resistors are typically 40k ohms, and will be between
  36:/Users/reza.kalfane/Workspaces/Daisy/DaisyExamples/libDaisy/src/per/gpio.h ****      * 30k and 50k
  37:/Users/reza.kalfane/Workspaces/Daisy/DaisyExamples/libDaisy/src/per/gpio.h ****      * 
  38:/Users/reza.kalfane/Workspaces/Daisy/DaisyExamples/libDaisy/src/per/gpio.h ****      * When the Pin is configured in Analog mode, the pull up/down resistors are
  39:/Users/reza.kalfane/Workspaces/Daisy/DaisyExamples/libDaisy/src/per/gpio.h ****      * disabled by hardware. 
  40:/Users/reza.kalfane/Workspaces/Daisy/DaisyExamples/libDaisy/src/per/gpio.h ****      */
  41:/Users/reza.kalfane/Workspaces/Daisy/DaisyExamples/libDaisy/src/per/gpio.h ****     enum class Pull
  42:/Users/reza.kalfane/Workspaces/Daisy/DaisyExamples/libDaisy/src/per/gpio.h ****     {
  43:/Users/reza.kalfane/Workspaces/Daisy/DaisyExamples/libDaisy/src/per/gpio.h ****         NOPULL,   /**< No pull up resistor */
  44:/Users/reza.kalfane/Workspaces/Daisy/DaisyExamples/libDaisy/src/per/gpio.h ****         PULLUP,   /**< Internal pull up enabled */
  45:/Users/reza.kalfane/Workspaces/Daisy/DaisyExamples/libDaisy/src/per/gpio.h ****         PULLDOWN, /**< Internal pull down enabled*/
  46:/Users/reza.kalfane/Workspaces/Daisy/DaisyExamples/libDaisy/src/per/gpio.h ****     };
  47:/Users/reza.kalfane/Workspaces/Daisy/DaisyExamples/libDaisy/src/per/gpio.h **** 
  48:/Users/reza.kalfane/Workspaces/Daisy/DaisyExamples/libDaisy/src/per/gpio.h ****     /** @brief Output speed controls the drive strength, and slew rate of the pin */
  49:/Users/reza.kalfane/Workspaces/Daisy/DaisyExamples/libDaisy/src/per/gpio.h ****     enum class Speed
  50:/Users/reza.kalfane/Workspaces/Daisy/DaisyExamples/libDaisy/src/per/gpio.h ****     {
  51:/Users/reza.kalfane/Workspaces/Daisy/DaisyExamples/libDaisy/src/per/gpio.h ****         LOW,
  52:/Users/reza.kalfane/Workspaces/Daisy/DaisyExamples/libDaisy/src/per/gpio.h ****         MEDIUM,
  53:/Users/reza.kalfane/Workspaces/Daisy/DaisyExamples/libDaisy/src/per/gpio.h ****         HIGH,
  54:/Users/reza.kalfane/Workspaces/Daisy/DaisyExamples/libDaisy/src/per/gpio.h ****         VERY_HIGH,
  55:/Users/reza.kalfane/Workspaces/Daisy/DaisyExamples/libDaisy/src/per/gpio.h ****     };
  56:/Users/reza.kalfane/Workspaces/Daisy/DaisyExamples/libDaisy/src/per/gpio.h **** 
  57:/Users/reza.kalfane/Workspaces/Daisy/DaisyExamples/libDaisy/src/per/gpio.h ****     /** @brief Configuration for a given GPIO */
  58:/Users/reza.kalfane/Workspaces/Daisy/DaisyExamples/libDaisy/src/per/gpio.h ****     struct Config
  59:/Users/reza.kalfane/Workspaces/Daisy/DaisyExamples/libDaisy/src/per/gpio.h ****     {
  60:/Users/reza.kalfane/Workspaces/Daisy/DaisyExamples/libDaisy/src/per/gpio.h ****         Pin   pin;
  61:/Users/reza.kalfane/Workspaces/Daisy/DaisyExamples/libDaisy/src/per/gpio.h ****         Mode  mode;
  62:/Users/reza.kalfane/Workspaces/Daisy/DaisyExamples/libDaisy/src/per/gpio.h ****         Pull  pull;
  63:/Users/reza.kalfane/Workspaces/Daisy/DaisyExamples/libDaisy/src/per/gpio.h ****         Speed speed;
  64:/Users/reza.kalfane/Workspaces/Daisy/DaisyExamples/libDaisy/src/per/gpio.h **** 
  65:/Users/reza.kalfane/Workspaces/Daisy/DaisyExamples/libDaisy/src/per/gpio.h ****         /** Constructor with no arguments will prepare an invalid GPIO set as
  66:/Users/reza.kalfane/Workspaces/Daisy/DaisyExamples/libDaisy/src/per/gpio.h ****          *  an input, with no pullup. 
  67:/Users/reza.kalfane/Workspaces/Daisy/DaisyExamples/libDaisy/src/per/gpio.h ****          */
  68:/Users/reza.kalfane/Workspaces/Daisy/DaisyExamples/libDaisy/src/per/gpio.h ****         Config()
  69:/Users/reza.kalfane/Workspaces/Daisy/DaisyExamples/libDaisy/src/per/gpio.h ****         : pin(), mode(Mode::INPUT), pull(Pull::NOPULL), speed(Speed::LOW)
  70:/Users/reza.kalfane/Workspaces/Daisy/DaisyExamples/libDaisy/src/per/gpio.h ****         {
  71:/Users/reza.kalfane/Workspaces/Daisy/DaisyExamples/libDaisy/src/per/gpio.h ****         }
  72:/Users/reza.kalfane/Workspaces/Daisy/DaisyExamples/libDaisy/src/per/gpio.h ****     };
  73:/Users/reza.kalfane/Workspaces/Daisy/DaisyExamples/libDaisy/src/per/gpio.h **** 
  74:/Users/reza.kalfane/Workspaces/Daisy/DaisyExamples/libDaisy/src/per/gpio.h ****     GPIO() {}
 9536              		.loc 10 74 5 is_stmt 1 view .LVU2837
 9537              	.LBB1601:
 9538              	.LBB1602:
 9539              	.LBI1602:
  68:/Users/reza.kalfane/Workspaces/Daisy/DaisyExamples/libDaisy/src/per/gpio.h ****         : pin(), mode(Mode::INPUT), pull(Pull::NOPULL), speed(Speed::LOW)
 9540              		.loc 10 68 9 view .LVU2838
 9541              	.LBB1603:
 9542              	.LBB1604:
ARM GAS  /tmp/claude-502/ccb6uqMv.s 			page 251


 9543              	.LBB1605:
 9544              	.LBI1605:
 9545              		.file 11 "/Users/reza.kalfane/Workspaces/Daisy/DaisyExamples/libDaisy/src/daisy_core.h"
   1:/Users/reza.kalfane/Workspaces/Daisy/DaisyExamples/libDaisy/src/daisy_core.h **** #pragma once
   2:/Users/reza.kalfane/Workspaces/Daisy/DaisyExamples/libDaisy/src/daisy_core.h **** #ifndef DSY_CORE_HW_H
   3:/Users/reza.kalfane/Workspaces/Daisy/DaisyExamples/libDaisy/src/daisy_core.h **** #define DSY_CORE_HW_H /**< & */
   4:/Users/reza.kalfane/Workspaces/Daisy/DaisyExamples/libDaisy/src/daisy_core.h **** #include <stdint.h>
   5:/Users/reza.kalfane/Workspaces/Daisy/DaisyExamples/libDaisy/src/daisy_core.h **** #include <stdlib.h>
   6:/Users/reza.kalfane/Workspaces/Daisy/DaisyExamples/libDaisy/src/daisy_core.h **** 
   7:/Users/reza.kalfane/Workspaces/Daisy/DaisyExamples/libDaisy/src/daisy_core.h **** #if defined(_MSC_VER)
   8:/Users/reza.kalfane/Workspaces/Daisy/DaisyExamples/libDaisy/src/daisy_core.h **** #define FORCE_INLINE __forceinline /**< & */
   9:/Users/reza.kalfane/Workspaces/Daisy/DaisyExamples/libDaisy/src/daisy_core.h **** #elif defined(__clang__)
  10:/Users/reza.kalfane/Workspaces/Daisy/DaisyExamples/libDaisy/src/daisy_core.h **** #define FORCE_INLINE inline __attribute__((always_inline)) /**< & */
  11:/Users/reza.kalfane/Workspaces/Daisy/DaisyExamples/libDaisy/src/daisy_core.h **** #pragma clang diagnostic ignored "-Wduplicate-decl-specifier"
  12:/Users/reza.kalfane/Workspaces/Daisy/DaisyExamples/libDaisy/src/daisy_core.h **** #elif defined(__GNUC__)
  13:/Users/reza.kalfane/Workspaces/Daisy/DaisyExamples/libDaisy/src/daisy_core.h **** #define FORCE_INLINE inline __attribute__((always_inline)) /**< & */
  14:/Users/reza.kalfane/Workspaces/Daisy/DaisyExamples/libDaisy/src/daisy_core.h **** #else
  15:/Users/reza.kalfane/Workspaces/Daisy/DaisyExamples/libDaisy/src/daisy_core.h **** #error unknown compiler
  16:/Users/reza.kalfane/Workspaces/Daisy/DaisyExamples/libDaisy/src/daisy_core.h **** #endif
  17:/Users/reza.kalfane/Workspaces/Daisy/DaisyExamples/libDaisy/src/daisy_core.h **** 
  18:/Users/reza.kalfane/Workspaces/Daisy/DaisyExamples/libDaisy/src/daisy_core.h **** /** @addtogroup utility
  19:/Users/reza.kalfane/Workspaces/Daisy/DaisyExamples/libDaisy/src/daisy_core.h ****     @{
  20:/Users/reza.kalfane/Workspaces/Daisy/DaisyExamples/libDaisy/src/daisy_core.h **** */
  21:/Users/reza.kalfane/Workspaces/Daisy/DaisyExamples/libDaisy/src/daisy_core.h **** 
  22:/Users/reza.kalfane/Workspaces/Daisy/DaisyExamples/libDaisy/src/daisy_core.h **** /** Macro for area of memory that is configured as cacheless
  23:/Users/reza.kalfane/Workspaces/Daisy/DaisyExamples/libDaisy/src/daisy_core.h **** This should be used primarily for DMA buffers, and the like.
  24:/Users/reza.kalfane/Workspaces/Daisy/DaisyExamples/libDaisy/src/daisy_core.h **** */
  25:/Users/reza.kalfane/Workspaces/Daisy/DaisyExamples/libDaisy/src/daisy_core.h **** #define DMA_BUFFER_MEM_SECTION __attribute__((section(".sram1_bss")))
  26:/Users/reza.kalfane/Workspaces/Daisy/DaisyExamples/libDaisy/src/daisy_core.h **** /** 
  27:/Users/reza.kalfane/Workspaces/Daisy/DaisyExamples/libDaisy/src/daisy_core.h **** THE DTCM RAM section is also non-cached. However, is not suitable 
  28:/Users/reza.kalfane/Workspaces/Daisy/DaisyExamples/libDaisy/src/daisy_core.h **** for DMA transfers. Performance is on par with internal SRAM w/ 
  29:/Users/reza.kalfane/Workspaces/Daisy/DaisyExamples/libDaisy/src/daisy_core.h **** cache enabled.
  30:/Users/reza.kalfane/Workspaces/Daisy/DaisyExamples/libDaisy/src/daisy_core.h **** */
  31:/Users/reza.kalfane/Workspaces/Daisy/DaisyExamples/libDaisy/src/daisy_core.h **** #define DTCM_MEM_SECTION __attribute__((section(".dtcmram_bss")))
  32:/Users/reza.kalfane/Workspaces/Daisy/DaisyExamples/libDaisy/src/daisy_core.h **** 
  33:/Users/reza.kalfane/Workspaces/Daisy/DaisyExamples/libDaisy/src/daisy_core.h **** #define FBIPMAX 0.999985f             /**< close to 1.0f-LSB at 16 bit */
  34:/Users/reza.kalfane/Workspaces/Daisy/DaisyExamples/libDaisy/src/daisy_core.h **** #define FBIPMIN (-FBIPMAX)            /**< - (1 - LSB) */
  35:/Users/reza.kalfane/Workspaces/Daisy/DaisyExamples/libDaisy/src/daisy_core.h **** #define U82F_SCALE 0.0078740f         /**< 1 / 127 */
  36:/Users/reza.kalfane/Workspaces/Daisy/DaisyExamples/libDaisy/src/daisy_core.h **** #define F2U8_SCALE 127.0f             /**< 128 - 1 */
  37:/Users/reza.kalfane/Workspaces/Daisy/DaisyExamples/libDaisy/src/daisy_core.h **** #define S82F_SCALE 0.0078125f         /**< 1 / (2**7) */
  38:/Users/reza.kalfane/Workspaces/Daisy/DaisyExamples/libDaisy/src/daisy_core.h **** #define F2S8_SCALE 127.0f             /**< (2 ** 7) - 1 */
  39:/Users/reza.kalfane/Workspaces/Daisy/DaisyExamples/libDaisy/src/daisy_core.h **** #define S162F_SCALE 3.0517578125e-05f /**< 1 / (2** 15) */
  40:/Users/reza.kalfane/Workspaces/Daisy/DaisyExamples/libDaisy/src/daisy_core.h **** #define F2S16_SCALE 32767.0f          /**< (2 ** 15) - 1 */
  41:/Users/reza.kalfane/Workspaces/Daisy/DaisyExamples/libDaisy/src/daisy_core.h **** #define F2S24_SCALE 8388608.0f        /**< 2 ** 23 */
  42:/Users/reza.kalfane/Workspaces/Daisy/DaisyExamples/libDaisy/src/daisy_core.h **** #define S242F_SCALE 1.192092896e-07f  /**< 1 / (2 ** 23) */
  43:/Users/reza.kalfane/Workspaces/Daisy/DaisyExamples/libDaisy/src/daisy_core.h **** #define S24SIGN 0x800000              /**< 2 ** 23 */
  44:/Users/reza.kalfane/Workspaces/Daisy/DaisyExamples/libDaisy/src/daisy_core.h **** #define S322F_SCALE 4.6566129e-10f    /**< 1 / (2** 31) */
  45:/Users/reza.kalfane/Workspaces/Daisy/DaisyExamples/libDaisy/src/daisy_core.h **** #define F2S32_SCALE 2147483647.f      /**< (2 ** 31) - 1 */
  46:/Users/reza.kalfane/Workspaces/Daisy/DaisyExamples/libDaisy/src/daisy_core.h **** 
  47:/Users/reza.kalfane/Workspaces/Daisy/DaisyExamples/libDaisy/src/daisy_core.h **** 
  48:/Users/reza.kalfane/Workspaces/Daisy/DaisyExamples/libDaisy/src/daisy_core.h **** /** shorthand macro for simplifying the reading of the left 
  49:/Users/reza.kalfane/Workspaces/Daisy/DaisyExamples/libDaisy/src/daisy_core.h ****  *  channel of a non-interleaved output buffer named out */
  50:/Users/reza.kalfane/Workspaces/Daisy/DaisyExamples/libDaisy/src/daisy_core.h **** #define OUT_L out[0]
  51:/Users/reza.kalfane/Workspaces/Daisy/DaisyExamples/libDaisy/src/daisy_core.h **** 
  52:/Users/reza.kalfane/Workspaces/Daisy/DaisyExamples/libDaisy/src/daisy_core.h **** /** shorthand macro for simplifying the reading of the right 
  53:/Users/reza.kalfane/Workspaces/Daisy/DaisyExamples/libDaisy/src/daisy_core.h ****  *  channel of a non-interleaved output buffer named out */
  54:/Users/reza.kalfane/Workspaces/Daisy/DaisyExamples/libDaisy/src/daisy_core.h **** #define OUT_R out[1]
ARM GAS  /tmp/claude-502/ccb6uqMv.s 			page 252


  55:/Users/reza.kalfane/Workspaces/Daisy/DaisyExamples/libDaisy/src/daisy_core.h **** 
  56:/Users/reza.kalfane/Workspaces/Daisy/DaisyExamples/libDaisy/src/daisy_core.h **** /** shorthand macro for simplifying the reading of the left 
  57:/Users/reza.kalfane/Workspaces/Daisy/DaisyExamples/libDaisy/src/daisy_core.h ****  *  channel of a non-interleaved input buffer named in */
  58:/Users/reza.kalfane/Workspaces/Daisy/DaisyExamples/libDaisy/src/daisy_core.h **** #define IN_L in[0]
  59:/Users/reza.kalfane/Workspaces/Daisy/DaisyExamples/libDaisy/src/daisy_core.h **** 
  60:/Users/reza.kalfane/Workspaces/Daisy/DaisyExamples/libDaisy/src/daisy_core.h **** /** shorthand macro for simplifying the reading of the right 
  61:/Users/reza.kalfane/Workspaces/Daisy/DaisyExamples/libDaisy/src/daisy_core.h ****  *  channel of a non-interleaved input buffer named in */
  62:/Users/reza.kalfane/Workspaces/Daisy/DaisyExamples/libDaisy/src/daisy_core.h **** #define IN_R in[1]
  63:/Users/reza.kalfane/Workspaces/Daisy/DaisyExamples/libDaisy/src/daisy_core.h **** 
  64:/Users/reza.kalfane/Workspaces/Daisy/DaisyExamples/libDaisy/src/daisy_core.h **** /** 
  65:/Users/reza.kalfane/Workspaces/Daisy/DaisyExamples/libDaisy/src/daisy_core.h ****     Computes cube.
  66:/Users/reza.kalfane/Workspaces/Daisy/DaisyExamples/libDaisy/src/daisy_core.h ****     \param x Number to be cubed
  67:/Users/reza.kalfane/Workspaces/Daisy/DaisyExamples/libDaisy/src/daisy_core.h ****     \return x ^ 3
  68:/Users/reza.kalfane/Workspaces/Daisy/DaisyExamples/libDaisy/src/daisy_core.h **** */
  69:/Users/reza.kalfane/Workspaces/Daisy/DaisyExamples/libDaisy/src/daisy_core.h **** FORCE_INLINE float cube(float x)
  70:/Users/reza.kalfane/Workspaces/Daisy/DaisyExamples/libDaisy/src/daisy_core.h **** {
  71:/Users/reza.kalfane/Workspaces/Daisy/DaisyExamples/libDaisy/src/daisy_core.h ****     return (x * x) * x;
  72:/Users/reza.kalfane/Workspaces/Daisy/DaisyExamples/libDaisy/src/daisy_core.h **** }
  73:/Users/reza.kalfane/Workspaces/Daisy/DaisyExamples/libDaisy/src/daisy_core.h **** 
  74:/Users/reza.kalfane/Workspaces/Daisy/DaisyExamples/libDaisy/src/daisy_core.h **** /** 
  75:/Users/reza.kalfane/Workspaces/Daisy/DaisyExamples/libDaisy/src/daisy_core.h ****     Converts unsigned 8-bit to float
  76:/Users/reza.kalfane/Workspaces/Daisy/DaisyExamples/libDaisy/src/daisy_core.h ****     \param x Number to be scaled.
  77:/Users/reza.kalfane/Workspaces/Daisy/DaisyExamples/libDaisy/src/daisy_core.h ****     \return Scaled number.
  78:/Users/reza.kalfane/Workspaces/Daisy/DaisyExamples/libDaisy/src/daisy_core.h **** */
  79:/Users/reza.kalfane/Workspaces/Daisy/DaisyExamples/libDaisy/src/daisy_core.h **** FORCE_INLINE float u82f(uint8_t x)
  80:/Users/reza.kalfane/Workspaces/Daisy/DaisyExamples/libDaisy/src/daisy_core.h **** {
  81:/Users/reza.kalfane/Workspaces/Daisy/DaisyExamples/libDaisy/src/daisy_core.h ****     return ((float)x - 127.f) * U82F_SCALE;
  82:/Users/reza.kalfane/Workspaces/Daisy/DaisyExamples/libDaisy/src/daisy_core.h **** }
  83:/Users/reza.kalfane/Workspaces/Daisy/DaisyExamples/libDaisy/src/daisy_core.h **** 
  84:/Users/reza.kalfane/Workspaces/Daisy/DaisyExamples/libDaisy/src/daisy_core.h **** /**
  85:/Users/reza.kalfane/Workspaces/Daisy/DaisyExamples/libDaisy/src/daisy_core.h ****     Converts float to unsigned 8-bit
  86:/Users/reza.kalfane/Workspaces/Daisy/DaisyExamples/libDaisy/src/daisy_core.h **** */
  87:/Users/reza.kalfane/Workspaces/Daisy/DaisyExamples/libDaisy/src/daisy_core.h **** FORCE_INLINE uint8_t f2u8(float x)
  88:/Users/reza.kalfane/Workspaces/Daisy/DaisyExamples/libDaisy/src/daisy_core.h **** {
  89:/Users/reza.kalfane/Workspaces/Daisy/DaisyExamples/libDaisy/src/daisy_core.h ****     x = x <= FBIPMIN ? FBIPMIN : x;
  90:/Users/reza.kalfane/Workspaces/Daisy/DaisyExamples/libDaisy/src/daisy_core.h ****     x = x >= FBIPMAX ? FBIPMAX : x;
  91:/Users/reza.kalfane/Workspaces/Daisy/DaisyExamples/libDaisy/src/daisy_core.h ****     return (uint8_t)((x * F2U8_SCALE) + F2U8_SCALE);
  92:/Users/reza.kalfane/Workspaces/Daisy/DaisyExamples/libDaisy/src/daisy_core.h **** }
  93:/Users/reza.kalfane/Workspaces/Daisy/DaisyExamples/libDaisy/src/daisy_core.h **** 
  94:/Users/reza.kalfane/Workspaces/Daisy/DaisyExamples/libDaisy/src/daisy_core.h **** 
  95:/Users/reza.kalfane/Workspaces/Daisy/DaisyExamples/libDaisy/src/daisy_core.h **** /** 
  96:/Users/reza.kalfane/Workspaces/Daisy/DaisyExamples/libDaisy/src/daisy_core.h ****     Converts Signed 8-bit to float
  97:/Users/reza.kalfane/Workspaces/Daisy/DaisyExamples/libDaisy/src/daisy_core.h ****     \param x Number to be scaled.
  98:/Users/reza.kalfane/Workspaces/Daisy/DaisyExamples/libDaisy/src/daisy_core.h ****     \return Scaled number.
  99:/Users/reza.kalfane/Workspaces/Daisy/DaisyExamples/libDaisy/src/daisy_core.h **** */
 100:/Users/reza.kalfane/Workspaces/Daisy/DaisyExamples/libDaisy/src/daisy_core.h **** FORCE_INLINE float s82f(int8_t x)
 101:/Users/reza.kalfane/Workspaces/Daisy/DaisyExamples/libDaisy/src/daisy_core.h **** {
 102:/Users/reza.kalfane/Workspaces/Daisy/DaisyExamples/libDaisy/src/daisy_core.h ****     return (float)x * S82F_SCALE;
 103:/Users/reza.kalfane/Workspaces/Daisy/DaisyExamples/libDaisy/src/daisy_core.h **** }
 104:/Users/reza.kalfane/Workspaces/Daisy/DaisyExamples/libDaisy/src/daisy_core.h **** 
 105:/Users/reza.kalfane/Workspaces/Daisy/DaisyExamples/libDaisy/src/daisy_core.h **** /**
 106:/Users/reza.kalfane/Workspaces/Daisy/DaisyExamples/libDaisy/src/daisy_core.h ****     Converts float to Signed 8-bit
 107:/Users/reza.kalfane/Workspaces/Daisy/DaisyExamples/libDaisy/src/daisy_core.h **** */
 108:/Users/reza.kalfane/Workspaces/Daisy/DaisyExamples/libDaisy/src/daisy_core.h **** FORCE_INLINE int8_t f2s8(float x)
 109:/Users/reza.kalfane/Workspaces/Daisy/DaisyExamples/libDaisy/src/daisy_core.h **** {
 110:/Users/reza.kalfane/Workspaces/Daisy/DaisyExamples/libDaisy/src/daisy_core.h ****     x = x <= FBIPMIN ? FBIPMIN : x;
 111:/Users/reza.kalfane/Workspaces/Daisy/DaisyExamples/libDaisy/src/daisy_core.h ****     x = x >= FBIPMAX ? FBIPMAX : x;
ARM GAS  /tmp/claude-502/ccb6uqMv.s 			page 253


 112:/Users/reza.kalfane/Workspaces/Daisy/DaisyExamples/libDaisy/src/daisy_core.h ****     return (int32_t)(x * F2S8_SCALE);
 113:/Users/reza.kalfane/Workspaces/Daisy/DaisyExamples/libDaisy/src/daisy_core.h **** }
 114:/Users/reza.kalfane/Workspaces/Daisy/DaisyExamples/libDaisy/src/daisy_core.h **** 
 115:/Users/reza.kalfane/Workspaces/Daisy/DaisyExamples/libDaisy/src/daisy_core.h **** /** 
 116:/Users/reza.kalfane/Workspaces/Daisy/DaisyExamples/libDaisy/src/daisy_core.h ****     Converts Signed 16-bit to float
 117:/Users/reza.kalfane/Workspaces/Daisy/DaisyExamples/libDaisy/src/daisy_core.h ****     \param x Number to be scaled.
 118:/Users/reza.kalfane/Workspaces/Daisy/DaisyExamples/libDaisy/src/daisy_core.h ****     \return Scaled number.
 119:/Users/reza.kalfane/Workspaces/Daisy/DaisyExamples/libDaisy/src/daisy_core.h **** */
 120:/Users/reza.kalfane/Workspaces/Daisy/DaisyExamples/libDaisy/src/daisy_core.h **** FORCE_INLINE float s162f(int16_t x)
 121:/Users/reza.kalfane/Workspaces/Daisy/DaisyExamples/libDaisy/src/daisy_core.h **** {
 122:/Users/reza.kalfane/Workspaces/Daisy/DaisyExamples/libDaisy/src/daisy_core.h ****     return (float)x * S162F_SCALE;
 123:/Users/reza.kalfane/Workspaces/Daisy/DaisyExamples/libDaisy/src/daisy_core.h **** }
 124:/Users/reza.kalfane/Workspaces/Daisy/DaisyExamples/libDaisy/src/daisy_core.h **** 
 125:/Users/reza.kalfane/Workspaces/Daisy/DaisyExamples/libDaisy/src/daisy_core.h **** /**
 126:/Users/reza.kalfane/Workspaces/Daisy/DaisyExamples/libDaisy/src/daisy_core.h ****     Converts float to Signed 16-bit
 127:/Users/reza.kalfane/Workspaces/Daisy/DaisyExamples/libDaisy/src/daisy_core.h **** */
 128:/Users/reza.kalfane/Workspaces/Daisy/DaisyExamples/libDaisy/src/daisy_core.h **** FORCE_INLINE int16_t f2s16(float x)
 129:/Users/reza.kalfane/Workspaces/Daisy/DaisyExamples/libDaisy/src/daisy_core.h **** {
 130:/Users/reza.kalfane/Workspaces/Daisy/DaisyExamples/libDaisy/src/daisy_core.h ****     x = x <= FBIPMIN ? FBIPMIN : x;
 131:/Users/reza.kalfane/Workspaces/Daisy/DaisyExamples/libDaisy/src/daisy_core.h ****     x = x >= FBIPMAX ? FBIPMAX : x;
 132:/Users/reza.kalfane/Workspaces/Daisy/DaisyExamples/libDaisy/src/daisy_core.h ****     return (int32_t)(x * F2S16_SCALE);
 133:/Users/reza.kalfane/Workspaces/Daisy/DaisyExamples/libDaisy/src/daisy_core.h **** }
 134:/Users/reza.kalfane/Workspaces/Daisy/DaisyExamples/libDaisy/src/daisy_core.h **** 
 135:/Users/reza.kalfane/Workspaces/Daisy/DaisyExamples/libDaisy/src/daisy_core.h **** /**
 136:/Users/reza.kalfane/Workspaces/Daisy/DaisyExamples/libDaisy/src/daisy_core.h ****     Converts Signed 24-bit to float
 137:/Users/reza.kalfane/Workspaces/Daisy/DaisyExamples/libDaisy/src/daisy_core.h ****  */
 138:/Users/reza.kalfane/Workspaces/Daisy/DaisyExamples/libDaisy/src/daisy_core.h **** FORCE_INLINE float s242f(int32_t x)
 139:/Users/reza.kalfane/Workspaces/Daisy/DaisyExamples/libDaisy/src/daisy_core.h **** {
 140:/Users/reza.kalfane/Workspaces/Daisy/DaisyExamples/libDaisy/src/daisy_core.h ****     x = (x ^ S24SIGN) - S24SIGN; //sign extend aka ((x<<8)>>8)
 141:/Users/reza.kalfane/Workspaces/Daisy/DaisyExamples/libDaisy/src/daisy_core.h ****     return (float)x * S242F_SCALE;
 142:/Users/reza.kalfane/Workspaces/Daisy/DaisyExamples/libDaisy/src/daisy_core.h **** }
 143:/Users/reza.kalfane/Workspaces/Daisy/DaisyExamples/libDaisy/src/daisy_core.h **** /**
 144:/Users/reza.kalfane/Workspaces/Daisy/DaisyExamples/libDaisy/src/daisy_core.h ****     Converts float to Signed 24-bit
 145:/Users/reza.kalfane/Workspaces/Daisy/DaisyExamples/libDaisy/src/daisy_core.h ****  */
 146:/Users/reza.kalfane/Workspaces/Daisy/DaisyExamples/libDaisy/src/daisy_core.h **** FORCE_INLINE int32_t f2s24(float x)
 147:/Users/reza.kalfane/Workspaces/Daisy/DaisyExamples/libDaisy/src/daisy_core.h **** {
 148:/Users/reza.kalfane/Workspaces/Daisy/DaisyExamples/libDaisy/src/daisy_core.h ****     x = x <= FBIPMIN ? FBIPMIN : x;
 149:/Users/reza.kalfane/Workspaces/Daisy/DaisyExamples/libDaisy/src/daisy_core.h ****     x = x >= FBIPMAX ? FBIPMAX : x;
 150:/Users/reza.kalfane/Workspaces/Daisy/DaisyExamples/libDaisy/src/daisy_core.h ****     return (int32_t)(x * F2S24_SCALE);
 151:/Users/reza.kalfane/Workspaces/Daisy/DaisyExamples/libDaisy/src/daisy_core.h **** }
 152:/Users/reza.kalfane/Workspaces/Daisy/DaisyExamples/libDaisy/src/daisy_core.h **** 
 153:/Users/reza.kalfane/Workspaces/Daisy/DaisyExamples/libDaisy/src/daisy_core.h **** /**
 154:/Users/reza.kalfane/Workspaces/Daisy/DaisyExamples/libDaisy/src/daisy_core.h ****     Converts Signed 32-bit to float
 155:/Users/reza.kalfane/Workspaces/Daisy/DaisyExamples/libDaisy/src/daisy_core.h ****  */
 156:/Users/reza.kalfane/Workspaces/Daisy/DaisyExamples/libDaisy/src/daisy_core.h **** FORCE_INLINE float s322f(int32_t x)
 157:/Users/reza.kalfane/Workspaces/Daisy/DaisyExamples/libDaisy/src/daisy_core.h **** {
 158:/Users/reza.kalfane/Workspaces/Daisy/DaisyExamples/libDaisy/src/daisy_core.h ****     return (float)x * S322F_SCALE;
 159:/Users/reza.kalfane/Workspaces/Daisy/DaisyExamples/libDaisy/src/daisy_core.h **** }
 160:/Users/reza.kalfane/Workspaces/Daisy/DaisyExamples/libDaisy/src/daisy_core.h **** /**
 161:/Users/reza.kalfane/Workspaces/Daisy/DaisyExamples/libDaisy/src/daisy_core.h ****     Converts float to Signed 24-bit
 162:/Users/reza.kalfane/Workspaces/Daisy/DaisyExamples/libDaisy/src/daisy_core.h ****  */
 163:/Users/reza.kalfane/Workspaces/Daisy/DaisyExamples/libDaisy/src/daisy_core.h **** FORCE_INLINE int32_t f2s32(float x)
 164:/Users/reza.kalfane/Workspaces/Daisy/DaisyExamples/libDaisy/src/daisy_core.h **** {
 165:/Users/reza.kalfane/Workspaces/Daisy/DaisyExamples/libDaisy/src/daisy_core.h ****     x = x <= FBIPMIN ? FBIPMIN : x;
 166:/Users/reza.kalfane/Workspaces/Daisy/DaisyExamples/libDaisy/src/daisy_core.h ****     x = x >= FBIPMAX ? FBIPMAX : x;
 167:/Users/reza.kalfane/Workspaces/Daisy/DaisyExamples/libDaisy/src/daisy_core.h ****     return (int32_t)(x * F2S32_SCALE);
 168:/Users/reza.kalfane/Workspaces/Daisy/DaisyExamples/libDaisy/src/daisy_core.h **** }
ARM GAS  /tmp/claude-502/ccb6uqMv.s 			page 254


 169:/Users/reza.kalfane/Workspaces/Daisy/DaisyExamples/libDaisy/src/daisy_core.h **** 
 170:/Users/reza.kalfane/Workspaces/Daisy/DaisyExamples/libDaisy/src/daisy_core.h **** 
 171:/Users/reza.kalfane/Workspaces/Daisy/DaisyExamples/libDaisy/src/daisy_core.h **** /** Enums and a simple struct for defining a hardware pin on the MCU
 172:/Users/reza.kalfane/Workspaces/Daisy/DaisyExamples/libDaisy/src/daisy_core.h ****  *  These correlate with the stm32 datasheet, and are used to configure
 173:/Users/reza.kalfane/Workspaces/Daisy/DaisyExamples/libDaisy/src/daisy_core.h ****  *  the hardware.
 174:/Users/reza.kalfane/Workspaces/Daisy/DaisyExamples/libDaisy/src/daisy_core.h ****  * 
 175:/Users/reza.kalfane/Workspaces/Daisy/DaisyExamples/libDaisy/src/daisy_core.h ****  *  This along with the dsy_gpio_pin class should no longer be used.
 176:/Users/reza.kalfane/Workspaces/Daisy/DaisyExamples/libDaisy/src/daisy_core.h ****  *  They are available for backwards compatability. 
 177:/Users/reza.kalfane/Workspaces/Daisy/DaisyExamples/libDaisy/src/daisy_core.h ****  * 
 178:/Users/reza.kalfane/Workspaces/Daisy/DaisyExamples/libDaisy/src/daisy_core.h ****  *  Please use GPIOPort enum and the Pin struct instead.
 179:/Users/reza.kalfane/Workspaces/Daisy/DaisyExamples/libDaisy/src/daisy_core.h ****  */
 180:/Users/reza.kalfane/Workspaces/Daisy/DaisyExamples/libDaisy/src/daisy_core.h **** typedef enum
 181:/Users/reza.kalfane/Workspaces/Daisy/DaisyExamples/libDaisy/src/daisy_core.h **** {
 182:/Users/reza.kalfane/Workspaces/Daisy/DaisyExamples/libDaisy/src/daisy_core.h ****     DSY_GPIOA, /**< & */
 183:/Users/reza.kalfane/Workspaces/Daisy/DaisyExamples/libDaisy/src/daisy_core.h ****     DSY_GPIOB, /**< & */
 184:/Users/reza.kalfane/Workspaces/Daisy/DaisyExamples/libDaisy/src/daisy_core.h ****     DSY_GPIOC, /**< & */
 185:/Users/reza.kalfane/Workspaces/Daisy/DaisyExamples/libDaisy/src/daisy_core.h ****     DSY_GPIOD, /**< & */
 186:/Users/reza.kalfane/Workspaces/Daisy/DaisyExamples/libDaisy/src/daisy_core.h ****     DSY_GPIOE, /**< & */
 187:/Users/reza.kalfane/Workspaces/Daisy/DaisyExamples/libDaisy/src/daisy_core.h ****     DSY_GPIOF, /**< & */
 188:/Users/reza.kalfane/Workspaces/Daisy/DaisyExamples/libDaisy/src/daisy_core.h ****     DSY_GPIOG, /**< & */
 189:/Users/reza.kalfane/Workspaces/Daisy/DaisyExamples/libDaisy/src/daisy_core.h ****     DSY_GPIOH, /**< & */
 190:/Users/reza.kalfane/Workspaces/Daisy/DaisyExamples/libDaisy/src/daisy_core.h ****     DSY_GPIOI, /**< & */
 191:/Users/reza.kalfane/Workspaces/Daisy/DaisyExamples/libDaisy/src/daisy_core.h ****     DSY_GPIOJ, /**< & */
 192:/Users/reza.kalfane/Workspaces/Daisy/DaisyExamples/libDaisy/src/daisy_core.h ****     DSY_GPIOK, /**< & */
 193:/Users/reza.kalfane/Workspaces/Daisy/DaisyExamples/libDaisy/src/daisy_core.h ****     DSY_GPIOX, /** This is a non-existant port for unsupported bits of hardware. */
 194:/Users/reza.kalfane/Workspaces/Daisy/DaisyExamples/libDaisy/src/daisy_core.h ****     DSY_GPIO_LAST, /** Final enum member */
 195:/Users/reza.kalfane/Workspaces/Daisy/DaisyExamples/libDaisy/src/daisy_core.h **** } dsy_gpio_port;
 196:/Users/reza.kalfane/Workspaces/Daisy/DaisyExamples/libDaisy/src/daisy_core.h **** 
 197:/Users/reza.kalfane/Workspaces/Daisy/DaisyExamples/libDaisy/src/daisy_core.h **** /** Hardware define pins 
 198:/Users/reza.kalfane/Workspaces/Daisy/DaisyExamples/libDaisy/src/daisy_core.h ****  *  
 199:/Users/reza.kalfane/Workspaces/Daisy/DaisyExamples/libDaisy/src/daisy_core.h ****  *  The dsy_gpio_pin struct should no longer be used, and is only available for
 200:/Users/reza.kalfane/Workspaces/Daisy/DaisyExamples/libDaisy/src/daisy_core.h ****  *  backwards compatability.
 201:/Users/reza.kalfane/Workspaces/Daisy/DaisyExamples/libDaisy/src/daisy_core.h ****  * 
 202:/Users/reza.kalfane/Workspaces/Daisy/DaisyExamples/libDaisy/src/daisy_core.h ****  *  Please use Pin struct instead.
 203:/Users/reza.kalfane/Workspaces/Daisy/DaisyExamples/libDaisy/src/daisy_core.h ****  */
 204:/Users/reza.kalfane/Workspaces/Daisy/DaisyExamples/libDaisy/src/daisy_core.h **** typedef struct
 205:/Users/reza.kalfane/Workspaces/Daisy/DaisyExamples/libDaisy/src/daisy_core.h **** {
 206:/Users/reza.kalfane/Workspaces/Daisy/DaisyExamples/libDaisy/src/daisy_core.h ****     dsy_gpio_port port; /**< & */
 207:/Users/reza.kalfane/Workspaces/Daisy/DaisyExamples/libDaisy/src/daisy_core.h ****     uint8_t       pin;  /**< number 0-15 */
 208:/Users/reza.kalfane/Workspaces/Daisy/DaisyExamples/libDaisy/src/daisy_core.h **** } dsy_gpio_pin;
 209:/Users/reza.kalfane/Workspaces/Daisy/DaisyExamples/libDaisy/src/daisy_core.h **** 
 210:/Users/reza.kalfane/Workspaces/Daisy/DaisyExamples/libDaisy/src/daisy_core.h **** /** Helper for creating pins from port/pin combos easily
 211:/Users/reza.kalfane/Workspaces/Daisy/DaisyExamples/libDaisy/src/daisy_core.h ****  * 
 212:/Users/reza.kalfane/Workspaces/Daisy/DaisyExamples/libDaisy/src/daisy_core.h ****  *  The dsy_gpio_pin struct should no longer be used, and is only available for
 213:/Users/reza.kalfane/Workspaces/Daisy/DaisyExamples/libDaisy/src/daisy_core.h ****  *  backwards compatability.
 214:/Users/reza.kalfane/Workspaces/Daisy/DaisyExamples/libDaisy/src/daisy_core.h ****  * 
 215:/Users/reza.kalfane/Workspaces/Daisy/DaisyExamples/libDaisy/src/daisy_core.h ****  *  Please use Pin struct instead.
 216:/Users/reza.kalfane/Workspaces/Daisy/DaisyExamples/libDaisy/src/daisy_core.h **** */
 217:/Users/reza.kalfane/Workspaces/Daisy/DaisyExamples/libDaisy/src/daisy_core.h **** FORCE_INLINE dsy_gpio_pin dsy_pin(dsy_gpio_port port, uint8_t pin)
 218:/Users/reza.kalfane/Workspaces/Daisy/DaisyExamples/libDaisy/src/daisy_core.h **** {
 219:/Users/reza.kalfane/Workspaces/Daisy/DaisyExamples/libDaisy/src/daisy_core.h ****     dsy_gpio_pin p;
 220:/Users/reza.kalfane/Workspaces/Daisy/DaisyExamples/libDaisy/src/daisy_core.h ****     p.port = port;
 221:/Users/reza.kalfane/Workspaces/Daisy/DaisyExamples/libDaisy/src/daisy_core.h ****     p.pin  = pin;
 222:/Users/reza.kalfane/Workspaces/Daisy/DaisyExamples/libDaisy/src/daisy_core.h ****     return p;
 223:/Users/reza.kalfane/Workspaces/Daisy/DaisyExamples/libDaisy/src/daisy_core.h **** }
 224:/Users/reza.kalfane/Workspaces/Daisy/DaisyExamples/libDaisy/src/daisy_core.h **** 
 225:/Users/reza.kalfane/Workspaces/Daisy/DaisyExamples/libDaisy/src/daisy_core.h **** /** Helper for testing sameness of two dsy_gpio_pins
ARM GAS  /tmp/claude-502/ccb6uqMv.s 			page 255


 226:/Users/reza.kalfane/Workspaces/Daisy/DaisyExamples/libDaisy/src/daisy_core.h ****  *  \return    1 if same, 0 if different
 227:/Users/reza.kalfane/Workspaces/Daisy/DaisyExamples/libDaisy/src/daisy_core.h ****  * 
 228:/Users/reza.kalfane/Workspaces/Daisy/DaisyExamples/libDaisy/src/daisy_core.h ****  *  The dsy_gpio_pin struct should no longer be used, and is only available for
 229:/Users/reza.kalfane/Workspaces/Daisy/DaisyExamples/libDaisy/src/daisy_core.h ****  *  backwards compatability.
 230:/Users/reza.kalfane/Workspaces/Daisy/DaisyExamples/libDaisy/src/daisy_core.h ****  * 
 231:/Users/reza.kalfane/Workspaces/Daisy/DaisyExamples/libDaisy/src/daisy_core.h ****  *  Please use Pin struct instead.
 232:/Users/reza.kalfane/Workspaces/Daisy/DaisyExamples/libDaisy/src/daisy_core.h ****  */
 233:/Users/reza.kalfane/Workspaces/Daisy/DaisyExamples/libDaisy/src/daisy_core.h **** FORCE_INLINE uint8_t dsy_pin_cmp(dsy_gpio_pin *a, dsy_gpio_pin *b)
 234:/Users/reza.kalfane/Workspaces/Daisy/DaisyExamples/libDaisy/src/daisy_core.h **** {
 235:/Users/reza.kalfane/Workspaces/Daisy/DaisyExamples/libDaisy/src/daisy_core.h ****     return ((a->port == b->port) && (a->pin == b->pin));
 236:/Users/reza.kalfane/Workspaces/Daisy/DaisyExamples/libDaisy/src/daisy_core.h **** }
 237:/Users/reza.kalfane/Workspaces/Daisy/DaisyExamples/libDaisy/src/daisy_core.h **** 
 238:/Users/reza.kalfane/Workspaces/Daisy/DaisyExamples/libDaisy/src/daisy_core.h **** #ifdef __cplusplus
 239:/Users/reza.kalfane/Workspaces/Daisy/DaisyExamples/libDaisy/src/daisy_core.h **** 
 240:/Users/reza.kalfane/Workspaces/Daisy/DaisyExamples/libDaisy/src/daisy_core.h **** namespace daisy
 241:/Users/reza.kalfane/Workspaces/Daisy/DaisyExamples/libDaisy/src/daisy_core.h **** {
 242:/Users/reza.kalfane/Workspaces/Daisy/DaisyExamples/libDaisy/src/daisy_core.h **** /** @brief GPIO Port names */
 243:/Users/reza.kalfane/Workspaces/Daisy/DaisyExamples/libDaisy/src/daisy_core.h **** enum GPIOPort
 244:/Users/reza.kalfane/Workspaces/Daisy/DaisyExamples/libDaisy/src/daisy_core.h **** {
 245:/Users/reza.kalfane/Workspaces/Daisy/DaisyExamples/libDaisy/src/daisy_core.h ****     PORTA, /**< Port A */
 246:/Users/reza.kalfane/Workspaces/Daisy/DaisyExamples/libDaisy/src/daisy_core.h ****     PORTB, /**< Port B */
 247:/Users/reza.kalfane/Workspaces/Daisy/DaisyExamples/libDaisy/src/daisy_core.h ****     PORTC, /**< Port C */
 248:/Users/reza.kalfane/Workspaces/Daisy/DaisyExamples/libDaisy/src/daisy_core.h ****     PORTD, /**< Port D */
 249:/Users/reza.kalfane/Workspaces/Daisy/DaisyExamples/libDaisy/src/daisy_core.h ****     PORTE, /**< Port E */
 250:/Users/reza.kalfane/Workspaces/Daisy/DaisyExamples/libDaisy/src/daisy_core.h ****     PORTF, /**< Port F */
 251:/Users/reza.kalfane/Workspaces/Daisy/DaisyExamples/libDaisy/src/daisy_core.h ****     PORTG, /**< Port G */
 252:/Users/reza.kalfane/Workspaces/Daisy/DaisyExamples/libDaisy/src/daisy_core.h ****     PORTH, /**< Port H */
 253:/Users/reza.kalfane/Workspaces/Daisy/DaisyExamples/libDaisy/src/daisy_core.h ****     PORTI, /**< Port I */
 254:/Users/reza.kalfane/Workspaces/Daisy/DaisyExamples/libDaisy/src/daisy_core.h ****     PORTJ, /**< Port J */
 255:/Users/reza.kalfane/Workspaces/Daisy/DaisyExamples/libDaisy/src/daisy_core.h ****     PORTK, /**< Port K */
 256:/Users/reza.kalfane/Workspaces/Daisy/DaisyExamples/libDaisy/src/daisy_core.h ****     PORTX, /**< Used as a dummy port to signal an invalid pin. */
 257:/Users/reza.kalfane/Workspaces/Daisy/DaisyExamples/libDaisy/src/daisy_core.h **** };
 258:/Users/reza.kalfane/Workspaces/Daisy/DaisyExamples/libDaisy/src/daisy_core.h **** 
 259:/Users/reza.kalfane/Workspaces/Daisy/DaisyExamples/libDaisy/src/daisy_core.h **** /** @brief representation of hardware port/pin combination */
 260:/Users/reza.kalfane/Workspaces/Daisy/DaisyExamples/libDaisy/src/daisy_core.h **** struct Pin
 261:/Users/reza.kalfane/Workspaces/Daisy/DaisyExamples/libDaisy/src/daisy_core.h **** {
 262:/Users/reza.kalfane/Workspaces/Daisy/DaisyExamples/libDaisy/src/daisy_core.h ****     GPIOPort port;
 263:/Users/reza.kalfane/Workspaces/Daisy/DaisyExamples/libDaisy/src/daisy_core.h ****     uint8_t  pin;
 264:/Users/reza.kalfane/Workspaces/Daisy/DaisyExamples/libDaisy/src/daisy_core.h **** 
 265:/Users/reza.kalfane/Workspaces/Daisy/DaisyExamples/libDaisy/src/daisy_core.h ****     /** @brief Constructor creates a valid pin. 
 266:/Users/reza.kalfane/Workspaces/Daisy/DaisyExamples/libDaisy/src/daisy_core.h ****      *  @param pt GPIOPort between PA, and PK corresponding to STM32 Port.
 267:/Users/reza.kalfane/Workspaces/Daisy/DaisyExamples/libDaisy/src/daisy_core.h ****      *  @param pn pin number in range of 0-15
 268:/Users/reza.kalfane/Workspaces/Daisy/DaisyExamples/libDaisy/src/daisy_core.h ****     */
 269:/Users/reza.kalfane/Workspaces/Daisy/DaisyExamples/libDaisy/src/daisy_core.h ****     constexpr Pin(const GPIOPort pt, const uint8_t pn) : port(pt), pin(pn) {}
 270:/Users/reza.kalfane/Workspaces/Daisy/DaisyExamples/libDaisy/src/daisy_core.h **** 
 271:/Users/reza.kalfane/Workspaces/Daisy/DaisyExamples/libDaisy/src/daisy_core.h ****     /** @brief Basic Constructor creates an invalid Pin object */
 272:/Users/reza.kalfane/Workspaces/Daisy/DaisyExamples/libDaisy/src/daisy_core.h ****     constexpr Pin() : port(PORTX), pin(255) {}
 9546              		.loc 11 272 15 view .LVU2839
 9547              		.loc 11 272 15 is_stmt 0 view .LVU2840
 9548              	.LBE1605:
 9549              	.LBE1604:
 9550              	.LBE1603:
 9551              	.LBE1602:
 9552              		.loc 10 74 12 view .LVU2841
 9553 0016 0C49     		ldr	r1, .L609+12
 9554 0018 4FF60B70 		movw	r0, #65291
 9555              	.LBE1601:
ARM GAS  /tmp/claude-502/ccb6uqMv.s 			page 256


 9556              	.LBE1600:
 9557              	.LBB1614:
 9558              	.LBB1615:
 9559 001c 0B4A     		ldr	r2, .L609+16
 9560              	.LBE1615:
 9561              	.LBE1614:
 9562              	.LBB1625:
 9563              	.LBB1626:
 9564 001e 0C4B     		ldr	r3, .L609+20
 9565              	.LBE1626:
 9566              	.LBE1625:
 9567              	.LBB1632:
 9568              	.LBB1612:
 9569 0020 0860     		str	r0, [r1]
 9570              	.LBB1610:
 9571              	.LBB1608:
 9572              	.LBB1606:
  69:/Users/reza.kalfane/Workspaces/Daisy/DaisyExamples/libDaisy/src/per/gpio.h ****         {
 9573              		.loc 10 69 73 view .LVU2842
 9574 0022 CC60     		str	r4, [r1, #12]
 9575              	.LVL780:
  69:/Users/reza.kalfane/Workspaces/Daisy/DaisyExamples/libDaisy/src/per/gpio.h ****         {
 9576              		.loc 10 69 73 view .LVU2843
 9577              	.LBE1606:
 9578              	.LBE1608:
 9579              	.LBE1610:
 9580              	.LBE1612:
 9581              	.LBE1632:
 9582              	.LBB1633:
 9583              	.LBI1614:
 9584              		.loc 10 74 5 is_stmt 1 view .LVU2844
 9585              	.LBB1623:
 9586              	.LBB1616:
 9587              	.LBI1616:
  68:/Users/reza.kalfane/Workspaces/Daisy/DaisyExamples/libDaisy/src/per/gpio.h ****         : pin(), mode(Mode::INPUT), pull(Pull::NOPULL), speed(Speed::LOW)
 9588              		.loc 10 68 9 view .LVU2845
 9589              	.LBB1617:
 9590              	.LBB1618:
 9591              	.LBB1619:
 9592              	.LBI1619:
 9593              		.loc 11 272 15 view .LVU2846
 9594              		.loc 11 272 15 is_stmt 0 view .LVU2847
 9595              	.LBE1619:
 9596              	.LBE1618:
 9597              	.LBE1617:
 9598              	.LBE1616:
 9599              	.LBE1623:
 9600              	.LBE1633:
 9601              	.LBB1634:
 9602              	.LBB1613:
 9603              	.LBB1611:
 9604              	.LBB1609:
 9605              	.LBB1607:
  69:/Users/reza.kalfane/Workspaces/Daisy/DaisyExamples/libDaisy/src/per/gpio.h ****         {
 9606              		.loc 10 69 73 view .LVU2848
 9607 0024 C1E90144 		strd	r4, r4, [r1, #4]
 9608              	.LBE1607:
ARM GAS  /tmp/claude-502/ccb6uqMv.s 			page 257


 9609              	.LBE1609:
 9610              	.LBE1611:
 9611              	.LBE1613:
 9612              	.LBE1634:
 9613              	.LBB1635:
 9614              	.LBB1624:
 9615              	.LBB1622:
 9616              	.LBB1621:
 9617              	.LBB1620:
 9618 0028 C2E90004 		strd	r0, r4, [r2]
 9619 002c C2E90244 		strd	r4, r4, [r2, #8]
 9620              	.LVL781:
  69:/Users/reza.kalfane/Workspaces/Daisy/DaisyExamples/libDaisy/src/per/gpio.h ****         {
 9621              		.loc 10 69 73 view .LVU2849
 9622              	.LBE1620:
 9623              	.LBE1621:
 9624              	.LBE1622:
 9625              	.LBE1624:
 9626              	.LBE1635:
 9627              	.LBB1636:
 9628              	.LBI1625:
 9629              		.loc 10 74 5 is_stmt 1 view .LVU2850
 9630              	.LBB1631:
 9631              	.LBB1627:
 9632              	.LBI1627:
  68:/Users/reza.kalfane/Workspaces/Daisy/DaisyExamples/libDaisy/src/per/gpio.h ****         : pin(), mode(Mode::INPUT), pull(Pull::NOPULL), speed(Speed::LOW)
 9633              		.loc 10 68 9 view .LVU2851
 9634              	.LBB1628:
 9635              	.LBB1629:
 9636              	.LBB1630:
 9637              	.LBI1630:
 9638              		.loc 11 272 15 view .LVU2852
 9639              		.loc 11 272 15 is_stmt 0 view .LVU2853
 9640              	.LBE1630:
  69:/Users/reza.kalfane/Workspaces/Daisy/DaisyExamples/libDaisy/src/per/gpio.h ****         {
 9641              		.loc 10 69 73 view .LVU2854
 9642 0030 C3E90004 		strd	r0, r4, [r3]
 9643 0034 C3E90244 		strd	r4, r4, [r3, #8]
 9644              	.LVL782:
  69:/Users/reza.kalfane/Workspaces/Daisy/DaisyExamples/libDaisy/src/per/gpio.h ****         {
 9645              		.loc 10 69 73 view .LVU2855
 9646              	.LBE1629:
 9647              	.LBE1628:
 9648              	.LBE1627:
 9649              	.LBE1631:
 9650              	.LBE1636:
 9651              	.LBE1637:
 9652              	.LBE1638:
 9653              		.loc 6 1252 1 view .LVU2856
 9654 0038 10BD     		pop	{r4, pc}
 9655              	.L610:
 9656 003a 00BF     		.align	2
 9657              	.L609:
 9658 003c 00000000 		.word	.LANCHOR10
 9659 0040 00000000 		.word	__dso_handle
 9660 0044 00000000 		.word	_ZN5daisy9DaisySeedD1Ev
 9661 0048 00000000 		.word	.LANCHOR36
ARM GAS  /tmp/claude-502/ccb6uqMv.s 			page 258


 9662 004c 00000000 		.word	.LANCHOR38
 9663 0050 00000000 		.word	.LANCHOR34
 9664              		.cfi_endproc
 9665              	.LFE2634:
 9667              		.section	.init_array,"aw",%init_array
 9668              		.align	2
 9669 0000 00000000 		.word	_GLOBAL__sub_I_hw(target1)
 9670              		.global	g_master_vol
 9671              		.global	g_led3_duty
 9672              		.global	g_amp_target
 9673              		.global	g_finger_on
 9674              		.global	g_ringmod
 9675              		.global	g_bitcrush
 9676              		.global	g_vibrato_depth
 9677              		.global	g_target_drive
 9678              		.global	g_target_detune
 9679              		.global	g_target_cutoff
 9680              		.global	g_target_freq
 9681              		.global	led3
 9682              		.global	scl
 9683              		.global	sda
 9684              		.global	hw
 9685              		.section	.bss._ZL10s_bitcrush,"aw",%nobits
 9686              		.align	2
 9687              		.set	.LANCHOR20,. + 0
 9690              	_ZL10s_bitcrush:
 9691 0000 00000000 		.space	4
 9692              		.section	.bss._ZL10s_phase_rm,"aw",%nobits
 9693              		.align	2
 9694              		.set	.LANCHOR30,. + 0
 9697              	_ZL10s_phase_rm:
 9698 0000 00000000 		.space	4
 9699              		.section	.bss._ZL10s_vibdepth,"aw",%nobits
 9700              		.align	2
 9701              		.set	.LANCHOR18,. + 0
 9704              	_ZL10s_vibdepth:
 9705 0000 00000000 		.space	4
 9706              		.section	.bss._ZL11s_lfo_phase,"aw",%nobits
 9707              		.align	2
 9708              		.set	.LANCHOR25,. + 0
 9711              	_ZL11s_lfo_phase:
 9712 0000 00000000 		.space	4
 9713              		.section	.bss._ZL11s_phase_oct,"aw",%nobits
 9714              		.align	2
 9715              		.set	.LANCHOR29,. + 0
 9718              	_ZL11s_phase_oct:
 9719 0000 00000000 		.space	4
 9720              		.section	.bss._ZL11s_phase_sub,"aw",%nobits
 9721              		.align	2
 9722              		.set	.LANCHOR28,. + 0
 9725              	_ZL11s_phase_sub:
 9726 0000 00000000 		.space	4
 9727              		.section	.bss._ZL5s_amp,"aw",%nobits
 9728              		.align	2
 9729              		.set	.LANCHOR22,. + 0
 9732              	_ZL5s_amp:
 9733 0000 00000000 		.space	4
ARM GAS  /tmp/claude-502/ccb6uqMv.s 			page 259


 9734              		.section	.bss._ZL5s_flt,"aw",%nobits
 9735              		.align	2
 9736              		.set	.LANCHOR24,. + 0
 9739              	_ZL5s_flt:
 9740 0000 00000000 		.space	16
 9740      00000000 
 9740      00000000 
 9740      00000000 
 9741              		.section	.bss._ZL7tracked,"aw",%nobits
 9742              		.align	2
 9743              		.set	.LANCHOR40,. + 0
 9746              	_ZL7tracked:
 9747 0000 00000000 		.space	40
 9747      00000000 
 9747      00000000 
 9747      00000000 
 9747      00000000 
 9748              		.section	.bss._ZL8s_detune,"aw",%nobits
 9749              		.align	2
 9750              		.set	.LANCHOR19,. + 0
 9753              	_ZL8s_detune:
 9754 0000 00000000 		.space	4
 9755              		.section	.bss._ZL8s_phase1,"aw",%nobits
 9756              		.align	2
 9757              		.set	.LANCHOR26,. + 0
 9760              	_ZL8s_phase1:
 9761 0000 00000000 		.space	4
 9762              		.section	.bss._ZL8s_phase2,"aw",%nobits
 9763              		.align	2
 9764              		.set	.LANCHOR27,. + 0
 9767              	_ZL8s_phase2:
 9768 0000 00000000 		.space	4
 9769              		.section	.bss._ZL9s_ringmod,"aw",%nobits
 9770              		.align	2
 9771              		.set	.LANCHOR21,. + 0
 9774              	_ZL9s_ringmod:
 9775 0000 00000000 		.space	4
 9776              		.section	.bss._ZZ13AudioCallbackPKPKfPPfjE10led3_state,"aw",%nobits
 9777              		.set	.LANCHOR33,. + 0
 9780              	_ZZ13AudioCallbackPKPKfPPfjE10led3_state:
 9781 0000 00       		.space	1
 9782              		.section	.bss._ZZ13AudioCallbackPKPKfPPfjE11pwm_counter,"aw",%nobits
 9783              		.align	2
 9784              		.set	.LANCHOR32,. + 0
 9787              	_ZZ13AudioCallbackPKPKfPPfjE11pwm_counter:
 9788 0000 00000000 		.space	4
 9789              		.section	.bss._ZZ13AudioCallbackPKPKfPPfjE12s_coeff_init,"aw",%nobits
 9790              		.set	.LANCHOR11,. + 0
 9793              	_ZZ13AudioCallbackPKPKfPPfjE12s_coeff_init:
 9794 0000 00       		.space	1
 9795              		.section	.bss._ZZ13AudioCallbackPKPKfPPfjE16led3_duty_smooth,"aw",%nobits
 9796              		.align	2
 9797              		.set	.LANCHOR31,. + 0
 9800              	_ZZ13AudioCallbackPKPKfPPfjE16led3_duty_smooth:
 9801 0000 00000000 		.space	4
 9802              		.section	.bss._ZZ13AudioCallbackPKPKfPPfjE7s_atk_c,"aw",%nobits
 9803              		.align	2
ARM GAS  /tmp/claude-502/ccb6uqMv.s 			page 260


 9804              		.set	.LANCHOR13,. + 0
 9807              	_ZZ13AudioCallbackPKPKfPPfjE7s_atk_c:
 9808 0000 00000000 		.space	4
 9809              		.section	.bss._ZZ13AudioCallbackPKPKfPPfjE7s_rel_c,"aw",%nobits
 9810              		.align	2
 9811              		.set	.LANCHOR14,. + 0
 9814              	_ZZ13AudioCallbackPKPKfPPfjE7s_rel_c:
 9815 0000 00000000 		.space	4
 9816              		.section	.bss._ZZ13AudioCallbackPKPKfPPfjE9s_glide_c,"aw",%nobits
 9817              		.align	2
 9818              		.set	.LANCHOR12,. + 0
 9821              	_ZZ13AudioCallbackPKPKfPPfjE9s_glide_c:
 9822 0000 00000000 		.space	4
 9823              		.section	.bss.g_amp_target,"aw",%nobits
 9824              		.align	2
 9825              		.set	.LANCHOR8,. + 0
 9828              	g_amp_target:
 9829 0000 00000000 		.space	4
 9830              		.section	.bss.g_bitcrush,"aw",%nobits
 9831              		.align	2
 9832              		.set	.LANCHOR6,. + 0
 9835              	g_bitcrush:
 9836 0000 00000000 		.space	4
 9837              		.section	.bss.g_finger_on,"aw",%nobits
 9838              		.set	.LANCHOR43,. + 0
 9841              	g_finger_on:
 9842 0000 00       		.space	1
 9843              		.section	.bss.g_led3_duty,"aw",%nobits
 9844              		.align	2
 9845              		.set	.LANCHOR0,. + 0
 9848              	g_led3_duty:
 9849 0000 00000000 		.space	4
 9850              		.section	.bss.g_ringmod,"aw",%nobits
 9851              		.align	2
 9852              		.set	.LANCHOR7,. + 0
 9855              	g_ringmod:
 9856 0000 00000000 		.space	4
 9857              		.section	.bss.g_target_detune,"aw",%nobits
 9858              		.align	2
 9859              		.set	.LANCHOR3,. + 0
 9862              	g_target_detune:
 9863 0000 00000000 		.space	4
 9864              		.section	.bss.g_vibrato_depth,"aw",%nobits
 9865              		.align	2
 9866              		.set	.LANCHOR5,. + 0
 9869              	g_vibrato_depth:
 9870 0000 00000000 		.space	4
 9871              		.section	.bss.hw,"aw",%nobits
 9872              		.align	2
 9873              		.set	.LANCHOR10,. + 0
 9876              	hw:
 9877 0000 00000000 		.space	64
 9877      00000000 
 9877      00000000 
 9877      00000000 
 9877      00000000 
 9878              		.section	.bss.led3,"aw",%nobits
ARM GAS  /tmp/claude-502/ccb6uqMv.s 			page 261


 9879              		.align	2
 9880              		.set	.LANCHOR34,. + 0
 9883              	led3:
 9884 0000 00000000 		.space	20
 9884      00000000 
 9884      00000000 
 9884      00000000 
 9884      00000000 
 9885              		.section	.bss.scl,"aw",%nobits
 9886              		.align	2
 9887              		.set	.LANCHOR38,. + 0
 9890              	scl:
 9891 0000 00000000 		.space	20
 9891      00000000 
 9891      00000000 
 9891      00000000 
 9891      00000000 
 9892              		.section	.bss.sda,"aw",%nobits
 9893              		.align	2
 9894              		.set	.LANCHOR36,. + 0
 9897              	sda:
 9898 0000 00000000 		.space	20
 9898      00000000 
 9898      00000000 
 9898      00000000 
 9898      00000000 
 9899              		.section	.data._ZL12s_master_vol,"aw"
 9900              		.align	2
 9901              		.set	.LANCHOR23,. + 0
 9904              	_ZL12s_master_vol:
 9905 0000 0000803F 		.word	1065353216
 9906              		.section	.data._ZL6s_freq,"aw"
 9907              		.align	2
 9908              		.set	.LANCHOR15,. + 0
 9911              	_ZL6s_freq:
 9912 0000 ECD18242 		.word	1115869676
 9913              		.section	.data._ZL7s_drive,"aw"
 9914              		.align	2
 9915              		.set	.LANCHOR17,. + 0
 9918              	_ZL7s_drive:
 9919 0000 0000803F 		.word	1065353216
 9920              		.section	.data._ZL8s_cutoff,"aw"
 9921              		.align	2
 9922              		.set	.LANCHOR16,. + 0
 9925              	_ZL8s_cutoff:
 9926 0000 0000C842 		.word	1120403456
 9927              		.section	.data.g_master_vol,"aw"
 9928              		.align	2
 9929              		.set	.LANCHOR9,. + 0
 9932              	g_master_vol:
 9933 0000 0000803F 		.word	1065353216
 9934              		.section	.data.g_target_cutoff,"aw"
 9935              		.align	2
 9936              		.set	.LANCHOR2,. + 0
 9939              	g_target_cutoff:
 9940 0000 0000C842 		.word	1120403456
 9941              		.section	.data.g_target_drive,"aw"
ARM GAS  /tmp/claude-502/ccb6uqMv.s 			page 262


 9942              		.align	2
 9943              		.set	.LANCHOR4,. + 0
 9946              	g_target_drive:
 9947 0000 0000803F 		.word	1065353216
 9948              		.section	.data.g_target_freq,"aw"
 9949              		.align	2
 9950              		.set	.LANCHOR1,. + 0
 9953              	g_target_freq:
 9954 0000 ECD18242 		.word	1115869676
 9955              		.section	.rodata._ZL16PRESSURE_MAX_REF,"a"
 9956              		.align	2
 9957              		.set	.LANCHOR39,. + 0
 9960              	_ZL16PRESSURE_MAX_REF:
 9961 0000 2A000000 		.word	42
 9962 0004 23000000 		.word	35
 9963 0008 22000000 		.word	34
 9964 000c 22000000 		.word	34
 9965 0010 22000000 		.word	34
 9966 0014 22000000 		.word	34
 9967 0018 22000000 		.word	34
 9968 001c 22000000 		.word	34
 9969 0020 21000000 		.word	33
 9970 0024 20000000 		.word	32
 9971 0028 1D000000 		.word	29
 9972 002c 1E000000 		.word	30
 9973              		.section	.rodata._ZL5SCALE,"a"
 9974              		.align	2
 9975              		.set	.LANCHOR41,. + 0
 9978              	_ZL5SCALE:
 9979 0000 00000000 		.word	0
 9980 0004 01000000 		.word	1
 9981 0008 02000000 		.word	2
 9982 000c 03000000 		.word	3
 9983 0010 04000000 		.word	4
 9984 0014 05000000 		.word	5
 9985 0018 06000000 		.word	6
 9986 001c 07000000 		.word	7
 9987 0020 08000000 		.word	8
 9988 0024 09000000 		.word	9
 9989 0028 0A000000 		.word	10
 9990 002c 0B000000 		.word	11
 9991              		.section	.rodata._ZL7SCL_PIN,"a"
 9992              		.align	2
 9993              		.set	.LANCHOR37,. + 0
 9996              	_ZL7SCL_PIN:
 9997 0000 01       		.byte	1
 9998 0001 08       		.byte	8
 9999              		.section	.rodata._ZL7SDA_PIN,"a"
 10000              		.align	2
 10001              		.set	.LANCHOR35,. + 0
 10004              	_ZL7SDA_PIN:
 10005 0000 01       		.byte	1
 10006 0001 09       		.byte	9
 10007              		.section	.rodata._ZN5daisy4seedL2A0E,"a"
 10008              		.align	2
 10009              		.set	.LANCHOR42,. + 0
 10012              	_ZN5daisy4seedL2A0E:
ARM GAS  /tmp/claude-502/ccb6uqMv.s 			page 263


 10013 0000 02       		.byte	2
 10014 0001 00       		.byte	0
 10015              		.text
 10016              	.Letext0:
 10017              		.file 12 "/Library/DaisyToolchain/0.2.0/arm/arm-none-eabi/include/machine/_default_types.h"
 10018              		.file 13 "/Library/DaisyToolchain/0.2.0/arm/arm-none-eabi/include/sys/_stdint.h"
 10019              		.file 14 "/Library/DaisyToolchain/0.2.0/arm/arm-none-eabi/include/stdint.h"
 10020              		.file 15 "/Library/DaisyToolchain/0.2.0/arm/lib/gcc/arm-none-eabi/10.3.1/include/stddef.h"
 10021              		.file 16 "/Library/DaisyToolchain/0.2.0/arm/arm-none-eabi/include/c++/10.3.1/cmath"
 10022              		.file 17 "/Library/DaisyToolchain/0.2.0/arm/arm-none-eabi/include/c++/10.3.1/bits/std_abs.h"
 10023              		.file 18 "/Library/DaisyToolchain/0.2.0/arm/arm-none-eabi/include/c++/10.3.1/cstdlib"
 10024              		.file 19 "/Library/DaisyToolchain/0.2.0/arm/arm-none-eabi/include/c++/10.3.1/cstdint"
 10025              		.file 20 "/Library/DaisyToolchain/0.2.0/arm/arm-none-eabi/include/c++/10.3.1/type_traits"
 10026              		.file 21 "/Library/DaisyToolchain/0.2.0/arm/arm-none-eabi/include/c++/10.3.1/debug/debug.h"
 10027              		.file 22 "/Library/DaisyToolchain/0.2.0/arm/arm-none-eabi/include/c++/10.3.1/arm-none-eabi/thumb/v
 10028              		.file 23 "/Library/DaisyToolchain/0.2.0/arm/arm-none-eabi/include/c++/10.3.1/bits/algorithmfwd.h"
 10029              		.file 24 "/Library/DaisyToolchain/0.2.0/arm/arm-none-eabi/include/c++/10.3.1/bits/stl_pair.h"
 10030              		.file 25 "/Library/DaisyToolchain/0.2.0/arm/arm-none-eabi/include/c++/10.3.1/bits/exception_ptr.h"
 10031              		.file 26 "/Library/DaisyToolchain/0.2.0/arm/arm-none-eabi/include/c++/10.3.1/cstdarg"
 10032              		.file 27 "/Library/DaisyToolchain/0.2.0/arm/arm-none-eabi/include/c++/10.3.1/cstdio"
 10033              		.file 28 "/Library/DaisyToolchain/0.2.0/arm/arm-none-eabi/include/c++/10.3.1/cstring"
 10034              		.file 29 "/Library/DaisyToolchain/0.2.0/arm/arm-none-eabi/include/c++/10.3.1/bits/predefined_ops.h
 10035              		.file 30 "/Library/DaisyToolchain/0.2.0/arm/arm-none-eabi/include/sys/_types.h"
 10036              		.file 31 "/Library/DaisyToolchain/0.2.0/arm/arm-none-eabi/include/sys/reent.h"
 10037              		.file 32 "/Library/DaisyToolchain/0.2.0/arm/arm-none-eabi/include/sys/lock.h"
 10038              		.file 33 "/Library/DaisyToolchain/0.2.0/arm/arm-none-eabi/include/math.h"
 10039              		.file 34 "/Library/DaisyToolchain/0.2.0/arm/arm-none-eabi/include/stdlib.h"
 10040              		.file 35 "/Library/DaisyToolchain/0.2.0/arm/arm-none-eabi/include/c++/10.3.1/math.h"
 10041              		.file 36 "/Library/DaisyToolchain/0.2.0/arm/arm-none-eabi/include/c++/10.3.1/stdlib.h"
 10042              		.file 37 "/Users/reza.kalfane/Workspaces/Daisy/DaisyExamples/libDaisy/src/per/tim.h"
 10043              		.file 38 "/Users/reza.kalfane/Workspaces/Daisy/DaisyExamples/libDaisy/src/hid/logger_impl.h"
 10044              		.file 39 "/Users/reza.kalfane/Workspaces/Daisy/DaisyExamples/libDaisy/src/util/wav_format.h"
 10045              		.file 40 "/Users/reza.kalfane/Workspaces/Daisy/DaisyExamples/libDaisy/src/dev/max11300.h"
 10046              		.file 41 "/Users/reza.kalfane/Workspaces/Daisy/DaisyExamples/libDaisy/src/hid/logger.h"
 10047              		.file 42 "/Users/reza.kalfane/Workspaces/Daisy/DaisyExamples/libDaisy/src/dev/sdram.h"
 10048              		.file 43 "/Library/DaisyToolchain/0.2.0/arm/lib/gcc/arm-none-eabi/10.3.1/include/stdarg.h"
 10049              		.file 44 "/Library/DaisyToolchain/0.2.0/arm/arm-none-eabi/include/stdio.h"
 10050              		.file 45 "/Library/DaisyToolchain/0.2.0/arm/arm-none-eabi/include/string.h"
 10051              		.file 46 "/Users/reza.kalfane/Workspaces/Daisy/DaisyExamples/libDaisy/src/dev/sr_595.h"
 10052              		.file 47 "<built-in>"
ARM GAS  /tmp/claude-502/ccb6uqMv.s 			page 264


DEFINED SYMBOLS
                            *ABS*:0000000000000000 main.cpp
/tmp/claude-502/ccb6uqMv.s:19     .text._ZN5daisy9DaisySeedD2Ev:0000000000000000 $t
/tmp/claude-502/ccb6uqMv.s:26     .text._ZN5daisy9DaisySeedD2Ev:0000000000000000 _ZN5daisy9DaisySeedD2Ev
/tmp/claude-502/ccb6uqMv.s:26     .text._ZN5daisy9DaisySeedD2Ev:0000000000000000 _ZN5daisy9DaisySeedD1Ev
/tmp/claude-502/ccb6uqMv.s:67     .text._Z13AudioCallbackPKPKfPPfj:0000000000000000 $t
/tmp/claude-502/ccb6uqMv.s:74     .text._Z13AudioCallbackPKPKfPPfj:0000000000000000 _Z13AudioCallbackPKPKfPPfj
/tmp/claude-502/ccb6uqMv.s:261    .text._Z13AudioCallbackPKPKfPPfj:00000000000000c4 $d
/tmp/claude-502/ccb6uqMv.s:293    .text._Z13AudioCallbackPKPKfPPfj:0000000000000130 $t
/tmp/claude-502/ccb6uqMv.s:1759   .text._Z13AudioCallbackPKPKfPPfj:0000000000000818 $d
/tmp/claude-502/ccb6uqMv.s:1797   .text._Z13AudioCallbackPKPKfPPfj:00000000000008a8 $t
/tmp/claude-502/ccb6uqMv.s:2449   .text._Z13AudioCallbackPKPKfPPfj:0000000000000ac0 $d
/tmp/claude-502/ccb6uqMv.s:2465   .text._Z9i2c_startv:0000000000000000 $t
/tmp/claude-502/ccb6uqMv.s:2472   .text._Z9i2c_startv:0000000000000000 _Z9i2c_startv
/tmp/claude-502/ccb6uqMv.s:2666   .text._Z9i2c_startv:000000000000007c $d
/tmp/claude-502/ccb6uqMv.s:2676   .text._Z8i2c_stopv:0000000000000000 $t
/tmp/claude-502/ccb6uqMv.s:2683   .text._Z8i2c_stopv:0000000000000000 _Z8i2c_stopv
/tmp/claude-502/ccb6uqMv.s:2818   .text._Z8i2c_stopv:0000000000000058 $d
/tmp/claude-502/ccb6uqMv.s:2828   .text._Z14i2c_write_byteh:0000000000000000 $t
/tmp/claude-502/ccb6uqMv.s:2835   .text._Z14i2c_write_byteh:0000000000000000 _Z14i2c_write_byteh
/tmp/claude-502/ccb6uqMv.s:3160   .text._Z14i2c_write_byteh:00000000000000e4 $d
/tmp/claude-502/ccb6uqMv.s:3168   .text._Z13i2c_read_byteb:0000000000000000 $t
/tmp/claude-502/ccb6uqMv.s:3175   .text._Z13i2c_read_byteb:0000000000000000 _Z13i2c_read_byteb
/tmp/claude-502/ccb6uqMv.s:3525   .text._Z13i2c_read_byteb:00000000000000f4 $d
/tmp/claude-502/ccb6uqMv.s:3535   .text._Z9mpr_writehh:0000000000000000 $t
/tmp/claude-502/ccb6uqMv.s:3542   .text._Z9mpr_writehh:0000000000000000 _Z9mpr_writehh
/tmp/claude-502/ccb6uqMv.s:3618   .text._Z8mpr_readhPhh:0000000000000000 $t
/tmp/claude-502/ccb6uqMv.s:3625   .text._Z8mpr_readhPhh:0000000000000000 _Z8mpr_readhPhh
/tmp/claude-502/ccb6uqMv.s:3744   .text._Z8mpr_initv:0000000000000000 $t
/tmp/claude-502/ccb6uqMv.s:3751   .text._Z8mpr_initv:0000000000000000 _Z8mpr_initv
/tmp/claude-502/ccb6uqMv.s:3937   .text._Z15read_electrodesPt:0000000000000000 $t
/tmp/claude-502/ccb6uqMv.s:3944   .text._Z15read_electrodesPt:0000000000000000 _Z15read_electrodesPt
/tmp/claude-502/ccb6uqMv.s:4006   .text._Z16capture_baselinePt:0000000000000000 $t
/tmp/claude-502/ccb6uqMv.s:4013   .text._Z16capture_baselinePt:0000000000000000 _Z16capture_baselinePt
/tmp/claude-502/ccb6uqMv.s:4134   .text._Z15centroid_windowPliiS_Pi:0000000000000000 $t
/tmp/claude-502/ccb6uqMv.s:4141   .text._Z15centroid_windowPliiS_Pi:0000000000000000 _Z15centroid_windowPliiS_Pi
/tmp/claude-502/ccb6uqMv.s:4274   .text._Z12pressure_pctli:0000000000000000 $t
/tmp/claude-502/ccb6uqMv.s:4281   .text._Z12pressure_pctli:0000000000000000 _Z12pressure_pctli
/tmp/claude-502/ccb6uqMv.s:4404   .text._Z12pressure_pctli:0000000000000078 $d
/tmp/claude-502/ccb6uqMv.s:4409   .text._Z10detect_rawPlP6Finger:0000000000000000 $t
/tmp/claude-502/ccb6uqMv.s:4416   .text._Z10detect_rawPlP6Finger:0000000000000000 _Z10detect_rawPlP6Finger
/tmp/claude-502/ccb6uqMv.s:4908   .text._Z14update_trackedP6Fingeri:0000000000000000 $t
/tmp/claude-502/ccb6uqMv.s:4915   .text._Z14update_trackedP6Fingeri:0000000000000000 _Z14update_trackedP6Fingeri
/tmp/claude-502/ccb6uqMv.s:5155   .text._Z14update_trackedP6Fingeri:00000000000000e4 $d
/tmp/claude-502/ccb6uqMv.s:5162   .text._Z13quantize_midif:0000000000000000 $t
/tmp/claude-502/ccb6uqMv.s:5169   .text._Z13quantize_midif:0000000000000000 _Z13quantize_midif
/tmp/claude-502/ccb6uqMv.s:5287   .text._Z13quantize_midif:0000000000000074 $d
/tmp/claude-502/ccb6uqMv.s:5293   .text._Z8make_barPclli:0000000000000000 $t
/tmp/claude-502/ccb6uqMv.s:5300   .text._Z8make_barPclli:0000000000000000 _Z8make_barPclli
/tmp/claude-502/ccb6uqMv.s:5396   .text._Z12make_pos_barPci:0000000000000000 $t
/tmp/claude-502/ccb6uqMv.s:5403   .text._Z12make_pos_barPci:0000000000000000 _Z12make_pos_barPci
/tmp/claude-502/ccb6uqMv.s:5552   .text._Z12make_pos_barPci:0000000000000078 $d
/tmp/claude-502/ccb6uqMv.s:5557   .rodata.main.str1.4:0000000000000000 $d
/tmp/claude-502/ccb6uqMv.s:5613   .text.startup.main:0000000000000000 $t
/tmp/claude-502/ccb6uqMv.s:5620   .text.startup.main:0000000000000000 main
/tmp/claude-502/ccb6uqMv.s:6162   .text.startup.main:00000000000001dc $d
/tmp/claude-502/ccb6uqMv.s:6192   .text.startup.main:0000000000000248 $t
ARM GAS  /tmp/claude-502/ccb6uqMv.s 			page 265


/tmp/claude-502/ccb6uqMv.s:6583   .text.startup.main:000000000000041c $d
/tmp/claude-502/ccb6uqMv.s:6601   .text.startup.main:0000000000000454 $t
/tmp/claude-502/ccb6uqMv.s:7263   .text.startup.main:00000000000006c4 $d
/tmp/claude-502/ccb6uqMv.s:7287   .text.startup.main:0000000000000714 $t
/tmp/claude-502/ccb6uqMv.s:7700   .text.startup.main:0000000000000904 $d
/tmp/claude-502/ccb6uqMv.s:7728   .text.startup.main:0000000000000950 $t
/tmp/claude-502/ccb6uqMv.s:8877   .text.startup.main:0000000000000e4c $d
/tmp/claude-502/ccb6uqMv.s:8913   .text.startup.main:0000000000000ec8 $t
/tmp/claude-502/ccb6uqMv.s:9410   .text.startup._GLOBAL__sub_I_hw:0000000000000000 $t
/tmp/claude-502/ccb6uqMv.s:9416   .text.startup._GLOBAL__sub_I_hw:0000000000000000 _GLOBAL__sub_I_hw
/tmp/claude-502/ccb6uqMv.s:9658   .text.startup._GLOBAL__sub_I_hw:000000000000003c $d
/tmp/claude-502/ccb6uqMv.s:9668   .init_array:0000000000000000 $d
/tmp/claude-502/ccb6uqMv.s:9932   .data.g_master_vol:0000000000000000 g_master_vol
/tmp/claude-502/ccb6uqMv.s:9848   .bss.g_led3_duty:0000000000000000 g_led3_duty
/tmp/claude-502/ccb6uqMv.s:9828   .bss.g_amp_target:0000000000000000 g_amp_target
/tmp/claude-502/ccb6uqMv.s:9841   .bss.g_finger_on:0000000000000000 g_finger_on
/tmp/claude-502/ccb6uqMv.s:9855   .bss.g_ringmod:0000000000000000 g_ringmod
/tmp/claude-502/ccb6uqMv.s:9835   .bss.g_bitcrush:0000000000000000 g_bitcrush
/tmp/claude-502/ccb6uqMv.s:9869   .bss.g_vibrato_depth:0000000000000000 g_vibrato_depth
/tmp/claude-502/ccb6uqMv.s:9946   .data.g_target_drive:0000000000000000 g_target_drive
/tmp/claude-502/ccb6uqMv.s:9862   .bss.g_target_detune:0000000000000000 g_target_detune
/tmp/claude-502/ccb6uqMv.s:9939   .data.g_target_cutoff:0000000000000000 g_target_cutoff
/tmp/claude-502/ccb6uqMv.s:9953   .data.g_target_freq:0000000000000000 g_target_freq
/tmp/claude-502/ccb6uqMv.s:9883   .bss.led3:0000000000000000 led3
/tmp/claude-502/ccb6uqMv.s:9890   .bss.scl:0000000000000000 scl
/tmp/claude-502/ccb6uqMv.s:9897   .bss.sda:0000000000000000 sda
/tmp/claude-502/ccb6uqMv.s:9876   .bss.hw:0000000000000000 hw
/tmp/claude-502/ccb6uqMv.s:9686   .bss._ZL10s_bitcrush:0000000000000000 $d
/tmp/claude-502/ccb6uqMv.s:9690   .bss._ZL10s_bitcrush:0000000000000000 _ZL10s_bitcrush
/tmp/claude-502/ccb6uqMv.s:9693   .bss._ZL10s_phase_rm:0000000000000000 $d
/tmp/claude-502/ccb6uqMv.s:9697   .bss._ZL10s_phase_rm:0000000000000000 _ZL10s_phase_rm
/tmp/claude-502/ccb6uqMv.s:9700   .bss._ZL10s_vibdepth:0000000000000000 $d
/tmp/claude-502/ccb6uqMv.s:9704   .bss._ZL10s_vibdepth:0000000000000000 _ZL10s_vibdepth
/tmp/claude-502/ccb6uqMv.s:9707   .bss._ZL11s_lfo_phase:0000000000000000 $d
/tmp/claude-502/ccb6uqMv.s:9711   .bss._ZL11s_lfo_phase:0000000000000000 _ZL11s_lfo_phase
/tmp/claude-502/ccb6uqMv.s:9714   .bss._ZL11s_phase_oct:0000000000000000 $d
/tmp/claude-502/ccb6uqMv.s:9718   .bss._ZL11s_phase_oct:0000000000000000 _ZL11s_phase_oct
/tmp/claude-502/ccb6uqMv.s:9721   .bss._ZL11s_phase_sub:0000000000000000 $d
/tmp/claude-502/ccb6uqMv.s:9725   .bss._ZL11s_phase_sub:0000000000000000 _ZL11s_phase_sub
/tmp/claude-502/ccb6uqMv.s:9728   .bss._ZL5s_amp:0000000000000000 $d
/tmp/claude-502/ccb6uqMv.s:9732   .bss._ZL5s_amp:0000000000000000 _ZL5s_amp
/tmp/claude-502/ccb6uqMv.s:9735   .bss._ZL5s_flt:0000000000000000 $d
/tmp/claude-502/ccb6uqMv.s:9739   .bss._ZL5s_flt:0000000000000000 _ZL5s_flt
/tmp/claude-502/ccb6uqMv.s:9742   .bss._ZL7tracked:0000000000000000 $d
/tmp/claude-502/ccb6uqMv.s:9746   .bss._ZL7tracked:0000000000000000 _ZL7tracked
/tmp/claude-502/ccb6uqMv.s:9749   .bss._ZL8s_detune:0000000000000000 $d
/tmp/claude-502/ccb6uqMv.s:9753   .bss._ZL8s_detune:0000000000000000 _ZL8s_detune
/tmp/claude-502/ccb6uqMv.s:9756   .bss._ZL8s_phase1:0000000000000000 $d
/tmp/claude-502/ccb6uqMv.s:9760   .bss._ZL8s_phase1:0000000000000000 _ZL8s_phase1
/tmp/claude-502/ccb6uqMv.s:9763   .bss._ZL8s_phase2:0000000000000000 $d
/tmp/claude-502/ccb6uqMv.s:9767   .bss._ZL8s_phase2:0000000000000000 _ZL8s_phase2
/tmp/claude-502/ccb6uqMv.s:9770   .bss._ZL9s_ringmod:0000000000000000 $d
/tmp/claude-502/ccb6uqMv.s:9774   .bss._ZL9s_ringmod:0000000000000000 _ZL9s_ringmod
/tmp/claude-502/ccb6uqMv.s:9780   .bss._ZZ13AudioCallbackPKPKfPPfjE10led3_state:0000000000000000 _ZZ13AudioCallbackPKPKfPPfjE10led3_state
/tmp/claude-502/ccb6uqMv.s:9781   .bss._ZZ13AudioCallbackPKPKfPPfjE10led3_state:0000000000000000 $d
/tmp/claude-502/ccb6uqMv.s:9783   .bss._ZZ13AudioCallbackPKPKfPPfjE11pwm_counter:0000000000000000 $d
/tmp/claude-502/ccb6uqMv.s:9787   .bss._ZZ13AudioCallbackPKPKfPPfjE11pwm_counter:0000000000000000 _ZZ13AudioCallbackPKPKfPPfjE11pwm_counter
ARM GAS  /tmp/claude-502/ccb6uqMv.s 			page 266


/tmp/claude-502/ccb6uqMv.s:9793   .bss._ZZ13AudioCallbackPKPKfPPfjE12s_coeff_init:0000000000000000 _ZZ13AudioCallbackPKPKfPPfjE12s_coeff_init
/tmp/claude-502/ccb6uqMv.s:9794   .bss._ZZ13AudioCallbackPKPKfPPfjE12s_coeff_init:0000000000000000 $d
/tmp/claude-502/ccb6uqMv.s:9796   .bss._ZZ13AudioCallbackPKPKfPPfjE16led3_duty_smooth:0000000000000000 $d
/tmp/claude-502/ccb6uqMv.s:9800   .bss._ZZ13AudioCallbackPKPKfPPfjE16led3_duty_smooth:0000000000000000 _ZZ13AudioCallbackPKPKfPPfjE16led3_duty_smooth
/tmp/claude-502/ccb6uqMv.s:9803   .bss._ZZ13AudioCallbackPKPKfPPfjE7s_atk_c:0000000000000000 $d
/tmp/claude-502/ccb6uqMv.s:9807   .bss._ZZ13AudioCallbackPKPKfPPfjE7s_atk_c:0000000000000000 _ZZ13AudioCallbackPKPKfPPfjE7s_atk_c
/tmp/claude-502/ccb6uqMv.s:9810   .bss._ZZ13AudioCallbackPKPKfPPfjE7s_rel_c:0000000000000000 $d
/tmp/claude-502/ccb6uqMv.s:9814   .bss._ZZ13AudioCallbackPKPKfPPfjE7s_rel_c:0000000000000000 _ZZ13AudioCallbackPKPKfPPfjE7s_rel_c
/tmp/claude-502/ccb6uqMv.s:9817   .bss._ZZ13AudioCallbackPKPKfPPfjE9s_glide_c:0000000000000000 $d
/tmp/claude-502/ccb6uqMv.s:9821   .bss._ZZ13AudioCallbackPKPKfPPfjE9s_glide_c:0000000000000000 _ZZ13AudioCallbackPKPKfPPfjE9s_glide_c
/tmp/claude-502/ccb6uqMv.s:9824   .bss.g_amp_target:0000000000000000 $d
/tmp/claude-502/ccb6uqMv.s:9831   .bss.g_bitcrush:0000000000000000 $d
/tmp/claude-502/ccb6uqMv.s:9842   .bss.g_finger_on:0000000000000000 $d
/tmp/claude-502/ccb6uqMv.s:9844   .bss.g_led3_duty:0000000000000000 $d
/tmp/claude-502/ccb6uqMv.s:9851   .bss.g_ringmod:0000000000000000 $d
/tmp/claude-502/ccb6uqMv.s:9858   .bss.g_target_detune:0000000000000000 $d
/tmp/claude-502/ccb6uqMv.s:9865   .bss.g_vibrato_depth:0000000000000000 $d
/tmp/claude-502/ccb6uqMv.s:9872   .bss.hw:0000000000000000 $d
/tmp/claude-502/ccb6uqMv.s:9879   .bss.led3:0000000000000000 $d
/tmp/claude-502/ccb6uqMv.s:9886   .bss.scl:0000000000000000 $d
/tmp/claude-502/ccb6uqMv.s:9893   .bss.sda:0000000000000000 $d
/tmp/claude-502/ccb6uqMv.s:9900   .data._ZL12s_master_vol:0000000000000000 $d
/tmp/claude-502/ccb6uqMv.s:9904   .data._ZL12s_master_vol:0000000000000000 _ZL12s_master_vol
/tmp/claude-502/ccb6uqMv.s:9907   .data._ZL6s_freq:0000000000000000 $d
/tmp/claude-502/ccb6uqMv.s:9911   .data._ZL6s_freq:0000000000000000 _ZL6s_freq
/tmp/claude-502/ccb6uqMv.s:9914   .data._ZL7s_drive:0000000000000000 $d
/tmp/claude-502/ccb6uqMv.s:9918   .data._ZL7s_drive:0000000000000000 _ZL7s_drive
/tmp/claude-502/ccb6uqMv.s:9921   .data._ZL8s_cutoff:0000000000000000 $d
/tmp/claude-502/ccb6uqMv.s:9925   .data._ZL8s_cutoff:0000000000000000 _ZL8s_cutoff
/tmp/claude-502/ccb6uqMv.s:9928   .data.g_master_vol:0000000000000000 $d
/tmp/claude-502/ccb6uqMv.s:9935   .data.g_target_cutoff:0000000000000000 $d
/tmp/claude-502/ccb6uqMv.s:9942   .data.g_target_drive:0000000000000000 $d
/tmp/claude-502/ccb6uqMv.s:9949   .data.g_target_freq:0000000000000000 $d
/tmp/claude-502/ccb6uqMv.s:9956   .rodata._ZL16PRESSURE_MAX_REF:0000000000000000 $d
/tmp/claude-502/ccb6uqMv.s:9960   .rodata._ZL16PRESSURE_MAX_REF:0000000000000000 _ZL16PRESSURE_MAX_REF
/tmp/claude-502/ccb6uqMv.s:9974   .rodata._ZL5SCALE:0000000000000000 $d
/tmp/claude-502/ccb6uqMv.s:9978   .rodata._ZL5SCALE:0000000000000000 _ZL5SCALE
/tmp/claude-502/ccb6uqMv.s:9992   .rodata._ZL7SCL_PIN:0000000000000000 $d
/tmp/claude-502/ccb6uqMv.s:9996   .rodata._ZL7SCL_PIN:0000000000000000 _ZL7SCL_PIN
/tmp/claude-502/ccb6uqMv.s:10000  .rodata._ZL7SDA_PIN:0000000000000000 $d
/tmp/claude-502/ccb6uqMv.s:10004  .rodata._ZL7SDA_PIN:0000000000000000 _ZL7SDA_PIN
/tmp/claude-502/ccb6uqMv.s:10008  .rodata._ZN5daisy4seedL2A0E:0000000000000000 $d
/tmp/claude-502/ccb6uqMv.s:10012  .rodata._ZN5daisy4seedL2A0E:0000000000000000 _ZN5daisy4seedL2A0E
                           .group:0000000000000000 _ZN5daisy9DaisySeedD5Ev

UNDEFINED SYMBOLS
_ZN5daisy9DaisySeed15AudioSampleRateEv
_ZN5daisy4GPIO5WriteEb
expf
_ZN5daisy4GPIO4InitENS_3PinENS0_4ModeENS0_4PullENS0_5SpeedE
_ZN5daisy6System7DelayUsEm
_ZN5daisy4GPIO4ReadEv
_ZN5daisy6System5DelayEm
memset
__aeabi_ldivmod
_ZN5daisy9DaisySeed4InitEb
_ZN5daisy9DaisySeed17SetAudioBlockSizeEj
ARM GAS  /tmp/claude-502/ccb6uqMv.s 			page 267


_ZN5daisy9DacHandle4InitERKNS0_6ConfigE
_ZN5daisy9DacHandle10WriteValueENS0_7ChannelEt
_ZN5daisy16AdcChannelConfig10InitSingleE12dsy_gpio_pinNS0_15ConversionSpeedE
_ZN5daisy9AdcHandle4InitEPNS_16AdcChannelConfigEjNS0_12OverSamplingE
_ZN5daisy9AdcHandle5StartEv
_ZN5daisy6System6GetNowEv
_ZNK5daisy9AdcHandle3GetEh
_ZN5daisy9DaisySeed10StartAudioEPFvPKPKfPPfjE
_ZN5daisy6LoggerILNS_17LoggerDestinationE1EE8StartLogEb
_ZN5daisy6LoggerILNS_17LoggerDestinationE1EE9PrintLineEPKcz
cosf
powf
sqrtf
__aeabi_atexit
__dso_handle
