ARM GAS  /tmp/claude-502/ccY3ow5l.s 			page 1


   1              		.cpu cortex-m7
   2              		.arch armv7e-m
   3              		.fpu fpv5-d16
   4              		.eabi_attribute 28, 1
   5              		.eabi_attribute 20, 1
   6              		.eabi_attribute 21, 1
   7              		.eabi_attribute 23, 3
   8              		.eabi_attribute 24, 1
   9              		.eabi_attribute 25, 1
  10              		.eabi_attribute 26, 1
  11              		.eabi_attribute 30, 2
  12              		.eabi_attribute 34, 1
  13              		.eabi_attribute 18, 4
  14              		.file	"tusb.c"
  15              		.text
  16              	.Ltext0:
  17              		.cfi_sections	.debug_frame
  18              		.section	.text.tusb_init,"ax",%progbits
  19              		.align	1
  20              		.p2align 2,,3
  21              		.global	tusb_init
  22              		.syntax unified
  23              		.thumb
  24              		.thumb_func
  26              	tusb_init:
  27              	.LFB410:
  28              		.file 1 "lib/tinyusb/src/tusb.c"
   1:lib/tinyusb/src/tusb.c **** /*
   2:lib/tinyusb/src/tusb.c ****  * The MIT License (MIT)
   3:lib/tinyusb/src/tusb.c ****  *
   4:lib/tinyusb/src/tusb.c ****  * Copyright (c) 2019 Ha Thach (tinyusb.org)
   5:lib/tinyusb/src/tusb.c ****  *
   6:lib/tinyusb/src/tusb.c ****  * Permission is hereby granted, free of charge, to any person obtaining a copy
   7:lib/tinyusb/src/tusb.c ****  * of this software and associated documentation files (the "Software"), to deal
   8:lib/tinyusb/src/tusb.c ****  * in the Software without restriction, including without limitation the rights
   9:lib/tinyusb/src/tusb.c ****  * to use, copy, modify, merge, publish, distribute, sublicense, and/or sell
  10:lib/tinyusb/src/tusb.c ****  * copies of the Software, and to permit persons to whom the Software is
  11:lib/tinyusb/src/tusb.c ****  * furnished to do so, subject to the following conditions:
  12:lib/tinyusb/src/tusb.c ****  *
  13:lib/tinyusb/src/tusb.c ****  * The above copyright notice and this permission notice shall be included in
  14:lib/tinyusb/src/tusb.c ****  * all copies or substantial portions of the Software.
  15:lib/tinyusb/src/tusb.c ****  *
  16:lib/tinyusb/src/tusb.c ****  * THE SOFTWARE IS PROVIDED "AS IS", WITHOUT WARRANTY OF ANY KIND, EXPRESS OR
  17:lib/tinyusb/src/tusb.c ****  * IMPLIED, INCLUDING BUT NOT LIMITED TO THE WARRANTIES OF MERCHANTABILITY,
  18:lib/tinyusb/src/tusb.c ****  * FITNESS FOR A PARTICULAR PURPOSE AND NONINFRINGEMENT. IN NO EVENT SHALL THE
  19:lib/tinyusb/src/tusb.c ****  * AUTHORS OR COPYRIGHT HOLDERS BE LIABLE FOR ANY CLAIM, DAMAGES OR OTHER
  20:lib/tinyusb/src/tusb.c ****  * LIABILITY, WHETHER IN AN ACTION OF CONTRACT, TORT OR OTHERWISE, ARISING FROM,
  21:lib/tinyusb/src/tusb.c ****  * OUT OF OR IN CONNECTION WITH THE SOFTWARE OR THE USE OR OTHER DEALINGS IN
  22:lib/tinyusb/src/tusb.c ****  * THE SOFTWARE.
  23:lib/tinyusb/src/tusb.c ****  *
  24:lib/tinyusb/src/tusb.c ****  * This file is part of the TinyUSB stack.
  25:lib/tinyusb/src/tusb.c ****  */
  26:lib/tinyusb/src/tusb.c **** 
  27:lib/tinyusb/src/tusb.c **** #include "tusb_option.h"
  28:lib/tinyusb/src/tusb.c **** 
  29:lib/tinyusb/src/tusb.c **** #if CFG_TUH_ENABLED || CFG_TUD_ENABLED
  30:lib/tinyusb/src/tusb.c **** 
ARM GAS  /tmp/claude-502/ccY3ow5l.s 			page 2


  31:lib/tinyusb/src/tusb.c **** #include "tusb.h"
  32:lib/tinyusb/src/tusb.c **** #include "common/tusb_private.h"
  33:lib/tinyusb/src/tusb.c **** 
  34:lib/tinyusb/src/tusb.c **** #if CFG_TUD_ENABLED
  35:lib/tinyusb/src/tusb.c **** #include "device/usbd_pvt.h"
  36:lib/tinyusb/src/tusb.c **** #endif
  37:lib/tinyusb/src/tusb.c **** 
  38:lib/tinyusb/src/tusb.c **** #if CFG_TUH_ENABLED
  39:lib/tinyusb/src/tusb.c **** #include "host/usbh_pvt.h"
  40:lib/tinyusb/src/tusb.c **** #endif
  41:lib/tinyusb/src/tusb.c **** 
  42:lib/tinyusb/src/tusb.c **** //--------------------------------------------------------------------+
  43:lib/tinyusb/src/tusb.c **** // Public API
  44:lib/tinyusb/src/tusb.c **** //--------------------------------------------------------------------+
  45:lib/tinyusb/src/tusb.c **** 
  46:lib/tinyusb/src/tusb.c **** bool tusb_init(void) {
  29              		.loc 1 46 22 view -0
  30              		.cfi_startproc
  31              		@ args = 0, pretend = 0, frame = 0
  32              		@ frame_needed = 0, uses_anonymous_args = 0
  47:lib/tinyusb/src/tusb.c ****   #if CFG_TUD_ENABLED && defined(TUD_OPT_RHPORT)
  48:lib/tinyusb/src/tusb.c ****   // init device stack CFG_TUSB_RHPORTx_MODE must be defined
  49:lib/tinyusb/src/tusb.c ****   TU_ASSERT ( tud_init(TUD_OPT_RHPORT) );
  33              		.loc 1 49 3 view .LVU1
  34              		.loc 1 49 3 view .LVU2
  46:lib/tinyusb/src/tusb.c ****   #if CFG_TUD_ENABLED && defined(TUD_OPT_RHPORT)
  35              		.loc 1 46 22 is_stmt 0 view .LVU3
  36 0000 08B5     		push	{r3, lr}
  37              		.cfi_def_cfa_offset 8
  38              		.cfi_offset 3, -8
  39              		.cfi_offset 14, -4
  40              		.loc 1 49 3 view .LVU4
  41 0002 0020     		movs	r0, #0
  42 0004 FFF7FEFF 		bl	tud_init
  43              	.LVL0:
  44 0008 00B1     		cbz	r0, .L8
  45              	.L2:
  50:lib/tinyusb/src/tusb.c ****   #endif
  51:lib/tinyusb/src/tusb.c **** 
  52:lib/tinyusb/src/tusb.c ****   #if CFG_TUH_ENABLED && defined(TUH_OPT_RHPORT)
  53:lib/tinyusb/src/tusb.c ****   // init host stack CFG_TUSB_RHPORTx_MODE must be defined
  54:lib/tinyusb/src/tusb.c ****   TU_ASSERT( tuh_init(TUH_OPT_RHPORT) );
  55:lib/tinyusb/src/tusb.c ****   #endif
  56:lib/tinyusb/src/tusb.c **** 
  57:lib/tinyusb/src/tusb.c ****   return true;
  58:lib/tinyusb/src/tusb.c **** }
  46              		.loc 1 58 1 view .LVU5
  47 000a 08BD     		pop	{r3, pc}
  48              	.L8:
  49:lib/tinyusb/src/tusb.c ****   #endif
  49              		.loc 1 49 3 is_stmt 1 discriminator 1 view .LVU6
  49:lib/tinyusb/src/tusb.c ****   #endif
  50              		.loc 1 49 3 discriminator 1 view .LVU7
  49:lib/tinyusb/src/tusb.c ****   #endif
  51              		.loc 1 49 3 discriminator 1 view .LVU8
  49:lib/tinyusb/src/tusb.c ****   #endif
  52              		.loc 1 49 3 discriminator 1 view .LVU9
ARM GAS  /tmp/claude-502/ccY3ow5l.s 			page 3


  53              	.LBB77:
  49:lib/tinyusb/src/tusb.c ****   #endif
  54              		.loc 1 49 3 discriminator 1 view .LVU10
  55              	.LVL1:
  49:lib/tinyusb/src/tusb.c ****   #endif
  56              		.loc 1 49 3 discriminator 1 view .LVU11
  57 000c 4FF0E023 		mov	r3, #-536813568
  58 0010 D3F8F03D 		ldr	r3, [r3, #3568]
  59 0014 DB07     		lsls	r3, r3, #31
  60 0016 F8D5     		bpl	.L2
  49:lib/tinyusb/src/tusb.c ****   #endif
  61              		.loc 1 49 3 discriminator 3 view .LVU12
  62              		.syntax unified
  63              	@ 49 "lib/tinyusb/src/tusb.c" 1
  64 0018 00BE     		BKPT #0
  65              	
  66              	@ 0 "" 2
  67              		.thumb
  68              		.syntax unified
  69              	.LBE77:
  70              		.loc 1 58 1 is_stmt 0 discriminator 3 view .LVU13
  71 001a 08BD     		pop	{r3, pc}
  72              		.cfi_endproc
  73              	.LFE410:
  75              		.section	.text.tusb_inited,"ax",%progbits
  76              		.align	1
  77              		.p2align 2,,3
  78              		.global	tusb_inited
  79              		.syntax unified
  80              		.thumb
  81              		.thumb_func
  83              	tusb_inited:
  84              	.LFB411:
  59:lib/tinyusb/src/tusb.c **** 
  60:lib/tinyusb/src/tusb.c **** bool tusb_inited(void) {
  85              		.loc 1 60 24 is_stmt 1 view -0
  86              		.cfi_startproc
  87              		@ args = 0, pretend = 0, frame = 0
  88              		@ frame_needed = 0, uses_anonymous_args = 0
  89              		@ link register save eliminated.
  61:lib/tinyusb/src/tusb.c ****   bool ret = false;
  90              		.loc 1 61 3 view .LVU15
  91              	.LVL2:
  62:lib/tinyusb/src/tusb.c **** 
  63:lib/tinyusb/src/tusb.c ****   #if CFG_TUD_ENABLED
  64:lib/tinyusb/src/tusb.c ****   ret = ret || tud_inited();
  92              		.loc 1 64 3 view .LVU16
  93              		.loc 1 64 16 is_stmt 0 view .LVU17
  94 0000 FFF7FEBF 		b	tud_inited
  95              	.LVL3:
  96              		.cfi_endproc
  97              	.LFE411:
  99              		.section	.text.tu_desc_find,"ax",%progbits
 100              		.align	1
 101              		.p2align 2,,3
 102              		.global	tu_desc_find
 103              		.syntax unified
ARM GAS  /tmp/claude-502/ccY3ow5l.s 			page 4


 104              		.thumb
 105              		.thumb_func
 107              	tu_desc_find:
 108              	.LVL4:
 109              	.LFB412:
  65:lib/tinyusb/src/tusb.c ****   #endif
  66:lib/tinyusb/src/tusb.c **** 
  67:lib/tinyusb/src/tusb.c ****   #if CFG_TUH_ENABLED
  68:lib/tinyusb/src/tusb.c ****   ret = ret || tuh_inited();
  69:lib/tinyusb/src/tusb.c ****   #endif
  70:lib/tinyusb/src/tusb.c **** 
  71:lib/tinyusb/src/tusb.c ****   return ret;
  72:lib/tinyusb/src/tusb.c **** }
  73:lib/tinyusb/src/tusb.c **** 
  74:lib/tinyusb/src/tusb.c **** //--------------------------------------------------------------------+
  75:lib/tinyusb/src/tusb.c **** // Descriptor helper
  76:lib/tinyusb/src/tusb.c **** //--------------------------------------------------------------------+
  77:lib/tinyusb/src/tusb.c **** 
  78:lib/tinyusb/src/tusb.c **** uint8_t const* tu_desc_find(uint8_t const* desc, uint8_t const* end, uint8_t byte1) {
 110              		.loc 1 78 85 is_stmt 1 view -0
 111              		.cfi_startproc
 112              		@ args = 0, pretend = 0, frame = 0
 113              		@ frame_needed = 0, uses_anonymous_args = 0
 114              		@ link register save eliminated.
 115              		.loc 1 78 85 is_stmt 0 view .LVU19
 116 0000 04E0     		b	.L16
 117              	.L12:
  79:lib/tinyusb/src/tusb.c ****   while (desc + 1 < end) {
  80:lib/tinyusb/src/tusb.c ****     if (desc[1] == byte1) return desc;
 118              		.loc 1 80 5 is_stmt 1 view .LVU20
  81:lib/tinyusb/src/tusb.c ****     desc += desc[DESC_OFFSET_LEN];
 119              		.loc 1 81 5 view .LVU21
  80:lib/tinyusb/src/tusb.c ****     desc += desc[DESC_OFFSET_LEN];
 120              		.loc 1 80 8 is_stmt 0 view .LVU22
 121 0002 4378     		ldrb	r3, [r0, #1]	@ zero_extendqisi2
 122 0004 9342     		cmp	r3, r2
 123 0006 05D0     		beq	.L10
 124              		.loc 1 81 17 view .LVU23
 125 0008 0378     		ldrb	r3, [r0]	@ zero_extendqisi2
 126              		.loc 1 81 10 view .LVU24
 127 000a 1844     		add	r0, r0, r3
 128              	.LVL5:
 129              	.L16:
  79:lib/tinyusb/src/tusb.c ****   while (desc + 1 < end) {
 130              		.loc 1 79 9 is_stmt 1 view .LVU25
  79:lib/tinyusb/src/tusb.c ****   while (desc + 1 < end) {
 131              		.loc 1 79 15 is_stmt 0 view .LVU26
 132 000c 431C     		adds	r3, r0, #1
  79:lib/tinyusb/src/tusb.c ****   while (desc + 1 < end) {
 133              		.loc 1 79 9 view .LVU27
 134 000e 9942     		cmp	r1, r3
 135 0010 F7D8     		bhi	.L12
  82:lib/tinyusb/src/tusb.c ****   }
  83:lib/tinyusb/src/tusb.c ****   return NULL;
 136              		.loc 1 83 10 view .LVU28
 137 0012 0020     		movs	r0, #0
 138              	.LVL6:
ARM GAS  /tmp/claude-502/ccY3ow5l.s 			page 5


 139              	.L10:
  84:lib/tinyusb/src/tusb.c **** }
 140              		.loc 1 84 1 view .LVU29
 141 0014 7047     		bx	lr
 142              		.cfi_endproc
 143              	.LFE412:
 145 0016 00BF     		.section	.text.tu_desc_find2,"ax",%progbits
 146              		.align	1
 147              		.p2align 2,,3
 148              		.global	tu_desc_find2
 149              		.syntax unified
 150              		.thumb
 151              		.thumb_func
 153              	tu_desc_find2:
 154              	.LVL7:
 155              	.LFB413:
  85:lib/tinyusb/src/tusb.c **** 
  86:lib/tinyusb/src/tusb.c **** uint8_t const* tu_desc_find2(uint8_t const* desc, uint8_t const* end, uint8_t byte1, uint8_t byte2)
 156              		.loc 1 86 101 is_stmt 1 view -0
 157              		.cfi_startproc
 158              		@ args = 0, pretend = 0, frame = 0
 159              		@ frame_needed = 0, uses_anonymous_args = 0
 160              		@ link register save eliminated.
 161              		.loc 1 86 101 is_stmt 0 view .LVU31
 162 0000 02E0     		b	.L24
 163              	.L19:
  87:lib/tinyusb/src/tusb.c ****   while (desc + 2 < end) {
  88:lib/tinyusb/src/tusb.c ****     if (desc[1] == byte1 && desc[2] == byte2) return desc;
  89:lib/tinyusb/src/tusb.c ****     desc += desc[DESC_OFFSET_LEN];
 164              		.loc 1 89 17 view .LVU32
 165 0002 90F800C0 		ldrb	ip, [r0]	@ zero_extendqisi2
 166              		.loc 1 89 10 view .LVU33
 167 0006 6044     		add	r0, r0, ip
 168              	.LVL8:
 169              	.L24:
  87:lib/tinyusb/src/tusb.c ****   while (desc + 2 < end) {
 170              		.loc 1 87 9 is_stmt 1 view .LVU34
  87:lib/tinyusb/src/tusb.c ****   while (desc + 2 < end) {
 171              		.loc 1 87 15 is_stmt 0 view .LVU35
 172 0008 00F1020C 		add	ip, r0, #2
  87:lib/tinyusb/src/tusb.c ****   while (desc + 2 < end) {
 173              		.loc 1 87 9 view .LVU36
 174 000c 6145     		cmp	r1, ip
 175 000e 08D9     		bls	.L25
  88:lib/tinyusb/src/tusb.c ****     desc += desc[DESC_OFFSET_LEN];
 176              		.loc 1 88 5 is_stmt 1 view .LVU37
 177              		.loc 1 89 5 view .LVU38
  88:lib/tinyusb/src/tusb.c ****     desc += desc[DESC_OFFSET_LEN];
 178              		.loc 1 88 8 is_stmt 0 view .LVU39
 179 0010 90F801C0 		ldrb	ip, [r0, #1]	@ zero_extendqisi2
 180 0014 9445     		cmp	ip, r2
 181 0016 F4D1     		bne	.L19
  88:lib/tinyusb/src/tusb.c ****     desc += desc[DESC_OFFSET_LEN];
 182              		.loc 1 88 26 discriminator 1 view .LVU40
 183 0018 90F802C0 		ldrb	ip, [r0, #2]	@ zero_extendqisi2
 184 001c 9C45     		cmp	ip, r3
 185 001e F0D1     		bne	.L19
ARM GAS  /tmp/claude-502/ccY3ow5l.s 			page 6


  90:lib/tinyusb/src/tusb.c ****   }
  91:lib/tinyusb/src/tusb.c ****   return NULL;
  92:lib/tinyusb/src/tusb.c **** }
 186              		.loc 1 92 1 view .LVU41
 187 0020 7047     		bx	lr
 188              	.L25:
  91:lib/tinyusb/src/tusb.c **** }
 189              		.loc 1 91 10 view .LVU42
 190 0022 0020     		movs	r0, #0
 191              	.LVL9:
 192              		.loc 1 92 1 view .LVU43
 193 0024 7047     		bx	lr
 194              		.cfi_endproc
 195              	.LFE413:
 197 0026 00BF     		.section	.text.tu_desc_find3,"ax",%progbits
 198              		.align	1
 199              		.p2align 2,,3
 200              		.global	tu_desc_find3
 201              		.syntax unified
 202              		.thumb
 203              		.thumb_func
 205              	tu_desc_find3:
 206              	.LVL10:
 207              	.LFB414:
  93:lib/tinyusb/src/tusb.c **** 
  94:lib/tinyusb/src/tusb.c **** uint8_t const* tu_desc_find3(uint8_t const* desc, uint8_t const* end, uint8_t byte1, uint8_t byte2,
 208              		.loc 1 94 116 is_stmt 1 view -0
 209              		.cfi_startproc
 210              		@ args = 4, pretend = 0, frame = 0
 211              		@ frame_needed = 0, uses_anonymous_args = 0
  95:lib/tinyusb/src/tusb.c ****   while (desc + 3 < end) {
 212              		.loc 1 95 3 view .LVU45
 213              		.loc 1 95 9 view .LVU46
 214              		.loc 1 95 15 is_stmt 0 view .LVU47
 215 0000 00F1030C 		add	ip, r0, #3
 216              		.loc 1 95 9 view .LVU48
 217 0004 6145     		cmp	r1, ip
  94:lib/tinyusb/src/tusb.c ****   while (desc + 3 < end) {
 218              		.loc 1 94 116 view .LVU49
 219 0006 00B5     		push	{lr}
 220              		.cfi_def_cfa_offset 4
 221              		.cfi_offset 14, -4
  94:lib/tinyusb/src/tusb.c ****   while (desc + 3 < end) {
 222              		.loc 1 94 116 view .LVU50
 223 0008 9DF804E0 		ldrb	lr, [sp, #4]	@ zero_extendqisi2
 224              		.loc 1 95 9 view .LVU51
 225 000c 07D8     		bhi	.L29
 226 000e 14E0     		b	.L30
 227              	.L28:
  96:lib/tinyusb/src/tusb.c ****     if (desc[1] == byte1 && desc[2] == byte2 && desc[3] == byte3) return desc;
  97:lib/tinyusb/src/tusb.c ****     desc += desc[DESC_OFFSET_LEN];
 228              		.loc 1 97 17 view .LVU52
 229 0010 90F800C0 		ldrb	ip, [r0]	@ zero_extendqisi2
 230              		.loc 1 97 10 view .LVU53
 231 0014 6044     		add	r0, r0, ip
 232              	.LVL11:
  95:lib/tinyusb/src/tusb.c ****     if (desc[1] == byte1 && desc[2] == byte2 && desc[3] == byte3) return desc;
ARM GAS  /tmp/claude-502/ccY3ow5l.s 			page 7


 233              		.loc 1 95 9 is_stmt 1 view .LVU54
  95:lib/tinyusb/src/tusb.c ****     if (desc[1] == byte1 && desc[2] == byte2 && desc[3] == byte3) return desc;
 234              		.loc 1 95 15 is_stmt 0 view .LVU55
 235 0016 00F1030C 		add	ip, r0, #3
  95:lib/tinyusb/src/tusb.c ****     if (desc[1] == byte1 && desc[2] == byte2 && desc[3] == byte3) return desc;
 236              		.loc 1 95 9 view .LVU56
 237 001a 6145     		cmp	r1, ip
 238 001c 0DD9     		bls	.L30
 239              	.L29:
  96:lib/tinyusb/src/tusb.c ****     if (desc[1] == byte1 && desc[2] == byte2 && desc[3] == byte3) return desc;
 240              		.loc 1 96 5 is_stmt 1 view .LVU57
 241              		.loc 1 97 5 view .LVU58
  96:lib/tinyusb/src/tusb.c ****     if (desc[1] == byte1 && desc[2] == byte2 && desc[3] == byte3) return desc;
 242              		.loc 1 96 8 is_stmt 0 view .LVU59
 243 001e 90F801C0 		ldrb	ip, [r0, #1]	@ zero_extendqisi2
 244 0022 9445     		cmp	ip, r2
 245 0024 F4D1     		bne	.L28
  96:lib/tinyusb/src/tusb.c ****     if (desc[1] == byte1 && desc[2] == byte2 && desc[3] == byte3) return desc;
 246              		.loc 1 96 26 discriminator 1 view .LVU60
 247 0026 90F802C0 		ldrb	ip, [r0, #2]	@ zero_extendqisi2
 248 002a 9C45     		cmp	ip, r3
 249 002c F0D1     		bne	.L28
  96:lib/tinyusb/src/tusb.c ****     if (desc[1] == byte1 && desc[2] == byte2 && desc[3] == byte3) return desc;
 250              		.loc 1 96 46 discriminator 2 view .LVU61
 251 002e 90F803C0 		ldrb	ip, [r0, #3]	@ zero_extendqisi2
 252 0032 F445     		cmp	ip, lr
 253 0034 ECD1     		bne	.L28
  98:lib/tinyusb/src/tusb.c ****   }
  99:lib/tinyusb/src/tusb.c ****   return NULL;
 100:lib/tinyusb/src/tusb.c **** }
 254              		.loc 1 100 1 view .LVU62
 255 0036 5DF804FB 		ldr	pc, [sp], #4
 256              	.LVL12:
 257              	.L30:
  99:lib/tinyusb/src/tusb.c **** }
 258              		.loc 1 99 10 view .LVU63
 259 003a 0020     		movs	r0, #0
 260              	.LVL13:
 261              		.loc 1 100 1 view .LVU64
 262 003c 5DF804FB 		ldr	pc, [sp], #4
 263              		.loc 1 100 1 view .LVU65
 264              		.cfi_endproc
 265              	.LFE414:
 267              		.section	.text.tu_edpt_claim,"ax",%progbits
 268              		.align	1
 269              		.p2align 2,,3
 270              		.global	tu_edpt_claim
 271              		.syntax unified
 272              		.thumb
 273              		.thumb_func
 275              	tu_edpt_claim:
 276              	.LVL14:
 277              	.LFB415:
 101:lib/tinyusb/src/tusb.c **** 
 102:lib/tinyusb/src/tusb.c **** //--------------------------------------------------------------------+
 103:lib/tinyusb/src/tusb.c **** // Endpoint Helper for both Host and Device stack
 104:lib/tinyusb/src/tusb.c **** //--------------------------------------------------------------------+
ARM GAS  /tmp/claude-502/ccY3ow5l.s 			page 8


 105:lib/tinyusb/src/tusb.c **** 
 106:lib/tinyusb/src/tusb.c **** bool tu_edpt_claim(tu_edpt_state_t* ep_state, osal_mutex_t mutex) {
 278              		.loc 1 106 67 is_stmt 1 view -0
 279              		.cfi_startproc
 280              		@ args = 0, pretend = 0, frame = 0
 281              		@ frame_needed = 0, uses_anonymous_args = 0
 282              		@ link register save eliminated.
 107:lib/tinyusb/src/tusb.c ****   (void) mutex;
 283              		.loc 1 107 3 view .LVU67
 108:lib/tinyusb/src/tusb.c **** 
 109:lib/tinyusb/src/tusb.c ****   // pre-check to help reducing mutex lock
 110:lib/tinyusb/src/tusb.c ****   TU_VERIFY((ep_state->busy == 0) && (ep_state->claimed == 0));
 284              		.loc 1 110 3 view .LVU68
 285              		.loc 1 110 3 view .LVU69
 286 0000 0378     		ldrb	r3, [r0]	@ zero_extendqisi2
 106:lib/tinyusb/src/tusb.c ****   (void) mutex;
 287              		.loc 1 106 67 is_stmt 0 view .LVU70
 288 0002 0246     		mov	r2, r0
 289              		.loc 1 110 3 view .LVU71
 290 0004 13F00100 		ands	r0, r3, #1
 291              	.LVL15:
 292              		.loc 1 110 3 view .LVU72
 293 0008 0FD1     		bne	.L37
 294              		.loc 1 110 3 discriminator 2 view .LVU73
 295 000a 1378     		ldrb	r3, [r2]	@ zero_extendqisi2
 296 000c 5907     		lsls	r1, r3, #29
 297              	.LVL16:
 298              		.loc 1 110 3 discriminator 2 view .LVU74
 299 000e 0BD4     		bmi	.L39
 300              		.loc 1 110 3 is_stmt 1 discriminator 4 view .LVU75
 111:lib/tinyusb/src/tusb.c ****   (void) osal_mutex_lock(mutex, OSAL_TIMEOUT_WAIT_FOREVER);
 301              		.loc 1 111 3 discriminator 4 view .LVU76
 112:lib/tinyusb/src/tusb.c **** 
 113:lib/tinyusb/src/tusb.c ****   // can only claim the endpoint if it is not busy and not claimed yet.
 114:lib/tinyusb/src/tusb.c ****   bool const available = (ep_state->busy == 0) && (ep_state->claimed == 0);
 302              		.loc 1 114 3 discriminator 4 view .LVU77
 303              		.loc 1 114 35 is_stmt 0 discriminator 4 view .LVU78
 304 0010 1378     		ldrb	r3, [r2]	@ zero_extendqisi2
 305              		.loc 1 114 48 discriminator 4 view .LVU79
 306 0012 13F00100 		ands	r0, r3, #1
 307 0016 08D1     		bne	.L37
 308              		.loc 1 114 60 discriminator 1 view .LVU80
 309 0018 1378     		ldrb	r3, [r2]	@ zero_extendqisi2
 310              		.loc 1 114 48 discriminator 1 view .LVU81
 311 001a 5B07     		lsls	r3, r3, #29
 312 001c 07D4     		bmi	.L40
 313              	.LVL17:
 115:lib/tinyusb/src/tusb.c ****   if (available) {
 314              		.loc 1 115 3 is_stmt 1 view .LVU82
 116:lib/tinyusb/src/tusb.c ****     ep_state->claimed = 1;
 315              		.loc 1 116 5 view .LVU83
 316              		.loc 1 116 23 is_stmt 0 view .LVU84
 317 001e 1378     		ldrb	r3, [r2]	@ zero_extendqisi2
 318 0020 0120     		movs	r0, #1
 319              	.LVL18:
 320              		.loc 1 116 23 view .LVU85
 321 0022 43F00403 		orr	r3, r3, #4
ARM GAS  /tmp/claude-502/ccY3ow5l.s 			page 9


 322 0026 1370     		strb	r3, [r2]
 323              	.L39:
 117:lib/tinyusb/src/tusb.c ****   }
 118:lib/tinyusb/src/tusb.c **** 
 119:lib/tinyusb/src/tusb.c ****   (void) osal_mutex_unlock(mutex);
 120:lib/tinyusb/src/tusb.c ****   return available;
 121:lib/tinyusb/src/tusb.c **** }
 324              		.loc 1 121 1 view .LVU86
 325 0028 7047     		bx	lr
 326              	.L37:
 110:lib/tinyusb/src/tusb.c ****   (void) osal_mutex_lock(mutex, OSAL_TIMEOUT_WAIT_FOREVER);
 327              		.loc 1 110 3 view .LVU87
 328 002a 0020     		movs	r0, #0
 329 002c 7047     		bx	lr
 330              	.L40:
 331 002e 7047     		bx	lr
 332              		.cfi_endproc
 333              	.LFE415:
 335              		.section	.text.tu_edpt_release,"ax",%progbits
 336              		.align	1
 337              		.p2align 2,,3
 338              		.global	tu_edpt_release
 339              		.syntax unified
 340              		.thumb
 341              		.thumb_func
 343              	tu_edpt_release:
 344              	.LVL19:
 345              	.LFB416:
 122:lib/tinyusb/src/tusb.c **** 
 123:lib/tinyusb/src/tusb.c **** bool tu_edpt_release(tu_edpt_state_t* ep_state, osal_mutex_t mutex) {
 346              		.loc 1 123 69 is_stmt 1 view -0
 347              		.cfi_startproc
 348              		@ args = 0, pretend = 0, frame = 0
 349              		@ frame_needed = 0, uses_anonymous_args = 0
 350              		@ link register save eliminated.
 124:lib/tinyusb/src/tusb.c ****   (void) mutex;
 351              		.loc 1 124 3 view .LVU89
 125:lib/tinyusb/src/tusb.c ****   (void) osal_mutex_lock(mutex, OSAL_TIMEOUT_WAIT_FOREVER);
 352              		.loc 1 125 3 view .LVU90
 126:lib/tinyusb/src/tusb.c **** 
 127:lib/tinyusb/src/tusb.c ****   // can only release the endpoint if it is claimed and not busy
 128:lib/tinyusb/src/tusb.c ****   bool const ret = (ep_state->claimed == 1) && (ep_state->busy == 0);
 353              		.loc 1 128 3 view .LVU91
 354              		.loc 1 128 29 is_stmt 0 view .LVU92
 355 0000 0378     		ldrb	r3, [r0]	@ zero_extendqisi2
 356 0002 C3F38002 		ubfx	r2, r3, #2, #1
 357              		.loc 1 128 45 view .LVU93
 358 0006 5B07     		lsls	r3, r3, #29
 359 0008 01D4     		bmi	.L45
 129:lib/tinyusb/src/tusb.c ****   if (ret) {
 130:lib/tinyusb/src/tusb.c ****     ep_state->claimed = 0;
 131:lib/tinyusb/src/tusb.c ****   }
 132:lib/tinyusb/src/tusb.c **** 
 133:lib/tinyusb/src/tusb.c ****   (void) osal_mutex_unlock(mutex);
 134:lib/tinyusb/src/tusb.c ****   return ret;
 135:lib/tinyusb/src/tusb.c **** }
 360              		.loc 1 135 1 view .LVU94
ARM GAS  /tmp/claude-502/ccY3ow5l.s 			page 10


 361 000a 1046     		mov	r0, r2
 362              	.LVL20:
 363              		.loc 1 135 1 view .LVU95
 364 000c 7047     		bx	lr
 365              	.LVL21:
 366              	.L45:
 128:lib/tinyusb/src/tusb.c ****   if (ret) {
 367              		.loc 1 128 57 discriminator 1 view .LVU96
 368 000e 0378     		ldrb	r3, [r0]	@ zero_extendqisi2
 128:lib/tinyusb/src/tusb.c ****   if (ret) {
 369              		.loc 1 128 45 discriminator 1 view .LVU97
 370 0010 13F00101 		ands	r1, r3, #1
 371              	.LVL22:
 128:lib/tinyusb/src/tusb.c ****   if (ret) {
 372              		.loc 1 128 45 discriminator 1 view .LVU98
 373 0014 05D1     		bne	.L46
 374              	.LVL23:
 129:lib/tinyusb/src/tusb.c ****   if (ret) {
 375              		.loc 1 129 3 is_stmt 1 view .LVU99
 130:lib/tinyusb/src/tusb.c ****   }
 376              		.loc 1 130 5 view .LVU100
 130:lib/tinyusb/src/tusb.c ****   }
 377              		.loc 1 130 23 is_stmt 0 view .LVU101
 378 0016 0378     		ldrb	r3, [r0]	@ zero_extendqisi2
 379 0018 61F38203 		bfi	r3, r1, #2, #1
 380 001c 0370     		strb	r3, [r0]
 381              	.LVL24:
 133:lib/tinyusb/src/tusb.c ****   return ret;
 382              		.loc 1 133 3 is_stmt 1 view .LVU102
 134:lib/tinyusb/src/tusb.c **** }
 383              		.loc 1 134 3 view .LVU103
 384              		.loc 1 135 1 is_stmt 0 view .LVU104
 385 001e 1046     		mov	r0, r2
 386              	.LVL25:
 387              		.loc 1 135 1 view .LVU105
 388 0020 7047     		bx	lr
 389              	.LVL26:
 390              	.L46:
 128:lib/tinyusb/src/tusb.c ****   if (ret) {
 391              		.loc 1 128 14 view .LVU106
 392 0022 0022     		movs	r2, #0
 393              		.loc 1 135 1 view .LVU107
 394 0024 1046     		mov	r0, r2
 395              	.LVL27:
 396              		.loc 1 135 1 view .LVU108
 397 0026 7047     		bx	lr
 398              		.cfi_endproc
 399              	.LFE416:
 401              		.section	.text.tu_edpt_validate,"ax",%progbits
 402              		.align	1
 403              		.p2align 2,,3
 404              		.global	tu_edpt_validate
 405              		.syntax unified
 406              		.thumb
 407              		.thumb_func
 409              	tu_edpt_validate:
 410              	.LVL28:
ARM GAS  /tmp/claude-502/ccY3ow5l.s 			page 11


 411              	.LFB417:
 136:lib/tinyusb/src/tusb.c **** 
 137:lib/tinyusb/src/tusb.c **** bool tu_edpt_validate(tusb_desc_endpoint_t const* desc_ep, tusb_speed_t speed) {
 412              		.loc 1 137 80 is_stmt 1 view -0
 413              		.cfi_startproc
 414              		@ args = 0, pretend = 0, frame = 0
 415              		@ frame_needed = 0, uses_anonymous_args = 0
 416              		@ link register save eliminated.
 138:lib/tinyusb/src/tusb.c ****   uint16_t const max_packet_size = tu_edpt_packet_size(desc_ep);
 417              		.loc 1 138 3 view .LVU110
 418              	.LBB78:
 419              	.LBI78:
 420              		.file 2 "lib/tinyusb/src/common/tusb_types.h"
   1:lib/tinyusb/src/common/tusb_types.h **** /*
   2:lib/tinyusb/src/common/tusb_types.h ****  * The MIT License (MIT)
   3:lib/tinyusb/src/common/tusb_types.h ****  *
   4:lib/tinyusb/src/common/tusb_types.h ****  * Copyright (c) 2019 Ha Thach (tinyusb.org)
   5:lib/tinyusb/src/common/tusb_types.h ****  *
   6:lib/tinyusb/src/common/tusb_types.h ****  * Permission is hereby granted, free of charge, to any person obtaining a copy
   7:lib/tinyusb/src/common/tusb_types.h ****  * of this software and associated documentation files (the "Software"), to deal
   8:lib/tinyusb/src/common/tusb_types.h ****  * in the Software without restriction, including without limitation the rights
   9:lib/tinyusb/src/common/tusb_types.h ****  * to use, copy, modify, merge, publish, distribute, sublicense, and/or sell
  10:lib/tinyusb/src/common/tusb_types.h ****  * copies of the Software, and to permit persons to whom the Software is
  11:lib/tinyusb/src/common/tusb_types.h ****  * furnished to do so, subject to the following conditions:
  12:lib/tinyusb/src/common/tusb_types.h ****  *
  13:lib/tinyusb/src/common/tusb_types.h ****  * The above copyright notice and this permission notice shall be included in
  14:lib/tinyusb/src/common/tusb_types.h ****  * all copies or substantial portions of the Software.
  15:lib/tinyusb/src/common/tusb_types.h ****  *
  16:lib/tinyusb/src/common/tusb_types.h ****  * THE SOFTWARE IS PROVIDED "AS IS", WITHOUT WARRANTY OF ANY KIND, EXPRESS OR
  17:lib/tinyusb/src/common/tusb_types.h ****  * IMPLIED, INCLUDING BUT NOT LIMITED TO THE WARRANTIES OF MERCHANTABILITY,
  18:lib/tinyusb/src/common/tusb_types.h ****  * FITNESS FOR A PARTICULAR PURPOSE AND NONINFRINGEMENT. IN NO EVENT SHALL THE
  19:lib/tinyusb/src/common/tusb_types.h ****  * AUTHORS OR COPYRIGHT HOLDERS BE LIABLE FOR ANY CLAIM, DAMAGES OR OTHER
  20:lib/tinyusb/src/common/tusb_types.h ****  * LIABILITY, WHETHER IN AN ACTION OF CONTRACT, TORT OR OTHERWISE, ARISING FROM,
  21:lib/tinyusb/src/common/tusb_types.h ****  * OUT OF OR IN CONNECTION WITH THE SOFTWARE OR THE USE OR OTHER DEALINGS IN
  22:lib/tinyusb/src/common/tusb_types.h ****  * THE SOFTWARE.
  23:lib/tinyusb/src/common/tusb_types.h ****  *
  24:lib/tinyusb/src/common/tusb_types.h ****  * This file is part of the TinyUSB stack.
  25:lib/tinyusb/src/common/tusb_types.h ****  */
  26:lib/tinyusb/src/common/tusb_types.h **** 
  27:lib/tinyusb/src/common/tusb_types.h **** #ifndef TUSB_TYPES_H_
  28:lib/tinyusb/src/common/tusb_types.h **** #define TUSB_TYPES_H_
  29:lib/tinyusb/src/common/tusb_types.h **** 
  30:lib/tinyusb/src/common/tusb_types.h **** #include <stdbool.h>
  31:lib/tinyusb/src/common/tusb_types.h **** #include <stdint.h>
  32:lib/tinyusb/src/common/tusb_types.h **** #include "tusb_compiler.h"
  33:lib/tinyusb/src/common/tusb_types.h **** 
  34:lib/tinyusb/src/common/tusb_types.h **** #ifdef __cplusplus
  35:lib/tinyusb/src/common/tusb_types.h ****  extern "C" {
  36:lib/tinyusb/src/common/tusb_types.h **** #endif
  37:lib/tinyusb/src/common/tusb_types.h **** 
  38:lib/tinyusb/src/common/tusb_types.h **** /*------------------------------------------------------------------*/
  39:lib/tinyusb/src/common/tusb_types.h **** /* CONSTANTS
  40:lib/tinyusb/src/common/tusb_types.h ****  *------------------------------------------------------------------*/
  41:lib/tinyusb/src/common/tusb_types.h **** 
  42:lib/tinyusb/src/common/tusb_types.h **** /// defined base on EHCI specs value for Endpoint Speed
  43:lib/tinyusb/src/common/tusb_types.h **** typedef enum {
  44:lib/tinyusb/src/common/tusb_types.h ****   TUSB_SPEED_FULL = 0,
ARM GAS  /tmp/claude-502/ccY3ow5l.s 			page 12


  45:lib/tinyusb/src/common/tusb_types.h ****   TUSB_SPEED_LOW  = 1,
  46:lib/tinyusb/src/common/tusb_types.h ****   TUSB_SPEED_HIGH = 2,
  47:lib/tinyusb/src/common/tusb_types.h ****   TUSB_SPEED_INVALID = 0xff,
  48:lib/tinyusb/src/common/tusb_types.h **** } tusb_speed_t;
  49:lib/tinyusb/src/common/tusb_types.h **** 
  50:lib/tinyusb/src/common/tusb_types.h **** /// defined base on USB Specs Endpoint's bmAttributes
  51:lib/tinyusb/src/common/tusb_types.h **** typedef enum {
  52:lib/tinyusb/src/common/tusb_types.h ****   TUSB_XFER_CONTROL = 0 ,
  53:lib/tinyusb/src/common/tusb_types.h ****   TUSB_XFER_ISOCHRONOUS ,
  54:lib/tinyusb/src/common/tusb_types.h ****   TUSB_XFER_BULK        ,
  55:lib/tinyusb/src/common/tusb_types.h ****   TUSB_XFER_INTERRUPT
  56:lib/tinyusb/src/common/tusb_types.h **** } tusb_xfer_type_t;
  57:lib/tinyusb/src/common/tusb_types.h **** 
  58:lib/tinyusb/src/common/tusb_types.h **** typedef enum {
  59:lib/tinyusb/src/common/tusb_types.h ****   TUSB_DIR_OUT = 0,
  60:lib/tinyusb/src/common/tusb_types.h ****   TUSB_DIR_IN  = 1,
  61:lib/tinyusb/src/common/tusb_types.h **** 
  62:lib/tinyusb/src/common/tusb_types.h ****   TUSB_DIR_IN_MASK = 0x80
  63:lib/tinyusb/src/common/tusb_types.h **** } tusb_dir_t;
  64:lib/tinyusb/src/common/tusb_types.h **** 
  65:lib/tinyusb/src/common/tusb_types.h **** enum {
  66:lib/tinyusb/src/common/tusb_types.h ****   TUSB_EPSIZE_BULK_FS = 64,
  67:lib/tinyusb/src/common/tusb_types.h ****   TUSB_EPSIZE_BULK_HS = 512,
  68:lib/tinyusb/src/common/tusb_types.h **** 
  69:lib/tinyusb/src/common/tusb_types.h ****   TUSB_EPSIZE_ISO_FS_MAX = 1023,
  70:lib/tinyusb/src/common/tusb_types.h ****   TUSB_EPSIZE_ISO_HS_MAX = 1024,
  71:lib/tinyusb/src/common/tusb_types.h **** };
  72:lib/tinyusb/src/common/tusb_types.h **** 
  73:lib/tinyusb/src/common/tusb_types.h **** /// Isochronous Endpoint Attributes
  74:lib/tinyusb/src/common/tusb_types.h **** typedef enum {
  75:lib/tinyusb/src/common/tusb_types.h ****   TUSB_ISO_EP_ATT_NO_SYNC         = 0x00,
  76:lib/tinyusb/src/common/tusb_types.h ****   TUSB_ISO_EP_ATT_ASYNCHRONOUS    = 0x04,
  77:lib/tinyusb/src/common/tusb_types.h ****   TUSB_ISO_EP_ATT_ADAPTIVE        = 0x08,
  78:lib/tinyusb/src/common/tusb_types.h ****   TUSB_ISO_EP_ATT_SYNCHRONOUS     = 0x0C,
  79:lib/tinyusb/src/common/tusb_types.h ****   TUSB_ISO_EP_ATT_DATA            = 0x00, ///< Data End Point
  80:lib/tinyusb/src/common/tusb_types.h ****   TUSB_ISO_EP_ATT_EXPLICIT_FB     = 0x10, ///< Feedback End Point
  81:lib/tinyusb/src/common/tusb_types.h ****   TUSB_ISO_EP_ATT_IMPLICIT_FB     = 0x20, ///< Data endpoint that also serves as an implicit feedba
  82:lib/tinyusb/src/common/tusb_types.h **** } tusb_iso_ep_attribute_t;
  83:lib/tinyusb/src/common/tusb_types.h **** 
  84:lib/tinyusb/src/common/tusb_types.h **** /// USB Descriptor Types
  85:lib/tinyusb/src/common/tusb_types.h **** typedef enum {
  86:lib/tinyusb/src/common/tusb_types.h ****   TUSB_DESC_DEVICE                = 0x01,
  87:lib/tinyusb/src/common/tusb_types.h ****   TUSB_DESC_CONFIGURATION         = 0x02,
  88:lib/tinyusb/src/common/tusb_types.h ****   TUSB_DESC_STRING                = 0x03,
  89:lib/tinyusb/src/common/tusb_types.h ****   TUSB_DESC_INTERFACE             = 0x04,
  90:lib/tinyusb/src/common/tusb_types.h ****   TUSB_DESC_ENDPOINT              = 0x05,
  91:lib/tinyusb/src/common/tusb_types.h ****   TUSB_DESC_DEVICE_QUALIFIER      = 0x06,
  92:lib/tinyusb/src/common/tusb_types.h ****   TUSB_DESC_OTHER_SPEED_CONFIG    = 0x07,
  93:lib/tinyusb/src/common/tusb_types.h ****   TUSB_DESC_INTERFACE_POWER       = 0x08,
  94:lib/tinyusb/src/common/tusb_types.h ****   TUSB_DESC_OTG                   = 0x09,
  95:lib/tinyusb/src/common/tusb_types.h ****   TUSB_DESC_DEBUG                 = 0x0A,
  96:lib/tinyusb/src/common/tusb_types.h ****   TUSB_DESC_INTERFACE_ASSOCIATION = 0x0B,
  97:lib/tinyusb/src/common/tusb_types.h **** 
  98:lib/tinyusb/src/common/tusb_types.h ****   TUSB_DESC_BOS                   = 0x0F,
  99:lib/tinyusb/src/common/tusb_types.h ****   TUSB_DESC_DEVICE_CAPABILITY     = 0x10,
 100:lib/tinyusb/src/common/tusb_types.h **** 
 101:lib/tinyusb/src/common/tusb_types.h ****   TUSB_DESC_FUNCTIONAL            = 0x21,
ARM GAS  /tmp/claude-502/ccY3ow5l.s 			page 13


 102:lib/tinyusb/src/common/tusb_types.h **** 
 103:lib/tinyusb/src/common/tusb_types.h ****   // Class Specific Descriptor
 104:lib/tinyusb/src/common/tusb_types.h ****   TUSB_DESC_CS_DEVICE             = 0x21,
 105:lib/tinyusb/src/common/tusb_types.h ****   TUSB_DESC_CS_CONFIGURATION      = 0x22,
 106:lib/tinyusb/src/common/tusb_types.h ****   TUSB_DESC_CS_STRING             = 0x23,
 107:lib/tinyusb/src/common/tusb_types.h ****   TUSB_DESC_CS_INTERFACE          = 0x24,
 108:lib/tinyusb/src/common/tusb_types.h ****   TUSB_DESC_CS_ENDPOINT           = 0x25,
 109:lib/tinyusb/src/common/tusb_types.h **** 
 110:lib/tinyusb/src/common/tusb_types.h ****   TUSB_DESC_SUPERSPEED_ENDPOINT_COMPANION     = 0x30,
 111:lib/tinyusb/src/common/tusb_types.h ****   TUSB_DESC_SUPERSPEED_ISO_ENDPOINT_COMPANION = 0x31
 112:lib/tinyusb/src/common/tusb_types.h **** } tusb_desc_type_t;
 113:lib/tinyusb/src/common/tusb_types.h **** 
 114:lib/tinyusb/src/common/tusb_types.h **** typedef enum {
 115:lib/tinyusb/src/common/tusb_types.h ****   TUSB_REQ_GET_STATUS        = 0  ,
 116:lib/tinyusb/src/common/tusb_types.h ****   TUSB_REQ_CLEAR_FEATURE     = 1  ,
 117:lib/tinyusb/src/common/tusb_types.h ****   TUSB_REQ_RESERVED          = 2  ,
 118:lib/tinyusb/src/common/tusb_types.h ****   TUSB_REQ_SET_FEATURE       = 3  ,
 119:lib/tinyusb/src/common/tusb_types.h ****   TUSB_REQ_RESERVED2         = 4  ,
 120:lib/tinyusb/src/common/tusb_types.h ****   TUSB_REQ_SET_ADDRESS       = 5  ,
 121:lib/tinyusb/src/common/tusb_types.h ****   TUSB_REQ_GET_DESCRIPTOR    = 6  ,
 122:lib/tinyusb/src/common/tusb_types.h ****   TUSB_REQ_SET_DESCRIPTOR    = 7  ,
 123:lib/tinyusb/src/common/tusb_types.h ****   TUSB_REQ_GET_CONFIGURATION = 8  ,
 124:lib/tinyusb/src/common/tusb_types.h ****   TUSB_REQ_SET_CONFIGURATION = 9  ,
 125:lib/tinyusb/src/common/tusb_types.h ****   TUSB_REQ_GET_INTERFACE     = 10 ,
 126:lib/tinyusb/src/common/tusb_types.h ****   TUSB_REQ_SET_INTERFACE     = 11 ,
 127:lib/tinyusb/src/common/tusb_types.h ****   TUSB_REQ_SYNCH_FRAME       = 12
 128:lib/tinyusb/src/common/tusb_types.h **** } tusb_request_code_t;
 129:lib/tinyusb/src/common/tusb_types.h **** 
 130:lib/tinyusb/src/common/tusb_types.h **** typedef enum {
 131:lib/tinyusb/src/common/tusb_types.h ****   TUSB_REQ_FEATURE_EDPT_HALT     = 0,
 132:lib/tinyusb/src/common/tusb_types.h ****   TUSB_REQ_FEATURE_REMOTE_WAKEUP = 1,
 133:lib/tinyusb/src/common/tusb_types.h ****   TUSB_REQ_FEATURE_TEST_MODE     = 2
 134:lib/tinyusb/src/common/tusb_types.h **** } tusb_request_feature_selector_t;
 135:lib/tinyusb/src/common/tusb_types.h **** 
 136:lib/tinyusb/src/common/tusb_types.h **** typedef enum {
 137:lib/tinyusb/src/common/tusb_types.h ****   TUSB_REQ_TYPE_STANDARD = 0,
 138:lib/tinyusb/src/common/tusb_types.h ****   TUSB_REQ_TYPE_CLASS,
 139:lib/tinyusb/src/common/tusb_types.h ****   TUSB_REQ_TYPE_VENDOR,
 140:lib/tinyusb/src/common/tusb_types.h ****   TUSB_REQ_TYPE_INVALID
 141:lib/tinyusb/src/common/tusb_types.h **** } tusb_request_type_t;
 142:lib/tinyusb/src/common/tusb_types.h **** 
 143:lib/tinyusb/src/common/tusb_types.h **** typedef enum {
 144:lib/tinyusb/src/common/tusb_types.h ****   TUSB_REQ_RCPT_DEVICE =0,
 145:lib/tinyusb/src/common/tusb_types.h ****   TUSB_REQ_RCPT_INTERFACE,
 146:lib/tinyusb/src/common/tusb_types.h ****   TUSB_REQ_RCPT_ENDPOINT,
 147:lib/tinyusb/src/common/tusb_types.h ****   TUSB_REQ_RCPT_OTHER
 148:lib/tinyusb/src/common/tusb_types.h **** } tusb_request_recipient_t;
 149:lib/tinyusb/src/common/tusb_types.h **** 
 150:lib/tinyusb/src/common/tusb_types.h **** // https://www.usb.org/defined-class-codes
 151:lib/tinyusb/src/common/tusb_types.h **** typedef enum {
 152:lib/tinyusb/src/common/tusb_types.h ****   TUSB_CLASS_UNSPECIFIED          = 0    ,
 153:lib/tinyusb/src/common/tusb_types.h ****   TUSB_CLASS_AUDIO                = 1    ,
 154:lib/tinyusb/src/common/tusb_types.h ****   TUSB_CLASS_CDC                  = 2    ,
 155:lib/tinyusb/src/common/tusb_types.h ****   TUSB_CLASS_HID                  = 3    ,
 156:lib/tinyusb/src/common/tusb_types.h ****   TUSB_CLASS_RESERVED_4           = 4    ,
 157:lib/tinyusb/src/common/tusb_types.h ****   TUSB_CLASS_PHYSICAL             = 5    ,
 158:lib/tinyusb/src/common/tusb_types.h ****   TUSB_CLASS_IMAGE                = 6    ,
ARM GAS  /tmp/claude-502/ccY3ow5l.s 			page 14


 159:lib/tinyusb/src/common/tusb_types.h ****   TUSB_CLASS_PRINTER              = 7    ,
 160:lib/tinyusb/src/common/tusb_types.h ****   TUSB_CLASS_MSC                  = 8    ,
 161:lib/tinyusb/src/common/tusb_types.h ****   TUSB_CLASS_HUB                  = 9    ,
 162:lib/tinyusb/src/common/tusb_types.h ****   TUSB_CLASS_CDC_DATA             = 10   ,
 163:lib/tinyusb/src/common/tusb_types.h ****   TUSB_CLASS_SMART_CARD           = 11   ,
 164:lib/tinyusb/src/common/tusb_types.h ****   TUSB_CLASS_RESERVED_12          = 12   ,
 165:lib/tinyusb/src/common/tusb_types.h ****   TUSB_CLASS_CONTENT_SECURITY     = 13   ,
 166:lib/tinyusb/src/common/tusb_types.h ****   TUSB_CLASS_VIDEO                = 14   ,
 167:lib/tinyusb/src/common/tusb_types.h ****   TUSB_CLASS_PERSONAL_HEALTHCARE  = 15   ,
 168:lib/tinyusb/src/common/tusb_types.h ****   TUSB_CLASS_AUDIO_VIDEO          = 16   ,
 169:lib/tinyusb/src/common/tusb_types.h **** 
 170:lib/tinyusb/src/common/tusb_types.h ****   TUSB_CLASS_DIAGNOSTIC           = 0xDC ,
 171:lib/tinyusb/src/common/tusb_types.h ****   TUSB_CLASS_WIRELESS_CONTROLLER  = 0xE0 ,
 172:lib/tinyusb/src/common/tusb_types.h ****   TUSB_CLASS_MISC                 = 0xEF ,
 173:lib/tinyusb/src/common/tusb_types.h ****   TUSB_CLASS_APPLICATION_SPECIFIC = 0xFE ,
 174:lib/tinyusb/src/common/tusb_types.h ****   TUSB_CLASS_VENDOR_SPECIFIC      = 0xFF
 175:lib/tinyusb/src/common/tusb_types.h **** } tusb_class_code_t;
 176:lib/tinyusb/src/common/tusb_types.h **** 
 177:lib/tinyusb/src/common/tusb_types.h **** typedef enum
 178:lib/tinyusb/src/common/tusb_types.h **** {
 179:lib/tinyusb/src/common/tusb_types.h ****   MISC_SUBCLASS_COMMON = 2
 180:lib/tinyusb/src/common/tusb_types.h **** }misc_subclass_type_t;
 181:lib/tinyusb/src/common/tusb_types.h **** 
 182:lib/tinyusb/src/common/tusb_types.h **** typedef enum {
 183:lib/tinyusb/src/common/tusb_types.h ****   MISC_PROTOCOL_IAD = 1
 184:lib/tinyusb/src/common/tusb_types.h **** } misc_protocol_type_t;
 185:lib/tinyusb/src/common/tusb_types.h **** 
 186:lib/tinyusb/src/common/tusb_types.h **** typedef enum {
 187:lib/tinyusb/src/common/tusb_types.h ****   APP_SUBCLASS_USBTMC = 0x03,
 188:lib/tinyusb/src/common/tusb_types.h ****   APP_SUBCLASS_DFU_RUNTIME = 0x01
 189:lib/tinyusb/src/common/tusb_types.h **** } app_subclass_type_t;
 190:lib/tinyusb/src/common/tusb_types.h **** 
 191:lib/tinyusb/src/common/tusb_types.h **** typedef enum {
 192:lib/tinyusb/src/common/tusb_types.h ****   DEVICE_CAPABILITY_WIRELESS_USB               = 0x01,
 193:lib/tinyusb/src/common/tusb_types.h ****   DEVICE_CAPABILITY_USB20_EXTENSION            = 0x02,
 194:lib/tinyusb/src/common/tusb_types.h ****   DEVICE_CAPABILITY_SUPERSPEED_USB             = 0x03,
 195:lib/tinyusb/src/common/tusb_types.h ****   DEVICE_CAPABILITY_CONTAINER_id               = 0x04,
 196:lib/tinyusb/src/common/tusb_types.h ****   DEVICE_CAPABILITY_PLATFORM                   = 0x05,
 197:lib/tinyusb/src/common/tusb_types.h ****   DEVICE_CAPABILITY_POWER_DELIVERY             = 0x06,
 198:lib/tinyusb/src/common/tusb_types.h ****   DEVICE_CAPABILITY_BATTERY_INFO               = 0x07,
 199:lib/tinyusb/src/common/tusb_types.h ****   DEVICE_CAPABILITY_PD_CONSUMER_PORT           = 0x08,
 200:lib/tinyusb/src/common/tusb_types.h ****   DEVICE_CAPABILITY_PD_PROVIDER_PORT           = 0x09,
 201:lib/tinyusb/src/common/tusb_types.h ****   DEVICE_CAPABILITY_SUPERSPEED_PLUS            = 0x0A,
 202:lib/tinyusb/src/common/tusb_types.h ****   DEVICE_CAPABILITY_PRECESION_TIME_MEASUREMENT = 0x0B,
 203:lib/tinyusb/src/common/tusb_types.h ****   DEVICE_CAPABILITY_WIRELESS_USB_EXT           = 0x0C,
 204:lib/tinyusb/src/common/tusb_types.h ****   DEVICE_CAPABILITY_BILLBOARD                  = 0x0D,
 205:lib/tinyusb/src/common/tusb_types.h ****   DEVICE_CAPABILITY_AUTHENTICATION             = 0x0E,
 206:lib/tinyusb/src/common/tusb_types.h ****   DEVICE_CAPABILITY_BILLBOARD_EX               = 0x0F,
 207:lib/tinyusb/src/common/tusb_types.h ****   DEVICE_CAPABILITY_CONFIGURATION_SUMMARY      = 0x10
 208:lib/tinyusb/src/common/tusb_types.h **** } device_capability_type_t;
 209:lib/tinyusb/src/common/tusb_types.h **** 
 210:lib/tinyusb/src/common/tusb_types.h **** enum {
 211:lib/tinyusb/src/common/tusb_types.h ****   TUSB_DESC_CONFIG_ATT_REMOTE_WAKEUP = 1u << 5,
 212:lib/tinyusb/src/common/tusb_types.h ****   TUSB_DESC_CONFIG_ATT_SELF_POWERED  = 1u << 6,
 213:lib/tinyusb/src/common/tusb_types.h **** };
 214:lib/tinyusb/src/common/tusb_types.h **** 
 215:lib/tinyusb/src/common/tusb_types.h **** #define TUSB_DESC_CONFIG_POWER_MA(x)  ((x)/2)
ARM GAS  /tmp/claude-502/ccY3ow5l.s 			page 15


 216:lib/tinyusb/src/common/tusb_types.h **** 
 217:lib/tinyusb/src/common/tusb_types.h **** // USB 2.0 Spec Table 9-7: Test Mode Selectors
 218:lib/tinyusb/src/common/tusb_types.h **** typedef enum {
 219:lib/tinyusb/src/common/tusb_types.h ****   TUSB_FEATURE_TEST_J = 1,
 220:lib/tinyusb/src/common/tusb_types.h ****   TUSB_FEATURE_TEST_K,
 221:lib/tinyusb/src/common/tusb_types.h ****   TUSB_FEATURE_TEST_SE0_NAK,
 222:lib/tinyusb/src/common/tusb_types.h ****   TUSB_FEATURE_TEST_PACKET,
 223:lib/tinyusb/src/common/tusb_types.h ****   TUSB_FEATURE_TEST_FORCE_ENABLE,
 224:lib/tinyusb/src/common/tusb_types.h **** } tusb_feature_test_mode_t;
 225:lib/tinyusb/src/common/tusb_types.h **** 
 226:lib/tinyusb/src/common/tusb_types.h **** //--------------------------------------------------------------------+
 227:lib/tinyusb/src/common/tusb_types.h **** //
 228:lib/tinyusb/src/common/tusb_types.h **** //--------------------------------------------------------------------+
 229:lib/tinyusb/src/common/tusb_types.h **** typedef enum {
 230:lib/tinyusb/src/common/tusb_types.h ****   XFER_RESULT_SUCCESS = 0,
 231:lib/tinyusb/src/common/tusb_types.h ****   XFER_RESULT_FAILED,
 232:lib/tinyusb/src/common/tusb_types.h ****   XFER_RESULT_STALLED,
 233:lib/tinyusb/src/common/tusb_types.h ****   XFER_RESULT_TIMEOUT,
 234:lib/tinyusb/src/common/tusb_types.h ****   XFER_RESULT_INVALID
 235:lib/tinyusb/src/common/tusb_types.h **** } xfer_result_t;
 236:lib/tinyusb/src/common/tusb_types.h **** 
 237:lib/tinyusb/src/common/tusb_types.h **** // TODO remove
 238:lib/tinyusb/src/common/tusb_types.h **** enum {
 239:lib/tinyusb/src/common/tusb_types.h ****   DESC_OFFSET_LEN  = 0,
 240:lib/tinyusb/src/common/tusb_types.h ****   DESC_OFFSET_TYPE = 1
 241:lib/tinyusb/src/common/tusb_types.h **** };
 242:lib/tinyusb/src/common/tusb_types.h **** 
 243:lib/tinyusb/src/common/tusb_types.h **** enum {
 244:lib/tinyusb/src/common/tusb_types.h ****   INTERFACE_INVALID_NUMBER = 0xff
 245:lib/tinyusb/src/common/tusb_types.h **** };
 246:lib/tinyusb/src/common/tusb_types.h **** 
 247:lib/tinyusb/src/common/tusb_types.h **** typedef enum {
 248:lib/tinyusb/src/common/tusb_types.h ****   MS_OS_20_SET_HEADER_DESCRIPTOR       = 0x00,
 249:lib/tinyusb/src/common/tusb_types.h ****   MS_OS_20_SUBSET_HEADER_CONFIGURATION = 0x01,
 250:lib/tinyusb/src/common/tusb_types.h ****   MS_OS_20_SUBSET_HEADER_FUNCTION      = 0x02,
 251:lib/tinyusb/src/common/tusb_types.h ****   MS_OS_20_FEATURE_COMPATBLE_ID        = 0x03,
 252:lib/tinyusb/src/common/tusb_types.h ****   MS_OS_20_FEATURE_REG_PROPERTY        = 0x04,
 253:lib/tinyusb/src/common/tusb_types.h ****   MS_OS_20_FEATURE_MIN_RESUME_TIME     = 0x05,
 254:lib/tinyusb/src/common/tusb_types.h ****   MS_OS_20_FEATURE_MODEL_ID            = 0x06,
 255:lib/tinyusb/src/common/tusb_types.h ****   MS_OS_20_FEATURE_CCGP_DEVICE         = 0x07,
 256:lib/tinyusb/src/common/tusb_types.h ****   MS_OS_20_FEATURE_VENDOR_REVISION     = 0x08
 257:lib/tinyusb/src/common/tusb_types.h **** } microsoft_os_20_type_t;
 258:lib/tinyusb/src/common/tusb_types.h **** 
 259:lib/tinyusb/src/common/tusb_types.h **** enum {
 260:lib/tinyusb/src/common/tusb_types.h ****   CONTROL_STAGE_IDLE,
 261:lib/tinyusb/src/common/tusb_types.h ****   CONTROL_STAGE_SETUP,
 262:lib/tinyusb/src/common/tusb_types.h ****   CONTROL_STAGE_DATA,
 263:lib/tinyusb/src/common/tusb_types.h ****   CONTROL_STAGE_ACK
 264:lib/tinyusb/src/common/tusb_types.h **** };
 265:lib/tinyusb/src/common/tusb_types.h **** 
 266:lib/tinyusb/src/common/tusb_types.h **** enum {
 267:lib/tinyusb/src/common/tusb_types.h ****   TUSB_INDEX_INVALID_8 = 0xFFu
 268:lib/tinyusb/src/common/tusb_types.h **** };
 269:lib/tinyusb/src/common/tusb_types.h **** 
 270:lib/tinyusb/src/common/tusb_types.h **** //--------------------------------------------------------------------+
 271:lib/tinyusb/src/common/tusb_types.h **** // USB Descriptors
 272:lib/tinyusb/src/common/tusb_types.h **** //--------------------------------------------------------------------+
ARM GAS  /tmp/claude-502/ccY3ow5l.s 			page 16


 273:lib/tinyusb/src/common/tusb_types.h **** 
 274:lib/tinyusb/src/common/tusb_types.h **** // Start of all packed definitions for compiler without per-type packed
 275:lib/tinyusb/src/common/tusb_types.h **** TU_ATTR_PACKED_BEGIN
 276:lib/tinyusb/src/common/tusb_types.h **** TU_ATTR_BIT_FIELD_ORDER_BEGIN
 277:lib/tinyusb/src/common/tusb_types.h **** 
 278:lib/tinyusb/src/common/tusb_types.h **** /// USB Device Descriptor
 279:lib/tinyusb/src/common/tusb_types.h **** typedef struct TU_ATTR_PACKED {
 280:lib/tinyusb/src/common/tusb_types.h ****   uint8_t  bLength            ; ///< Size of this descriptor in bytes.
 281:lib/tinyusb/src/common/tusb_types.h ****   uint8_t  bDescriptorType    ; ///< DEVICE Descriptor Type.
 282:lib/tinyusb/src/common/tusb_types.h ****   uint16_t bcdUSB             ; ///< BUSB Specification Release Number in Binary-Coded Decimal (i.e
 283:lib/tinyusb/src/common/tusb_types.h **** 
 284:lib/tinyusb/src/common/tusb_types.h ****   uint8_t  bDeviceClass       ; ///< Class code (assigned by the USB-IF).
 285:lib/tinyusb/src/common/tusb_types.h ****   uint8_t  bDeviceSubClass    ; ///< Subclass code (assigned by the USB-IF).
 286:lib/tinyusb/src/common/tusb_types.h ****   uint8_t  bDeviceProtocol    ; ///< Protocol code (assigned by the USB-IF).
 287:lib/tinyusb/src/common/tusb_types.h ****   uint8_t  bMaxPacketSize0    ; ///< Maximum packet size for endpoint zero (only 8, 16, 32, or 64 a
 288:lib/tinyusb/src/common/tusb_types.h **** 
 289:lib/tinyusb/src/common/tusb_types.h ****   uint16_t idVendor           ; ///< Vendor ID (assigned by the USB-IF).
 290:lib/tinyusb/src/common/tusb_types.h ****   uint16_t idProduct          ; ///< Product ID (assigned by the manufacturer).
 291:lib/tinyusb/src/common/tusb_types.h ****   uint16_t bcdDevice          ; ///< Device release number in binary-coded decimal.
 292:lib/tinyusb/src/common/tusb_types.h ****   uint8_t  iManufacturer      ; ///< Index of string descriptor describing manufacturer.
 293:lib/tinyusb/src/common/tusb_types.h ****   uint8_t  iProduct           ; ///< Index of string descriptor describing product.
 294:lib/tinyusb/src/common/tusb_types.h ****   uint8_t  iSerialNumber      ; ///< Index of string descriptor describing the device's serial numb
 295:lib/tinyusb/src/common/tusb_types.h **** 
 296:lib/tinyusb/src/common/tusb_types.h ****   uint8_t  bNumConfigurations ; ///< Number of possible configurations.
 297:lib/tinyusb/src/common/tusb_types.h **** } tusb_desc_device_t;
 298:lib/tinyusb/src/common/tusb_types.h **** 
 299:lib/tinyusb/src/common/tusb_types.h **** TU_VERIFY_STATIC( sizeof(tusb_desc_device_t) == 18, "size is not correct");
 300:lib/tinyusb/src/common/tusb_types.h **** 
 301:lib/tinyusb/src/common/tusb_types.h **** // USB Binary Device Object Store (BOS) Descriptor
 302:lib/tinyusb/src/common/tusb_types.h **** typedef struct TU_ATTR_PACKED {
 303:lib/tinyusb/src/common/tusb_types.h ****   uint8_t  bLength         ; ///< Size of this descriptor in bytes
 304:lib/tinyusb/src/common/tusb_types.h ****   uint8_t  bDescriptorType ; ///< CONFIGURATION Descriptor Type
 305:lib/tinyusb/src/common/tusb_types.h ****   uint16_t wTotalLength    ; ///< Total length of data returned for this descriptor
 306:lib/tinyusb/src/common/tusb_types.h ****   uint8_t  bNumDeviceCaps  ; ///< Number of device capability descriptors in the BOS
 307:lib/tinyusb/src/common/tusb_types.h **** } tusb_desc_bos_t;
 308:lib/tinyusb/src/common/tusb_types.h **** 
 309:lib/tinyusb/src/common/tusb_types.h **** TU_VERIFY_STATIC( sizeof(tusb_desc_bos_t) == 5, "size is not correct");
 310:lib/tinyusb/src/common/tusb_types.h **** 
 311:lib/tinyusb/src/common/tusb_types.h **** /// USB Configuration Descriptor
 312:lib/tinyusb/src/common/tusb_types.h **** typedef struct TU_ATTR_PACKED {
 313:lib/tinyusb/src/common/tusb_types.h ****   uint8_t  bLength             ; ///< Size of this descriptor in bytes
 314:lib/tinyusb/src/common/tusb_types.h ****   uint8_t  bDescriptorType     ; ///< CONFIGURATION Descriptor Type
 315:lib/tinyusb/src/common/tusb_types.h ****   uint16_t wTotalLength        ; ///< Total length of data returned for this configuration. Include
 316:lib/tinyusb/src/common/tusb_types.h **** 
 317:lib/tinyusb/src/common/tusb_types.h ****   uint8_t  bNumInterfaces      ; ///< Number of interfaces supported by this configuration
 318:lib/tinyusb/src/common/tusb_types.h ****   uint8_t  bConfigurationValue ; ///< Value to use as an argument to the SetConfiguration() request
 319:lib/tinyusb/src/common/tusb_types.h ****   uint8_t  iConfiguration      ; ///< Index of string descriptor describing this configuration
 320:lib/tinyusb/src/common/tusb_types.h ****   uint8_t  bmAttributes        ; ///< Configuration characteristics \n D7: Reserved (set to one)\n 
 321:lib/tinyusb/src/common/tusb_types.h ****   uint8_t  bMaxPower           ; ///< Maximum power consumption of the USB device from the bus in t
 322:lib/tinyusb/src/common/tusb_types.h **** } tusb_desc_configuration_t;
 323:lib/tinyusb/src/common/tusb_types.h **** 
 324:lib/tinyusb/src/common/tusb_types.h **** TU_VERIFY_STATIC( sizeof(tusb_desc_configuration_t) == 9, "size is not correct");
 325:lib/tinyusb/src/common/tusb_types.h **** 
 326:lib/tinyusb/src/common/tusb_types.h **** /// USB Interface Descriptor
 327:lib/tinyusb/src/common/tusb_types.h **** typedef struct TU_ATTR_PACKED {
 328:lib/tinyusb/src/common/tusb_types.h ****   uint8_t  bLength            ; ///< Size of this descriptor in bytes
 329:lib/tinyusb/src/common/tusb_types.h ****   uint8_t  bDescriptorType    ; ///< INTERFACE Descriptor Type
ARM GAS  /tmp/claude-502/ccY3ow5l.s 			page 17


 330:lib/tinyusb/src/common/tusb_types.h **** 
 331:lib/tinyusb/src/common/tusb_types.h ****   uint8_t  bInterfaceNumber   ; ///< Number of this interface. Zero-based value identifying the ind
 332:lib/tinyusb/src/common/tusb_types.h ****   uint8_t  bAlternateSetting  ; ///< Value used to select this alternate setting for the interface 
 333:lib/tinyusb/src/common/tusb_types.h ****   uint8_t  bNumEndpoints      ; ///< Number of endpoints used by this interface (excluding endpoint
 334:lib/tinyusb/src/common/tusb_types.h ****   uint8_t  bInterfaceClass    ; ///< Class code (assigned by the USB-IF). \li A value of zero is re
 335:lib/tinyusb/src/common/tusb_types.h ****   uint8_t  bInterfaceSubClass ; ///< Subclass code (assigned by the USB-IF). \n These codes are qua
 336:lib/tinyusb/src/common/tusb_types.h ****   uint8_t  bInterfaceProtocol ; ///< Protocol code (assigned by the USB). \n These codes are qualif
 337:lib/tinyusb/src/common/tusb_types.h ****   uint8_t  iInterface         ; ///< Index of string descriptor describing this interface
 338:lib/tinyusb/src/common/tusb_types.h **** } tusb_desc_interface_t;
 339:lib/tinyusb/src/common/tusb_types.h **** 
 340:lib/tinyusb/src/common/tusb_types.h **** TU_VERIFY_STATIC( sizeof(tusb_desc_interface_t) == 9, "size is not correct");
 341:lib/tinyusb/src/common/tusb_types.h **** 
 342:lib/tinyusb/src/common/tusb_types.h **** /// USB Endpoint Descriptor
 343:lib/tinyusb/src/common/tusb_types.h **** typedef struct TU_ATTR_PACKED {
 344:lib/tinyusb/src/common/tusb_types.h ****   uint8_t  bLength          ; // Size of this descriptor in bytes
 345:lib/tinyusb/src/common/tusb_types.h ****   uint8_t  bDescriptorType  ; // ENDPOINT Descriptor Type
 346:lib/tinyusb/src/common/tusb_types.h **** 
 347:lib/tinyusb/src/common/tusb_types.h ****   uint8_t  bEndpointAddress ; // The address of the endpoint
 348:lib/tinyusb/src/common/tusb_types.h **** 
 349:lib/tinyusb/src/common/tusb_types.h ****   struct TU_ATTR_PACKED {
 350:lib/tinyusb/src/common/tusb_types.h ****     uint8_t xfer  : 2;        // Control, ISO, Bulk, Interrupt
 351:lib/tinyusb/src/common/tusb_types.h ****     uint8_t sync  : 2;        // None, Asynchronous, Adaptive, Synchronous
 352:lib/tinyusb/src/common/tusb_types.h ****     uint8_t usage : 2;        // Data, Feedback, Implicit feedback
 353:lib/tinyusb/src/common/tusb_types.h ****     uint8_t       : 2;
 354:lib/tinyusb/src/common/tusb_types.h ****   } bmAttributes;
 355:lib/tinyusb/src/common/tusb_types.h **** 
 356:lib/tinyusb/src/common/tusb_types.h ****   uint16_t wMaxPacketSize   ; // Bit 10..0 : max packet size, bit 12..11 additional transaction per
 357:lib/tinyusb/src/common/tusb_types.h ****   uint8_t  bInterval        ; // Polling interval, in frames or microframes depending on the operat
 358:lib/tinyusb/src/common/tusb_types.h **** } tusb_desc_endpoint_t;
 359:lib/tinyusb/src/common/tusb_types.h **** 
 360:lib/tinyusb/src/common/tusb_types.h **** TU_VERIFY_STATIC( sizeof(tusb_desc_endpoint_t) == 7, "size is not correct");
 361:lib/tinyusb/src/common/tusb_types.h **** 
 362:lib/tinyusb/src/common/tusb_types.h **** /// USB Other Speed Configuration Descriptor
 363:lib/tinyusb/src/common/tusb_types.h **** typedef struct TU_ATTR_PACKED {
 364:lib/tinyusb/src/common/tusb_types.h ****   uint8_t  bLength             ; ///< Size of descriptor
 365:lib/tinyusb/src/common/tusb_types.h ****   uint8_t  bDescriptorType     ; ///< Other_speed_Configuration Type
 366:lib/tinyusb/src/common/tusb_types.h ****   uint16_t wTotalLength        ; ///< Total length of data returned
 367:lib/tinyusb/src/common/tusb_types.h **** 
 368:lib/tinyusb/src/common/tusb_types.h ****   uint8_t  bNumInterfaces      ; ///< Number of interfaces supported by this speed configuration
 369:lib/tinyusb/src/common/tusb_types.h ****   uint8_t  bConfigurationValue ; ///< Value to use to select configuration
 370:lib/tinyusb/src/common/tusb_types.h ****   uint8_t  iConfiguration      ; ///< Index of string descriptor
 371:lib/tinyusb/src/common/tusb_types.h ****   uint8_t  bmAttributes        ; ///< Same as Configuration descriptor
 372:lib/tinyusb/src/common/tusb_types.h ****   uint8_t  bMaxPower           ; ///< Same as Configuration descriptor
 373:lib/tinyusb/src/common/tusb_types.h **** } tusb_desc_other_speed_t;
 374:lib/tinyusb/src/common/tusb_types.h **** 
 375:lib/tinyusb/src/common/tusb_types.h **** /// USB Device Qualifier Descriptor
 376:lib/tinyusb/src/common/tusb_types.h **** typedef struct TU_ATTR_PACKED {
 377:lib/tinyusb/src/common/tusb_types.h ****   uint8_t  bLength            ; ///< Size of descriptor
 378:lib/tinyusb/src/common/tusb_types.h ****   uint8_t  bDescriptorType    ; ///< Device Qualifier Type
 379:lib/tinyusb/src/common/tusb_types.h ****   uint16_t bcdUSB             ; ///< USB specification version number (e.g., 0200H for V2.00)
 380:lib/tinyusb/src/common/tusb_types.h **** 
 381:lib/tinyusb/src/common/tusb_types.h ****   uint8_t  bDeviceClass       ; ///< Class Code
 382:lib/tinyusb/src/common/tusb_types.h ****   uint8_t  bDeviceSubClass    ; ///< SubClass Code
 383:lib/tinyusb/src/common/tusb_types.h ****   uint8_t  bDeviceProtocol    ; ///< Protocol Code
 384:lib/tinyusb/src/common/tusb_types.h **** 
 385:lib/tinyusb/src/common/tusb_types.h ****   uint8_t  bMaxPacketSize0    ; ///< Maximum packet size for other speed
 386:lib/tinyusb/src/common/tusb_types.h ****   uint8_t  bNumConfigurations ; ///< Number of Other-speed Configurations
ARM GAS  /tmp/claude-502/ccY3ow5l.s 			page 18


 387:lib/tinyusb/src/common/tusb_types.h ****   uint8_t  bReserved          ; ///< Reserved for future use, must be zero
 388:lib/tinyusb/src/common/tusb_types.h **** } tusb_desc_device_qualifier_t;
 389:lib/tinyusb/src/common/tusb_types.h **** 
 390:lib/tinyusb/src/common/tusb_types.h **** TU_VERIFY_STATIC( sizeof(tusb_desc_device_qualifier_t) == 10, "size is not correct");
 391:lib/tinyusb/src/common/tusb_types.h **** 
 392:lib/tinyusb/src/common/tusb_types.h **** /// USB Interface Association Descriptor (IAD ECN)
 393:lib/tinyusb/src/common/tusb_types.h **** typedef struct TU_ATTR_PACKED {
 394:lib/tinyusb/src/common/tusb_types.h ****   uint8_t bLength           ; ///< Size of descriptor
 395:lib/tinyusb/src/common/tusb_types.h ****   uint8_t bDescriptorType   ; ///< Other_speed_Configuration Type
 396:lib/tinyusb/src/common/tusb_types.h **** 
 397:lib/tinyusb/src/common/tusb_types.h ****   uint8_t bFirstInterface   ; ///< Index of the first associated interface.
 398:lib/tinyusb/src/common/tusb_types.h ****   uint8_t bInterfaceCount   ; ///< Total number of associated interfaces.
 399:lib/tinyusb/src/common/tusb_types.h **** 
 400:lib/tinyusb/src/common/tusb_types.h ****   uint8_t bFunctionClass    ; ///< Interface class ID.
 401:lib/tinyusb/src/common/tusb_types.h ****   uint8_t bFunctionSubClass ; ///< Interface subclass ID.
 402:lib/tinyusb/src/common/tusb_types.h ****   uint8_t bFunctionProtocol ; ///< Interface protocol ID.
 403:lib/tinyusb/src/common/tusb_types.h **** 
 404:lib/tinyusb/src/common/tusb_types.h ****   uint8_t iFunction         ; ///< Index of the string descriptor describing the interface associat
 405:lib/tinyusb/src/common/tusb_types.h **** } tusb_desc_interface_assoc_t;
 406:lib/tinyusb/src/common/tusb_types.h **** 
 407:lib/tinyusb/src/common/tusb_types.h **** TU_VERIFY_STATIC( sizeof(tusb_desc_interface_assoc_t) == 8, "size is not correct");
 408:lib/tinyusb/src/common/tusb_types.h **** 
 409:lib/tinyusb/src/common/tusb_types.h **** // USB String Descriptor
 410:lib/tinyusb/src/common/tusb_types.h **** typedef struct TU_ATTR_PACKED {
 411:lib/tinyusb/src/common/tusb_types.h ****   uint8_t  bLength         ; ///< Size of this descriptor in bytes
 412:lib/tinyusb/src/common/tusb_types.h ****   uint8_t  bDescriptorType ; ///< Descriptor Type
 413:lib/tinyusb/src/common/tusb_types.h ****   uint16_t unicode_string[];
 414:lib/tinyusb/src/common/tusb_types.h **** } tusb_desc_string_t;
 415:lib/tinyusb/src/common/tusb_types.h **** 
 416:lib/tinyusb/src/common/tusb_types.h **** // USB Binary Device Object Store (BOS)
 417:lib/tinyusb/src/common/tusb_types.h **** typedef struct TU_ATTR_PACKED {
 418:lib/tinyusb/src/common/tusb_types.h ****   uint8_t bLength;
 419:lib/tinyusb/src/common/tusb_types.h ****   uint8_t bDescriptorType ;
 420:lib/tinyusb/src/common/tusb_types.h ****   uint8_t bDevCapabilityType;
 421:lib/tinyusb/src/common/tusb_types.h ****   uint8_t bReserved;
 422:lib/tinyusb/src/common/tusb_types.h ****   uint8_t PlatformCapabilityUUID[16];
 423:lib/tinyusb/src/common/tusb_types.h ****   uint8_t CapabilityData[];
 424:lib/tinyusb/src/common/tusb_types.h **** } tusb_desc_bos_platform_t;
 425:lib/tinyusb/src/common/tusb_types.h **** 
 426:lib/tinyusb/src/common/tusb_types.h **** // USB WebUSB URL Descriptor
 427:lib/tinyusb/src/common/tusb_types.h **** typedef struct TU_ATTR_PACKED {
 428:lib/tinyusb/src/common/tusb_types.h ****   uint8_t bLength;
 429:lib/tinyusb/src/common/tusb_types.h ****   uint8_t bDescriptorType;
 430:lib/tinyusb/src/common/tusb_types.h ****   uint8_t bScheme;
 431:lib/tinyusb/src/common/tusb_types.h ****   char    url[];
 432:lib/tinyusb/src/common/tusb_types.h **** } tusb_desc_webusb_url_t;
 433:lib/tinyusb/src/common/tusb_types.h **** 
 434:lib/tinyusb/src/common/tusb_types.h **** // DFU Functional Descriptor
 435:lib/tinyusb/src/common/tusb_types.h **** typedef struct TU_ATTR_PACKED {
 436:lib/tinyusb/src/common/tusb_types.h ****   uint8_t  bLength;
 437:lib/tinyusb/src/common/tusb_types.h ****   uint8_t  bDescriptorType;
 438:lib/tinyusb/src/common/tusb_types.h **** 
 439:lib/tinyusb/src/common/tusb_types.h ****   union {
 440:lib/tinyusb/src/common/tusb_types.h ****     struct TU_ATTR_PACKED {
 441:lib/tinyusb/src/common/tusb_types.h ****       uint8_t bitCanDnload             : 1;
 442:lib/tinyusb/src/common/tusb_types.h ****       uint8_t bitCanUpload             : 1;
 443:lib/tinyusb/src/common/tusb_types.h ****       uint8_t bitManifestationTolerant : 1;
ARM GAS  /tmp/claude-502/ccY3ow5l.s 			page 19


 444:lib/tinyusb/src/common/tusb_types.h ****       uint8_t bitWillDetach            : 1;
 445:lib/tinyusb/src/common/tusb_types.h ****       uint8_t reserved                 : 4;
 446:lib/tinyusb/src/common/tusb_types.h ****     } bmAttributes;
 447:lib/tinyusb/src/common/tusb_types.h **** 
 448:lib/tinyusb/src/common/tusb_types.h ****     uint8_t bAttributes;
 449:lib/tinyusb/src/common/tusb_types.h ****   };
 450:lib/tinyusb/src/common/tusb_types.h **** 
 451:lib/tinyusb/src/common/tusb_types.h ****   uint16_t wDetachTimeOut;
 452:lib/tinyusb/src/common/tusb_types.h ****   uint16_t wTransferSize;
 453:lib/tinyusb/src/common/tusb_types.h ****   uint16_t bcdDFUVersion;
 454:lib/tinyusb/src/common/tusb_types.h **** } tusb_desc_dfu_functional_t;
 455:lib/tinyusb/src/common/tusb_types.h **** 
 456:lib/tinyusb/src/common/tusb_types.h **** //--------------------------------------------------------------------+
 457:lib/tinyusb/src/common/tusb_types.h **** //
 458:lib/tinyusb/src/common/tusb_types.h **** //--------------------------------------------------------------------+
 459:lib/tinyusb/src/common/tusb_types.h **** 
 460:lib/tinyusb/src/common/tusb_types.h **** typedef struct TU_ATTR_PACKED {
 461:lib/tinyusb/src/common/tusb_types.h ****   union {
 462:lib/tinyusb/src/common/tusb_types.h ****     struct TU_ATTR_PACKED {
 463:lib/tinyusb/src/common/tusb_types.h ****       uint8_t recipient :  5; ///< Recipient type tusb_request_recipient_t.
 464:lib/tinyusb/src/common/tusb_types.h ****       uint8_t type      :  2; ///< Request type tusb_request_type_t.
 465:lib/tinyusb/src/common/tusb_types.h ****       uint8_t direction :  1; ///< Direction type. tusb_dir_t
 466:lib/tinyusb/src/common/tusb_types.h ****     } bmRequestType_bit;
 467:lib/tinyusb/src/common/tusb_types.h **** 
 468:lib/tinyusb/src/common/tusb_types.h ****     uint8_t bmRequestType;
 469:lib/tinyusb/src/common/tusb_types.h ****   };
 470:lib/tinyusb/src/common/tusb_types.h **** 
 471:lib/tinyusb/src/common/tusb_types.h ****   uint8_t  bRequest;
 472:lib/tinyusb/src/common/tusb_types.h ****   uint16_t wValue;
 473:lib/tinyusb/src/common/tusb_types.h ****   uint16_t wIndex;
 474:lib/tinyusb/src/common/tusb_types.h ****   uint16_t wLength;
 475:lib/tinyusb/src/common/tusb_types.h **** } tusb_control_request_t;
 476:lib/tinyusb/src/common/tusb_types.h **** 
 477:lib/tinyusb/src/common/tusb_types.h **** TU_VERIFY_STATIC( sizeof(tusb_control_request_t) == 8, "size is not correct");
 478:lib/tinyusb/src/common/tusb_types.h **** 
 479:lib/tinyusb/src/common/tusb_types.h **** TU_ATTR_PACKED_END  // End of all packed definitions
 480:lib/tinyusb/src/common/tusb_types.h **** TU_ATTR_BIT_FIELD_ORDER_END
 481:lib/tinyusb/src/common/tusb_types.h **** 
 482:lib/tinyusb/src/common/tusb_types.h **** //--------------------------------------------------------------------+
 483:lib/tinyusb/src/common/tusb_types.h **** // Endpoint helper
 484:lib/tinyusb/src/common/tusb_types.h **** //--------------------------------------------------------------------+
 485:lib/tinyusb/src/common/tusb_types.h **** 
 486:lib/tinyusb/src/common/tusb_types.h **** // Get direction from Endpoint address
 487:lib/tinyusb/src/common/tusb_types.h **** TU_ATTR_ALWAYS_INLINE static inline tusb_dir_t tu_edpt_dir(uint8_t addr) {
 488:lib/tinyusb/src/common/tusb_types.h ****   return (addr & TUSB_DIR_IN_MASK) ? TUSB_DIR_IN : TUSB_DIR_OUT;
 489:lib/tinyusb/src/common/tusb_types.h **** }
 490:lib/tinyusb/src/common/tusb_types.h **** 
 491:lib/tinyusb/src/common/tusb_types.h **** // Get Endpoint number from address
 492:lib/tinyusb/src/common/tusb_types.h **** TU_ATTR_ALWAYS_INLINE static inline uint8_t tu_edpt_number(uint8_t addr) {
 493:lib/tinyusb/src/common/tusb_types.h ****   return (uint8_t)(addr & (~TUSB_DIR_IN_MASK));
 494:lib/tinyusb/src/common/tusb_types.h **** }
 495:lib/tinyusb/src/common/tusb_types.h **** 
 496:lib/tinyusb/src/common/tusb_types.h **** TU_ATTR_ALWAYS_INLINE static inline uint8_t tu_edpt_addr(uint8_t num, uint8_t dir) {
 497:lib/tinyusb/src/common/tusb_types.h ****   return (uint8_t)(num | (dir ? TUSB_DIR_IN_MASK : 0));
 498:lib/tinyusb/src/common/tusb_types.h **** }
 499:lib/tinyusb/src/common/tusb_types.h **** 
 500:lib/tinyusb/src/common/tusb_types.h **** TU_ATTR_ALWAYS_INLINE static inline uint16_t tu_edpt_packet_size(tusb_desc_endpoint_t const* desc_e
ARM GAS  /tmp/claude-502/ccY3ow5l.s 			page 20


 421              		.loc 2 500 46 view .LVU111
 422              	.LBB79:
 501:lib/tinyusb/src/common/tusb_types.h ****   return tu_le16toh(desc_ep->wMaxPacketSize) & 0x7FF;
 423              		.loc 2 501 3 view .LVU112
 424              	.LBE79:
 425              	.LBE78:
 139:lib/tinyusb/src/tusb.c ****   TU_LOG2("  Open EP %02X with Size = %u\r\n", desc_ep->bEndpointAddress, max_packet_size);
 140:lib/tinyusb/src/tusb.c **** 
 141:lib/tinyusb/src/tusb.c ****   switch (desc_ep->bmAttributes.xfer) {
 426              		.loc 1 141 32 is_stmt 0 view .LVU113
 427 0000 C378     		ldrb	r3, [r0, #3]	@ zero_extendqisi2
 428              	.LBB82:
 429              	.LBB80:
 430              		.loc 2 501 10 view .LVU114
 431 0002 8288     		ldrh	r2, [r0, #4]	@ unaligned
 432              	.LBE80:
 433              	.LBE82:
 434              		.loc 1 141 32 view .LVU115
 435 0004 03F00300 		and	r0, r3, #3
 436              	.LVL29:
 437              	.LBB83:
 438              	.LBB81:
 439              		.loc 2 501 46 view .LVU116
 440 0008 C2F30A02 		ubfx	r2, r2, #0, #11
 441              	.LVL30:
 442              		.loc 2 501 46 view .LVU117
 443              	.LBE81:
 444              	.LBE83:
 139:lib/tinyusb/src/tusb.c ****   TU_LOG2("  Open EP %02X with Size = %u\r\n", desc_ep->bEndpointAddress, max_packet_size);
 445              		.loc 1 139 91 is_stmt 1 view .LVU118
 446              		.loc 1 141 3 view .LVU119
 447 000c 0228     		cmp	r0, #2
 448 000e 05D0     		beq	.L48
 449 0010 0328     		cmp	r0, #3
 450 0012 1BD0     		beq	.L49
 451 0014 0128     		cmp	r0, #1
 452 0016 07D0     		beq	.L73
 453 0018 0020     		movs	r0, #0
 454 001a 7047     		bx	lr
 455              	.L48:
 142:lib/tinyusb/src/tusb.c ****     case TUSB_XFER_ISOCHRONOUS: {
 143:lib/tinyusb/src/tusb.c ****       uint16_t const spec_size = (speed == TUSB_SPEED_HIGH ? 1024 : 1023);
 144:lib/tinyusb/src/tusb.c ****       TU_ASSERT(max_packet_size <= spec_size);
 145:lib/tinyusb/src/tusb.c ****       break;
 146:lib/tinyusb/src/tusb.c ****     }
 147:lib/tinyusb/src/tusb.c **** 
 148:lib/tinyusb/src/tusb.c ****     case TUSB_XFER_BULK:
 149:lib/tinyusb/src/tusb.c ****       if (speed == TUSB_SPEED_HIGH) {
 456              		.loc 1 149 7 view .LVU120
 457              		.loc 1 149 10 is_stmt 0 view .LVU121
 458 001c 0229     		cmp	r1, #2
 459 001e 1ED0     		beq	.L74
 150:lib/tinyusb/src/tusb.c ****         // Bulk highspeed must be EXACTLY 512
 151:lib/tinyusb/src/tusb.c ****         TU_ASSERT(max_packet_size == 512);
 152:lib/tinyusb/src/tusb.c ****       } else {
 153:lib/tinyusb/src/tusb.c ****         // TODO Bulk fullspeed can only be 8, 16, 32, 64
 154:lib/tinyusb/src/tusb.c ****         TU_ASSERT(max_packet_size <= 64);
ARM GAS  /tmp/claude-502/ccY3ow5l.s 			page 21


 460              		.loc 1 154 9 is_stmt 1 discriminator 2 view .LVU122
 461              		.loc 1 154 9 discriminator 2 view .LVU123
 462 0020 402A     		cmp	r2, #64
 463 0022 09D8     		bhi	.L69
 464              	.L63:
 155:lib/tinyusb/src/tusb.c ****       }
 156:lib/tinyusb/src/tusb.c ****       break;
 157:lib/tinyusb/src/tusb.c **** 
 158:lib/tinyusb/src/tusb.c ****     case TUSB_XFER_INTERRUPT: {
 159:lib/tinyusb/src/tusb.c ****       uint16_t const spec_size = (speed == TUSB_SPEED_HIGH ? 1024 : 64);
 160:lib/tinyusb/src/tusb.c ****       TU_ASSERT(max_packet_size <= spec_size);
 161:lib/tinyusb/src/tusb.c ****       break;
 162:lib/tinyusb/src/tusb.c ****     }
 163:lib/tinyusb/src/tusb.c **** 
 164:lib/tinyusb/src/tusb.c ****     default:
 165:lib/tinyusb/src/tusb.c ****       return false;
 166:lib/tinyusb/src/tusb.c ****   }
 167:lib/tinyusb/src/tusb.c **** 
 168:lib/tinyusb/src/tusb.c ****   return true;
 465              		.loc 1 168 10 is_stmt 0 view .LVU124
 466 0024 0120     		movs	r0, #1
 467              	.L50:
 169:lib/tinyusb/src/tusb.c **** }
 468              		.loc 1 169 1 view .LVU125
 469 0026 7047     		bx	lr
 470              	.L73:
 471              	.LBB84:
 143:lib/tinyusb/src/tusb.c ****       TU_ASSERT(max_packet_size <= spec_size);
 472              		.loc 1 143 7 is_stmt 1 view .LVU126
 143:lib/tinyusb/src/tusb.c ****       TU_ASSERT(max_packet_size <= spec_size);
 473              		.loc 1 143 22 is_stmt 0 view .LVU127
 474 0028 0229     		cmp	r1, #2
 475 002a 40F2FF33 		movw	r3, #1023
 476 002e 08BF     		it	eq
 477 0030 4FF48063 		moveq	r3, #1024
 478              	.LVL31:
 144:lib/tinyusb/src/tusb.c ****       break;
 479              		.loc 1 144 7 is_stmt 1 view .LVU128
 144:lib/tinyusb/src/tusb.c ****       break;
 480              		.loc 1 144 7 view .LVU129
 481 0034 9342     		cmp	r3, r2
 482 0036 F6D2     		bcs	.L50
 483              	.LVL32:
 484              	.L69:
 144:lib/tinyusb/src/tusb.c ****       break;
 485              		.loc 1 144 7 is_stmt 0 view .LVU130
 486              	.LBE84:
 487              	.LBB85:
 160:lib/tinyusb/src/tusb.c ****       break;
 488              		.loc 1 160 7 is_stmt 1 discriminator 1 view .LVU131
 160:lib/tinyusb/src/tusb.c ****       break;
 489              		.loc 1 160 7 discriminator 1 view .LVU132
 160:lib/tinyusb/src/tusb.c ****       break;
 490              		.loc 1 160 7 discriminator 1 view .LVU133
 160:lib/tinyusb/src/tusb.c ****       break;
 491              		.loc 1 160 7 discriminator 1 view .LVU134
 492              	.LBB86:
ARM GAS  /tmp/claude-502/ccY3ow5l.s 			page 22


 160:lib/tinyusb/src/tusb.c ****       break;
 493              		.loc 1 160 7 discriminator 1 view .LVU135
 160:lib/tinyusb/src/tusb.c ****       break;
 494              		.loc 1 160 7 discriminator 1 view .LVU136
 495 0038 4FF0E023 		mov	r3, #-536813568
 496 003c D3F8F00D 		ldr	r0, [r3, #3568]
 497 0040 10F00100 		ands	r0, r0, #1
 498 0044 EFD0     		beq	.L50
 160:lib/tinyusb/src/tusb.c ****       break;
 499              		.loc 1 160 7 discriminator 3 view .LVU137
 500              		.syntax unified
 501              	@ 160 "lib/tinyusb/src/tusb.c" 1
 502 0046 00BE     		BKPT #0
 503              	
 504              	@ 0 "" 2
 505              		.thumb
 506              		.syntax unified
 507              	.LBE86:
 508 0048 0020     		movs	r0, #0
 509 004a 7047     		bx	lr
 510              	.LVL33:
 511              	.L49:
 159:lib/tinyusb/src/tusb.c ****       TU_ASSERT(max_packet_size <= spec_size);
 512              		.loc 1 159 7 view .LVU138
 159:lib/tinyusb/src/tusb.c ****       TU_ASSERT(max_packet_size <= spec_size);
 513              		.loc 1 159 22 is_stmt 0 view .LVU139
 514 004c 0229     		cmp	r1, #2
 515 004e 0CBF     		ite	eq
 516 0050 4FF48063 		moveq	r3, #1024
 517 0054 4023     		movne	r3, #64
 518              	.LVL34:
 160:lib/tinyusb/src/tusb.c ****       break;
 519              		.loc 1 160 7 is_stmt 1 view .LVU140
 160:lib/tinyusb/src/tusb.c ****       break;
 520              		.loc 1 160 7 view .LVU141
 521 0056 9342     		cmp	r3, r2
 522 0058 EED3     		bcc	.L69
 523              	.LBE85:
 168:lib/tinyusb/src/tusb.c **** }
 524              		.loc 1 168 10 is_stmt 0 view .LVU142
 525 005a 0120     		movs	r0, #1
 526 005c E3E7     		b	.L50
 527              	.LVL35:
 528              	.L74:
 151:lib/tinyusb/src/tusb.c ****       } else {
 529              		.loc 1 151 9 is_stmt 1 view .LVU143
 151:lib/tinyusb/src/tusb.c ****       } else {
 530              		.loc 1 151 9 view .LVU144
 531 005e B2F5007F 		cmp	r2, #512
 532 0062 DFD0     		beq	.L63
 533 0064 E8E7     		b	.L69
 534              		.cfi_endproc
 535              	.LFE417:
 537 0066 00BF     		.section	.text.tu_edpt_bind_driver,"ax",%progbits
 538              		.align	1
 539              		.p2align 2,,3
 540              		.global	tu_edpt_bind_driver
ARM GAS  /tmp/claude-502/ccY3ow5l.s 			page 23


 541              		.syntax unified
 542              		.thumb
 543              		.thumb_func
 545              	tu_edpt_bind_driver:
 546              	.LVL36:
 547              	.LFB418:
 170:lib/tinyusb/src/tusb.c **** 
 171:lib/tinyusb/src/tusb.c **** void tu_edpt_bind_driver(uint8_t ep2drv[][2], tusb_desc_interface_t const* desc_itf, uint16_t desc_
 172:lib/tinyusb/src/tusb.c ****                          uint8_t driver_id) {
 548              		.loc 1 172 45 view -0
 549              		.cfi_startproc
 550              		@ args = 0, pretend = 0, frame = 0
 551              		@ frame_needed = 0, uses_anonymous_args = 0
 173:lib/tinyusb/src/tusb.c ****   uint8_t const* p_desc = (uint8_t const*) desc_itf;
 552              		.loc 1 173 3 view .LVU146
 174:lib/tinyusb/src/tusb.c ****   uint8_t const* desc_end = p_desc + desc_len;
 553              		.loc 1 174 3 view .LVU147
 554              		.loc 1 174 18 is_stmt 0 view .LVU148
 555 0000 0A44     		add	r2, r2, r1
 556              	.LVL37:
 175:lib/tinyusb/src/tusb.c **** 
 176:lib/tinyusb/src/tusb.c ****   while (p_desc < desc_end) {
 557              		.loc 1 176 3 is_stmt 1 view .LVU149
 558              		.loc 1 176 9 view .LVU150
 559 0002 9142     		cmp	r1, r2
 560 0004 05D3     		bcc	.L81
 561 0006 25E0     		b	.L82
 562              	.LVL38:
 563              	.L88:
 564              	.LBB87:
 565              	.LBB88:
 502:lib/tinyusb/src/common/tusb_types.h **** }
 503:lib/tinyusb/src/common/tusb_types.h **** 
 504:lib/tinyusb/src/common/tusb_types.h **** #if CFG_TUSB_DEBUG
 505:lib/tinyusb/src/common/tusb_types.h **** TU_ATTR_ALWAYS_INLINE static inline const char *tu_edpt_type_str(tusb_xfer_type_t t) {
 506:lib/tinyusb/src/common/tusb_types.h ****   tu_static const char *str[] = {"control", "isochronous", "bulk", "interrupt"};
 507:lib/tinyusb/src/common/tusb_types.h ****   return str[t];
 508:lib/tinyusb/src/common/tusb_types.h **** }
 509:lib/tinyusb/src/common/tusb_types.h **** #endif
 510:lib/tinyusb/src/common/tusb_types.h **** 
 511:lib/tinyusb/src/common/tusb_types.h **** //--------------------------------------------------------------------+
 512:lib/tinyusb/src/common/tusb_types.h **** // Descriptor helper
 513:lib/tinyusb/src/common/tusb_types.h **** //--------------------------------------------------------------------+
 514:lib/tinyusb/src/common/tusb_types.h **** 
 515:lib/tinyusb/src/common/tusb_types.h **** // return next descriptor
 516:lib/tinyusb/src/common/tusb_types.h **** TU_ATTR_ALWAYS_INLINE static inline uint8_t const * tu_desc_next(void const* desc) {
 517:lib/tinyusb/src/common/tusb_types.h ****   uint8_t const* desc8 = (uint8_t const*) desc;
 518:lib/tinyusb/src/common/tusb_types.h ****   return desc8 + desc8[DESC_OFFSET_LEN];
 566              		.loc 2 518 23 is_stmt 0 view .LVU151
 567 0008 91F800C0 		ldrb	ip, [r1]	@ zero_extendqisi2
 568              		.loc 2 518 16 view .LVU152
 569 000c 6144     		add	r1, r1, ip
 570              	.LVL39:
 571              		.loc 2 518 16 view .LVU153
 572              	.LBE88:
 573              	.LBE87:
 574              		.loc 1 176 9 is_stmt 1 view .LVU154
ARM GAS  /tmp/claude-502/ccY3ow5l.s 			page 24


 575 000e 8A42     		cmp	r2, r1
 576 0010 21D9     		bls	.L87
 577              	.L81:
 177:lib/tinyusb/src/tusb.c ****     if (TUSB_DESC_ENDPOINT == tu_desc_type(p_desc)) {
 578              		.loc 1 177 5 view .LVU155
 579              	.LVL40:
 580              	.LBB93:
 581              	.LBI93:
 519:lib/tinyusb/src/common/tusb_types.h **** }
 520:lib/tinyusb/src/common/tusb_types.h **** 
 521:lib/tinyusb/src/common/tusb_types.h **** // get descriptor type
 522:lib/tinyusb/src/common/tusb_types.h **** TU_ATTR_ALWAYS_INLINE static inline uint8_t tu_desc_type(void const* desc) {
 582              		.loc 2 522 45 view .LVU156
 583              	.LBB94:
 523:lib/tinyusb/src/common/tusb_types.h ****   return ((uint8_t const*) desc)[DESC_OFFSET_TYPE];
 584              		.loc 2 523 3 view .LVU157
 585              		.loc 2 523 3 is_stmt 0 view .LVU158
 586              	.LBE94:
 587              	.LBE93:
 178:lib/tinyusb/src/tusb.c ****       uint8_t const ep_addr = ((tusb_desc_endpoint_t const*) p_desc)->bEndpointAddress;
 179:lib/tinyusb/src/tusb.c ****       TU_LOG(2, "  Bind EP %02x to driver id %u\r\n", ep_addr, driver_id);
 180:lib/tinyusb/src/tusb.c ****       ep2drv[tu_edpt_number(ep_addr)][tu_edpt_dir(ep_addr)] = driver_id;
 181:lib/tinyusb/src/tusb.c ****     }
 182:lib/tinyusb/src/tusb.c ****     p_desc = tu_desc_next(p_desc);
 588              		.loc 1 182 5 is_stmt 1 view .LVU159
 589              	.LBB96:
 590              	.LBI87:
 516:lib/tinyusb/src/common/tusb_types.h ****   uint8_t const* desc8 = (uint8_t const*) desc;
 591              		.loc 2 516 53 view .LVU160
 592              	.LBB89:
 517:lib/tinyusb/src/common/tusb_types.h ****   return desc8 + desc8[DESC_OFFSET_LEN];
 593              		.loc 2 517 3 view .LVU161
 518:lib/tinyusb/src/common/tusb_types.h **** }
 594              		.loc 2 518 3 view .LVU162
 595              	.LBE89:
 596              	.LBE96:
 177:lib/tinyusb/src/tusb.c ****       uint8_t const ep_addr = ((tusb_desc_endpoint_t const*) p_desc)->bEndpointAddress;
 597              		.loc 1 177 8 is_stmt 0 view .LVU163
 598 0012 91F801C0 		ldrb	ip, [r1, #1]	@ zero_extendqisi2
 599 0016 BCF1050F 		cmp	ip, #5
 600 001a F5D1     		bne	.L88
 172:lib/tinyusb/src/tusb.c ****   uint8_t const* p_desc = (uint8_t const*) desc_itf;
 601              		.loc 1 172 45 view .LVU164
 602 001c 00B5     		push	{lr}
 603              		.cfi_def_cfa_offset 4
 604              		.cfi_offset 14, -4
 605              	.L83:
 606              	.LBB97:
 178:lib/tinyusb/src/tusb.c ****       TU_LOG(2, "  Bind EP %02x to driver id %u\r\n", ep_addr, driver_id);
 607              		.loc 1 178 7 is_stmt 1 view .LVU165
 178:lib/tinyusb/src/tusb.c ****       TU_LOG(2, "  Bind EP %02x to driver id %u\r\n", ep_addr, driver_id);
 608              		.loc 1 178 21 is_stmt 0 view .LVU166
 609 001e 91F802C0 		ldrb	ip, [r1, #2]	@ zero_extendqisi2
 610              	.LVL41:
 179:lib/tinyusb/src/tusb.c ****       ep2drv[tu_edpt_number(ep_addr)][tu_edpt_dir(ep_addr)] = driver_id;
 611              		.loc 1 179 74 is_stmt 1 view .LVU167
 180:lib/tinyusb/src/tusb.c ****     }
ARM GAS  /tmp/claude-502/ccY3ow5l.s 			page 25


 612              		.loc 1 180 7 view .LVU168
 613              	.LBB98:
 614              	.LBI98:
 492:lib/tinyusb/src/common/tusb_types.h ****   return (uint8_t)(addr & (~TUSB_DIR_IN_MASK));
 615              		.loc 2 492 45 view .LVU169
 616              	.LBB99:
 493:lib/tinyusb/src/common/tusb_types.h **** }
 617              		.loc 2 493 3 view .LVU170
 493:lib/tinyusb/src/common/tusb_types.h **** }
 618              		.loc 2 493 3 is_stmt 0 view .LVU171
 619              	.LBE99:
 620              	.LBE98:
 621              	.LBB100:
 622              	.LBI100:
 487:lib/tinyusb/src/common/tusb_types.h ****   return (addr & TUSB_DIR_IN_MASK) ? TUSB_DIR_IN : TUSB_DIR_OUT;
 623              		.loc 2 487 48 is_stmt 1 view .LVU172
 624              	.LBB101:
 488:lib/tinyusb/src/common/tusb_types.h **** }
 625              		.loc 2 488 3 view .LVU173
 488:lib/tinyusb/src/common/tusb_types.h **** }
 626              		.loc 2 488 3 is_stmt 0 view .LVU174
 627              	.LBE101:
 628              	.LBE100:
 180:lib/tinyusb/src/tusb.c ****     }
 629              		.loc 1 180 13 view .LVU175
 630 0022 0CF07F0E 		and	lr, ip, #127
 180:lib/tinyusb/src/tusb.c ****     }
 631              		.loc 1 180 39 view .LVU176
 632 0026 4FEADC1C 		lsr	ip, ip, #7
 633              	.LVL42:
 180:lib/tinyusb/src/tusb.c ****     }
 634              		.loc 1 180 61 view .LVU177
 635 002a 00EB4E0E 		add	lr, r0, lr, lsl #1
 636 002e 0EF80C30 		strb	r3, [lr, ip]
 637              	.LVL43:
 180:lib/tinyusb/src/tusb.c ****     }
 638              		.loc 1 180 61 view .LVU178
 639              	.LBE97:
 640              	.LBB102:
 641              	.LBB90:
 518:lib/tinyusb/src/common/tusb_types.h **** }
 642              		.loc 2 518 23 view .LVU179
 643 0032 91F800C0 		ldrb	ip, [r1]	@ zero_extendqisi2
 518:lib/tinyusb/src/common/tusb_types.h **** }
 644              		.loc 2 518 16 view .LVU180
 645 0036 6144     		add	r1, r1, ip
 646              	.LVL44:
 518:lib/tinyusb/src/common/tusb_types.h **** }
 647              		.loc 2 518 16 view .LVU181
 648              	.LBE90:
 649              	.LBE102:
 176:lib/tinyusb/src/tusb.c ****     if (TUSB_DESC_ENDPOINT == tu_desc_type(p_desc)) {
 650              		.loc 1 176 9 is_stmt 1 view .LVU182
 651 0038 8A42     		cmp	r2, r1
 652 003a 09D9     		bls	.L89
 653              	.L78:
 177:lib/tinyusb/src/tusb.c ****       uint8_t const ep_addr = ((tusb_desc_endpoint_t const*) p_desc)->bEndpointAddress;
ARM GAS  /tmp/claude-502/ccY3ow5l.s 			page 26


 654              		.loc 1 177 5 view .LVU183
 655              	.LVL45:
 656              	.LBB103:
 522:lib/tinyusb/src/common/tusb_types.h ****   return ((uint8_t const*) desc)[DESC_OFFSET_TYPE];
 657              		.loc 2 522 45 view .LVU184
 658              	.LBB95:
 659              		.loc 2 523 3 view .LVU185
 660              		.loc 2 523 3 is_stmt 0 view .LVU186
 661              	.LBE95:
 662              	.LBE103:
 663              		.loc 1 182 5 is_stmt 1 view .LVU187
 664              	.LBB104:
 516:lib/tinyusb/src/common/tusb_types.h ****   uint8_t const* desc8 = (uint8_t const*) desc;
 665              		.loc 2 516 53 view .LVU188
 666              	.LBB91:
 517:lib/tinyusb/src/common/tusb_types.h ****   return desc8 + desc8[DESC_OFFSET_LEN];
 667              		.loc 2 517 3 view .LVU189
 518:lib/tinyusb/src/common/tusb_types.h **** }
 668              		.loc 2 518 3 view .LVU190
 669              	.LBE91:
 670              	.LBE104:
 177:lib/tinyusb/src/tusb.c ****       uint8_t const ep_addr = ((tusb_desc_endpoint_t const*) p_desc)->bEndpointAddress;
 671              		.loc 1 177 8 is_stmt 0 view .LVU191
 672 003c 91F801C0 		ldrb	ip, [r1, #1]	@ zero_extendqisi2
 673 0040 BCF1050F 		cmp	ip, #5
 674 0044 EBD0     		beq	.L83
 675              	.LBB105:
 676              	.LBB92:
 518:lib/tinyusb/src/common/tusb_types.h **** }
 677              		.loc 2 518 23 view .LVU192
 678 0046 91F800C0 		ldrb	ip, [r1]	@ zero_extendqisi2
 518:lib/tinyusb/src/common/tusb_types.h **** }
 679              		.loc 2 518 16 view .LVU193
 680 004a 6144     		add	r1, r1, ip
 681              	.LVL46:
 518:lib/tinyusb/src/common/tusb_types.h **** }
 682              		.loc 2 518 16 view .LVU194
 683              	.LBE92:
 684              	.LBE105:
 176:lib/tinyusb/src/tusb.c ****     if (TUSB_DESC_ENDPOINT == tu_desc_type(p_desc)) {
 685              		.loc 1 176 9 is_stmt 1 view .LVU195
 686 004c 8A42     		cmp	r2, r1
 687 004e F5D8     		bhi	.L78
 688              	.L89:
 183:lib/tinyusb/src/tusb.c ****   }
 184:lib/tinyusb/src/tusb.c **** }
 689              		.loc 1 184 1 is_stmt 0 view .LVU196
 690 0050 5DF804FB 		ldr	pc, [sp], #4
 691              	.LVL47:
 692              	.L82:
 693              		.cfi_def_cfa_offset 0
 694              		.cfi_restore 14
 695              		.loc 1 184 1 view .LVU197
 696 0054 7047     		bx	lr
 697              	.LVL48:
 698              	.L87:
 699              		.loc 1 184 1 view .LVU198
ARM GAS  /tmp/claude-502/ccY3ow5l.s 			page 27


 700 0056 7047     		bx	lr
 701              		.cfi_endproc
 702              	.LFE418:
 704              		.section	.text.tu_desc_get_interface_total_len,"ax",%progbits
 705              		.align	1
 706              		.p2align 2,,3
 707              		.global	tu_desc_get_interface_total_len
 708              		.syntax unified
 709              		.thumb
 710              		.thumb_func
 712              	tu_desc_get_interface_total_len:
 713              	.LVL49:
 714              	.LFB419:
 185:lib/tinyusb/src/tusb.c **** 
 186:lib/tinyusb/src/tusb.c **** uint16_t tu_desc_get_interface_total_len(tusb_desc_interface_t const* desc_itf, uint8_t itf_count, 
 715              		.loc 1 186 118 is_stmt 1 view -0
 716              		.cfi_startproc
 717              		@ args = 0, pretend = 0, frame = 0
 718              		@ frame_needed = 0, uses_anonymous_args = 0
 187:lib/tinyusb/src/tusb.c ****   uint8_t const* p_desc = (uint8_t const*) desc_itf;
 719              		.loc 1 187 3 view .LVU200
 188:lib/tinyusb/src/tusb.c ****   uint16_t len = 0;
 720              		.loc 1 188 3 view .LVU201
 189:lib/tinyusb/src/tusb.c **** 
 190:lib/tinyusb/src/tusb.c ****   while (itf_count--) {
 721              		.loc 1 190 3 view .LVU202
 722              		.loc 1 190 9 view .LVU203
 723              		.loc 1 190 9 is_stmt 0 view .LVU204
 724 0000 51B3     		cbz	r1, .L96
 725 0002 8446     		mov	ip, r0
 186:lib/tinyusb/src/tusb.c ****   uint8_t const* p_desc = (uint8_t const*) desc_itf;
 726              		.loc 1 186 118 view .LVU205
 727 0004 10B5     		push	{r4, lr}
 728              		.cfi_def_cfa_offset 8
 729              		.cfi_offset 4, -8
 730              		.cfi_offset 14, -4
 731 0006 01F1FF3E 		add	lr, r1, #-1
 732              	.LBB106:
 733              	.LBB107:
 524:lib/tinyusb/src/common/tusb_types.h **** }
 525:lib/tinyusb/src/common/tusb_types.h **** 
 526:lib/tinyusb/src/common/tusb_types.h **** // get descriptor length
 527:lib/tinyusb/src/common/tusb_types.h **** TU_ATTR_ALWAYS_INLINE static inline uint8_t tu_desc_len(void const* desc) {
 528:lib/tinyusb/src/common/tusb_types.h ****   return ((uint8_t const*) desc)[DESC_OFFSET_LEN];
 734              		.loc 2 528 33 view .LVU206
 735 000a 0178     		ldrb	r1, [r0]	@ zero_extendqisi2
 736              	.LVL50:
 737              		.loc 2 528 33 view .LVU207
 738              	.LBE107:
 739              	.LBE106:
 188:lib/tinyusb/src/tusb.c **** 
 740              		.loc 1 188 12 view .LVU208
 741 000c 0020     		movs	r0, #0
 742              	.LVL51:
 188:lib/tinyusb/src/tusb.c **** 
 743              		.loc 1 188 12 view .LVU209
 744 000e 5FFA8EFE 		uxtb	lr, lr
ARM GAS  /tmp/claude-502/ccY3ow5l.s 			page 28


 191:lib/tinyusb/src/tusb.c ****     // Next on interface desc
 192:lib/tinyusb/src/tusb.c ****     len += tu_desc_len(desc_itf);
 745              		.loc 1 192 12 view .LVU210
 746 0012 8CB2     		uxth	r4, r1
 747              	.LVL52:
 748              	.L95:
 749              		.loc 1 192 5 is_stmt 1 view .LVU211
 750              	.LBB109:
 751              	.LBI106:
 527:lib/tinyusb/src/common/tusb_types.h ****   return ((uint8_t const*) desc)[DESC_OFFSET_LEN];
 752              		.loc 2 527 45 view .LVU212
 753              	.LBB108:
 754              		.loc 2 528 3 view .LVU213
 755              		.loc 2 528 3 is_stmt 0 view .LVU214
 756              	.LBE108:
 757              	.LBE109:
 758              		.loc 1 192 9 view .LVU215
 759 0014 2318     		adds	r3, r4, r0
 760              	.LBB110:
 761              	.LBB111:
 518:lib/tinyusb/src/common/tusb_types.h **** }
 762              		.loc 2 518 16 view .LVU216
 763 0016 8C44     		add	ip, ip, r1
 764              	.LVL53:
 518:lib/tinyusb/src/common/tusb_types.h **** }
 765              		.loc 2 518 16 view .LVU217
 766              	.LBE111:
 767              	.LBE110:
 768              		.loc 1 192 9 view .LVU218
 769 0018 98B2     		uxth	r0, r3
 770              	.LVL54:
 193:lib/tinyusb/src/tusb.c ****     p_desc = tu_desc_next(p_desc);
 771              		.loc 1 193 5 is_stmt 1 view .LVU219
 772              	.LBB114:
 773              	.LBI110:
 516:lib/tinyusb/src/common/tusb_types.h ****   uint8_t const* desc8 = (uint8_t const*) desc;
 774              		.loc 2 516 53 view .LVU220
 775              	.LBB112:
 517:lib/tinyusb/src/common/tusb_types.h ****   return desc8 + desc8[DESC_OFFSET_LEN];
 776              		.loc 2 517 3 view .LVU221
 518:lib/tinyusb/src/common/tusb_types.h **** }
 777              		.loc 2 518 3 view .LVU222
 518:lib/tinyusb/src/common/tusb_types.h **** }
 778              		.loc 2 518 3 is_stmt 0 view .LVU223
 779              	.LBE112:
 780              	.LBE114:
 194:lib/tinyusb/src/tusb.c **** 
 195:lib/tinyusb/src/tusb.c ****     while (len < max_len) {
 781              		.loc 1 195 5 is_stmt 1 view .LVU224
 782              		.loc 1 195 11 view .LVU225
 783 001a 9042     		cmp	r0, r2
 784 001c 07D3     		bcc	.L94
 785 001e 10E0     		b	.L92
 786              	.LVL55:
 787              	.L93:
 788              	.LBB115:
 789              	.LBB116:
ARM GAS  /tmp/claude-502/ccY3ow5l.s 			page 29


 790              		.loc 2 528 33 is_stmt 0 view .LVU226
 791 0020 9CF80030 		ldrb	r3, [ip]	@ zero_extendqisi2
 792              	.LVL56:
 793              		.loc 2 528 33 view .LVU227
 794              	.LBE116:
 795              	.LBE115:
 196:lib/tinyusb/src/tusb.c ****       // return on IAD regardless of itf count
 197:lib/tinyusb/src/tusb.c ****       if (tu_desc_type(p_desc) == TUSB_DESC_INTERFACE_ASSOCIATION) {
 198:lib/tinyusb/src/tusb.c ****         return len;
 199:lib/tinyusb/src/tusb.c ****       }
 200:lib/tinyusb/src/tusb.c ****       if ((tu_desc_type(p_desc) == TUSB_DESC_INTERFACE) &&
 201:lib/tinyusb/src/tusb.c ****           ((tusb_desc_interface_t const*) p_desc)->bAlternateSetting == 0) {
 202:lib/tinyusb/src/tusb.c ****         break;
 203:lib/tinyusb/src/tusb.c ****       }
 204:lib/tinyusb/src/tusb.c **** 
 205:lib/tinyusb/src/tusb.c ****       len += tu_desc_len(p_desc);
 796              		.loc 1 205 11 view .LVU228
 797 0024 1844     		add	r0, r0, r3
 798              	.LVL57:
 799              	.LBB118:
 800              	.LBB119:
 518:lib/tinyusb/src/common/tusb_types.h **** }
 801              		.loc 2 518 16 view .LVU229
 802 0026 9C44     		add	ip, ip, r3
 803              	.LVL58:
 518:lib/tinyusb/src/common/tusb_types.h **** }
 804              		.loc 2 518 16 view .LVU230
 805              	.LBE119:
 806              	.LBE118:
 807              		.loc 1 205 11 view .LVU231
 808 0028 80B2     		uxth	r0, r0
 809              	.LVL59:
 206:lib/tinyusb/src/tusb.c ****       p_desc = tu_desc_next(p_desc);
 810              		.loc 1 206 7 is_stmt 1 view .LVU232
 811              	.LBB121:
 812              	.LBI118:
 516:lib/tinyusb/src/common/tusb_types.h ****   uint8_t const* desc8 = (uint8_t const*) desc;
 813              		.loc 2 516 53 view .LVU233
 814              	.LBB120:
 517:lib/tinyusb/src/common/tusb_types.h ****   return desc8 + desc8[DESC_OFFSET_LEN];
 815              		.loc 2 517 3 view .LVU234
 518:lib/tinyusb/src/common/tusb_types.h **** }
 816              		.loc 2 518 3 view .LVU235
 518:lib/tinyusb/src/common/tusb_types.h **** }
 817              		.loc 2 518 3 is_stmt 0 view .LVU236
 818              	.LBE120:
 819              	.LBE121:
 195:lib/tinyusb/src/tusb.c ****       // return on IAD regardless of itf count
 820              		.loc 1 195 11 is_stmt 1 view .LVU237
 821 002a 8242     		cmp	r2, r0
 822 002c 09D9     		bls	.L92
 823              	.L94:
 197:lib/tinyusb/src/tusb.c ****         return len;
 824              		.loc 1 197 7 view .LVU238
 825              	.LVL60:
 826              	.LBB122:
 827              	.LBI122:
ARM GAS  /tmp/claude-502/ccY3ow5l.s 			page 30


 522:lib/tinyusb/src/common/tusb_types.h ****   return ((uint8_t const*) desc)[DESC_OFFSET_TYPE];
 828              		.loc 2 522 45 view .LVU239
 829              	.LBB123:
 523:lib/tinyusb/src/common/tusb_types.h **** }
 830              		.loc 2 523 3 view .LVU240
 831              	.LBE123:
 832              	.LBE122:
 200:lib/tinyusb/src/tusb.c ****           ((tusb_desc_interface_t const*) p_desc)->bAlternateSetting == 0) {
 833              		.loc 1 200 7 view .LVU241
 523:lib/tinyusb/src/common/tusb_types.h **** }
 834              		.loc 2 523 3 view .LVU242
 205:lib/tinyusb/src/tusb.c ****       p_desc = tu_desc_next(p_desc);
 835              		.loc 1 205 7 view .LVU243
 836              	.LBB125:
 837              	.LBI115:
 527:lib/tinyusb/src/common/tusb_types.h ****   return ((uint8_t const*) desc)[DESC_OFFSET_LEN];
 838              		.loc 2 527 45 view .LVU244
 839              	.LBB117:
 840              		.loc 2 528 3 view .LVU245
 841              	.LBE117:
 842              	.LBE125:
 843              	.LBB126:
 844              	.LBB124:
 523:lib/tinyusb/src/common/tusb_types.h **** }
 845              		.loc 2 523 33 is_stmt 0 view .LVU246
 846 002e 9CF80130 		ldrb	r3, [ip, #1]	@ zero_extendqisi2
 847              	.LVL61:
 523:lib/tinyusb/src/common/tusb_types.h **** }
 848              		.loc 2 523 33 view .LVU247
 849              	.LBE124:
 850              	.LBE126:
 197:lib/tinyusb/src/tusb.c ****         return len;
 851              		.loc 1 197 10 view .LVU248
 852 0032 0B2B     		cmp	r3, #11
 853 0034 0FD0     		beq	.L91
 200:lib/tinyusb/src/tusb.c ****           ((tusb_desc_interface_t const*) p_desc)->bAlternateSetting == 0) {
 854              		.loc 1 200 10 view .LVU249
 855 0036 042B     		cmp	r3, #4
 856 0038 F2D1     		bne	.L93
 200:lib/tinyusb/src/tusb.c ****           ((tusb_desc_interface_t const*) p_desc)->bAlternateSetting == 0) {
 857              		.loc 1 200 57 discriminator 1 view .LVU250
 858 003a 9CF80330 		ldrb	r3, [ip, #3]	@ zero_extendqisi2
 859 003e 002B     		cmp	r3, #0
 860 0040 EED1     		bne	.L93
 861              	.LVL62:
 862              	.L92:
 190:lib/tinyusb/src/tusb.c ****     // Next on interface desc
 863              		.loc 1 190 9 is_stmt 1 view .LVU251
 190:lib/tinyusb/src/tusb.c ****     // Next on interface desc
 864              		.loc 1 190 19 is_stmt 0 view .LVU252
 865 0042 0EF1FF3E 		add	lr, lr, #-1
 866              	.LVL63:
 190:lib/tinyusb/src/tusb.c ****     // Next on interface desc
 867              		.loc 1 190 19 view .LVU253
 868 0046 5FFA8EFE 		uxtb	lr, lr
 869              	.LVL64:
 190:lib/tinyusb/src/tusb.c ****     // Next on interface desc
ARM GAS  /tmp/claude-502/ccY3ow5l.s 			page 31


 870              		.loc 1 190 9 view .LVU254
 871 004a BEF1FF0F 		cmp	lr, #255
 872 004e 02D0     		beq	.L91
 873              	.LBB127:
 874              	.LBB113:
 518:lib/tinyusb/src/common/tusb_types.h **** }
 875              		.loc 2 518 23 view .LVU255
 876 0050 9CF80010 		ldrb	r1, [ip]	@ zero_extendqisi2
 877 0054 DEE7     		b	.L95
 878              	.L91:
 518:lib/tinyusb/src/common/tusb_types.h **** }
 879              		.loc 2 518 23 view .LVU256
 880              	.LBE113:
 881              	.LBE127:
 207:lib/tinyusb/src/tusb.c ****     }
 208:lib/tinyusb/src/tusb.c ****   }
 209:lib/tinyusb/src/tusb.c **** 
 210:lib/tinyusb/src/tusb.c ****   return len;
 211:lib/tinyusb/src/tusb.c **** }
 882              		.loc 1 211 1 view .LVU257
 883 0056 10BD     		pop	{r4, pc}
 884              	.LVL65:
 885              	.L96:
 886              		.cfi_def_cfa_offset 0
 887              		.cfi_restore 4
 888              		.cfi_restore 14
 188:lib/tinyusb/src/tusb.c **** 
 889              		.loc 1 188 12 view .LVU258
 890 0058 0846     		mov	r0, r1
 891              	.LVL66:
 892              		.loc 1 211 1 view .LVU259
 893 005a 7047     		bx	lr
 894              		.cfi_endproc
 895              	.LFE419:
 897              		.section	.text.tu_edpt_stream_init,"ax",%progbits
 898              		.align	1
 899              		.p2align 2,,3
 900              		.global	tu_edpt_stream_init
 901              		.syntax unified
 902              		.thumb
 903              		.thumb_func
 905              	tu_edpt_stream_init:
 906              	.LVL67:
 907              	.LFB420:
 212:lib/tinyusb/src/tusb.c **** 
 213:lib/tinyusb/src/tusb.c **** //--------------------------------------------------------------------+
 214:lib/tinyusb/src/tusb.c **** // Endpoint Stream Helper for both Host and Device stack
 215:lib/tinyusb/src/tusb.c **** //--------------------------------------------------------------------+
 216:lib/tinyusb/src/tusb.c **** 
 217:lib/tinyusb/src/tusb.c **** bool tu_edpt_stream_init(tu_edpt_stream_t* s, bool is_host, bool is_tx, bool overwritable,
 218:lib/tinyusb/src/tusb.c ****                          void* ff_buf, uint16_t ff_bufsize, uint8_t* ep_buf, uint16_t ep_bufsize) {
 908              		.loc 1 218 99 is_stmt 1 view -0
 909              		.cfi_startproc
 910              		@ args = 16, pretend = 0, frame = 0
 911              		@ frame_needed = 0, uses_anonymous_args = 0
 219:lib/tinyusb/src/tusb.c ****   (void) is_tx;
 912              		.loc 1 219 3 view .LVU261
ARM GAS  /tmp/claude-502/ccY3ow5l.s 			page 32


 220:lib/tinyusb/src/tusb.c **** 
 221:lib/tinyusb/src/tusb.c ****   s->is_host = is_host;
 913              		.loc 1 221 3 view .LVU262
 218:lib/tinyusb/src/tusb.c ****   (void) is_tx;
 914              		.loc 1 218 99 is_stmt 0 view .LVU263
 915 0000 30B5     		push	{r4, r5, lr}
 916              		.cfi_def_cfa_offset 12
 917              		.cfi_offset 4, -12
 918              		.cfi_offset 5, -8
 919              		.cfi_offset 14, -4
 920 0002 83B0     		sub	sp, sp, #12
 921              		.cfi_def_cfa_offset 24
 218:lib/tinyusb/src/tusb.c ****   (void) is_tx;
 922              		.loc 1 218 99 view .LVU264
 923 0004 0446     		mov	r4, r0
 222:lib/tinyusb/src/tusb.c ****   tu_fifo_config(&s->ff, ff_buf, ff_bufsize, 1, overwritable);
 924              		.loc 1 222 3 view .LVU265
 925 0006 0093     		str	r3, [sp]
 221:lib/tinyusb/src/tusb.c ****   tu_fifo_config(&s->ff, ff_buf, ff_bufsize, 1, overwritable);
 926              		.loc 1 221 14 view .LVU266
 927 0008 0378     		ldrb	r3, [r0]	@ zero_extendqisi2
 928              	.LVL68:
 929              		.loc 1 222 3 view .LVU267
 930 000a BDF81C20 		ldrh	r2, [sp, #28]
 931              	.LVL69:
 221:lib/tinyusb/src/tusb.c ****   tu_fifo_config(&s->ff, ff_buf, ff_bufsize, 1, overwritable);
 932              		.loc 1 221 14 view .LVU268
 933 000e 61F30003 		bfi	r3, r1, #0, #1
 934              		.loc 1 222 3 view .LVU269
 935 0012 0699     		ldr	r1, [sp, #24]
 936              	.LVL70:
 218:lib/tinyusb/src/tusb.c ****   (void) is_tx;
 937              		.loc 1 218 99 view .LVU270
 938 0014 BDF82450 		ldrh	r5, [sp, #36]
 221:lib/tinyusb/src/tusb.c ****   tu_fifo_config(&s->ff, ff_buf, ff_bufsize, 1, overwritable);
 939              		.loc 1 221 14 view .LVU271
 940 0018 00F8083B 		strb	r3, [r0], #8
 941              	.LVL71:
 942              		.loc 1 222 3 is_stmt 1 view .LVU272
 943 001c 0123     		movs	r3, #1
 944 001e FFF7FEFF 		bl	tu_fifo_config
 945              	.LVL72:
 223:lib/tinyusb/src/tusb.c **** 
 224:lib/tinyusb/src/tusb.c ****   #if OSAL_MUTEX_REQUIRED
 225:lib/tinyusb/src/tusb.c ****   if (ff_buf && ff_bufsize) {
 226:lib/tinyusb/src/tusb.c ****     osal_mutex_t new_mutex = osal_mutex_create(&s->ff_mutexdef);
 227:lib/tinyusb/src/tusb.c ****     tu_fifo_config_mutex(&s->ff, is_tx ? new_mutex : NULL, is_tx ? NULL : new_mutex);
 228:lib/tinyusb/src/tusb.c ****   }
 229:lib/tinyusb/src/tusb.c ****   #endif
 230:lib/tinyusb/src/tusb.c **** 
 231:lib/tinyusb/src/tusb.c ****   s->ep_buf = ep_buf;
 946              		.loc 1 231 3 view .LVU273
 947              		.loc 1 231 13 is_stmt 0 view .LVU274
 948 0022 089B     		ldr	r3, [sp, #32]
 232:lib/tinyusb/src/tusb.c ****   s->ep_bufsize = ep_bufsize;
 233:lib/tinyusb/src/tusb.c **** 
 234:lib/tinyusb/src/tusb.c ****   return true;
ARM GAS  /tmp/claude-502/ccY3ow5l.s 			page 33


 235:lib/tinyusb/src/tusb.c **** }
 949              		.loc 1 235 1 view .LVU275
 950 0024 0120     		movs	r0, #1
 232:lib/tinyusb/src/tusb.c ****   s->ep_bufsize = ep_bufsize;
 951              		.loc 1 232 17 view .LVU276
 952 0026 6580     		strh	r5, [r4, #2]	@ movhi
 231:lib/tinyusb/src/tusb.c ****   s->ep_bufsize = ep_bufsize;
 953              		.loc 1 231 13 view .LVU277
 954 0028 6360     		str	r3, [r4, #4]
 232:lib/tinyusb/src/tusb.c ****   s->ep_bufsize = ep_bufsize;
 955              		.loc 1 232 3 is_stmt 1 view .LVU278
 234:lib/tinyusb/src/tusb.c **** }
 956              		.loc 1 234 3 view .LVU279
 957              		.loc 1 235 1 is_stmt 0 view .LVU280
 958 002a 03B0     		add	sp, sp, #12
 959              		.cfi_def_cfa_offset 12
 960              		@ sp needed
 961 002c 30BD     		pop	{r4, r5, pc}
 962              		.loc 1 235 1 view .LVU281
 963              		.cfi_endproc
 964              	.LFE420:
 966 002e 00BF     		.section	.text.tu_edpt_stream_deinit,"ax",%progbits
 967              		.align	1
 968              		.p2align 2,,3
 969              		.global	tu_edpt_stream_deinit
 970              		.syntax unified
 971              		.thumb
 972              		.thumb_func
 974              	tu_edpt_stream_deinit:
 975              	.LVL73:
 976              	.LFB421:
 236:lib/tinyusb/src/tusb.c **** 
 237:lib/tinyusb/src/tusb.c **** bool tu_edpt_stream_deinit(tu_edpt_stream_t* s) {
 977              		.loc 1 237 49 is_stmt 1 view -0
 978              		.cfi_startproc
 979              		@ args = 0, pretend = 0, frame = 0
 980              		@ frame_needed = 0, uses_anonymous_args = 0
 981              		@ link register save eliminated.
 238:lib/tinyusb/src/tusb.c ****   (void) s;
 982              		.loc 1 238 3 view .LVU283
 239:lib/tinyusb/src/tusb.c ****   #if OSAL_MUTEX_REQUIRED
 240:lib/tinyusb/src/tusb.c ****   if (s->ff.mutex_wr) osal_mutex_delete(s->ff.mutex_wr);
 241:lib/tinyusb/src/tusb.c ****   if (s->ff.mutex_rd) osal_mutex_delete(s->ff.mutex_rd);
 242:lib/tinyusb/src/tusb.c ****   #endif
 243:lib/tinyusb/src/tusb.c ****   return true;
 983              		.loc 1 243 3 view .LVU284
 244:lib/tinyusb/src/tusb.c **** }
 984              		.loc 1 244 1 is_stmt 0 view .LVU285
 985 0000 0120     		movs	r0, #1
 986              	.LVL74:
 987              		.loc 1 244 1 view .LVU286
 988 0002 7047     		bx	lr
 989              		.cfi_endproc
 990              	.LFE421:
 992              		.section	.text.tu_edpt_stream_write_zlp_if_needed,"ax",%progbits
 993              		.align	1
 994              		.p2align 2,,3
ARM GAS  /tmp/claude-502/ccY3ow5l.s 			page 34


 995              		.global	tu_edpt_stream_write_zlp_if_needed
 996              		.syntax unified
 997              		.thumb
 998              		.thumb_func
 1000              	tu_edpt_stream_write_zlp_if_needed:
 1001              	.LVL75:
 1002              	.LFB425:
 245:lib/tinyusb/src/tusb.c **** 
 246:lib/tinyusb/src/tusb.c **** TU_ATTR_ALWAYS_INLINE static inline bool stream_claim(uint8_t hwid, tu_edpt_stream_t* s) {
 247:lib/tinyusb/src/tusb.c ****   if (s->is_host) {
 248:lib/tinyusb/src/tusb.c ****     #if CFG_TUH_ENABLED
 249:lib/tinyusb/src/tusb.c ****     return usbh_edpt_claim(hwid, s->ep_addr);
 250:lib/tinyusb/src/tusb.c ****     #endif
 251:lib/tinyusb/src/tusb.c ****   } else {
 252:lib/tinyusb/src/tusb.c ****     #if CFG_TUD_ENABLED
 253:lib/tinyusb/src/tusb.c ****     return usbd_edpt_claim(hwid, s->ep_addr);
 254:lib/tinyusb/src/tusb.c ****     #endif
 255:lib/tinyusb/src/tusb.c ****   }
 256:lib/tinyusb/src/tusb.c ****   return false;
 257:lib/tinyusb/src/tusb.c **** }
 258:lib/tinyusb/src/tusb.c **** 
 259:lib/tinyusb/src/tusb.c **** TU_ATTR_ALWAYS_INLINE static inline bool stream_xfer(uint8_t hwid, tu_edpt_stream_t* s, uint16_t co
 260:lib/tinyusb/src/tusb.c ****   if (s->is_host) {
 261:lib/tinyusb/src/tusb.c ****     #if CFG_TUH_ENABLED
 262:lib/tinyusb/src/tusb.c ****     return usbh_edpt_xfer(hwid, s->ep_addr, count ? s->ep_buf : NULL, count);
 263:lib/tinyusb/src/tusb.c ****     #endif
 264:lib/tinyusb/src/tusb.c ****   } else {
 265:lib/tinyusb/src/tusb.c ****     #if CFG_TUD_ENABLED
 266:lib/tinyusb/src/tusb.c ****     return usbd_edpt_xfer(hwid, s->ep_addr, count ? s->ep_buf : NULL, count);
 267:lib/tinyusb/src/tusb.c ****     #endif
 268:lib/tinyusb/src/tusb.c ****   }
 269:lib/tinyusb/src/tusb.c ****   return false;
 270:lib/tinyusb/src/tusb.c **** }
 271:lib/tinyusb/src/tusb.c **** 
 272:lib/tinyusb/src/tusb.c **** TU_ATTR_ALWAYS_INLINE static inline bool stream_release(uint8_t hwid, tu_edpt_stream_t* s) {
 273:lib/tinyusb/src/tusb.c ****   if (s->is_host) {
 274:lib/tinyusb/src/tusb.c ****     #if CFG_TUH_ENABLED
 275:lib/tinyusb/src/tusb.c ****     return usbh_edpt_release(hwid, s->ep_addr);
 276:lib/tinyusb/src/tusb.c ****     #endif
 277:lib/tinyusb/src/tusb.c ****   } else {
 278:lib/tinyusb/src/tusb.c ****     #if CFG_TUD_ENABLED
 279:lib/tinyusb/src/tusb.c ****     return usbd_edpt_release(hwid, s->ep_addr);
 280:lib/tinyusb/src/tusb.c ****     #endif
 281:lib/tinyusb/src/tusb.c ****   }
 282:lib/tinyusb/src/tusb.c ****   return false;
 283:lib/tinyusb/src/tusb.c **** }
 284:lib/tinyusb/src/tusb.c **** 
 285:lib/tinyusb/src/tusb.c **** //--------------------------------------------------------------------+
 286:lib/tinyusb/src/tusb.c **** // Stream Write
 287:lib/tinyusb/src/tusb.c **** //--------------------------------------------------------------------+
 288:lib/tinyusb/src/tusb.c **** bool tu_edpt_stream_write_zlp_if_needed(uint8_t hwid, tu_edpt_stream_t* s, uint32_t last_xferred_by
 1003              		.loc 1 288 105 is_stmt 1 view -0
 1004              		.cfi_startproc
 1005              		@ args = 0, pretend = 0, frame = 0
 1006              		@ frame_needed = 0, uses_anonymous_args = 0
 289:lib/tinyusb/src/tusb.c ****   // ZLP condition: no pending data, last transferred bytes is multiple of packet size
 290:lib/tinyusb/src/tusb.c ****   const uint16_t mps = s->is_mps512 ? TUSB_EPSIZE_BULK_HS : TUSB_EPSIZE_BULK_FS;
ARM GAS  /tmp/claude-502/ccY3ow5l.s 			page 35


 1007              		.loc 1 290 3 view .LVU288
 288:lib/tinyusb/src/tusb.c ****   // ZLP condition: no pending data, last transferred bytes is multiple of packet size
 1008              		.loc 1 288 105 is_stmt 0 view .LVU289
 1009 0000 F8B5     		push	{r3, r4, r5, r6, r7, lr}
 1010              		.cfi_def_cfa_offset 24
 1011              		.cfi_offset 3, -24
 1012              		.cfi_offset 4, -20
 1013              		.cfi_offset 5, -16
 1014              		.cfi_offset 6, -12
 1015              		.cfi_offset 7, -8
 1016              		.cfi_offset 14, -4
 288:lib/tinyusb/src/tusb.c ****   // ZLP condition: no pending data, last transferred bytes is multiple of packet size
 1017              		.loc 1 288 105 view .LVU290
 1018 0002 0646     		mov	r6, r0
 1019              		.loc 1 290 37 view .LVU291
 1020 0004 0846     		mov	r0, r1
 1021              	.LVL76:
 288:lib/tinyusb/src/tusb.c ****   // ZLP condition: no pending data, last transferred bytes is multiple of packet size
 1022              		.loc 1 288 105 view .LVU292
 1023 0006 1446     		mov	r4, r2
 1024 0008 0D46     		mov	r5, r1
 1025              		.loc 1 290 37 view .LVU293
 1026 000a 10F8083B 		ldrb	r3, [r0], #8	@ zero_extendqisi2
 1027              		.loc 1 290 18 view .LVU294
 1028 000e 13F0020F 		tst	r3, #2
 1029 0012 14BF     		ite	ne
 1030 0014 4FF40077 		movne	r7, #512
 1031 0018 4027     		moveq	r7, #64
 1032              	.LVL77:
 291:lib/tinyusb/src/tusb.c ****   TU_VERIFY(!tu_fifo_count(&s->ff) && last_xferred_bytes && (0 == (last_xferred_bytes & (mps - 1)))
 1033              		.loc 1 291 3 is_stmt 1 view .LVU295
 1034              		.loc 1 291 3 view .LVU296
 1035 001a FFF7FEFF 		bl	tu_fifo_count
 1036              	.LVL78:
 1037              		.loc 1 291 3 is_stmt 0 view .LVU297
 1038 001e B4FA84F3 		clz	r3, r4
 1039 0022 5B09     		lsrs	r3, r3, #5
 1040 0024 0028     		cmp	r0, #0
 1041 0026 18BF     		it	ne
 1042 0028 43F00103 		orrne	r3, r3, #1
 1043 002c 0BB1     		cbz	r3, .L116
 1044              	.LVL79:
 1045              	.L127:
 292:lib/tinyusb/src/tusb.c ****   TU_VERIFY(stream_claim(hwid, s));
 293:lib/tinyusb/src/tusb.c ****   TU_ASSERT(stream_xfer(hwid, s, 0));
 1046              		.loc 1 293 3 discriminator 3 view .LVU298
 1047 002e 0020     		movs	r0, #0
 294:lib/tinyusb/src/tusb.c ****   return true;
 295:lib/tinyusb/src/tusb.c **** }
 1048              		.loc 1 295 1 discriminator 3 view .LVU299
 1049 0030 F8BD     		pop	{r3, r4, r5, r6, r7, pc}
 1050              	.LVL80:
 1051              	.L116:
 291:lib/tinyusb/src/tusb.c ****   TU_VERIFY(stream_claim(hwid, s));
 1052              		.loc 1 291 3 discriminator 4 view .LVU300
 1053 0032 013F     		subs	r7, r7, #1
 1054              	.LVL81:
ARM GAS  /tmp/claude-502/ccY3ow5l.s 			page 36


 291:lib/tinyusb/src/tusb.c ****   TU_VERIFY(stream_claim(hwid, s));
 1055              		.loc 1 291 3 discriminator 4 view .LVU301
 1056 0034 2742     		tst	r7, r4
 1057 0036 FAD1     		bne	.L127
 291:lib/tinyusb/src/tusb.c ****   TU_VERIFY(stream_claim(hwid, s));
 1058              		.loc 1 291 3 is_stmt 1 view .LVU302
 292:lib/tinyusb/src/tusb.c ****   TU_VERIFY(stream_claim(hwid, s));
 1059              		.loc 1 292 3 view .LVU303
 292:lib/tinyusb/src/tusb.c ****   TU_VERIFY(stream_claim(hwid, s));
 1060              		.loc 1 292 3 view .LVU304
 1061              	.LVL82:
 1062              	.LBB128:
 1063              	.LBI128:
 246:lib/tinyusb/src/tusb.c ****   if (s->is_host) {
 1064              		.loc 1 246 42 view .LVU305
 1065              	.LBB129:
 247:lib/tinyusb/src/tusb.c ****     #if CFG_TUH_ENABLED
 1066              		.loc 1 247 3 view .LVU306
 247:lib/tinyusb/src/tusb.c ****     #if CFG_TUH_ENABLED
 1067              		.loc 1 247 7 is_stmt 0 view .LVU307
 1068 0038 2B78     		ldrb	r3, [r5]	@ zero_extendqisi2
 247:lib/tinyusb/src/tusb.c ****     #if CFG_TUH_ENABLED
 1069              		.loc 1 247 6 view .LVU308
 1070 003a DA07     		lsls	r2, r3, #31
 1071 003c F7D4     		bmi	.L127
 253:lib/tinyusb/src/tusb.c ****     #endif
 1072              		.loc 1 253 5 is_stmt 1 view .LVU309
 253:lib/tinyusb/src/tusb.c ****     #endif
 1073              		.loc 1 253 12 is_stmt 0 view .LVU310
 1074 003e 6978     		ldrb	r1, [r5, #1]	@ zero_extendqisi2
 1075 0040 3046     		mov	r0, r6
 1076 0042 FFF7FEFF 		bl	usbd_edpt_claim
 1077              	.LVL83:
 253:lib/tinyusb/src/tusb.c ****     #endif
 1078              		.loc 1 253 12 view .LVU311
 1079              	.LBE129:
 1080              	.LBE128:
 292:lib/tinyusb/src/tusb.c ****   TU_ASSERT(stream_xfer(hwid, s, 0));
 1081              		.loc 1 292 3 view .LVU312
 1082 0046 0028     		cmp	r0, #0
 1083 0048 F1D0     		beq	.L127
 292:lib/tinyusb/src/tusb.c ****   TU_ASSERT(stream_xfer(hwid, s, 0));
 1084              		.loc 1 292 3 is_stmt 1 view .LVU313
 293:lib/tinyusb/src/tusb.c ****   return true;
 1085              		.loc 1 293 3 view .LVU314
 293:lib/tinyusb/src/tusb.c ****   return true;
 1086              		.loc 1 293 3 view .LVU315
 1087              	.LVL84:
 1088              	.LBB130:
 1089              	.LBI130:
 259:lib/tinyusb/src/tusb.c ****   if (s->is_host) {
 1090              		.loc 1 259 42 view .LVU316
 1091              	.LBB131:
 260:lib/tinyusb/src/tusb.c ****     #if CFG_TUH_ENABLED
 1092              		.loc 1 260 3 view .LVU317
 260:lib/tinyusb/src/tusb.c ****     #if CFG_TUH_ENABLED
 1093              		.loc 1 260 7 is_stmt 0 view .LVU318
ARM GAS  /tmp/claude-502/ccY3ow5l.s 			page 37


 1094 004a 2B78     		ldrb	r3, [r5]	@ zero_extendqisi2
 260:lib/tinyusb/src/tusb.c ****     #if CFG_TUH_ENABLED
 1095              		.loc 1 260 6 view .LVU319
 1096 004c 13F00103 		ands	r3, r3, #1
 1097 0050 07D0     		beq	.L119
 1098              	.LVL85:
 1099              	.L121:
 260:lib/tinyusb/src/tusb.c ****     #if CFG_TUH_ENABLED
 1100              		.loc 1 260 6 view .LVU320
 1101              	.LBE131:
 1102              	.LBE130:
 293:lib/tinyusb/src/tusb.c ****   return true;
 1103              		.loc 1 293 3 is_stmt 1 view .LVU321
 293:lib/tinyusb/src/tusb.c ****   return true;
 1104              		.loc 1 293 3 view .LVU322
 293:lib/tinyusb/src/tusb.c ****   return true;
 1105              		.loc 1 293 3 view .LVU323
 293:lib/tinyusb/src/tusb.c ****   return true;
 1106              		.loc 1 293 3 view .LVU324
 1107              	.LBB133:
 293:lib/tinyusb/src/tusb.c ****   return true;
 1108              		.loc 1 293 3 view .LVU325
 293:lib/tinyusb/src/tusb.c ****   return true;
 1109              		.loc 1 293 3 view .LVU326
 1110 0052 4FF0E023 		mov	r3, #-536813568
 1111 0056 D3F8F03D 		ldr	r3, [r3, #3568]
 1112 005a DB07     		lsls	r3, r3, #31
 1113 005c E7D5     		bpl	.L127
 293:lib/tinyusb/src/tusb.c ****   return true;
 1114              		.loc 1 293 3 discriminator 3 view .LVU327
 1115              		.syntax unified
 1116              	@ 293 "lib/tinyusb/src/tusb.c" 1
 1117 005e 00BE     		BKPT #0
 1118              	
 1119              	@ 0 "" 2
 1120              		.thumb
 1121              		.syntax unified
 1122 0060 E5E7     		b	.L127
 1123              	.LVL86:
 1124              	.L119:
 293:lib/tinyusb/src/tusb.c ****   return true;
 1125              		.loc 1 293 3 is_stmt 0 discriminator 3 view .LVU328
 1126              	.LBE133:
 1127              	.LBB134:
 1128              	.LBB132:
 266:lib/tinyusb/src/tusb.c ****     #endif
 1129              		.loc 1 266 5 is_stmt 1 view .LVU329
 266:lib/tinyusb/src/tusb.c ****     #endif
 1130              		.loc 1 266 12 is_stmt 0 view .LVU330
 1131 0062 1A46     		mov	r2, r3
 1132 0064 6978     		ldrb	r1, [r5, #1]	@ zero_extendqisi2
 1133 0066 3046     		mov	r0, r6
 1134 0068 FFF7FEFF 		bl	usbd_edpt_xfer
 1135              	.LVL87:
 266:lib/tinyusb/src/tusb.c ****     #endif
 1136              		.loc 1 266 12 view .LVU331
 1137              	.LBE132:
ARM GAS  /tmp/claude-502/ccY3ow5l.s 			page 38


 1138              	.LBE134:
 293:lib/tinyusb/src/tusb.c ****   return true;
 1139              		.loc 1 293 3 view .LVU332
 1140 006c 0028     		cmp	r0, #0
 1141 006e F0D0     		beq	.L121
 1142              		.loc 1 295 1 view .LVU333
 1143 0070 F8BD     		pop	{r3, r4, r5, r6, r7, pc}
 1144              		.loc 1 295 1 view .LVU334
 1145              		.cfi_endproc
 1146              	.LFE425:
 1148 0072 00BF     		.section	.text.tu_edpt_stream_write_xfer,"ax",%progbits
 1149              		.align	1
 1150              		.p2align 2,,3
 1151              		.global	tu_edpt_stream_write_xfer
 1152              		.syntax unified
 1153              		.thumb
 1154              		.thumb_func
 1156              	tu_edpt_stream_write_xfer:
 1157              	.LVL88:
 1158              	.LFB426:
 296:lib/tinyusb/src/tusb.c **** 
 297:lib/tinyusb/src/tusb.c **** uint32_t tu_edpt_stream_write_xfer(uint8_t hwid, tu_edpt_stream_t* s) {
 1159              		.loc 1 297 71 is_stmt 1 view -0
 1160              		.cfi_startproc
 1161              		@ args = 0, pretend = 0, frame = 0
 1162              		@ frame_needed = 0, uses_anonymous_args = 0
 298:lib/tinyusb/src/tusb.c ****   // skip if no data
 299:lib/tinyusb/src/tusb.c ****   TU_VERIFY(tu_fifo_count(&s->ff), 0);
 1163              		.loc 1 299 3 view .LVU336
 1164              		.loc 1 299 3 view .LVU337
 297:lib/tinyusb/src/tusb.c ****   // skip if no data
 1165              		.loc 1 297 71 is_stmt 0 view .LVU338
 1166 0000 70B5     		push	{r4, r5, r6, lr}
 1167              		.cfi_def_cfa_offset 16
 1168              		.cfi_offset 4, -16
 1169              		.cfi_offset 5, -12
 1170              		.cfi_offset 6, -8
 1171              		.cfi_offset 14, -4
 1172              		.loc 1 299 3 view .LVU339
 1173 0002 01F10805 		add	r5, r1, #8
 297:lib/tinyusb/src/tusb.c ****   // skip if no data
 1174              		.loc 1 297 71 view .LVU340
 1175 0006 0646     		mov	r6, r0
 1176 0008 0C46     		mov	r4, r1
 1177              		.loc 1 299 3 view .LVU341
 1178 000a 2846     		mov	r0, r5
 1179              	.LVL89:
 1180              		.loc 1 299 3 view .LVU342
 1181 000c FFF7FEFF 		bl	tu_fifo_count
 1182              	.LVL90:
 1183              		.loc 1 299 3 view .LVU343
 1184 0010 10B1     		cbz	r0, .L142
 1185              		.loc 1 299 3 is_stmt 1 view .LVU344
 300:lib/tinyusb/src/tusb.c **** 
 301:lib/tinyusb/src/tusb.c ****   TU_VERIFY(stream_claim(hwid, s), 0);
 1186              		.loc 1 301 3 view .LVU345
 1187              		.loc 1 301 3 view .LVU346
ARM GAS  /tmp/claude-502/ccY3ow5l.s 			page 39


 1188              	.LVL91:
 1189              	.LBB135:
 1190              	.LBI135:
 246:lib/tinyusb/src/tusb.c ****   if (s->is_host) {
 1191              		.loc 1 246 42 view .LVU347
 1192              	.LBB136:
 247:lib/tinyusb/src/tusb.c ****     #if CFG_TUH_ENABLED
 1193              		.loc 1 247 3 view .LVU348
 247:lib/tinyusb/src/tusb.c ****     #if CFG_TUH_ENABLED
 1194              		.loc 1 247 7 is_stmt 0 view .LVU349
 1195 0012 2378     		ldrb	r3, [r4]	@ zero_extendqisi2
 247:lib/tinyusb/src/tusb.c ****     #if CFG_TUH_ENABLED
 1196              		.loc 1 247 6 view .LVU350
 1197 0014 D907     		lsls	r1, r3, #31
 1198 0016 01D5     		bpl	.L145
 1199              	.LVL92:
 1200              	.L142:
 247:lib/tinyusb/src/tusb.c ****     #if CFG_TUH_ENABLED
 1201              		.loc 1 247 6 view .LVU351
 1202              	.LBE136:
 1203              	.LBE135:
 302:lib/tinyusb/src/tusb.c **** 
 303:lib/tinyusb/src/tusb.c ****   // Pull data from FIFO -> EP buf
 304:lib/tinyusb/src/tusb.c ****   uint16_t const count = tu_fifo_read_n(&s->ff, s->ep_buf, s->ep_bufsize);
 305:lib/tinyusb/src/tusb.c **** 
 306:lib/tinyusb/src/tusb.c ****   if (count) {
 307:lib/tinyusb/src/tusb.c ****     TU_ASSERT(stream_xfer(hwid, s, count), 0);
 1204              		.loc 1 307 5 discriminator 3 view .LVU352
 1205 0018 0020     		movs	r0, #0
 308:lib/tinyusb/src/tusb.c ****     return count;
 309:lib/tinyusb/src/tusb.c ****   } else {
 310:lib/tinyusb/src/tusb.c ****     // Release endpoint since we don't make any transfer
 311:lib/tinyusb/src/tusb.c ****     // Note: data is dropped if terminal is not connected
 312:lib/tinyusb/src/tusb.c ****     stream_release(hwid, s);
 313:lib/tinyusb/src/tusb.c ****     return 0;
 314:lib/tinyusb/src/tusb.c ****   }
 315:lib/tinyusb/src/tusb.c **** }
 1206              		.loc 1 315 1 discriminator 3 view .LVU353
 1207 001a 70BD     		pop	{r4, r5, r6, pc}
 1208              	.LVL93:
 1209              	.L145:
 1210              	.LBB138:
 1211              	.LBB137:
 253:lib/tinyusb/src/tusb.c ****     #endif
 1212              		.loc 1 253 5 is_stmt 1 view .LVU354
 253:lib/tinyusb/src/tusb.c ****     #endif
 1213              		.loc 1 253 12 is_stmt 0 view .LVU355
 1214 001c 6178     		ldrb	r1, [r4, #1]	@ zero_extendqisi2
 1215 001e 3046     		mov	r0, r6
 1216 0020 FFF7FEFF 		bl	usbd_edpt_claim
 1217              	.LVL94:
 253:lib/tinyusb/src/tusb.c ****     #endif
 1218              		.loc 1 253 12 view .LVU356
 1219              	.LBE137:
 1220              	.LBE138:
 301:lib/tinyusb/src/tusb.c **** 
 1221              		.loc 1 301 3 view .LVU357
ARM GAS  /tmp/claude-502/ccY3ow5l.s 			page 40


 1222 0024 0028     		cmp	r0, #0
 1223 0026 F7D0     		beq	.L142
 301:lib/tinyusb/src/tusb.c **** 
 1224              		.loc 1 301 3 is_stmt 1 discriminator 2 view .LVU358
 304:lib/tinyusb/src/tusb.c **** 
 1225              		.loc 1 304 3 discriminator 2 view .LVU359
 304:lib/tinyusb/src/tusb.c **** 
 1226              		.loc 1 304 26 is_stmt 0 discriminator 2 view .LVU360
 1227 0028 2846     		mov	r0, r5
 1228 002a 6288     		ldrh	r2, [r4, #2]
 1229 002c 6168     		ldr	r1, [r4, #4]
 1230 002e FFF7FEFF 		bl	tu_fifo_read_n
 1231              	.LVL95:
 306:lib/tinyusb/src/tusb.c ****     TU_ASSERT(stream_xfer(hwid, s, count), 0);
 1232              		.loc 1 306 3 is_stmt 1 discriminator 2 view .LVU361
 1233              	.LBB139:
 1234              	.LBB140:
 260:lib/tinyusb/src/tusb.c ****     #if CFG_TUH_ENABLED
 1235              		.loc 1 260 7 is_stmt 0 discriminator 2 view .LVU362
 1236 0032 2378     		ldrb	r3, [r4]	@ zero_extendqisi2
 1237              	.LBE140:
 1238              	.LBE139:
 306:lib/tinyusb/src/tusb.c ****     TU_ASSERT(stream_xfer(hwid, s, count), 0);
 1239              		.loc 1 306 6 discriminator 2 view .LVU363
 1240 0034 0546     		mov	r5, r0
 1241 0036 48B1     		cbz	r0, .L133
 307:lib/tinyusb/src/tusb.c ****     return count;
 1242              		.loc 1 307 5 is_stmt 1 view .LVU364
 307:lib/tinyusb/src/tusb.c ****     return count;
 1243              		.loc 1 307 5 view .LVU365
 1244              	.LVL96:
 1245              	.LBB143:
 1246              	.LBI139:
 259:lib/tinyusb/src/tusb.c ****   if (s->is_host) {
 1247              		.loc 1 259 42 view .LVU366
 1248              	.LBB141:
 260:lib/tinyusb/src/tusb.c ****     #if CFG_TUH_ENABLED
 1249              		.loc 1 260 3 view .LVU367
 260:lib/tinyusb/src/tusb.c ****     #if CFG_TUH_ENABLED
 1250              		.loc 1 260 6 is_stmt 0 view .LVU368
 1251 0038 DA07     		lsls	r2, r3, #31
 1252 003a 10D5     		bpl	.L134
 1253              	.LVL97:
 1254              	.L137:
 260:lib/tinyusb/src/tusb.c ****     #if CFG_TUH_ENABLED
 1255              		.loc 1 260 6 view .LVU369
 1256              	.LBE141:
 1257              	.LBE143:
 307:lib/tinyusb/src/tusb.c ****     return count;
 1258              		.loc 1 307 5 is_stmt 1 view .LVU370
 307:lib/tinyusb/src/tusb.c ****     return count;
 1259              		.loc 1 307 5 view .LVU371
 307:lib/tinyusb/src/tusb.c ****     return count;
 1260              		.loc 1 307 5 view .LVU372
 307:lib/tinyusb/src/tusb.c ****     return count;
 1261              		.loc 1 307 5 view .LVU373
 1262              	.LBB144:
ARM GAS  /tmp/claude-502/ccY3ow5l.s 			page 41


 307:lib/tinyusb/src/tusb.c ****     return count;
 1263              		.loc 1 307 5 view .LVU374
 307:lib/tinyusb/src/tusb.c ****     return count;
 1264              		.loc 1 307 5 view .LVU375
 1265 003c 4FF0E023 		mov	r3, #-536813568
 1266 0040 D3F8F03D 		ldr	r3, [r3, #3568]
 1267 0044 DB07     		lsls	r3, r3, #31
 1268 0046 E7D5     		bpl	.L142
 307:lib/tinyusb/src/tusb.c ****     return count;
 1269              		.loc 1 307 5 discriminator 3 view .LVU376
 1270              		.syntax unified
 1271              	@ 307 "lib/tinyusb/src/tusb.c" 1
 1272 0048 00BE     		BKPT #0
 1273              	
 1274              	@ 0 "" 2
 1275              		.thumb
 1276              		.syntax unified
 1277 004a E5E7     		b	.L142
 1278              	.LVL98:
 1279              	.L133:
 307:lib/tinyusb/src/tusb.c ****     return count;
 1280              		.loc 1 307 5 is_stmt 0 discriminator 3 view .LVU377
 1281              	.LBE144:
 312:lib/tinyusb/src/tusb.c ****     return 0;
 1282              		.loc 1 312 5 is_stmt 1 view .LVU378
 1283              	.LBB145:
 1284              	.LBI145:
 272:lib/tinyusb/src/tusb.c ****   if (s->is_host) {
 1285              		.loc 1 272 42 view .LVU379
 1286              	.LBB146:
 273:lib/tinyusb/src/tusb.c ****     #if CFG_TUH_ENABLED
 1287              		.loc 1 273 3 view .LVU380
 273:lib/tinyusb/src/tusb.c ****     #if CFG_TUH_ENABLED
 1288              		.loc 1 273 6 is_stmt 0 view .LVU381
 1289 004c 13F00105 		ands	r5, r3, #1
 1290 0050 E2D1     		bne	.L142
 279:lib/tinyusb/src/tusb.c ****     #endif
 1291              		.loc 1 279 5 is_stmt 1 view .LVU382
 279:lib/tinyusb/src/tusb.c ****     #endif
 1292              		.loc 1 279 12 is_stmt 0 view .LVU383
 1293 0052 6178     		ldrb	r1, [r4, #1]	@ zero_extendqisi2
 1294 0054 3046     		mov	r0, r6
 1295              	.LVL99:
 279:lib/tinyusb/src/tusb.c ****     #endif
 1296              		.loc 1 279 12 view .LVU384
 1297 0056 FFF7FEFF 		bl	usbd_edpt_release
 1298              	.LVL100:
 1299              	.LBE146:
 1300              	.LBE145:
 313:lib/tinyusb/src/tusb.c ****   }
 1301              		.loc 1 313 12 view .LVU385
 1302 005a 2846     		mov	r0, r5
 1303              	.LVL101:
 1304              	.L146:
 1305              		.loc 1 315 1 view .LVU386
 1306 005c 70BD     		pop	{r4, r5, r6, pc}
 1307              	.LVL102:
ARM GAS  /tmp/claude-502/ccY3ow5l.s 			page 42


 1308              	.L134:
 1309              	.LBB147:
 1310              	.LBB142:
 266:lib/tinyusb/src/tusb.c ****     #endif
 1311              		.loc 1 266 5 is_stmt 1 view .LVU387
 266:lib/tinyusb/src/tusb.c ****     #endif
 1312              		.loc 1 266 12 is_stmt 0 view .LVU388
 1313 005e 0346     		mov	r3, r0
 1314 0060 6268     		ldr	r2, [r4, #4]
 1315 0062 6178     		ldrb	r1, [r4, #1]	@ zero_extendqisi2
 1316 0064 3046     		mov	r0, r6
 1317              	.LVL103:
 266:lib/tinyusb/src/tusb.c ****     #endif
 1318              		.loc 1 266 12 view .LVU389
 1319 0066 FFF7FEFF 		bl	usbd_edpt_xfer
 1320              	.LVL104:
 266:lib/tinyusb/src/tusb.c ****     #endif
 1321              		.loc 1 266 12 view .LVU390
 1322              	.LBE142:
 1323              	.LBE147:
 307:lib/tinyusb/src/tusb.c ****     return count;
 1324              		.loc 1 307 5 view .LVU391
 1325 006a 0028     		cmp	r0, #0
 1326 006c E6D0     		beq	.L137
 313:lib/tinyusb/src/tusb.c ****   }
 1327              		.loc 1 313 12 view .LVU392
 1328 006e 2846     		mov	r0, r5
 1329 0070 F4E7     		b	.L146
 1330              		.cfi_endproc
 1331              	.LFE426:
 1333 0072 00BF     		.section	.text.tu_edpt_stream_write,"ax",%progbits
 1334              		.align	1
 1335              		.p2align 2,,3
 1336              		.global	tu_edpt_stream_write
 1337              		.syntax unified
 1338              		.thumb
 1339              		.thumb_func
 1341              	tu_edpt_stream_write:
 1342              	.LVL105:
 1343              	.LFB427:
 316:lib/tinyusb/src/tusb.c **** 
 317:lib/tinyusb/src/tusb.c **** uint32_t tu_edpt_stream_write(uint8_t hwid, tu_edpt_stream_t* s, void const* buffer, uint32_t bufsi
 1344              		.loc 1 317 104 is_stmt 1 view -0
 1345              		.cfi_startproc
 1346              		@ args = 0, pretend = 0, frame = 0
 1347              		@ frame_needed = 0, uses_anonymous_args = 0
 318:lib/tinyusb/src/tusb.c ****   TU_VERIFY(bufsize); // TODO support ZLP
 1348              		.loc 1 318 3 view .LVU394
 1349              		.loc 1 318 3 view .LVU395
 317:lib/tinyusb/src/tusb.c ****   TU_VERIFY(bufsize); // TODO support ZLP
 1350              		.loc 1 317 104 is_stmt 0 view .LVU396
 1351 0000 2DE9F041 		push	{r4, r5, r6, r7, r8, lr}
 1352              		.cfi_def_cfa_offset 24
 1353              		.cfi_offset 4, -24
 1354              		.cfi_offset 5, -20
 1355              		.cfi_offset 6, -16
 1356              		.cfi_offset 7, -12
ARM GAS  /tmp/claude-502/ccY3ow5l.s 			page 43


 1357              		.cfi_offset 8, -8
 1358              		.cfi_offset 14, -4
 1359              		.loc 1 318 3 view .LVU397
 1360 0004 43B1     		cbz	r3, .L165
 1361              		.loc 1 318 3 is_stmt 1 discriminator 2 view .LVU398
 319:lib/tinyusb/src/tusb.c **** 
 320:lib/tinyusb/src/tusb.c ****   if (0 == tu_fifo_depth(&s->ff)) {
 1362              		.loc 1 320 3 discriminator 2 view .LVU399
 1363              	.LVL106:
 1364              	.LBB148:
 1365              	.LBI148:
 1366              		.file 3 "lib/tinyusb/src/common/tusb_fifo.h"
   1:lib/tinyusb/src/common/tusb_fifo.h **** /*
   2:lib/tinyusb/src/common/tusb_fifo.h ****  * The MIT License (MIT)
   3:lib/tinyusb/src/common/tusb_fifo.h ****  *
   4:lib/tinyusb/src/common/tusb_fifo.h ****  * Copyright (c) 2019 Ha Thach (tinyusb.org)
   5:lib/tinyusb/src/common/tusb_fifo.h ****  * Copyright (c) 2020 Reinhard Panhuber - rework to unmasked pointers
   6:lib/tinyusb/src/common/tusb_fifo.h ****  *
   7:lib/tinyusb/src/common/tusb_fifo.h ****  * Permission is hereby granted, free of charge, to any person obtaining a copy
   8:lib/tinyusb/src/common/tusb_fifo.h ****  * of this software and associated documentation files (the "Software"), to deal
   9:lib/tinyusb/src/common/tusb_fifo.h ****  * in the Software without restriction, including without limitation the rights
  10:lib/tinyusb/src/common/tusb_fifo.h ****  * to use, copy, modify, merge, publish, distribute, sublicense, and/or sell
  11:lib/tinyusb/src/common/tusb_fifo.h ****  * copies of the Software, and to permit persons to whom the Software is
  12:lib/tinyusb/src/common/tusb_fifo.h ****  * furnished to do so, subject to the following conditions:
  13:lib/tinyusb/src/common/tusb_fifo.h ****  *
  14:lib/tinyusb/src/common/tusb_fifo.h ****  * The above copyright notice and this permission notice shall be included in
  15:lib/tinyusb/src/common/tusb_fifo.h ****  * all copies or substantial portions of the Software.
  16:lib/tinyusb/src/common/tusb_fifo.h ****  *
  17:lib/tinyusb/src/common/tusb_fifo.h ****  * THE SOFTWARE IS PROVIDED "AS IS", WITHOUT WARRANTY OF ANY KIND, EXPRESS OR
  18:lib/tinyusb/src/common/tusb_fifo.h ****  * IMPLIED, INCLUDING BUT NOT LIMITED TO THE WARRANTIES OF MERCHANTABILITY,
  19:lib/tinyusb/src/common/tusb_fifo.h ****  * FITNESS FOR A PARTICULAR PURPOSE AND NONINFRINGEMENT. IN NO EVENT SHALL THE
  20:lib/tinyusb/src/common/tusb_fifo.h ****  * AUTHORS OR COPYRIGHT HOLDERS BE LIABLE FOR ANY CLAIM, DAMAGES OR OTHER
  21:lib/tinyusb/src/common/tusb_fifo.h ****  * LIABILITY, WHETHER IN AN ACTION OF CONTRACT, TORT OR OTHERWISE, ARISING FROM,
  22:lib/tinyusb/src/common/tusb_fifo.h ****  * OUT OF OR IN CONNECTION WITH THE SOFTWARE OR THE USE OR OTHER DEALINGS IN
  23:lib/tinyusb/src/common/tusb_fifo.h ****  * THE SOFTWARE.
  24:lib/tinyusb/src/common/tusb_fifo.h ****  *
  25:lib/tinyusb/src/common/tusb_fifo.h ****  * This file is part of the TinyUSB stack.
  26:lib/tinyusb/src/common/tusb_fifo.h ****  */
  27:lib/tinyusb/src/common/tusb_fifo.h **** 
  28:lib/tinyusb/src/common/tusb_fifo.h **** #ifndef _TUSB_FIFO_H_
  29:lib/tinyusb/src/common/tusb_fifo.h **** #define _TUSB_FIFO_H_
  30:lib/tinyusb/src/common/tusb_fifo.h **** 
  31:lib/tinyusb/src/common/tusb_fifo.h **** #ifdef __cplusplus
  32:lib/tinyusb/src/common/tusb_fifo.h **** extern "C" {
  33:lib/tinyusb/src/common/tusb_fifo.h **** #endif
  34:lib/tinyusb/src/common/tusb_fifo.h **** 
  35:lib/tinyusb/src/common/tusb_fifo.h **** // Due to the use of unmasked pointers, this FIFO does not suffer from losing
  36:lib/tinyusb/src/common/tusb_fifo.h **** // one item slice. Furthermore, write and read operations are completely
  37:lib/tinyusb/src/common/tusb_fifo.h **** // decoupled as write and read functions do not modify a common state. Henceforth,
  38:lib/tinyusb/src/common/tusb_fifo.h **** // writing or reading from the FIFO within an ISR is safe as long as no other
  39:lib/tinyusb/src/common/tusb_fifo.h **** // process (thread or ISR) interferes.
  40:lib/tinyusb/src/common/tusb_fifo.h **** // Also, this FIFO is ready to be used in combination with a DMA as the write and
  41:lib/tinyusb/src/common/tusb_fifo.h **** // read pointers can be updated from within a DMA ISR. Overflows are detectable
  42:lib/tinyusb/src/common/tusb_fifo.h **** // within a certain number (see tu_fifo_overflow()).
  43:lib/tinyusb/src/common/tusb_fifo.h **** 
  44:lib/tinyusb/src/common/tusb_fifo.h **** #include "common/tusb_common.h"
  45:lib/tinyusb/src/common/tusb_fifo.h **** #include "osal/osal.h"
ARM GAS  /tmp/claude-502/ccY3ow5l.s 			page 44


  46:lib/tinyusb/src/common/tusb_fifo.h **** 
  47:lib/tinyusb/src/common/tusb_fifo.h **** // mutex is only needed for RTOS
  48:lib/tinyusb/src/common/tusb_fifo.h **** // for OS None, we don't get preempted
  49:lib/tinyusb/src/common/tusb_fifo.h **** #define CFG_FIFO_MUTEX      OSAL_MUTEX_REQUIRED
  50:lib/tinyusb/src/common/tusb_fifo.h **** 
  51:lib/tinyusb/src/common/tusb_fifo.h **** /* Write/Read index is always in the range of:
  52:lib/tinyusb/src/common/tusb_fifo.h ****  *      0 .. 2*depth-1
  53:lib/tinyusb/src/common/tusb_fifo.h ****  * The extra window allow us to determine the fifo state of empty or full with only 2 indices
  54:lib/tinyusb/src/common/tusb_fifo.h ****  * Following are examples with depth = 3
  55:lib/tinyusb/src/common/tusb_fifo.h ****  *
  56:lib/tinyusb/src/common/tusb_fifo.h ****  * - empty: W = R
  57:lib/tinyusb/src/common/tusb_fifo.h ****  *                |
  58:lib/tinyusb/src/common/tusb_fifo.h ****  *    -------------------------
  59:lib/tinyusb/src/common/tusb_fifo.h ****  *    | 0 | RW| 2 | 3 | 4 | 5 |
  60:lib/tinyusb/src/common/tusb_fifo.h ****  *
  61:lib/tinyusb/src/common/tusb_fifo.h ****  * - full 1: W > R
  62:lib/tinyusb/src/common/tusb_fifo.h ****  *                |
  63:lib/tinyusb/src/common/tusb_fifo.h ****  *    -------------------------
  64:lib/tinyusb/src/common/tusb_fifo.h ****  *    | 0 | R | 2 | 3 | W | 5 |
  65:lib/tinyusb/src/common/tusb_fifo.h ****  *
  66:lib/tinyusb/src/common/tusb_fifo.h ****  * - full 2: W < R
  67:lib/tinyusb/src/common/tusb_fifo.h ****  *                |
  68:lib/tinyusb/src/common/tusb_fifo.h ****  *    -------------------------
  69:lib/tinyusb/src/common/tusb_fifo.h ****  *    | 0 | 1 | W | 3 | 4 | R |
  70:lib/tinyusb/src/common/tusb_fifo.h ****  *
  71:lib/tinyusb/src/common/tusb_fifo.h ****  * - Number of items in the fifo can be determined in either cases:
  72:lib/tinyusb/src/common/tusb_fifo.h ****  *    - case W >= R: Count = W - R
  73:lib/tinyusb/src/common/tusb_fifo.h ****  *    - case W <  R: Count = 2*depth - (R - W)
  74:lib/tinyusb/src/common/tusb_fifo.h ****  *
  75:lib/tinyusb/src/common/tusb_fifo.h ****  * In non-overwritable mode, computed Count (in above 2 cases) is at most equal to depth.
  76:lib/tinyusb/src/common/tusb_fifo.h ****  * However, in over-writable mode, write index can be repeatedly increased and count can be
  77:lib/tinyusb/src/common/tusb_fifo.h ****  * temporarily larger than depth (overflowed condition) e.g
  78:lib/tinyusb/src/common/tusb_fifo.h ****  *
  79:lib/tinyusb/src/common/tusb_fifo.h ****  *  - Overflowed 1: write(3), write(1)
  80:lib/tinyusb/src/common/tusb_fifo.h ****  *    In this case we will adjust Read index when read()/peek() is called so that count = depth.
  81:lib/tinyusb/src/common/tusb_fifo.h ****  *                  |
  82:lib/tinyusb/src/common/tusb_fifo.h ****  *      -------------------------
  83:lib/tinyusb/src/common/tusb_fifo.h ****  *      | R | 1 | 2 | 3 | W | 5 |
  84:lib/tinyusb/src/common/tusb_fifo.h ****  *
  85:lib/tinyusb/src/common/tusb_fifo.h ****  *  - Double Overflowed i.e index is out of allowed range [0,2*depth)
  86:lib/tinyusb/src/common/tusb_fifo.h ****  *    This occurs when we continue to write after 1st overflowed to 2nd overflowed. e.g:
  87:lib/tinyusb/src/common/tusb_fifo.h ****  *      write(3), write(1), write(2)
  88:lib/tinyusb/src/common/tusb_fifo.h ****  *    This must be prevented since it will cause unrecoverable state, in above example
  89:lib/tinyusb/src/common/tusb_fifo.h ****  *    if not handled the fifo will be empty instead of continue-to-be full. Since we must not modif
  90:lib/tinyusb/src/common/tusb_fifo.h ****  *    read index in write() function, which cause race condition. We will re-position write index s
  91:lib/tinyusb/src/common/tusb_fifo.h ****  *    after data is written it is a full fifo i.e W = depth - R
  92:lib/tinyusb/src/common/tusb_fifo.h ****  *
  93:lib/tinyusb/src/common/tusb_fifo.h ****  *      re-position W = 1 before write(2)
  94:lib/tinyusb/src/common/tusb_fifo.h ****  *      Note: we should also move data from mem[3] to read index as well, but deliberately skipped 
  95:lib/tinyusb/src/common/tusb_fifo.h ****  *      since it is an expensive operation !!!
  96:lib/tinyusb/src/common/tusb_fifo.h ****  *                  |
  97:lib/tinyusb/src/common/tusb_fifo.h ****  *      -------------------------
  98:lib/tinyusb/src/common/tusb_fifo.h ****  *      | R | W | 2 | 3 | 4 | 5 |
  99:lib/tinyusb/src/common/tusb_fifo.h ****  *
 100:lib/tinyusb/src/common/tusb_fifo.h ****  *      perform write(2), result is still a full fifo.
 101:lib/tinyusb/src/common/tusb_fifo.h ****  *
 102:lib/tinyusb/src/common/tusb_fifo.h ****  *                  |
ARM GAS  /tmp/claude-502/ccY3ow5l.s 			page 45


 103:lib/tinyusb/src/common/tusb_fifo.h ****  *      -------------------------
 104:lib/tinyusb/src/common/tusb_fifo.h ****  *      | R | 1 | 2 | W | 4 | 5 |
 105:lib/tinyusb/src/common/tusb_fifo.h ****  */
 106:lib/tinyusb/src/common/tusb_fifo.h **** typedef struct {
 107:lib/tinyusb/src/common/tusb_fifo.h ****   uint8_t* buffer          ; // buffer pointer
 108:lib/tinyusb/src/common/tusb_fifo.h ****   uint16_t depth           ; // max items
 109:lib/tinyusb/src/common/tusb_fifo.h **** 
 110:lib/tinyusb/src/common/tusb_fifo.h ****   struct TU_ATTR_PACKED {
 111:lib/tinyusb/src/common/tusb_fifo.h ****     uint16_t item_size : 15; // size of each item
 112:lib/tinyusb/src/common/tusb_fifo.h ****     bool overwritable  : 1 ; // ovwerwritable when full
 113:lib/tinyusb/src/common/tusb_fifo.h ****   };
 114:lib/tinyusb/src/common/tusb_fifo.h **** 
 115:lib/tinyusb/src/common/tusb_fifo.h ****   volatile uint16_t wr_idx ; // write index
 116:lib/tinyusb/src/common/tusb_fifo.h ****   volatile uint16_t rd_idx ; // read index
 117:lib/tinyusb/src/common/tusb_fifo.h **** 
 118:lib/tinyusb/src/common/tusb_fifo.h **** #if OSAL_MUTEX_REQUIRED
 119:lib/tinyusb/src/common/tusb_fifo.h ****   osal_mutex_t mutex_wr;
 120:lib/tinyusb/src/common/tusb_fifo.h ****   osal_mutex_t mutex_rd;
 121:lib/tinyusb/src/common/tusb_fifo.h **** #endif
 122:lib/tinyusb/src/common/tusb_fifo.h **** 
 123:lib/tinyusb/src/common/tusb_fifo.h **** } tu_fifo_t;
 124:lib/tinyusb/src/common/tusb_fifo.h **** 
 125:lib/tinyusb/src/common/tusb_fifo.h **** typedef struct {
 126:lib/tinyusb/src/common/tusb_fifo.h ****   uint16_t len_lin  ; ///< linear length in item size
 127:lib/tinyusb/src/common/tusb_fifo.h ****   uint16_t len_wrap ; ///< wrapped length in item size
 128:lib/tinyusb/src/common/tusb_fifo.h ****   void * ptr_lin    ; ///< linear part start pointer
 129:lib/tinyusb/src/common/tusb_fifo.h ****   void * ptr_wrap   ; ///< wrapped part start pointer
 130:lib/tinyusb/src/common/tusb_fifo.h **** } tu_fifo_buffer_info_t;
 131:lib/tinyusb/src/common/tusb_fifo.h **** 
 132:lib/tinyusb/src/common/tusb_fifo.h **** #define TU_FIFO_INIT(_buffer, _depth, _type, _overwritable){\
 133:lib/tinyusb/src/common/tusb_fifo.h ****   .buffer               = _buffer,                          \
 134:lib/tinyusb/src/common/tusb_fifo.h ****   .depth                = _depth,                           \
 135:lib/tinyusb/src/common/tusb_fifo.h ****   .item_size            = sizeof(_type),                    \
 136:lib/tinyusb/src/common/tusb_fifo.h ****   .overwritable         = _overwritable,                    \
 137:lib/tinyusb/src/common/tusb_fifo.h **** }
 138:lib/tinyusb/src/common/tusb_fifo.h **** 
 139:lib/tinyusb/src/common/tusb_fifo.h **** #define TU_FIFO_DEF(_name, _depth, _type, _overwritable)                      \
 140:lib/tinyusb/src/common/tusb_fifo.h ****     uint8_t _name##_buf[_depth*sizeof(_type)];                                \
 141:lib/tinyusb/src/common/tusb_fifo.h ****     tu_fifo_t _name = TU_FIFO_INIT(_name##_buf, _depth, _type, _overwritable)
 142:lib/tinyusb/src/common/tusb_fifo.h **** 
 143:lib/tinyusb/src/common/tusb_fifo.h **** bool tu_fifo_set_overwritable(tu_fifo_t *f, bool overwritable);
 144:lib/tinyusb/src/common/tusb_fifo.h **** bool tu_fifo_clear(tu_fifo_t *f);
 145:lib/tinyusb/src/common/tusb_fifo.h **** bool tu_fifo_config(tu_fifo_t *f, void* buffer, uint16_t depth, uint16_t item_size, bool overwritab
 146:lib/tinyusb/src/common/tusb_fifo.h **** 
 147:lib/tinyusb/src/common/tusb_fifo.h **** #if OSAL_MUTEX_REQUIRED
 148:lib/tinyusb/src/common/tusb_fifo.h **** TU_ATTR_ALWAYS_INLINE static inline
 149:lib/tinyusb/src/common/tusb_fifo.h **** void tu_fifo_config_mutex(tu_fifo_t *f, osal_mutex_t wr_mutex, osal_mutex_t rd_mutex) {
 150:lib/tinyusb/src/common/tusb_fifo.h ****   f->mutex_wr = wr_mutex;
 151:lib/tinyusb/src/common/tusb_fifo.h ****   f->mutex_rd = rd_mutex;
 152:lib/tinyusb/src/common/tusb_fifo.h **** }
 153:lib/tinyusb/src/common/tusb_fifo.h **** #else
 154:lib/tinyusb/src/common/tusb_fifo.h **** #define tu_fifo_config_mutex(_f, _wr_mutex, _rd_mutex)
 155:lib/tinyusb/src/common/tusb_fifo.h **** #endif
 156:lib/tinyusb/src/common/tusb_fifo.h **** 
 157:lib/tinyusb/src/common/tusb_fifo.h **** bool     tu_fifo_write                  (tu_fifo_t* f, void const * data);
 158:lib/tinyusb/src/common/tusb_fifo.h **** uint16_t tu_fifo_write_n                (tu_fifo_t* f, void const * data, uint16_t n);
 159:lib/tinyusb/src/common/tusb_fifo.h **** #ifdef TUP_MEM_CONST_ADDR
ARM GAS  /tmp/claude-502/ccY3ow5l.s 			page 46


 160:lib/tinyusb/src/common/tusb_fifo.h **** uint16_t tu_fifo_write_n_const_addr_full_words    (tu_fifo_t* f, const void * data, uint16_t n);
 161:lib/tinyusb/src/common/tusb_fifo.h **** #endif
 162:lib/tinyusb/src/common/tusb_fifo.h **** 
 163:lib/tinyusb/src/common/tusb_fifo.h **** bool     tu_fifo_read                   (tu_fifo_t* f, void * buffer);
 164:lib/tinyusb/src/common/tusb_fifo.h **** uint16_t tu_fifo_read_n                 (tu_fifo_t* f, void * buffer, uint16_t n);
 165:lib/tinyusb/src/common/tusb_fifo.h **** #ifdef TUP_MEM_CONST_ADDR
 166:lib/tinyusb/src/common/tusb_fifo.h **** uint16_t tu_fifo_read_n_const_addr_full_words     (tu_fifo_t* f, void * buffer, uint16_t n);
 167:lib/tinyusb/src/common/tusb_fifo.h **** #endif
 168:lib/tinyusb/src/common/tusb_fifo.h **** 
 169:lib/tinyusb/src/common/tusb_fifo.h **** bool     tu_fifo_peek                   (tu_fifo_t* f, void * p_buffer);
 170:lib/tinyusb/src/common/tusb_fifo.h **** uint16_t tu_fifo_peek_n                 (tu_fifo_t* f, void * p_buffer, uint16_t n);
 171:lib/tinyusb/src/common/tusb_fifo.h **** 
 172:lib/tinyusb/src/common/tusb_fifo.h **** uint16_t tu_fifo_count                  (tu_fifo_t* f);
 173:lib/tinyusb/src/common/tusb_fifo.h **** uint16_t tu_fifo_remaining              (tu_fifo_t* f);
 174:lib/tinyusb/src/common/tusb_fifo.h **** bool     tu_fifo_empty                  (tu_fifo_t* f);
 175:lib/tinyusb/src/common/tusb_fifo.h **** bool     tu_fifo_full                   (tu_fifo_t* f);
 176:lib/tinyusb/src/common/tusb_fifo.h **** bool     tu_fifo_overflowed             (tu_fifo_t* f);
 177:lib/tinyusb/src/common/tusb_fifo.h **** void     tu_fifo_correct_read_pointer   (tu_fifo_t* f);
 178:lib/tinyusb/src/common/tusb_fifo.h **** 
 179:lib/tinyusb/src/common/tusb_fifo.h **** TU_ATTR_ALWAYS_INLINE static inline
 180:lib/tinyusb/src/common/tusb_fifo.h **** uint16_t tu_fifo_depth(tu_fifo_t* f) {
 1367              		.loc 3 180 10 discriminator 2 view .LVU400
 1368              	.LBB149:
 181:lib/tinyusb/src/common/tusb_fifo.h ****   return f->depth;
 1369              		.loc 3 181 3 discriminator 2 view .LVU401
 1370              		.loc 3 181 3 is_stmt 0 discriminator 2 view .LVU402
 1371 0006 1746     		mov	r7, r2
 1372              	.LBE149:
 1373              	.LBE148:
 1374              		.loc 1 320 6 discriminator 2 view .LVU403
 1375 0008 8A89     		ldrh	r2, [r1, #12]
 1376              	.LVL107:
 1377              		.loc 1 320 6 discriminator 2 view .LVU404
 1378 000a 0546     		mov	r5, r0
 1379 000c 0C46     		mov	r4, r1
 1380 000e 9846     		mov	r8, r3
 1381 0010 FAB9     		cbnz	r2, .L150
 1382              	.LBB150:
 321:lib/tinyusb/src/tusb.c ****     // no fifo for buffered
 322:lib/tinyusb/src/tusb.c ****     TU_VERIFY(stream_claim(hwid, s), 0);
 1383              		.loc 1 322 5 is_stmt 1 view .LVU405
 1384              		.loc 1 322 5 view .LVU406
 1385              	.LVL108:
 1386              	.LBB151:
 1387              	.LBI151:
 246:lib/tinyusb/src/tusb.c ****   if (s->is_host) {
 1388              		.loc 1 246 42 view .LVU407
 1389              	.LBB152:
 247:lib/tinyusb/src/tusb.c ****     #if CFG_TUH_ENABLED
 1390              		.loc 1 247 3 view .LVU408
 247:lib/tinyusb/src/tusb.c ****     #if CFG_TUH_ENABLED
 1391              		.loc 1 247 7 is_stmt 0 view .LVU409
 1392 0012 0A78     		ldrb	r2, [r1]	@ zero_extendqisi2
 247:lib/tinyusb/src/tusb.c ****     #if CFG_TUH_ENABLED
 1393              		.loc 1 247 6 view .LVU410
 1394 0014 D107     		lsls	r1, r2, #31
 1395              	.LVL109:
ARM GAS  /tmp/claude-502/ccY3ow5l.s 			page 47


 247:lib/tinyusb/src/tusb.c ****     #if CFG_TUH_ENABLED
 1396              		.loc 1 247 6 view .LVU411
 1397 0016 03D5     		bpl	.L166
 1398              	.LVL110:
 1399              	.L165:
 247:lib/tinyusb/src/tusb.c ****     #if CFG_TUH_ENABLED
 1400              		.loc 1 247 6 view .LVU412
 1401              	.LBE152:
 1402              	.LBE151:
 323:lib/tinyusb/src/tusb.c ****     const uint32_t xact_len = tu_min32(bufsize, s->ep_bufsize);
 324:lib/tinyusb/src/tusb.c ****     memcpy(s->ep_buf, buffer, xact_len);
 325:lib/tinyusb/src/tusb.c ****     TU_ASSERT(stream_xfer(hwid, s, (uint16_t) xact_len), 0);
 1403              		.loc 1 325 5 discriminator 3 view .LVU413
 1404 0018 0026     		movs	r6, #0
 1405              	.L147:
 1406              	.LBE150:
 326:lib/tinyusb/src/tusb.c ****     return xact_len;
 327:lib/tinyusb/src/tusb.c ****   } else {
 328:lib/tinyusb/src/tusb.c ****     const uint16_t ret = tu_fifo_write_n(&s->ff, buffer, (uint16_t) bufsize);
 329:lib/tinyusb/src/tusb.c **** 
 330:lib/tinyusb/src/tusb.c ****     // flush if fifo has more than packet size or
 331:lib/tinyusb/src/tusb.c ****     // in rare case: fifo depth is configured too small (which never reach packet size)
 332:lib/tinyusb/src/tusb.c ****     const uint16_t mps = s->is_mps512 ? TUSB_EPSIZE_BULK_HS : TUSB_EPSIZE_BULK_FS;
 333:lib/tinyusb/src/tusb.c ****     if ((tu_fifo_count(&s->ff) >= mps) || (tu_fifo_depth(&s->ff) < mps)) {
 334:lib/tinyusb/src/tusb.c ****       tu_edpt_stream_write_xfer(hwid, s);
 335:lib/tinyusb/src/tusb.c ****     }
 336:lib/tinyusb/src/tusb.c ****     return ret;
 337:lib/tinyusb/src/tusb.c ****   }
 338:lib/tinyusb/src/tusb.c **** }
 1407              		.loc 1 338 1 view .LVU414
 1408 001a 3046     		mov	r0, r6
 1409 001c BDE8F081 		pop	{r4, r5, r6, r7, r8, pc}
 1410              	.LVL111:
 1411              	.L166:
 1412              	.LBB166:
 1413              	.LBB154:
 1414              	.LBB153:
 253:lib/tinyusb/src/tusb.c ****     #endif
 1415              		.loc 1 253 5 is_stmt 1 view .LVU415
 253:lib/tinyusb/src/tusb.c ****     #endif
 1416              		.loc 1 253 12 is_stmt 0 view .LVU416
 1417 0020 6178     		ldrb	r1, [r4, #1]	@ zero_extendqisi2
 1418 0022 FFF7FEFF 		bl	usbd_edpt_claim
 1419              	.LVL112:
 253:lib/tinyusb/src/tusb.c ****     #endif
 1420              		.loc 1 253 12 view .LVU417
 1421              	.LBE153:
 1422              	.LBE154:
 322:lib/tinyusb/src/tusb.c ****     const uint32_t xact_len = tu_min32(bufsize, s->ep_bufsize);
 1423              		.loc 1 322 5 view .LVU418
 1424 0026 0028     		cmp	r0, #0
 1425 0028 F6D0     		beq	.L165
 322:lib/tinyusb/src/tusb.c ****     const uint32_t xact_len = tu_min32(bufsize, s->ep_bufsize);
 1426              		.loc 1 322 5 is_stmt 1 discriminator 2 view .LVU419
 323:lib/tinyusb/src/tusb.c ****     memcpy(s->ep_buf, buffer, xact_len);
 1427              		.loc 1 323 5 discriminator 2 view .LVU420
 1428              	.LVL113:
ARM GAS  /tmp/claude-502/ccY3ow5l.s 			page 48


 1429              	.LBB155:
 1430              	.LBI155:
 1431              		.file 4 "lib/tinyusb/src/common/tusb_common.h"
   1:lib/tinyusb/src/common/tusb_common.h **** /*
   2:lib/tinyusb/src/common/tusb_common.h ****  * The MIT License (MIT)
   3:lib/tinyusb/src/common/tusb_common.h ****  *
   4:lib/tinyusb/src/common/tusb_common.h ****  * Copyright (c) 2019 Ha Thach (tinyusb.org)
   5:lib/tinyusb/src/common/tusb_common.h ****  *
   6:lib/tinyusb/src/common/tusb_common.h ****  * Permission is hereby granted, free of charge, to any person obtaining a copy
   7:lib/tinyusb/src/common/tusb_common.h ****  * of this software and associated documentation files (the "Software"), to deal
   8:lib/tinyusb/src/common/tusb_common.h ****  * in the Software without restriction, including without limitation the rights
   9:lib/tinyusb/src/common/tusb_common.h ****  * to use, copy, modify, merge, publish, distribute, sublicense, and/or sell
  10:lib/tinyusb/src/common/tusb_common.h ****  * copies of the Software, and to permit persons to whom the Software is
  11:lib/tinyusb/src/common/tusb_common.h ****  * furnished to do so, subject to the following conditions:
  12:lib/tinyusb/src/common/tusb_common.h ****  *
  13:lib/tinyusb/src/common/tusb_common.h ****  * The above copyright notice and this permission notice shall be included in
  14:lib/tinyusb/src/common/tusb_common.h ****  * all copies or substantial portions of the Software.
  15:lib/tinyusb/src/common/tusb_common.h ****  *
  16:lib/tinyusb/src/common/tusb_common.h ****  * THE SOFTWARE IS PROVIDED "AS IS", WITHOUT WARRANTY OF ANY KIND, EXPRESS OR
  17:lib/tinyusb/src/common/tusb_common.h ****  * IMPLIED, INCLUDING BUT NOT LIMITED TO THE WARRANTIES OF MERCHANTABILITY,
  18:lib/tinyusb/src/common/tusb_common.h ****  * FITNESS FOR A PARTICULAR PURPOSE AND NONINFRINGEMENT. IN NO EVENT SHALL THE
  19:lib/tinyusb/src/common/tusb_common.h ****  * AUTHORS OR COPYRIGHT HOLDERS BE LIABLE FOR ANY CLAIM, DAMAGES OR OTHER
  20:lib/tinyusb/src/common/tusb_common.h ****  * LIABILITY, WHETHER IN AN ACTION OF CONTRACT, TORT OR OTHERWISE, ARISING FROM,
  21:lib/tinyusb/src/common/tusb_common.h ****  * OUT OF OR IN CONNECTION WITH THE SOFTWARE OR THE USE OR OTHER DEALINGS IN
  22:lib/tinyusb/src/common/tusb_common.h ****  * THE SOFTWARE.
  23:lib/tinyusb/src/common/tusb_common.h ****  *
  24:lib/tinyusb/src/common/tusb_common.h ****  * This file is part of the TinyUSB stack.
  25:lib/tinyusb/src/common/tusb_common.h ****  */
  26:lib/tinyusb/src/common/tusb_common.h **** 
  27:lib/tinyusb/src/common/tusb_common.h **** #ifndef _TUSB_COMMON_H_
  28:lib/tinyusb/src/common/tusb_common.h **** #define _TUSB_COMMON_H_
  29:lib/tinyusb/src/common/tusb_common.h **** 
  30:lib/tinyusb/src/common/tusb_common.h **** #ifdef __cplusplus
  31:lib/tinyusb/src/common/tusb_common.h ****  extern "C" {
  32:lib/tinyusb/src/common/tusb_common.h **** #endif
  33:lib/tinyusb/src/common/tusb_common.h **** 
  34:lib/tinyusb/src/common/tusb_common.h **** //--------------------------------------------------------------------+
  35:lib/tinyusb/src/common/tusb_common.h **** // Macros Helper
  36:lib/tinyusb/src/common/tusb_common.h **** //--------------------------------------------------------------------+
  37:lib/tinyusb/src/common/tusb_common.h **** #define TU_ARRAY_SIZE(_arr)   ( sizeof(_arr) / sizeof(_arr[0]) )
  38:lib/tinyusb/src/common/tusb_common.h **** #define TU_MIN(_x, _y)        ( ( (_x) < (_y) ) ? (_x) : (_y) )
  39:lib/tinyusb/src/common/tusb_common.h **** #define TU_MAX(_x, _y)        ( ( (_x) > (_y) ) ? (_x) : (_y) )
  40:lib/tinyusb/src/common/tusb_common.h **** #define TU_DIV_CEIL(n, d)     (((n) + (d) - 1) / (d))
  41:lib/tinyusb/src/common/tusb_common.h **** 
  42:lib/tinyusb/src/common/tusb_common.h **** #define TU_U16(_high, _low)   ((uint16_t) (((_high) << 8) | (_low)))
  43:lib/tinyusb/src/common/tusb_common.h **** #define TU_U16_HIGH(_u16)     ((uint8_t) (((_u16) >> 8) & 0x00ff))
  44:lib/tinyusb/src/common/tusb_common.h **** #define TU_U16_LOW(_u16)      ((uint8_t) ((_u16)       & 0x00ff))
  45:lib/tinyusb/src/common/tusb_common.h **** #define U16_TO_U8S_BE(_u16)   TU_U16_HIGH(_u16), TU_U16_LOW(_u16)
  46:lib/tinyusb/src/common/tusb_common.h **** #define U16_TO_U8S_LE(_u16)   TU_U16_LOW(_u16), TU_U16_HIGH(_u16)
  47:lib/tinyusb/src/common/tusb_common.h **** 
  48:lib/tinyusb/src/common/tusb_common.h **** #define TU_U32_BYTE3(_u32)    ((uint8_t) ((((uint32_t) _u32) >> 24) & 0x000000ff)) // MSB
  49:lib/tinyusb/src/common/tusb_common.h **** #define TU_U32_BYTE2(_u32)    ((uint8_t) ((((uint32_t) _u32) >> 16) & 0x000000ff))
  50:lib/tinyusb/src/common/tusb_common.h **** #define TU_U32_BYTE1(_u32)    ((uint8_t) ((((uint32_t) _u32) >>  8) & 0x000000ff))
  51:lib/tinyusb/src/common/tusb_common.h **** #define TU_U32_BYTE0(_u32)    ((uint8_t) (((uint32_t)  _u32)        & 0x000000ff)) // LSB
  52:lib/tinyusb/src/common/tusb_common.h **** 
  53:lib/tinyusb/src/common/tusb_common.h **** #define U32_TO_U8S_BE(_u32)   TU_U32_BYTE3(_u32), TU_U32_BYTE2(_u32), TU_U32_BYTE1(_u32), TU_U32_BY
  54:lib/tinyusb/src/common/tusb_common.h **** #define U32_TO_U8S_LE(_u32)   TU_U32_BYTE0(_u32), TU_U32_BYTE1(_u32), TU_U32_BYTE2(_u32), TU_U32_BY
ARM GAS  /tmp/claude-502/ccY3ow5l.s 			page 49


  55:lib/tinyusb/src/common/tusb_common.h **** 
  56:lib/tinyusb/src/common/tusb_common.h **** #define TU_BIT(n)             (1UL << (n))
  57:lib/tinyusb/src/common/tusb_common.h **** 
  58:lib/tinyusb/src/common/tusb_common.h **** // Generate a mask with bit from high (31) to low (0) set, e.g TU_GENMASK(3, 0) = 0b1111
  59:lib/tinyusb/src/common/tusb_common.h **** #define TU_GENMASK(h, l)      ( (UINT32_MAX << (l)) & (UINT32_MAX >> (31 - (h))) )
  60:lib/tinyusb/src/common/tusb_common.h **** 
  61:lib/tinyusb/src/common/tusb_common.h **** //--------------------------------------------------------------------+
  62:lib/tinyusb/src/common/tusb_common.h **** // Includes
  63:lib/tinyusb/src/common/tusb_common.h **** //--------------------------------------------------------------------+
  64:lib/tinyusb/src/common/tusb_common.h **** 
  65:lib/tinyusb/src/common/tusb_common.h **** // Standard Headers
  66:lib/tinyusb/src/common/tusb_common.h **** #include <stdbool.h>
  67:lib/tinyusb/src/common/tusb_common.h **** #include <stdint.h>
  68:lib/tinyusb/src/common/tusb_common.h **** #include <inttypes.h>
  69:lib/tinyusb/src/common/tusb_common.h **** #include <stddef.h>
  70:lib/tinyusb/src/common/tusb_common.h **** #include <string.h>
  71:lib/tinyusb/src/common/tusb_common.h **** #include <stdio.h>
  72:lib/tinyusb/src/common/tusb_common.h **** 
  73:lib/tinyusb/src/common/tusb_common.h **** // Tinyusb Common Headers
  74:lib/tinyusb/src/common/tusb_common.h **** #include "tusb_option.h"
  75:lib/tinyusb/src/common/tusb_common.h **** #include "tusb_compiler.h"
  76:lib/tinyusb/src/common/tusb_common.h **** #include "tusb_verify.h"
  77:lib/tinyusb/src/common/tusb_common.h **** #include "tusb_types.h"
  78:lib/tinyusb/src/common/tusb_common.h **** #include "tusb_debug.h"
  79:lib/tinyusb/src/common/tusb_common.h **** 
  80:lib/tinyusb/src/common/tusb_common.h **** //--------------------------------------------------------------------+
  81:lib/tinyusb/src/common/tusb_common.h **** // Optional API implemented by application if needed
  82:lib/tinyusb/src/common/tusb_common.h **** // TODO move to a more ovious place/file
  83:lib/tinyusb/src/common/tusb_common.h **** //--------------------------------------------------------------------+
  84:lib/tinyusb/src/common/tusb_common.h **** 
  85:lib/tinyusb/src/common/tusb_common.h **** // flush data cache
  86:lib/tinyusb/src/common/tusb_common.h **** TU_ATTR_WEAK extern void tusb_app_dcache_flush(uintptr_t addr, uint32_t data_size);
  87:lib/tinyusb/src/common/tusb_common.h **** 
  88:lib/tinyusb/src/common/tusb_common.h **** // invalidate data cache
  89:lib/tinyusb/src/common/tusb_common.h **** TU_ATTR_WEAK extern void tusb_app_dcache_invalidate(uintptr_t addr, uint32_t data_size);
  90:lib/tinyusb/src/common/tusb_common.h **** 
  91:lib/tinyusb/src/common/tusb_common.h **** // Optional physical <-> virtual address translation
  92:lib/tinyusb/src/common/tusb_common.h **** TU_ATTR_WEAK extern void* tusb_app_virt_to_phys(void *virt_addr);
  93:lib/tinyusb/src/common/tusb_common.h **** TU_ATTR_WEAK extern void* tusb_app_phys_to_virt(void *phys_addr);
  94:lib/tinyusb/src/common/tusb_common.h **** 
  95:lib/tinyusb/src/common/tusb_common.h **** //--------------------------------------------------------------------+
  96:lib/tinyusb/src/common/tusb_common.h **** // Internal Inline Functions
  97:lib/tinyusb/src/common/tusb_common.h **** //--------------------------------------------------------------------+
  98:lib/tinyusb/src/common/tusb_common.h **** 
  99:lib/tinyusb/src/common/tusb_common.h **** //------------- Mem -------------//
 100:lib/tinyusb/src/common/tusb_common.h **** #define tu_memclr(buffer, size)  memset((buffer), 0, (size))
 101:lib/tinyusb/src/common/tusb_common.h **** #define tu_varclr(_var)          tu_memclr(_var, sizeof(*(_var)))
 102:lib/tinyusb/src/common/tusb_common.h **** 
 103:lib/tinyusb/src/common/tusb_common.h **** // This is a backport of memset_s from c11
 104:lib/tinyusb/src/common/tusb_common.h **** TU_ATTR_ALWAYS_INLINE static inline int tu_memset_s(void *dest, size_t destsz, int ch, size_t count
 105:lib/tinyusb/src/common/tusb_common.h ****   // TODO may check if desst and src is not NULL
 106:lib/tinyusb/src/common/tusb_common.h ****   if ( count > destsz ) {
 107:lib/tinyusb/src/common/tusb_common.h ****     return -1;
 108:lib/tinyusb/src/common/tusb_common.h ****   }
 109:lib/tinyusb/src/common/tusb_common.h ****   memset(dest, ch, count);
 110:lib/tinyusb/src/common/tusb_common.h ****   return 0;
 111:lib/tinyusb/src/common/tusb_common.h **** }
ARM GAS  /tmp/claude-502/ccY3ow5l.s 			page 50


 112:lib/tinyusb/src/common/tusb_common.h **** 
 113:lib/tinyusb/src/common/tusb_common.h **** // This is a backport of memcpy_s from c11
 114:lib/tinyusb/src/common/tusb_common.h **** TU_ATTR_ALWAYS_INLINE static inline int tu_memcpy_s(void *dest, size_t destsz, const void *src, siz
 115:lib/tinyusb/src/common/tusb_common.h ****   // TODO may check if desst and src is not NULL
 116:lib/tinyusb/src/common/tusb_common.h ****   if ( count > destsz ) {
 117:lib/tinyusb/src/common/tusb_common.h ****     return -1;
 118:lib/tinyusb/src/common/tusb_common.h ****   }
 119:lib/tinyusb/src/common/tusb_common.h ****   memcpy(dest, src, count);
 120:lib/tinyusb/src/common/tusb_common.h ****   return 0;
 121:lib/tinyusb/src/common/tusb_common.h **** }
 122:lib/tinyusb/src/common/tusb_common.h **** 
 123:lib/tinyusb/src/common/tusb_common.h **** 
 124:lib/tinyusb/src/common/tusb_common.h **** //------------- Bytes -------------//
 125:lib/tinyusb/src/common/tusb_common.h **** TU_ATTR_ALWAYS_INLINE static inline uint32_t tu_u32(uint8_t b3, uint8_t b2, uint8_t b1, uint8_t b0)
 126:lib/tinyusb/src/common/tusb_common.h ****   return ( ((uint32_t) b3) << 24) | ( ((uint32_t) b2) << 16) | ( ((uint32_t) b1) << 8) | b0;
 127:lib/tinyusb/src/common/tusb_common.h **** }
 128:lib/tinyusb/src/common/tusb_common.h **** 
 129:lib/tinyusb/src/common/tusb_common.h **** TU_ATTR_ALWAYS_INLINE static inline uint16_t tu_u16(uint8_t high, uint8_t low) {
 130:lib/tinyusb/src/common/tusb_common.h ****   return (uint16_t) ((((uint16_t) high) << 8) | low);
 131:lib/tinyusb/src/common/tusb_common.h **** }
 132:lib/tinyusb/src/common/tusb_common.h **** 
 133:lib/tinyusb/src/common/tusb_common.h **** TU_ATTR_ALWAYS_INLINE static inline uint8_t tu_u32_byte3(uint32_t ui32) { return TU_U32_BYTE3(ui32)
 134:lib/tinyusb/src/common/tusb_common.h **** TU_ATTR_ALWAYS_INLINE static inline uint8_t tu_u32_byte2(uint32_t ui32) { return TU_U32_BYTE2(ui32)
 135:lib/tinyusb/src/common/tusb_common.h **** TU_ATTR_ALWAYS_INLINE static inline uint8_t tu_u32_byte1(uint32_t ui32) { return TU_U32_BYTE1(ui32)
 136:lib/tinyusb/src/common/tusb_common.h **** TU_ATTR_ALWAYS_INLINE static inline uint8_t tu_u32_byte0(uint32_t ui32) { return TU_U32_BYTE0(ui32)
 137:lib/tinyusb/src/common/tusb_common.h **** 
 138:lib/tinyusb/src/common/tusb_common.h **** TU_ATTR_ALWAYS_INLINE static inline uint16_t tu_u32_high16(uint32_t ui32) { return (uint16_t) (ui32
 139:lib/tinyusb/src/common/tusb_common.h **** TU_ATTR_ALWAYS_INLINE static inline uint16_t tu_u32_low16 (uint32_t ui32) { return (uint16_t) (ui32
 140:lib/tinyusb/src/common/tusb_common.h **** 
 141:lib/tinyusb/src/common/tusb_common.h **** TU_ATTR_ALWAYS_INLINE static inline uint8_t tu_u16_high(uint16_t ui16) { return TU_U16_HIGH(ui16); 
 142:lib/tinyusb/src/common/tusb_common.h **** TU_ATTR_ALWAYS_INLINE static inline uint8_t tu_u16_low (uint16_t ui16) { return TU_U16_LOW(ui16); }
 143:lib/tinyusb/src/common/tusb_common.h **** 
 144:lib/tinyusb/src/common/tusb_common.h **** //------------- Bits -------------//
 145:lib/tinyusb/src/common/tusb_common.h **** TU_ATTR_ALWAYS_INLINE static inline uint32_t tu_bit_set  (uint32_t value, uint8_t pos) { return val
 146:lib/tinyusb/src/common/tusb_common.h **** TU_ATTR_ALWAYS_INLINE static inline uint32_t tu_bit_clear(uint32_t value, uint8_t pos) { return val
 147:lib/tinyusb/src/common/tusb_common.h **** TU_ATTR_ALWAYS_INLINE static inline bool     tu_bit_test (uint32_t value, uint8_t pos) { return (va
 148:lib/tinyusb/src/common/tusb_common.h **** 
 149:lib/tinyusb/src/common/tusb_common.h **** //------------- Min -------------//
 150:lib/tinyusb/src/common/tusb_common.h **** TU_ATTR_ALWAYS_INLINE static inline uint8_t  tu_min8  (uint8_t  x, uint8_t y ) { return (x < y) ? x
 151:lib/tinyusb/src/common/tusb_common.h **** TU_ATTR_ALWAYS_INLINE static inline uint16_t tu_min16 (uint16_t x, uint16_t y) { return (x < y) ? x
 152:lib/tinyusb/src/common/tusb_common.h **** TU_ATTR_ALWAYS_INLINE static inline uint32_t tu_min32 (uint32_t x, uint32_t y) { return (x < y) ? x
 1432              		.loc 4 152 46 discriminator 2 view .LVU421
 1433              	.LBB156:
 1434              		.loc 4 152 82 discriminator 2 view .LVU422
 1435              	.LBE156:
 1436              	.LBE155:
 323:lib/tinyusb/src/tusb.c ****     memcpy(s->ep_buf, buffer, xact_len);
 1437              		.loc 1 323 31 is_stmt 0 discriminator 2 view .LVU423
 1438 002a 6688     		ldrh	r6, [r4, #2]
 1439              	.LVL114:
 324:lib/tinyusb/src/tusb.c ****     TU_ASSERT(stream_xfer(hwid, s, (uint16_t) xact_len), 0);
 1440              		.loc 1 324 5 discriminator 2 view .LVU424
 1441 002c 3946     		mov	r1, r7
 1442 002e 6068     		ldr	r0, [r4, #4]
 1443              	.LBB158:
 1444              	.LBB157:
 1445              		.loc 4 152 101 discriminator 2 view .LVU425
ARM GAS  /tmp/claude-502/ccY3ow5l.s 			page 51


 1446 0030 4645     		cmp	r6, r8
 1447 0032 28BF     		it	cs
 1448 0034 4646     		movcs	r6, r8
 1449              	.LVL115:
 1450              		.loc 4 152 101 discriminator 2 view .LVU426
 1451              	.LBE157:
 1452              	.LBE158:
 324:lib/tinyusb/src/tusb.c ****     TU_ASSERT(stream_xfer(hwid, s, (uint16_t) xact_len), 0);
 1453              		.loc 1 324 5 is_stmt 1 discriminator 2 view .LVU427
 1454 0036 3246     		mov	r2, r6
 1455 0038 FFF7FEFF 		bl	memcpy
 1456              	.LVL116:
 325:lib/tinyusb/src/tusb.c ****     return xact_len;
 1457              		.loc 1 325 5 discriminator 2 view .LVU428
 325:lib/tinyusb/src/tusb.c ****     return xact_len;
 1458              		.loc 1 325 5 discriminator 2 view .LVU429
 1459              	.LBB159:
 1460              	.LBI159:
 259:lib/tinyusb/src/tusb.c ****   if (s->is_host) {
 1461              		.loc 1 259 42 discriminator 2 view .LVU430
 1462              	.LBB160:
 260:lib/tinyusb/src/tusb.c ****     #if CFG_TUH_ENABLED
 1463              		.loc 1 260 3 discriminator 2 view .LVU431
 260:lib/tinyusb/src/tusb.c ****     #if CFG_TUH_ENABLED
 1464              		.loc 1 260 7 is_stmt 0 discriminator 2 view .LVU432
 1465 003c 2378     		ldrb	r3, [r4]	@ zero_extendqisi2
 260:lib/tinyusb/src/tusb.c ****     #if CFG_TUH_ENABLED
 1466              		.loc 1 260 6 discriminator 2 view .LVU433
 1467 003e DA07     		lsls	r2, r3, #31
 1468 0040 23D5     		bpl	.L152
 1469              	.LVL117:
 1470              	.L155:
 260:lib/tinyusb/src/tusb.c ****     #if CFG_TUH_ENABLED
 1471              		.loc 1 260 6 discriminator 2 view .LVU434
 1472              	.LBE160:
 1473              	.LBE159:
 325:lib/tinyusb/src/tusb.c ****     return xact_len;
 1474              		.loc 1 325 5 is_stmt 1 view .LVU435
 325:lib/tinyusb/src/tusb.c ****     return xact_len;
 1475              		.loc 1 325 5 view .LVU436
 325:lib/tinyusb/src/tusb.c ****     return xact_len;
 1476              		.loc 1 325 5 view .LVU437
 325:lib/tinyusb/src/tusb.c ****     return xact_len;
 1477              		.loc 1 325 5 view .LVU438
 1478              	.LBB163:
 325:lib/tinyusb/src/tusb.c ****     return xact_len;
 1479              		.loc 1 325 5 view .LVU439
 325:lib/tinyusb/src/tusb.c ****     return xact_len;
 1480              		.loc 1 325 5 view .LVU440
 1481 0042 4FF0E023 		mov	r3, #-536813568
 1482 0046 D3F8F03D 		ldr	r3, [r3, #3568]
 1483 004a DB07     		lsls	r3, r3, #31
 1484 004c E4D5     		bpl	.L165
 325:lib/tinyusb/src/tusb.c ****     return xact_len;
 1485              		.loc 1 325 5 discriminator 3 view .LVU441
 1486              		.syntax unified
 1487              	@ 325 "lib/tinyusb/src/tusb.c" 1
ARM GAS  /tmp/claude-502/ccY3ow5l.s 			page 52


 1488 004e 00BE     		BKPT #0
 1489              	
 1490              	@ 0 "" 2
 1491              		.thumb
 1492              		.syntax unified
 1493 0050 E2E7     		b	.L165
 1494              	.LVL118:
 1495              	.L150:
 325:lib/tinyusb/src/tusb.c ****     return xact_len;
 1496              		.loc 1 325 5 is_stmt 0 discriminator 3 view .LVU442
 1497              	.LBE163:
 1498              	.LBE166:
 1499              	.LBB167:
 328:lib/tinyusb/src/tusb.c **** 
 1500              		.loc 1 328 5 is_stmt 1 view .LVU443
 328:lib/tinyusb/src/tusb.c **** 
 1501              		.loc 1 328 26 is_stmt 0 view .LVU444
 1502 0052 01F10800 		add	r0, r1, #8
 1503              	.LVL119:
 328:lib/tinyusb/src/tusb.c **** 
 1504              		.loc 1 328 26 view .LVU445
 1505 0056 9AB2     		uxth	r2, r3
 1506 0058 3946     		mov	r1, r7
 1507              	.LVL120:
 328:lib/tinyusb/src/tusb.c **** 
 1508              		.loc 1 328 26 view .LVU446
 1509 005a 0746     		mov	r7, r0
 1510              	.LVL121:
 328:lib/tinyusb/src/tusb.c **** 
 1511              		.loc 1 328 26 view .LVU447
 1512 005c FFF7FEFF 		bl	tu_fifo_write_n
 1513              	.LVL122:
 332:lib/tinyusb/src/tusb.c ****     if ((tu_fifo_count(&s->ff) >= mps) || (tu_fifo_depth(&s->ff) < mps)) {
 1514              		.loc 1 332 39 view .LVU448
 1515 0060 2378     		ldrb	r3, [r4]	@ zero_extendqisi2
 328:lib/tinyusb/src/tusb.c **** 
 1516              		.loc 1 328 26 view .LVU449
 1517 0062 0646     		mov	r6, r0
 333:lib/tinyusb/src/tusb.c ****       tu_edpt_stream_write_xfer(hwid, s);
 1518              		.loc 1 333 10 view .LVU450
 1519 0064 3846     		mov	r0, r7
 1520              	.LVL123:
 332:lib/tinyusb/src/tusb.c ****     if ((tu_fifo_count(&s->ff) >= mps) || (tu_fifo_depth(&s->ff) < mps)) {
 1521              		.loc 1 332 5 is_stmt 1 view .LVU451
 332:lib/tinyusb/src/tusb.c ****     if ((tu_fifo_count(&s->ff) >= mps) || (tu_fifo_depth(&s->ff) < mps)) {
 1522              		.loc 1 332 20 is_stmt 0 view .LVU452
 1523 0066 13F0020F 		tst	r3, #2
 1524 006a 14BF     		ite	ne
 1525 006c 4FF40077 		movne	r7, #512
 1526 0070 4027     		moveq	r7, #64
 1527              	.LVL124:
 333:lib/tinyusb/src/tusb.c ****       tu_edpt_stream_write_xfer(hwid, s);
 1528              		.loc 1 333 5 is_stmt 1 view .LVU453
 333:lib/tinyusb/src/tusb.c ****       tu_edpt_stream_write_xfer(hwid, s);
 1529              		.loc 1 333 10 is_stmt 0 view .LVU454
 1530 0072 FFF7FEFF 		bl	tu_fifo_count
 1531              	.LVL125:
ARM GAS  /tmp/claude-502/ccY3ow5l.s 			page 53


 333:lib/tinyusb/src/tusb.c ****       tu_edpt_stream_write_xfer(hwid, s);
 1532              		.loc 1 333 8 view .LVU455
 1533 0076 B842     		cmp	r0, r7
 1534 0078 02D2     		bcs	.L157
 1535              	.LVL126:
 1536              	.LBB168:
 1537              	.LBI168:
 180:lib/tinyusb/src/common/tusb_fifo.h ****   return f->depth;
 1538              		.loc 3 180 10 is_stmt 1 discriminator 1 view .LVU456
 1539              	.LBB169:
 1540              		.loc 3 181 3 discriminator 1 view .LVU457
 1541              		.loc 3 181 3 is_stmt 0 discriminator 1 view .LVU458
 1542              	.LBE169:
 1543              	.LBE168:
 333:lib/tinyusb/src/tusb.c ****       tu_edpt_stream_write_xfer(hwid, s);
 1544              		.loc 1 333 40 discriminator 1 view .LVU459
 1545 007a A389     		ldrh	r3, [r4, #12]
 1546 007c BB42     		cmp	r3, r7
 1547 007e CCD2     		bcs	.L147
 1548              	.L157:
 334:lib/tinyusb/src/tusb.c ****     }
 1549              		.loc 1 334 7 is_stmt 1 view .LVU460
 1550 0080 2146     		mov	r1, r4
 1551 0082 2846     		mov	r0, r5
 1552 0084 FFF7FEFF 		bl	tu_edpt_stream_write_xfer
 1553              	.LVL127:
 336:lib/tinyusb/src/tusb.c ****   }
 1554              		.loc 1 336 5 view .LVU461
 336:lib/tinyusb/src/tusb.c ****   }
 1555              		.loc 1 336 12 is_stmt 0 view .LVU462
 1556 0088 C7E7     		b	.L147
 1557              	.LVL128:
 1558              	.L152:
 336:lib/tinyusb/src/tusb.c ****   }
 1559              		.loc 1 336 12 view .LVU463
 1560              	.LBE167:
 1561              	.LBB170:
 1562              	.LBB164:
 1563              	.LBB161:
 266:lib/tinyusb/src/tusb.c ****     #endif
 1564              		.loc 1 266 5 is_stmt 1 view .LVU464
 266:lib/tinyusb/src/tusb.c ****     #endif
 1565              		.loc 1 266 12 is_stmt 0 view .LVU465
 1566 008a 6178     		ldrb	r1, [r4, #1]	@ zero_extendqisi2
 1567 008c 3EB1     		cbz	r6, .L159
 1568 008e 6268     		ldr	r2, [r4, #4]
 1569              	.L154:
 266:lib/tinyusb/src/tusb.c ****     #endif
 1570              		.loc 1 266 12 view .LVU466
 1571 0090 B3B2     		uxth	r3, r6
 1572 0092 2846     		mov	r0, r5
 1573 0094 FFF7FEFF 		bl	usbd_edpt_xfer
 1574              	.LVL129:
 266:lib/tinyusb/src/tusb.c ****     #endif
 1575              		.loc 1 266 12 view .LVU467
 1576              	.LBE161:
 1577              	.LBE164:
ARM GAS  /tmp/claude-502/ccY3ow5l.s 			page 54


 325:lib/tinyusb/src/tusb.c ****     return xact_len;
 1578              		.loc 1 325 5 view .LVU468
 1579 0098 0028     		cmp	r0, #0
 1580 009a BED1     		bne	.L147
 1581 009c D1E7     		b	.L155
 1582              	.LVL130:
 1583              	.L159:
 1584              	.LBB165:
 1585              	.LBB162:
 266:lib/tinyusb/src/tusb.c ****     #endif
 1586              		.loc 1 266 12 view .LVU469
 1587 009e 3246     		mov	r2, r6
 1588 00a0 F6E7     		b	.L154
 1589              	.LBE162:
 1590              	.LBE165:
 1591              	.LBE170:
 1592              		.cfi_endproc
 1593              	.LFE427:
 1595 00a2 00BF     		.section	.text.tu_edpt_stream_write_available,"ax",%progbits
 1596              		.align	1
 1597              		.p2align 2,,3
 1598              		.global	tu_edpt_stream_write_available
 1599              		.syntax unified
 1600              		.thumb
 1601              		.thumb_func
 1603              	tu_edpt_stream_write_available:
 1604              	.LVL131:
 1605              	.LFB428:
 339:lib/tinyusb/src/tusb.c **** 
 340:lib/tinyusb/src/tusb.c **** uint32_t tu_edpt_stream_write_available(uint8_t hwid, tu_edpt_stream_t* s) {
 1606              		.loc 1 340 76 is_stmt 1 view -0
 1607              		.cfi_startproc
 1608              		@ args = 0, pretend = 0, frame = 0
 1609              		@ frame_needed = 0, uses_anonymous_args = 0
 341:lib/tinyusb/src/tusb.c ****   if (tu_fifo_depth(&s->ff)) {
 1610              		.loc 1 341 3 view .LVU471
 1611              		.loc 1 341 6 is_stmt 0 view .LVU472
 1612 0000 8B89     		ldrh	r3, [r1, #12]
 340:lib/tinyusb/src/tusb.c ****   if (tu_fifo_depth(&s->ff)) {
 1613              		.loc 1 340 76 view .LVU473
 1614 0002 10B5     		push	{r4, lr}
 1615              		.cfi_def_cfa_offset 8
 1616              		.cfi_offset 4, -8
 1617              		.cfi_offset 14, -4
 340:lib/tinyusb/src/tusb.c ****   if (tu_fifo_depth(&s->ff)) {
 1618              		.loc 1 340 76 view .LVU474
 1619 0004 0C46     		mov	r4, r1
 1620              	.LVL132:
 1621              	.LBB171:
 1622              	.LBI171:
 180:lib/tinyusb/src/common/tusb_fifo.h ****   return f->depth;
 1623              		.loc 3 180 10 is_stmt 1 view .LVU475
 1624              	.LBB172:
 1625              		.loc 3 181 3 view .LVU476
 1626              		.loc 3 181 3 is_stmt 0 view .LVU477
 1627              	.LBE172:
 1628              	.LBE171:
ARM GAS  /tmp/claude-502/ccY3ow5l.s 			page 55


 1629              		.loc 1 341 6 view .LVU478
 1630 0006 5BB9     		cbnz	r3, .L173
 1631              	.LBB173:
 342:lib/tinyusb/src/tusb.c ****     return (uint32_t) tu_fifo_remaining(&s->ff);
 343:lib/tinyusb/src/tusb.c ****   } else {
 344:lib/tinyusb/src/tusb.c ****     bool is_busy = true;
 1632              		.loc 1 344 5 is_stmt 1 view .LVU479
 1633              	.LVL133:
 345:lib/tinyusb/src/tusb.c ****     if (s->is_host) {
 1634              		.loc 1 345 5 view .LVU480
 1635              		.loc 1 345 9 is_stmt 0 view .LVU481
 1636 0008 0B78     		ldrb	r3, [r1]	@ zero_extendqisi2
 1637              		.loc 1 345 8 view .LVU482
 1638 000a DB07     		lsls	r3, r3, #31
 1639 000c 01D5     		bpl	.L170
 1640              	.LVL134:
 1641              	.L171:
 346:lib/tinyusb/src/tusb.c ****       #if CFG_TUH_ENABLED
 347:lib/tinyusb/src/tusb.c ****       is_busy = usbh_edpt_busy(hwid, s->ep_addr);
 348:lib/tinyusb/src/tusb.c ****       #endif
 349:lib/tinyusb/src/tusb.c ****     } else {
 350:lib/tinyusb/src/tusb.c ****       #if CFG_TUD_ENABLED
 351:lib/tinyusb/src/tusb.c ****       is_busy = usbd_edpt_busy(hwid, s->ep_addr);
 352:lib/tinyusb/src/tusb.c ****       #endif
 353:lib/tinyusb/src/tusb.c ****     }
 354:lib/tinyusb/src/tusb.c ****     return is_busy ? 0 : s->ep_bufsize;
 1642              		.loc 1 354 24 view .LVU483
 1643 000e 0020     		movs	r0, #0
 1644              	.LBE173:
 355:lib/tinyusb/src/tusb.c ****   }
 356:lib/tinyusb/src/tusb.c **** }
 1645              		.loc 1 356 1 view .LVU484
 1646 0010 10BD     		pop	{r4, pc}
 1647              	.LVL135:
 1648              	.L170:
 1649              	.LBB174:
 351:lib/tinyusb/src/tusb.c ****       #endif
 1650              		.loc 1 351 7 is_stmt 1 view .LVU485
 351:lib/tinyusb/src/tusb.c ****       #endif
 1651              		.loc 1 351 17 is_stmt 0 view .LVU486
 1652 0012 4978     		ldrb	r1, [r1, #1]	@ zero_extendqisi2
 1653              	.LVL136:
 351:lib/tinyusb/src/tusb.c ****       #endif
 1654              		.loc 1 351 17 view .LVU487
 1655 0014 FFF7FEFF 		bl	usbd_edpt_busy
 1656              	.LVL137:
 354:lib/tinyusb/src/tusb.c ****   }
 1657              		.loc 1 354 5 is_stmt 1 view .LVU488
 354:lib/tinyusb/src/tusb.c ****   }
 1658              		.loc 1 354 24 is_stmt 0 view .LVU489
 1659 0018 0028     		cmp	r0, #0
 1660 001a F8D1     		bne	.L171
 354:lib/tinyusb/src/tusb.c ****   }
 1661              		.loc 1 354 24 discriminator 2 view .LVU490
 1662 001c 6088     		ldrh	r0, [r4, #2]
 1663              	.LVL138:
 354:lib/tinyusb/src/tusb.c ****   }
ARM GAS  /tmp/claude-502/ccY3ow5l.s 			page 56


 1664              		.loc 1 354 24 discriminator 2 view .LVU491
 1665              	.LBE174:
 1666              		.loc 1 356 1 discriminator 2 view .LVU492
 1667 001e 10BD     		pop	{r4, pc}
 1668              	.LVL139:
 1669              	.L173:
 342:lib/tinyusb/src/tusb.c ****   } else {
 1670              		.loc 1 342 5 is_stmt 1 view .LVU493
 342:lib/tinyusb/src/tusb.c ****   } else {
 1671              		.loc 1 342 23 is_stmt 0 view .LVU494
 1672 0020 01F10800 		add	r0, r1, #8
 1673              	.LVL140:
 342:lib/tinyusb/src/tusb.c ****   } else {
 1674              		.loc 1 342 23 view .LVU495
 1675 0024 FFF7FEFF 		bl	tu_fifo_remaining
 1676              	.LVL141:
 1677              		.loc 1 356 1 view .LVU496
 1678 0028 10BD     		pop	{r4, pc}
 1679              		.loc 1 356 1 view .LVU497
 1680              		.cfi_endproc
 1681              	.LFE428:
 1683 002a 00BF     		.section	.text.tu_edpt_stream_read_xfer,"ax",%progbits
 1684              		.align	1
 1685              		.p2align 2,,3
 1686              		.global	tu_edpt_stream_read_xfer
 1687              		.syntax unified
 1688              		.thumb
 1689              		.thumb_func
 1691              	tu_edpt_stream_read_xfer:
 1692              	.LVL142:
 1693              	.LFB429:
 357:lib/tinyusb/src/tusb.c **** 
 358:lib/tinyusb/src/tusb.c **** //--------------------------------------------------------------------+
 359:lib/tinyusb/src/tusb.c **** // Stream Read
 360:lib/tinyusb/src/tusb.c **** //--------------------------------------------------------------------+
 361:lib/tinyusb/src/tusb.c **** uint32_t tu_edpt_stream_read_xfer(uint8_t hwid, tu_edpt_stream_t* s) {
 1694              		.loc 1 361 70 is_stmt 1 view -0
 1695              		.cfi_startproc
 1696              		@ args = 0, pretend = 0, frame = 0
 1697              		@ frame_needed = 0, uses_anonymous_args = 0
 362:lib/tinyusb/src/tusb.c ****   if (0 == tu_fifo_depth(&s->ff)) {
 1698              		.loc 1 362 3 view .LVU499
 361:lib/tinyusb/src/tusb.c ****   if (0 == tu_fifo_depth(&s->ff)) {
 1699              		.loc 1 361 70 is_stmt 0 view .LVU500
 1700 0000 F8B5     		push	{r3, r4, r5, r6, r7, lr}
 1701              		.cfi_def_cfa_offset 24
 1702              		.cfi_offset 3, -24
 1703              		.cfi_offset 4, -20
 1704              		.cfi_offset 5, -16
 1705              		.cfi_offset 6, -12
 1706              		.cfi_offset 7, -8
 1707              		.cfi_offset 14, -4
 1708              		.loc 1 362 6 view .LVU501
 1709 0002 8B89     		ldrh	r3, [r1, #12]
 361:lib/tinyusb/src/tusb.c ****   if (0 == tu_fifo_depth(&s->ff)) {
 1710              		.loc 1 361 70 view .LVU502
 1711 0004 0C46     		mov	r4, r1
ARM GAS  /tmp/claude-502/ccY3ow5l.s 			page 57


 1712              	.LVL143:
 1713              	.LBB175:
 1714              	.LBI175:
 180:lib/tinyusb/src/common/tusb_fifo.h ****   return f->depth;
 1715              		.loc 3 180 10 is_stmt 1 view .LVU503
 1716              	.LBB176:
 1717              		.loc 3 181 3 view .LVU504
 1718              		.loc 3 181 3 is_stmt 0 view .LVU505
 1719              	.LBE176:
 1720              	.LBE175:
 361:lib/tinyusb/src/tusb.c ****   if (0 == tu_fifo_depth(&s->ff)) {
 1721              		.loc 1 361 70 view .LVU506
 1722 0006 0646     		mov	r6, r0
 1723              		.loc 1 362 6 view .LVU507
 1724 0008 23B9     		cbnz	r3, .L175
 363:lib/tinyusb/src/tusb.c ****     // no fifo for buffered
 364:lib/tinyusb/src/tusb.c ****     TU_VERIFY(stream_claim(hwid, s), 0);
 1725              		.loc 1 364 5 is_stmt 1 view .LVU508
 1726              		.loc 1 364 5 view .LVU509
 1727              	.LVL144:
 1728              	.LBB177:
 1729              	.LBI177:
 246:lib/tinyusb/src/tusb.c ****   if (s->is_host) {
 1730              		.loc 1 246 42 view .LVU510
 1731              	.LBB178:
 247:lib/tinyusb/src/tusb.c ****     #if CFG_TUH_ENABLED
 1732              		.loc 1 247 3 view .LVU511
 247:lib/tinyusb/src/tusb.c ****     #if CFG_TUH_ENABLED
 1733              		.loc 1 247 7 is_stmt 0 view .LVU512
 1734 000a 0B78     		ldrb	r3, [r1]	@ zero_extendqisi2
 247:lib/tinyusb/src/tusb.c ****     #if CFG_TUH_ENABLED
 1735              		.loc 1 247 6 view .LVU513
 1736 000c DD07     		lsls	r5, r3, #31
 1737 000e 38D5     		bpl	.L176
 1738              	.LVL145:
 1739              	.L201:
 247:lib/tinyusb/src/tusb.c ****     #if CFG_TUH_ENABLED
 1740              		.loc 1 247 6 view .LVU514
 1741              	.LBE178:
 1742              	.LBE177:
 1743              	.LBB180:
 1744              	.LBB181:
 365:lib/tinyusb/src/tusb.c ****     TU_ASSERT(stream_xfer(hwid, s, s->ep_bufsize), 0);
 366:lib/tinyusb/src/tusb.c ****     return s->ep_bufsize;
 367:lib/tinyusb/src/tusb.c ****   } else {
 368:lib/tinyusb/src/tusb.c ****     const uint16_t mps = s->is_mps512 ? TUSB_EPSIZE_BULK_HS : TUSB_EPSIZE_BULK_FS;
 369:lib/tinyusb/src/tusb.c ****     uint16_t available = tu_fifo_remaining(&s->ff);
 370:lib/tinyusb/src/tusb.c **** 
 371:lib/tinyusb/src/tusb.c ****     // Prepare for incoming data but only allow what we can store in the ring buffer.
 372:lib/tinyusb/src/tusb.c ****     // TODO Actually we can still carry out the transfer, keeping count of received bytes
 373:lib/tinyusb/src/tusb.c ****     // and slowly move it to the FIFO when read().
 374:lib/tinyusb/src/tusb.c ****     // This pre-check reduces endpoint claiming
 375:lib/tinyusb/src/tusb.c ****     TU_VERIFY(available >= mps);
 376:lib/tinyusb/src/tusb.c **** 
 377:lib/tinyusb/src/tusb.c ****     TU_VERIFY(stream_claim(hwid, s), 0);
 378:lib/tinyusb/src/tusb.c **** 
 379:lib/tinyusb/src/tusb.c ****     // get available again since fifo can be changed before endpoint is claimed
ARM GAS  /tmp/claude-502/ccY3ow5l.s 			page 58


 380:lib/tinyusb/src/tusb.c ****     available = tu_fifo_remaining(&s->ff);
 381:lib/tinyusb/src/tusb.c **** 
 382:lib/tinyusb/src/tusb.c ****     if (available >= mps) {
 383:lib/tinyusb/src/tusb.c ****       // multiple of packet size limit by ep bufsize
 384:lib/tinyusb/src/tusb.c ****       uint16_t count = (uint16_t) (available & ~(mps - 1));
 385:lib/tinyusb/src/tusb.c ****       count = tu_min16(count, s->ep_bufsize);
 386:lib/tinyusb/src/tusb.c ****       TU_ASSERT(stream_xfer(hwid, s, count), 0);
 1745              		.loc 1 386 7 discriminator 3 view .LVU515
 1746 0010 0020     		movs	r0, #0
 1747              	.LBE181:
 1748              	.LBE180:
 387:lib/tinyusb/src/tusb.c ****       return count;
 388:lib/tinyusb/src/tusb.c ****     } else {
 389:lib/tinyusb/src/tusb.c ****       // Release endpoint since we don't make any transfer
 390:lib/tinyusb/src/tusb.c ****       stream_release(hwid, s);
 391:lib/tinyusb/src/tusb.c ****       return 0;
 392:lib/tinyusb/src/tusb.c ****     }
 393:lib/tinyusb/src/tusb.c ****   }
 394:lib/tinyusb/src/tusb.c **** }
 1749              		.loc 1 394 1 discriminator 3 view .LVU516
 1750 0012 F8BD     		pop	{r3, r4, r5, r6, r7, pc}
 1751              	.LVL146:
 1752              	.L175:
 1753              	.LBB206:
 368:lib/tinyusb/src/tusb.c ****     uint16_t available = tu_fifo_remaining(&s->ff);
 1754              		.loc 1 368 5 is_stmt 1 view .LVU517
 368:lib/tinyusb/src/tusb.c ****     uint16_t available = tu_fifo_remaining(&s->ff);
 1755              		.loc 1 368 39 is_stmt 0 view .LVU518
 1756 0014 0F46     		mov	r7, r1
 1757 0016 17F8083B 		ldrb	r3, [r7], #8	@ zero_extendqisi2
 368:lib/tinyusb/src/tusb.c ****     uint16_t available = tu_fifo_remaining(&s->ff);
 1758              		.loc 1 368 20 view .LVU519
 1759 001a 13F0020F 		tst	r3, #2
 369:lib/tinyusb/src/tusb.c **** 
 1760              		.loc 1 369 26 view .LVU520
 1761 001e 3846     		mov	r0, r7
 1762              	.LVL147:
 368:lib/tinyusb/src/tusb.c ****     uint16_t available = tu_fifo_remaining(&s->ff);
 1763              		.loc 1 368 20 view .LVU521
 1764 0020 14BF     		ite	ne
 1765 0022 4FF40075 		movne	r5, #512
 1766 0026 4025     		moveq	r5, #64
 1767              	.LVL148:
 369:lib/tinyusb/src/tusb.c **** 
 1768              		.loc 1 369 5 is_stmt 1 view .LVU522
 369:lib/tinyusb/src/tusb.c **** 
 1769              		.loc 1 369 26 is_stmt 0 view .LVU523
 1770 0028 FFF7FEFF 		bl	tu_fifo_remaining
 1771              	.LVL149:
 375:lib/tinyusb/src/tusb.c **** 
 1772              		.loc 1 375 5 is_stmt 1 view .LVU524
 375:lib/tinyusb/src/tusb.c **** 
 1773              		.loc 1 375 5 view .LVU525
 1774 002c 8542     		cmp	r5, r0
 1775 002e EFD8     		bhi	.L201
 375:lib/tinyusb/src/tusb.c **** 
 1776              		.loc 1 375 5 view .LVU526
ARM GAS  /tmp/claude-502/ccY3ow5l.s 			page 59


 377:lib/tinyusb/src/tusb.c **** 
 1777              		.loc 1 377 5 view .LVU527
 377:lib/tinyusb/src/tusb.c **** 
 1778              		.loc 1 377 5 view .LVU528
 1779              	.LVL150:
 1780              	.LBB199:
 1781              	.LBI199:
 246:lib/tinyusb/src/tusb.c ****   if (s->is_host) {
 1782              		.loc 1 246 42 view .LVU529
 1783              	.LBB200:
 247:lib/tinyusb/src/tusb.c ****     #if CFG_TUH_ENABLED
 1784              		.loc 1 247 3 view .LVU530
 247:lib/tinyusb/src/tusb.c ****     #if CFG_TUH_ENABLED
 1785              		.loc 1 247 7 is_stmt 0 view .LVU531
 1786 0030 2378     		ldrb	r3, [r4]	@ zero_extendqisi2
 247:lib/tinyusb/src/tusb.c ****     #if CFG_TUH_ENABLED
 1787              		.loc 1 247 6 view .LVU532
 1788 0032 D907     		lsls	r1, r3, #31
 1789 0034 ECD4     		bmi	.L201
 253:lib/tinyusb/src/tusb.c ****     #endif
 1790              		.loc 1 253 5 is_stmt 1 view .LVU533
 253:lib/tinyusb/src/tusb.c ****     #endif
 1791              		.loc 1 253 12 is_stmt 0 view .LVU534
 1792 0036 6178     		ldrb	r1, [r4, #1]	@ zero_extendqisi2
 1793 0038 3046     		mov	r0, r6
 1794              	.LVL151:
 253:lib/tinyusb/src/tusb.c ****     #endif
 1795              		.loc 1 253 12 view .LVU535
 1796 003a FFF7FEFF 		bl	usbd_edpt_claim
 1797              	.LVL152:
 253:lib/tinyusb/src/tusb.c ****     #endif
 1798              		.loc 1 253 12 view .LVU536
 1799              	.LBE200:
 1800              	.LBE199:
 377:lib/tinyusb/src/tusb.c **** 
 1801              		.loc 1 377 5 view .LVU537
 1802 003e 0028     		cmp	r0, #0
 1803 0040 E6D0     		beq	.L201
 377:lib/tinyusb/src/tusb.c **** 
 1804              		.loc 1 377 5 is_stmt 1 discriminator 2 view .LVU538
 380:lib/tinyusb/src/tusb.c **** 
 1805              		.loc 1 380 5 discriminator 2 view .LVU539
 380:lib/tinyusb/src/tusb.c **** 
 1806              		.loc 1 380 17 is_stmt 0 discriminator 2 view .LVU540
 1807 0042 3846     		mov	r0, r7
 1808 0044 FFF7FEFF 		bl	tu_fifo_remaining
 1809              	.LVL153:
 382:lib/tinyusb/src/tusb.c ****       // multiple of packet size limit by ep bufsize
 1810              		.loc 1 382 5 is_stmt 1 discriminator 2 view .LVU541
 382:lib/tinyusb/src/tusb.c ****       // multiple of packet size limit by ep bufsize
 1811              		.loc 1 382 8 is_stmt 0 discriminator 2 view .LVU542
 1812 0048 8542     		cmp	r5, r0
 1813              	.LBB201:
 1814              	.LBB182:
 1815              	.LBB183:
 260:lib/tinyusb/src/tusb.c ****     #if CFG_TUH_ENABLED
 1816              		.loc 1 260 7 discriminator 2 view .LVU543
ARM GAS  /tmp/claude-502/ccY3ow5l.s 			page 60


 1817 004a 2378     		ldrb	r3, [r4]	@ zero_extendqisi2
 1818              	.LBE183:
 1819              	.LBE182:
 1820              	.LBE201:
 382:lib/tinyusb/src/tusb.c ****       // multiple of packet size limit by ep bufsize
 1821              		.loc 1 382 8 discriminator 2 view .LVU544
 1822 004c 2CD8     		bhi	.L185
 1823              	.LBB202:
 384:lib/tinyusb/src/tusb.c ****       count = tu_min16(count, s->ep_bufsize);
 1824              		.loc 1 384 7 is_stmt 1 view .LVU545
 1825              	.LVL154:
 385:lib/tinyusb/src/tusb.c ****       TU_ASSERT(stream_xfer(hwid, s, count), 0);
 1826              		.loc 1 385 7 view .LVU546
 1827              	.LBB188:
 1828              	.LBI188:
 151:lib/tinyusb/src/common/tusb_common.h **** TU_ATTR_ALWAYS_INLINE static inline uint32_t tu_min32 (uint32_t x, uint32_t y) { return (x < y) ? x
 1829              		.loc 4 151 46 view .LVU547
 1830              	.LBB189:
 151:lib/tinyusb/src/common/tusb_common.h **** TU_ATTR_ALWAYS_INLINE static inline uint32_t tu_min32 (uint32_t x, uint32_t y) { return (x < y) ? x
 1831              		.loc 4 151 82 view .LVU548
 151:lib/tinyusb/src/common/tusb_common.h **** TU_ATTR_ALWAYS_INLINE static inline uint32_t tu_min32 (uint32_t x, uint32_t y) { return (x < y) ? x
 1832              		.loc 4 151 82 is_stmt 0 view .LVU549
 1833              	.LBE189:
 1834              	.LBE188:
 386:lib/tinyusb/src/tusb.c ****       return count;
 1835              		.loc 1 386 7 is_stmt 1 view .LVU550
 386:lib/tinyusb/src/tusb.c ****       return count;
 1836              		.loc 1 386 7 view .LVU551
 1837              	.LBB192:
 1838              	.LBI182:
 259:lib/tinyusb/src/tusb.c ****   if (s->is_host) {
 1839              		.loc 1 259 42 view .LVU552
 1840              	.LBB184:
 260:lib/tinyusb/src/tusb.c ****     #if CFG_TUH_ENABLED
 1841              		.loc 1 260 3 view .LVU553
 260:lib/tinyusb/src/tusb.c ****     #if CFG_TUH_ENABLED
 1842              		.loc 1 260 6 is_stmt 0 view .LVU554
 1843 004e DA07     		lsls	r2, r3, #31
 1844 0050 0FD4     		bmi	.L190
 1845              	.LBE184:
 1846              	.LBE192:
 384:lib/tinyusb/src/tusb.c ****       count = tu_min16(count, s->ep_bufsize);
 1847              		.loc 1 384 46 view .LVU555
 1848 0052 6B42     		rsbs	r3, r5, #0
 1849              	.LBB193:
 1850              	.LBB190:
 151:lib/tinyusb/src/common/tusb_common.h **** TU_ATTR_ALWAYS_INLINE static inline uint32_t tu_min32 (uint32_t x, uint32_t y) { return (x < y) ? x
 1851              		.loc 4 151 101 view .LVU556
 1852 0054 6288     		ldrh	r2, [r4, #2]
 1853              	.LBE190:
 1854              	.LBE193:
 1855              	.LBB194:
 1856              	.LBB185:
 266:lib/tinyusb/src/tusb.c ****     #endif
 1857              		.loc 1 266 12 view .LVU557
 1858 0056 6178     		ldrb	r1, [r4, #1]	@ zero_extendqisi2
 1859              	.LBE185:
ARM GAS  /tmp/claude-502/ccY3ow5l.s 			page 61


 1860              	.LBE194:
 384:lib/tinyusb/src/tusb.c ****       count = tu_min16(count, s->ep_bufsize);
 1861              		.loc 1 384 46 view .LVU558
 1862 0058 03EA0005 		and	r5, r3, r0
 1863              	.LVL155:
 1864              	.LBB195:
 1865              	.LBB191:
 151:lib/tinyusb/src/common/tusb_common.h **** TU_ATTR_ALWAYS_INLINE static inline uint32_t tu_min32 (uint32_t x, uint32_t y) { return (x < y) ? x
 1866              		.loc 4 151 101 view .LVU559
 1867 005c ADB2     		uxth	r5, r5
 1868 005e 9542     		cmp	r5, r2
 1869 0060 28BF     		it	cs
 1870 0062 1546     		movcs	r5, r2
 1871              	.LBE191:
 1872              	.LBE195:
 1873              	.LBB196:
 1874              	.LBB186:
 266:lib/tinyusb/src/tusb.c ****     #endif
 1875              		.loc 1 266 5 is_stmt 1 view .LVU560
 266:lib/tinyusb/src/tusb.c ****     #endif
 1876              		.loc 1 266 12 is_stmt 0 view .LVU561
 1877 0064 5DB3     		cbz	r5, .L193
 1878 0066 6268     		ldr	r2, [r4, #4]
 1879              	.L188:
 266:lib/tinyusb/src/tusb.c ****     #endif
 1880              		.loc 1 266 12 view .LVU562
 1881 0068 2B46     		mov	r3, r5
 1882              	.LVL156:
 266:lib/tinyusb/src/tusb.c ****     #endif
 1883              		.loc 1 266 12 view .LVU563
 1884 006a 3046     		mov	r0, r6
 1885              	.LVL157:
 266:lib/tinyusb/src/tusb.c ****     #endif
 1886              		.loc 1 266 12 view .LVU564
 1887 006c FFF7FEFF 		bl	usbd_edpt_xfer
 1888              	.LVL158:
 266:lib/tinyusb/src/tusb.c ****     #endif
 1889              		.loc 1 266 12 view .LVU565
 1890              	.LBE186:
 1891              	.LBE196:
 386:lib/tinyusb/src/tusb.c ****       return count;
 1892              		.loc 1 386 7 view .LVU566
 1893 0070 08BB     		cbnz	r0, .L202
 1894              	.L190:
 386:lib/tinyusb/src/tusb.c ****       return count;
 1895              		.loc 1 386 7 is_stmt 1 view .LVU567
 386:lib/tinyusb/src/tusb.c ****       return count;
 1896              		.loc 1 386 7 view .LVU568
 386:lib/tinyusb/src/tusb.c ****       return count;
 1897              		.loc 1 386 7 view .LVU569
 386:lib/tinyusb/src/tusb.c ****       return count;
 1898              		.loc 1 386 7 view .LVU570
 1899              	.LBB197:
 386:lib/tinyusb/src/tusb.c ****       return count;
 1900              		.loc 1 386 7 view .LVU571
 1901              	.LVL159:
 386:lib/tinyusb/src/tusb.c ****       return count;
ARM GAS  /tmp/claude-502/ccY3ow5l.s 			page 62


 1902              		.loc 1 386 7 view .LVU572
 1903 0072 4FF0E023 		mov	r3, #-536813568
 1904 0076 D3F8F03D 		ldr	r3, [r3, #3568]
 1905 007a DB07     		lsls	r3, r3, #31
 1906 007c C8D5     		bpl	.L201
 386:lib/tinyusb/src/tusb.c ****       return count;
 1907              		.loc 1 386 7 discriminator 3 view .LVU573
 1908              		.syntax unified
 1909              	@ 386 "lib/tinyusb/src/tusb.c" 1
 1910 007e 00BE     		BKPT #0
 1911              	
 1912              	@ 0 "" 2
 1913              		.thumb
 1914              		.syntax unified
 1915 0080 C6E7     		b	.L201
 1916              	.LVL160:
 1917              	.L176:
 386:lib/tinyusb/src/tusb.c ****       return count;
 1918              		.loc 1 386 7 is_stmt 0 discriminator 3 view .LVU574
 1919              	.LBE197:
 1920              	.LBE202:
 1921              	.LBE206:
 1922              	.LBB207:
 1923              	.LBB179:
 253:lib/tinyusb/src/tusb.c ****     #endif
 1924              		.loc 1 253 5 is_stmt 1 view .LVU575
 253:lib/tinyusb/src/tusb.c ****     #endif
 1925              		.loc 1 253 12 is_stmt 0 view .LVU576
 1926 0082 4978     		ldrb	r1, [r1, #1]	@ zero_extendqisi2
 1927              	.LVL161:
 253:lib/tinyusb/src/tusb.c ****     #endif
 1928              		.loc 1 253 12 view .LVU577
 1929 0084 FFF7FEFF 		bl	usbd_edpt_claim
 1930              	.LVL162:
 253:lib/tinyusb/src/tusb.c ****     #endif
 1931              		.loc 1 253 12 view .LVU578
 1932              	.LBE179:
 1933              	.LBE207:
 364:lib/tinyusb/src/tusb.c ****     TU_ASSERT(stream_xfer(hwid, s, s->ep_bufsize), 0);
 1934              		.loc 1 364 5 view .LVU579
 1935 0088 0028     		cmp	r0, #0
 1936 008a C1D0     		beq	.L201
 364:lib/tinyusb/src/tusb.c ****     TU_ASSERT(stream_xfer(hwid, s, s->ep_bufsize), 0);
 1937              		.loc 1 364 5 is_stmt 1 discriminator 2 view .LVU580
 365:lib/tinyusb/src/tusb.c ****     return s->ep_bufsize;
 1938              		.loc 1 365 5 discriminator 2 view .LVU581
 365:lib/tinyusb/src/tusb.c ****     return s->ep_bufsize;
 1939              		.loc 1 365 5 discriminator 2 view .LVU582
 1940              	.LVL163:
 1941              	.LBB208:
 1942              	.LBI208:
 259:lib/tinyusb/src/tusb.c ****   if (s->is_host) {
 1943              		.loc 1 259 42 discriminator 2 view .LVU583
 1944              	.LBB209:
 260:lib/tinyusb/src/tusb.c ****     #if CFG_TUH_ENABLED
 1945              		.loc 1 260 3 discriminator 2 view .LVU584
 260:lib/tinyusb/src/tusb.c ****     #if CFG_TUH_ENABLED
ARM GAS  /tmp/claude-502/ccY3ow5l.s 			page 63


 1946              		.loc 1 260 7 is_stmt 0 discriminator 2 view .LVU585
 1947 008c 2378     		ldrb	r3, [r4]	@ zero_extendqisi2
 260:lib/tinyusb/src/tusb.c ****     #if CFG_TUH_ENABLED
 1948              		.loc 1 260 6 discriminator 2 view .LVU586
 1949 008e D807     		lsls	r0, r3, #31
 1950 0090 EFD4     		bmi	.L190
 1951              	.LBE209:
 1952              	.LBE208:
 365:lib/tinyusb/src/tusb.c ****     return s->ep_bufsize;
 1953              		.loc 1 365 5 view .LVU587
 1954 0092 6388     		ldrh	r3, [r4, #2]
 1955              	.LBB212:
 1956              	.LBB210:
 266:lib/tinyusb/src/tusb.c ****     #endif
 1957              		.loc 1 266 5 is_stmt 1 view .LVU588
 266:lib/tinyusb/src/tusb.c ****     #endif
 1958              		.loc 1 266 12 is_stmt 0 view .LVU589
 1959 0094 6178     		ldrb	r1, [r4, #1]	@ zero_extendqisi2
 1960 0096 83B1     		cbz	r3, .L191
 1961 0098 6268     		ldr	r2, [r4, #4]
 1962              	.L181:
 266:lib/tinyusb/src/tusb.c ****     #endif
 1963              		.loc 1 266 12 view .LVU590
 1964 009a 3046     		mov	r0, r6
 1965 009c FFF7FEFF 		bl	usbd_edpt_xfer
 1966              	.LVL164:
 266:lib/tinyusb/src/tusb.c ****     #endif
 1967              		.loc 1 266 12 view .LVU591
 1968              	.LBE210:
 1969              	.LBE212:
 365:lib/tinyusb/src/tusb.c ****     return s->ep_bufsize;
 1970              		.loc 1 365 5 view .LVU592
 1971 00a0 0028     		cmp	r0, #0
 1972 00a2 E6D0     		beq	.L190
 365:lib/tinyusb/src/tusb.c ****     return s->ep_bufsize;
 1973              		.loc 1 365 5 is_stmt 1 discriminator 2 view .LVU593
 366:lib/tinyusb/src/tusb.c ****   } else {
 1974              		.loc 1 366 5 discriminator 2 view .LVU594
 366:lib/tinyusb/src/tusb.c ****   } else {
 1975              		.loc 1 366 13 is_stmt 0 discriminator 2 view .LVU595
 1976 00a4 6088     		ldrh	r0, [r4, #2]
 1977              		.loc 1 394 1 discriminator 2 view .LVU596
 1978 00a6 F8BD     		pop	{r3, r4, r5, r6, r7, pc}
 1979              	.LVL165:
 1980              	.L185:
 1981              	.LBB213:
 390:lib/tinyusb/src/tusb.c ****       return 0;
 1982              		.loc 1 390 7 is_stmt 1 view .LVU597
 1983              	.LBB203:
 1984              	.LBI203:
 272:lib/tinyusb/src/tusb.c ****   if (s->is_host) {
 1985              		.loc 1 272 42 view .LVU598
 1986              	.LBB204:
 273:lib/tinyusb/src/tusb.c ****     #if CFG_TUH_ENABLED
 1987              		.loc 1 273 3 view .LVU599
 273:lib/tinyusb/src/tusb.c ****     #if CFG_TUH_ENABLED
 1988              		.loc 1 273 6 is_stmt 0 view .LVU600
ARM GAS  /tmp/claude-502/ccY3ow5l.s 			page 64


 1989 00a8 13F00105 		ands	r5, r3, #1
 1990              	.LVL166:
 273:lib/tinyusb/src/tusb.c ****     #if CFG_TUH_ENABLED
 1991              		.loc 1 273 6 view .LVU601
 1992 00ac B0D1     		bne	.L201
 279:lib/tinyusb/src/tusb.c ****     #endif
 1993              		.loc 1 279 5 is_stmt 1 view .LVU602
 279:lib/tinyusb/src/tusb.c ****     #endif
 1994              		.loc 1 279 12 is_stmt 0 view .LVU603
 1995 00ae 6178     		ldrb	r1, [r4, #1]	@ zero_extendqisi2
 1996 00b0 3046     		mov	r0, r6
 1997              	.LVL167:
 279:lib/tinyusb/src/tusb.c ****     #endif
 1998              		.loc 1 279 12 view .LVU604
 1999 00b2 FFF7FEFF 		bl	usbd_edpt_release
 2000              	.LVL168:
 2001              	.L202:
 279:lib/tinyusb/src/tusb.c ****     #endif
 2002              		.loc 1 279 12 view .LVU605
 2003              	.LBE204:
 2004              	.LBE203:
 391:lib/tinyusb/src/tusb.c ****     }
 2005              		.loc 1 391 14 view .LVU606
 2006 00b6 2846     		mov	r0, r5
 2007              	.LBE213:
 2008              		.loc 1 394 1 view .LVU607
 2009 00b8 F8BD     		pop	{r3, r4, r5, r6, r7, pc}
 2010              	.LVL169:
 2011              	.L191:
 2012              	.LBB214:
 2013              	.LBB211:
 266:lib/tinyusb/src/tusb.c ****     #endif
 2014              		.loc 1 266 12 view .LVU608
 2015 00ba 1A46     		mov	r2, r3
 2016 00bc EDE7     		b	.L181
 2017              	.LVL170:
 2018              	.L193:
 266:lib/tinyusb/src/tusb.c ****     #endif
 2019              		.loc 1 266 12 view .LVU609
 2020              	.LBE211:
 2021              	.LBE214:
 2022              	.LBB215:
 2023              	.LBB205:
 2024              	.LBB198:
 2025              	.LBB187:
 2026 00be 2A46     		mov	r2, r5
 2027 00c0 D2E7     		b	.L188
 2028              	.LBE187:
 2029              	.LBE198:
 2030              	.LBE205:
 2031              	.LBE215:
 2032              		.cfi_endproc
 2033              	.LFE429:
 2035 00c2 00BF     		.section	.text.tu_edpt_stream_read,"ax",%progbits
 2036              		.align	1
 2037              		.p2align 2,,3
 2038              		.global	tu_edpt_stream_read
ARM GAS  /tmp/claude-502/ccY3ow5l.s 			page 65


 2039              		.syntax unified
 2040              		.thumb
 2041              		.thumb_func
 2043              	tu_edpt_stream_read:
 2044              	.LVL171:
 2045              	.LFB430:
 395:lib/tinyusb/src/tusb.c **** 
 396:lib/tinyusb/src/tusb.c **** uint32_t tu_edpt_stream_read(uint8_t hwid, tu_edpt_stream_t* s, void* buffer, uint32_t bufsize) {
 2046              		.loc 1 396 97 is_stmt 1 view -0
 2047              		.cfi_startproc
 2048              		@ args = 0, pretend = 0, frame = 0
 2049              		@ frame_needed = 0, uses_anonymous_args = 0
 397:lib/tinyusb/src/tusb.c ****   uint32_t num_read = tu_fifo_read_n(&s->ff, buffer, (uint16_t) bufsize);
 2050              		.loc 1 397 3 view .LVU611
 396:lib/tinyusb/src/tusb.c ****   uint32_t num_read = tu_fifo_read_n(&s->ff, buffer, (uint16_t) bufsize);
 2051              		.loc 1 396 97 is_stmt 0 view .LVU612
 2052 0000 38B5     		push	{r3, r4, r5, lr}
 2053              		.cfi_def_cfa_offset 16
 2054              		.cfi_offset 3, -16
 2055              		.cfi_offset 4, -12
 2056              		.cfi_offset 5, -8
 2057              		.cfi_offset 14, -4
 396:lib/tinyusb/src/tusb.c ****   uint32_t num_read = tu_fifo_read_n(&s->ff, buffer, (uint16_t) bufsize);
 2058              		.loc 1 396 97 view .LVU613
 2059 0002 0C46     		mov	r4, r1
 2060 0004 0546     		mov	r5, r0
 2061 0006 1146     		mov	r1, r2
 2062              	.LVL172:
 2063              		.loc 1 397 23 view .LVU614
 2064 0008 9AB2     		uxth	r2, r3
 2065              	.LVL173:
 2066              		.loc 1 397 23 view .LVU615
 2067 000a 04F10800 		add	r0, r4, #8
 2068              	.LVL174:
 2069              		.loc 1 397 23 view .LVU616
 2070 000e FFF7FEFF 		bl	tu_fifo_read_n
 2071              	.LVL175:
 2072              		.loc 1 397 23 view .LVU617
 2073 0012 0346     		mov	r3, r0
 398:lib/tinyusb/src/tusb.c ****   tu_edpt_stream_read_xfer(hwid, s);
 2074              		.loc 1 398 3 view .LVU618
 2075 0014 2146     		mov	r1, r4
 2076 0016 2846     		mov	r0, r5
 397:lib/tinyusb/src/tusb.c ****   uint32_t num_read = tu_fifo_read_n(&s->ff, buffer, (uint16_t) bufsize);
 2077              		.loc 1 397 23 view .LVU619
 2078 0018 1C46     		mov	r4, r3
 2079              	.LVL176:
 2080              		.loc 1 398 3 is_stmt 1 view .LVU620
 2081 001a FFF7FEFF 		bl	tu_edpt_stream_read_xfer
 2082              	.LVL177:
 399:lib/tinyusb/src/tusb.c ****   return num_read;
 2083              		.loc 1 399 3 view .LVU621
 400:lib/tinyusb/src/tusb.c **** }
 2084              		.loc 1 400 1 is_stmt 0 view .LVU622
 2085 001e 2046     		mov	r0, r4
 2086 0020 38BD     		pop	{r3, r4, r5, pc}
 2087              		.loc 1 400 1 view .LVU623
ARM GAS  /tmp/claude-502/ccY3ow5l.s 			page 66


 2088              		.cfi_endproc
 2089              	.LFE430:
 2091 0022 00BF     		.text
 2092              	.Letext0:
 2093              		.file 5 "/Library/DaisyToolchain/0.2.0/arm/arm-none-eabi/include/machine/_default_types.h"
 2094              		.file 6 "/Library/DaisyToolchain/0.2.0/arm/arm-none-eabi/include/sys/_stdint.h"
 2095              		.file 7 "lib/tinyusb/src/osal/osal_none.h"
 2096              		.file 8 "lib/tinyusb/src/common/tusb_private.h"
 2097              		.file 9 "lib/tinyusb/src/device/usbd_pvt.h"
 2098              		.file 10 "lib/tinyusb/src/device/usbd.h"
 2099              		.file 11 "<built-in>"
ARM GAS  /tmp/claude-502/ccY3ow5l.s 			page 67

