ARM GAS  /tmp/claude-502/ccRWC2Fn.s 			page 1


   1              		.cpu cortex-m7
   2              		.arch armv7e-m
   3              		.fpu fpv5-d16
   4              		.eabi_attribute 28, 1
   5              		.eabi_attribute 20, 1
   6              		.eabi_attribute 21, 1
   7              		.eabi_attribute 23, 3
   8              		.eabi_attribute 24, 1
   9              		.eabi_attribute 25, 1
  10              		.eabi_attribute 26, 1
  11              		.eabi_attribute 30, 2
  12              		.eabi_attribute 34, 1
  13              		.eabi_attribute 18, 4
  14              		.file	"tusb_fifo.c"
  15              		.text
  16              	.Ltext0:
  17              		.cfi_sections	.debug_frame
  18              		.section	.text._tu_fifo_peek_n,"ax",%progbits
  19              		.align	1
  20              		.p2align 2,,3
  21              		.syntax unified
  22              		.thumb
  23              		.thumb_func
  25              	_tu_fifo_peek_n:
  26              	.LVL0:
  27              	.LFB393:
  28              		.file 1 "lib/tinyusb/src/common/tusb_fifo.c"
   1:lib/tinyusb/src/common/tusb_fifo.c **** /*
   2:lib/tinyusb/src/common/tusb_fifo.c ****  * The MIT License (MIT)
   3:lib/tinyusb/src/common/tusb_fifo.c ****  *
   4:lib/tinyusb/src/common/tusb_fifo.c ****  * Copyright (c) 2019 Ha Thach (tinyusb.org)
   5:lib/tinyusb/src/common/tusb_fifo.c ****  * Copyright (c) 2020 Reinhard Panhuber - rework to unmasked pointers
   6:lib/tinyusb/src/common/tusb_fifo.c ****  *
   7:lib/tinyusb/src/common/tusb_fifo.c ****  * Permission is hereby granted, free of charge, to any person obtaining a copy
   8:lib/tinyusb/src/common/tusb_fifo.c ****  * of this software and associated documentation files (the "Software"), to deal
   9:lib/tinyusb/src/common/tusb_fifo.c ****  * in the Software without restriction, including without limitation the rights
  10:lib/tinyusb/src/common/tusb_fifo.c ****  * to use, copy, modify, merge, publish, distribute, sublicense, and/or sell
  11:lib/tinyusb/src/common/tusb_fifo.c ****  * copies of the Software, and to permit persons to whom the Software is
  12:lib/tinyusb/src/common/tusb_fifo.c ****  * furnished to do so, subject to the following conditions:
  13:lib/tinyusb/src/common/tusb_fifo.c ****  *
  14:lib/tinyusb/src/common/tusb_fifo.c ****  * The above copyright notice and this permission notice shall be included in
  15:lib/tinyusb/src/common/tusb_fifo.c ****  * all copies or substantial portions of the Software.
  16:lib/tinyusb/src/common/tusb_fifo.c ****  *
  17:lib/tinyusb/src/common/tusb_fifo.c ****  * THE SOFTWARE IS PROVIDED "AS IS", WITHOUT WARRANTY OF ANY KIND, EXPRESS OR
  18:lib/tinyusb/src/common/tusb_fifo.c ****  * IMPLIED, INCLUDING BUT NOT LIMITED TO THE WARRANTIES OF MERCHANTABILITY,
  19:lib/tinyusb/src/common/tusb_fifo.c ****  * FITNESS FOR A PARTICULAR PURPOSE AND NONINFRINGEMENT. IN NO EVENT SHALL THE
  20:lib/tinyusb/src/common/tusb_fifo.c ****  * AUTHORS OR COPYRIGHT HOLDERS BE LIABLE FOR ANY CLAIM, DAMAGES OR OTHER
  21:lib/tinyusb/src/common/tusb_fifo.c ****  * LIABILITY, WHETHER IN AN ACTION OF CONTRACT, TORT OR OTHERWISE, ARISING FROM,
  22:lib/tinyusb/src/common/tusb_fifo.c ****  * OUT OF OR IN CONNECTION WITH THE SOFTWARE OR THE USE OR OTHER DEALINGS IN
  23:lib/tinyusb/src/common/tusb_fifo.c ****  * THE SOFTWARE.
  24:lib/tinyusb/src/common/tusb_fifo.c ****  *
  25:lib/tinyusb/src/common/tusb_fifo.c ****  * This file is part of the TinyUSB stack.
  26:lib/tinyusb/src/common/tusb_fifo.c ****  */
  27:lib/tinyusb/src/common/tusb_fifo.c **** 
  28:lib/tinyusb/src/common/tusb_fifo.c **** #include "osal/osal.h"
  29:lib/tinyusb/src/common/tusb_fifo.c **** #include "tusb_fifo.h"
  30:lib/tinyusb/src/common/tusb_fifo.c **** 
ARM GAS  /tmp/claude-502/ccRWC2Fn.s 			page 2


  31:lib/tinyusb/src/common/tusb_fifo.c **** #define TU_FIFO_DBG   0
  32:lib/tinyusb/src/common/tusb_fifo.c **** 
  33:lib/tinyusb/src/common/tusb_fifo.c **** // Suppress IAR warning
  34:lib/tinyusb/src/common/tusb_fifo.c **** // Warning[Pa082]: undefined behavior: the order of volatile accesses is undefined in this statemen
  35:lib/tinyusb/src/common/tusb_fifo.c **** #if defined(__ICCARM__)
  36:lib/tinyusb/src/common/tusb_fifo.c **** #pragma diag_suppress = Pa082
  37:lib/tinyusb/src/common/tusb_fifo.c **** #endif
  38:lib/tinyusb/src/common/tusb_fifo.c **** 
  39:lib/tinyusb/src/common/tusb_fifo.c **** #if OSAL_MUTEX_REQUIRED
  40:lib/tinyusb/src/common/tusb_fifo.c **** 
  41:lib/tinyusb/src/common/tusb_fifo.c **** TU_ATTR_ALWAYS_INLINE static inline void _ff_lock(osal_mutex_t mutex)
  42:lib/tinyusb/src/common/tusb_fifo.c **** {
  43:lib/tinyusb/src/common/tusb_fifo.c ****   if (mutex) osal_mutex_lock(mutex, OSAL_TIMEOUT_WAIT_FOREVER);
  44:lib/tinyusb/src/common/tusb_fifo.c **** }
  45:lib/tinyusb/src/common/tusb_fifo.c **** 
  46:lib/tinyusb/src/common/tusb_fifo.c **** TU_ATTR_ALWAYS_INLINE static inline void _ff_unlock(osal_mutex_t mutex)
  47:lib/tinyusb/src/common/tusb_fifo.c **** {
  48:lib/tinyusb/src/common/tusb_fifo.c ****   if (mutex) osal_mutex_unlock(mutex);
  49:lib/tinyusb/src/common/tusb_fifo.c **** }
  50:lib/tinyusb/src/common/tusb_fifo.c **** 
  51:lib/tinyusb/src/common/tusb_fifo.c **** #else
  52:lib/tinyusb/src/common/tusb_fifo.c **** 
  53:lib/tinyusb/src/common/tusb_fifo.c **** #define _ff_lock(_mutex)
  54:lib/tinyusb/src/common/tusb_fifo.c **** #define _ff_unlock(_mutex)
  55:lib/tinyusb/src/common/tusb_fifo.c **** 
  56:lib/tinyusb/src/common/tusb_fifo.c **** #endif
  57:lib/tinyusb/src/common/tusb_fifo.c **** 
  58:lib/tinyusb/src/common/tusb_fifo.c **** /** \enum tu_fifo_copy_mode_t
  59:lib/tinyusb/src/common/tusb_fifo.c ****  * \brief Write modes intended to allow special read and write functions to be able to
  60:lib/tinyusb/src/common/tusb_fifo.c ****  *        copy data to and from USB hardware FIFOs as needed for e.g. STM32s and others
  61:lib/tinyusb/src/common/tusb_fifo.c ****  */
  62:lib/tinyusb/src/common/tusb_fifo.c **** typedef enum
  63:lib/tinyusb/src/common/tusb_fifo.c **** {
  64:lib/tinyusb/src/common/tusb_fifo.c ****   TU_FIFO_COPY_INC,            ///< Copy from/to an increasing source/destination address - default
  65:lib/tinyusb/src/common/tusb_fifo.c **** #ifdef TUP_MEM_CONST_ADDR
  66:lib/tinyusb/src/common/tusb_fifo.c ****   TU_FIFO_COPY_CST_FULL_WORDS, ///< Copy from/to a constant source/destination address - required f
  67:lib/tinyusb/src/common/tusb_fifo.c **** #endif
  68:lib/tinyusb/src/common/tusb_fifo.c **** } tu_fifo_copy_mode_t;
  69:lib/tinyusb/src/common/tusb_fifo.c **** 
  70:lib/tinyusb/src/common/tusb_fifo.c **** bool tu_fifo_config(tu_fifo_t *f, void* buffer, uint16_t depth, uint16_t item_size, bool overwritab
  71:lib/tinyusb/src/common/tusb_fifo.c **** {
  72:lib/tinyusb/src/common/tusb_fifo.c ****   // Limit index space to 2*depth - this allows for a fast "modulo" calculation
  73:lib/tinyusb/src/common/tusb_fifo.c ****   // but limits the maximum depth to 2^16/2 = 2^15 and buffer overflows are detectable
  74:lib/tinyusb/src/common/tusb_fifo.c ****   // only if overflow happens once (important for unsupervised DMA applications)
  75:lib/tinyusb/src/common/tusb_fifo.c ****   if (depth > 0x8000) return false;
  76:lib/tinyusb/src/common/tusb_fifo.c **** 
  77:lib/tinyusb/src/common/tusb_fifo.c ****   _ff_lock(f->mutex_wr);
  78:lib/tinyusb/src/common/tusb_fifo.c ****   _ff_lock(f->mutex_rd);
  79:lib/tinyusb/src/common/tusb_fifo.c **** 
  80:lib/tinyusb/src/common/tusb_fifo.c ****   f->buffer       = (uint8_t*) buffer;
  81:lib/tinyusb/src/common/tusb_fifo.c ****   f->depth        = depth;
  82:lib/tinyusb/src/common/tusb_fifo.c ****   f->item_size    = (uint16_t) (item_size & 0x7FFF);
  83:lib/tinyusb/src/common/tusb_fifo.c ****   f->overwritable = overwritable;
  84:lib/tinyusb/src/common/tusb_fifo.c ****   f->rd_idx       = 0;
  85:lib/tinyusb/src/common/tusb_fifo.c ****   f->wr_idx       = 0;
  86:lib/tinyusb/src/common/tusb_fifo.c **** 
  87:lib/tinyusb/src/common/tusb_fifo.c ****   _ff_unlock(f->mutex_wr);
ARM GAS  /tmp/claude-502/ccRWC2Fn.s 			page 3


  88:lib/tinyusb/src/common/tusb_fifo.c ****   _ff_unlock(f->mutex_rd);
  89:lib/tinyusb/src/common/tusb_fifo.c **** 
  90:lib/tinyusb/src/common/tusb_fifo.c ****   return true;
  91:lib/tinyusb/src/common/tusb_fifo.c **** }
  92:lib/tinyusb/src/common/tusb_fifo.c **** 
  93:lib/tinyusb/src/common/tusb_fifo.c **** //--------------------------------------------------------------------+
  94:lib/tinyusb/src/common/tusb_fifo.c **** // Pull & Push
  95:lib/tinyusb/src/common/tusb_fifo.c **** //--------------------------------------------------------------------+
  96:lib/tinyusb/src/common/tusb_fifo.c **** 
  97:lib/tinyusb/src/common/tusb_fifo.c **** #ifdef TUP_MEM_CONST_ADDR
  98:lib/tinyusb/src/common/tusb_fifo.c **** // Intended to be used to read from hardware USB FIFO in e.g. STM32 where all data is read from a c
  99:lib/tinyusb/src/common/tusb_fifo.c **** // Code adapted from dcd_synopsys.c
 100:lib/tinyusb/src/common/tusb_fifo.c **** // TODO generalize with configurable 1 byte or 4 byte each read
 101:lib/tinyusb/src/common/tusb_fifo.c **** static void _ff_push_const_addr(uint8_t * ff_buf, const void * app_buf, uint16_t len)
 102:lib/tinyusb/src/common/tusb_fifo.c **** {
 103:lib/tinyusb/src/common/tusb_fifo.c ****   volatile const uint32_t * reg_rx = (volatile const uint32_t *) app_buf;
 104:lib/tinyusb/src/common/tusb_fifo.c **** 
 105:lib/tinyusb/src/common/tusb_fifo.c ****   // Reading full available 32 bit words from const app address
 106:lib/tinyusb/src/common/tusb_fifo.c ****   uint16_t full_words = len >> 2;
 107:lib/tinyusb/src/common/tusb_fifo.c ****   while(full_words--)
 108:lib/tinyusb/src/common/tusb_fifo.c ****   {
 109:lib/tinyusb/src/common/tusb_fifo.c ****     tu_unaligned_write32(ff_buf, *reg_rx);
 110:lib/tinyusb/src/common/tusb_fifo.c ****     ff_buf += 4;
 111:lib/tinyusb/src/common/tusb_fifo.c ****   }
 112:lib/tinyusb/src/common/tusb_fifo.c **** 
 113:lib/tinyusb/src/common/tusb_fifo.c ****   // Read the remaining 1-3 bytes from const app address
 114:lib/tinyusb/src/common/tusb_fifo.c ****   uint8_t const bytes_rem = len & 0x03;
 115:lib/tinyusb/src/common/tusb_fifo.c ****   if ( bytes_rem )
 116:lib/tinyusb/src/common/tusb_fifo.c ****   {
 117:lib/tinyusb/src/common/tusb_fifo.c ****     uint32_t tmp32 = *reg_rx;
 118:lib/tinyusb/src/common/tusb_fifo.c ****     memcpy(ff_buf, &tmp32, bytes_rem);
 119:lib/tinyusb/src/common/tusb_fifo.c ****   }
 120:lib/tinyusb/src/common/tusb_fifo.c **** }
 121:lib/tinyusb/src/common/tusb_fifo.c **** 
 122:lib/tinyusb/src/common/tusb_fifo.c **** // Intended to be used to write to hardware USB FIFO in e.g. STM32
 123:lib/tinyusb/src/common/tusb_fifo.c **** // where all data is written to a constant address in full word copies
 124:lib/tinyusb/src/common/tusb_fifo.c **** static void _ff_pull_const_addr(void * app_buf, const uint8_t * ff_buf, uint16_t len)
 125:lib/tinyusb/src/common/tusb_fifo.c **** {
 126:lib/tinyusb/src/common/tusb_fifo.c ****   volatile uint32_t * reg_tx = (volatile uint32_t *) app_buf;
 127:lib/tinyusb/src/common/tusb_fifo.c **** 
 128:lib/tinyusb/src/common/tusb_fifo.c ****   // Write full available 32 bit words to const address
 129:lib/tinyusb/src/common/tusb_fifo.c ****   uint16_t full_words = len >> 2;
 130:lib/tinyusb/src/common/tusb_fifo.c ****   while(full_words--)
 131:lib/tinyusb/src/common/tusb_fifo.c ****   {
 132:lib/tinyusb/src/common/tusb_fifo.c ****     *reg_tx = tu_unaligned_read32(ff_buf);
 133:lib/tinyusb/src/common/tusb_fifo.c ****     ff_buf += 4;
 134:lib/tinyusb/src/common/tusb_fifo.c ****   }
 135:lib/tinyusb/src/common/tusb_fifo.c **** 
 136:lib/tinyusb/src/common/tusb_fifo.c ****   // Write the remaining 1-3 bytes into const address
 137:lib/tinyusb/src/common/tusb_fifo.c ****   uint8_t const bytes_rem = len & 0x03;
 138:lib/tinyusb/src/common/tusb_fifo.c ****   if ( bytes_rem )
 139:lib/tinyusb/src/common/tusb_fifo.c ****   {
 140:lib/tinyusb/src/common/tusb_fifo.c ****     uint32_t tmp32 = 0;
 141:lib/tinyusb/src/common/tusb_fifo.c ****     memcpy(&tmp32, ff_buf, bytes_rem);
 142:lib/tinyusb/src/common/tusb_fifo.c **** 
 143:lib/tinyusb/src/common/tusb_fifo.c ****     *reg_tx = tmp32;
 144:lib/tinyusb/src/common/tusb_fifo.c ****   }
ARM GAS  /tmp/claude-502/ccRWC2Fn.s 			page 4


 145:lib/tinyusb/src/common/tusb_fifo.c **** }
 146:lib/tinyusb/src/common/tusb_fifo.c **** #endif
 147:lib/tinyusb/src/common/tusb_fifo.c **** 
 148:lib/tinyusb/src/common/tusb_fifo.c **** // send one item to fifo WITHOUT updating write pointer
 149:lib/tinyusb/src/common/tusb_fifo.c **** static inline void _ff_push(tu_fifo_t* f, void const * app_buf, uint16_t rel)
 150:lib/tinyusb/src/common/tusb_fifo.c **** {
 151:lib/tinyusb/src/common/tusb_fifo.c ****   memcpy(f->buffer + (rel * f->item_size), app_buf, f->item_size);
 152:lib/tinyusb/src/common/tusb_fifo.c **** }
 153:lib/tinyusb/src/common/tusb_fifo.c **** 
 154:lib/tinyusb/src/common/tusb_fifo.c **** // send n items to fifo WITHOUT updating write pointer
 155:lib/tinyusb/src/common/tusb_fifo.c **** static void _ff_push_n(tu_fifo_t* f, void const * app_buf, uint16_t n, uint16_t wr_ptr, tu_fifo_cop
 156:lib/tinyusb/src/common/tusb_fifo.c **** {
 157:lib/tinyusb/src/common/tusb_fifo.c ****   uint16_t const lin_count = f->depth - wr_ptr;
 158:lib/tinyusb/src/common/tusb_fifo.c ****   uint16_t const wrap_count = n - lin_count;
 159:lib/tinyusb/src/common/tusb_fifo.c **** 
 160:lib/tinyusb/src/common/tusb_fifo.c ****   uint16_t lin_bytes = lin_count * f->item_size;
 161:lib/tinyusb/src/common/tusb_fifo.c ****   uint16_t wrap_bytes = wrap_count * f->item_size;
 162:lib/tinyusb/src/common/tusb_fifo.c **** 
 163:lib/tinyusb/src/common/tusb_fifo.c ****   // current buffer of fifo
 164:lib/tinyusb/src/common/tusb_fifo.c ****   uint8_t* ff_buf = f->buffer + (wr_ptr * f->item_size);
 165:lib/tinyusb/src/common/tusb_fifo.c **** 
 166:lib/tinyusb/src/common/tusb_fifo.c ****   switch (copy_mode)
 167:lib/tinyusb/src/common/tusb_fifo.c ****   {
 168:lib/tinyusb/src/common/tusb_fifo.c ****     case TU_FIFO_COPY_INC:
 169:lib/tinyusb/src/common/tusb_fifo.c ****       if(n <= lin_count)
 170:lib/tinyusb/src/common/tusb_fifo.c ****       {
 171:lib/tinyusb/src/common/tusb_fifo.c ****         // Linear only
 172:lib/tinyusb/src/common/tusb_fifo.c ****         memcpy(ff_buf, app_buf, n*f->item_size);
 173:lib/tinyusb/src/common/tusb_fifo.c ****       }
 174:lib/tinyusb/src/common/tusb_fifo.c ****       else
 175:lib/tinyusb/src/common/tusb_fifo.c ****       {
 176:lib/tinyusb/src/common/tusb_fifo.c ****         // Wrap around
 177:lib/tinyusb/src/common/tusb_fifo.c **** 
 178:lib/tinyusb/src/common/tusb_fifo.c ****         // Write data to linear part of buffer
 179:lib/tinyusb/src/common/tusb_fifo.c ****         memcpy(ff_buf, app_buf, lin_bytes);
 180:lib/tinyusb/src/common/tusb_fifo.c **** 
 181:lib/tinyusb/src/common/tusb_fifo.c ****         // Write data wrapped around
 182:lib/tinyusb/src/common/tusb_fifo.c ****         // TU_ASSERT(nWrap_bytes <= f->depth, );
 183:lib/tinyusb/src/common/tusb_fifo.c ****         memcpy(f->buffer, ((uint8_t const*) app_buf) + lin_bytes, wrap_bytes);
 184:lib/tinyusb/src/common/tusb_fifo.c ****       }
 185:lib/tinyusb/src/common/tusb_fifo.c ****       break;
 186:lib/tinyusb/src/common/tusb_fifo.c **** #ifdef TUP_MEM_CONST_ADDR
 187:lib/tinyusb/src/common/tusb_fifo.c ****     case TU_FIFO_COPY_CST_FULL_WORDS:
 188:lib/tinyusb/src/common/tusb_fifo.c ****       // Intended for hardware buffers from which it can be read word by word only
 189:lib/tinyusb/src/common/tusb_fifo.c ****       if(n <= lin_count)
 190:lib/tinyusb/src/common/tusb_fifo.c ****       {
 191:lib/tinyusb/src/common/tusb_fifo.c ****         // Linear only
 192:lib/tinyusb/src/common/tusb_fifo.c ****         _ff_push_const_addr(ff_buf, app_buf, n*f->item_size);
 193:lib/tinyusb/src/common/tusb_fifo.c ****       }
 194:lib/tinyusb/src/common/tusb_fifo.c ****       else
 195:lib/tinyusb/src/common/tusb_fifo.c ****       {
 196:lib/tinyusb/src/common/tusb_fifo.c ****         // Wrap around case
 197:lib/tinyusb/src/common/tusb_fifo.c **** 
 198:lib/tinyusb/src/common/tusb_fifo.c ****         // Write full words to linear part of buffer
 199:lib/tinyusb/src/common/tusb_fifo.c ****         uint16_t nLin_4n_bytes = lin_bytes & 0xFFFC;
 200:lib/tinyusb/src/common/tusb_fifo.c ****         _ff_push_const_addr(ff_buf, app_buf, nLin_4n_bytes);
 201:lib/tinyusb/src/common/tusb_fifo.c ****         ff_buf += nLin_4n_bytes;
ARM GAS  /tmp/claude-502/ccRWC2Fn.s 			page 5


 202:lib/tinyusb/src/common/tusb_fifo.c **** 
 203:lib/tinyusb/src/common/tusb_fifo.c ****         // There could be odd 1-3 bytes before the wrap-around boundary
 204:lib/tinyusb/src/common/tusb_fifo.c ****         uint8_t rem = lin_bytes & 0x03;
 205:lib/tinyusb/src/common/tusb_fifo.c ****         if (rem > 0)
 206:lib/tinyusb/src/common/tusb_fifo.c ****         {
 207:lib/tinyusb/src/common/tusb_fifo.c ****           volatile const uint32_t * rx_fifo = (volatile const uint32_t *) app_buf;
 208:lib/tinyusb/src/common/tusb_fifo.c **** 
 209:lib/tinyusb/src/common/tusb_fifo.c ****           uint8_t remrem = (uint8_t) tu_min16(wrap_bytes, 4-rem);
 210:lib/tinyusb/src/common/tusb_fifo.c ****           wrap_bytes -= remrem;
 211:lib/tinyusb/src/common/tusb_fifo.c **** 
 212:lib/tinyusb/src/common/tusb_fifo.c ****           uint32_t tmp32 = *rx_fifo;
 213:lib/tinyusb/src/common/tusb_fifo.c ****           uint8_t * src_u8 = ((uint8_t *) &tmp32);
 214:lib/tinyusb/src/common/tusb_fifo.c **** 
 215:lib/tinyusb/src/common/tusb_fifo.c ****           // Write 1-3 bytes before wrapped boundary
 216:lib/tinyusb/src/common/tusb_fifo.c ****           while(rem--) *ff_buf++ = *src_u8++;
 217:lib/tinyusb/src/common/tusb_fifo.c **** 
 218:lib/tinyusb/src/common/tusb_fifo.c ****           // Read more bytes to beginning to complete a word
 219:lib/tinyusb/src/common/tusb_fifo.c ****           ff_buf = f->buffer;
 220:lib/tinyusb/src/common/tusb_fifo.c ****           while(remrem--) *ff_buf++ = *src_u8++;
 221:lib/tinyusb/src/common/tusb_fifo.c ****         }
 222:lib/tinyusb/src/common/tusb_fifo.c ****         else
 223:lib/tinyusb/src/common/tusb_fifo.c ****         {
 224:lib/tinyusb/src/common/tusb_fifo.c ****           ff_buf = f->buffer; // wrap around to beginning
 225:lib/tinyusb/src/common/tusb_fifo.c ****         }
 226:lib/tinyusb/src/common/tusb_fifo.c **** 
 227:lib/tinyusb/src/common/tusb_fifo.c ****         // Write data wrapped part
 228:lib/tinyusb/src/common/tusb_fifo.c ****         if (wrap_bytes > 0) _ff_push_const_addr(ff_buf, app_buf, wrap_bytes);
 229:lib/tinyusb/src/common/tusb_fifo.c ****       }
 230:lib/tinyusb/src/common/tusb_fifo.c ****       break;
 231:lib/tinyusb/src/common/tusb_fifo.c **** #endif
 232:lib/tinyusb/src/common/tusb_fifo.c ****     default: break;
 233:lib/tinyusb/src/common/tusb_fifo.c ****   }
 234:lib/tinyusb/src/common/tusb_fifo.c **** }
 235:lib/tinyusb/src/common/tusb_fifo.c **** 
 236:lib/tinyusb/src/common/tusb_fifo.c **** // get one item from fifo WITHOUT updating read pointer
 237:lib/tinyusb/src/common/tusb_fifo.c **** static inline void _ff_pull(tu_fifo_t* f, void * app_buf, uint16_t rel)
 238:lib/tinyusb/src/common/tusb_fifo.c **** {
 239:lib/tinyusb/src/common/tusb_fifo.c ****   memcpy(app_buf, f->buffer + (rel * f->item_size), f->item_size);
 240:lib/tinyusb/src/common/tusb_fifo.c **** }
 241:lib/tinyusb/src/common/tusb_fifo.c **** 
 242:lib/tinyusb/src/common/tusb_fifo.c **** // get n items from fifo WITHOUT updating read pointer
 243:lib/tinyusb/src/common/tusb_fifo.c **** static void _ff_pull_n(tu_fifo_t* f, void* app_buf, uint16_t n, uint16_t rd_ptr, tu_fifo_copy_mode_
 244:lib/tinyusb/src/common/tusb_fifo.c **** {
 245:lib/tinyusb/src/common/tusb_fifo.c ****   uint16_t const lin_count = f->depth - rd_ptr;
 246:lib/tinyusb/src/common/tusb_fifo.c ****   uint16_t const wrap_count = n - lin_count; // only used if wrapped
 247:lib/tinyusb/src/common/tusb_fifo.c **** 
 248:lib/tinyusb/src/common/tusb_fifo.c ****   uint16_t lin_bytes = lin_count * f->item_size;
 249:lib/tinyusb/src/common/tusb_fifo.c ****   uint16_t wrap_bytes = wrap_count * f->item_size;
 250:lib/tinyusb/src/common/tusb_fifo.c **** 
 251:lib/tinyusb/src/common/tusb_fifo.c ****   // current buffer of fifo
 252:lib/tinyusb/src/common/tusb_fifo.c ****   uint8_t* ff_buf = f->buffer + (rd_ptr * f->item_size);
 253:lib/tinyusb/src/common/tusb_fifo.c **** 
 254:lib/tinyusb/src/common/tusb_fifo.c ****   switch (copy_mode)
 255:lib/tinyusb/src/common/tusb_fifo.c ****   {
 256:lib/tinyusb/src/common/tusb_fifo.c ****     case TU_FIFO_COPY_INC:
 257:lib/tinyusb/src/common/tusb_fifo.c ****       if ( n <= lin_count )
 258:lib/tinyusb/src/common/tusb_fifo.c ****       {
ARM GAS  /tmp/claude-502/ccRWC2Fn.s 			page 6


 259:lib/tinyusb/src/common/tusb_fifo.c ****         // Linear only
 260:lib/tinyusb/src/common/tusb_fifo.c ****         memcpy(app_buf, ff_buf, n*f->item_size);
 261:lib/tinyusb/src/common/tusb_fifo.c ****       }
 262:lib/tinyusb/src/common/tusb_fifo.c ****       else
 263:lib/tinyusb/src/common/tusb_fifo.c ****       {
 264:lib/tinyusb/src/common/tusb_fifo.c ****         // Wrap around
 265:lib/tinyusb/src/common/tusb_fifo.c **** 
 266:lib/tinyusb/src/common/tusb_fifo.c ****         // Read data from linear part of buffer
 267:lib/tinyusb/src/common/tusb_fifo.c ****         memcpy(app_buf, ff_buf, lin_bytes);
 268:lib/tinyusb/src/common/tusb_fifo.c **** 
 269:lib/tinyusb/src/common/tusb_fifo.c ****         // Read data wrapped part
 270:lib/tinyusb/src/common/tusb_fifo.c ****         memcpy((uint8_t*) app_buf + lin_bytes, f->buffer, wrap_bytes);
 271:lib/tinyusb/src/common/tusb_fifo.c ****       }
 272:lib/tinyusb/src/common/tusb_fifo.c ****     break;
 273:lib/tinyusb/src/common/tusb_fifo.c **** #ifdef TUP_MEM_CONST_ADDR
 274:lib/tinyusb/src/common/tusb_fifo.c ****     case TU_FIFO_COPY_CST_FULL_WORDS:
 275:lib/tinyusb/src/common/tusb_fifo.c ****       if ( n <= lin_count )
 276:lib/tinyusb/src/common/tusb_fifo.c ****       {
 277:lib/tinyusb/src/common/tusb_fifo.c ****         // Linear only
 278:lib/tinyusb/src/common/tusb_fifo.c ****         _ff_pull_const_addr(app_buf, ff_buf, n*f->item_size);
 279:lib/tinyusb/src/common/tusb_fifo.c ****       }
 280:lib/tinyusb/src/common/tusb_fifo.c ****       else
 281:lib/tinyusb/src/common/tusb_fifo.c ****       {
 282:lib/tinyusb/src/common/tusb_fifo.c ****         // Wrap around case
 283:lib/tinyusb/src/common/tusb_fifo.c **** 
 284:lib/tinyusb/src/common/tusb_fifo.c ****         // Read full words from linear part of buffer
 285:lib/tinyusb/src/common/tusb_fifo.c ****         uint16_t lin_4n_bytes = lin_bytes & 0xFFFC;
 286:lib/tinyusb/src/common/tusb_fifo.c ****         _ff_pull_const_addr(app_buf, ff_buf, lin_4n_bytes);
 287:lib/tinyusb/src/common/tusb_fifo.c ****         ff_buf += lin_4n_bytes;
 288:lib/tinyusb/src/common/tusb_fifo.c **** 
 289:lib/tinyusb/src/common/tusb_fifo.c ****         // There could be odd 1-3 bytes before the wrap-around boundary
 290:lib/tinyusb/src/common/tusb_fifo.c ****         uint8_t rem = lin_bytes & 0x03;
 291:lib/tinyusb/src/common/tusb_fifo.c ****         if (rem > 0)
 292:lib/tinyusb/src/common/tusb_fifo.c ****         {
 293:lib/tinyusb/src/common/tusb_fifo.c ****           volatile uint32_t * reg_tx = (volatile uint32_t *) app_buf;
 294:lib/tinyusb/src/common/tusb_fifo.c **** 
 295:lib/tinyusb/src/common/tusb_fifo.c ****           uint8_t remrem = (uint8_t) tu_min16(wrap_bytes, 4-rem);
 296:lib/tinyusb/src/common/tusb_fifo.c ****           wrap_bytes -= remrem;
 297:lib/tinyusb/src/common/tusb_fifo.c **** 
 298:lib/tinyusb/src/common/tusb_fifo.c ****           uint32_t tmp32=0;
 299:lib/tinyusb/src/common/tusb_fifo.c ****           uint8_t * dst_u8 = (uint8_t *)&tmp32;
 300:lib/tinyusb/src/common/tusb_fifo.c **** 
 301:lib/tinyusb/src/common/tusb_fifo.c ****           // Read 1-3 bytes before wrapped boundary
 302:lib/tinyusb/src/common/tusb_fifo.c ****           while(rem--) *dst_u8++ = *ff_buf++;
 303:lib/tinyusb/src/common/tusb_fifo.c **** 
 304:lib/tinyusb/src/common/tusb_fifo.c ****           // Read more bytes from beginning to complete a word
 305:lib/tinyusb/src/common/tusb_fifo.c ****           ff_buf = f->buffer;
 306:lib/tinyusb/src/common/tusb_fifo.c ****           while(remrem--) *dst_u8++ = *ff_buf++;
 307:lib/tinyusb/src/common/tusb_fifo.c **** 
 308:lib/tinyusb/src/common/tusb_fifo.c ****           *reg_tx = tmp32;
 309:lib/tinyusb/src/common/tusb_fifo.c ****         }
 310:lib/tinyusb/src/common/tusb_fifo.c ****         else
 311:lib/tinyusb/src/common/tusb_fifo.c ****         {
 312:lib/tinyusb/src/common/tusb_fifo.c ****           ff_buf = f->buffer; // wrap around to beginning
 313:lib/tinyusb/src/common/tusb_fifo.c ****         }
 314:lib/tinyusb/src/common/tusb_fifo.c **** 
 315:lib/tinyusb/src/common/tusb_fifo.c ****         // Read data wrapped part
ARM GAS  /tmp/claude-502/ccRWC2Fn.s 			page 7


 316:lib/tinyusb/src/common/tusb_fifo.c ****         if (wrap_bytes > 0) _ff_pull_const_addr(app_buf, ff_buf, wrap_bytes);
 317:lib/tinyusb/src/common/tusb_fifo.c ****       }
 318:lib/tinyusb/src/common/tusb_fifo.c ****     break;
 319:lib/tinyusb/src/common/tusb_fifo.c **** #endif
 320:lib/tinyusb/src/common/tusb_fifo.c ****     default: break;
 321:lib/tinyusb/src/common/tusb_fifo.c ****   }
 322:lib/tinyusb/src/common/tusb_fifo.c **** }
 323:lib/tinyusb/src/common/tusb_fifo.c **** 
 324:lib/tinyusb/src/common/tusb_fifo.c **** //--------------------------------------------------------------------+
 325:lib/tinyusb/src/common/tusb_fifo.c **** // Helper
 326:lib/tinyusb/src/common/tusb_fifo.c **** //--------------------------------------------------------------------+
 327:lib/tinyusb/src/common/tusb_fifo.c **** 
 328:lib/tinyusb/src/common/tusb_fifo.c **** // return only the index difference and as such can be used to determine an overflow i.e overflowab
 329:lib/tinyusb/src/common/tusb_fifo.c **** TU_ATTR_ALWAYS_INLINE static inline
 330:lib/tinyusb/src/common/tusb_fifo.c **** uint16_t _ff_count(uint16_t depth, uint16_t wr_idx, uint16_t rd_idx)
 331:lib/tinyusb/src/common/tusb_fifo.c **** {
 332:lib/tinyusb/src/common/tusb_fifo.c ****   // In case we have non-power of two depth we need a further modification
 333:lib/tinyusb/src/common/tusb_fifo.c ****   if (wr_idx >= rd_idx)
 334:lib/tinyusb/src/common/tusb_fifo.c ****   {
 335:lib/tinyusb/src/common/tusb_fifo.c ****     return (uint16_t) (wr_idx - rd_idx);
 336:lib/tinyusb/src/common/tusb_fifo.c ****   } else
 337:lib/tinyusb/src/common/tusb_fifo.c ****   {
 338:lib/tinyusb/src/common/tusb_fifo.c ****     return (uint16_t) (2*depth - (rd_idx - wr_idx));
 339:lib/tinyusb/src/common/tusb_fifo.c ****   }
 340:lib/tinyusb/src/common/tusb_fifo.c **** }
 341:lib/tinyusb/src/common/tusb_fifo.c **** 
 342:lib/tinyusb/src/common/tusb_fifo.c **** // return remaining slot in fifo
 343:lib/tinyusb/src/common/tusb_fifo.c **** TU_ATTR_ALWAYS_INLINE static inline
 344:lib/tinyusb/src/common/tusb_fifo.c **** uint16_t _ff_remaining(uint16_t depth, uint16_t wr_idx, uint16_t rd_idx)
 345:lib/tinyusb/src/common/tusb_fifo.c **** {
 346:lib/tinyusb/src/common/tusb_fifo.c ****   uint16_t const count = _ff_count(depth, wr_idx, rd_idx);
 347:lib/tinyusb/src/common/tusb_fifo.c ****   return (depth > count) ? (depth - count) : 0;
 348:lib/tinyusb/src/common/tusb_fifo.c **** }
 349:lib/tinyusb/src/common/tusb_fifo.c **** 
 350:lib/tinyusb/src/common/tusb_fifo.c **** //--------------------------------------------------------------------+
 351:lib/tinyusb/src/common/tusb_fifo.c **** // Index Helper
 352:lib/tinyusb/src/common/tusb_fifo.c **** //--------------------------------------------------------------------+
 353:lib/tinyusb/src/common/tusb_fifo.c **** 
 354:lib/tinyusb/src/common/tusb_fifo.c **** // Advance an absolute index
 355:lib/tinyusb/src/common/tusb_fifo.c **** // "absolute" index is only in the range of [0..2*depth)
 356:lib/tinyusb/src/common/tusb_fifo.c **** static uint16_t advance_index(uint16_t depth, uint16_t idx, uint16_t offset)
 357:lib/tinyusb/src/common/tusb_fifo.c **** {
 358:lib/tinyusb/src/common/tusb_fifo.c ****   // We limit the index space of p such that a correct wrap around happens
 359:lib/tinyusb/src/common/tusb_fifo.c ****   // Check for a wrap around or if we are in unused index space - This has to be checked first!!
 360:lib/tinyusb/src/common/tusb_fifo.c ****   // We are exploiting the wrap around to the correct index
 361:lib/tinyusb/src/common/tusb_fifo.c ****   uint16_t new_idx = (uint16_t) (idx + offset);
 362:lib/tinyusb/src/common/tusb_fifo.c ****   if ( (idx > new_idx) || (new_idx >= 2*depth) )
 363:lib/tinyusb/src/common/tusb_fifo.c ****   {
 364:lib/tinyusb/src/common/tusb_fifo.c ****     uint16_t const non_used_index_space = (uint16_t) (UINT16_MAX - (2*depth-1));
 365:lib/tinyusb/src/common/tusb_fifo.c ****     new_idx = (uint16_t) (new_idx + non_used_index_space);
 366:lib/tinyusb/src/common/tusb_fifo.c ****   }
 367:lib/tinyusb/src/common/tusb_fifo.c **** 
 368:lib/tinyusb/src/common/tusb_fifo.c ****   return new_idx;
 369:lib/tinyusb/src/common/tusb_fifo.c **** }
 370:lib/tinyusb/src/common/tusb_fifo.c **** 
 371:lib/tinyusb/src/common/tusb_fifo.c **** #if 0 // not used but
 372:lib/tinyusb/src/common/tusb_fifo.c **** // Backward an absolute index
ARM GAS  /tmp/claude-502/ccRWC2Fn.s 			page 8


 373:lib/tinyusb/src/common/tusb_fifo.c **** static uint16_t backward_index(uint16_t depth, uint16_t idx, uint16_t offset)
 374:lib/tinyusb/src/common/tusb_fifo.c **** {
 375:lib/tinyusb/src/common/tusb_fifo.c ****   // We limit the index space of p such that a correct wrap around happens
 376:lib/tinyusb/src/common/tusb_fifo.c ****   // Check for a wrap around or if we are in unused index space - This has to be checked first!!
 377:lib/tinyusb/src/common/tusb_fifo.c ****   // We are exploiting the wrap around to the correct index
 378:lib/tinyusb/src/common/tusb_fifo.c ****   uint16_t new_idx = (uint16_t) (idx - offset);
 379:lib/tinyusb/src/common/tusb_fifo.c ****   if ( (idx < new_idx) || (new_idx >= 2*depth) )
 380:lib/tinyusb/src/common/tusb_fifo.c ****   {
 381:lib/tinyusb/src/common/tusb_fifo.c ****     uint16_t const non_used_index_space = (uint16_t) (UINT16_MAX - (2*depth-1));
 382:lib/tinyusb/src/common/tusb_fifo.c ****     new_idx = (uint16_t) (new_idx - non_used_index_space);
 383:lib/tinyusb/src/common/tusb_fifo.c ****   }
 384:lib/tinyusb/src/common/tusb_fifo.c **** 
 385:lib/tinyusb/src/common/tusb_fifo.c ****   return new_idx;
 386:lib/tinyusb/src/common/tusb_fifo.c **** }
 387:lib/tinyusb/src/common/tusb_fifo.c **** #endif
 388:lib/tinyusb/src/common/tusb_fifo.c **** 
 389:lib/tinyusb/src/common/tusb_fifo.c **** // index to pointer, simply an modulo with minus.
 390:lib/tinyusb/src/common/tusb_fifo.c **** TU_ATTR_ALWAYS_INLINE static inline
 391:lib/tinyusb/src/common/tusb_fifo.c **** uint16_t idx2ptr(uint16_t depth, uint16_t idx)
 392:lib/tinyusb/src/common/tusb_fifo.c **** {
 393:lib/tinyusb/src/common/tusb_fifo.c ****   // Only run at most 3 times since index is limit in the range of [0..2*depth)
 394:lib/tinyusb/src/common/tusb_fifo.c ****   while ( idx >= depth ) idx -= depth;
 395:lib/tinyusb/src/common/tusb_fifo.c ****   return idx;
 396:lib/tinyusb/src/common/tusb_fifo.c **** }
 397:lib/tinyusb/src/common/tusb_fifo.c **** 
 398:lib/tinyusb/src/common/tusb_fifo.c **** // Works on local copies of w
 399:lib/tinyusb/src/common/tusb_fifo.c **** // When an overwritable fifo is overflowed, rd_idx will be re-index so that it forms
 400:lib/tinyusb/src/common/tusb_fifo.c **** // an full fifo i.e _ff_count() = depth
 401:lib/tinyusb/src/common/tusb_fifo.c **** TU_ATTR_ALWAYS_INLINE static inline
 402:lib/tinyusb/src/common/tusb_fifo.c **** uint16_t _ff_correct_read_index(tu_fifo_t* f, uint16_t wr_idx)
 403:lib/tinyusb/src/common/tusb_fifo.c **** {
 404:lib/tinyusb/src/common/tusb_fifo.c ****   uint16_t rd_idx;
 405:lib/tinyusb/src/common/tusb_fifo.c ****   if ( wr_idx >= f->depth )
 406:lib/tinyusb/src/common/tusb_fifo.c ****   {
 407:lib/tinyusb/src/common/tusb_fifo.c ****     rd_idx = wr_idx - f->depth;
 408:lib/tinyusb/src/common/tusb_fifo.c ****   }else
 409:lib/tinyusb/src/common/tusb_fifo.c ****   {
 410:lib/tinyusb/src/common/tusb_fifo.c ****     rd_idx = wr_idx + f->depth;
 411:lib/tinyusb/src/common/tusb_fifo.c ****   }
 412:lib/tinyusb/src/common/tusb_fifo.c **** 
 413:lib/tinyusb/src/common/tusb_fifo.c ****   f->rd_idx = rd_idx;
 414:lib/tinyusb/src/common/tusb_fifo.c **** 
 415:lib/tinyusb/src/common/tusb_fifo.c ****   return rd_idx;
 416:lib/tinyusb/src/common/tusb_fifo.c **** }
 417:lib/tinyusb/src/common/tusb_fifo.c **** 
 418:lib/tinyusb/src/common/tusb_fifo.c **** // Works on local copies of w and r
 419:lib/tinyusb/src/common/tusb_fifo.c **** // Must be protected by mutexes since in case of an overflow read pointer gets modified
 420:lib/tinyusb/src/common/tusb_fifo.c **** static bool _tu_fifo_peek(tu_fifo_t* f, void * p_buffer, uint16_t wr_idx, uint16_t rd_idx)
 421:lib/tinyusb/src/common/tusb_fifo.c **** {
 422:lib/tinyusb/src/common/tusb_fifo.c ****   uint16_t cnt = _ff_count(f->depth, wr_idx, rd_idx);
 423:lib/tinyusb/src/common/tusb_fifo.c **** 
 424:lib/tinyusb/src/common/tusb_fifo.c ****   // nothing to peek
 425:lib/tinyusb/src/common/tusb_fifo.c ****   if ( cnt == 0 ) return false;
 426:lib/tinyusb/src/common/tusb_fifo.c **** 
 427:lib/tinyusb/src/common/tusb_fifo.c ****   // Check overflow and correct if required
 428:lib/tinyusb/src/common/tusb_fifo.c ****   if ( cnt > f->depth )
 429:lib/tinyusb/src/common/tusb_fifo.c ****   {
ARM GAS  /tmp/claude-502/ccRWC2Fn.s 			page 9


 430:lib/tinyusb/src/common/tusb_fifo.c ****     rd_idx = _ff_correct_read_index(f, wr_idx);
 431:lib/tinyusb/src/common/tusb_fifo.c ****     cnt = f->depth;
 432:lib/tinyusb/src/common/tusb_fifo.c ****   }
 433:lib/tinyusb/src/common/tusb_fifo.c **** 
 434:lib/tinyusb/src/common/tusb_fifo.c ****   uint16_t rd_ptr = idx2ptr(f->depth, rd_idx);
 435:lib/tinyusb/src/common/tusb_fifo.c **** 
 436:lib/tinyusb/src/common/tusb_fifo.c ****   // Peek data
 437:lib/tinyusb/src/common/tusb_fifo.c ****   _ff_pull(f, p_buffer, rd_ptr);
 438:lib/tinyusb/src/common/tusb_fifo.c **** 
 439:lib/tinyusb/src/common/tusb_fifo.c ****   return true;
 440:lib/tinyusb/src/common/tusb_fifo.c **** }
 441:lib/tinyusb/src/common/tusb_fifo.c **** 
 442:lib/tinyusb/src/common/tusb_fifo.c **** // Works on local copies of w and r
 443:lib/tinyusb/src/common/tusb_fifo.c **** // Must be protected by mutexes since in case of an overflow read pointer gets modified
 444:lib/tinyusb/src/common/tusb_fifo.c **** static uint16_t _tu_fifo_peek_n(tu_fifo_t* f, void * p_buffer, uint16_t n, uint16_t wr_idx, uint16_
 445:lib/tinyusb/src/common/tusb_fifo.c **** {
  29              		.loc 1 445 1 view -0
  30              		.cfi_startproc
  31              		@ args = 8, pretend = 0, frame = 8
  32              		@ frame_needed = 0, uses_anonymous_args = 0
 446:lib/tinyusb/src/common/tusb_fifo.c ****   uint16_t cnt = _ff_count(f->depth, wr_idx, rd_idx);
  33              		.loc 1 446 3 view .LVU1
 445:lib/tinyusb/src/common/tusb_fifo.c ****   uint16_t cnt = _ff_count(f->depth, wr_idx, rd_idx);
  34              		.loc 1 445 1 is_stmt 0 view .LVU2
  35 0000 2DE9F047 		push	{r4, r5, r6, r7, r8, r9, r10, lr}
  36              		.cfi_def_cfa_offset 32
  37              		.cfi_offset 4, -32
  38              		.cfi_offset 5, -28
  39              		.cfi_offset 6, -24
  40              		.cfi_offset 7, -20
  41              		.cfi_offset 8, -16
  42              		.cfi_offset 9, -12
  43              		.cfi_offset 10, -8
  44              		.cfi_offset 14, -4
  45 0004 82B0     		sub	sp, sp, #8
  46              		.cfi_def_cfa_offset 40
 445:lib/tinyusb/src/common/tusb_fifo.c ****   uint16_t cnt = _ff_count(f->depth, wr_idx, rd_idx);
  47              		.loc 1 445 1 view .LVU3
  48 0006 0546     		mov	r5, r0
  49 0008 0E46     		mov	r6, r1
  50 000a BDF828C0 		ldrh	ip, [sp, #40]
  51              		.loc 1 446 18 view .LVU4
  52 000e B5F804E0 		ldrh	lr, [r5, #4]
  53              	.LVL1:
  54              	.LBB177:
  55              	.LBI177:
 330:lib/tinyusb/src/common/tusb_fifo.c **** {
  56              		.loc 1 330 10 is_stmt 1 view .LVU5
  57              	.LBB178:
 333:lib/tinyusb/src/common/tusb_fifo.c ****   {
  58              		.loc 1 333 3 view .LVU6
 335:lib/tinyusb/src/common/tusb_fifo.c ****   } else
  59              		.loc 1 335 12 is_stmt 0 view .LVU7
  60 0012 A3EB0C04 		sub	r4, r3, ip
 333:lib/tinyusb/src/common/tusb_fifo.c ****   {
  61              		.loc 1 333 6 view .LVU8
  62 0016 6345     		cmp	r3, ip
ARM GAS  /tmp/claude-502/ccRWC2Fn.s 			page 10


 335:lib/tinyusb/src/common/tusb_fifo.c ****   } else
  63              		.loc 1 335 5 is_stmt 1 view .LVU9
 338:lib/tinyusb/src/common/tusb_fifo.c ****   }
  64              		.loc 1 338 5 view .LVU10
  65              	.LVL2:
 338:lib/tinyusb/src/common/tusb_fifo.c ****   }
  66              		.loc 1 338 5 is_stmt 0 view .LVU11
  67              	.LBE178:
  68              	.LBE177:
 445:lib/tinyusb/src/common/tusb_fifo.c ****   uint16_t cnt = _ff_count(f->depth, wr_idx, rd_idx);
  69              		.loc 1 445 1 view .LVU12
  70 0018 9DF82C00 		ldrb	r0, [sp, #44]	@ zero_extendqisi2
  71              	.LVL3:
  72              	.LBB180:
  73              	.LBB179:
 338:lib/tinyusb/src/common/tusb_fifo.c ****   }
  74              		.loc 1 338 12 view .LVU13
  75 001c 38BF     		it	cc
  76 001e 04EB4E04 		addcc	r4, r4, lr, lsl #1
  77 0022 A4B2     		uxth	r4, r4
  78              	.LVL4:
 338:lib/tinyusb/src/common/tusb_fifo.c ****   }
  79              		.loc 1 338 12 view .LVU14
  80              	.LBE179:
  81              	.LBE180:
 447:lib/tinyusb/src/common/tusb_fifo.c **** 
 448:lib/tinyusb/src/common/tusb_fifo.c ****   // nothing to peek
 449:lib/tinyusb/src/common/tusb_fifo.c ****   if ( cnt == 0 ) return 0;
  82              		.loc 1 449 3 is_stmt 1 view .LVU15
  83              		.loc 1 449 6 is_stmt 0 view .LVU16
  84 0024 BCB3     		cbz	r4, .L4
 450:lib/tinyusb/src/common/tusb_fifo.c **** 
 451:lib/tinyusb/src/common/tusb_fifo.c ****   // Check overflow and correct if required
 452:lib/tinyusb/src/common/tusb_fifo.c ****   if ( cnt > f->depth )
  85              		.loc 1 452 3 is_stmt 1 view .LVU17
  86              		.loc 1 452 6 is_stmt 0 view .LVU18
  87 0026 A645     		cmp	lr, r4
  88 0028 39D3     		bcc	.L51
  89              	.LVL5:
  90              	.L5:
 453:lib/tinyusb/src/common/tusb_fifo.c ****   {
 454:lib/tinyusb/src/common/tusb_fifo.c ****     rd_idx = _ff_correct_read_index(f, wr_idx);
 455:lib/tinyusb/src/common/tusb_fifo.c ****     cnt = f->depth;
 456:lib/tinyusb/src/common/tusb_fifo.c ****   }
 457:lib/tinyusb/src/common/tusb_fifo.c **** 
 458:lib/tinyusb/src/common/tusb_fifo.c ****   // Check if we can read something at and after offset - if too less is available we read what rem
 459:lib/tinyusb/src/common/tusb_fifo.c ****   if ( cnt < n ) n = cnt;
  91              		.loc 1 459 3 is_stmt 1 view .LVU19
  92 002a 9442     		cmp	r4, r2
  93 002c 28BF     		it	cs
  94 002e 1446     		movcs	r4, r2
  95              	.LVL6:
 460:lib/tinyusb/src/common/tusb_fifo.c **** 
 461:lib/tinyusb/src/common/tusb_fifo.c ****   uint16_t rd_ptr = idx2ptr(f->depth, rd_idx);
  96              		.loc 1 461 3 view .LVU20
  97              	.LBB181:
  98              	.LBI181:
ARM GAS  /tmp/claude-502/ccRWC2Fn.s 			page 11


 391:lib/tinyusb/src/common/tusb_fifo.c **** {
  99              		.loc 1 391 10 view .LVU21
 100              	.LBB182:
 394:lib/tinyusb/src/common/tusb_fifo.c ****   return idx;
 101              		.loc 1 394 3 view .LVU22
 394:lib/tinyusb/src/common/tusb_fifo.c ****   return idx;
 102              		.loc 1 394 9 view .LVU23
 103 0030 E645     		cmp	lr, ip
 104 0032 05D8     		bhi	.L8
 105              	.LVL7:
 106              	.L9:
 394:lib/tinyusb/src/common/tusb_fifo.c ****   return idx;
 107              		.loc 1 394 26 view .LVU24
 394:lib/tinyusb/src/common/tusb_fifo.c ****   return idx;
 108              		.loc 1 394 30 is_stmt 0 view .LVU25
 109 0034 ACEB0E0C 		sub	ip, ip, lr
 110              	.LVL8:
 394:lib/tinyusb/src/common/tusb_fifo.c ****   return idx;
 111              		.loc 1 394 30 view .LVU26
 112 0038 1FFA8CFC 		uxth	ip, ip
 113              	.LVL9:
 394:lib/tinyusb/src/common/tusb_fifo.c ****   return idx;
 114              		.loc 1 394 9 is_stmt 1 view .LVU27
 115 003c E645     		cmp	lr, ip
 116 003e F9D9     		bls	.L9
 117              	.L8:
 395:lib/tinyusb/src/common/tusb_fifo.c **** }
 118              		.loc 1 395 3 view .LVU28
 119              	.LVL10:
 395:lib/tinyusb/src/common/tusb_fifo.c **** }
 120              		.loc 1 395 3 is_stmt 0 view .LVU29
 121              	.LBE182:
 122              	.LBE181:
 462:lib/tinyusb/src/common/tusb_fifo.c **** 
 463:lib/tinyusb/src/common/tusb_fifo.c ****   // Peek data
 464:lib/tinyusb/src/common/tusb_fifo.c ****   _ff_pull_n(f, p_buffer, n, rd_ptr, copy_mode);
 123              		.loc 1 464 3 is_stmt 1 view .LVU30
 124              	.LBB183:
 125              	.LBI183:
 243:lib/tinyusb/src/common/tusb_fifo.c **** {
 126              		.loc 1 243 13 view .LVU31
 127              	.LBB184:
 245:lib/tinyusb/src/common/tusb_fifo.c ****   uint16_t const wrap_count = n - lin_count; // only used if wrapped
 128              		.loc 1 245 3 view .LVU32
 246:lib/tinyusb/src/common/tusb_fifo.c **** 
 129              		.loc 1 246 18 is_stmt 0 view .LVU33
 130 0040 A4EB0E03 		sub	r3, r4, lr
 248:lib/tinyusb/src/common/tusb_fifo.c ****   uint16_t wrap_bytes = wrap_count * f->item_size;
 131              		.loc 1 248 37 view .LVU34
 132 0044 B5F806A0 		ldrh	r10, [r5, #6]
 245:lib/tinyusb/src/common/tusb_fifo.c ****   uint16_t const wrap_count = n - lin_count; // only used if wrapped
 133              		.loc 1 245 18 view .LVU35
 134 0048 AEEB0C0E 		sub	lr, lr, ip
 252:lib/tinyusb/src/common/tusb_fifo.c **** 
 135              		.loc 1 252 22 view .LVU36
 136 004c D5F80090 		ldr	r9, [r5]
 248:lib/tinyusb/src/common/tusb_fifo.c ****   uint16_t wrap_bytes = wrap_count * f->item_size;
ARM GAS  /tmp/claude-502/ccRWC2Fn.s 			page 12


 137              		.loc 1 248 37 view .LVU37
 138 0050 CAF30E02 		ubfx	r2, r10, #0, #15
 246:lib/tinyusb/src/common/tusb_fifo.c **** 
 139              		.loc 1 246 18 view .LVU38
 140 0054 6344     		add	r3, r3, ip
 254:lib/tinyusb/src/common/tusb_fifo.c ****   {
 141              		.loc 1 254 3 view .LVU39
 142 0056 0128     		cmp	r0, #1
 248:lib/tinyusb/src/common/tusb_fifo.c ****   uint16_t wrap_bytes = wrap_count * f->item_size;
 143              		.loc 1 248 12 view .LVU40
 144 0058 1EFB02F8 		smulbb	r8, lr, r2
 252:lib/tinyusb/src/common/tusb_fifo.c **** 
 145              		.loc 1 252 12 view .LVU41
 146 005c 02FB0C91 		mla	r1, r2, ip, r9
 147              	.LVL11:
 249:lib/tinyusb/src/common/tusb_fifo.c **** 
 148              		.loc 1 249 12 view .LVU42
 149 0060 13FB02F3 		smulbb	r3, r3, r2
 245:lib/tinyusb/src/common/tusb_fifo.c ****   uint16_t const wrap_count = n - lin_count; // only used if wrapped
 150              		.loc 1 245 18 view .LVU43
 151 0064 1FFA8EFE 		uxth	lr, lr
 152              	.LVL12:
 246:lib/tinyusb/src/common/tusb_fifo.c **** 
 153              		.loc 1 246 3 is_stmt 1 view .LVU44
 248:lib/tinyusb/src/common/tusb_fifo.c ****   uint16_t wrap_bytes = wrap_count * f->item_size;
 154              		.loc 1 248 3 view .LVU45
 248:lib/tinyusb/src/common/tusb_fifo.c ****   uint16_t wrap_bytes = wrap_count * f->item_size;
 155              		.loc 1 248 12 is_stmt 0 view .LVU46
 156 0068 1FFA88F8 		uxth	r8, r8
 157              	.LVL13:
 249:lib/tinyusb/src/common/tusb_fifo.c **** 
 158              		.loc 1 249 3 is_stmt 1 view .LVU47
 249:lib/tinyusb/src/common/tusb_fifo.c **** 
 159              		.loc 1 249 12 is_stmt 0 view .LVU48
 160 006c 9FB2     		uxth	r7, r3
 161              	.LVL14:
 252:lib/tinyusb/src/common/tusb_fifo.c **** 
 162              		.loc 1 252 3 is_stmt 1 view .LVU49
 254:lib/tinyusb/src/common/tusb_fifo.c ****   {
 163              		.loc 1 254 3 view .LVU50
 164 006e 21D1     		bne	.L52
 275:lib/tinyusb/src/common/tusb_fifo.c ****       {
 165              		.loc 1 275 7 view .LVU51
 275:lib/tinyusb/src/common/tusb_fifo.c ****       {
 166              		.loc 1 275 10 is_stmt 0 view .LVU52
 167 0070 7445     		cmp	r4, lr
 168 0072 2AD8     		bhi	.L12
 278:lib/tinyusb/src/common/tusb_fifo.c ****       }
 169              		.loc 1 278 9 is_stmt 1 view .LVU53
 170 0074 14FB02F2 		smulbb	r2, r4, r2
 171 0078 90B2     		uxth	r0, r2
 172              	.LVL15:
 173              	.LBB185:
 174              	.LBI185:
 124:lib/tinyusb/src/common/tusb_fifo.c **** {
 175              		.loc 1 124 13 view .LVU54
 176              	.LBB186:
ARM GAS  /tmp/claude-502/ccRWC2Fn.s 			page 13


 126:lib/tinyusb/src/common/tusb_fifo.c **** 
 177              		.loc 1 126 3 view .LVU55
 129:lib/tinyusb/src/common/tusb_fifo.c ****   while(full_words--)
 178              		.loc 1 129 3 view .LVU56
 129:lib/tinyusb/src/common/tusb_fifo.c ****   while(full_words--)
 179              		.loc 1 129 12 is_stmt 0 view .LVU57
 180 007a C2F38D02 		ubfx	r2, r2, #2, #14
 181              	.LVL16:
 130:lib/tinyusb/src/common/tusb_fifo.c ****   {
 182              		.loc 1 130 3 is_stmt 1 view .LVU58
 130:lib/tinyusb/src/common/tusb_fifo.c ****   {
 183              		.loc 1 130 8 view .LVU59
 130:lib/tinyusb/src/common/tusb_fifo.c ****   {
 184              		.loc 1 130 8 is_stmt 0 view .LVU60
 185 007e 002A     		cmp	r2, #0
 186 0080 7AD0     		beq	.L21
 187 0082 01EB8203 		add	r3, r1, r2, lsl #2
 188              	.LVL17:
 189              	.L14:
 132:lib/tinyusb/src/common/tusb_fifo.c ****     ff_buf += 4;
 190              		.loc 1 132 5 is_stmt 1 view .LVU61
 191              	.LBB187:
 192              	.LBI187:
 193              		.file 2 "lib/tinyusb/src/common/tusb_common.h"
   1:lib/tinyusb/src/common/tusb_common.h **** /*
   2:lib/tinyusb/src/common/tusb_common.h ****  * The MIT License (MIT)
   3:lib/tinyusb/src/common/tusb_common.h ****  *
   4:lib/tinyusb/src/common/tusb_common.h ****  * Copyright (c) 2019 Ha Thach (tinyusb.org)
   5:lib/tinyusb/src/common/tusb_common.h ****  *
   6:lib/tinyusb/src/common/tusb_common.h ****  * Permission is hereby granted, free of charge, to any person obtaining a copy
   7:lib/tinyusb/src/common/tusb_common.h ****  * of this software and associated documentation files (the "Software"), to deal
   8:lib/tinyusb/src/common/tusb_common.h ****  * in the Software without restriction, including without limitation the rights
   9:lib/tinyusb/src/common/tusb_common.h ****  * to use, copy, modify, merge, publish, distribute, sublicense, and/or sell
  10:lib/tinyusb/src/common/tusb_common.h ****  * copies of the Software, and to permit persons to whom the Software is
  11:lib/tinyusb/src/common/tusb_common.h ****  * furnished to do so, subject to the following conditions:
  12:lib/tinyusb/src/common/tusb_common.h ****  *
  13:lib/tinyusb/src/common/tusb_common.h ****  * The above copyright notice and this permission notice shall be included in
  14:lib/tinyusb/src/common/tusb_common.h ****  * all copies or substantial portions of the Software.
  15:lib/tinyusb/src/common/tusb_common.h ****  *
  16:lib/tinyusb/src/common/tusb_common.h ****  * THE SOFTWARE IS PROVIDED "AS IS", WITHOUT WARRANTY OF ANY KIND, EXPRESS OR
  17:lib/tinyusb/src/common/tusb_common.h ****  * IMPLIED, INCLUDING BUT NOT LIMITED TO THE WARRANTIES OF MERCHANTABILITY,
  18:lib/tinyusb/src/common/tusb_common.h ****  * FITNESS FOR A PARTICULAR PURPOSE AND NONINFRINGEMENT. IN NO EVENT SHALL THE
  19:lib/tinyusb/src/common/tusb_common.h ****  * AUTHORS OR COPYRIGHT HOLDERS BE LIABLE FOR ANY CLAIM, DAMAGES OR OTHER
  20:lib/tinyusb/src/common/tusb_common.h ****  * LIABILITY, WHETHER IN AN ACTION OF CONTRACT, TORT OR OTHERWISE, ARISING FROM,
  21:lib/tinyusb/src/common/tusb_common.h ****  * OUT OF OR IN CONNECTION WITH THE SOFTWARE OR THE USE OR OTHER DEALINGS IN
  22:lib/tinyusb/src/common/tusb_common.h ****  * THE SOFTWARE.
  23:lib/tinyusb/src/common/tusb_common.h ****  *
  24:lib/tinyusb/src/common/tusb_common.h ****  * This file is part of the TinyUSB stack.
  25:lib/tinyusb/src/common/tusb_common.h ****  */
  26:lib/tinyusb/src/common/tusb_common.h **** 
  27:lib/tinyusb/src/common/tusb_common.h **** #ifndef _TUSB_COMMON_H_
  28:lib/tinyusb/src/common/tusb_common.h **** #define _TUSB_COMMON_H_
  29:lib/tinyusb/src/common/tusb_common.h **** 
  30:lib/tinyusb/src/common/tusb_common.h **** #ifdef __cplusplus
  31:lib/tinyusb/src/common/tusb_common.h ****  extern "C" {
  32:lib/tinyusb/src/common/tusb_common.h **** #endif
  33:lib/tinyusb/src/common/tusb_common.h **** 
ARM GAS  /tmp/claude-502/ccRWC2Fn.s 			page 14


  34:lib/tinyusb/src/common/tusb_common.h **** //--------------------------------------------------------------------+
  35:lib/tinyusb/src/common/tusb_common.h **** // Macros Helper
  36:lib/tinyusb/src/common/tusb_common.h **** //--------------------------------------------------------------------+
  37:lib/tinyusb/src/common/tusb_common.h **** #define TU_ARRAY_SIZE(_arr)   ( sizeof(_arr) / sizeof(_arr[0]) )
  38:lib/tinyusb/src/common/tusb_common.h **** #define TU_MIN(_x, _y)        ( ( (_x) < (_y) ) ? (_x) : (_y) )
  39:lib/tinyusb/src/common/tusb_common.h **** #define TU_MAX(_x, _y)        ( ( (_x) > (_y) ) ? (_x) : (_y) )
  40:lib/tinyusb/src/common/tusb_common.h **** #define TU_DIV_CEIL(n, d)     (((n) + (d) - 1) / (d))
  41:lib/tinyusb/src/common/tusb_common.h **** 
  42:lib/tinyusb/src/common/tusb_common.h **** #define TU_U16(_high, _low)   ((uint16_t) (((_high) << 8) | (_low)))
  43:lib/tinyusb/src/common/tusb_common.h **** #define TU_U16_HIGH(_u16)     ((uint8_t) (((_u16) >> 8) & 0x00ff))
  44:lib/tinyusb/src/common/tusb_common.h **** #define TU_U16_LOW(_u16)      ((uint8_t) ((_u16)       & 0x00ff))
  45:lib/tinyusb/src/common/tusb_common.h **** #define U16_TO_U8S_BE(_u16)   TU_U16_HIGH(_u16), TU_U16_LOW(_u16)
  46:lib/tinyusb/src/common/tusb_common.h **** #define U16_TO_U8S_LE(_u16)   TU_U16_LOW(_u16), TU_U16_HIGH(_u16)
  47:lib/tinyusb/src/common/tusb_common.h **** 
  48:lib/tinyusb/src/common/tusb_common.h **** #define TU_U32_BYTE3(_u32)    ((uint8_t) ((((uint32_t) _u32) >> 24) & 0x000000ff)) // MSB
  49:lib/tinyusb/src/common/tusb_common.h **** #define TU_U32_BYTE2(_u32)    ((uint8_t) ((((uint32_t) _u32) >> 16) & 0x000000ff))
  50:lib/tinyusb/src/common/tusb_common.h **** #define TU_U32_BYTE1(_u32)    ((uint8_t) ((((uint32_t) _u32) >>  8) & 0x000000ff))
  51:lib/tinyusb/src/common/tusb_common.h **** #define TU_U32_BYTE0(_u32)    ((uint8_t) (((uint32_t)  _u32)        & 0x000000ff)) // LSB
  52:lib/tinyusb/src/common/tusb_common.h **** 
  53:lib/tinyusb/src/common/tusb_common.h **** #define U32_TO_U8S_BE(_u32)   TU_U32_BYTE3(_u32), TU_U32_BYTE2(_u32), TU_U32_BYTE1(_u32), TU_U32_BY
  54:lib/tinyusb/src/common/tusb_common.h **** #define U32_TO_U8S_LE(_u32)   TU_U32_BYTE0(_u32), TU_U32_BYTE1(_u32), TU_U32_BYTE2(_u32), TU_U32_BY
  55:lib/tinyusb/src/common/tusb_common.h **** 
  56:lib/tinyusb/src/common/tusb_common.h **** #define TU_BIT(n)             (1UL << (n))
  57:lib/tinyusb/src/common/tusb_common.h **** 
  58:lib/tinyusb/src/common/tusb_common.h **** // Generate a mask with bit from high (31) to low (0) set, e.g TU_GENMASK(3, 0) = 0b1111
  59:lib/tinyusb/src/common/tusb_common.h **** #define TU_GENMASK(h, l)      ( (UINT32_MAX << (l)) & (UINT32_MAX >> (31 - (h))) )
  60:lib/tinyusb/src/common/tusb_common.h **** 
  61:lib/tinyusb/src/common/tusb_common.h **** //--------------------------------------------------------------------+
  62:lib/tinyusb/src/common/tusb_common.h **** // Includes
  63:lib/tinyusb/src/common/tusb_common.h **** //--------------------------------------------------------------------+
  64:lib/tinyusb/src/common/tusb_common.h **** 
  65:lib/tinyusb/src/common/tusb_common.h **** // Standard Headers
  66:lib/tinyusb/src/common/tusb_common.h **** #include <stdbool.h>
  67:lib/tinyusb/src/common/tusb_common.h **** #include <stdint.h>
  68:lib/tinyusb/src/common/tusb_common.h **** #include <inttypes.h>
  69:lib/tinyusb/src/common/tusb_common.h **** #include <stddef.h>
  70:lib/tinyusb/src/common/tusb_common.h **** #include <string.h>
  71:lib/tinyusb/src/common/tusb_common.h **** #include <stdio.h>
  72:lib/tinyusb/src/common/tusb_common.h **** 
  73:lib/tinyusb/src/common/tusb_common.h **** // Tinyusb Common Headers
  74:lib/tinyusb/src/common/tusb_common.h **** #include "tusb_option.h"
  75:lib/tinyusb/src/common/tusb_common.h **** #include "tusb_compiler.h"
  76:lib/tinyusb/src/common/tusb_common.h **** #include "tusb_verify.h"
  77:lib/tinyusb/src/common/tusb_common.h **** #include "tusb_types.h"
  78:lib/tinyusb/src/common/tusb_common.h **** #include "tusb_debug.h"
  79:lib/tinyusb/src/common/tusb_common.h **** 
  80:lib/tinyusb/src/common/tusb_common.h **** //--------------------------------------------------------------------+
  81:lib/tinyusb/src/common/tusb_common.h **** // Optional API implemented by application if needed
  82:lib/tinyusb/src/common/tusb_common.h **** // TODO move to a more ovious place/file
  83:lib/tinyusb/src/common/tusb_common.h **** //--------------------------------------------------------------------+
  84:lib/tinyusb/src/common/tusb_common.h **** 
  85:lib/tinyusb/src/common/tusb_common.h **** // flush data cache
  86:lib/tinyusb/src/common/tusb_common.h **** TU_ATTR_WEAK extern void tusb_app_dcache_flush(uintptr_t addr, uint32_t data_size);
  87:lib/tinyusb/src/common/tusb_common.h **** 
  88:lib/tinyusb/src/common/tusb_common.h **** // invalidate data cache
  89:lib/tinyusb/src/common/tusb_common.h **** TU_ATTR_WEAK extern void tusb_app_dcache_invalidate(uintptr_t addr, uint32_t data_size);
  90:lib/tinyusb/src/common/tusb_common.h **** 
ARM GAS  /tmp/claude-502/ccRWC2Fn.s 			page 15


  91:lib/tinyusb/src/common/tusb_common.h **** // Optional physical <-> virtual address translation
  92:lib/tinyusb/src/common/tusb_common.h **** TU_ATTR_WEAK extern void* tusb_app_virt_to_phys(void *virt_addr);
  93:lib/tinyusb/src/common/tusb_common.h **** TU_ATTR_WEAK extern void* tusb_app_phys_to_virt(void *phys_addr);
  94:lib/tinyusb/src/common/tusb_common.h **** 
  95:lib/tinyusb/src/common/tusb_common.h **** //--------------------------------------------------------------------+
  96:lib/tinyusb/src/common/tusb_common.h **** // Internal Inline Functions
  97:lib/tinyusb/src/common/tusb_common.h **** //--------------------------------------------------------------------+
  98:lib/tinyusb/src/common/tusb_common.h **** 
  99:lib/tinyusb/src/common/tusb_common.h **** //------------- Mem -------------//
 100:lib/tinyusb/src/common/tusb_common.h **** #define tu_memclr(buffer, size)  memset((buffer), 0, (size))
 101:lib/tinyusb/src/common/tusb_common.h **** #define tu_varclr(_var)          tu_memclr(_var, sizeof(*(_var)))
 102:lib/tinyusb/src/common/tusb_common.h **** 
 103:lib/tinyusb/src/common/tusb_common.h **** // This is a backport of memset_s from c11
 104:lib/tinyusb/src/common/tusb_common.h **** TU_ATTR_ALWAYS_INLINE static inline int tu_memset_s(void *dest, size_t destsz, int ch, size_t count
 105:lib/tinyusb/src/common/tusb_common.h ****   // TODO may check if desst and src is not NULL
 106:lib/tinyusb/src/common/tusb_common.h ****   if ( count > destsz ) {
 107:lib/tinyusb/src/common/tusb_common.h ****     return -1;
 108:lib/tinyusb/src/common/tusb_common.h ****   }
 109:lib/tinyusb/src/common/tusb_common.h ****   memset(dest, ch, count);
 110:lib/tinyusb/src/common/tusb_common.h ****   return 0;
 111:lib/tinyusb/src/common/tusb_common.h **** }
 112:lib/tinyusb/src/common/tusb_common.h **** 
 113:lib/tinyusb/src/common/tusb_common.h **** // This is a backport of memcpy_s from c11
 114:lib/tinyusb/src/common/tusb_common.h **** TU_ATTR_ALWAYS_INLINE static inline int tu_memcpy_s(void *dest, size_t destsz, const void *src, siz
 115:lib/tinyusb/src/common/tusb_common.h ****   // TODO may check if desst and src is not NULL
 116:lib/tinyusb/src/common/tusb_common.h ****   if ( count > destsz ) {
 117:lib/tinyusb/src/common/tusb_common.h ****     return -1;
 118:lib/tinyusb/src/common/tusb_common.h ****   }
 119:lib/tinyusb/src/common/tusb_common.h ****   memcpy(dest, src, count);
 120:lib/tinyusb/src/common/tusb_common.h ****   return 0;
 121:lib/tinyusb/src/common/tusb_common.h **** }
 122:lib/tinyusb/src/common/tusb_common.h **** 
 123:lib/tinyusb/src/common/tusb_common.h **** 
 124:lib/tinyusb/src/common/tusb_common.h **** //------------- Bytes -------------//
 125:lib/tinyusb/src/common/tusb_common.h **** TU_ATTR_ALWAYS_INLINE static inline uint32_t tu_u32(uint8_t b3, uint8_t b2, uint8_t b1, uint8_t b0)
 126:lib/tinyusb/src/common/tusb_common.h ****   return ( ((uint32_t) b3) << 24) | ( ((uint32_t) b2) << 16) | ( ((uint32_t) b1) << 8) | b0;
 127:lib/tinyusb/src/common/tusb_common.h **** }
 128:lib/tinyusb/src/common/tusb_common.h **** 
 129:lib/tinyusb/src/common/tusb_common.h **** TU_ATTR_ALWAYS_INLINE static inline uint16_t tu_u16(uint8_t high, uint8_t low) {
 130:lib/tinyusb/src/common/tusb_common.h ****   return (uint16_t) ((((uint16_t) high) << 8) | low);
 131:lib/tinyusb/src/common/tusb_common.h **** }
 132:lib/tinyusb/src/common/tusb_common.h **** 
 133:lib/tinyusb/src/common/tusb_common.h **** TU_ATTR_ALWAYS_INLINE static inline uint8_t tu_u32_byte3(uint32_t ui32) { return TU_U32_BYTE3(ui32)
 134:lib/tinyusb/src/common/tusb_common.h **** TU_ATTR_ALWAYS_INLINE static inline uint8_t tu_u32_byte2(uint32_t ui32) { return TU_U32_BYTE2(ui32)
 135:lib/tinyusb/src/common/tusb_common.h **** TU_ATTR_ALWAYS_INLINE static inline uint8_t tu_u32_byte1(uint32_t ui32) { return TU_U32_BYTE1(ui32)
 136:lib/tinyusb/src/common/tusb_common.h **** TU_ATTR_ALWAYS_INLINE static inline uint8_t tu_u32_byte0(uint32_t ui32) { return TU_U32_BYTE0(ui32)
 137:lib/tinyusb/src/common/tusb_common.h **** 
 138:lib/tinyusb/src/common/tusb_common.h **** TU_ATTR_ALWAYS_INLINE static inline uint16_t tu_u32_high16(uint32_t ui32) { return (uint16_t) (ui32
 139:lib/tinyusb/src/common/tusb_common.h **** TU_ATTR_ALWAYS_INLINE static inline uint16_t tu_u32_low16 (uint32_t ui32) { return (uint16_t) (ui32
 140:lib/tinyusb/src/common/tusb_common.h **** 
 141:lib/tinyusb/src/common/tusb_common.h **** TU_ATTR_ALWAYS_INLINE static inline uint8_t tu_u16_high(uint16_t ui16) { return TU_U16_HIGH(ui16); 
 142:lib/tinyusb/src/common/tusb_common.h **** TU_ATTR_ALWAYS_INLINE static inline uint8_t tu_u16_low (uint16_t ui16) { return TU_U16_LOW(ui16); }
 143:lib/tinyusb/src/common/tusb_common.h **** 
 144:lib/tinyusb/src/common/tusb_common.h **** //------------- Bits -------------//
 145:lib/tinyusb/src/common/tusb_common.h **** TU_ATTR_ALWAYS_INLINE static inline uint32_t tu_bit_set  (uint32_t value, uint8_t pos) { return val
 146:lib/tinyusb/src/common/tusb_common.h **** TU_ATTR_ALWAYS_INLINE static inline uint32_t tu_bit_clear(uint32_t value, uint8_t pos) { return val
 147:lib/tinyusb/src/common/tusb_common.h **** TU_ATTR_ALWAYS_INLINE static inline bool     tu_bit_test (uint32_t value, uint8_t pos) { return (va
ARM GAS  /tmp/claude-502/ccRWC2Fn.s 			page 16


 148:lib/tinyusb/src/common/tusb_common.h **** 
 149:lib/tinyusb/src/common/tusb_common.h **** //------------- Min -------------//
 150:lib/tinyusb/src/common/tusb_common.h **** TU_ATTR_ALWAYS_INLINE static inline uint8_t  tu_min8  (uint8_t  x, uint8_t y ) { return (x < y) ? x
 151:lib/tinyusb/src/common/tusb_common.h **** TU_ATTR_ALWAYS_INLINE static inline uint16_t tu_min16 (uint16_t x, uint16_t y) { return (x < y) ? x
 152:lib/tinyusb/src/common/tusb_common.h **** TU_ATTR_ALWAYS_INLINE static inline uint32_t tu_min32 (uint32_t x, uint32_t y) { return (x < y) ? x
 153:lib/tinyusb/src/common/tusb_common.h **** 
 154:lib/tinyusb/src/common/tusb_common.h **** //------------- Max -------------//
 155:lib/tinyusb/src/common/tusb_common.h **** TU_ATTR_ALWAYS_INLINE static inline uint8_t  tu_max8  (uint8_t  x, uint8_t y ) { return (x > y) ? x
 156:lib/tinyusb/src/common/tusb_common.h **** TU_ATTR_ALWAYS_INLINE static inline uint16_t tu_max16 (uint16_t x, uint16_t y) { return (x > y) ? x
 157:lib/tinyusb/src/common/tusb_common.h **** TU_ATTR_ALWAYS_INLINE static inline uint32_t tu_max32 (uint32_t x, uint32_t y) { return (x > y) ? x
 158:lib/tinyusb/src/common/tusb_common.h **** 
 159:lib/tinyusb/src/common/tusb_common.h **** //------------- Align -------------//
 160:lib/tinyusb/src/common/tusb_common.h **** TU_ATTR_ALWAYS_INLINE static inline uint32_t tu_align(uint32_t value, uint32_t alignment) {
 161:lib/tinyusb/src/common/tusb_common.h ****   return value & ((uint32_t) ~(alignment-1));
 162:lib/tinyusb/src/common/tusb_common.h **** }
 163:lib/tinyusb/src/common/tusb_common.h **** 
 164:lib/tinyusb/src/common/tusb_common.h **** TU_ATTR_ALWAYS_INLINE static inline uint32_t tu_align4  (uint32_t value) { return (value & 0xFFFFFF
 165:lib/tinyusb/src/common/tusb_common.h **** TU_ATTR_ALWAYS_INLINE static inline uint32_t tu_align8  (uint32_t value) { return (value & 0xFFFFFF
 166:lib/tinyusb/src/common/tusb_common.h **** TU_ATTR_ALWAYS_INLINE static inline uint32_t tu_align16 (uint32_t value) { return (value & 0xFFFFFF
 167:lib/tinyusb/src/common/tusb_common.h **** TU_ATTR_ALWAYS_INLINE static inline uint32_t tu_align32 (uint32_t value) { return (value & 0xFFFFFF
 168:lib/tinyusb/src/common/tusb_common.h **** TU_ATTR_ALWAYS_INLINE static inline uint32_t tu_align4k (uint32_t value) { return (value & 0xFFFFF0
 169:lib/tinyusb/src/common/tusb_common.h **** TU_ATTR_ALWAYS_INLINE static inline uint32_t tu_offset4k(uint32_t value) { return (value & 0xFFFUL)
 170:lib/tinyusb/src/common/tusb_common.h **** 
 171:lib/tinyusb/src/common/tusb_common.h **** TU_ATTR_ALWAYS_INLINE static inline bool tu_is_aligned32(uint32_t value) { return (value & 0x1FUL) 
 172:lib/tinyusb/src/common/tusb_common.h **** TU_ATTR_ALWAYS_INLINE static inline bool tu_is_aligned64(uint64_t value) { return (value & 0x3FUL) 
 173:lib/tinyusb/src/common/tusb_common.h **** 
 174:lib/tinyusb/src/common/tusb_common.h **** //------------- Mathematics -------------//
 175:lib/tinyusb/src/common/tusb_common.h **** TU_ATTR_ALWAYS_INLINE static inline uint32_t tu_div_ceil(uint32_t v, uint32_t d) { return (v + d -1
 176:lib/tinyusb/src/common/tusb_common.h **** 
 177:lib/tinyusb/src/common/tusb_common.h **** // log2 of a value is its MSB's position
 178:lib/tinyusb/src/common/tusb_common.h **** // TODO use clz TODO remove
 179:lib/tinyusb/src/common/tusb_common.h **** static inline uint8_t tu_log2(uint32_t value)
 180:lib/tinyusb/src/common/tusb_common.h **** {
 181:lib/tinyusb/src/common/tusb_common.h ****   uint8_t result = 0;
 182:lib/tinyusb/src/common/tusb_common.h ****   while (value >>= 1) { result++; }
 183:lib/tinyusb/src/common/tusb_common.h ****   return result;
 184:lib/tinyusb/src/common/tusb_common.h **** }
 185:lib/tinyusb/src/common/tusb_common.h **** 
 186:lib/tinyusb/src/common/tusb_common.h **** //static inline uint8_t tu_log2(uint32_t value)
 187:lib/tinyusb/src/common/tusb_common.h **** //{
 188:lib/tinyusb/src/common/tusb_common.h **** //   return sizeof(uint32_t) * CHAR_BIT - __builtin_clz(x) - 1;
 189:lib/tinyusb/src/common/tusb_common.h **** //}
 190:lib/tinyusb/src/common/tusb_common.h **** 
 191:lib/tinyusb/src/common/tusb_common.h **** static inline bool tu_is_power_of_two(uint32_t value)
 192:lib/tinyusb/src/common/tusb_common.h **** {
 193:lib/tinyusb/src/common/tusb_common.h ****    return (value != 0) && ((value & (value - 1)) == 0);
 194:lib/tinyusb/src/common/tusb_common.h **** }
 195:lib/tinyusb/src/common/tusb_common.h **** 
 196:lib/tinyusb/src/common/tusb_common.h **** //------------- Unaligned Access -------------//
 197:lib/tinyusb/src/common/tusb_common.h **** #if TUP_ARCH_STRICT_ALIGN
 198:lib/tinyusb/src/common/tusb_common.h **** 
 199:lib/tinyusb/src/common/tusb_common.h **** // Rely on compiler to generate correct code for unaligned access
 200:lib/tinyusb/src/common/tusb_common.h **** typedef struct { uint16_t val; } TU_ATTR_PACKED tu_unaligned_uint16_t;
 201:lib/tinyusb/src/common/tusb_common.h **** typedef struct { uint32_t val; } TU_ATTR_PACKED tu_unaligned_uint32_t;
 202:lib/tinyusb/src/common/tusb_common.h **** 
 203:lib/tinyusb/src/common/tusb_common.h **** TU_ATTR_ALWAYS_INLINE static inline uint32_t tu_unaligned_read32(const void* mem)
 204:lib/tinyusb/src/common/tusb_common.h **** {
ARM GAS  /tmp/claude-502/ccRWC2Fn.s 			page 17


 205:lib/tinyusb/src/common/tusb_common.h ****   tu_unaligned_uint32_t const* ua32 = (tu_unaligned_uint32_t const*) mem;
 206:lib/tinyusb/src/common/tusb_common.h ****   return ua32->val;
 207:lib/tinyusb/src/common/tusb_common.h **** }
 208:lib/tinyusb/src/common/tusb_common.h **** 
 209:lib/tinyusb/src/common/tusb_common.h **** TU_ATTR_ALWAYS_INLINE static inline void tu_unaligned_write32(void* mem, uint32_t value)
 210:lib/tinyusb/src/common/tusb_common.h **** {
 211:lib/tinyusb/src/common/tusb_common.h ****   tu_unaligned_uint32_t* ua32 = (tu_unaligned_uint32_t*) mem;
 212:lib/tinyusb/src/common/tusb_common.h ****   ua32->val = value;
 213:lib/tinyusb/src/common/tusb_common.h **** }
 214:lib/tinyusb/src/common/tusb_common.h **** 
 215:lib/tinyusb/src/common/tusb_common.h **** TU_ATTR_ALWAYS_INLINE static inline uint16_t tu_unaligned_read16(const void* mem)
 216:lib/tinyusb/src/common/tusb_common.h **** {
 217:lib/tinyusb/src/common/tusb_common.h ****   tu_unaligned_uint16_t const* ua16 = (tu_unaligned_uint16_t const*) mem;
 218:lib/tinyusb/src/common/tusb_common.h ****   return ua16->val;
 219:lib/tinyusb/src/common/tusb_common.h **** }
 220:lib/tinyusb/src/common/tusb_common.h **** 
 221:lib/tinyusb/src/common/tusb_common.h **** TU_ATTR_ALWAYS_INLINE static inline void tu_unaligned_write16(void* mem, uint16_t value)
 222:lib/tinyusb/src/common/tusb_common.h **** {
 223:lib/tinyusb/src/common/tusb_common.h ****   tu_unaligned_uint16_t* ua16 = (tu_unaligned_uint16_t*) mem;
 224:lib/tinyusb/src/common/tusb_common.h ****   ua16->val = value;
 225:lib/tinyusb/src/common/tusb_common.h **** }
 226:lib/tinyusb/src/common/tusb_common.h **** 
 227:lib/tinyusb/src/common/tusb_common.h **** #elif TUP_MCU_STRICT_ALIGN
 228:lib/tinyusb/src/common/tusb_common.h **** 
 229:lib/tinyusb/src/common/tusb_common.h **** // MCU such as LPC_IP3511 Highspeed cannot access unaligned memory on USB_RAM although it is ARM M4
 230:lib/tinyusb/src/common/tusb_common.h **** // We have to manually pick up bytes since tu_unaligned_uint32_t will still generate unaligned code
 231:lib/tinyusb/src/common/tusb_common.h **** // NOTE: volatile cast to memory to prevent compiler to optimize and generate unaligned code
 232:lib/tinyusb/src/common/tusb_common.h **** // TODO Big Endian may need minor changes
 233:lib/tinyusb/src/common/tusb_common.h **** TU_ATTR_ALWAYS_INLINE static inline uint32_t tu_unaligned_read32(const void* mem)
 234:lib/tinyusb/src/common/tusb_common.h **** {
 235:lib/tinyusb/src/common/tusb_common.h ****   volatile uint8_t const* buf8 = (uint8_t const*) mem;
 236:lib/tinyusb/src/common/tusb_common.h ****   return tu_u32(buf8[3], buf8[2], buf8[1], buf8[0]);
 237:lib/tinyusb/src/common/tusb_common.h **** }
 238:lib/tinyusb/src/common/tusb_common.h **** 
 239:lib/tinyusb/src/common/tusb_common.h **** TU_ATTR_ALWAYS_INLINE static inline void tu_unaligned_write32(void* mem, uint32_t value)
 240:lib/tinyusb/src/common/tusb_common.h **** {
 241:lib/tinyusb/src/common/tusb_common.h ****   volatile uint8_t* buf8 = (uint8_t*) mem;
 242:lib/tinyusb/src/common/tusb_common.h ****   buf8[0] = tu_u32_byte0(value);
 243:lib/tinyusb/src/common/tusb_common.h ****   buf8[1] = tu_u32_byte1(value);
 244:lib/tinyusb/src/common/tusb_common.h ****   buf8[2] = tu_u32_byte2(value);
 245:lib/tinyusb/src/common/tusb_common.h ****   buf8[3] = tu_u32_byte3(value);
 246:lib/tinyusb/src/common/tusb_common.h **** }
 247:lib/tinyusb/src/common/tusb_common.h **** 
 248:lib/tinyusb/src/common/tusb_common.h **** TU_ATTR_ALWAYS_INLINE static inline uint16_t tu_unaligned_read16(const void* mem)
 249:lib/tinyusb/src/common/tusb_common.h **** {
 250:lib/tinyusb/src/common/tusb_common.h ****   volatile uint8_t const* buf8 = (uint8_t const*) mem;
 251:lib/tinyusb/src/common/tusb_common.h ****   return tu_u16(buf8[1], buf8[0]);
 252:lib/tinyusb/src/common/tusb_common.h **** }
 253:lib/tinyusb/src/common/tusb_common.h **** 
 254:lib/tinyusb/src/common/tusb_common.h **** TU_ATTR_ALWAYS_INLINE static inline void tu_unaligned_write16(void* mem, uint16_t value)
 255:lib/tinyusb/src/common/tusb_common.h **** {
 256:lib/tinyusb/src/common/tusb_common.h ****   volatile uint8_t* buf8 = (uint8_t*) mem;
 257:lib/tinyusb/src/common/tusb_common.h ****   buf8[0] = tu_u16_low(value);
 258:lib/tinyusb/src/common/tusb_common.h ****   buf8[1] = tu_u16_high(value);
 259:lib/tinyusb/src/common/tusb_common.h **** }
 260:lib/tinyusb/src/common/tusb_common.h **** 
 261:lib/tinyusb/src/common/tusb_common.h **** 
ARM GAS  /tmp/claude-502/ccRWC2Fn.s 			page 18


 262:lib/tinyusb/src/common/tusb_common.h **** #else
 263:lib/tinyusb/src/common/tusb_common.h **** 
 264:lib/tinyusb/src/common/tusb_common.h **** // MCU that could access unaligned memory natively
 265:lib/tinyusb/src/common/tusb_common.h **** TU_ATTR_ALWAYS_INLINE static inline uint32_t tu_unaligned_read32(const void *mem) {
 194              		.loc 2 265 46 view .LVU62
 195              	.LBB188:
 266:lib/tinyusb/src/common/tusb_common.h ****   return *((uint32_t const *) mem);
 196              		.loc 2 266 3 view .LVU63
 197              		.loc 2 266 10 is_stmt 0 view .LVU64
 198 0086 51F8042B 		ldr	r2, [r1], #4
 199              	.LVL18:
 200              		.loc 2 266 10 view .LVU65
 201              	.LBE188:
 202              	.LBE187:
 130:lib/tinyusb/src/common/tusb_fifo.c ****   {
 203              		.loc 1 130 8 view .LVU66
 204 008a 8B42     		cmp	r3, r1
 132:lib/tinyusb/src/common/tusb_fifo.c ****     ff_buf += 4;
 205              		.loc 1 132 13 view .LVU67
 206 008c 3260     		str	r2, [r6]
 133:lib/tinyusb/src/common/tusb_fifo.c ****   }
 207              		.loc 1 133 5 is_stmt 1 view .LVU68
 208              	.LVL19:
 130:lib/tinyusb/src/common/tusb_fifo.c ****   {
 209              		.loc 1 130 8 view .LVU69
 210 008e FAD1     		bne	.L14
 211              	.L13:
 137:lib/tinyusb/src/common/tusb_fifo.c ****   if ( bytes_rem )
 212              		.loc 1 137 3 view .LVU70
 213              	.LVL20:
 138:lib/tinyusb/src/common/tusb_fifo.c ****   {
 214              		.loc 1 138 3 view .LVU71
 138:lib/tinyusb/src/common/tusb_fifo.c ****   {
 215              		.loc 1 138 6 is_stmt 0 view .LVU72
 216 0090 10F00302 		ands	r2, r0, #3
 217 0094 67D1     		bne	.L53
 218              	.LVL21:
 219              	.L4:
 138:lib/tinyusb/src/common/tusb_fifo.c ****   {
 220              		.loc 1 138 6 view .LVU73
 221              	.LBE186:
 222              	.LBE185:
 223              	.LBE184:
 224              	.LBE183:
 465:lib/tinyusb/src/common/tusb_fifo.c **** 
 466:lib/tinyusb/src/common/tusb_fifo.c ****   return n;
 467:lib/tinyusb/src/common/tusb_fifo.c **** }
 225              		.loc 1 467 1 view .LVU74
 226 0096 2046     		mov	r0, r4
 227 0098 02B0     		add	sp, sp, #8
 228              		.cfi_remember_state
 229              		.cfi_def_cfa_offset 32
 230              		@ sp needed
 231 009a BDE8F087 		pop	{r4, r5, r6, r7, r8, r9, r10, pc}
 232              	.LVL22:
 233              	.L51:
 234              		.cfi_restore_state
ARM GAS  /tmp/claude-502/ccRWC2Fn.s 			page 19


 454:lib/tinyusb/src/common/tusb_fifo.c ****     cnt = f->depth;
 235              		.loc 1 454 5 is_stmt 1 view .LVU75
 236              	.LBB213:
 237              	.LBI213:
 402:lib/tinyusb/src/common/tusb_fifo.c **** {
 238              		.loc 1 402 10 view .LVU76
 239              	.LBB214:
 404:lib/tinyusb/src/common/tusb_fifo.c ****   if ( wr_idx >= f->depth )
 240              		.loc 1 404 3 view .LVU77
 405:lib/tinyusb/src/common/tusb_fifo.c ****   {
 241              		.loc 1 405 3 view .LVU78
 405:lib/tinyusb/src/common/tusb_fifo.c ****   {
 242              		.loc 1 405 6 is_stmt 0 view .LVU79
 243 009e 9E45     		cmp	lr, r3
 407:lib/tinyusb/src/common/tusb_fifo.c ****   }else
 244              		.loc 1 407 5 is_stmt 1 view .LVU80
 413:lib/tinyusb/src/common/tusb_fifo.c **** 
 245              		.loc 1 413 13 is_stmt 0 view .LVU81
 246 00a0 7446     		mov	r4, lr
 247              	.LVL23:
 407:lib/tinyusb/src/common/tusb_fifo.c ****   }else
 248              		.loc 1 407 12 view .LVU82
 249 00a2 94BF     		ite	ls
 250 00a4 A3EB0E03 		subls	r3, r3, lr
 251              	.LVL24:
 410:lib/tinyusb/src/common/tusb_fifo.c ****   }
 252              		.loc 1 410 5 is_stmt 1 view .LVU83
 410:lib/tinyusb/src/common/tusb_fifo.c ****   }
 253              		.loc 1 410 12 is_stmt 0 view .LVU84
 254 00a8 7344     		addhi	r3, r3, lr
 255 00aa 1FFA83FC 		uxth	ip, r3
 256              	.LVL25:
 413:lib/tinyusb/src/common/tusb_fifo.c **** 
 257              		.loc 1 413 3 is_stmt 1 view .LVU85
 413:lib/tinyusb/src/common/tusb_fifo.c **** 
 258              		.loc 1 413 13 is_stmt 0 view .LVU86
 259 00ae A5F80AC0 		strh	ip, [r5, #10]	@ movhi
 415:lib/tinyusb/src/common/tusb_fifo.c **** }
 260              		.loc 1 415 3 is_stmt 1 view .LVU87
 261              	.LVL26:
 415:lib/tinyusb/src/common/tusb_fifo.c **** }
 262              		.loc 1 415 3 is_stmt 0 view .LVU88
 263              	.LBE214:
 264              	.LBE213:
 455:lib/tinyusb/src/common/tusb_fifo.c ****   }
 265              		.loc 1 455 5 is_stmt 1 view .LVU89
 455:lib/tinyusb/src/common/tusb_fifo.c ****   }
 266              		.loc 1 455 5 is_stmt 0 view .LVU90
 267 00b2 BAE7     		b	.L5
 268              	.LVL27:
 269              	.L52:
 270              	.LBB215:
 271              	.LBB210:
 257:lib/tinyusb/src/common/tusb_fifo.c ****       {
 272              		.loc 1 257 7 is_stmt 1 view .LVU91
 257:lib/tinyusb/src/common/tusb_fifo.c ****       {
 273              		.loc 1 257 10 is_stmt 0 view .LVU92
ARM GAS  /tmp/claude-502/ccRWC2Fn.s 			page 20


 274 00b4 7445     		cmp	r4, lr
 275 00b6 48D8     		bhi	.L11
 260:lib/tinyusb/src/common/tusb_fifo.c ****       }
 276              		.loc 1 260 9 is_stmt 1 view .LVU93
 277 00b8 02FB04F2 		mul	r2, r2, r4
 278 00bc 3046     		mov	r0, r6
 279              	.LVL28:
 260:lib/tinyusb/src/common/tusb_fifo.c ****       }
 280              		.loc 1 260 9 is_stmt 0 view .LVU94
 281 00be FFF7FEFF 		bl	memcpy
 282              	.LVL29:
 260:lib/tinyusb/src/common/tusb_fifo.c ****       }
 283              		.loc 1 260 9 view .LVU95
 284              	.LBE210:
 285              	.LBE215:
 286              		.loc 1 467 1 view .LVU96
 287 00c2 2046     		mov	r0, r4
 288 00c4 02B0     		add	sp, sp, #8
 289              		.cfi_remember_state
 290              		.cfi_def_cfa_offset 32
 291              		@ sp needed
 292 00c6 BDE8F087 		pop	{r4, r5, r6, r7, r8, r9, r10, pc}
 293              	.LVL30:
 294              	.L12:
 295              		.cfi_restore_state
 296              	.LBB216:
 297              	.LBB211:
 298              	.LBB191:
 285:lib/tinyusb/src/common/tusb_fifo.c ****         _ff_pull_const_addr(app_buf, ff_buf, lin_4n_bytes);
 299              		.loc 1 285 9 is_stmt 1 view .LVU97
 285:lib/tinyusb/src/common/tusb_fifo.c ****         _ff_pull_const_addr(app_buf, ff_buf, lin_4n_bytes);
 300              		.loc 1 285 18 is_stmt 0 view .LVU98
 301 00ca 28F00303 		bic	r3, r8, #3
 302 00ce 9DB2     		uxth	r5, r3
 303              	.LVL31:
 286:lib/tinyusb/src/common/tusb_fifo.c ****         ff_buf += lin_4n_bytes;
 304              		.loc 1 286 9 is_stmt 1 view .LVU99
 305              	.LBB192:
 306              	.LBI192:
 124:lib/tinyusb/src/common/tusb_fifo.c **** {
 307              		.loc 1 124 13 view .LVU100
 308              	.LBB193:
 126:lib/tinyusb/src/common/tusb_fifo.c **** 
 309              		.loc 1 126 3 view .LVU101
 129:lib/tinyusb/src/common/tusb_fifo.c ****   while(full_words--)
 310              		.loc 1 129 3 view .LVU102
 130:lib/tinyusb/src/common/tusb_fifo.c ****   {
 311              		.loc 1 130 3 view .LVU103
 130:lib/tinyusb/src/common/tusb_fifo.c ****   {
 312              		.loc 1 130 8 view .LVU104
 130:lib/tinyusb/src/common/tusb_fifo.c ****   {
 313              		.loc 1 130 8 is_stmt 0 view .LVU105
 314 00d0 9808     		lsrs	r0, r3, #2
 315              	.LVL32:
 130:lib/tinyusb/src/common/tusb_fifo.c ****   {
 316              		.loc 1 130 8 view .LVU106
 317 00d2 3BB1     		cbz	r3, .L15
ARM GAS  /tmp/claude-502/ccRWC2Fn.s 			page 21


 318 00d4 01EB8000 		add	r0, r1, r0, lsl #2
 319 00d8 0B46     		mov	r3, r1
 320              	.LVL33:
 321              	.L16:
 132:lib/tinyusb/src/common/tusb_fifo.c ****     ff_buf += 4;
 322              		.loc 1 132 5 is_stmt 1 view .LVU107
 323              	.LBB194:
 324              	.LBI194:
 265:lib/tinyusb/src/common/tusb_common.h ****   return *((uint32_t const *) mem);
 325              		.loc 2 265 46 view .LVU108
 326              	.LBB195:
 327              		.loc 2 266 3 view .LVU109
 328              		.loc 2 266 10 is_stmt 0 view .LVU110
 329 00da 53F8042B 		ldr	r2, [r3], #4
 330              	.LVL34:
 331              		.loc 2 266 10 view .LVU111
 332              	.LBE195:
 333              	.LBE194:
 130:lib/tinyusb/src/common/tusb_fifo.c ****   {
 334              		.loc 1 130 8 view .LVU112
 335 00de 9842     		cmp	r0, r3
 132:lib/tinyusb/src/common/tusb_fifo.c ****     ff_buf += 4;
 336              		.loc 1 132 13 view .LVU113
 337 00e0 3260     		str	r2, [r6]
 133:lib/tinyusb/src/common/tusb_fifo.c ****   }
 338              		.loc 1 133 5 is_stmt 1 view .LVU114
 339              	.LVL35:
 130:lib/tinyusb/src/common/tusb_fifo.c ****   {
 340              		.loc 1 130 8 view .LVU115
 341 00e2 FAD1     		bne	.L16
 342              	.LVL36:
 343              	.L15:
 137:lib/tinyusb/src/common/tusb_fifo.c ****   if ( bytes_rem )
 344              		.loc 1 137 3 view .LVU116
 138:lib/tinyusb/src/common/tusb_fifo.c ****   {
 345              		.loc 1 138 3 view .LVU117
 138:lib/tinyusb/src/common/tusb_fifo.c ****   {
 346              		.loc 1 138 3 is_stmt 0 view .LVU118
 347              	.LBE193:
 348              	.LBE192:
 287:lib/tinyusb/src/common/tusb_fifo.c **** 
 349              		.loc 1 287 9 is_stmt 1 view .LVU119
 290:lib/tinyusb/src/common/tusb_fifo.c ****         if (rem > 0)
 350              		.loc 1 290 9 view .LVU120
 291:lib/tinyusb/src/common/tusb_fifo.c ****         {
 351              		.loc 1 291 9 view .LVU121
 291:lib/tinyusb/src/common/tusb_fifo.c ****         {
 352              		.loc 1 291 12 is_stmt 0 view .LVU122
 353 00e4 18F00308 		ands	r8, r8, #3
 354              	.LVL37:
 291:lib/tinyusb/src/common/tusb_fifo.c ****         {
 355              		.loc 1 291 12 view .LVU123
 356 00e8 19D0     		beq	.L17
 357              	.LBB196:
 293:lib/tinyusb/src/common/tusb_fifo.c **** 
 358              		.loc 1 293 11 is_stmt 1 view .LVU124
 359              	.LVL38:
ARM GAS  /tmp/claude-502/ccRWC2Fn.s 			page 22


 295:lib/tinyusb/src/common/tusb_fifo.c ****           wrap_bytes -= remrem;
 360              		.loc 1 295 11 view .LVU125
 361              	.LBB197:
 362              	.LBI197:
 151:lib/tinyusb/src/common/tusb_common.h **** TU_ATTR_ALWAYS_INLINE static inline uint32_t tu_min32 (uint32_t x, uint32_t y) { return (x < y) ? x
 363              		.loc 2 151 46 view .LVU126
 364              	.LBB198:
 151:lib/tinyusb/src/common/tusb_common.h **** TU_ATTR_ALWAYS_INLINE static inline uint32_t tu_min32 (uint32_t x, uint32_t y) { return (x < y) ? x
 365              		.loc 2 151 82 view .LVU127
 366              	.LBE198:
 367              	.LBE197:
 302:lib/tinyusb/src/common/tusb_fifo.c **** 
 368              		.loc 1 302 34 is_stmt 0 view .LVU128
 369 00ea 2944     		add	r1, r1, r5
 370              	.LVL39:
 295:lib/tinyusb/src/common/tusb_fifo.c ****           wrap_bytes -= remrem;
 371              		.loc 1 295 38 view .LVU129
 372 00ec C8F10405 		rsb	r5, r8, #4
 373              	.LVL40:
 302:lib/tinyusb/src/common/tusb_fifo.c **** 
 374              		.loc 1 302 34 view .LVU130
 375 00f0 4246     		mov	r2, r8
 376 00f2 01A8     		add	r0, sp, #4
 377              	.LBB200:
 378              	.LBB199:
 151:lib/tinyusb/src/common/tusb_common.h **** TU_ATTR_ALWAYS_INLINE static inline uint32_t tu_min32 (uint32_t x, uint32_t y) { return (x < y) ? x
 379              		.loc 2 151 101 view .LVU131
 380 00f4 ADB2     		uxth	r5, r5
 381 00f6 BD42     		cmp	r5, r7
 382 00f8 28BF     		it	cs
 383 00fa 3D46     		movcs	r5, r7
 384              	.LVL41:
 151:lib/tinyusb/src/common/tusb_common.h **** TU_ATTR_ALWAYS_INLINE static inline uint32_t tu_min32 (uint32_t x, uint32_t y) { return (x < y) ? x
 385              		.loc 2 151 101 view .LVU132
 386              	.LBE199:
 387              	.LBE200:
 296:lib/tinyusb/src/common/tusb_fifo.c **** 
 388              		.loc 1 296 22 view .LVU133
 389 00fc 7B1B     		subs	r3, r7, r5
 390 00fe 9FB2     		uxth	r7, r3
 391              	.LVL42:
 298:lib/tinyusb/src/common/tusb_fifo.c ****           uint8_t * dst_u8 = (uint8_t *)&tmp32;
 392              		.loc 1 298 20 view .LVU134
 393 0100 0023     		movs	r3, #0
 394 0102 0193     		str	r3, [sp, #4]
 302:lib/tinyusb/src/common/tusb_fifo.c **** 
 395              		.loc 1 302 34 view .LVU135
 396 0104 FFF7FEFF 		bl	memcpy
 397              	.LVL43:
 302:lib/tinyusb/src/common/tusb_fifo.c **** 
 398              		.loc 1 302 31 view .LVU136
 399 0108 01AB     		add	r3, sp, #4
 295:lib/tinyusb/src/common/tusb_fifo.c ****           wrap_bytes -= remrem;
 400              		.loc 1 295 19 view .LVU137
 401 010a EAB2     		uxtb	r2, r5
 402              	.LVL44:
 296:lib/tinyusb/src/common/tusb_fifo.c **** 
ARM GAS  /tmp/claude-502/ccRWC2Fn.s 			page 23


 403              		.loc 1 296 11 is_stmt 1 view .LVU138
 298:lib/tinyusb/src/common/tusb_fifo.c ****           uint8_t * dst_u8 = (uint8_t *)&tmp32;
 404              		.loc 1 298 11 view .LVU139
 299:lib/tinyusb/src/common/tusb_fifo.c **** 
 405              		.loc 1 299 11 view .LVU140
 302:lib/tinyusb/src/common/tusb_fifo.c **** 
 406              		.loc 1 302 11 view .LVU141
 302:lib/tinyusb/src/common/tusb_fifo.c **** 
 407              		.loc 1 302 16 view .LVU142
 302:lib/tinyusb/src/common/tusb_fifo.c **** 
 408              		.loc 1 302 31 is_stmt 0 view .LVU143
 409 010c 03EB0800 		add	r0, r3, r8
 410              	.LVL45:
 306:lib/tinyusb/src/common/tusb_fifo.c **** 
 411              		.loc 1 306 16 is_stmt 1 view .LVU144
 306:lib/tinyusb/src/common/tusb_fifo.c **** 
 412              		.loc 1 306 16 is_stmt 0 view .LVU145
 413 0110 1DB1     		cbz	r5, .L18
 306:lib/tinyusb/src/common/tusb_fifo.c **** 
 414              		.loc 1 306 37 view .LVU146
 415 0112 4946     		mov	r1, r9
 306:lib/tinyusb/src/common/tusb_fifo.c **** 
 416              		.loc 1 306 46 view .LVU147
 417 0114 9144     		add	r9, r9, r2
 418              	.LVL46:
 306:lib/tinyusb/src/common/tusb_fifo.c **** 
 419              		.loc 1 306 37 view .LVU148
 420 0116 FFF7FEFF 		bl	memcpy
 421              	.LVL47:
 422              	.L18:
 308:lib/tinyusb/src/common/tusb_fifo.c ****         }
 423              		.loc 1 308 11 is_stmt 1 view .LVU149
 308:lib/tinyusb/src/common/tusb_fifo.c ****         }
 424              		.loc 1 308 19 is_stmt 0 view .LVU150
 425 011a 019B     		ldr	r3, [sp, #4]
 426 011c 3360     		str	r3, [r6]
 427              	.LVL48:
 428              	.L17:
 308:lib/tinyusb/src/common/tusb_fifo.c ****         }
 429              		.loc 1 308 19 view .LVU151
 430              	.LBE196:
 316:lib/tinyusb/src/common/tusb_fifo.c ****       }
 431              		.loc 1 316 9 is_stmt 1 view .LVU152
 316:lib/tinyusb/src/common/tusb_fifo.c ****       }
 432              		.loc 1 316 12 is_stmt 0 view .LVU153
 433 011e 002F     		cmp	r7, #0
 434 0120 B9D0     		beq	.L4
 316:lib/tinyusb/src/common/tusb_fifo.c ****       }
 435              		.loc 1 316 29 is_stmt 1 view .LVU154
 436              	.LVL49:
 437              	.LBB201:
 438              	.LBI201:
 124:lib/tinyusb/src/common/tusb_fifo.c **** {
 439              		.loc 1 124 13 view .LVU155
 440              	.LBB202:
 126:lib/tinyusb/src/common/tusb_fifo.c **** 
 441              		.loc 1 126 3 view .LVU156
ARM GAS  /tmp/claude-502/ccRWC2Fn.s 			page 24


 129:lib/tinyusb/src/common/tusb_fifo.c ****   while(full_words--)
 442              		.loc 1 129 3 view .LVU157
 130:lib/tinyusb/src/common/tusb_fifo.c ****   {
 443              		.loc 1 130 3 view .LVU158
 130:lib/tinyusb/src/common/tusb_fifo.c ****   {
 444              		.loc 1 130 8 view .LVU159
 130:lib/tinyusb/src/common/tusb_fifo.c ****   {
 445              		.loc 1 130 8 is_stmt 0 view .LVU160
 446 0122 B908     		lsrs	r1, r7, #2
 447 0124 2AD0     		beq	.L22
 448 0126 09EB8101 		add	r1, r9, r1, lsl #2
 449              	.LVL50:
 450              	.L20:
 132:lib/tinyusb/src/common/tusb_fifo.c ****     ff_buf += 4;
 451              		.loc 1 132 5 is_stmt 1 view .LVU161
 452              	.LBB203:
 453              	.LBI203:
 265:lib/tinyusb/src/common/tusb_common.h ****   return *((uint32_t const *) mem);
 454              		.loc 2 265 46 view .LVU162
 455              	.LBB204:
 456              		.loc 2 266 3 view .LVU163
 457              		.loc 2 266 10 is_stmt 0 view .LVU164
 458 012a 59F8043B 		ldr	r3, [r9], #4
 459              	.LVL51:
 460              		.loc 2 266 10 view .LVU165
 461              	.LBE204:
 462              	.LBE203:
 130:lib/tinyusb/src/common/tusb_fifo.c ****   {
 463              		.loc 1 130 8 view .LVU166
 464 012e 8945     		cmp	r9, r1
 132:lib/tinyusb/src/common/tusb_fifo.c ****     ff_buf += 4;
 465              		.loc 1 132 13 view .LVU167
 466 0130 3360     		str	r3, [r6]
 133:lib/tinyusb/src/common/tusb_fifo.c ****   }
 467              		.loc 1 133 5 is_stmt 1 view .LVU168
 468              	.LVL52:
 130:lib/tinyusb/src/common/tusb_fifo.c ****   {
 469              		.loc 1 130 8 view .LVU169
 470 0132 FAD1     		bne	.L20
 471              	.L19:
 137:lib/tinyusb/src/common/tusb_fifo.c ****   if ( bytes_rem )
 472              		.loc 1 137 3 view .LVU170
 473              	.LVL53:
 138:lib/tinyusb/src/common/tusb_fifo.c ****   {
 474              		.loc 1 138 3 view .LVU171
 138:lib/tinyusb/src/common/tusb_fifo.c ****   {
 475              		.loc 1 138 6 is_stmt 0 view .LVU172
 476 0134 17F00302 		ands	r2, r7, #3
 477 0138 ADD0     		beq	.L4
 478              	.LBB205:
 140:lib/tinyusb/src/common/tusb_fifo.c ****     memcpy(&tmp32, ff_buf, bytes_rem);
 479              		.loc 1 140 5 is_stmt 1 view .LVU173
 140:lib/tinyusb/src/common/tusb_fifo.c ****     memcpy(&tmp32, ff_buf, bytes_rem);
 480              		.loc 1 140 14 is_stmt 0 view .LVU174
 481 013a 0023     		movs	r3, #0
 141:lib/tinyusb/src/common/tusb_fifo.c **** 
 482              		.loc 1 141 5 view .LVU175
ARM GAS  /tmp/claude-502/ccRWC2Fn.s 			page 25


 483 013c 01A8     		add	r0, sp, #4
 140:lib/tinyusb/src/common/tusb_fifo.c ****     memcpy(&tmp32, ff_buf, bytes_rem);
 484              		.loc 1 140 14 view .LVU176
 485 013e 0193     		str	r3, [sp, #4]
 141:lib/tinyusb/src/common/tusb_fifo.c **** 
 486              		.loc 1 141 5 is_stmt 1 view .LVU177
 487 0140 FFF7FEFF 		bl	memcpy
 488              	.LVL54:
 143:lib/tinyusb/src/common/tusb_fifo.c ****   }
 489              		.loc 1 143 5 view .LVU178
 143:lib/tinyusb/src/common/tusb_fifo.c ****   }
 490              		.loc 1 143 13 is_stmt 0 view .LVU179
 491 0144 019B     		ldr	r3, [sp, #4]
 492 0146 3360     		str	r3, [r6]
 493              	.LVL55:
 143:lib/tinyusb/src/common/tusb_fifo.c ****   }
 494              		.loc 1 143 13 view .LVU180
 495 0148 A5E7     		b	.L4
 496              	.LVL56:
 497              	.L11:
 143:lib/tinyusb/src/common/tusb_fifo.c ****   }
 498              		.loc 1 143 13 view .LVU181
 499              	.LBE205:
 500              	.LBE202:
 501              	.LBE201:
 502              	.LBE191:
 267:lib/tinyusb/src/common/tusb_fifo.c **** 
 503              		.loc 1 267 9 is_stmt 1 view .LVU182
 504 014a 4246     		mov	r2, r8
 505 014c 3046     		mov	r0, r6
 506              	.LVL57:
 267:lib/tinyusb/src/common/tusb_fifo.c **** 
 507              		.loc 1 267 9 is_stmt 0 view .LVU183
 508 014e FFF7FEFF 		bl	memcpy
 509              	.LVL58:
 270:lib/tinyusb/src/common/tusb_fifo.c ****       }
 510              		.loc 1 270 9 is_stmt 1 view .LVU184
 511 0152 3A46     		mov	r2, r7
 512 0154 2968     		ldr	r1, [r5]
 513 0156 06EB0800 		add	r0, r6, r8
 514 015a FFF7FEFF 		bl	memcpy
 515              	.LVL59:
 270:lib/tinyusb/src/common/tusb_fifo.c ****       }
 516              		.loc 1 270 9 is_stmt 0 view .LVU185
 517              	.LBE211:
 518              	.LBE216:
 519              		.loc 1 467 1 view .LVU186
 520 015e 2046     		mov	r0, r4
 521 0160 02B0     		add	sp, sp, #8
 522              		.cfi_remember_state
 523              		.cfi_def_cfa_offset 32
 524              		@ sp needed
 525 0162 BDE8F087 		pop	{r4, r5, r6, r7, r8, r9, r10, pc}
 526              	.LVL60:
 527              	.L53:
 528              		.cfi_restore_state
 529              	.LBB217:
ARM GAS  /tmp/claude-502/ccRWC2Fn.s 			page 26


 530              	.LBB212:
 531              	.LBB208:
 532              	.LBB190:
 533              	.LBB189:
 140:lib/tinyusb/src/common/tusb_fifo.c ****     memcpy(&tmp32, ff_buf, bytes_rem);
 534              		.loc 1 140 5 is_stmt 1 view .LVU187
 140:lib/tinyusb/src/common/tusb_fifo.c ****     memcpy(&tmp32, ff_buf, bytes_rem);
 535              		.loc 1 140 14 is_stmt 0 view .LVU188
 536 0166 0020     		movs	r0, #0
 537              	.LVL61:
 141:lib/tinyusb/src/common/tusb_fifo.c **** 
 538              		.loc 1 141 5 view .LVU189
 539 0168 1946     		mov	r1, r3
 540              	.LVL62:
 140:lib/tinyusb/src/common/tusb_fifo.c ****     memcpy(&tmp32, ff_buf, bytes_rem);
 541              		.loc 1 140 14 view .LVU190
 542 016a 0190     		str	r0, [sp, #4]
 141:lib/tinyusb/src/common/tusb_fifo.c **** 
 543              		.loc 1 141 5 is_stmt 1 view .LVU191
 544 016c 01A8     		add	r0, sp, #4
 545 016e FFF7FEFF 		bl	memcpy
 546              	.LVL63:
 143:lib/tinyusb/src/common/tusb_fifo.c ****   }
 547              		.loc 1 143 5 view .LVU192
 143:lib/tinyusb/src/common/tusb_fifo.c ****   }
 548              		.loc 1 143 13 is_stmt 0 view .LVU193
 549 0172 019B     		ldr	r3, [sp, #4]
 550 0174 3360     		str	r3, [r6]
 551              	.LVL64:
 143:lib/tinyusb/src/common/tusb_fifo.c ****   }
 552              		.loc 1 143 13 view .LVU194
 553 0176 8EE7     		b	.L4
 554              	.LVL65:
 555              	.L21:
 143:lib/tinyusb/src/common/tusb_fifo.c ****   }
 556              		.loc 1 143 13 view .LVU195
 557              	.LBE189:
 130:lib/tinyusb/src/common/tusb_fifo.c ****   {
 558              		.loc 1 130 8 view .LVU196
 559 0178 0B46     		mov	r3, r1
 560 017a 89E7     		b	.L13
 561              	.LVL66:
 562              	.L22:
 130:lib/tinyusb/src/common/tusb_fifo.c ****   {
 563              		.loc 1 130 8 view .LVU197
 564              	.LBE190:
 565              	.LBE208:
 566              	.LBB209:
 567              	.LBB207:
 568              	.LBB206:
 569 017c 4946     		mov	r1, r9
 570 017e D9E7     		b	.L19
 571              	.LBE206:
 572              	.LBE207:
 573              	.LBE209:
 574              	.LBE212:
 575              	.LBE217:
ARM GAS  /tmp/claude-502/ccRWC2Fn.s 			page 27


 576              		.cfi_endproc
 577              	.LFE393:
 579              		.section	.text._tu_fifo_write_n.part.0,"ax",%progbits
 580              		.align	1
 581              		.p2align 2,,3
 582              		.syntax unified
 583              		.thumb
 584              		.thumb_func
 586              	_tu_fifo_write_n.part.0:
 587              	.LVL67:
 588              	.LFB416:
 468:lib/tinyusb/src/common/tusb_fifo.c **** 
 469:lib/tinyusb/src/common/tusb_fifo.c **** static uint16_t _tu_fifo_write_n(tu_fifo_t* f, const void * data, uint16_t n, tu_fifo_copy_mode_t c
 589              		.loc 1 469 17 is_stmt 1 view -0
 590              		.cfi_startproc
 591              		@ args = 0, pretend = 0, frame = 8
 592              		@ frame_needed = 0, uses_anonymous_args = 0
 593              		.loc 1 469 17 is_stmt 0 view .LVU199
 594 0000 2DE9F04F 		push	{r4, r5, r6, r7, r8, r9, r10, fp, lr}
 595              		.cfi_def_cfa_offset 36
 596              		.cfi_offset 4, -36
 597              		.cfi_offset 5, -32
 598              		.cfi_offset 6, -28
 599              		.cfi_offset 7, -24
 600              		.cfi_offset 8, -20
 601              		.cfi_offset 9, -16
 602              		.cfi_offset 10, -12
 603              		.cfi_offset 11, -8
 604              		.cfi_offset 14, -4
 605 0004 0F46     		mov	r7, r1
 470:lib/tinyusb/src/common/tusb_fifo.c **** {
 471:lib/tinyusb/src/common/tusb_fifo.c ****   if ( n == 0 ) return 0;
 472:lib/tinyusb/src/common/tusb_fifo.c **** 
 473:lib/tinyusb/src/common/tusb_fifo.c ****   _ff_lock(f->mutex_wr);
 606              		.loc 1 473 24 is_stmt 1 view .LVU200
 474:lib/tinyusb/src/common/tusb_fifo.c **** 
 475:lib/tinyusb/src/common/tusb_fifo.c ****   uint16_t wr_idx = f->wr_idx;
 607              		.loc 1 475 3 view .LVU201
 476:lib/tinyusb/src/common/tusb_fifo.c ****   uint16_t rd_idx = f->rd_idx;
 477:lib/tinyusb/src/common/tusb_fifo.c **** 
 478:lib/tinyusb/src/common/tusb_fifo.c ****   uint8_t const* buf8 = (uint8_t const*) data;
 479:lib/tinyusb/src/common/tusb_fifo.c **** 
 480:lib/tinyusb/src/common/tusb_fifo.c ****   TU_LOG(TU_FIFO_DBG, "rd = %3u, wr = %3u, count = %3u, remain = %3u, n = %3u:  ",
 481:lib/tinyusb/src/common/tusb_fifo.c ****                        rd_idx, wr_idx, _ff_count(f->depth, wr_idx, rd_idx), _ff_remaining(f->depth,
 482:lib/tinyusb/src/common/tusb_fifo.c **** 
 483:lib/tinyusb/src/common/tusb_fifo.c ****   if ( !f->overwritable )
 608              		.loc 1 483 10 is_stmt 0 view .LVU202
 609 0006 C179     		ldrb	r1, [r0, #7]	@ zero_extendqisi2
 610              	.LVL68:
 475:lib/tinyusb/src/common/tusb_fifo.c ****   uint16_t rd_idx = f->rd_idx;
 611              		.loc 1 475 12 view .LVU203
 612 0008 0589     		ldrh	r5, [r0, #8]
 469:lib/tinyusb/src/common/tusb_fifo.c **** {
 613              		.loc 1 469 17 view .LVU204
 614 000a 83B0     		sub	sp, sp, #12
 615              		.cfi_def_cfa_offset 48
 476:lib/tinyusb/src/common/tusb_fifo.c ****   uint16_t rd_idx = f->rd_idx;
ARM GAS  /tmp/claude-502/ccRWC2Fn.s 			page 28


 616              		.loc 1 476 12 view .LVU205
 617 000c B0F80AC0 		ldrh	ip, [r0, #10]
 618              		.loc 1 483 6 view .LVU206
 619 0010 C909     		lsrs	r1, r1, #7
 469:lib/tinyusb/src/common/tusb_fifo.c **** {
 620              		.loc 1 469 17 view .LVU207
 621 0012 0446     		mov	r4, r0
 475:lib/tinyusb/src/common/tusb_fifo.c ****   uint16_t rd_idx = f->rd_idx;
 622              		.loc 1 475 12 view .LVU208
 623 0014 ADB2     		uxth	r5, r5
 624              	.LVL69:
 476:lib/tinyusb/src/common/tusb_fifo.c ****   uint16_t rd_idx = f->rd_idx;
 625              		.loc 1 476 3 is_stmt 1 view .LVU209
 476:lib/tinyusb/src/common/tusb_fifo.c ****   uint16_t rd_idx = f->rd_idx;
 626              		.loc 1 476 12 is_stmt 0 view .LVU210
 627 0016 1FFA8CFC 		uxth	ip, ip
 628              	.LVL70:
 478:lib/tinyusb/src/common/tusb_fifo.c **** 
 629              		.loc 1 478 3 is_stmt 1 view .LVU211
 481:lib/tinyusb/src/common/tusb_fifo.c **** 
 630              		.loc 1 481 120 view .LVU212
 631              		.loc 1 483 3 view .LVU213
 632              	.LBB258:
 484:lib/tinyusb/src/common/tusb_fifo.c ****   {
 485:lib/tinyusb/src/common/tusb_fifo.c ****     // limit up to full
 486:lib/tinyusb/src/common/tusb_fifo.c ****     uint16_t const remain = _ff_remaining(f->depth, wr_idx, rd_idx);
 633              		.loc 1 486 29 is_stmt 0 view .LVU214
 634 001a B0F804E0 		ldrh	lr, [r0, #4]
 635              	.LBE258:
 483:lib/tinyusb/src/common/tusb_fifo.c ****   {
 636              		.loc 1 483 6 view .LVU215
 637 001e 49D1     		bne	.L55
 638              	.LBB271:
 639              		.loc 1 486 5 is_stmt 1 view .LVU216
 640              	.LVL71:
 641              	.LBB259:
 642              	.LBI259:
 344:lib/tinyusb/src/common/tusb_fifo.c **** {
 643              		.loc 1 344 10 view .LVU217
 644              	.LBB260:
 346:lib/tinyusb/src/common/tusb_fifo.c ****   return (depth > count) ? (depth - count) : 0;
 645              		.loc 1 346 3 view .LVU218
 646              	.LBB261:
 647              	.LBI261:
 330:lib/tinyusb/src/common/tusb_fifo.c **** {
 648              		.loc 1 330 10 view .LVU219
 649              	.LBB262:
 333:lib/tinyusb/src/common/tusb_fifo.c ****   {
 650              		.loc 1 333 3 view .LVU220
 333:lib/tinyusb/src/common/tusb_fifo.c ****   {
 651              		.loc 1 333 6 is_stmt 0 view .LVU221
 652 0020 6545     		cmp	r5, ip
 653 0022 6CD2     		bcs	.L108
 338:lib/tinyusb/src/common/tusb_fifo.c ****   }
 654              		.loc 1 338 5 is_stmt 1 view .LVU222
 338:lib/tinyusb/src/common/tusb_fifo.c ****   }
 655              		.loc 1 338 12 is_stmt 0 view .LVU223
ARM GAS  /tmp/claude-502/ccRWC2Fn.s 			page 29


 656 0024 CCEB4E0C 		rsb	ip, ip, lr, lsl #1
 657              	.LVL72:
 338:lib/tinyusb/src/common/tusb_fifo.c ****   }
 658              		.loc 1 338 12 view .LVU224
 659 0028 AC44     		add	ip, ip, r5
 660 002a 1FFA8CFC 		uxth	ip, ip
 661              	.LVL73:
 338:lib/tinyusb/src/common/tusb_fifo.c ****   }
 662              		.loc 1 338 12 view .LVU225
 663              	.LBE262:
 664              	.LBE261:
 347:lib/tinyusb/src/common/tusb_fifo.c **** }
 665              		.loc 1 347 3 is_stmt 1 view .LVU226
 347:lib/tinyusb/src/common/tusb_fifo.c **** }
 666              		.loc 1 347 44 is_stmt 0 view .LVU227
 667 002e E645     		cmp	lr, ip
 668 0030 6BD9     		bls	.L84
 669              	.L110:
 347:lib/tinyusb/src/common/tusb_fifo.c **** }
 670              		.loc 1 347 44 view .LVU228
 671 0032 AEEB0C06 		sub	r6, lr, ip
 672              	.LBE260:
 673              	.LBE259:
 674              	.LBB266:
 675              	.LBB267:
 151:lib/tinyusb/src/common/tusb_common.h **** TU_ATTR_ALWAYS_INLINE static inline uint32_t tu_min32 (uint32_t x, uint32_t y) { return (x < y) ? x
 676              		.loc 2 151 101 view .LVU229
 677 0036 B6B2     		uxth	r6, r6
 678 0038 9642     		cmp	r6, r2
 679 003a 28BF     		it	cs
 680 003c 1646     		movcs	r6, r2
 681              	.LVL74:
 151:lib/tinyusb/src/common/tusb_common.h **** TU_ATTR_ALWAYS_INLINE static inline uint32_t tu_min32 (uint32_t x, uint32_t y) { return (x < y) ? x
 682              		.loc 2 151 101 view .LVU230
 683              	.LBE267:
 684              	.LBE266:
 487:lib/tinyusb/src/common/tusb_fifo.c ****     n = tu_min16(n, remain);
 685              		.loc 1 487 5 is_stmt 1 view .LVU231
 686              	.LBB269:
 687              	.LBI266:
 151:lib/tinyusb/src/common/tusb_common.h **** TU_ATTR_ALWAYS_INLINE static inline uint32_t tu_min32 (uint32_t x, uint32_t y) { return (x < y) ? x
 688              		.loc 2 151 46 view .LVU232
 689              	.LBB268:
 151:lib/tinyusb/src/common/tusb_common.h **** TU_ATTR_ALWAYS_INLINE static inline uint32_t tu_min32 (uint32_t x, uint32_t y) { return (x < y) ? x
 690              		.loc 2 151 82 view .LVU233
 691              	.L59:
 151:lib/tinyusb/src/common/tusb_common.h **** TU_ATTR_ALWAYS_INLINE static inline uint32_t tu_min32 (uint32_t x, uint32_t y) { return (x < y) ? x
 692              		.loc 2 151 82 is_stmt 0 view .LVU234
 693              	.LBE268:
 694              	.LBE269:
 695              	.LBE271:
 696              	.LBB272:
 488:lib/tinyusb/src/common/tusb_fifo.c ****   }
 489:lib/tinyusb/src/common/tusb_fifo.c ****   else
 490:lib/tinyusb/src/common/tusb_fifo.c ****   {
 491:lib/tinyusb/src/common/tusb_fifo.c ****     // In over-writable mode, fifo_write() is allowed even when fifo is full. In such case,
 492:lib/tinyusb/src/common/tusb_fifo.c ****     // oldest data in fifo i.e at read pointer data will be overwritten
ARM GAS  /tmp/claude-502/ccRWC2Fn.s 			page 30


 493:lib/tinyusb/src/common/tusb_fifo.c ****     // Note: we can modify read buffer contents but we must not modify the read index itself within
 494:lib/tinyusb/src/common/tusb_fifo.c ****     // Since it would end up in a race condition with read functions!
 495:lib/tinyusb/src/common/tusb_fifo.c ****     if ( n >= f->depth )
 496:lib/tinyusb/src/common/tusb_fifo.c ****     {
 497:lib/tinyusb/src/common/tusb_fifo.c ****       // Only copy last part
 498:lib/tinyusb/src/common/tusb_fifo.c ****       if ( copy_mode == TU_FIFO_COPY_INC )
 499:lib/tinyusb/src/common/tusb_fifo.c ****       {
 500:lib/tinyusb/src/common/tusb_fifo.c ****         buf8 += (n - f->depth) * f->item_size;
 501:lib/tinyusb/src/common/tusb_fifo.c ****       }else
 502:lib/tinyusb/src/common/tusb_fifo.c ****       {
 503:lib/tinyusb/src/common/tusb_fifo.c ****         // TODO should read from hw fifo to discard data, however reading an odd number could
 504:lib/tinyusb/src/common/tusb_fifo.c ****         // accidentally discard data.
 505:lib/tinyusb/src/common/tusb_fifo.c ****       }
 506:lib/tinyusb/src/common/tusb_fifo.c **** 
 507:lib/tinyusb/src/common/tusb_fifo.c ****       n = f->depth;
 508:lib/tinyusb/src/common/tusb_fifo.c **** 
 509:lib/tinyusb/src/common/tusb_fifo.c ****       // We start writing at the read pointer's position since we fill the whole buffer
 510:lib/tinyusb/src/common/tusb_fifo.c ****       wr_idx = rd_idx;
 511:lib/tinyusb/src/common/tusb_fifo.c ****     }
 512:lib/tinyusb/src/common/tusb_fifo.c ****     else
 513:lib/tinyusb/src/common/tusb_fifo.c ****     {
 514:lib/tinyusb/src/common/tusb_fifo.c ****       uint16_t const overflowable_count = _ff_count(f->depth, wr_idx, rd_idx);
 515:lib/tinyusb/src/common/tusb_fifo.c ****       if (overflowable_count + n >= 2*f->depth)
 516:lib/tinyusb/src/common/tusb_fifo.c ****       {
 517:lib/tinyusb/src/common/tusb_fifo.c ****         // Double overflowed
 518:lib/tinyusb/src/common/tusb_fifo.c ****         // Index is bigger than the allowed range [0,2*depth)
 519:lib/tinyusb/src/common/tusb_fifo.c ****         // re-position write index to have a full fifo after pushed
 520:lib/tinyusb/src/common/tusb_fifo.c ****         wr_idx = advance_index(f->depth, rd_idx, f->depth - n);
 521:lib/tinyusb/src/common/tusb_fifo.c **** 
 522:lib/tinyusb/src/common/tusb_fifo.c ****         // TODO we should also shift out n bytes from read index since we avoid changing rd index !
 523:lib/tinyusb/src/common/tusb_fifo.c ****         // However memmove() is expensive due to actual copying + wrapping consideration.
 524:lib/tinyusb/src/common/tusb_fifo.c ****         // Also race condition could happen anyway if read() is invoke while moving result in corru
 525:lib/tinyusb/src/common/tusb_fifo.c ****         // currently deliberately not implemented --> result in incorrect data read back
 526:lib/tinyusb/src/common/tusb_fifo.c ****       }else
 527:lib/tinyusb/src/common/tusb_fifo.c ****       {
 528:lib/tinyusb/src/common/tusb_fifo.c ****         // normal + single overflowed:
 529:lib/tinyusb/src/common/tusb_fifo.c ****         // Index is in the range of [0,2*depth) and thus detect and recoverable. Recovering is hand
 530:lib/tinyusb/src/common/tusb_fifo.c ****         // Therefore we just increase write index
 531:lib/tinyusb/src/common/tusb_fifo.c ****         // we will correct (re-position) read index later on in fifo_read() function
 532:lib/tinyusb/src/common/tusb_fifo.c ****       }
 697              		.loc 1 532 7 is_stmt 1 view .LVU235
 698              	.LBE272:
 533:lib/tinyusb/src/common/tusb_fifo.c ****     }
 534:lib/tinyusb/src/common/tusb_fifo.c ****   }
 535:lib/tinyusb/src/common/tusb_fifo.c **** 
 536:lib/tinyusb/src/common/tusb_fifo.c ****   if (n)
 699              		.loc 1 536 3 view .LVU236
 700              		.loc 1 536 6 is_stmt 0 view .LVU237
 701 003e AEB3     		cbz	r6, .L58
 702              	.LBB282:
 537:lib/tinyusb/src/common/tusb_fifo.c ****   {
 538:lib/tinyusb/src/common/tusb_fifo.c ****     uint16_t wr_ptr = idx2ptr(f->depth, wr_idx);
 703              		.loc 1 538 5 is_stmt 1 view .LVU238
 704              	.LBB283:
 705              	.LBB284:
 394:lib/tinyusb/src/common/tusb_fifo.c ****   return idx;
 706              		.loc 1 394 9 is_stmt 0 view .LVU239
ARM GAS  /tmp/claude-502/ccRWC2Fn.s 			page 31


 707 0040 AE45     		cmp	lr, r5
 708              	.LBE284:
 709              	.LBE283:
 710              		.loc 1 538 23 view .LVU240
 711 0042 7146     		mov	r1, lr
 712              	.LVL75:
 713              	.LBB286:
 714              	.LBI283:
 391:lib/tinyusb/src/common/tusb_fifo.c **** {
 715              		.loc 1 391 10 is_stmt 1 view .LVU241
 716              	.LBB285:
 394:lib/tinyusb/src/common/tusb_fifo.c ****   return idx;
 717              		.loc 1 394 3 view .LVU242
 394:lib/tinyusb/src/common/tusb_fifo.c ****   return idx;
 718              		.loc 1 394 9 view .LVU243
 719 0044 AC46     		mov	ip, r5
 720 0046 05D8     		bhi	.L64
 721              	.LVL76:
 722              	.L65:
 394:lib/tinyusb/src/common/tusb_fifo.c ****   return idx;
 723              		.loc 1 394 26 view .LVU244
 394:lib/tinyusb/src/common/tusb_fifo.c ****   return idx;
 724              		.loc 1 394 30 is_stmt 0 view .LVU245
 725 0048 ACEB0E0C 		sub	ip, ip, lr
 726              	.LVL77:
 394:lib/tinyusb/src/common/tusb_fifo.c ****   return idx;
 727              		.loc 1 394 30 view .LVU246
 728 004c 1FFA8CFC 		uxth	ip, ip
 729              	.LVL78:
 394:lib/tinyusb/src/common/tusb_fifo.c ****   return idx;
 730              		.loc 1 394 9 is_stmt 1 view .LVU247
 731 0050 E645     		cmp	lr, ip
 732 0052 F9D9     		bls	.L65
 733              	.LVL79:
 734              	.L64:
 395:lib/tinyusb/src/common/tusb_fifo.c **** }
 735              		.loc 1 395 3 view .LVU248
 395:lib/tinyusb/src/common/tusb_fifo.c **** }
 736              		.loc 1 395 3 is_stmt 0 view .LVU249
 737              	.LBE285:
 738              	.LBE286:
 539:lib/tinyusb/src/common/tusb_fifo.c **** 
 540:lib/tinyusb/src/common/tusb_fifo.c ****     TU_LOG(TU_FIFO_DBG, "actual_n = %u, wr_ptr = %u", n, wr_ptr);
 739              		.loc 1 540 65 is_stmt 1 view .LVU250
 541:lib/tinyusb/src/common/tusb_fifo.c **** 
 542:lib/tinyusb/src/common/tusb_fifo.c ****     // Write data
 543:lib/tinyusb/src/common/tusb_fifo.c ****     _ff_push_n(f, buf8, n, wr_ptr, copy_mode);
 740              		.loc 1 543 5 view .LVU251
 741              	.LBB287:
 742              	.LBI287:
 155:lib/tinyusb/src/common/tusb_fifo.c **** {
 743              		.loc 1 155 13 view .LVU252
 744              	.LBB288:
 157:lib/tinyusb/src/common/tusb_fifo.c ****   uint16_t const wrap_count = n - lin_count;
 745              		.loc 1 157 3 view .LVU253
 160:lib/tinyusb/src/common/tusb_fifo.c ****   uint16_t wrap_bytes = wrap_count * f->item_size;
 746              		.loc 1 160 37 is_stmt 0 view .LVU254
ARM GAS  /tmp/claude-502/ccRWC2Fn.s 			page 32


 747 0054 E288     		ldrh	r2, [r4, #6]
 158:lib/tinyusb/src/common/tusb_fifo.c **** 
 748              		.loc 1 158 18 view .LVU255
 749 0056 A6EB0E08 		sub	r8, r6, lr
 157:lib/tinyusb/src/common/tusb_fifo.c ****   uint16_t const wrap_count = n - lin_count;
 750              		.loc 1 157 18 view .LVU256
 751 005a AEEB0C0E 		sub	lr, lr, ip
 164:lib/tinyusb/src/common/tusb_fifo.c **** 
 752              		.loc 1 164 22 view .LVU257
 753 005e D4F800A0 		ldr	r10, [r4]
 160:lib/tinyusb/src/common/tusb_fifo.c ****   uint16_t wrap_bytes = wrap_count * f->item_size;
 754              		.loc 1 160 37 view .LVU258
 755 0062 C2F30E0B 		ubfx	fp, r2, #0, #15
 158:lib/tinyusb/src/common/tusb_fifo.c **** 
 756              		.loc 1 158 18 view .LVU259
 757 0066 E044     		add	r8, r8, ip
 166:lib/tinyusb/src/common/tusb_fifo.c ****   {
 758              		.loc 1 166 3 view .LVU260
 759 0068 012B     		cmp	r3, #1
 160:lib/tinyusb/src/common/tusb_fifo.c ****   uint16_t wrap_bytes = wrap_count * f->item_size;
 760              		.loc 1 160 12 view .LVU261
 761 006a 1EFB0BF9 		smulbb	r9, lr, fp
 160:lib/tinyusb/src/common/tusb_fifo.c ****   uint16_t wrap_bytes = wrap_count * f->item_size;
 762              		.loc 1 160 37 view .LVU262
 763 006e 5A46     		mov	r2, fp
 161:lib/tinyusb/src/common/tusb_fifo.c **** 
 764              		.loc 1 161 12 view .LVU263
 765 0070 18FB0BF8 		smulbb	r8, r8, fp
 157:lib/tinyusb/src/common/tusb_fifo.c ****   uint16_t const wrap_count = n - lin_count;
 766              		.loc 1 157 18 view .LVU264
 767 0074 1FFA8EFE 		uxth	lr, lr
 768              	.LVL80:
 158:lib/tinyusb/src/common/tusb_fifo.c **** 
 769              		.loc 1 158 3 is_stmt 1 view .LVU265
 160:lib/tinyusb/src/common/tusb_fifo.c ****   uint16_t wrap_bytes = wrap_count * f->item_size;
 770              		.loc 1 160 3 view .LVU266
 160:lib/tinyusb/src/common/tusb_fifo.c ****   uint16_t wrap_bytes = wrap_count * f->item_size;
 771              		.loc 1 160 12 is_stmt 0 view .LVU267
 772 0078 1FFA89F9 		uxth	r9, r9
 773              	.LVL81:
 161:lib/tinyusb/src/common/tusb_fifo.c **** 
 774              		.loc 1 161 3 is_stmt 1 view .LVU268
 164:lib/tinyusb/src/common/tusb_fifo.c **** 
 775              		.loc 1 164 12 is_stmt 0 view .LVU269
 776 007c 0BFB0CA0 		mla	r0, fp, ip, r10
 161:lib/tinyusb/src/common/tusb_fifo.c **** 
 777              		.loc 1 161 12 view .LVU270
 778 0080 1FFA88F8 		uxth	r8, r8
 779              	.LVL82:
 164:lib/tinyusb/src/common/tusb_fifo.c **** 
 780              		.loc 1 164 3 is_stmt 1 view .LVU271
 166:lib/tinyusb/src/common/tusb_fifo.c ****   {
 781              		.loc 1 166 3 view .LVU272
 782 0084 46D0     		beq	.L66
 169:lib/tinyusb/src/common/tusb_fifo.c ****       {
 783              		.loc 1 169 7 view .LVU273
 169:lib/tinyusb/src/common/tusb_fifo.c ****       {
ARM GAS  /tmp/claude-502/ccRWC2Fn.s 			page 33


 784              		.loc 1 169 9 is_stmt 0 view .LVU274
 785 0086 7645     		cmp	r6, lr
 786 0088 6BD8     		bhi	.L67
 172:lib/tinyusb/src/common/tusb_fifo.c ****       }
 787              		.loc 1 172 9 is_stmt 1 view .LVU275
 788 008a 3946     		mov	r1, r7
 789 008c 06FB02F2 		mul	r2, r6, r2
 790 0090 FFF7FEFF 		bl	memcpy
 791              	.LVL83:
 172:lib/tinyusb/src/common/tusb_fifo.c ****       }
 792              		.loc 1 172 9 is_stmt 0 view .LVU276
 793              	.LBE288:
 794              	.LBE287:
 544:lib/tinyusb/src/common/tusb_fifo.c **** 
 545:lib/tinyusb/src/common/tusb_fifo.c ****     // Advance index
 546:lib/tinyusb/src/common/tusb_fifo.c ****     f->wr_idx = advance_index(f->depth, wr_idx, n);
 795              		.loc 1 546 17 view .LVU277
 796 0094 A188     		ldrh	r1, [r4, #4]
 797              	.LVL84:
 798              	.L68:
 799              		.loc 1 546 5 is_stmt 1 view .LVU278
 800              	.LBB323:
 801              	.LBI323:
 356:lib/tinyusb/src/common/tusb_fifo.c **** {
 802              		.loc 1 356 17 view .LVU279
 803              	.LBB324:
 361:lib/tinyusb/src/common/tusb_fifo.c ****   if ( (idx > new_idx) || (new_idx >= 2*depth) )
 804              		.loc 1 361 3 view .LVU280
 361:lib/tinyusb/src/common/tusb_fifo.c ****   if ( (idx > new_idx) || (new_idx >= 2*depth) )
 805              		.loc 1 361 12 is_stmt 0 view .LVU281
 806 0096 7319     		adds	r3, r6, r5
 807 0098 4A00     		lsls	r2, r1, #1
 808 009a 9BB2     		uxth	r3, r3
 809              	.LVL85:
 362:lib/tinyusb/src/common/tusb_fifo.c ****   {
 810              		.loc 1 362 3 is_stmt 1 view .LVU282
 362:lib/tinyusb/src/common/tusb_fifo.c ****   {
 811              		.loc 1 362 6 is_stmt 0 view .LVU283
 812 009c 9D42     		cmp	r5, r3
 813 009e 02D8     		bhi	.L82
 362:lib/tinyusb/src/common/tusb_fifo.c ****   {
 814              		.loc 1 362 24 view .LVU284
 815 00a0 B3EB410F 		cmp	r3, r1, lsl #1
 816 00a4 01DB     		blt	.L83
 817              	.L82:
 818              	.LBB325:
 364:lib/tinyusb/src/common/tusb_fifo.c ****     new_idx = (uint16_t) (new_idx + non_used_index_space);
 819              		.loc 1 364 5 is_stmt 1 view .LVU285
 820              	.LVL86:
 365:lib/tinyusb/src/common/tusb_fifo.c ****   }
 821              		.loc 1 365 5 view .LVU286
 822 00a6 9B1A     		subs	r3, r3, r2
 823              	.LVL87:
 365:lib/tinyusb/src/common/tusb_fifo.c ****   }
 824              		.loc 1 365 5 is_stmt 0 view .LVU287
 825 00a8 9BB2     		uxth	r3, r3
 826              	.LVL88:
ARM GAS  /tmp/claude-502/ccRWC2Fn.s 			page 34


 827              	.L83:
 365:lib/tinyusb/src/common/tusb_fifo.c ****   }
 828              		.loc 1 365 5 view .LVU288
 829              	.LBE325:
 368:lib/tinyusb/src/common/tusb_fifo.c **** }
 830              		.loc 1 368 3 is_stmt 1 view .LVU289
 368:lib/tinyusb/src/common/tusb_fifo.c **** }
 831              		.loc 1 368 3 is_stmt 0 view .LVU290
 832              	.LBE324:
 833              	.LBE323:
 834              		.loc 1 546 15 view .LVU291
 835 00aa 2381     		strh	r3, [r4, #8]	@ movhi
 836              	.L58:
 837              	.LVL89:
 838              		.loc 1 546 15 view .LVU292
 839              	.LBE282:
 547:lib/tinyusb/src/common/tusb_fifo.c **** 
 548:lib/tinyusb/src/common/tusb_fifo.c ****     TU_LOG(TU_FIFO_DBG, "\tnew_wr = %u\r\n", f->wr_idx);
 549:lib/tinyusb/src/common/tusb_fifo.c ****   }
 550:lib/tinyusb/src/common/tusb_fifo.c **** 
 551:lib/tinyusb/src/common/tusb_fifo.c ****   _ff_unlock(f->mutex_wr);
 552:lib/tinyusb/src/common/tusb_fifo.c **** 
 553:lib/tinyusb/src/common/tusb_fifo.c ****   return n;
 554:lib/tinyusb/src/common/tusb_fifo.c **** }
 840              		.loc 1 554 1 view .LVU293
 841 00ac 3046     		mov	r0, r6
 842 00ae 03B0     		add	sp, sp, #12
 843              		.cfi_remember_state
 844              		.cfi_def_cfa_offset 36
 845              		@ sp needed
 846 00b0 BDE8F08F 		pop	{r4, r5, r6, r7, r8, r9, r10, fp, pc}
 847              	.LVL90:
 848              	.L55:
 849              		.cfi_restore_state
 495:lib/tinyusb/src/common/tusb_fifo.c ****     {
 850              		.loc 1 495 5 is_stmt 1 view .LVU294
 495:lib/tinyusb/src/common/tusb_fifo.c ****     {
 851              		.loc 1 495 8 is_stmt 0 view .LVU295
 852 00b4 7245     		cmp	r2, lr
 495:lib/tinyusb/src/common/tusb_fifo.c ****     {
 853              		.loc 1 495 16 view .LVU296
 854 00b6 7646     		mov	r6, lr
 495:lib/tinyusb/src/common/tusb_fifo.c ****     {
 855              		.loc 1 495 8 view .LVU297
 856 00b8 0AD3     		bcc	.L60
 498:lib/tinyusb/src/common/tusb_fifo.c ****       {
 857              		.loc 1 498 7 is_stmt 1 view .LVU298
 498:lib/tinyusb/src/common/tusb_fifo.c ****       {
 858              		.loc 1 498 10 is_stmt 0 view .LVU299
 859 00ba 002B     		cmp	r3, #0
 860 00bc 45D1     		bne	.L85
 500:lib/tinyusb/src/common/tusb_fifo.c ****       }else
 861              		.loc 1 500 9 is_stmt 1 view .LVU300
 500:lib/tinyusb/src/common/tusb_fifo.c ****       }else
 862              		.loc 1 500 35 is_stmt 0 view .LVU301
 863 00be C188     		ldrh	r1, [r0, #6]
 500:lib/tinyusb/src/common/tusb_fifo.c ****       }else
ARM GAS  /tmp/claude-502/ccRWC2Fn.s 			page 35


 864              		.loc 1 500 20 view .LVU302
 865 00c0 A2EB0E02 		sub	r2, r2, lr
 866              	.LVL91:
 476:lib/tinyusb/src/common/tusb_fifo.c **** 
 867              		.loc 1 476 12 view .LVU303
 868 00c4 6546     		mov	r5, ip
 869              	.LVL92:
 500:lib/tinyusb/src/common/tusb_fifo.c ****       }else
 870              		.loc 1 500 35 view .LVU304
 871 00c6 C1F30E01 		ubfx	r1, r1, #0, #15
 500:lib/tinyusb/src/common/tusb_fifo.c ****       }else
 872              		.loc 1 500 14 view .LVU305
 873 00ca 01FB0277 		mla	r7, r1, r2, r7
 874              	.LVL93:
 500:lib/tinyusb/src/common/tusb_fifo.c ****       }else
 875              		.loc 1 500 14 view .LVU306
 876 00ce B6E7     		b	.L59
 877              	.LVL94:
 878              	.L60:
 879              	.LBB330:
 514:lib/tinyusb/src/common/tusb_fifo.c ****       if (overflowable_count + n >= 2*f->depth)
 880              		.loc 1 514 7 is_stmt 1 view .LVU307
 881              	.LBB273:
 882              	.LBI273:
 330:lib/tinyusb/src/common/tusb_fifo.c **** {
 883              		.loc 1 330 10 view .LVU308
 884              	.LBB274:
 333:lib/tinyusb/src/common/tusb_fifo.c ****   {
 885              		.loc 1 333 3 view .LVU309
 333:lib/tinyusb/src/common/tusb_fifo.c ****   {
 886              		.loc 1 333 6 is_stmt 0 view .LVU310
 887 00d0 6545     		cmp	r5, ip
 888 00d2 3CD2     		bcs	.L109
 338:lib/tinyusb/src/common/tusb_fifo.c ****   }
 889              		.loc 1 338 5 is_stmt 1 view .LVU311
 338:lib/tinyusb/src/common/tusb_fifo.c ****   }
 890              		.loc 1 338 12 is_stmt 0 view .LVU312
 891 00d4 CCEB4E01 		rsb	r1, ip, lr, lsl #1
 892 00d8 4FEA4E00 		lsl	r0, lr, #1
 893              	.LVL95:
 338:lib/tinyusb/src/common/tusb_fifo.c ****   }
 894              		.loc 1 338 12 view .LVU313
 895 00dc 2944     		add	r1, r1, r5
 896 00de 89B2     		uxth	r1, r1
 897              	.LVL96:
 338:lib/tinyusb/src/common/tusb_fifo.c ****   }
 898              		.loc 1 338 12 view .LVU314
 899              	.LBE274:
 900              	.LBE273:
 515:lib/tinyusb/src/common/tusb_fifo.c ****       {
 901              		.loc 1 515 7 is_stmt 1 view .LVU315
 515:lib/tinyusb/src/common/tusb_fifo.c ****       {
 902              		.loc 1 515 30 is_stmt 0 view .LVU316
 903 00e0 1144     		add	r1, r1, r2
 904              	.LVL97:
 515:lib/tinyusb/src/common/tusb_fifo.c ****       {
 905              		.loc 1 515 10 view .LVU317
ARM GAS  /tmp/claude-502/ccRWC2Fn.s 			page 36


 906 00e2 8142     		cmp	r1, r0
 907 00e4 3BDB     		blt	.L87
 908              	.LVL98:
 909              	.L111:
 520:lib/tinyusb/src/common/tusb_fifo.c **** 
 910              		.loc 1 520 9 is_stmt 1 view .LVU318
 911              	.LBB276:
 912              	.LBI276:
 356:lib/tinyusb/src/common/tusb_fifo.c **** {
 913              		.loc 1 356 17 view .LVU319
 914              	.LBB277:
 361:lib/tinyusb/src/common/tusb_fifo.c ****   if ( (idx > new_idx) || (new_idx >= 2*depth) )
 915              		.loc 1 361 3 view .LVU320
 361:lib/tinyusb/src/common/tusb_fifo.c ****   if ( (idx > new_idx) || (new_idx >= 2*depth) )
 916              		.loc 1 361 12 is_stmt 0 view .LVU321
 917 00e6 0CEB0E05 		add	r5, ip, lr
 918              	.LVL99:
 361:lib/tinyusb/src/common/tusb_fifo.c ****   if ( (idx > new_idx) || (new_idx >= 2*depth) )
 919              		.loc 1 361 12 view .LVU322
 920 00ea AD1A     		subs	r5, r5, r2
 921 00ec ADB2     		uxth	r5, r5
 922              	.LVL100:
 362:lib/tinyusb/src/common/tusb_fifo.c ****   {
 923              		.loc 1 362 3 is_stmt 1 view .LVU323
 362:lib/tinyusb/src/common/tusb_fifo.c ****   {
 924              		.loc 1 362 6 is_stmt 0 view .LVU324
 925 00ee AC45     		cmp	ip, r5
 926 00f0 01D8     		bhi	.L63
 362:lib/tinyusb/src/common/tusb_fifo.c ****   {
 927              		.loc 1 362 24 view .LVU325
 928 00f2 A842     		cmp	r0, r5
 929 00f4 33DC     		bgt	.L87
 930              	.L63:
 931              	.LBB278:
 364:lib/tinyusb/src/common/tusb_fifo.c ****     new_idx = (uint16_t) (new_idx + non_used_index_space);
 932              		.loc 1 364 5 is_stmt 1 view .LVU326
 933              	.LVL101:
 365:lib/tinyusb/src/common/tusb_fifo.c ****   }
 934              		.loc 1 365 5 view .LVU327
 935 00f6 2D1A     		subs	r5, r5, r0
 936              	.LVL102:
 364:lib/tinyusb/src/common/tusb_fifo.c ****     new_idx = (uint16_t) (new_idx + non_used_index_space);
 937              		.loc 1 364 43 is_stmt 0 view .LVU328
 938 00f8 1646     		mov	r6, r2
 939              	.LVL103:
 364:lib/tinyusb/src/common/tusb_fifo.c ****     new_idx = (uint16_t) (new_idx + non_used_index_space);
 940              		.loc 1 364 43 view .LVU329
 941 00fa ADB2     		uxth	r5, r5
 942              	.LVL104:
 364:lib/tinyusb/src/common/tusb_fifo.c ****     new_idx = (uint16_t) (new_idx + non_used_index_space);
 943              		.loc 1 364 43 view .LVU330
 944 00fc 9FE7     		b	.L59
 945              	.LVL105:
 946              	.L108:
 364:lib/tinyusb/src/common/tusb_fifo.c ****     new_idx = (uint16_t) (new_idx + non_used_index_space);
 947              		.loc 1 364 43 view .LVU331
 948              	.LBE278:
ARM GAS  /tmp/claude-502/ccRWC2Fn.s 			page 37


 949              	.LBE277:
 950              	.LBE276:
 951              	.LBE330:
 952              	.LBB331:
 953              	.LBB270:
 954              	.LBB265:
 955              	.LBB264:
 956              	.LBB263:
 335:lib/tinyusb/src/common/tusb_fifo.c ****   } else
 957              		.loc 1 335 5 is_stmt 1 view .LVU332
 335:lib/tinyusb/src/common/tusb_fifo.c ****   } else
 958              		.loc 1 335 12 is_stmt 0 view .LVU333
 959 00fe A5EB0C0C 		sub	ip, r5, ip
 960              	.LVL106:
 335:lib/tinyusb/src/common/tusb_fifo.c ****   } else
 961              		.loc 1 335 12 view .LVU334
 962 0102 1FFA8CFC 		uxth	ip, ip
 963              	.LVL107:
 335:lib/tinyusb/src/common/tusb_fifo.c ****   } else
 964              		.loc 1 335 12 view .LVU335
 965              	.LBE263:
 966              	.LBE264:
 347:lib/tinyusb/src/common/tusb_fifo.c **** }
 967              		.loc 1 347 3 is_stmt 1 view .LVU336
 347:lib/tinyusb/src/common/tusb_fifo.c **** }
 968              		.loc 1 347 44 is_stmt 0 view .LVU337
 969 0106 E645     		cmp	lr, ip
 970 0108 93D8     		bhi	.L110
 971              	.L84:
 347:lib/tinyusb/src/common/tusb_fifo.c **** }
 972              		.loc 1 347 44 view .LVU338
 973 010a 0026     		movs	r6, #0
 974              	.LVL108:
 347:lib/tinyusb/src/common/tusb_fifo.c **** }
 975              		.loc 1 347 44 view .LVU339
 976              	.LBE265:
 977              	.LBE270:
 978              	.LBE331:
 979              		.loc 1 554 1 view .LVU340
 980 010c 3046     		mov	r0, r6
 981              	.LVL109:
 982              		.loc 1 554 1 view .LVU341
 983 010e 03B0     		add	sp, sp, #12
 984              		.cfi_remember_state
 985              		.cfi_def_cfa_offset 36
 986              		@ sp needed
 987 0110 BDE8F08F 		pop	{r4, r5, r6, r7, r8, r9, r10, fp, pc}
 988              	.LVL110:
 989              	.L66:
 990              		.cfi_restore_state
 991              	.LBB332:
 992              	.LBB326:
 993              	.LBB319:
 189:lib/tinyusb/src/common/tusb_fifo.c ****       {
 994              		.loc 1 189 7 is_stmt 1 view .LVU342
 189:lib/tinyusb/src/common/tusb_fifo.c ****       {
 995              		.loc 1 189 9 is_stmt 0 view .LVU343
ARM GAS  /tmp/claude-502/ccRWC2Fn.s 			page 38


 996 0114 7645     		cmp	r6, lr
 997 0116 30D8     		bhi	.L69
 192:lib/tinyusb/src/common/tusb_fifo.c ****       }
 998              		.loc 1 192 9 is_stmt 1 view .LVU344
 999 0118 16FB0BF2 		smulbb	r2, r6, fp
 1000              	.LBB289:
 1001              	.LBB290:
 106:lib/tinyusb/src/common/tusb_fifo.c ****   while(full_words--)
 1002              		.loc 1 106 12 is_stmt 0 view .LVU345
 1003 011c C2F38D03 		ubfx	r3, r2, #2, #14
 1004              	.LVL111:
 106:lib/tinyusb/src/common/tusb_fifo.c ****   while(full_words--)
 1005              		.loc 1 106 12 view .LVU346
 1006              	.LBE290:
 1007              	.LBE289:
 192:lib/tinyusb/src/common/tusb_fifo.c ****       }
 1008              		.loc 1 192 9 view .LVU347
 1009 0120 92B2     		uxth	r2, r2
 1010              	.LVL112:
 1011              	.LBB296:
 1012              	.LBI289:
 101:lib/tinyusb/src/common/tusb_fifo.c **** {
 1013              		.loc 1 101 13 is_stmt 1 view .LVU348
 1014              	.LBB294:
 103:lib/tinyusb/src/common/tusb_fifo.c **** 
 1015              		.loc 1 103 3 view .LVU349
 106:lib/tinyusb/src/common/tusb_fifo.c ****   while(full_words--)
 1016              		.loc 1 106 3 view .LVU350
 107:lib/tinyusb/src/common/tusb_fifo.c ****   {
 1017              		.loc 1 107 3 view .LVU351
 107:lib/tinyusb/src/common/tusb_fifo.c ****   {
 1018              		.loc 1 107 8 view .LVU352
 107:lib/tinyusb/src/common/tusb_fifo.c ****   {
 1019              		.loc 1 107 8 is_stmt 0 view .LVU353
 1020 0122 002B     		cmp	r3, #0
 1021 0124 72D0     		beq	.L89
 1022 0126 00EB830C 		add	ip, r0, r3, lsl #2
 1023              	.LVL113:
 1024              	.L71:
 109:lib/tinyusb/src/common/tusb_fifo.c ****     ff_buf += 4;
 1025              		.loc 1 109 5 is_stmt 1 view .LVU354
 1026 012a 3B68     		ldr	r3, [r7]
 1027              	.LVL114:
 1028              	.LBB291:
 1029              	.LBI291:
 267:lib/tinyusb/src/common/tusb_common.h **** }
 268:lib/tinyusb/src/common/tusb_common.h **** 
 269:lib/tinyusb/src/common/tusb_common.h **** TU_ATTR_ALWAYS_INLINE static inline uint16_t tu_unaligned_read16(const void *mem) {
 270:lib/tinyusb/src/common/tusb_common.h ****   return *((uint16_t const *) mem);
 271:lib/tinyusb/src/common/tusb_common.h **** }
 272:lib/tinyusb/src/common/tusb_common.h **** 
 273:lib/tinyusb/src/common/tusb_common.h **** TU_ATTR_ALWAYS_INLINE static inline void tu_unaligned_write32(void *mem, uint32_t value) {
 1030              		.loc 2 273 42 view .LVU355
 1031              	.LBB292:
 274:lib/tinyusb/src/common/tusb_common.h ****   *((uint32_t *) mem) = value;
 1032              		.loc 2 274 3 view .LVU356
 1033              		.loc 2 274 23 is_stmt 0 view .LVU357
ARM GAS  /tmp/claude-502/ccRWC2Fn.s 			page 39


 1034 012c 40F8043B 		str	r3, [r0], #4
 1035              	.LVL115:
 1036              		.loc 2 274 23 view .LVU358
 1037              	.LBE292:
 1038              	.LBE291:
 110:lib/tinyusb/src/common/tusb_fifo.c ****   }
 1039              		.loc 1 110 5 is_stmt 1 view .LVU359
 107:lib/tinyusb/src/common/tusb_fifo.c ****   {
 1040              		.loc 1 107 8 view .LVU360
 1041 0130 8445     		cmp	ip, r0
 1042 0132 FAD1     		bne	.L71
 1043              	.L70:
 114:lib/tinyusb/src/common/tusb_fifo.c ****   if ( bytes_rem )
 1044              		.loc 1 114 3 view .LVU361
 1045              	.LVL116:
 115:lib/tinyusb/src/common/tusb_fifo.c ****   {
 1046              		.loc 1 115 3 view .LVU362
 115:lib/tinyusb/src/common/tusb_fifo.c ****   {
 1047              		.loc 1 115 6 is_stmt 0 view .LVU363
 1048 0134 12F00302 		ands	r2, r2, #3
 1049              	.LVL117:
 115:lib/tinyusb/src/common/tusb_fifo.c ****   {
 1050              		.loc 1 115 6 view .LVU364
 1051 0138 ADD0     		beq	.L68
 1052              	.LBB293:
 117:lib/tinyusb/src/common/tusb_fifo.c ****     memcpy(ff_buf, &tmp32, bytes_rem);
 1053              		.loc 1 117 5 is_stmt 1 view .LVU365
 117:lib/tinyusb/src/common/tusb_fifo.c ****     memcpy(ff_buf, &tmp32, bytes_rem);
 1054              		.loc 1 117 22 is_stmt 0 view .LVU366
 1055 013a 3B68     		ldr	r3, [r7]
 118:lib/tinyusb/src/common/tusb_fifo.c ****   }
 1056              		.loc 1 118 5 view .LVU367
 1057 013c 01A9     		add	r1, sp, #4
 1058 013e 6046     		mov	r0, ip
 1059              	.LVL118:
 117:lib/tinyusb/src/common/tusb_fifo.c ****     memcpy(ff_buf, &tmp32, bytes_rem);
 1060              		.loc 1 117 14 view .LVU368
 1061 0140 0193     		str	r3, [sp, #4]
 118:lib/tinyusb/src/common/tusb_fifo.c ****   }
 1062              		.loc 1 118 5 is_stmt 1 view .LVU369
 1063 0142 FFF7FEFF 		bl	memcpy
 1064              	.LVL119:
 118:lib/tinyusb/src/common/tusb_fifo.c ****   }
 1065              		.loc 1 118 5 is_stmt 0 view .LVU370
 1066              	.LBE293:
 1067              	.LBE294:
 1068              	.LBE296:
 1069              	.LBE319:
 1070              	.LBE326:
 546:lib/tinyusb/src/common/tusb_fifo.c **** 
 1071              		.loc 1 546 17 view .LVU371
 1072 0146 A188     		ldrh	r1, [r4, #4]
 1073 0148 A5E7     		b	.L68
 1074              	.LVL120:
 1075              	.L85:
 546:lib/tinyusb/src/common/tusb_fifo.c **** 
 1076              		.loc 1 546 17 view .LVU372
ARM GAS  /tmp/claude-502/ccRWC2Fn.s 			page 40


 1077              	.LBE332:
 476:lib/tinyusb/src/common/tusb_fifo.c **** 
 1078              		.loc 1 476 12 view .LVU373
 1079 014a 6546     		mov	r5, ip
 1080              	.LVL121:
 476:lib/tinyusb/src/common/tusb_fifo.c **** 
 1081              		.loc 1 476 12 view .LVU374
 1082 014c 77E7     		b	.L59
 1083              	.LVL122:
 1084              	.L109:
 1085              	.LBB333:
 1086              	.LBB280:
 1087              	.LBB275:
 335:lib/tinyusb/src/common/tusb_fifo.c ****   } else
 1088              		.loc 1 335 5 is_stmt 1 view .LVU375
 335:lib/tinyusb/src/common/tusb_fifo.c ****   } else
 1089              		.loc 1 335 12 is_stmt 0 view .LVU376
 1090 014e A5EB0C01 		sub	r1, r5, ip
 1091 0152 4FEA4E00 		lsl	r0, lr, #1
 1092              	.LVL123:
 335:lib/tinyusb/src/common/tusb_fifo.c ****   } else
 1093              		.loc 1 335 12 view .LVU377
 1094 0156 89B2     		uxth	r1, r1
 1095              	.LVL124:
 335:lib/tinyusb/src/common/tusb_fifo.c ****   } else
 1096              		.loc 1 335 12 view .LVU378
 1097              	.LBE275:
 1098              	.LBE280:
 515:lib/tinyusb/src/common/tusb_fifo.c ****       {
 1099              		.loc 1 515 7 is_stmt 1 view .LVU379
 515:lib/tinyusb/src/common/tusb_fifo.c ****       {
 1100              		.loc 1 515 30 is_stmt 0 view .LVU380
 1101 0158 1144     		add	r1, r1, r2
 1102              	.LVL125:
 515:lib/tinyusb/src/common/tusb_fifo.c ****       {
 1103              		.loc 1 515 10 view .LVU381
 1104 015a 8142     		cmp	r1, r0
 1105 015c C3DA     		bge	.L111
 1106              	.LVL126:
 1107              	.L87:
 1108              	.LBB281:
 1109              	.LBB279:
 515:lib/tinyusb/src/common/tusb_fifo.c ****       {
 1110              		.loc 1 515 10 view .LVU382
 1111 015e 1646     		mov	r6, r2
 1112 0160 6DE7     		b	.L59
 1113              	.LVL127:
 1114              	.L67:
 515:lib/tinyusb/src/common/tusb_fifo.c ****       {
 1115              		.loc 1 515 10 view .LVU383
 1116              	.LBE279:
 1117              	.LBE281:
 1118              	.LBE333:
 1119              	.LBB334:
 1120              	.LBB327:
 1121              	.LBB320:
 179:lib/tinyusb/src/common/tusb_fifo.c **** 
ARM GAS  /tmp/claude-502/ccRWC2Fn.s 			page 41


 1122              		.loc 1 179 9 is_stmt 1 view .LVU384
 1123 0162 3946     		mov	r1, r7
 1124 0164 4A46     		mov	r2, r9
 1125 0166 FFF7FEFF 		bl	memcpy
 1126              	.LVL128:
 183:lib/tinyusb/src/common/tusb_fifo.c ****       }
 1127              		.loc 1 183 9 view .LVU385
 1128 016a 07EB0901 		add	r1, r7, r9
 1129 016e 4246     		mov	r2, r8
 1130 0170 2068     		ldr	r0, [r4]
 1131 0172 FFF7FEFF 		bl	memcpy
 1132              	.LVL129:
 1133              	.LBE320:
 1134              	.LBE327:
 546:lib/tinyusb/src/common/tusb_fifo.c **** 
 1135              		.loc 1 546 17 is_stmt 0 view .LVU386
 1136 0176 A188     		ldrh	r1, [r4, #4]
 1137 0178 8DE7     		b	.L68
 1138              	.LVL130:
 1139              	.L69:
 1140              	.LBB328:
 1141              	.LBB321:
 1142              	.LBB297:
 199:lib/tinyusb/src/common/tusb_fifo.c ****         _ff_push_const_addr(ff_buf, app_buf, nLin_4n_bytes);
 1143              		.loc 1 199 9 is_stmt 1 view .LVU387
 199:lib/tinyusb/src/common/tusb_fifo.c ****         _ff_push_const_addr(ff_buf, app_buf, nLin_4n_bytes);
 1144              		.loc 1 199 18 is_stmt 0 view .LVU388
 1145 017a 29F00303 		bic	r3, r9, #3
 1146              	.LVL131:
 199:lib/tinyusb/src/common/tusb_fifo.c ****         _ff_push_const_addr(ff_buf, app_buf, nLin_4n_bytes);
 1147              		.loc 1 199 18 view .LVU389
 1148 017e 1FFA83FC 		uxth	ip, r3
 1149              	.LVL132:
 200:lib/tinyusb/src/common/tusb_fifo.c ****         ff_buf += nLin_4n_bytes;
 1150              		.loc 1 200 9 is_stmt 1 view .LVU390
 1151              	.LBB298:
 1152              	.LBI298:
 101:lib/tinyusb/src/common/tusb_fifo.c **** {
 1153              		.loc 1 101 13 view .LVU391
 1154              	.LBB299:
 103:lib/tinyusb/src/common/tusb_fifo.c **** 
 1155              		.loc 1 103 3 view .LVU392
 106:lib/tinyusb/src/common/tusb_fifo.c ****   while(full_words--)
 1156              		.loc 1 106 3 view .LVU393
 107:lib/tinyusb/src/common/tusb_fifo.c ****   {
 1157              		.loc 1 107 3 view .LVU394
 107:lib/tinyusb/src/common/tusb_fifo.c ****   {
 1158              		.loc 1 107 8 view .LVU395
 107:lib/tinyusb/src/common/tusb_fifo.c ****   {
 1159              		.loc 1 107 8 is_stmt 0 view .LVU396
 1160 0182 9908     		lsrs	r1, r3, #2
 1161 0184 3BB1     		cbz	r3, .L76
 1162 0186 00EB8101 		add	r1, r0, r1, lsl #2
 1163 018a 0346     		mov	r3, r0
 1164              	.LVL133:
 1165              	.L75:
 109:lib/tinyusb/src/common/tusb_fifo.c ****     ff_buf += 4;
ARM GAS  /tmp/claude-502/ccRWC2Fn.s 			page 42


 1166              		.loc 1 109 5 is_stmt 1 view .LVU397
 1167 018c 3A68     		ldr	r2, [r7]
 1168              	.LVL134:
 1169              	.LBB300:
 1170              	.LBI300:
 273:lib/tinyusb/src/common/tusb_common.h ****   *((uint32_t *) mem) = value;
 1171              		.loc 2 273 42 view .LVU398
 1172              	.LBB301:
 1173              		.loc 2 274 3 view .LVU399
 1174              		.loc 2 274 23 is_stmt 0 view .LVU400
 1175 018e 43F8042B 		str	r2, [r3], #4
 1176              	.LVL135:
 1177              		.loc 2 274 23 view .LVU401
 1178              	.LBE301:
 1179              	.LBE300:
 110:lib/tinyusb/src/common/tusb_fifo.c ****   }
 1180              		.loc 1 110 5 is_stmt 1 view .LVU402
 107:lib/tinyusb/src/common/tusb_fifo.c ****   {
 1181              		.loc 1 107 8 view .LVU403
 1182 0192 9942     		cmp	r1, r3
 1183 0194 FAD1     		bne	.L75
 1184              	.LVL136:
 1185              	.L76:
 114:lib/tinyusb/src/common/tusb_fifo.c ****   if ( bytes_rem )
 1186              		.loc 1 114 3 view .LVU404
 115:lib/tinyusb/src/common/tusb_fifo.c ****   {
 1187              		.loc 1 115 3 view .LVU405
 115:lib/tinyusb/src/common/tusb_fifo.c ****   {
 1188              		.loc 1 115 3 is_stmt 0 view .LVU406
 1189              	.LBE299:
 1190              	.LBE298:
 201:lib/tinyusb/src/common/tusb_fifo.c **** 
 1191              		.loc 1 201 9 is_stmt 1 view .LVU407
 204:lib/tinyusb/src/common/tusb_fifo.c ****         if (rem > 0)
 1192              		.loc 1 204 9 view .LVU408
 205:lib/tinyusb/src/common/tusb_fifo.c ****         {
 1193              		.loc 1 205 9 view .LVU409
 205:lib/tinyusb/src/common/tusb_fifo.c ****         {
 1194              		.loc 1 205 12 is_stmt 0 view .LVU410
 1195 0196 19F00309 		ands	r9, r9, #3
 1196              	.LVL137:
 205:lib/tinyusb/src/common/tusb_fifo.c ****         {
 1197              		.loc 1 205 12 view .LVU411
 1198 019a 1FD0     		beq	.L74
 1199              	.LBB302:
 207:lib/tinyusb/src/common/tusb_fifo.c **** 
 1200              		.loc 1 207 11 is_stmt 1 view .LVU412
 1201              	.LVL138:
 209:lib/tinyusb/src/common/tusb_fifo.c ****           wrap_bytes -= remrem;
 1202              		.loc 1 209 11 view .LVU413
 1203              	.LBB303:
 1204              	.LBI303:
 151:lib/tinyusb/src/common/tusb_common.h **** TU_ATTR_ALWAYS_INLINE static inline uint32_t tu_min32 (uint32_t x, uint32_t y) { return (x < y) ? x
 1205              		.loc 2 151 46 view .LVU414
 1206              	.LBB304:
 151:lib/tinyusb/src/common/tusb_common.h **** TU_ATTR_ALWAYS_INLINE static inline uint32_t tu_min32 (uint32_t x, uint32_t y) { return (x < y) ? x
 1207              		.loc 2 151 82 view .LVU415
ARM GAS  /tmp/claude-502/ccRWC2Fn.s 			page 43


 1208              	.LBE304:
 1209              	.LBE303:
 209:lib/tinyusb/src/common/tusb_fifo.c ****           wrap_bytes -= remrem;
 1210              		.loc 1 209 38 is_stmt 0 view .LVU416
 1211 019c C9F1040B 		rsb	fp, r9, #4
 1212              	.LVL139:
 212:lib/tinyusb/src/common/tusb_fifo.c ****           uint8_t * src_u8 = ((uint8_t *) &tmp32);
 1213              		.loc 1 212 28 view .LVU417
 1214 01a0 3B68     		ldr	r3, [r7]
 216:lib/tinyusb/src/common/tusb_fifo.c **** 
 1215              		.loc 1 216 34 view .LVU418
 1216 01a2 4A46     		mov	r2, r9
 1217 01a4 01A9     		add	r1, sp, #4
 1218              	.LBB307:
 1219              	.LBB305:
 151:lib/tinyusb/src/common/tusb_common.h **** TU_ATTR_ALWAYS_INLINE static inline uint32_t tu_min32 (uint32_t x, uint32_t y) { return (x < y) ? x
 1220              		.loc 2 151 101 view .LVU419
 1221 01a6 1FFA8BFB 		uxth	fp, fp
 1222              	.LBE305:
 1223              	.LBE307:
 216:lib/tinyusb/src/common/tusb_fifo.c **** 
 1224              		.loc 1 216 34 view .LVU420
 1225 01aa 6044     		add	r0, r0, ip
 1226              	.LVL140:
 212:lib/tinyusb/src/common/tusb_fifo.c ****           uint8_t * src_u8 = ((uint8_t *) &tmp32);
 1227              		.loc 1 212 20 view .LVU421
 1228 01ac 0193     		str	r3, [sp, #4]
 1229              	.LBB308:
 1230              	.LBB306:
 151:lib/tinyusb/src/common/tusb_common.h **** TU_ATTR_ALWAYS_INLINE static inline uint32_t tu_min32 (uint32_t x, uint32_t y) { return (x < y) ? x
 1231              		.loc 2 151 101 view .LVU422
 1232 01ae C345     		cmp	fp, r8
 1233 01b0 28BF     		it	cs
 1234 01b2 C346     		movcs	fp, r8
 1235              	.LVL141:
 151:lib/tinyusb/src/common/tusb_common.h **** TU_ATTR_ALWAYS_INLINE static inline uint32_t tu_min32 (uint32_t x, uint32_t y) { return (x < y) ? x
 1236              		.loc 2 151 101 view .LVU423
 1237              	.LBE306:
 1238              	.LBE308:
 216:lib/tinyusb/src/common/tusb_fifo.c **** 
 1239              		.loc 1 216 34 view .LVU424
 1240 01b4 FFF7FEFF 		bl	memcpy
 1241              	.LVL142:
 216:lib/tinyusb/src/common/tusb_fifo.c **** 
 1242              		.loc 1 216 43 view .LVU425
 1243 01b8 01AB     		add	r3, sp, #4
 219:lib/tinyusb/src/common/tusb_fifo.c ****           while(remrem--) *ff_buf++ = *src_u8++;
 1244              		.loc 1 219 18 view .LVU426
 1245 01ba D4F800A0 		ldr	r10, [r4]
 210:lib/tinyusb/src/common/tusb_fifo.c **** 
 1246              		.loc 1 210 22 view .LVU427
 1247 01be A8EB0B08 		sub	r8, r8, fp
 1248              	.LVL143:
 209:lib/tinyusb/src/common/tusb_fifo.c ****           wrap_bytes -= remrem;
 1249              		.loc 1 209 19 view .LVU428
 1250 01c2 5FFA8BF2 		uxtb	r2, fp
 1251              	.LVL144:
ARM GAS  /tmp/claude-502/ccRWC2Fn.s 			page 44


 210:lib/tinyusb/src/common/tusb_fifo.c **** 
 1252              		.loc 1 210 11 is_stmt 1 view .LVU429
 216:lib/tinyusb/src/common/tusb_fifo.c **** 
 1253              		.loc 1 216 43 is_stmt 0 view .LVU430
 1254 01c6 03EB0901 		add	r1, r3, r9
 210:lib/tinyusb/src/common/tusb_fifo.c **** 
 1255              		.loc 1 210 22 view .LVU431
 1256 01ca 1FFA88F8 		uxth	r8, r8
 1257              	.LVL145:
 212:lib/tinyusb/src/common/tusb_fifo.c ****           uint8_t * src_u8 = ((uint8_t *) &tmp32);
 1258              		.loc 1 212 11 is_stmt 1 view .LVU432
 213:lib/tinyusb/src/common/tusb_fifo.c **** 
 1259              		.loc 1 213 11 view .LVU433
 216:lib/tinyusb/src/common/tusb_fifo.c **** 
 1260              		.loc 1 216 11 view .LVU434
 216:lib/tinyusb/src/common/tusb_fifo.c **** 
 1261              		.loc 1 216 16 view .LVU435
 219:lib/tinyusb/src/common/tusb_fifo.c ****           while(remrem--) *ff_buf++ = *src_u8++;
 1262              		.loc 1 219 11 view .LVU436
 220:lib/tinyusb/src/common/tusb_fifo.c ****         }
 1263              		.loc 1 220 11 view .LVU437
 220:lib/tinyusb/src/common/tusb_fifo.c ****         }
 1264              		.loc 1 220 16 view .LVU438
 220:lib/tinyusb/src/common/tusb_fifo.c ****         }
 1265              		.loc 1 220 16 is_stmt 0 view .LVU439
 1266 01ce BBF1000F 		cmp	fp, #0
 1267 01d2 03D0     		beq	.L74
 220:lib/tinyusb/src/common/tusb_fifo.c ****         }
 1268              		.loc 1 220 37 view .LVU440
 1269 01d4 5046     		mov	r0, r10
 220:lib/tinyusb/src/common/tusb_fifo.c ****         }
 1270              		.loc 1 220 34 view .LVU441
 1271 01d6 9244     		add	r10, r10, r2
 1272              	.LVL146:
 220:lib/tinyusb/src/common/tusb_fifo.c ****         }
 1273              		.loc 1 220 37 view .LVU442
 1274 01d8 FFF7FEFF 		bl	memcpy
 1275              	.LVL147:
 1276              	.L74:
 220:lib/tinyusb/src/common/tusb_fifo.c ****         }
 1277              		.loc 1 220 37 view .LVU443
 1278              	.LBE302:
 228:lib/tinyusb/src/common/tusb_fifo.c ****       }
 1279              		.loc 1 228 9 is_stmt 1 view .LVU444
 228:lib/tinyusb/src/common/tusb_fifo.c ****       }
 1280              		.loc 1 228 12 is_stmt 0 view .LVU445
 1281 01dc B8F1000F 		cmp	r8, #0
 1282 01e0 01D1     		bne	.L78
 1283              	.LVL148:
 1284              	.L107:
 228:lib/tinyusb/src/common/tusb_fifo.c ****       }
 1285              		.loc 1 228 12 view .LVU446
 1286              	.LBE297:
 1287              	.LBE321:
 1288              	.LBE328:
 546:lib/tinyusb/src/common/tusb_fifo.c **** 
 1289              		.loc 1 546 17 view .LVU447
ARM GAS  /tmp/claude-502/ccRWC2Fn.s 			page 45


 1290 01e2 A188     		ldrh	r1, [r4, #4]
 1291 01e4 57E7     		b	.L68
 1292              	.LVL149:
 1293              	.L78:
 1294              	.LBB329:
 1295              	.LBB322:
 1296              	.LBB316:
 228:lib/tinyusb/src/common/tusb_fifo.c ****       }
 1297              		.loc 1 228 29 is_stmt 1 view .LVU448
 1298              	.LBB309:
 1299              	.LBI309:
 101:lib/tinyusb/src/common/tusb_fifo.c **** {
 1300              		.loc 1 101 13 view .LVU449
 1301              	.LBB310:
 103:lib/tinyusb/src/common/tusb_fifo.c **** 
 1302              		.loc 1 103 3 view .LVU450
 106:lib/tinyusb/src/common/tusb_fifo.c ****   while(full_words--)
 1303              		.loc 1 106 3 view .LVU451
 107:lib/tinyusb/src/common/tusb_fifo.c ****   {
 1304              		.loc 1 107 3 view .LVU452
 107:lib/tinyusb/src/common/tusb_fifo.c ****   {
 1305              		.loc 1 107 8 view .LVU453
 107:lib/tinyusb/src/common/tusb_fifo.c ****   {
 1306              		.loc 1 107 8 is_stmt 0 view .LVU454
 1307 01e6 5FEA9800 		lsrs	r0, r8, #2
 1308 01ea 11D0     		beq	.L90
 1309 01ec 0AEB8000 		add	r0, r10, r0, lsl #2
 1310              	.LVL150:
 1311              	.L80:
 109:lib/tinyusb/src/common/tusb_fifo.c ****     ff_buf += 4;
 1312              		.loc 1 109 5 is_stmt 1 view .LVU455
 1313 01f0 3B68     		ldr	r3, [r7]
 1314              	.LVL151:
 1315              	.LBB311:
 1316              	.LBI311:
 273:lib/tinyusb/src/common/tusb_common.h ****   *((uint32_t *) mem) = value;
 1317              		.loc 2 273 42 view .LVU456
 1318              	.LBB312:
 1319              		.loc 2 274 3 view .LVU457
 1320              		.loc 2 274 23 is_stmt 0 view .LVU458
 1321 01f2 4AF8043B 		str	r3, [r10], #4
 1322              	.LVL152:
 1323              		.loc 2 274 23 view .LVU459
 1324              	.LBE312:
 1325              	.LBE311:
 110:lib/tinyusb/src/common/tusb_fifo.c ****   }
 1326              		.loc 1 110 5 is_stmt 1 view .LVU460
 107:lib/tinyusb/src/common/tusb_fifo.c ****   {
 1327              		.loc 1 107 8 view .LVU461
 1328 01f6 8245     		cmp	r10, r0
 1329 01f8 FAD1     		bne	.L80
 1330              	.L79:
 114:lib/tinyusb/src/common/tusb_fifo.c ****   if ( bytes_rem )
 1331              		.loc 1 114 3 view .LVU462
 1332              	.LVL153:
 115:lib/tinyusb/src/common/tusb_fifo.c ****   {
 1333              		.loc 1 115 3 view .LVU463
ARM GAS  /tmp/claude-502/ccRWC2Fn.s 			page 46


 115:lib/tinyusb/src/common/tusb_fifo.c ****   {
 1334              		.loc 1 115 6 is_stmt 0 view .LVU464
 1335 01fa 18F00302 		ands	r2, r8, #3
 1336 01fe F0D0     		beq	.L107
 1337              	.LBB313:
 117:lib/tinyusb/src/common/tusb_fifo.c ****     memcpy(ff_buf, &tmp32, bytes_rem);
 1338              		.loc 1 117 5 is_stmt 1 view .LVU465
 117:lib/tinyusb/src/common/tusb_fifo.c ****     memcpy(ff_buf, &tmp32, bytes_rem);
 1339              		.loc 1 117 22 is_stmt 0 view .LVU466
 1340 0200 3B68     		ldr	r3, [r7]
 118:lib/tinyusb/src/common/tusb_fifo.c ****   }
 1341              		.loc 1 118 5 view .LVU467
 1342 0202 01A9     		add	r1, sp, #4
 117:lib/tinyusb/src/common/tusb_fifo.c ****     memcpy(ff_buf, &tmp32, bytes_rem);
 1343              		.loc 1 117 14 view .LVU468
 1344 0204 0193     		str	r3, [sp, #4]
 118:lib/tinyusb/src/common/tusb_fifo.c ****   }
 1345              		.loc 1 118 5 is_stmt 1 view .LVU469
 1346 0206 FFF7FEFF 		bl	memcpy
 1347              	.LVL154:
 1348 020a EAE7     		b	.L107
 1349              	.LVL155:
 1350              	.L89:
 118:lib/tinyusb/src/common/tusb_fifo.c ****   }
 1351              		.loc 1 118 5 is_stmt 0 view .LVU470
 1352              	.LBE313:
 1353              	.LBE310:
 1354              	.LBE309:
 1355              	.LBE316:
 1356              	.LBB317:
 1357              	.LBB295:
 107:lib/tinyusb/src/common/tusb_fifo.c ****   {
 1358              		.loc 1 107 8 view .LVU471
 1359 020c 8446     		mov	ip, r0
 1360              	.LVL156:
 107:lib/tinyusb/src/common/tusb_fifo.c ****   {
 1361              		.loc 1 107 8 view .LVU472
 1362 020e 91E7     		b	.L70
 1363              	.LVL157:
 1364              	.L90:
 107:lib/tinyusb/src/common/tusb_fifo.c ****   {
 1365              		.loc 1 107 8 view .LVU473
 1366              	.LBE295:
 1367              	.LBE317:
 1368              	.LBB318:
 1369              	.LBB315:
 1370              	.LBB314:
 1371 0210 5046     		mov	r0, r10
 1372 0212 F2E7     		b	.L79
 1373              	.LBE314:
 1374              	.LBE315:
 1375              	.LBE318:
 1376              	.LBE322:
 1377              	.LBE329:
 1378              	.LBE334:
 1379              		.cfi_endproc
 1380              	.LFE416:
ARM GAS  /tmp/claude-502/ccRWC2Fn.s 			page 47


 1382              		.section	.text.tu_fifo_config,"ax",%progbits
 1383              		.align	1
 1384              		.p2align 2,,3
 1385              		.global	tu_fifo_config
 1386              		.syntax unified
 1387              		.thumb
 1388              		.thumb_func
 1390              	tu_fifo_config:
 1391              	.LVL158:
 1392              	.LFB380:
  71:lib/tinyusb/src/common/tusb_fifo.c ****   // Limit index space to 2*depth - this allows for a fast "modulo" calculation
 1393              		.loc 1 71 1 is_stmt 1 view -0
 1394              		.cfi_startproc
 1395              		@ args = 4, pretend = 0, frame = 0
 1396              		@ frame_needed = 0, uses_anonymous_args = 0
 1397              		@ link register save eliminated.
  75:lib/tinyusb/src/common/tusb_fifo.c **** 
 1398              		.loc 1 75 3 view .LVU475
  75:lib/tinyusb/src/common/tusb_fifo.c **** 
 1399              		.loc 1 75 6 is_stmt 0 view .LVU476
 1400 0000 B2F5004F 		cmp	r2, #32768
  71:lib/tinyusb/src/common/tusb_fifo.c ****   // Limit index space to 2*depth - this allows for a fast "modulo" calculation
 1401              		.loc 1 71 1 view .LVU477
 1402 0004 8446     		mov	ip, r0
 1403 0006 9DF80000 		ldrb	r0, [sp]	@ zero_extendqisi2
 1404              	.LVL159:
  75:lib/tinyusb/src/common/tusb_fifo.c **** 
 1405              		.loc 1 75 6 view .LVU478
 1406 000a 10D8     		bhi	.L114
  77:lib/tinyusb/src/common/tusb_fifo.c ****   _ff_lock(f->mutex_rd);
 1407              		.loc 1 77 24 is_stmt 1 view .LVU479
  78:lib/tinyusb/src/common/tusb_fifo.c **** 
 1408              		.loc 1 78 24 view .LVU480
  80:lib/tinyusb/src/common/tusb_fifo.c ****   f->depth        = depth;
 1409              		.loc 1 80 3 view .LVU481
  82:lib/tinyusb/src/common/tusb_fifo.c ****   f->overwritable = overwritable;
 1410              		.loc 1 82 19 is_stmt 0 view .LVU482
 1411 000c C3F30E03 		ubfx	r3, r3, #0, #15
 1412              	.LVL160:
  80:lib/tinyusb/src/common/tusb_fifo.c ****   f->depth        = depth;
 1413              		.loc 1 80 19 view .LVU483
 1414 0010 CCF80010 		str	r1, [ip]
  81:lib/tinyusb/src/common/tusb_fifo.c ****   f->item_size    = (uint16_t) (item_size & 0x7FFF);
 1415              		.loc 1 81 3 is_stmt 1 view .LVU484
  84:lib/tinyusb/src/common/tusb_fifo.c ****   f->wr_idx       = 0;
 1416              		.loc 1 84 19 is_stmt 0 view .LVU485
 1417 0014 0021     		movs	r1, #0
 1418              	.LVL161:
  81:lib/tinyusb/src/common/tusb_fifo.c ****   f->item_size    = (uint16_t) (item_size & 0x7FFF);
 1419              		.loc 1 81 19 view .LVU486
 1420 0016 ACF80420 		strh	r2, [ip, #4]	@ movhi
  82:lib/tinyusb/src/common/tusb_fifo.c ****   f->overwritable = overwritable;
 1421              		.loc 1 82 3 is_stmt 1 view .LVU487
  83:lib/tinyusb/src/common/tusb_fifo.c ****   f->rd_idx       = 0;
 1422              		.loc 1 83 3 view .LVU488
  82:lib/tinyusb/src/common/tusb_fifo.c ****   f->overwritable = overwritable;
 1423              		.loc 1 82 19 is_stmt 0 view .LVU489
ARM GAS  /tmp/claude-502/ccRWC2Fn.s 			page 48


 1424 001a 43EAC033 		orr	r3, r3, r0, lsl #15
  90:lib/tinyusb/src/common/tusb_fifo.c **** }
 1425              		.loc 1 90 10 view .LVU490
 1426 001e 0120     		movs	r0, #1
  84:lib/tinyusb/src/common/tusb_fifo.c ****   f->wr_idx       = 0;
 1427              		.loc 1 84 19 view .LVU491
 1428 0020 ACF80A10 		strh	r1, [ip, #10]	@ movhi
  82:lib/tinyusb/src/common/tusb_fifo.c ****   f->overwritable = overwritable;
 1429              		.loc 1 82 19 view .LVU492
 1430 0024 ACF80630 		strh	r3, [ip, #6]	@ movhi
  84:lib/tinyusb/src/common/tusb_fifo.c ****   f->wr_idx       = 0;
 1431              		.loc 1 84 3 is_stmt 1 view .LVU493
  85:lib/tinyusb/src/common/tusb_fifo.c **** 
 1432              		.loc 1 85 3 view .LVU494
  87:lib/tinyusb/src/common/tusb_fifo.c ****   _ff_unlock(f->mutex_rd);
 1433              		.loc 1 87 26 view .LVU495
  88:lib/tinyusb/src/common/tusb_fifo.c **** 
 1434              		.loc 1 88 26 view .LVU496
  90:lib/tinyusb/src/common/tusb_fifo.c **** }
 1435              		.loc 1 90 3 view .LVU497
  85:lib/tinyusb/src/common/tusb_fifo.c **** 
 1436              		.loc 1 85 19 is_stmt 0 view .LVU498
 1437 0028 ACF80810 		strh	r1, [ip, #8]	@ movhi
  90:lib/tinyusb/src/common/tusb_fifo.c **** }
 1438              		.loc 1 90 10 view .LVU499
 1439 002c 7047     		bx	lr
 1440              	.LVL162:
 1441              	.L114:
  75:lib/tinyusb/src/common/tusb_fifo.c **** 
 1442              		.loc 1 75 30 view .LVU500
 1443 002e 0020     		movs	r0, #0
  91:lib/tinyusb/src/common/tusb_fifo.c **** 
 1444              		.loc 1 91 1 view .LVU501
 1445 0030 7047     		bx	lr
 1446              		.cfi_endproc
 1447              	.LFE380:
 1449 0032 00BF     		.section	.text.tu_fifo_count,"ax",%progbits
 1450              		.align	1
 1451              		.p2align 2,,3
 1452              		.global	tu_fifo_count
 1453              		.syntax unified
 1454              		.thumb
 1455              		.thumb_func
 1457              	tu_fifo_count:
 1458              	.LVL163:
 1459              	.LFB396:
 555:lib/tinyusb/src/common/tusb_fifo.c **** 
 556:lib/tinyusb/src/common/tusb_fifo.c **** static uint16_t _tu_fifo_read_n(tu_fifo_t* f, void * buffer, uint16_t n, tu_fifo_copy_mode_t copy_m
 557:lib/tinyusb/src/common/tusb_fifo.c **** {
 558:lib/tinyusb/src/common/tusb_fifo.c ****   _ff_lock(f->mutex_rd);
 559:lib/tinyusb/src/common/tusb_fifo.c **** 
 560:lib/tinyusb/src/common/tusb_fifo.c ****   // Peek the data
 561:lib/tinyusb/src/common/tusb_fifo.c ****   // f->rd_idx might get modified in case of an overflow so we can not use a local variable
 562:lib/tinyusb/src/common/tusb_fifo.c ****   n = _tu_fifo_peek_n(f, buffer, n, f->wr_idx, f->rd_idx, copy_mode);
 563:lib/tinyusb/src/common/tusb_fifo.c **** 
 564:lib/tinyusb/src/common/tusb_fifo.c ****   // Advance read pointer
 565:lib/tinyusb/src/common/tusb_fifo.c ****   f->rd_idx = advance_index(f->depth, f->rd_idx, n);
ARM GAS  /tmp/claude-502/ccRWC2Fn.s 			page 49


 566:lib/tinyusb/src/common/tusb_fifo.c **** 
 567:lib/tinyusb/src/common/tusb_fifo.c ****   _ff_unlock(f->mutex_rd);
 568:lib/tinyusb/src/common/tusb_fifo.c ****   return n;
 569:lib/tinyusb/src/common/tusb_fifo.c **** }
 570:lib/tinyusb/src/common/tusb_fifo.c **** 
 571:lib/tinyusb/src/common/tusb_fifo.c **** //--------------------------------------------------------------------+
 572:lib/tinyusb/src/common/tusb_fifo.c **** // Application API
 573:lib/tinyusb/src/common/tusb_fifo.c **** //--------------------------------------------------------------------+
 574:lib/tinyusb/src/common/tusb_fifo.c **** 
 575:lib/tinyusb/src/common/tusb_fifo.c **** /******************************************************************************/
 576:lib/tinyusb/src/common/tusb_fifo.c **** /*!
 577:lib/tinyusb/src/common/tusb_fifo.c ****     @brief Get number of items in FIFO.
 578:lib/tinyusb/src/common/tusb_fifo.c **** 
 579:lib/tinyusb/src/common/tusb_fifo.c ****     As this function only reads the read and write pointers once, this function is
 580:lib/tinyusb/src/common/tusb_fifo.c ****     reentrant and thus thread and ISR save without any mutexes. In case an
 581:lib/tinyusb/src/common/tusb_fifo.c ****     overflow occurred, this function return f.depth at maximum. Overflows are
 582:lib/tinyusb/src/common/tusb_fifo.c ****     checked and corrected for in the read functions!
 583:lib/tinyusb/src/common/tusb_fifo.c **** 
 584:lib/tinyusb/src/common/tusb_fifo.c ****     @param[in]  f
 585:lib/tinyusb/src/common/tusb_fifo.c ****                 Pointer to the FIFO buffer to manipulate
 586:lib/tinyusb/src/common/tusb_fifo.c **** 
 587:lib/tinyusb/src/common/tusb_fifo.c ****     @returns Number of items in FIFO
 588:lib/tinyusb/src/common/tusb_fifo.c ****  */
 589:lib/tinyusb/src/common/tusb_fifo.c **** /******************************************************************************/
 590:lib/tinyusb/src/common/tusb_fifo.c **** uint16_t tu_fifo_count(tu_fifo_t* f)
 591:lib/tinyusb/src/common/tusb_fifo.c **** {
 1460              		.loc 1 591 1 is_stmt 1 view -0
 1461              		.cfi_startproc
 1462              		@ args = 0, pretend = 0, frame = 0
 1463              		@ frame_needed = 0, uses_anonymous_args = 0
 1464              		@ link register save eliminated.
 592:lib/tinyusb/src/common/tusb_fifo.c ****   return tu_min16(_ff_count(f->depth, f->wr_idx, f->rd_idx), f->depth);
 1465              		.loc 1 592 3 view .LVU503
 1466              		.loc 1 592 10 is_stmt 0 view .LVU504
 1467 0000 0389     		ldrh	r3, [r0, #8]
 1468 0002 4289     		ldrh	r2, [r0, #10]
 1469 0004 9BB2     		uxth	r3, r3
 1470 0006 8088     		ldrh	r0, [r0, #4]
 1471              	.LVL164:
 1472              		.loc 1 592 10 view .LVU505
 1473 0008 92B2     		uxth	r2, r2
 1474              	.LVL165:
 1475              	.LBB335:
 1476              	.LBI335:
 330:lib/tinyusb/src/common/tusb_fifo.c **** {
 1477              		.loc 1 330 10 is_stmt 1 view .LVU506
 1478              	.LBB336:
 333:lib/tinyusb/src/common/tusb_fifo.c ****   {
 1479              		.loc 1 333 3 view .LVU507
 333:lib/tinyusb/src/common/tusb_fifo.c ****   {
 1480              		.loc 1 333 6 is_stmt 0 view .LVU508
 1481 000a 9342     		cmp	r3, r2
 1482 000c 05D3     		bcc	.L116
 335:lib/tinyusb/src/common/tusb_fifo.c ****   } else
 1483              		.loc 1 335 5 is_stmt 1 view .LVU509
 1484              	.LVL166:
 335:lib/tinyusb/src/common/tusb_fifo.c ****   } else
ARM GAS  /tmp/claude-502/ccRWC2Fn.s 			page 50


 1485              		.loc 1 335 12 is_stmt 0 view .LVU510
 1486 000e 9B1A     		subs	r3, r3, r2
 1487 0010 9BB2     		uxth	r3, r3
 1488              	.LVL167:
 335:lib/tinyusb/src/common/tusb_fifo.c ****   } else
 1489              		.loc 1 335 12 view .LVU511
 1490              	.LBE336:
 1491              	.LBE335:
 1492              	.LBB338:
 1493              	.LBI338:
 151:lib/tinyusb/src/common/tusb_common.h **** TU_ATTR_ALWAYS_INLINE static inline uint32_t tu_min32 (uint32_t x, uint32_t y) { return (x < y) ? x
 1494              		.loc 2 151 46 is_stmt 1 view .LVU512
 1495              	.LBB339:
 151:lib/tinyusb/src/common/tusb_common.h **** TU_ATTR_ALWAYS_INLINE static inline uint32_t tu_min32 (uint32_t x, uint32_t y) { return (x < y) ? x
 1496              		.loc 2 151 82 view .LVU513
 151:lib/tinyusb/src/common/tusb_common.h **** TU_ATTR_ALWAYS_INLINE static inline uint32_t tu_min32 (uint32_t x, uint32_t y) { return (x < y) ? x
 1497              		.loc 2 151 82 is_stmt 0 view .LVU514
 1498              	.LBE339:
 1499              	.LBE338:
 593:lib/tinyusb/src/common/tusb_fifo.c **** }
 1500              		.loc 1 593 1 view .LVU515
 1501 0012 9842     		cmp	r0, r3
 1502 0014 28BF     		it	cs
 1503 0016 1846     		movcs	r0, r3
 1504 0018 7047     		bx	lr
 1505              	.LVL168:
 1506              	.L116:
 1507              	.LBB341:
 1508              	.LBB337:
 338:lib/tinyusb/src/common/tusb_fifo.c ****   }
 1509              		.loc 1 338 5 is_stmt 1 view .LVU516
 338:lib/tinyusb/src/common/tusb_fifo.c ****   }
 1510              		.loc 1 338 12 is_stmt 0 view .LVU517
 1511 001a C2EB4002 		rsb	r2, r2, r0, lsl #1
 1512              	.LVL169:
 338:lib/tinyusb/src/common/tusb_fifo.c ****   }
 1513              		.loc 1 338 12 view .LVU518
 1514 001e 1344     		add	r3, r3, r2
 1515              	.LVL170:
 338:lib/tinyusb/src/common/tusb_fifo.c ****   }
 1516              		.loc 1 338 12 view .LVU519
 1517 0020 9BB2     		uxth	r3, r3
 1518              	.LVL171:
 338:lib/tinyusb/src/common/tusb_fifo.c ****   }
 1519              		.loc 1 338 12 view .LVU520
 1520              	.LBE337:
 1521              	.LBE341:
 1522              	.LBB342:
 151:lib/tinyusb/src/common/tusb_common.h **** TU_ATTR_ALWAYS_INLINE static inline uint32_t tu_min32 (uint32_t x, uint32_t y) { return (x < y) ? x
 1523              		.loc 2 151 46 is_stmt 1 view .LVU521
 1524              	.LBB340:
 151:lib/tinyusb/src/common/tusb_common.h **** TU_ATTR_ALWAYS_INLINE static inline uint32_t tu_min32 (uint32_t x, uint32_t y) { return (x < y) ? x
 1525              		.loc 2 151 82 view .LVU522
 151:lib/tinyusb/src/common/tusb_common.h **** TU_ATTR_ALWAYS_INLINE static inline uint32_t tu_min32 (uint32_t x, uint32_t y) { return (x < y) ? x
 1526              		.loc 2 151 82 is_stmt 0 view .LVU523
 1527              	.LBE340:
 1528              	.LBE342:
ARM GAS  /tmp/claude-502/ccRWC2Fn.s 			page 51


 1529              		.loc 1 593 1 view .LVU524
 1530 0022 9842     		cmp	r0, r3
 1531 0024 28BF     		it	cs
 1532 0026 1846     		movcs	r0, r3
 1533 0028 7047     		bx	lr
 1534              		.cfi_endproc
 1535              	.LFE396:
 1537 002a 00BF     		.section	.text.tu_fifo_empty,"ax",%progbits
 1538              		.align	1
 1539              		.p2align 2,,3
 1540              		.global	tu_fifo_empty
 1541              		.syntax unified
 1542              		.thumb
 1543              		.thumb_func
 1545              	tu_fifo_empty:
 1546              	.LVL172:
 1547              	.LFB397:
 594:lib/tinyusb/src/common/tusb_fifo.c **** 
 595:lib/tinyusb/src/common/tusb_fifo.c **** /******************************************************************************/
 596:lib/tinyusb/src/common/tusb_fifo.c **** /*!
 597:lib/tinyusb/src/common/tusb_fifo.c ****     @brief Check if FIFO is empty.
 598:lib/tinyusb/src/common/tusb_fifo.c **** 
 599:lib/tinyusb/src/common/tusb_fifo.c ****     As this function only reads the read and write pointers once, this function is
 600:lib/tinyusb/src/common/tusb_fifo.c ****     reentrant and thus thread and ISR save without any mutexes.
 601:lib/tinyusb/src/common/tusb_fifo.c **** 
 602:lib/tinyusb/src/common/tusb_fifo.c ****     @param[in]  f
 603:lib/tinyusb/src/common/tusb_fifo.c ****                 Pointer to the FIFO buffer to manipulate
 604:lib/tinyusb/src/common/tusb_fifo.c **** 
 605:lib/tinyusb/src/common/tusb_fifo.c ****     @returns Number of items in FIFO
 606:lib/tinyusb/src/common/tusb_fifo.c ****  */
 607:lib/tinyusb/src/common/tusb_fifo.c **** /******************************************************************************/
 608:lib/tinyusb/src/common/tusb_fifo.c **** bool tu_fifo_empty(tu_fifo_t* f)
 609:lib/tinyusb/src/common/tusb_fifo.c **** {
 1548              		.loc 1 609 1 is_stmt 1 view -0
 1549              		.cfi_startproc
 1550              		@ args = 0, pretend = 0, frame = 0
 1551              		@ frame_needed = 0, uses_anonymous_args = 0
 1552              		@ link register save eliminated.
 610:lib/tinyusb/src/common/tusb_fifo.c ****   return f->wr_idx == f->rd_idx;
 1553              		.loc 1 610 3 view .LVU526
 1554              		.loc 1 610 11 is_stmt 0 view .LVU527
 1555 0000 0289     		ldrh	r2, [r0, #8]
 1556              		.loc 1 610 24 view .LVU528
 1557 0002 4389     		ldrh	r3, [r0, #10]
 1558              		.loc 1 610 11 view .LVU529
 1559 0004 90B2     		uxth	r0, r2
 1560              	.LVL173:
 1561              		.loc 1 610 24 view .LVU530
 1562 0006 9BB2     		uxth	r3, r3
 611:lib/tinyusb/src/common/tusb_fifo.c **** }
 1563              		.loc 1 611 1 view .LVU531
 1564 0008 C01A     		subs	r0, r0, r3
 1565 000a B0FA80F0 		clz	r0, r0
 1566 000e 4009     		lsrs	r0, r0, #5
 1567 0010 7047     		bx	lr
 1568              		.cfi_endproc
 1569              	.LFE397:
ARM GAS  /tmp/claude-502/ccRWC2Fn.s 			page 52


 1571 0012 00BF     		.section	.text.tu_fifo_full,"ax",%progbits
 1572              		.align	1
 1573              		.p2align 2,,3
 1574              		.global	tu_fifo_full
 1575              		.syntax unified
 1576              		.thumb
 1577              		.thumb_func
 1579              	tu_fifo_full:
 1580              	.LVL174:
 1581              	.LFB398:
 612:lib/tinyusb/src/common/tusb_fifo.c **** 
 613:lib/tinyusb/src/common/tusb_fifo.c **** /******************************************************************************/
 614:lib/tinyusb/src/common/tusb_fifo.c **** /*!
 615:lib/tinyusb/src/common/tusb_fifo.c ****     @brief Check if FIFO is full.
 616:lib/tinyusb/src/common/tusb_fifo.c **** 
 617:lib/tinyusb/src/common/tusb_fifo.c ****     As this function only reads the read and write pointers once, this function is
 618:lib/tinyusb/src/common/tusb_fifo.c ****     reentrant and thus thread and ISR save without any mutexes.
 619:lib/tinyusb/src/common/tusb_fifo.c **** 
 620:lib/tinyusb/src/common/tusb_fifo.c ****     @param[in]  f
 621:lib/tinyusb/src/common/tusb_fifo.c ****                 Pointer to the FIFO buffer to manipulate
 622:lib/tinyusb/src/common/tusb_fifo.c **** 
 623:lib/tinyusb/src/common/tusb_fifo.c ****     @returns Number of items in FIFO
 624:lib/tinyusb/src/common/tusb_fifo.c ****  */
 625:lib/tinyusb/src/common/tusb_fifo.c **** /******************************************************************************/
 626:lib/tinyusb/src/common/tusb_fifo.c **** bool tu_fifo_full(tu_fifo_t* f)
 627:lib/tinyusb/src/common/tusb_fifo.c **** {
 1582              		.loc 1 627 1 is_stmt 1 view -0
 1583              		.cfi_startproc
 1584              		@ args = 0, pretend = 0, frame = 0
 1585              		@ frame_needed = 0, uses_anonymous_args = 0
 1586              		@ link register save eliminated.
 628:lib/tinyusb/src/common/tusb_fifo.c ****   return _ff_count(f->depth, f->wr_idx, f->rd_idx) >= f->depth;
 1587              		.loc 1 628 3 view .LVU533
 1588              		.loc 1 628 10 is_stmt 0 view .LVU534
 1589 0000 0389     		ldrh	r3, [r0, #8]
 1590 0002 4289     		ldrh	r2, [r0, #10]
 1591 0004 9BB2     		uxth	r3, r3
 1592 0006 8088     		ldrh	r0, [r0, #4]
 1593              	.LVL175:
 1594              		.loc 1 628 10 view .LVU535
 1595 0008 92B2     		uxth	r2, r2
 1596              	.LVL176:
 1597              	.LBB343:
 1598              	.LBI343:
 330:lib/tinyusb/src/common/tusb_fifo.c **** {
 1599              		.loc 1 330 10 is_stmt 1 view .LVU536
 1600              	.LBB344:
 333:lib/tinyusb/src/common/tusb_fifo.c ****   {
 1601              		.loc 1 333 3 view .LVU537
 333:lib/tinyusb/src/common/tusb_fifo.c ****   {
 1602              		.loc 1 333 6 is_stmt 0 view .LVU538
 1603 000a 9342     		cmp	r3, r2
 1604 000c 06D3     		bcc	.L120
 335:lib/tinyusb/src/common/tusb_fifo.c ****   } else
 1605              		.loc 1 335 5 is_stmt 1 view .LVU539
 335:lib/tinyusb/src/common/tusb_fifo.c ****   } else
 1606              		.loc 1 335 12 is_stmt 0 view .LVU540
ARM GAS  /tmp/claude-502/ccRWC2Fn.s 			page 53


 1607 000e 9B1A     		subs	r3, r3, r2
 1608              	.LVL177:
 335:lib/tinyusb/src/common/tusb_fifo.c ****   } else
 1609              		.loc 1 335 12 view .LVU541
 1610 0010 9BB2     		uxth	r3, r3
 1611              	.LVL178:
 1612              	.L121:
 335:lib/tinyusb/src/common/tusb_fifo.c ****   } else
 1613              		.loc 1 335 12 view .LVU542
 1614              	.LBE344:
 1615              	.LBE343:
 629:lib/tinyusb/src/common/tusb_fifo.c **** }
 1616              		.loc 1 629 1 view .LVU543
 1617 0012 9842     		cmp	r0, r3
 1618 0014 8CBF     		ite	hi
 1619 0016 0020     		movhi	r0, #0
 1620 0018 0120     		movls	r0, #1
 1621 001a 7047     		bx	lr
 1622              	.LVL179:
 1623              	.L120:
 1624              	.LBB346:
 1625              	.LBB345:
 338:lib/tinyusb/src/common/tusb_fifo.c ****   }
 1626              		.loc 1 338 5 is_stmt 1 view .LVU544
 338:lib/tinyusb/src/common/tusb_fifo.c ****   }
 1627              		.loc 1 338 12 is_stmt 0 view .LVU545
 1628 001c C2EB4002 		rsb	r2, r2, r0, lsl #1
 1629              	.LVL180:
 338:lib/tinyusb/src/common/tusb_fifo.c ****   }
 1630              		.loc 1 338 12 view .LVU546
 1631 0020 1344     		add	r3, r3, r2
 1632              	.LVL181:
 338:lib/tinyusb/src/common/tusb_fifo.c ****   }
 1633              		.loc 1 338 12 view .LVU547
 1634 0022 9BB2     		uxth	r3, r3
 1635 0024 F5E7     		b	.L121
 1636              	.LBE345:
 1637              	.LBE346:
 1638              		.cfi_endproc
 1639              	.LFE398:
 1641 0026 00BF     		.section	.text.tu_fifo_remaining,"ax",%progbits
 1642              		.align	1
 1643              		.p2align 2,,3
 1644              		.global	tu_fifo_remaining
 1645              		.syntax unified
 1646              		.thumb
 1647              		.thumb_func
 1649              	tu_fifo_remaining:
 1650              	.LVL182:
 1651              	.LFB399:
 630:lib/tinyusb/src/common/tusb_fifo.c **** 
 631:lib/tinyusb/src/common/tusb_fifo.c **** /******************************************************************************/
 632:lib/tinyusb/src/common/tusb_fifo.c **** /*!
 633:lib/tinyusb/src/common/tusb_fifo.c ****     @brief Get remaining space in FIFO.
 634:lib/tinyusb/src/common/tusb_fifo.c **** 
 635:lib/tinyusb/src/common/tusb_fifo.c ****     As this function only reads the read and write pointers once, this function is
 636:lib/tinyusb/src/common/tusb_fifo.c ****     reentrant and thus thread and ISR save without any mutexes.
ARM GAS  /tmp/claude-502/ccRWC2Fn.s 			page 54


 637:lib/tinyusb/src/common/tusb_fifo.c **** 
 638:lib/tinyusb/src/common/tusb_fifo.c ****     @param[in]  f
 639:lib/tinyusb/src/common/tusb_fifo.c ****                 Pointer to the FIFO buffer to manipulate
 640:lib/tinyusb/src/common/tusb_fifo.c **** 
 641:lib/tinyusb/src/common/tusb_fifo.c ****     @returns Number of items in FIFO
 642:lib/tinyusb/src/common/tusb_fifo.c ****  */
 643:lib/tinyusb/src/common/tusb_fifo.c **** /******************************************************************************/
 644:lib/tinyusb/src/common/tusb_fifo.c **** uint16_t tu_fifo_remaining(tu_fifo_t* f)
 645:lib/tinyusb/src/common/tusb_fifo.c **** {
 1652              		.loc 1 645 1 is_stmt 1 view -0
 1653              		.cfi_startproc
 1654              		@ args = 0, pretend = 0, frame = 0
 1655              		@ frame_needed = 0, uses_anonymous_args = 0
 1656              		@ link register save eliminated.
 646:lib/tinyusb/src/common/tusb_fifo.c ****   return _ff_remaining(f->depth, f->wr_idx, f->rd_idx);
 1657              		.loc 1 646 3 view .LVU549
 1658              		.loc 1 646 10 is_stmt 0 view .LVU550
 1659 0000 0389     		ldrh	r3, [r0, #8]
 1660 0002 4289     		ldrh	r2, [r0, #10]
 1661 0004 9BB2     		uxth	r3, r3
 1662 0006 8088     		ldrh	r0, [r0, #4]
 1663              	.LVL183:
 1664              		.loc 1 646 10 view .LVU551
 1665 0008 92B2     		uxth	r2, r2
 1666              	.LVL184:
 1667              	.LBB347:
 1668              	.LBI347:
 344:lib/tinyusb/src/common/tusb_fifo.c **** {
 1669              		.loc 1 344 10 is_stmt 1 view .LVU552
 1670              	.LBB348:
 346:lib/tinyusb/src/common/tusb_fifo.c ****   return (depth > count) ? (depth - count) : 0;
 1671              		.loc 1 346 3 view .LVU553
 1672              	.LBB349:
 1673              	.LBI349:
 330:lib/tinyusb/src/common/tusb_fifo.c **** {
 1674              		.loc 1 330 10 view .LVU554
 1675              	.LBB350:
 333:lib/tinyusb/src/common/tusb_fifo.c ****   {
 1676              		.loc 1 333 3 view .LVU555
 333:lib/tinyusb/src/common/tusb_fifo.c ****   {
 1677              		.loc 1 333 6 is_stmt 0 view .LVU556
 1678 000a 9342     		cmp	r3, r2
 1679 000c 06D3     		bcc	.L123
 335:lib/tinyusb/src/common/tusb_fifo.c ****   } else
 1680              		.loc 1 335 5 is_stmt 1 view .LVU557
 335:lib/tinyusb/src/common/tusb_fifo.c ****   } else
 1681              		.loc 1 335 12 is_stmt 0 view .LVU558
 1682 000e 9B1A     		subs	r3, r3, r2
 1683              	.LVL185:
 335:lib/tinyusb/src/common/tusb_fifo.c ****   } else
 1684              		.loc 1 335 12 view .LVU559
 1685 0010 9BB2     		uxth	r3, r3
 1686              	.LVL186:
 335:lib/tinyusb/src/common/tusb_fifo.c ****   } else
 1687              		.loc 1 335 12 view .LVU560
 1688              	.LBE350:
 1689              	.LBE349:
ARM GAS  /tmp/claude-502/ccRWC2Fn.s 			page 55


 347:lib/tinyusb/src/common/tusb_fifo.c **** }
 1690              		.loc 1 347 3 is_stmt 1 view .LVU561
 347:lib/tinyusb/src/common/tusb_fifo.c **** }
 1691              		.loc 1 347 44 is_stmt 0 view .LVU562
 1692 0012 9842     		cmp	r0, r3
 1693 0014 08D9     		bls	.L126
 1694              	.LVL187:
 1695              	.L127:
 347:lib/tinyusb/src/common/tusb_fifo.c **** }
 1696              		.loc 1 347 44 view .LVU563
 1697 0016 C01A     		subs	r0, r0, r3
 1698              	.LVL188:
 347:lib/tinyusb/src/common/tusb_fifo.c **** }
 1699              		.loc 1 347 44 view .LVU564
 1700 0018 80B2     		uxth	r0, r0
 1701 001a 7047     		bx	lr
 1702              	.LVL189:
 1703              	.L123:
 1704              	.LBB352:
 1705              	.LBB351:
 338:lib/tinyusb/src/common/tusb_fifo.c ****   }
 1706              		.loc 1 338 5 is_stmt 1 view .LVU565
 338:lib/tinyusb/src/common/tusb_fifo.c ****   }
 1707              		.loc 1 338 12 is_stmt 0 view .LVU566
 1708 001c C2EB4002 		rsb	r2, r2, r0, lsl #1
 1709              	.LVL190:
 338:lib/tinyusb/src/common/tusb_fifo.c ****   }
 1710              		.loc 1 338 12 view .LVU567
 1711 0020 1344     		add	r3, r3, r2
 1712              	.LVL191:
 338:lib/tinyusb/src/common/tusb_fifo.c ****   }
 1713              		.loc 1 338 12 view .LVU568
 1714 0022 9BB2     		uxth	r3, r3
 1715              	.LVL192:
 338:lib/tinyusb/src/common/tusb_fifo.c ****   }
 1716              		.loc 1 338 12 view .LVU569
 1717              	.LBE351:
 1718              	.LBE352:
 347:lib/tinyusb/src/common/tusb_fifo.c **** }
 1719              		.loc 1 347 3 is_stmt 1 view .LVU570
 347:lib/tinyusb/src/common/tusb_fifo.c **** }
 1720              		.loc 1 347 44 is_stmt 0 view .LVU571
 1721 0024 9842     		cmp	r0, r3
 1722 0026 F6D8     		bhi	.L127
 1723              	.L126:
 347:lib/tinyusb/src/common/tusb_fifo.c **** }
 1724              		.loc 1 347 44 view .LVU572
 1725 0028 0020     		movs	r0, #0
 1726              	.LVL193:
 347:lib/tinyusb/src/common/tusb_fifo.c **** }
 1727              		.loc 1 347 44 view .LVU573
 1728              	.LBE348:
 1729              	.LBE347:
 647:lib/tinyusb/src/common/tusb_fifo.c **** }
 1730              		.loc 1 647 1 view .LVU574
 1731 002a 7047     		bx	lr
 1732              		.cfi_endproc
ARM GAS  /tmp/claude-502/ccRWC2Fn.s 			page 56


 1733              	.LFE399:
 1735              		.section	.text.tu_fifo_overflowed,"ax",%progbits
 1736              		.align	1
 1737              		.p2align 2,,3
 1738              		.global	tu_fifo_overflowed
 1739              		.syntax unified
 1740              		.thumb
 1741              		.thumb_func
 1743              	tu_fifo_overflowed:
 1744              	.LVL194:
 1745              	.LFB400:
 648:lib/tinyusb/src/common/tusb_fifo.c **** 
 649:lib/tinyusb/src/common/tusb_fifo.c **** /******************************************************************************/
 650:lib/tinyusb/src/common/tusb_fifo.c **** /*!
 651:lib/tinyusb/src/common/tusb_fifo.c ****     @brief Check if overflow happened.
 652:lib/tinyusb/src/common/tusb_fifo.c **** 
 653:lib/tinyusb/src/common/tusb_fifo.c ****      BE AWARE - THIS FUNCTION MIGHT NOT GIVE A CORRECT ANSWERE IN CASE WRITE POINTER "OVERFLOWS"
 654:lib/tinyusb/src/common/tusb_fifo.c ****      Only one overflow is allowed for this function to work e.g. if depth = 100, you must not
 655:lib/tinyusb/src/common/tusb_fifo.c ****      write more than 2*depth-1 items in one rush without updating write pointer. Otherwise
 656:lib/tinyusb/src/common/tusb_fifo.c ****      write pointer wraps and your pointer states are messed up. This can only happen if you
 657:lib/tinyusb/src/common/tusb_fifo.c ****      use DMAs, write functions do not allow such an error. Avoid such nasty things!
 658:lib/tinyusb/src/common/tusb_fifo.c **** 
 659:lib/tinyusb/src/common/tusb_fifo.c ****      All reading functions (read, peek) check for overflows and correct read pointer on their own s
 660:lib/tinyusb/src/common/tusb_fifo.c ****      that latest items are read.
 661:lib/tinyusb/src/common/tusb_fifo.c ****      If required (e.g. for DMA use) you can also correct the read pointer by
 662:lib/tinyusb/src/common/tusb_fifo.c ****      tu_fifo_correct_read_pointer().
 663:lib/tinyusb/src/common/tusb_fifo.c **** 
 664:lib/tinyusb/src/common/tusb_fifo.c ****     @param[in]  f
 665:lib/tinyusb/src/common/tusb_fifo.c ****                 Pointer to the FIFO buffer to manipulate
 666:lib/tinyusb/src/common/tusb_fifo.c **** 
 667:lib/tinyusb/src/common/tusb_fifo.c ****     @returns True if overflow happened
 668:lib/tinyusb/src/common/tusb_fifo.c ****  */
 669:lib/tinyusb/src/common/tusb_fifo.c **** /******************************************************************************/
 670:lib/tinyusb/src/common/tusb_fifo.c **** bool tu_fifo_overflowed(tu_fifo_t* f)
 671:lib/tinyusb/src/common/tusb_fifo.c **** {
 1746              		.loc 1 671 1 is_stmt 1 view -0
 1747              		.cfi_startproc
 1748              		@ args = 0, pretend = 0, frame = 0
 1749              		@ frame_needed = 0, uses_anonymous_args = 0
 1750              		@ link register save eliminated.
 672:lib/tinyusb/src/common/tusb_fifo.c ****   return _ff_count(f->depth, f->wr_idx, f->rd_idx) > f->depth;
 1751              		.loc 1 672 3 view .LVU576
 1752              		.loc 1 672 10 is_stmt 0 view .LVU577
 1753 0000 0389     		ldrh	r3, [r0, #8]
 1754 0002 4289     		ldrh	r2, [r0, #10]
 1755 0004 9BB2     		uxth	r3, r3
 1756 0006 8088     		ldrh	r0, [r0, #4]
 1757              	.LVL195:
 1758              		.loc 1 672 10 view .LVU578
 1759 0008 92B2     		uxth	r2, r2
 1760              	.LVL196:
 1761              	.LBB353:
 1762              	.LBI353:
 330:lib/tinyusb/src/common/tusb_fifo.c **** {
 1763              		.loc 1 330 10 is_stmt 1 view .LVU579
 1764              	.LBB354:
 333:lib/tinyusb/src/common/tusb_fifo.c ****   {
ARM GAS  /tmp/claude-502/ccRWC2Fn.s 			page 57


 1765              		.loc 1 333 3 view .LVU580
 333:lib/tinyusb/src/common/tusb_fifo.c ****   {
 1766              		.loc 1 333 6 is_stmt 0 view .LVU581
 1767 000a 9342     		cmp	r3, r2
 1768 000c 06D3     		bcc	.L129
 335:lib/tinyusb/src/common/tusb_fifo.c ****   } else
 1769              		.loc 1 335 5 is_stmt 1 view .LVU582
 335:lib/tinyusb/src/common/tusb_fifo.c ****   } else
 1770              		.loc 1 335 12 is_stmt 0 view .LVU583
 1771 000e 9B1A     		subs	r3, r3, r2
 1772              	.LVL197:
 335:lib/tinyusb/src/common/tusb_fifo.c ****   } else
 1773              		.loc 1 335 12 view .LVU584
 1774 0010 9BB2     		uxth	r3, r3
 1775              	.LVL198:
 1776              	.L130:
 335:lib/tinyusb/src/common/tusb_fifo.c ****   } else
 1777              		.loc 1 335 12 view .LVU585
 1778              	.LBE354:
 1779              	.LBE353:
 673:lib/tinyusb/src/common/tusb_fifo.c **** }
 1780              		.loc 1 673 1 view .LVU586
 1781 0012 9842     		cmp	r0, r3
 1782 0014 2CBF     		ite	cs
 1783 0016 0020     		movcs	r0, #0
 1784 0018 0120     		movcc	r0, #1
 1785 001a 7047     		bx	lr
 1786              	.LVL199:
 1787              	.L129:
 1788              	.LBB356:
 1789              	.LBB355:
 338:lib/tinyusb/src/common/tusb_fifo.c ****   }
 1790              		.loc 1 338 5 is_stmt 1 view .LVU587
 338:lib/tinyusb/src/common/tusb_fifo.c ****   }
 1791              		.loc 1 338 12 is_stmt 0 view .LVU588
 1792 001c C2EB4002 		rsb	r2, r2, r0, lsl #1
 1793              	.LVL200:
 338:lib/tinyusb/src/common/tusb_fifo.c ****   }
 1794              		.loc 1 338 12 view .LVU589
 1795 0020 1344     		add	r3, r3, r2
 1796              	.LVL201:
 338:lib/tinyusb/src/common/tusb_fifo.c ****   }
 1797              		.loc 1 338 12 view .LVU590
 1798 0022 9BB2     		uxth	r3, r3
 1799 0024 F5E7     		b	.L130
 1800              	.LBE355:
 1801              	.LBE356:
 1802              		.cfi_endproc
 1803              	.LFE400:
 1805 0026 00BF     		.section	.text.tu_fifo_correct_read_pointer,"ax",%progbits
 1806              		.align	1
 1807              		.p2align 2,,3
 1808              		.global	tu_fifo_correct_read_pointer
 1809              		.syntax unified
 1810              		.thumb
 1811              		.thumb_func
 1813              	tu_fifo_correct_read_pointer:
ARM GAS  /tmp/claude-502/ccRWC2Fn.s 			page 58


 1814              	.LVL202:
 1815              	.LFB401:
 674:lib/tinyusb/src/common/tusb_fifo.c **** 
 675:lib/tinyusb/src/common/tusb_fifo.c **** // Only use in case tu_fifo_overflow() returned true!
 676:lib/tinyusb/src/common/tusb_fifo.c **** void tu_fifo_correct_read_pointer(tu_fifo_t* f)
 677:lib/tinyusb/src/common/tusb_fifo.c **** {
 1816              		.loc 1 677 1 is_stmt 1 view -0
 1817              		.cfi_startproc
 1818              		@ args = 0, pretend = 0, frame = 0
 1819              		@ frame_needed = 0, uses_anonymous_args = 0
 1820              		@ link register save eliminated.
 678:lib/tinyusb/src/common/tusb_fifo.c ****   _ff_lock(f->mutex_rd);
 1821              		.loc 1 678 24 view .LVU592
 679:lib/tinyusb/src/common/tusb_fifo.c ****   _ff_correct_read_index(f, f->wr_idx);
 1822              		.loc 1 679 3 view .LVU593
 1823 0000 0389     		ldrh	r3, [r0, #8]
 1824              	.LBB357:
 1825              	.LBB358:
 405:lib/tinyusb/src/common/tusb_fifo.c ****   {
 1826              		.loc 1 405 19 is_stmt 0 view .LVU594
 1827 0002 8288     		ldrh	r2, [r0, #4]
 1828              	.LBE358:
 1829              	.LBE357:
 1830              		.loc 1 679 3 view .LVU595
 1831 0004 9BB2     		uxth	r3, r3
 1832              	.LVL203:
 1833              	.LBB360:
 1834              	.LBI357:
 402:lib/tinyusb/src/common/tusb_fifo.c **** {
 1835              		.loc 1 402 10 is_stmt 1 view .LVU596
 1836              	.LBB359:
 404:lib/tinyusb/src/common/tusb_fifo.c ****   if ( wr_idx >= f->depth )
 1837              		.loc 1 404 3 view .LVU597
 405:lib/tinyusb/src/common/tusb_fifo.c ****   {
 1838              		.loc 1 405 3 view .LVU598
 405:lib/tinyusb/src/common/tusb_fifo.c ****   {
 1839              		.loc 1 405 6 is_stmt 0 view .LVU599
 1840 0006 9342     		cmp	r3, r2
 407:lib/tinyusb/src/common/tusb_fifo.c ****   }else
 1841              		.loc 1 407 5 is_stmt 1 view .LVU600
 407:lib/tinyusb/src/common/tusb_fifo.c ****   }else
 1842              		.loc 1 407 12 is_stmt 0 view .LVU601
 1843 0008 2CBF     		ite	cs
 1844 000a 9B1A     		subcs	r3, r3, r2
 1845              	.LVL204:
 410:lib/tinyusb/src/common/tusb_fifo.c ****   }
 1846              		.loc 1 410 5 is_stmt 1 view .LVU602
 410:lib/tinyusb/src/common/tusb_fifo.c ****   }
 1847              		.loc 1 410 12 is_stmt 0 view .LVU603
 1848 000c 9B18     		addcc	r3, r3, r2
 1849 000e 9BB2     		uxth	r3, r3
 1850              	.LVL205:
 413:lib/tinyusb/src/common/tusb_fifo.c **** 
 1851              		.loc 1 413 3 is_stmt 1 view .LVU604
 413:lib/tinyusb/src/common/tusb_fifo.c **** 
 1852              		.loc 1 413 13 is_stmt 0 view .LVU605
 1853 0010 4381     		strh	r3, [r0, #10]	@ movhi
ARM GAS  /tmp/claude-502/ccRWC2Fn.s 			page 59


 415:lib/tinyusb/src/common/tusb_fifo.c **** }
 1854              		.loc 1 415 3 is_stmt 1 view .LVU606
 1855              	.LVL206:
 415:lib/tinyusb/src/common/tusb_fifo.c **** }
 1856              		.loc 1 415 3 is_stmt 0 view .LVU607
 1857              	.LBE359:
 1858              	.LBE360:
 680:lib/tinyusb/src/common/tusb_fifo.c ****   _ff_unlock(f->mutex_rd);
 1859              		.loc 1 680 26 is_stmt 1 view .LVU608
 681:lib/tinyusb/src/common/tusb_fifo.c **** }
 1860              		.loc 1 681 1 is_stmt 0 view .LVU609
 1861 0012 7047     		bx	lr
 1862              		.cfi_endproc
 1863              	.LFE401:
 1865              		.section	.text.tu_fifo_read,"ax",%progbits
 1866              		.align	1
 1867              		.p2align 2,,3
 1868              		.global	tu_fifo_read
 1869              		.syntax unified
 1870              		.thumb
 1871              		.thumb_func
 1873              	tu_fifo_read:
 1874              	.LVL207:
 1875              	.LFB402:
 682:lib/tinyusb/src/common/tusb_fifo.c **** 
 683:lib/tinyusb/src/common/tusb_fifo.c **** /******************************************************************************/
 684:lib/tinyusb/src/common/tusb_fifo.c **** /*!
 685:lib/tinyusb/src/common/tusb_fifo.c ****     @brief Read one element out of the buffer.
 686:lib/tinyusb/src/common/tusb_fifo.c **** 
 687:lib/tinyusb/src/common/tusb_fifo.c ****     This function will return the element located at the array index of the
 688:lib/tinyusb/src/common/tusb_fifo.c ****     read pointer, and then increment the read pointer index.
 689:lib/tinyusb/src/common/tusb_fifo.c ****     This function checks for an overflow and corrects read pointer if required.
 690:lib/tinyusb/src/common/tusb_fifo.c **** 
 691:lib/tinyusb/src/common/tusb_fifo.c ****     @param[in]  f
 692:lib/tinyusb/src/common/tusb_fifo.c ****                 Pointer to the FIFO buffer to manipulate
 693:lib/tinyusb/src/common/tusb_fifo.c ****     @param[in]  buffer
 694:lib/tinyusb/src/common/tusb_fifo.c ****                 Pointer to the place holder for data read from the buffer
 695:lib/tinyusb/src/common/tusb_fifo.c **** 
 696:lib/tinyusb/src/common/tusb_fifo.c ****     @returns TRUE if the queue is not empty
 697:lib/tinyusb/src/common/tusb_fifo.c ****  */
 698:lib/tinyusb/src/common/tusb_fifo.c **** /******************************************************************************/
 699:lib/tinyusb/src/common/tusb_fifo.c **** bool tu_fifo_read(tu_fifo_t* f, void * buffer)
 700:lib/tinyusb/src/common/tusb_fifo.c **** {
 1876              		.loc 1 700 1 is_stmt 1 view -0
 1877              		.cfi_startproc
 1878              		@ args = 0, pretend = 0, frame = 0
 1879              		@ frame_needed = 0, uses_anonymous_args = 0
 701:lib/tinyusb/src/common/tusb_fifo.c ****   _ff_lock(f->mutex_rd);
 1880              		.loc 1 701 24 view .LVU611
 702:lib/tinyusb/src/common/tusb_fifo.c **** 
 703:lib/tinyusb/src/common/tusb_fifo.c ****   // Peek the data
 704:lib/tinyusb/src/common/tusb_fifo.c ****   // f->rd_idx might get modified in case of an overflow so we can not use a local variable
 705:lib/tinyusb/src/common/tusb_fifo.c ****   bool ret = _tu_fifo_peek(f, buffer, f->wr_idx, f->rd_idx);
 1881              		.loc 1 705 3 view .LVU612
 1882              		.loc 1 705 14 is_stmt 0 view .LVU613
 1883 0000 B0F808C0 		ldrh	ip, [r0, #8]
 1884              	.LBB374:
ARM GAS  /tmp/claude-502/ccRWC2Fn.s 			page 60


 1885              	.LBB375:
 422:lib/tinyusb/src/common/tusb_fifo.c **** 
 1886              		.loc 1 422 18 view .LVU614
 1887 0004 8288     		ldrh	r2, [r0, #4]
 1888              	.LBE375:
 1889              	.LBE374:
 1890              		.loc 1 705 14 view .LVU615
 1891 0006 1FFA8CFC 		uxth	ip, ip
 700:lib/tinyusb/src/common/tusb_fifo.c ****   _ff_lock(f->mutex_rd);
 1892              		.loc 1 700 1 view .LVU616
 1893 000a 38B5     		push	{r3, r4, r5, lr}
 1894              		.cfi_def_cfa_offset 16
 1895              		.cfi_offset 3, -16
 1896              		.cfi_offset 4, -12
 1897              		.cfi_offset 5, -8
 1898              		.cfi_offset 14, -4
 1899              		.loc 1 705 14 view .LVU617
 1900 000c 4389     		ldrh	r3, [r0, #10]
 700:lib/tinyusb/src/common/tusb_fifo.c ****   _ff_lock(f->mutex_rd);
 1901              		.loc 1 700 1 view .LVU618
 1902 000e 0446     		mov	r4, r0
 1903              		.loc 1 705 14 view .LVU619
 1904 0010 9BB2     		uxth	r3, r3
 1905              	.LVL208:
 1906              	.LBB393:
 1907              	.LBI374:
 420:lib/tinyusb/src/common/tusb_fifo.c **** {
 1908              		.loc 1 420 13 is_stmt 1 view .LVU620
 1909              	.LBB390:
 422:lib/tinyusb/src/common/tusb_fifo.c **** 
 1910              		.loc 1 422 3 view .LVU621
 1911              	.LBB376:
 1912              	.LBI376:
 330:lib/tinyusb/src/common/tusb_fifo.c **** {
 1913              		.loc 1 330 10 view .LVU622
 1914              	.LBB377:
 333:lib/tinyusb/src/common/tusb_fifo.c ****   {
 1915              		.loc 1 333 3 view .LVU623
 333:lib/tinyusb/src/common/tusb_fifo.c ****   {
 1916              		.loc 1 333 6 is_stmt 0 view .LVU624
 1917 0012 9C45     		cmp	ip, r3
 1918 0014 2BD3     		bcc	.L135
 335:lib/tinyusb/src/common/tusb_fifo.c ****   } else
 1919              		.loc 1 335 5 is_stmt 1 view .LVU625
 1920              	.LVL209:
 335:lib/tinyusb/src/common/tusb_fifo.c ****   } else
 1921              		.loc 1 335 12 is_stmt 0 view .LVU626
 1922 0016 ACEB0305 		sub	r5, ip, r3
 1923 001a A8B2     		uxth	r0, r5
 1924              	.LVL210:
 335:lib/tinyusb/src/common/tusb_fifo.c ****   } else
 1925              		.loc 1 335 12 view .LVU627
 1926              	.LBE377:
 1927              	.LBE376:
 425:lib/tinyusb/src/common/tusb_fifo.c **** 
 1928              		.loc 1 425 3 is_stmt 1 view .LVU628
 425:lib/tinyusb/src/common/tusb_fifo.c **** 
ARM GAS  /tmp/claude-502/ccRWC2Fn.s 			page 61


 1929              		.loc 1 425 6 is_stmt 0 view .LVU629
 1930 001c 68B3     		cbz	r0, .L137
 1931              	.L153:
 428:lib/tinyusb/src/common/tusb_fifo.c ****   {
 1932              		.loc 1 428 3 is_stmt 1 view .LVU630
 428:lib/tinyusb/src/common/tusb_fifo.c ****   {
 1933              		.loc 1 428 6 is_stmt 0 view .LVU631
 1934 001e 8242     		cmp	r2, r0
 1935 0020 0BD2     		bcs	.L150
 430:lib/tinyusb/src/common/tusb_fifo.c ****     cnt = f->depth;
 1936              		.loc 1 430 5 is_stmt 1 view .LVU632
 1937              	.LVL211:
 1938              	.LBB379:
 1939              	.LBI379:
 402:lib/tinyusb/src/common/tusb_fifo.c **** {
 1940              		.loc 1 402 10 view .LVU633
 1941              	.LBB380:
 404:lib/tinyusb/src/common/tusb_fifo.c ****   if ( wr_idx >= f->depth )
 1942              		.loc 1 404 3 view .LVU634
 405:lib/tinyusb/src/common/tusb_fifo.c ****   {
 1943              		.loc 1 405 3 view .LVU635
 405:lib/tinyusb/src/common/tusb_fifo.c ****   {
 1944              		.loc 1 405 6 is_stmt 0 view .LVU636
 1945 0022 9445     		cmp	ip, r2
 407:lib/tinyusb/src/common/tusb_fifo.c ****   }else
 1946              		.loc 1 407 5 is_stmt 1 view .LVU637
 407:lib/tinyusb/src/common/tusb_fifo.c ****   }else
 1947              		.loc 1 407 12 is_stmt 0 view .LVU638
 1948 0024 2CBF     		ite	cs
 1949 0026 ACEB0203 		subcs	r3, ip, r2
 1950              	.LVL212:
 410:lib/tinyusb/src/common/tusb_fifo.c ****   }
 1951              		.loc 1 410 5 is_stmt 1 view .LVU639
 410:lib/tinyusb/src/common/tusb_fifo.c ****   }
 1952              		.loc 1 410 12 is_stmt 0 view .LVU640
 1953 002a 0CEB0203 		addcc	r3, ip, r2
 1954 002e 9BB2     		uxth	r3, r3
 1955              	.LVL213:
 413:lib/tinyusb/src/common/tusb_fifo.c **** 
 1956              		.loc 1 413 3 is_stmt 1 view .LVU641
 1957              	.LBE380:
 1958              	.LBE379:
 1959              	.LBB382:
 1960              	.LBB383:
 394:lib/tinyusb/src/common/tusb_fifo.c ****   return idx;
 1961              		.loc 1 394 9 is_stmt 0 view .LVU642
 1962 0030 9A42     		cmp	r2, r3
 1963              	.LBE383:
 1964              	.LBE382:
 1965              	.LBB385:
 1966              	.LBB381:
 413:lib/tinyusb/src/common/tusb_fifo.c **** 
 1967              		.loc 1 413 13 view .LVU643
 1968 0032 6381     		strh	r3, [r4, #10]	@ movhi
 415:lib/tinyusb/src/common/tusb_fifo.c **** }
 1969              		.loc 1 415 3 is_stmt 1 view .LVU644
 1970              	.LVL214:
ARM GAS  /tmp/claude-502/ccRWC2Fn.s 			page 62


 415:lib/tinyusb/src/common/tusb_fifo.c **** }
 1971              		.loc 1 415 3 is_stmt 0 view .LVU645
 1972              	.LBE381:
 1973              	.LBE385:
 431:lib/tinyusb/src/common/tusb_fifo.c ****   }
 1974              		.loc 1 431 5 is_stmt 1 view .LVU646
 434:lib/tinyusb/src/common/tusb_fifo.c **** 
 1975              		.loc 1 434 3 view .LVU647
 1976              	.LBB386:
 1977              	.LBI382:
 391:lib/tinyusb/src/common/tusb_fifo.c **** {
 1978              		.loc 1 391 10 view .LVU648
 1979              	.LBB384:
 394:lib/tinyusb/src/common/tusb_fifo.c ****   return idx;
 1980              		.loc 1 394 3 view .LVU649
 394:lib/tinyusb/src/common/tusb_fifo.c ****   return idx;
 1981              		.loc 1 394 9 view .LVU650
 394:lib/tinyusb/src/common/tusb_fifo.c ****   return idx;
 1982              		.loc 1 394 9 view .LVU651
 1983 0034 03D8     		bhi	.L152
 1984              	.LVL215:
 1985              	.L142:
 394:lib/tinyusb/src/common/tusb_fifo.c ****   return idx;
 1986              		.loc 1 394 26 view .LVU652
 394:lib/tinyusb/src/common/tusb_fifo.c ****   return idx;
 1987              		.loc 1 394 30 is_stmt 0 view .LVU653
 1988 0036 9B1A     		subs	r3, r3, r2
 1989              	.LVL216:
 394:lib/tinyusb/src/common/tusb_fifo.c ****   return idx;
 1990              		.loc 1 394 30 view .LVU654
 1991 0038 9BB2     		uxth	r3, r3
 1992              	.L150:
 1993              	.LVL217:
 394:lib/tinyusb/src/common/tusb_fifo.c ****   return idx;
 1994              		.loc 1 394 9 is_stmt 1 view .LVU655
 1995 003a 9A42     		cmp	r2, r3
 1996 003c FBD9     		bls	.L142
 1997              	.L152:
 395:lib/tinyusb/src/common/tusb_fifo.c **** }
 1998              		.loc 1 395 3 view .LVU656
 1999              	.LVL218:
 395:lib/tinyusb/src/common/tusb_fifo.c **** }
 2000              		.loc 1 395 3 is_stmt 0 view .LVU657
 2001              	.LBE384:
 2002              	.LBE386:
 437:lib/tinyusb/src/common/tusb_fifo.c **** 
 2003              		.loc 1 437 3 is_stmt 1 view .LVU658
 2004              	.LBB387:
 2005              	.LBI387:
 237:lib/tinyusb/src/common/tusb_fifo.c **** {
 2006              		.loc 1 237 20 view .LVU659
 2007              	.LBB388:
 239:lib/tinyusb/src/common/tusb_fifo.c **** }
 2008              		.loc 1 239 3 view .LVU660
 239:lib/tinyusb/src/common/tusb_fifo.c **** }
 2009              		.loc 1 239 39 is_stmt 0 view .LVU661
 2010 003e E288     		ldrh	r2, [r4, #6]
ARM GAS  /tmp/claude-502/ccRWC2Fn.s 			page 63


 239:lib/tinyusb/src/common/tusb_fifo.c **** }
 2011              		.loc 1 239 3 view .LVU662
 2012 0040 0846     		mov	r0, r1
 239:lib/tinyusb/src/common/tusb_fifo.c **** }
 2013              		.loc 1 239 29 view .LVU663
 2014 0042 2568     		ldr	r5, [r4]
 239:lib/tinyusb/src/common/tusb_fifo.c **** }
 2015              		.loc 1 239 39 view .LVU664
 2016 0044 C2F30E02 		ubfx	r2, r2, #0, #15
 239:lib/tinyusb/src/common/tusb_fifo.c **** }
 2017              		.loc 1 239 3 view .LVU665
 2018 0048 02FB0351 		mla	r1, r2, r3, r5
 2019              	.LVL219:
 239:lib/tinyusb/src/common/tusb_fifo.c **** }
 2020              		.loc 1 239 3 view .LVU666
 2021 004c FFF7FEFF 		bl	memcpy
 2022              	.LVL220:
 239:lib/tinyusb/src/common/tusb_fifo.c **** }
 2023              		.loc 1 239 3 view .LVU667
 2024              	.LBE388:
 2025              	.LBE387:
 439:lib/tinyusb/src/common/tusb_fifo.c **** }
 2026              		.loc 1 439 3 is_stmt 1 view .LVU668
 439:lib/tinyusb/src/common/tusb_fifo.c **** }
 2027              		.loc 1 439 3 is_stmt 0 view .LVU669
 2028              	.LBE390:
 2029              	.LBE393:
 706:lib/tinyusb/src/common/tusb_fifo.c **** 
 707:lib/tinyusb/src/common/tusb_fifo.c ****   // Advance pointer
 708:lib/tinyusb/src/common/tusb_fifo.c ****   f->rd_idx = advance_index(f->depth, f->rd_idx, ret);
 2030              		.loc 1 708 3 is_stmt 1 view .LVU670
 2031              		.loc 1 708 15 is_stmt 0 view .LVU671
 2032 0050 6189     		ldrh	r1, [r4, #10]
 2033 0052 A288     		ldrh	r2, [r4, #4]
 2034              	.LBB394:
 2035              	.LBB391:
 439:lib/tinyusb/src/common/tusb_fifo.c **** }
 2036              		.loc 1 439 10 view .LVU672
 2037 0054 0120     		movs	r0, #1
 2038              	.LBE391:
 2039              	.LBE394:
 2040              		.loc 1 708 15 view .LVU673
 2041 0056 89B2     		uxth	r1, r1
 2042              	.LVL221:
 2043              	.LBB395:
 2044              	.LBI395:
 356:lib/tinyusb/src/common/tusb_fifo.c **** {
 2045              		.loc 1 356 17 is_stmt 1 view .LVU674
 2046              	.LBB396:
 361:lib/tinyusb/src/common/tusb_fifo.c ****   if ( (idx > new_idx) || (new_idx >= 2*depth) )
 2047              		.loc 1 361 3 view .LVU675
 361:lib/tinyusb/src/common/tusb_fifo.c ****   if ( (idx > new_idx) || (new_idx >= 2*depth) )
 2048              		.loc 1 361 12 is_stmt 0 view .LVU676
 2049 0058 4B1C     		adds	r3, r1, #1
 2050 005a 9BB2     		uxth	r3, r3
 2051              	.LVL222:
 362:lib/tinyusb/src/common/tusb_fifo.c ****   {
ARM GAS  /tmp/claude-502/ccRWC2Fn.s 			page 64


 2052              		.loc 1 362 3 is_stmt 1 view .LVU677
 362:lib/tinyusb/src/common/tusb_fifo.c ****   {
 2053              		.loc 1 362 6 is_stmt 0 view .LVU678
 2054 005c 9942     		cmp	r1, r3
 2055 005e 0ED9     		bls	.L145
 2056 0060 0023     		movs	r3, #0
 2057              	.LVL223:
 362:lib/tinyusb/src/common/tusb_fifo.c ****   {
 2058              		.loc 1 362 6 view .LVU679
 2059 0062 02FA00F1 		lsl	r1, r2, r0
 2060              	.LVL224:
 2061              	.L143:
 2062              	.LBB397:
 364:lib/tinyusb/src/common/tusb_fifo.c ****     new_idx = (uint16_t) (new_idx + non_used_index_space);
 2063              		.loc 1 364 5 is_stmt 1 view .LVU680
 365:lib/tinyusb/src/common/tusb_fifo.c ****   }
 2064              		.loc 1 365 5 view .LVU681
 2065 0066 5B1A     		subs	r3, r3, r1
 2066 0068 9BB2     		uxth	r3, r3
 2067              	.LVL225:
 365:lib/tinyusb/src/common/tusb_fifo.c ****   }
 2068              		.loc 1 365 5 is_stmt 0 view .LVU682
 2069              	.LBE397:
 368:lib/tinyusb/src/common/tusb_fifo.c **** }
 2070              		.loc 1 368 3 is_stmt 1 view .LVU683
 368:lib/tinyusb/src/common/tusb_fifo.c **** }
 2071              		.loc 1 368 3 is_stmt 0 view .LVU684
 2072              	.LBE396:
 2073              	.LBE395:
 2074              		.loc 1 708 13 view .LVU685
 2075 006a 6381     		strh	r3, [r4, #10]	@ movhi
 709:lib/tinyusb/src/common/tusb_fifo.c **** 
 710:lib/tinyusb/src/common/tusb_fifo.c ****   _ff_unlock(f->mutex_rd);
 2076              		.loc 1 710 26 is_stmt 1 view .LVU686
 711:lib/tinyusb/src/common/tusb_fifo.c ****   return ret;
 2077              		.loc 1 711 3 view .LVU687
 712:lib/tinyusb/src/common/tusb_fifo.c **** }
 2078              		.loc 1 712 1 is_stmt 0 view .LVU688
 2079 006c 38BD     		pop	{r3, r4, r5, pc}
 2080              	.LVL226:
 2081              	.L135:
 2082              	.LBB399:
 2083              	.LBB392:
 2084              	.LBB389:
 2085              	.LBB378:
 338:lib/tinyusb/src/common/tusb_fifo.c ****   }
 2086              		.loc 1 338 5 is_stmt 1 view .LVU689
 338:lib/tinyusb/src/common/tusb_fifo.c ****   }
 2087              		.loc 1 338 12 is_stmt 0 view .LVU690
 2088 006e C3EB4205 		rsb	r5, r3, r2, lsl #1
 2089 0072 6544     		add	r5, r5, ip
 2090 0074 A8B2     		uxth	r0, r5
 2091              	.LVL227:
 338:lib/tinyusb/src/common/tusb_fifo.c ****   }
 2092              		.loc 1 338 12 view .LVU691
 2093              	.LBE378:
 2094              	.LBE389:
ARM GAS  /tmp/claude-502/ccRWC2Fn.s 			page 65


 425:lib/tinyusb/src/common/tusb_fifo.c **** 
 2095              		.loc 1 425 3 is_stmt 1 view .LVU692
 425:lib/tinyusb/src/common/tusb_fifo.c **** 
 2096              		.loc 1 425 6 is_stmt 0 view .LVU693
 2097 0076 0028     		cmp	r0, #0
 2098 0078 D1D1     		bne	.L153
 2099              	.L137:
 2100              	.LVL228:
 425:lib/tinyusb/src/common/tusb_fifo.c **** 
 2101              		.loc 1 425 6 view .LVU694
 2102              	.LBE392:
 2103              	.LBE399:
 708:lib/tinyusb/src/common/tusb_fifo.c **** 
 2104              		.loc 1 708 3 is_stmt 1 view .LVU695
 708:lib/tinyusb/src/common/tusb_fifo.c **** 
 2105              		.loc 1 708 15 is_stmt 0 view .LVU696
 2106 007a 6389     		ldrh	r3, [r4, #10]
 2107 007c 9BB2     		uxth	r3, r3
 2108              	.LVL229:
 2109              	.LBB400:
 356:lib/tinyusb/src/common/tusb_fifo.c **** {
 2110              		.loc 1 356 17 is_stmt 1 view .LVU697
 2111              	.LBB398:
 361:lib/tinyusb/src/common/tusb_fifo.c ****   if ( (idx > new_idx) || (new_idx >= 2*depth) )
 2112              		.loc 1 361 3 view .LVU698
 362:lib/tinyusb/src/common/tusb_fifo.c ****   {
 2113              		.loc 1 362 3 view .LVU699
 2114              	.L145:
 362:lib/tinyusb/src/common/tusb_fifo.c ****   {
 2115              		.loc 1 362 24 is_stmt 0 view .LVU700
 2116 007e B3EB420F 		cmp	r3, r2, lsl #1
 362:lib/tinyusb/src/common/tusb_fifo.c ****   {
 2117              		.loc 1 362 40 view .LVU701
 2118 0082 4FEA4201 		lsl	r1, r2, #1
 362:lib/tinyusb/src/common/tusb_fifo.c ****   {
 2119              		.loc 1 362 24 view .LVU702
 2120 0086 EEDA     		bge	.L143
 368:lib/tinyusb/src/common/tusb_fifo.c **** }
 2121              		.loc 1 368 3 is_stmt 1 view .LVU703
 2122              	.LVL230:
 368:lib/tinyusb/src/common/tusb_fifo.c **** }
 2123              		.loc 1 368 3 is_stmt 0 view .LVU704
 2124              	.LBE398:
 2125              	.LBE400:
 708:lib/tinyusb/src/common/tusb_fifo.c **** 
 2126              		.loc 1 708 13 view .LVU705
 2127 0088 6381     		strh	r3, [r4, #10]	@ movhi
 710:lib/tinyusb/src/common/tusb_fifo.c ****   return ret;
 2128              		.loc 1 710 26 is_stmt 1 view .LVU706
 711:lib/tinyusb/src/common/tusb_fifo.c **** }
 2129              		.loc 1 711 3 view .LVU707
 2130              		.loc 1 712 1 is_stmt 0 view .LVU708
 2131 008a 38BD     		pop	{r3, r4, r5, pc}
 2132              		.loc 1 712 1 view .LVU709
 2133              		.cfi_endproc
 2134              	.LFE402:
 2136              		.section	.text.tu_fifo_read_n,"ax",%progbits
ARM GAS  /tmp/claude-502/ccRWC2Fn.s 			page 66


 2137              		.align	1
 2138              		.p2align 2,,3
 2139              		.global	tu_fifo_read_n
 2140              		.syntax unified
 2141              		.thumb
 2142              		.thumb_func
 2144              	tu_fifo_read_n:
 2145              	.LVL231:
 2146              	.LFB403:
 713:lib/tinyusb/src/common/tusb_fifo.c **** 
 714:lib/tinyusb/src/common/tusb_fifo.c **** /******************************************************************************/
 715:lib/tinyusb/src/common/tusb_fifo.c **** /*!
 716:lib/tinyusb/src/common/tusb_fifo.c ****     @brief This function will read n elements from the array index specified by
 717:lib/tinyusb/src/common/tusb_fifo.c ****     the read pointer and increment the read index.
 718:lib/tinyusb/src/common/tusb_fifo.c ****     This function checks for an overflow and corrects read pointer if required.
 719:lib/tinyusb/src/common/tusb_fifo.c **** 
 720:lib/tinyusb/src/common/tusb_fifo.c ****     @param[in]  f
 721:lib/tinyusb/src/common/tusb_fifo.c ****                 Pointer to the FIFO buffer to manipulate
 722:lib/tinyusb/src/common/tusb_fifo.c ****     @param[in]  buffer
 723:lib/tinyusb/src/common/tusb_fifo.c ****                 The pointer to data location
 724:lib/tinyusb/src/common/tusb_fifo.c ****     @param[in]  n
 725:lib/tinyusb/src/common/tusb_fifo.c ****                 Number of element that buffer can afford
 726:lib/tinyusb/src/common/tusb_fifo.c **** 
 727:lib/tinyusb/src/common/tusb_fifo.c ****     @returns number of items read from the FIFO
 728:lib/tinyusb/src/common/tusb_fifo.c ****  */
 729:lib/tinyusb/src/common/tusb_fifo.c **** /******************************************************************************/
 730:lib/tinyusb/src/common/tusb_fifo.c **** uint16_t tu_fifo_read_n(tu_fifo_t* f, void * buffer, uint16_t n)
 731:lib/tinyusb/src/common/tusb_fifo.c **** {
 2147              		.loc 1 731 1 is_stmt 1 view -0
 2148              		.cfi_startproc
 2149              		@ args = 0, pretend = 0, frame = 0
 2150              		@ frame_needed = 0, uses_anonymous_args = 0
 2151              		.loc 1 731 1 is_stmt 0 view .LVU711
 2152 0000 30B5     		push	{r4, r5, lr}
 2153              		.cfi_def_cfa_offset 12
 2154              		.cfi_offset 4, -12
 2155              		.cfi_offset 5, -8
 2156              		.cfi_offset 14, -4
 2157              	.LBB406:
 2158              	.LBB407:
 562:lib/tinyusb/src/common/tusb_fifo.c **** 
 2159              		.loc 1 562 7 view .LVU712
 2160 0002 0389     		ldrh	r3, [r0, #8]
 2161              	.LBE407:
 2162              	.LBE406:
 2163              		.loc 1 731 1 view .LVU713
 2164 0004 83B0     		sub	sp, sp, #12
 2165              		.cfi_def_cfa_offset 24
 2166              	.LBB413:
 2167              	.LBB411:
 562:lib/tinyusb/src/common/tusb_fifo.c **** 
 2168              		.loc 1 562 7 view .LVU714
 2169 0006 4589     		ldrh	r5, [r0, #10]
 2170              	.LBE411:
 2171              	.LBE413:
 2172              		.loc 1 731 1 view .LVU715
 2173 0008 0446     		mov	r4, r0
ARM GAS  /tmp/claude-502/ccRWC2Fn.s 			page 67


 732:lib/tinyusb/src/common/tusb_fifo.c ****   return _tu_fifo_read_n(f, buffer, n, TU_FIFO_COPY_INC);
 2174              		.loc 1 732 3 is_stmt 1 view .LVU716
 2175              	.LVL232:
 2176              	.LBB414:
 2177              	.LBI406:
 556:lib/tinyusb/src/common/tusb_fifo.c **** {
 2178              		.loc 1 556 17 view .LVU717
 2179              	.LBB412:
 558:lib/tinyusb/src/common/tusb_fifo.c **** 
 2180              		.loc 1 558 24 view .LVU718
 562:lib/tinyusb/src/common/tusb_fifo.c **** 
 2181              		.loc 1 562 3 view .LVU719
 562:lib/tinyusb/src/common/tusb_fifo.c **** 
 2182              		.loc 1 562 7 is_stmt 0 view .LVU720
 2183 000a 9BB2     		uxth	r3, r3
 2184 000c ADB2     		uxth	r5, r5
 2185 000e 0095     		str	r5, [sp]
 2186 0010 0025     		movs	r5, #0
 2187 0012 0195     		str	r5, [sp, #4]
 2188 0014 FFF7FEFF 		bl	_tu_fifo_peek_n
 2189              	.LVL233:
 565:lib/tinyusb/src/common/tusb_fifo.c **** 
 2190              		.loc 1 565 15 view .LVU721
 2191 0018 6289     		ldrh	r2, [r4, #10]
 2192 001a A188     		ldrh	r1, [r4, #4]
 2193              	.LVL234:
 565:lib/tinyusb/src/common/tusb_fifo.c **** 
 2194              		.loc 1 565 3 is_stmt 1 view .LVU722
 565:lib/tinyusb/src/common/tusb_fifo.c **** 
 2195              		.loc 1 565 15 is_stmt 0 view .LVU723
 2196 001c 92B2     		uxth	r2, r2
 2197              	.LVL235:
 2198              	.LBB408:
 2199              	.LBI408:
 356:lib/tinyusb/src/common/tusb_fifo.c **** {
 2200              		.loc 1 356 17 is_stmt 1 view .LVU724
 2201              	.LBB409:
 361:lib/tinyusb/src/common/tusb_fifo.c ****   if ( (idx > new_idx) || (new_idx >= 2*depth) )
 2202              		.loc 1 361 3 view .LVU725
 361:lib/tinyusb/src/common/tusb_fifo.c ****   if ( (idx > new_idx) || (new_idx >= 2*depth) )
 2203              		.loc 1 361 12 is_stmt 0 view .LVU726
 2204 001e 8318     		adds	r3, r0, r2
 2205 0020 9BB2     		uxth	r3, r3
 2206              	.LVL236:
 362:lib/tinyusb/src/common/tusb_fifo.c ****   {
 2207              		.loc 1 362 3 is_stmt 1 view .LVU727
 362:lib/tinyusb/src/common/tusb_fifo.c ****   {
 2208              		.loc 1 362 6 is_stmt 0 view .LVU728
 2209 0022 9A42     		cmp	r2, r3
 2210 0024 4FEA4102 		lsl	r2, r1, #1
 2211              	.LVL237:
 362:lib/tinyusb/src/common/tusb_fifo.c ****   {
 2212              		.loc 1 362 6 view .LVU729
 2213 0028 02D8     		bhi	.L155
 362:lib/tinyusb/src/common/tusb_fifo.c ****   {
 2214              		.loc 1 362 24 view .LVU730
 2215 002a B3EB410F 		cmp	r3, r1, lsl #1
ARM GAS  /tmp/claude-502/ccRWC2Fn.s 			page 68


 2216 002e 01DB     		blt	.L156
 2217              	.L155:
 2218              	.LBB410:
 364:lib/tinyusb/src/common/tusb_fifo.c ****     new_idx = (uint16_t) (new_idx + non_used_index_space);
 2219              		.loc 1 364 5 is_stmt 1 view .LVU731
 2220              	.LVL238:
 365:lib/tinyusb/src/common/tusb_fifo.c ****   }
 2221              		.loc 1 365 5 view .LVU732
 2222 0030 9B1A     		subs	r3, r3, r2
 2223              	.LVL239:
 365:lib/tinyusb/src/common/tusb_fifo.c ****   }
 2224              		.loc 1 365 5 is_stmt 0 view .LVU733
 2225 0032 9BB2     		uxth	r3, r3
 2226              	.LVL240:
 2227              	.L156:
 365:lib/tinyusb/src/common/tusb_fifo.c ****   }
 2228              		.loc 1 365 5 view .LVU734
 2229              	.LBE410:
 368:lib/tinyusb/src/common/tusb_fifo.c **** }
 2230              		.loc 1 368 3 is_stmt 1 view .LVU735
 368:lib/tinyusb/src/common/tusb_fifo.c **** }
 2231              		.loc 1 368 3 is_stmt 0 view .LVU736
 2232              	.LBE409:
 2233              	.LBE408:
 565:lib/tinyusb/src/common/tusb_fifo.c **** 
 2234              		.loc 1 565 13 view .LVU737
 2235 0034 6381     		strh	r3, [r4, #10]	@ movhi
 567:lib/tinyusb/src/common/tusb_fifo.c ****   return n;
 2236              		.loc 1 567 26 is_stmt 1 view .LVU738
 568:lib/tinyusb/src/common/tusb_fifo.c **** }
 2237              		.loc 1 568 3 view .LVU739
 2238              	.LVL241:
 568:lib/tinyusb/src/common/tusb_fifo.c **** }
 2239              		.loc 1 568 3 is_stmt 0 view .LVU740
 2240              	.LBE412:
 2241              	.LBE414:
 733:lib/tinyusb/src/common/tusb_fifo.c **** }
 2242              		.loc 1 733 1 view .LVU741
 2243 0036 03B0     		add	sp, sp, #12
 2244              		.cfi_def_cfa_offset 12
 2245              		@ sp needed
 2246 0038 30BD     		pop	{r4, r5, pc}
 2247              		.loc 1 733 1 view .LVU742
 2248              		.cfi_endproc
 2249              	.LFE403:
 2251 003a 00BF     		.section	.text.tu_fifo_read_n_const_addr_full_words,"ax",%progbits
 2252              		.align	1
 2253              		.p2align 2,,3
 2254              		.global	tu_fifo_read_n_const_addr_full_words
 2255              		.syntax unified
 2256              		.thumb
 2257              		.thumb_func
 2259              	tu_fifo_read_n_const_addr_full_words:
 2260              	.LVL242:
 2261              	.LFB404:
 734:lib/tinyusb/src/common/tusb_fifo.c **** 
 735:lib/tinyusb/src/common/tusb_fifo.c **** #ifdef TUP_MEM_CONST_ADDR
ARM GAS  /tmp/claude-502/ccRWC2Fn.s 			page 69


 736:lib/tinyusb/src/common/tusb_fifo.c **** /******************************************************************************/
 737:lib/tinyusb/src/common/tusb_fifo.c **** /*!
 738:lib/tinyusb/src/common/tusb_fifo.c ****     @brief This function will read n elements from the array index specified by
 739:lib/tinyusb/src/common/tusb_fifo.c ****     the read pointer and increment the read index.
 740:lib/tinyusb/src/common/tusb_fifo.c ****     This function checks for an overflow and corrects read pointer if required.
 741:lib/tinyusb/src/common/tusb_fifo.c ****     The dest address will not be incremented which is useful for writing to registers.
 742:lib/tinyusb/src/common/tusb_fifo.c **** 
 743:lib/tinyusb/src/common/tusb_fifo.c ****     @param[in]  f
 744:lib/tinyusb/src/common/tusb_fifo.c ****                 Pointer to the FIFO buffer to manipulate
 745:lib/tinyusb/src/common/tusb_fifo.c ****     @param[in]  buffer
 746:lib/tinyusb/src/common/tusb_fifo.c ****                 The pointer to data location
 747:lib/tinyusb/src/common/tusb_fifo.c ****     @param[in]  n
 748:lib/tinyusb/src/common/tusb_fifo.c ****                 Number of element that buffer can afford
 749:lib/tinyusb/src/common/tusb_fifo.c **** 
 750:lib/tinyusb/src/common/tusb_fifo.c ****     @returns number of items read from the FIFO
 751:lib/tinyusb/src/common/tusb_fifo.c ****  */
 752:lib/tinyusb/src/common/tusb_fifo.c **** /******************************************************************************/
 753:lib/tinyusb/src/common/tusb_fifo.c **** uint16_t tu_fifo_read_n_const_addr_full_words(tu_fifo_t* f, void * buffer, uint16_t n)
 754:lib/tinyusb/src/common/tusb_fifo.c **** {
 2262              		.loc 1 754 1 is_stmt 1 view -0
 2263              		.cfi_startproc
 2264              		@ args = 0, pretend = 0, frame = 0
 2265              		@ frame_needed = 0, uses_anonymous_args = 0
 2266              		.loc 1 754 1 is_stmt 0 view .LVU744
 2267 0000 30B5     		push	{r4, r5, lr}
 2268              		.cfi_def_cfa_offset 12
 2269              		.cfi_offset 4, -12
 2270              		.cfi_offset 5, -8
 2271              		.cfi_offset 14, -4
 2272              	.LBB420:
 2273              	.LBB421:
 562:lib/tinyusb/src/common/tusb_fifo.c **** 
 2274              		.loc 1 562 7 view .LVU745
 2275 0002 0389     		ldrh	r3, [r0, #8]
 2276              	.LBE421:
 2277              	.LBE420:
 2278              		.loc 1 754 1 view .LVU746
 2279 0004 83B0     		sub	sp, sp, #12
 2280              		.cfi_def_cfa_offset 24
 2281              	.LBB430:
 2282              	.LBB427:
 562:lib/tinyusb/src/common/tusb_fifo.c **** 
 2283              		.loc 1 562 7 view .LVU747
 2284 0006 4589     		ldrh	r5, [r0, #10]
 2285              	.LBE427:
 2286              	.LBE430:
 2287              		.loc 1 754 1 view .LVU748
 2288 0008 0446     		mov	r4, r0
 755:lib/tinyusb/src/common/tusb_fifo.c ****   return _tu_fifo_read_n(f, buffer, n, TU_FIFO_COPY_CST_FULL_WORDS);
 2289              		.loc 1 755 3 is_stmt 1 view .LVU749
 2290              	.LVL243:
 2291              	.LBB431:
 2292              	.LBI420:
 556:lib/tinyusb/src/common/tusb_fifo.c **** {
 2293              		.loc 1 556 17 view .LVU750
 2294              	.LBB428:
 558:lib/tinyusb/src/common/tusb_fifo.c **** 
ARM GAS  /tmp/claude-502/ccRWC2Fn.s 			page 70


 2295              		.loc 1 558 24 view .LVU751
 562:lib/tinyusb/src/common/tusb_fifo.c **** 
 2296              		.loc 1 562 3 view .LVU752
 562:lib/tinyusb/src/common/tusb_fifo.c **** 
 2297              		.loc 1 562 7 is_stmt 0 view .LVU753
 2298 000a 9BB2     		uxth	r3, r3
 2299 000c ADB2     		uxth	r5, r5
 2300 000e 0095     		str	r5, [sp]
 2301 0010 0125     		movs	r5, #1
 2302 0012 0195     		str	r5, [sp, #4]
 2303 0014 FFF7FEFF 		bl	_tu_fifo_peek_n
 2304              	.LVL244:
 565:lib/tinyusb/src/common/tusb_fifo.c **** 
 2305              		.loc 1 565 15 view .LVU754
 2306 0018 6289     		ldrh	r2, [r4, #10]
 2307 001a A188     		ldrh	r1, [r4, #4]
 2308              	.LVL245:
 565:lib/tinyusb/src/common/tusb_fifo.c **** 
 2309              		.loc 1 565 3 is_stmt 1 view .LVU755
 565:lib/tinyusb/src/common/tusb_fifo.c **** 
 2310              		.loc 1 565 15 is_stmt 0 view .LVU756
 2311 001c 92B2     		uxth	r2, r2
 2312              	.LVL246:
 2313              	.LBB422:
 2314              	.LBI422:
 356:lib/tinyusb/src/common/tusb_fifo.c **** {
 2315              		.loc 1 356 17 is_stmt 1 view .LVU757
 2316              	.LBB423:
 361:lib/tinyusb/src/common/tusb_fifo.c ****   if ( (idx > new_idx) || (new_idx >= 2*depth) )
 2317              		.loc 1 361 3 view .LVU758
 361:lib/tinyusb/src/common/tusb_fifo.c ****   if ( (idx > new_idx) || (new_idx >= 2*depth) )
 2318              		.loc 1 361 12 is_stmt 0 view .LVU759
 2319 001e 8318     		adds	r3, r0, r2
 2320 0020 9BB2     		uxth	r3, r3
 2321              	.LVL247:
 362:lib/tinyusb/src/common/tusb_fifo.c ****   {
 2322              		.loc 1 362 3 is_stmt 1 view .LVU760
 362:lib/tinyusb/src/common/tusb_fifo.c ****   {
 2323              		.loc 1 362 6 is_stmt 0 view .LVU761
 2324 0022 9A42     		cmp	r2, r3
 2325 0024 06D9     		bls	.L164
 2326 0026 01FA05F2 		lsl	r2, r1, r5
 2327              	.LVL248:
 2328              	.L161:
 2329              	.LBB424:
 364:lib/tinyusb/src/common/tusb_fifo.c ****     new_idx = (uint16_t) (new_idx + non_used_index_space);
 2330              		.loc 1 364 5 is_stmt 1 view .LVU762
 365:lib/tinyusb/src/common/tusb_fifo.c ****   }
 2331              		.loc 1 365 5 view .LVU763
 2332 002a 9B1A     		subs	r3, r3, r2
 2333              	.LVL249:
 365:lib/tinyusb/src/common/tusb_fifo.c ****   }
 2334              		.loc 1 365 5 is_stmt 0 view .LVU764
 2335 002c 9BB2     		uxth	r3, r3
 2336              	.LVL250:
 365:lib/tinyusb/src/common/tusb_fifo.c ****   }
 2337              		.loc 1 365 5 view .LVU765
ARM GAS  /tmp/claude-502/ccRWC2Fn.s 			page 71


 2338              	.LBE424:
 368:lib/tinyusb/src/common/tusb_fifo.c **** }
 2339              		.loc 1 368 3 is_stmt 1 view .LVU766
 368:lib/tinyusb/src/common/tusb_fifo.c **** }
 2340              		.loc 1 368 3 is_stmt 0 view .LVU767
 2341              	.LBE423:
 2342              	.LBE422:
 565:lib/tinyusb/src/common/tusb_fifo.c **** 
 2343              		.loc 1 565 13 view .LVU768
 2344 002e 6381     		strh	r3, [r4, #10]	@ movhi
 567:lib/tinyusb/src/common/tusb_fifo.c ****   return n;
 2345              		.loc 1 567 26 is_stmt 1 view .LVU769
 568:lib/tinyusb/src/common/tusb_fifo.c **** }
 2346              		.loc 1 568 3 view .LVU770
 2347              	.LVL251:
 568:lib/tinyusb/src/common/tusb_fifo.c **** }
 2348              		.loc 1 568 3 is_stmt 0 view .LVU771
 2349              	.LBE428:
 2350              	.LBE431:
 756:lib/tinyusb/src/common/tusb_fifo.c **** }
 2351              		.loc 1 756 1 view .LVU772
 2352 0030 03B0     		add	sp, sp, #12
 2353              		.cfi_remember_state
 2354              		.cfi_def_cfa_offset 12
 2355              		@ sp needed
 2356 0032 30BD     		pop	{r4, r5, pc}
 2357              	.LVL252:
 2358              	.L164:
 2359              		.cfi_restore_state
 2360              	.LBB432:
 2361              	.LBB429:
 2362              	.LBB426:
 2363              	.LBB425:
 362:lib/tinyusb/src/common/tusb_fifo.c ****   {
 2364              		.loc 1 362 24 view .LVU773
 2365 0034 B3EB410F 		cmp	r3, r1, lsl #1
 362:lib/tinyusb/src/common/tusb_fifo.c ****   {
 2366              		.loc 1 362 40 view .LVU774
 2367 0038 4FEA4102 		lsl	r2, r1, #1
 2368              	.LVL253:
 362:lib/tinyusb/src/common/tusb_fifo.c ****   {
 2369              		.loc 1 362 24 view .LVU775
 2370 003c F5DA     		bge	.L161
 368:lib/tinyusb/src/common/tusb_fifo.c **** }
 2371              		.loc 1 368 3 is_stmt 1 view .LVU776
 2372              	.LVL254:
 368:lib/tinyusb/src/common/tusb_fifo.c **** }
 2373              		.loc 1 368 3 is_stmt 0 view .LVU777
 2374              	.LBE425:
 2375              	.LBE426:
 565:lib/tinyusb/src/common/tusb_fifo.c **** 
 2376              		.loc 1 565 13 view .LVU778
 2377 003e 6381     		strh	r3, [r4, #10]	@ movhi
 567:lib/tinyusb/src/common/tusb_fifo.c ****   return n;
 2378              		.loc 1 567 26 is_stmt 1 view .LVU779
 568:lib/tinyusb/src/common/tusb_fifo.c **** }
 2379              		.loc 1 568 3 view .LVU780
ARM GAS  /tmp/claude-502/ccRWC2Fn.s 			page 72


 2380              	.LVL255:
 568:lib/tinyusb/src/common/tusb_fifo.c **** }
 2381              		.loc 1 568 3 is_stmt 0 view .LVU781
 2382              	.LBE429:
 2383              	.LBE432:
 2384              		.loc 1 756 1 view .LVU782
 2385 0040 03B0     		add	sp, sp, #12
 2386              		.cfi_def_cfa_offset 12
 2387              		@ sp needed
 2388 0042 30BD     		pop	{r4, r5, pc}
 2389              		.loc 1 756 1 view .LVU783
 2390              		.cfi_endproc
 2391              	.LFE404:
 2393              		.section	.text.tu_fifo_peek,"ax",%progbits
 2394              		.align	1
 2395              		.p2align 2,,3
 2396              		.global	tu_fifo_peek
 2397              		.syntax unified
 2398              		.thumb
 2399              		.thumb_func
 2401              	tu_fifo_peek:
 2402              	.LVL256:
 2403              	.LFB405:
 757:lib/tinyusb/src/common/tusb_fifo.c **** #endif
 758:lib/tinyusb/src/common/tusb_fifo.c **** 
 759:lib/tinyusb/src/common/tusb_fifo.c **** /******************************************************************************/
 760:lib/tinyusb/src/common/tusb_fifo.c **** /*!
 761:lib/tinyusb/src/common/tusb_fifo.c ****     @brief Read one item without removing it from the FIFO.
 762:lib/tinyusb/src/common/tusb_fifo.c ****     This function checks for an overflow and corrects read pointer if required.
 763:lib/tinyusb/src/common/tusb_fifo.c **** 
 764:lib/tinyusb/src/common/tusb_fifo.c ****     @param[in]  f
 765:lib/tinyusb/src/common/tusb_fifo.c ****                 Pointer to the FIFO buffer to manipulate
 766:lib/tinyusb/src/common/tusb_fifo.c ****     @param[in]  p_buffer
 767:lib/tinyusb/src/common/tusb_fifo.c ****                 Pointer to the place holder for data read from the buffer
 768:lib/tinyusb/src/common/tusb_fifo.c **** 
 769:lib/tinyusb/src/common/tusb_fifo.c ****     @returns TRUE if the queue is not empty
 770:lib/tinyusb/src/common/tusb_fifo.c ****  */
 771:lib/tinyusb/src/common/tusb_fifo.c **** /******************************************************************************/
 772:lib/tinyusb/src/common/tusb_fifo.c **** bool tu_fifo_peek(tu_fifo_t* f, void * p_buffer)
 773:lib/tinyusb/src/common/tusb_fifo.c **** {
 2404              		.loc 1 773 1 is_stmt 1 view -0
 2405              		.cfi_startproc
 2406              		@ args = 0, pretend = 0, frame = 0
 2407              		@ frame_needed = 0, uses_anonymous_args = 0
 774:lib/tinyusb/src/common/tusb_fifo.c ****   _ff_lock(f->mutex_rd);
 2408              		.loc 1 774 24 view .LVU785
 775:lib/tinyusb/src/common/tusb_fifo.c ****   bool ret = _tu_fifo_peek(f, p_buffer, f->wr_idx, f->rd_idx);
 2409              		.loc 1 775 3 view .LVU786
 2410              		.loc 1 775 14 is_stmt 0 view .LVU787
 2411 0000 B0F808C0 		ldrh	ip, [r0, #8]
 2412 0004 4389     		ldrh	r3, [r0, #10]
 2413 0006 1FFA8CFC 		uxth	ip, ip
 2414              	.LBB443:
 2415              	.LBB444:
 422:lib/tinyusb/src/common/tusb_fifo.c **** 
 2416              		.loc 1 422 18 view .LVU788
 2417 000a 8288     		ldrh	r2, [r0, #4]
ARM GAS  /tmp/claude-502/ccRWC2Fn.s 			page 73


 2418              	.LBE444:
 2419              	.LBE443:
 2420              		.loc 1 775 14 view .LVU789
 2421 000c 9BB2     		uxth	r3, r3
 2422              	.LVL257:
 2423              	.LBB464:
 2424              	.LBI443:
 420:lib/tinyusb/src/common/tusb_fifo.c **** {
 2425              		.loc 1 420 13 is_stmt 1 view .LVU790
 2426              	.LBB461:
 422:lib/tinyusb/src/common/tusb_fifo.c **** 
 2427              		.loc 1 422 3 view .LVU791
 2428              	.LBB445:
 2429              	.LBI445:
 330:lib/tinyusb/src/common/tusb_fifo.c **** {
 2430              		.loc 1 330 10 view .LVU792
 2431              	.LBB446:
 333:lib/tinyusb/src/common/tusb_fifo.c ****   {
 2432              		.loc 1 333 3 view .LVU793
 333:lib/tinyusb/src/common/tusb_fifo.c ****   {
 2433              		.loc 1 333 6 is_stmt 0 view .LVU794
 2434 000e 9C45     		cmp	ip, r3
 2435              	.LBE446:
 2436              	.LBE445:
 2437              	.LBE461:
 2438              	.LBE464:
 773:lib/tinyusb/src/common/tusb_fifo.c ****   _ff_lock(f->mutex_rd);
 2439              		.loc 1 773 1 view .LVU795
 2440 0010 10B5     		push	{r4, lr}
 2441              		.cfi_def_cfa_offset 8
 2442              		.cfi_offset 4, -8
 2443              		.cfi_offset 14, -4
 2444              	.LBB465:
 2445              	.LBB462:
 2446              	.LBB449:
 2447              	.LBB447:
 333:lib/tinyusb/src/common/tusb_fifo.c ****   {
 2448              		.loc 1 333 6 view .LVU796
 2449 0012 1ED3     		bcc	.L168
 335:lib/tinyusb/src/common/tusb_fifo.c ****   } else
 2450              		.loc 1 335 5 is_stmt 1 view .LVU797
 2451              	.LVL258:
 335:lib/tinyusb/src/common/tusb_fifo.c ****   } else
 2452              		.loc 1 335 12 is_stmt 0 view .LVU798
 2453 0014 ACEB0304 		sub	r4, ip, r3
 2454 0018 A4B2     		uxth	r4, r4
 2455              	.LVL259:
 335:lib/tinyusb/src/common/tusb_fifo.c ****   } else
 2456              		.loc 1 335 12 view .LVU799
 2457              	.LBE447:
 2458              	.LBE449:
 425:lib/tinyusb/src/common/tusb_fifo.c **** 
 2459              		.loc 1 425 3 is_stmt 1 view .LVU800
 425:lib/tinyusb/src/common/tusb_fifo.c **** 
 2460              		.loc 1 425 6 is_stmt 0 view .LVU801
 2461 001a 04B3     		cbz	r4, .L176
 2462              	.L181:
ARM GAS  /tmp/claude-502/ccRWC2Fn.s 			page 74


 428:lib/tinyusb/src/common/tusb_fifo.c ****   {
 2463              		.loc 1 428 3 is_stmt 1 view .LVU802
 428:lib/tinyusb/src/common/tusb_fifo.c ****   {
 2464              		.loc 1 428 6 is_stmt 0 view .LVU803
 2465 001c A242     		cmp	r2, r4
 2466 001e 0BD2     		bcs	.L179
 430:lib/tinyusb/src/common/tusb_fifo.c ****     cnt = f->depth;
 2467              		.loc 1 430 5 is_stmt 1 view .LVU804
 2468              	.LVL260:
 2469              	.LBB450:
 2470              	.LBI450:
 402:lib/tinyusb/src/common/tusb_fifo.c **** {
 2471              		.loc 1 402 10 view .LVU805
 2472              	.LBB451:
 404:lib/tinyusb/src/common/tusb_fifo.c ****   if ( wr_idx >= f->depth )
 2473              		.loc 1 404 3 view .LVU806
 405:lib/tinyusb/src/common/tusb_fifo.c ****   {
 2474              		.loc 1 405 3 view .LVU807
 405:lib/tinyusb/src/common/tusb_fifo.c ****   {
 2475              		.loc 1 405 6 is_stmt 0 view .LVU808
 2476 0020 9445     		cmp	ip, r2
 407:lib/tinyusb/src/common/tusb_fifo.c ****   }else
 2477              		.loc 1 407 5 is_stmt 1 view .LVU809
 407:lib/tinyusb/src/common/tusb_fifo.c ****   }else
 2478              		.loc 1 407 12 is_stmt 0 view .LVU810
 2479 0022 2CBF     		ite	cs
 2480 0024 ACEB0203 		subcs	r3, ip, r2
 2481              	.LVL261:
 410:lib/tinyusb/src/common/tusb_fifo.c ****   }
 2482              		.loc 1 410 5 is_stmt 1 view .LVU811
 410:lib/tinyusb/src/common/tusb_fifo.c ****   }
 2483              		.loc 1 410 12 is_stmt 0 view .LVU812
 2484 0028 0CEB0203 		addcc	r3, ip, r2
 2485 002c 9BB2     		uxth	r3, r3
 2486              	.LVL262:
 413:lib/tinyusb/src/common/tusb_fifo.c **** 
 2487              		.loc 1 413 3 is_stmt 1 view .LVU813
 2488              	.LBE451:
 2489              	.LBE450:
 2490              	.LBB453:
 2491              	.LBB454:
 394:lib/tinyusb/src/common/tusb_fifo.c ****   return idx;
 2492              		.loc 1 394 9 is_stmt 0 view .LVU814
 2493 002e 9A42     		cmp	r2, r3
 2494              	.LBE454:
 2495              	.LBE453:
 2496              	.LBB456:
 2497              	.LBB452:
 413:lib/tinyusb/src/common/tusb_fifo.c **** 
 2498              		.loc 1 413 13 view .LVU815
 2499 0030 4381     		strh	r3, [r0, #10]	@ movhi
 415:lib/tinyusb/src/common/tusb_fifo.c **** }
 2500              		.loc 1 415 3 is_stmt 1 view .LVU816
 2501              	.LVL263:
 415:lib/tinyusb/src/common/tusb_fifo.c **** }
 2502              		.loc 1 415 3 is_stmt 0 view .LVU817
 2503              	.LBE452:
ARM GAS  /tmp/claude-502/ccRWC2Fn.s 			page 75


 2504              	.LBE456:
 431:lib/tinyusb/src/common/tusb_fifo.c ****   }
 2505              		.loc 1 431 5 is_stmt 1 view .LVU818
 434:lib/tinyusb/src/common/tusb_fifo.c **** 
 2506              		.loc 1 434 3 view .LVU819
 2507              	.LBB457:
 2508              	.LBI453:
 391:lib/tinyusb/src/common/tusb_fifo.c **** {
 2509              		.loc 1 391 10 view .LVU820
 2510              	.LBB455:
 394:lib/tinyusb/src/common/tusb_fifo.c ****   return idx;
 2511              		.loc 1 394 3 view .LVU821
 394:lib/tinyusb/src/common/tusb_fifo.c ****   return idx;
 2512              		.loc 1 394 9 view .LVU822
 394:lib/tinyusb/src/common/tusb_fifo.c ****   return idx;
 2513              		.loc 1 394 9 view .LVU823
 2514 0032 03D8     		bhi	.L180
 2515              	.LVL264:
 2516              	.L175:
 394:lib/tinyusb/src/common/tusb_fifo.c ****   return idx;
 2517              		.loc 1 394 26 view .LVU824
 394:lib/tinyusb/src/common/tusb_fifo.c ****   return idx;
 2518              		.loc 1 394 30 is_stmt 0 view .LVU825
 2519 0034 9B1A     		subs	r3, r3, r2
 2520              	.LVL265:
 394:lib/tinyusb/src/common/tusb_fifo.c ****   return idx;
 2521              		.loc 1 394 30 view .LVU826
 2522 0036 9BB2     		uxth	r3, r3
 2523              	.L179:
 2524              	.LVL266:
 394:lib/tinyusb/src/common/tusb_fifo.c ****   return idx;
 2525              		.loc 1 394 9 is_stmt 1 view .LVU827
 2526 0038 9A42     		cmp	r2, r3
 2527 003a FBD9     		bls	.L175
 2528              	.L180:
 395:lib/tinyusb/src/common/tusb_fifo.c **** }
 2529              		.loc 1 395 3 view .LVU828
 2530              	.LVL267:
 395:lib/tinyusb/src/common/tusb_fifo.c **** }
 2531              		.loc 1 395 3 is_stmt 0 view .LVU829
 2532              	.LBE455:
 2533              	.LBE457:
 437:lib/tinyusb/src/common/tusb_fifo.c **** 
 2534              		.loc 1 437 3 is_stmt 1 view .LVU830
 2535              	.LBB458:
 2536              	.LBI458:
 237:lib/tinyusb/src/common/tusb_fifo.c **** {
 2537              		.loc 1 237 20 view .LVU831
 2538              	.LBB459:
 239:lib/tinyusb/src/common/tusb_fifo.c **** }
 2539              		.loc 1 239 3 view .LVU832
 239:lib/tinyusb/src/common/tusb_fifo.c **** }
 2540              		.loc 1 239 39 is_stmt 0 view .LVU833
 2541 003c C288     		ldrh	r2, [r0, #6]
 239:lib/tinyusb/src/common/tusb_fifo.c **** }
 2542              		.loc 1 239 29 view .LVU834
 2543 003e 0468     		ldr	r4, [r0]
ARM GAS  /tmp/claude-502/ccRWC2Fn.s 			page 76


 239:lib/tinyusb/src/common/tusb_fifo.c **** }
 2544              		.loc 1 239 3 view .LVU835
 2545 0040 0846     		mov	r0, r1
 2546              	.LVL268:
 239:lib/tinyusb/src/common/tusb_fifo.c **** }
 2547              		.loc 1 239 39 view .LVU836
 2548 0042 C2F30E02 		ubfx	r2, r2, #0, #15
 239:lib/tinyusb/src/common/tusb_fifo.c **** }
 2549              		.loc 1 239 3 view .LVU837
 2550 0046 02FB0341 		mla	r1, r2, r3, r4
 2551              	.LVL269:
 239:lib/tinyusb/src/common/tusb_fifo.c **** }
 2552              		.loc 1 239 3 view .LVU838
 2553 004a FFF7FEFF 		bl	memcpy
 2554              	.LVL270:
 239:lib/tinyusb/src/common/tusb_fifo.c **** }
 2555              		.loc 1 239 3 view .LVU839
 2556              	.LBE459:
 2557              	.LBE458:
 439:lib/tinyusb/src/common/tusb_fifo.c **** }
 2558              		.loc 1 439 3 is_stmt 1 view .LVU840
 439:lib/tinyusb/src/common/tusb_fifo.c **** }
 2559              		.loc 1 439 10 is_stmt 0 view .LVU841
 2560 004e 0120     		movs	r0, #1
 2561              	.LVL271:
 439:lib/tinyusb/src/common/tusb_fifo.c **** }
 2562              		.loc 1 439 10 view .LVU842
 2563              	.LBE462:
 2564              	.LBE465:
 776:lib/tinyusb/src/common/tusb_fifo.c ****   _ff_unlock(f->mutex_rd);
 2565              		.loc 1 776 26 is_stmt 1 view .LVU843
 777:lib/tinyusb/src/common/tusb_fifo.c ****   return ret;
 2566              		.loc 1 777 3 view .LVU844
 778:lib/tinyusb/src/common/tusb_fifo.c **** }
 2567              		.loc 1 778 1 is_stmt 0 view .LVU845
 2568 0050 10BD     		pop	{r4, pc}
 2569              	.LVL272:
 2570              	.L168:
 2571              	.LBB466:
 2572              	.LBB463:
 2573              	.LBB460:
 2574              	.LBB448:
 338:lib/tinyusb/src/common/tusb_fifo.c ****   }
 2575              		.loc 1 338 5 is_stmt 1 view .LVU846
 338:lib/tinyusb/src/common/tusb_fifo.c ****   }
 2576              		.loc 1 338 12 is_stmt 0 view .LVU847
 2577 0052 C3EB4204 		rsb	r4, r3, r2, lsl #1
 2578 0056 6444     		add	r4, r4, ip
 2579 0058 A4B2     		uxth	r4, r4
 2580              	.LVL273:
 338:lib/tinyusb/src/common/tusb_fifo.c ****   }
 2581              		.loc 1 338 12 view .LVU848
 2582              	.LBE448:
 2583              	.LBE460:
 425:lib/tinyusb/src/common/tusb_fifo.c **** 
 2584              		.loc 1 425 3 is_stmt 1 view .LVU849
 425:lib/tinyusb/src/common/tusb_fifo.c **** 
ARM GAS  /tmp/claude-502/ccRWC2Fn.s 			page 77


 2585              		.loc 1 425 6 is_stmt 0 view .LVU850
 2586 005a 002C     		cmp	r4, #0
 2587 005c DED1     		bne	.L181
 2588              	.L176:
 425:lib/tinyusb/src/common/tusb_fifo.c **** 
 2589              		.loc 1 425 26 view .LVU851
 2590 005e 2046     		mov	r0, r4
 2591              	.LVL274:
 425:lib/tinyusb/src/common/tusb_fifo.c **** 
 2592              		.loc 1 425 26 view .LVU852
 2593              	.LBE463:
 2594              	.LBE466:
 776:lib/tinyusb/src/common/tusb_fifo.c ****   return ret;
 2595              		.loc 1 776 26 is_stmt 1 view .LVU853
 777:lib/tinyusb/src/common/tusb_fifo.c **** }
 2596              		.loc 1 777 3 view .LVU854
 2597              		.loc 1 778 1 is_stmt 0 view .LVU855
 2598 0060 10BD     		pop	{r4, pc}
 2599              		.loc 1 778 1 view .LVU856
 2600              		.cfi_endproc
 2601              	.LFE405:
 2603 0062 00BF     		.section	.text.tu_fifo_peek_n,"ax",%progbits
 2604              		.align	1
 2605              		.p2align 2,,3
 2606              		.global	tu_fifo_peek_n
 2607              		.syntax unified
 2608              		.thumb
 2609              		.thumb_func
 2611              	tu_fifo_peek_n:
 2612              	.LVL275:
 2613              	.LFB406:
 779:lib/tinyusb/src/common/tusb_fifo.c **** 
 780:lib/tinyusb/src/common/tusb_fifo.c **** /******************************************************************************/
 781:lib/tinyusb/src/common/tusb_fifo.c **** /*!
 782:lib/tinyusb/src/common/tusb_fifo.c ****     @brief Read n items without removing it from the FIFO
 783:lib/tinyusb/src/common/tusb_fifo.c ****     This function checks for an overflow and corrects read pointer if required.
 784:lib/tinyusb/src/common/tusb_fifo.c **** 
 785:lib/tinyusb/src/common/tusb_fifo.c ****     @param[in]  f
 786:lib/tinyusb/src/common/tusb_fifo.c ****                 Pointer to the FIFO buffer to manipulate
 787:lib/tinyusb/src/common/tusb_fifo.c ****     @param[in]  p_buffer
 788:lib/tinyusb/src/common/tusb_fifo.c ****                 Pointer to the place holder for data read from the buffer
 789:lib/tinyusb/src/common/tusb_fifo.c ****     @param[in]  n
 790:lib/tinyusb/src/common/tusb_fifo.c ****                 Number of items to peek
 791:lib/tinyusb/src/common/tusb_fifo.c **** 
 792:lib/tinyusb/src/common/tusb_fifo.c ****     @returns Number of bytes written to p_buffer
 793:lib/tinyusb/src/common/tusb_fifo.c ****  */
 794:lib/tinyusb/src/common/tusb_fifo.c **** /******************************************************************************/
 795:lib/tinyusb/src/common/tusb_fifo.c **** uint16_t tu_fifo_peek_n(tu_fifo_t* f, void * p_buffer, uint16_t n)
 796:lib/tinyusb/src/common/tusb_fifo.c **** {
 2614              		.loc 1 796 1 is_stmt 1 view -0
 2615              		.cfi_startproc
 2616              		@ args = 0, pretend = 0, frame = 0
 2617              		@ frame_needed = 0, uses_anonymous_args = 0
 797:lib/tinyusb/src/common/tusb_fifo.c ****   _ff_lock(f->mutex_rd);
 2618              		.loc 1 797 24 view .LVU858
 798:lib/tinyusb/src/common/tusb_fifo.c ****   uint16_t ret = _tu_fifo_peek_n(f, p_buffer, n, f->wr_idx, f->rd_idx, TU_FIFO_COPY_INC);
 2619              		.loc 1 798 3 view .LVU859
ARM GAS  /tmp/claude-502/ccRWC2Fn.s 			page 78


 796:lib/tinyusb/src/common/tusb_fifo.c ****   _ff_lock(f->mutex_rd);
 2620              		.loc 1 796 1 is_stmt 0 view .LVU860
 2621 0000 10B5     		push	{r4, lr}
 2622              		.cfi_def_cfa_offset 8
 2623              		.cfi_offset 4, -8
 2624              		.cfi_offset 14, -4
 2625              		.loc 1 798 18 view .LVU861
 2626 0002 0389     		ldrh	r3, [r0, #8]
 796:lib/tinyusb/src/common/tusb_fifo.c ****   _ff_lock(f->mutex_rd);
 2627              		.loc 1 796 1 view .LVU862
 2628 0004 82B0     		sub	sp, sp, #8
 2629              		.cfi_def_cfa_offset 16
 2630              		.loc 1 798 18 view .LVU863
 2631 0006 4489     		ldrh	r4, [r0, #10]
 2632 0008 9BB2     		uxth	r3, r3
 2633 000a A4B2     		uxth	r4, r4
 2634 000c 0094     		str	r4, [sp]
 2635 000e 0024     		movs	r4, #0
 2636 0010 0194     		str	r4, [sp, #4]
 2637 0012 FFF7FEFF 		bl	_tu_fifo_peek_n
 2638              	.LVL276:
 799:lib/tinyusb/src/common/tusb_fifo.c ****   _ff_unlock(f->mutex_rd);
 2639              		.loc 1 799 26 is_stmt 1 view .LVU864
 800:lib/tinyusb/src/common/tusb_fifo.c ****   return ret;
 2640              		.loc 1 800 3 view .LVU865
 801:lib/tinyusb/src/common/tusb_fifo.c **** }
 2641              		.loc 1 801 1 is_stmt 0 view .LVU866
 2642 0016 02B0     		add	sp, sp, #8
 2643              		.cfi_def_cfa_offset 8
 2644              		@ sp needed
 2645 0018 10BD     		pop	{r4, pc}
 2646              		.cfi_endproc
 2647              	.LFE406:
 2649 001a 00BF     		.section	.text.tu_fifo_write,"ax",%progbits
 2650              		.align	1
 2651              		.p2align 2,,3
 2652              		.global	tu_fifo_write
 2653              		.syntax unified
 2654              		.thumb
 2655              		.thumb_func
 2657              	tu_fifo_write:
 2658              	.LVL277:
 2659              	.LFB407:
 802:lib/tinyusb/src/common/tusb_fifo.c **** 
 803:lib/tinyusb/src/common/tusb_fifo.c **** /******************************************************************************/
 804:lib/tinyusb/src/common/tusb_fifo.c **** /*!
 805:lib/tinyusb/src/common/tusb_fifo.c ****     @brief Write one element into the buffer.
 806:lib/tinyusb/src/common/tusb_fifo.c **** 
 807:lib/tinyusb/src/common/tusb_fifo.c ****     This function will write one element into the array index specified by
 808:lib/tinyusb/src/common/tusb_fifo.c ****     the write pointer and increment the write index.
 809:lib/tinyusb/src/common/tusb_fifo.c **** 
 810:lib/tinyusb/src/common/tusb_fifo.c ****     @param[in]  f
 811:lib/tinyusb/src/common/tusb_fifo.c ****                 Pointer to the FIFO buffer to manipulate
 812:lib/tinyusb/src/common/tusb_fifo.c ****     @param[in]  data
 813:lib/tinyusb/src/common/tusb_fifo.c ****                 The byte to add to the FIFO
 814:lib/tinyusb/src/common/tusb_fifo.c **** 
 815:lib/tinyusb/src/common/tusb_fifo.c ****     @returns TRUE if the data was written to the FIFO (overwrittable
ARM GAS  /tmp/claude-502/ccRWC2Fn.s 			page 79


 816:lib/tinyusb/src/common/tusb_fifo.c ****              FIFO will always return TRUE)
 817:lib/tinyusb/src/common/tusb_fifo.c ****  */
 818:lib/tinyusb/src/common/tusb_fifo.c **** /******************************************************************************/
 819:lib/tinyusb/src/common/tusb_fifo.c **** bool tu_fifo_write(tu_fifo_t* f, const void * data)
 820:lib/tinyusb/src/common/tusb_fifo.c **** {
 2660              		.loc 1 820 1 is_stmt 1 view -0
 2661              		.cfi_startproc
 2662              		@ args = 0, pretend = 0, frame = 0
 2663              		@ frame_needed = 0, uses_anonymous_args = 0
 821:lib/tinyusb/src/common/tusb_fifo.c ****   _ff_lock(f->mutex_wr);
 2664              		.loc 1 821 24 view .LVU868
 822:lib/tinyusb/src/common/tusb_fifo.c **** 
 823:lib/tinyusb/src/common/tusb_fifo.c ****   bool ret;
 2665              		.loc 1 823 3 view .LVU869
 824:lib/tinyusb/src/common/tusb_fifo.c ****   uint16_t const wr_idx = f->wr_idx;
 2666              		.loc 1 824 3 view .LVU870
 820:lib/tinyusb/src/common/tusb_fifo.c ****   _ff_lock(f->mutex_wr);
 2667              		.loc 1 820 1 is_stmt 0 view .LVU871
 2668 0000 38B5     		push	{r3, r4, r5, lr}
 2669              		.cfi_def_cfa_offset 16
 2670              		.cfi_offset 3, -16
 2671              		.cfi_offset 4, -12
 2672              		.cfi_offset 5, -8
 2673              		.cfi_offset 14, -4
 2674              		.loc 1 824 18 view .LVU872
 2675 0002 0589     		ldrh	r5, [r0, #8]
 820:lib/tinyusb/src/common/tusb_fifo.c ****   _ff_lock(f->mutex_wr);
 2676              		.loc 1 820 1 view .LVU873
 2677 0004 0446     		mov	r4, r0
 2678              	.LBB467:
 2679              	.LBB468:
 628:lib/tinyusb/src/common/tusb_fifo.c **** }
 2680              		.loc 1 628 10 view .LVU874
 2681 0006 0389     		ldrh	r3, [r0, #8]
 2682 0008 4089     		ldrh	r0, [r0, #10]
 2683              	.LVL278:
 628:lib/tinyusb/src/common/tusb_fifo.c **** }
 2684              		.loc 1 628 10 view .LVU875
 2685              	.LBE468:
 2686              	.LBE467:
 2687              		.loc 1 824 18 view .LVU876
 2688 000a ADB2     		uxth	r5, r5
 2689              	.LVL279:
 825:lib/tinyusb/src/common/tusb_fifo.c **** 
 826:lib/tinyusb/src/common/tusb_fifo.c ****   if ( tu_fifo_full(f) && !f->overwritable )
 2690              		.loc 1 826 3 is_stmt 1 view .LVU877
 2691              	.LBB475:
 2692              	.LBI467:
 626:lib/tinyusb/src/common/tusb_fifo.c **** {
 2693              		.loc 1 626 6 view .LVU878
 2694              	.LBB473:
 628:lib/tinyusb/src/common/tusb_fifo.c **** }
 2695              		.loc 1 628 3 view .LVU879
 628:lib/tinyusb/src/common/tusb_fifo.c **** }
 2696              		.loc 1 628 10 is_stmt 0 view .LVU880
 2697 000c 9BB2     		uxth	r3, r3
 2698 000e A288     		ldrh	r2, [r4, #4]
ARM GAS  /tmp/claude-502/ccRWC2Fn.s 			page 80


 2699 0010 80B2     		uxth	r0, r0
 2700              	.LVL280:
 2701              	.LBB469:
 2702              	.LBI469:
 330:lib/tinyusb/src/common/tusb_fifo.c **** {
 2703              		.loc 1 330 10 is_stmt 1 view .LVU881
 2704              	.LBB470:
 333:lib/tinyusb/src/common/tusb_fifo.c ****   {
 2705              		.loc 1 333 3 view .LVU882
 333:lib/tinyusb/src/common/tusb_fifo.c ****   {
 2706              		.loc 1 333 6 is_stmt 0 view .LVU883
 2707 0012 8342     		cmp	r3, r0
 2708 0014 20D3     		bcc	.L185
 335:lib/tinyusb/src/common/tusb_fifo.c ****   } else
 2709              		.loc 1 335 5 is_stmt 1 view .LVU884
 335:lib/tinyusb/src/common/tusb_fifo.c ****   } else
 2710              		.loc 1 335 12 is_stmt 0 view .LVU885
 2711 0016 1B1A     		subs	r3, r3, r0
 2712              	.LVL281:
 335:lib/tinyusb/src/common/tusb_fifo.c ****   } else
 2713              		.loc 1 335 12 view .LVU886
 2714 0018 9BB2     		uxth	r3, r3
 2715              	.LVL282:
 2716              	.L186:
 335:lib/tinyusb/src/common/tusb_fifo.c ****   } else
 2717              		.loc 1 335 12 view .LVU887
 2718              	.LBE470:
 2719              	.LBE469:
 2720              	.LBE473:
 2721              	.LBE475:
 2722              		.loc 1 826 6 view .LVU888
 2723 001a 9A42     		cmp	r2, r3
 2724 001c 02D8     		bhi	.L187
 2725              		.loc 1 826 29 discriminator 1 view .LVU889
 2726 001e E079     		ldrb	r0, [r4, #7]	@ zero_extendqisi2
 2727              		.loc 1 826 24 discriminator 1 view .LVU890
 2728 0020 C009     		lsrs	r0, r0, #7
 2729 0022 18D0     		beq	.L188
 2730              	.L187:
 2731              	.LVL283:
 2732              	.LBB476:
 2733              	.LBB477:
 2734              	.LBB478:
 394:lib/tinyusb/src/common/tusb_fifo.c ****   return idx;
 2735              		.loc 1 394 9 is_stmt 1 view .LVU891
 2736 0024 9542     		cmp	r5, r2
 2737 0026 2B46     		mov	r3, r5
 2738 0028 03D3     		bcc	.L189
 2739              	.LVL284:
 2740              	.L190:
 394:lib/tinyusb/src/common/tusb_fifo.c ****   return idx;
 2741              		.loc 1 394 26 view .LVU892
 394:lib/tinyusb/src/common/tusb_fifo.c ****   return idx;
 2742              		.loc 1 394 30 is_stmt 0 view .LVU893
 2743 002a 9B1A     		subs	r3, r3, r2
 2744              	.LVL285:
 394:lib/tinyusb/src/common/tusb_fifo.c ****   return idx;
ARM GAS  /tmp/claude-502/ccRWC2Fn.s 			page 81


 2745              		.loc 1 394 30 view .LVU894
 2746 002c 9BB2     		uxth	r3, r3
 2747              	.LVL286:
 394:lib/tinyusb/src/common/tusb_fifo.c ****   return idx;
 2748              		.loc 1 394 9 is_stmt 1 view .LVU895
 2749 002e 9342     		cmp	r3, r2
 2750 0030 FBD2     		bcs	.L190
 2751              	.LVL287:
 2752              	.L189:
 395:lib/tinyusb/src/common/tusb_fifo.c **** }
 2753              		.loc 1 395 3 view .LVU896
 395:lib/tinyusb/src/common/tusb_fifo.c **** }
 2754              		.loc 1 395 3 is_stmt 0 view .LVU897
 2755              	.LBE478:
 2756              	.LBE477:
 827:lib/tinyusb/src/common/tusb_fifo.c ****   {
 828:lib/tinyusb/src/common/tusb_fifo.c ****     ret = false;
 829:lib/tinyusb/src/common/tusb_fifo.c ****   }else
 830:lib/tinyusb/src/common/tusb_fifo.c ****   {
 831:lib/tinyusb/src/common/tusb_fifo.c ****     uint16_t wr_ptr = idx2ptr(f->depth, wr_idx);
 832:lib/tinyusb/src/common/tusb_fifo.c **** 
 833:lib/tinyusb/src/common/tusb_fifo.c ****     // Write data
 834:lib/tinyusb/src/common/tusb_fifo.c ****     _ff_push(f, data, wr_ptr);
 2757              		.loc 1 834 5 is_stmt 1 view .LVU898
 2758              	.LBB479:
 2759              	.LBI479:
 149:lib/tinyusb/src/common/tusb_fifo.c **** {
 2760              		.loc 1 149 20 view .LVU899
 2761              	.LBB480:
 151:lib/tinyusb/src/common/tusb_fifo.c **** }
 2762              		.loc 1 151 3 view .LVU900
 151:lib/tinyusb/src/common/tusb_fifo.c **** }
 2763              		.loc 1 151 30 is_stmt 0 view .LVU901
 2764 0032 E288     		ldrh	r2, [r4, #6]
 151:lib/tinyusb/src/common/tusb_fifo.c **** }
 2765              		.loc 1 151 20 view .LVU902
 2766 0034 2068     		ldr	r0, [r4]
 151:lib/tinyusb/src/common/tusb_fifo.c **** }
 2767              		.loc 1 151 30 view .LVU903
 2768 0036 C2F30E02 		ubfx	r2, r2, #0, #15
 151:lib/tinyusb/src/common/tusb_fifo.c **** }
 2769              		.loc 1 151 3 view .LVU904
 2770 003a 02FB0300 		mla	r0, r2, r3, r0
 2771 003e FFF7FEFF 		bl	memcpy
 2772              	.LVL288:
 151:lib/tinyusb/src/common/tusb_fifo.c **** }
 2773              		.loc 1 151 3 view .LVU905
 2774              	.LBE480:
 2775              	.LBE479:
 835:lib/tinyusb/src/common/tusb_fifo.c **** 
 836:lib/tinyusb/src/common/tusb_fifo.c ****     // Advance pointer
 837:lib/tinyusb/src/common/tusb_fifo.c ****     f->wr_idx = advance_index(f->depth, wr_idx, 1);
 2776              		.loc 1 837 5 is_stmt 1 view .LVU906
 2777              	.LBB481:
 2778              	.LBB482:
 361:lib/tinyusb/src/common/tusb_fifo.c ****   if ( (idx > new_idx) || (new_idx >= 2*depth) )
 2779              		.loc 1 361 12 is_stmt 0 view .LVU907
ARM GAS  /tmp/claude-502/ccRWC2Fn.s 			page 82


 2780 0042 6B1C     		adds	r3, r5, #1
 2781              	.LBE482:
 2782              	.LBE481:
 2783              		.loc 1 837 17 view .LVU908
 2784 0044 A288     		ldrh	r2, [r4, #4]
 2785              	.LVL289:
 2786              	.LBB486:
 2787              	.LBI481:
 356:lib/tinyusb/src/common/tusb_fifo.c **** {
 2788              		.loc 1 356 17 is_stmt 1 view .LVU909
 2789              	.LBB484:
 361:lib/tinyusb/src/common/tusb_fifo.c ****   if ( (idx > new_idx) || (new_idx >= 2*depth) )
 2790              		.loc 1 361 3 view .LVU910
 361:lib/tinyusb/src/common/tusb_fifo.c ****   if ( (idx > new_idx) || (new_idx >= 2*depth) )
 2791              		.loc 1 361 12 is_stmt 0 view .LVU911
 2792 0046 9BB2     		uxth	r3, r3
 2793              	.LVL290:
 362:lib/tinyusb/src/common/tusb_fifo.c ****   {
 2794              		.loc 1 362 3 is_stmt 1 view .LVU912
 2795 0048 5100     		lsls	r1, r2, #1
 362:lib/tinyusb/src/common/tusb_fifo.c ****   {
 2796              		.loc 1 362 6 is_stmt 0 view .LVU913
 2797 004a 9D42     		cmp	r5, r3
 2798 004c 09D9     		bls	.L199
 2799              	.L191:
 2800              	.LBB483:
 364:lib/tinyusb/src/common/tusb_fifo.c ****     new_idx = (uint16_t) (new_idx + non_used_index_space);
 2801              		.loc 1 364 5 is_stmt 1 view .LVU914
 2802              	.LVL291:
 365:lib/tinyusb/src/common/tusb_fifo.c ****   }
 2803              		.loc 1 365 5 view .LVU915
 2804 004e 5B1A     		subs	r3, r3, r1
 2805              	.LVL292:
 365:lib/tinyusb/src/common/tusb_fifo.c ****   }
 2806              		.loc 1 365 5 is_stmt 0 view .LVU916
 2807 0050 9BB2     		uxth	r3, r3
 2808              	.LVL293:
 2809              	.L192:
 365:lib/tinyusb/src/common/tusb_fifo.c ****   }
 2810              		.loc 1 365 5 view .LVU917
 2811              	.LBE483:
 368:lib/tinyusb/src/common/tusb_fifo.c **** }
 2812              		.loc 1 368 3 is_stmt 1 view .LVU918
 368:lib/tinyusb/src/common/tusb_fifo.c **** }
 2813              		.loc 1 368 3 is_stmt 0 view .LVU919
 2814              	.LBE484:
 2815              	.LBE486:
 838:lib/tinyusb/src/common/tusb_fifo.c **** 
 839:lib/tinyusb/src/common/tusb_fifo.c ****     ret = true;
 2816              		.loc 1 839 9 view .LVU920
 2817 0052 0120     		movs	r0, #1
 837:lib/tinyusb/src/common/tusb_fifo.c **** 
 2818              		.loc 1 837 15 view .LVU921
 2819 0054 2381     		strh	r3, [r4, #8]	@ movhi
 2820              		.loc 1 839 5 is_stmt 1 view .LVU922
 2821              	.LVL294:
 2822              	.L188:
ARM GAS  /tmp/claude-502/ccRWC2Fn.s 			page 83


 2823              		.loc 1 839 5 is_stmt 0 view .LVU923
 2824              	.LBE476:
 840:lib/tinyusb/src/common/tusb_fifo.c ****   }
 841:lib/tinyusb/src/common/tusb_fifo.c **** 
 842:lib/tinyusb/src/common/tusb_fifo.c ****   _ff_unlock(f->mutex_wr);
 2825              		.loc 1 842 26 is_stmt 1 view .LVU924
 843:lib/tinyusb/src/common/tusb_fifo.c **** 
 844:lib/tinyusb/src/common/tusb_fifo.c ****   return ret;
 2826              		.loc 1 844 3 view .LVU925
 845:lib/tinyusb/src/common/tusb_fifo.c **** }
 2827              		.loc 1 845 1 is_stmt 0 view .LVU926
 2828 0056 38BD     		pop	{r3, r4, r5, pc}
 2829              	.LVL295:
 2830              	.L185:
 2831              	.LBB488:
 2832              	.LBB474:
 2833              	.LBB472:
 2834              	.LBB471:
 338:lib/tinyusb/src/common/tusb_fifo.c ****   }
 2835              		.loc 1 338 5 is_stmt 1 view .LVU927
 338:lib/tinyusb/src/common/tusb_fifo.c ****   }
 2836              		.loc 1 338 12 is_stmt 0 view .LVU928
 2837 0058 C0EB4200 		rsb	r0, r0, r2, lsl #1
 2838              	.LVL296:
 338:lib/tinyusb/src/common/tusb_fifo.c ****   }
 2839              		.loc 1 338 12 view .LVU929
 2840 005c 0344     		add	r3, r3, r0
 2841              	.LVL297:
 338:lib/tinyusb/src/common/tusb_fifo.c ****   }
 2842              		.loc 1 338 12 view .LVU930
 2843 005e 9BB2     		uxth	r3, r3
 2844 0060 DBE7     		b	.L186
 2845              	.LVL298:
 2846              	.L199:
 338:lib/tinyusb/src/common/tusb_fifo.c ****   }
 2847              		.loc 1 338 12 view .LVU931
 2848              	.LBE471:
 2849              	.LBE472:
 2850              	.LBE474:
 2851              	.LBE488:
 2852              	.LBB489:
 2853              	.LBB487:
 2854              	.LBB485:
 362:lib/tinyusb/src/common/tusb_fifo.c ****   {
 2855              		.loc 1 362 24 view .LVU932
 2856 0062 B3EB420F 		cmp	r3, r2, lsl #1
 2857 0066 F4DB     		blt	.L192
 2858 0068 F1E7     		b	.L191
 2859              	.LBE485:
 2860              	.LBE487:
 2861              	.LBE489:
 2862              		.cfi_endproc
 2863              	.LFE407:
 2865 006a 00BF     		.section	.text.tu_fifo_write_n,"ax",%progbits
 2866              		.align	1
 2867              		.p2align 2,,3
 2868              		.global	tu_fifo_write_n
ARM GAS  /tmp/claude-502/ccRWC2Fn.s 			page 84


 2869              		.syntax unified
 2870              		.thumb
 2871              		.thumb_func
 2873              	tu_fifo_write_n:
 2874              	.LVL299:
 2875              	.LFB408:
 846:lib/tinyusb/src/common/tusb_fifo.c **** 
 847:lib/tinyusb/src/common/tusb_fifo.c **** /******************************************************************************/
 848:lib/tinyusb/src/common/tusb_fifo.c **** /*!
 849:lib/tinyusb/src/common/tusb_fifo.c ****     @brief This function will write n elements into the array index specified by
 850:lib/tinyusb/src/common/tusb_fifo.c ****     the write pointer and increment the write index.
 851:lib/tinyusb/src/common/tusb_fifo.c **** 
 852:lib/tinyusb/src/common/tusb_fifo.c ****     @param[in]  f
 853:lib/tinyusb/src/common/tusb_fifo.c ****                 Pointer to the FIFO buffer to manipulate
 854:lib/tinyusb/src/common/tusb_fifo.c ****     @param[in]  data
 855:lib/tinyusb/src/common/tusb_fifo.c ****                 The pointer to data to add to the FIFO
 856:lib/tinyusb/src/common/tusb_fifo.c ****     @param[in]  count
 857:lib/tinyusb/src/common/tusb_fifo.c ****                 Number of element
 858:lib/tinyusb/src/common/tusb_fifo.c ****     @return Number of written elements
 859:lib/tinyusb/src/common/tusb_fifo.c ****  */
