ARM GAS  /tmp/claude-502/ccKWrqGw.s 			page 1


   1              		.cpu cortex-m7
   2              		.arch armv7e-m
   3              		.fpu fpv5-d16
   4              		.eabi_attribute 28, 1
   5              		.eabi_attribute 20, 1
   6              		.eabi_attribute 21, 1
   7              		.eabi_attribute 23, 3
   8              		.eabi_attribute 24, 1
   9              		.eabi_attribute 25, 1
  10              		.eabi_attribute 26, 1
  11              		.eabi_attribute 30, 2
  12              		.eabi_attribute 34, 1
  13              		.eabi_attribute 18, 4
  14              		.file	"usbd.c"
  15              		.text
  16              	.Ltext0:
  17              		.cfi_sections	.debug_frame
  18              		.section	.text.tud_vendor_control_xfer_cb,"ax",%progbits
  19              		.align	1
  20              		.p2align 2,,3
  21              		.weak	tud_vendor_control_xfer_cb
  22              		.syntax unified
  23              		.thumb
  24              		.thumb_func
  26              	tud_vendor_control_xfer_cb:
  27              	.LVL0:
  28              	.LFB424:
  29              		.file 1 "lib/tinyusb/src/device/usbd.c"
   1:lib/tinyusb/src/device/usbd.c **** /*
   2:lib/tinyusb/src/device/usbd.c ****  * The MIT License (MIT)
   3:lib/tinyusb/src/device/usbd.c ****  *
   4:lib/tinyusb/src/device/usbd.c ****  * Copyright (c) 2019 Ha Thach (tinyusb.org)
   5:lib/tinyusb/src/device/usbd.c ****  *
   6:lib/tinyusb/src/device/usbd.c ****  * Permission is hereby granted, free of charge, to any person obtaining a copy
   7:lib/tinyusb/src/device/usbd.c ****  * of this software and associated documentation files (the "Software"), to deal
   8:lib/tinyusb/src/device/usbd.c ****  * in the Software without restriction, including without limitation the rights
   9:lib/tinyusb/src/device/usbd.c ****  * to use, copy, modify, merge, publish, distribute, sublicense, and/or sell
  10:lib/tinyusb/src/device/usbd.c ****  * copies of the Software, and to permit persons to whom the Software is
  11:lib/tinyusb/src/device/usbd.c ****  * furnished to do so, subject to the following conditions:
  12:lib/tinyusb/src/device/usbd.c ****  *
  13:lib/tinyusb/src/device/usbd.c ****  * The above copyright notice and this permission notice shall be included in
  14:lib/tinyusb/src/device/usbd.c ****  * all copies or substantial portions of the Software.
  15:lib/tinyusb/src/device/usbd.c ****  *
  16:lib/tinyusb/src/device/usbd.c ****  * THE SOFTWARE IS PROVIDED "AS IS", WITHOUT WARRANTY OF ANY KIND, EXPRESS OR
  17:lib/tinyusb/src/device/usbd.c ****  * IMPLIED, INCLUDING BUT NOT LIMITED TO THE WARRANTIES OF MERCHANTABILITY,
  18:lib/tinyusb/src/device/usbd.c ****  * FITNESS FOR A PARTICULAR PURPOSE AND NONINFRINGEMENT. IN NO EVENT SHALL THE
  19:lib/tinyusb/src/device/usbd.c ****  * AUTHORS OR COPYRIGHT HOLDERS BE LIABLE FOR ANY CLAIM, DAMAGES OR OTHER
  20:lib/tinyusb/src/device/usbd.c ****  * LIABILITY, WHETHER IN AN ACTION OF CONTRACT, TORT OR OTHERWISE, ARISING FROM,
  21:lib/tinyusb/src/device/usbd.c ****  * OUT OF OR IN CONNECTION WITH THE SOFTWARE OR THE USE OR OTHER DEALINGS IN
  22:lib/tinyusb/src/device/usbd.c ****  * THE SOFTWARE.
  23:lib/tinyusb/src/device/usbd.c ****  *
  24:lib/tinyusb/src/device/usbd.c ****  * This file is part of the TinyUSB stack.
  25:lib/tinyusb/src/device/usbd.c ****  */
  26:lib/tinyusb/src/device/usbd.c **** 
  27:lib/tinyusb/src/device/usbd.c **** #include "tusb_option.h"
  28:lib/tinyusb/src/device/usbd.c **** 
  29:lib/tinyusb/src/device/usbd.c **** #if CFG_TUD_ENABLED
ARM GAS  /tmp/claude-502/ccKWrqGw.s 			page 2


  30:lib/tinyusb/src/device/usbd.c **** 
  31:lib/tinyusb/src/device/usbd.c **** #include "device/dcd.h"
  32:lib/tinyusb/src/device/usbd.c **** #include "tusb.h"
  33:lib/tinyusb/src/device/usbd.c **** #include "common/tusb_private.h"
  34:lib/tinyusb/src/device/usbd.c **** 
  35:lib/tinyusb/src/device/usbd.c **** #include "device/usbd.h"
  36:lib/tinyusb/src/device/usbd.c **** #include "device/usbd_pvt.h"
  37:lib/tinyusb/src/device/usbd.c **** 
  38:lib/tinyusb/src/device/usbd.c **** //--------------------------------------------------------------------+
  39:lib/tinyusb/src/device/usbd.c **** // USBD Configuration
  40:lib/tinyusb/src/device/usbd.c **** //--------------------------------------------------------------------+
  41:lib/tinyusb/src/device/usbd.c **** #ifndef CFG_TUD_TASK_QUEUE_SZ
  42:lib/tinyusb/src/device/usbd.c ****   #define CFG_TUD_TASK_QUEUE_SZ   16
  43:lib/tinyusb/src/device/usbd.c **** #endif
  44:lib/tinyusb/src/device/usbd.c **** 
  45:lib/tinyusb/src/device/usbd.c **** //--------------------------------------------------------------------+
  46:lib/tinyusb/src/device/usbd.c **** // Weak stubs: invoked if no strong implementation is available
  47:lib/tinyusb/src/device/usbd.c **** //--------------------------------------------------------------------+
  48:lib/tinyusb/src/device/usbd.c **** TU_ATTR_WEAK void tud_event_hook_cb(uint8_t rhport, uint32_t eventid, bool in_isr) {
  49:lib/tinyusb/src/device/usbd.c ****   (void) rhport;
  50:lib/tinyusb/src/device/usbd.c ****   (void) eventid;
  51:lib/tinyusb/src/device/usbd.c ****   (void) in_isr;
  52:lib/tinyusb/src/device/usbd.c **** }
  53:lib/tinyusb/src/device/usbd.c **** 
  54:lib/tinyusb/src/device/usbd.c **** TU_ATTR_WEAK void tud_sof_cb(uint32_t frame_count) {
  55:lib/tinyusb/src/device/usbd.c ****   (void) frame_count;
  56:lib/tinyusb/src/device/usbd.c **** }
  57:lib/tinyusb/src/device/usbd.c **** 
  58:lib/tinyusb/src/device/usbd.c **** TU_ATTR_WEAK uint8_t const* tud_descriptor_bos_cb(void) {
  59:lib/tinyusb/src/device/usbd.c ****   return NULL;
  60:lib/tinyusb/src/device/usbd.c **** }
  61:lib/tinyusb/src/device/usbd.c **** 
  62:lib/tinyusb/src/device/usbd.c **** TU_ATTR_WEAK uint8_t const* tud_descriptor_device_qualifier_cb(void) {
  63:lib/tinyusb/src/device/usbd.c ****   return NULL;
  64:lib/tinyusb/src/device/usbd.c **** }
  65:lib/tinyusb/src/device/usbd.c **** 
  66:lib/tinyusb/src/device/usbd.c **** TU_ATTR_WEAK uint8_t const* tud_descriptor_other_speed_configuration_cb(uint8_t index) {
  67:lib/tinyusb/src/device/usbd.c ****   (void) index;
  68:lib/tinyusb/src/device/usbd.c ****   return NULL;
  69:lib/tinyusb/src/device/usbd.c **** }
  70:lib/tinyusb/src/device/usbd.c **** 
  71:lib/tinyusb/src/device/usbd.c **** TU_ATTR_WEAK void tud_mount_cb(void) {
  72:lib/tinyusb/src/device/usbd.c **** }
  73:lib/tinyusb/src/device/usbd.c **** 
  74:lib/tinyusb/src/device/usbd.c **** TU_ATTR_WEAK void tud_umount_cb(void) {
  75:lib/tinyusb/src/device/usbd.c **** }
  76:lib/tinyusb/src/device/usbd.c **** 
  77:lib/tinyusb/src/device/usbd.c **** TU_ATTR_WEAK void tud_suspend_cb(bool remote_wakeup_en) {
  78:lib/tinyusb/src/device/usbd.c ****   (void) remote_wakeup_en;
  79:lib/tinyusb/src/device/usbd.c **** }
  80:lib/tinyusb/src/device/usbd.c **** 
  81:lib/tinyusb/src/device/usbd.c **** TU_ATTR_WEAK void tud_resume_cb(void) {
  82:lib/tinyusb/src/device/usbd.c **** }
  83:lib/tinyusb/src/device/usbd.c **** 
  84:lib/tinyusb/src/device/usbd.c **** TU_ATTR_WEAK bool tud_vendor_control_xfer_cb(uint8_t rhport, uint8_t stage, tusb_control_request_t 
  30              		.loc 1 84 116 view -0
  31              		.cfi_startproc
ARM GAS  /tmp/claude-502/ccKWrqGw.s 			page 3


  32              		@ args = 0, pretend = 0, frame = 0
  33              		@ frame_needed = 0, uses_anonymous_args = 0
  34              		@ link register save eliminated.
  85:lib/tinyusb/src/device/usbd.c ****   (void) rhport;
  35              		.loc 1 85 3 view .LVU1
  86:lib/tinyusb/src/device/usbd.c ****   (void) stage;
  36              		.loc 1 86 3 view .LVU2
  87:lib/tinyusb/src/device/usbd.c ****   (void) request;
  37              		.loc 1 87 3 view .LVU3
  88:lib/tinyusb/src/device/usbd.c ****   return false;
  38              		.loc 1 88 3 view .LVU4
  89:lib/tinyusb/src/device/usbd.c **** }
  39              		.loc 1 89 1 is_stmt 0 view .LVU5
  40 0000 0020     		movs	r0, #0
  41              	.LVL1:
  42              		.loc 1 89 1 view .LVU6
  43 0002 7047     		bx	lr
  44              		.cfi_endproc
  45              	.LFE424:
  47              		.section	.text.configuration_reset,"ax",%progbits
  48              		.align	1
  49              		.p2align 2,,3
  50              		.syntax unified
  51              		.thumb
  52              		.thumb_func
  54              	configuration_reset:
  55              	.LVL2:
  56              	.LFB441:
  90:lib/tinyusb/src/device/usbd.c **** 
  91:lib/tinyusb/src/device/usbd.c **** TU_ATTR_WEAK bool dcd_deinit(uint8_t rhport) {
  92:lib/tinyusb/src/device/usbd.c ****   (void) rhport;
  93:lib/tinyusb/src/device/usbd.c ****   return false;
  94:lib/tinyusb/src/device/usbd.c **** }
  95:lib/tinyusb/src/device/usbd.c **** 
  96:lib/tinyusb/src/device/usbd.c **** TU_ATTR_WEAK void dcd_connect(uint8_t rhport) {
  97:lib/tinyusb/src/device/usbd.c ****   (void) rhport;
  98:lib/tinyusb/src/device/usbd.c **** }
  99:lib/tinyusb/src/device/usbd.c **** 
 100:lib/tinyusb/src/device/usbd.c **** TU_ATTR_WEAK void dcd_disconnect(uint8_t rhport) {
 101:lib/tinyusb/src/device/usbd.c ****   (void) rhport;
 102:lib/tinyusb/src/device/usbd.c **** }
 103:lib/tinyusb/src/device/usbd.c **** 
 104:lib/tinyusb/src/device/usbd.c **** //--------------------------------------------------------------------+
 105:lib/tinyusb/src/device/usbd.c **** // Device Data
 106:lib/tinyusb/src/device/usbd.c **** //--------------------------------------------------------------------+
 107:lib/tinyusb/src/device/usbd.c **** 
 108:lib/tinyusb/src/device/usbd.c **** // Invalid driver ID in itf2drv[] ep2drv[][] mapping
 109:lib/tinyusb/src/device/usbd.c **** enum { DRVID_INVALID = 0xFFu };
 110:lib/tinyusb/src/device/usbd.c **** 
 111:lib/tinyusb/src/device/usbd.c **** typedef struct {
 112:lib/tinyusb/src/device/usbd.c ****   struct TU_ATTR_PACKED {
 113:lib/tinyusb/src/device/usbd.c ****     volatile uint8_t connected    : 1;
 114:lib/tinyusb/src/device/usbd.c ****     volatile uint8_t addressed    : 1;
 115:lib/tinyusb/src/device/usbd.c ****     volatile uint8_t suspended    : 1;
 116:lib/tinyusb/src/device/usbd.c **** 
 117:lib/tinyusb/src/device/usbd.c ****     uint8_t remote_wakeup_en      : 1; // enable/disable by host
 118:lib/tinyusb/src/device/usbd.c ****     uint8_t remote_wakeup_support : 1; // configuration descriptor's attribute
ARM GAS  /tmp/claude-502/ccKWrqGw.s 			page 4


 119:lib/tinyusb/src/device/usbd.c ****     uint8_t self_powered          : 1; // configuration descriptor's attribute
 120:lib/tinyusb/src/device/usbd.c ****   };
 121:lib/tinyusb/src/device/usbd.c ****   volatile uint8_t cfg_num; // current active configuration (0x00 is not configured)
 122:lib/tinyusb/src/device/usbd.c ****   uint8_t speed;
 123:lib/tinyusb/src/device/usbd.c ****   volatile uint8_t sof_consumer;
 124:lib/tinyusb/src/device/usbd.c **** 
 125:lib/tinyusb/src/device/usbd.c ****   uint8_t itf2drv[CFG_TUD_INTERFACE_MAX];   // map interface number to driver (0xff is invalid)
 126:lib/tinyusb/src/device/usbd.c ****   uint8_t ep2drv[CFG_TUD_ENDPPOINT_MAX][2]; // map endpoint to driver ( 0xff is invalid ), can use 
 127:lib/tinyusb/src/device/usbd.c **** 
 128:lib/tinyusb/src/device/usbd.c ****   tu_edpt_state_t ep_status[CFG_TUD_ENDPPOINT_MAX][2];
 129:lib/tinyusb/src/device/usbd.c **** 
 130:lib/tinyusb/src/device/usbd.c **** }usbd_device_t;
 131:lib/tinyusb/src/device/usbd.c **** 
 132:lib/tinyusb/src/device/usbd.c **** tu_static usbd_device_t _usbd_dev;
 133:lib/tinyusb/src/device/usbd.c **** static volatile uint8_t _usbd_queued_setup;
 134:lib/tinyusb/src/device/usbd.c **** 
 135:lib/tinyusb/src/device/usbd.c **** //--------------------------------------------------------------------+
 136:lib/tinyusb/src/device/usbd.c **** // Class Driver
 137:lib/tinyusb/src/device/usbd.c **** //--------------------------------------------------------------------+
 138:lib/tinyusb/src/device/usbd.c **** #if CFG_TUSB_DEBUG >= CFG_TUD_LOG_LEVEL
 139:lib/tinyusb/src/device/usbd.c ****   #define DRIVER_NAME(_name)  _name
 140:lib/tinyusb/src/device/usbd.c **** #else
 141:lib/tinyusb/src/device/usbd.c ****   #define DRIVER_NAME(_name)  NULL
 142:lib/tinyusb/src/device/usbd.c **** #endif
 143:lib/tinyusb/src/device/usbd.c **** 
 144:lib/tinyusb/src/device/usbd.c **** // Built-in class drivers
 145:lib/tinyusb/src/device/usbd.c **** tu_static usbd_class_driver_t const _usbd_driver[] = {
 146:lib/tinyusb/src/device/usbd.c ****     #if CFG_TUD_CDC
 147:lib/tinyusb/src/device/usbd.c ****     {
 148:lib/tinyusb/src/device/usbd.c ****         .name             = DRIVER_NAME("CDC"),
 149:lib/tinyusb/src/device/usbd.c ****         .init             = cdcd_init,
 150:lib/tinyusb/src/device/usbd.c ****         .deinit           = cdcd_deinit,
 151:lib/tinyusb/src/device/usbd.c ****         .reset            = cdcd_reset,
 152:lib/tinyusb/src/device/usbd.c ****         .open             = cdcd_open,
 153:lib/tinyusb/src/device/usbd.c ****         .control_xfer_cb  = cdcd_control_xfer_cb,
 154:lib/tinyusb/src/device/usbd.c ****         .xfer_cb          = cdcd_xfer_cb,
 155:lib/tinyusb/src/device/usbd.c ****         .sof              = NULL
 156:lib/tinyusb/src/device/usbd.c ****     },
 157:lib/tinyusb/src/device/usbd.c ****     #endif
 158:lib/tinyusb/src/device/usbd.c **** 
 159:lib/tinyusb/src/device/usbd.c ****     #if CFG_TUD_MSC
 160:lib/tinyusb/src/device/usbd.c ****     {
 161:lib/tinyusb/src/device/usbd.c ****         .name             = DRIVER_NAME("MSC"),
 162:lib/tinyusb/src/device/usbd.c ****         .init             = mscd_init,
 163:lib/tinyusb/src/device/usbd.c ****         .deinit           = NULL,
 164:lib/tinyusb/src/device/usbd.c ****         .reset            = mscd_reset,
 165:lib/tinyusb/src/device/usbd.c ****         .open             = mscd_open,
 166:lib/tinyusb/src/device/usbd.c ****         .control_xfer_cb  = mscd_control_xfer_cb,
 167:lib/tinyusb/src/device/usbd.c ****         .xfer_cb          = mscd_xfer_cb,
 168:lib/tinyusb/src/device/usbd.c ****         .sof              = NULL
 169:lib/tinyusb/src/device/usbd.c ****     },
 170:lib/tinyusb/src/device/usbd.c ****     #endif
 171:lib/tinyusb/src/device/usbd.c **** 
 172:lib/tinyusb/src/device/usbd.c ****     #if CFG_TUD_HID
 173:lib/tinyusb/src/device/usbd.c ****     {
 174:lib/tinyusb/src/device/usbd.c ****         .name             = DRIVER_NAME("HID"),
 175:lib/tinyusb/src/device/usbd.c ****         .init             = hidd_init,
ARM GAS  /tmp/claude-502/ccKWrqGw.s 			page 5


 176:lib/tinyusb/src/device/usbd.c ****         .deinit           = hidd_deinit,
 177:lib/tinyusb/src/device/usbd.c ****         .reset            = hidd_reset,
 178:lib/tinyusb/src/device/usbd.c ****         .open             = hidd_open,
 179:lib/tinyusb/src/device/usbd.c ****         .control_xfer_cb  = hidd_control_xfer_cb,
 180:lib/tinyusb/src/device/usbd.c ****         .xfer_cb          = hidd_xfer_cb,
 181:lib/tinyusb/src/device/usbd.c ****         .sof              = NULL
 182:lib/tinyusb/src/device/usbd.c ****     },
 183:lib/tinyusb/src/device/usbd.c ****     #endif
 184:lib/tinyusb/src/device/usbd.c **** 
 185:lib/tinyusb/src/device/usbd.c ****     #if CFG_TUD_AUDIO
 186:lib/tinyusb/src/device/usbd.c ****     {
 187:lib/tinyusb/src/device/usbd.c ****         .name             = DRIVER_NAME("AUDIO"),
 188:lib/tinyusb/src/device/usbd.c ****         .init             = audiod_init,
 189:lib/tinyusb/src/device/usbd.c ****         .deinit           = audiod_deinit,
 190:lib/tinyusb/src/device/usbd.c ****         .reset            = audiod_reset,
 191:lib/tinyusb/src/device/usbd.c ****         .open             = audiod_open,
 192:lib/tinyusb/src/device/usbd.c ****         .control_xfer_cb  = audiod_control_xfer_cb,
 193:lib/tinyusb/src/device/usbd.c ****         .xfer_cb          = audiod_xfer_cb,
 194:lib/tinyusb/src/device/usbd.c ****         .sof              = audiod_sof_isr
 195:lib/tinyusb/src/device/usbd.c ****     },
 196:lib/tinyusb/src/device/usbd.c ****     #endif
 197:lib/tinyusb/src/device/usbd.c **** 
 198:lib/tinyusb/src/device/usbd.c ****     #if CFG_TUD_VIDEO
 199:lib/tinyusb/src/device/usbd.c ****     {
 200:lib/tinyusb/src/device/usbd.c ****         .name             = DRIVER_NAME("VIDEO"),
 201:lib/tinyusb/src/device/usbd.c ****         .init             = videod_init,
 202:lib/tinyusb/src/device/usbd.c ****         .deinit           = videod_deinit,
 203:lib/tinyusb/src/device/usbd.c ****         .reset            = videod_reset,
 204:lib/tinyusb/src/device/usbd.c ****         .open             = videod_open,
 205:lib/tinyusb/src/device/usbd.c ****         .control_xfer_cb  = videod_control_xfer_cb,
 206:lib/tinyusb/src/device/usbd.c ****         .xfer_cb          = videod_xfer_cb,
 207:lib/tinyusb/src/device/usbd.c ****         .sof              = NULL
 208:lib/tinyusb/src/device/usbd.c ****     },
 209:lib/tinyusb/src/device/usbd.c ****     #endif
 210:lib/tinyusb/src/device/usbd.c **** 
 211:lib/tinyusb/src/device/usbd.c ****     #if CFG_TUD_MIDI
 212:lib/tinyusb/src/device/usbd.c ****     {
 213:lib/tinyusb/src/device/usbd.c ****         .name             = DRIVER_NAME("MIDI"),
 214:lib/tinyusb/src/device/usbd.c ****         .init             = midid_init,
 215:lib/tinyusb/src/device/usbd.c ****         .deinit           = midid_deinit,
 216:lib/tinyusb/src/device/usbd.c ****         .open             = midid_open,
 217:lib/tinyusb/src/device/usbd.c ****         .reset            = midid_reset,
 218:lib/tinyusb/src/device/usbd.c ****         .control_xfer_cb  = midid_control_xfer_cb,
 219:lib/tinyusb/src/device/usbd.c ****         .xfer_cb          = midid_xfer_cb,
 220:lib/tinyusb/src/device/usbd.c ****         .sof              = NULL
 221:lib/tinyusb/src/device/usbd.c ****     },
 222:lib/tinyusb/src/device/usbd.c ****     #endif
 223:lib/tinyusb/src/device/usbd.c **** 
 224:lib/tinyusb/src/device/usbd.c ****     #if CFG_TUD_VENDOR
 225:lib/tinyusb/src/device/usbd.c ****     {
 226:lib/tinyusb/src/device/usbd.c ****         .name             = DRIVER_NAME("VENDOR"),
 227:lib/tinyusb/src/device/usbd.c ****         .init             = vendord_init,
 228:lib/tinyusb/src/device/usbd.c ****         .deinit           = vendord_deinit,
 229:lib/tinyusb/src/device/usbd.c ****         .reset            = vendord_reset,
 230:lib/tinyusb/src/device/usbd.c ****         .open             = vendord_open,
 231:lib/tinyusb/src/device/usbd.c ****         .control_xfer_cb  = tud_vendor_control_xfer_cb,
 232:lib/tinyusb/src/device/usbd.c ****         .xfer_cb          = vendord_xfer_cb,
ARM GAS  /tmp/claude-502/ccKWrqGw.s 			page 6


 233:lib/tinyusb/src/device/usbd.c ****         .sof              = NULL
 234:lib/tinyusb/src/device/usbd.c ****     },
 235:lib/tinyusb/src/device/usbd.c ****     #endif
 236:lib/tinyusb/src/device/usbd.c **** 
 237:lib/tinyusb/src/device/usbd.c ****     #if CFG_TUD_USBTMC
 238:lib/tinyusb/src/device/usbd.c ****     {
 239:lib/tinyusb/src/device/usbd.c ****         .name             = DRIVER_NAME("TMC"),
 240:lib/tinyusb/src/device/usbd.c ****         .init             = usbtmcd_init_cb,
 241:lib/tinyusb/src/device/usbd.c ****         .deinit           = usbtmcd_deinit,
 242:lib/tinyusb/src/device/usbd.c ****         .reset            = usbtmcd_reset_cb,
 243:lib/tinyusb/src/device/usbd.c ****         .open             = usbtmcd_open_cb,
 244:lib/tinyusb/src/device/usbd.c ****         .control_xfer_cb  = usbtmcd_control_xfer_cb,
 245:lib/tinyusb/src/device/usbd.c ****         .xfer_cb          = usbtmcd_xfer_cb,
 246:lib/tinyusb/src/device/usbd.c ****         .sof              = NULL
 247:lib/tinyusb/src/device/usbd.c ****     },
 248:lib/tinyusb/src/device/usbd.c ****     #endif
 249:lib/tinyusb/src/device/usbd.c **** 
 250:lib/tinyusb/src/device/usbd.c ****     #if CFG_TUD_DFU_RUNTIME
 251:lib/tinyusb/src/device/usbd.c ****     {
 252:lib/tinyusb/src/device/usbd.c ****         .name             = DRIVER_NAME("DFU-RUNTIME"),
 253:lib/tinyusb/src/device/usbd.c ****         .init             = dfu_rtd_init,
 254:lib/tinyusb/src/device/usbd.c ****         .deinit           = dfu_rtd_deinit,
 255:lib/tinyusb/src/device/usbd.c ****         .reset            = dfu_rtd_reset,
 256:lib/tinyusb/src/device/usbd.c ****         .open             = dfu_rtd_open,
 257:lib/tinyusb/src/device/usbd.c ****         .control_xfer_cb  = dfu_rtd_control_xfer_cb,
 258:lib/tinyusb/src/device/usbd.c ****         .xfer_cb          = NULL,
 259:lib/tinyusb/src/device/usbd.c ****         .sof              = NULL
 260:lib/tinyusb/src/device/usbd.c ****     },
 261:lib/tinyusb/src/device/usbd.c ****     #endif
 262:lib/tinyusb/src/device/usbd.c **** 
 263:lib/tinyusb/src/device/usbd.c ****     #if CFG_TUD_DFU
 264:lib/tinyusb/src/device/usbd.c ****     {
 265:lib/tinyusb/src/device/usbd.c ****         .name             = DRIVER_NAME("DFU"),
 266:lib/tinyusb/src/device/usbd.c ****         .init             = dfu_moded_init,
 267:lib/tinyusb/src/device/usbd.c ****         .deinit           = dfu_moded_deinit,
 268:lib/tinyusb/src/device/usbd.c ****         .reset            = dfu_moded_reset,
 269:lib/tinyusb/src/device/usbd.c ****         .open             = dfu_moded_open,
 270:lib/tinyusb/src/device/usbd.c ****         .control_xfer_cb  = dfu_moded_control_xfer_cb,
 271:lib/tinyusb/src/device/usbd.c ****         .xfer_cb          = NULL,
 272:lib/tinyusb/src/device/usbd.c ****         .sof              = NULL
 273:lib/tinyusb/src/device/usbd.c ****     },
 274:lib/tinyusb/src/device/usbd.c ****     #endif
 275:lib/tinyusb/src/device/usbd.c **** 
 276:lib/tinyusb/src/device/usbd.c ****     #if CFG_TUD_ECM_RNDIS || CFG_TUD_NCM
 277:lib/tinyusb/src/device/usbd.c ****     {
 278:lib/tinyusb/src/device/usbd.c ****         .name             = DRIVER_NAME("NET"),
 279:lib/tinyusb/src/device/usbd.c ****         .init             = netd_init,
 280:lib/tinyusb/src/device/usbd.c ****         .deinit           = netd_deinit,
 281:lib/tinyusb/src/device/usbd.c ****         .reset            = netd_reset,
 282:lib/tinyusb/src/device/usbd.c ****         .open             = netd_open,
 283:lib/tinyusb/src/device/usbd.c ****         .control_xfer_cb  = netd_control_xfer_cb,
 284:lib/tinyusb/src/device/usbd.c ****         .xfer_cb          = netd_xfer_cb,
 285:lib/tinyusb/src/device/usbd.c ****         .sof                  = NULL,
 286:lib/tinyusb/src/device/usbd.c ****     },
 287:lib/tinyusb/src/device/usbd.c ****     #endif
 288:lib/tinyusb/src/device/usbd.c **** 
 289:lib/tinyusb/src/device/usbd.c ****     #if CFG_TUD_BTH
ARM GAS  /tmp/claude-502/ccKWrqGw.s 			page 7


 290:lib/tinyusb/src/device/usbd.c ****     {
 291:lib/tinyusb/src/device/usbd.c ****         .name             = DRIVER_NAME("BTH"),
 292:lib/tinyusb/src/device/usbd.c ****         .init             = btd_init,
 293:lib/tinyusb/src/device/usbd.c ****         .deinit           = btd_deinit,
 294:lib/tinyusb/src/device/usbd.c ****         .reset            = btd_reset,
 295:lib/tinyusb/src/device/usbd.c ****         .open             = btd_open,
 296:lib/tinyusb/src/device/usbd.c ****         .control_xfer_cb  = btd_control_xfer_cb,
 297:lib/tinyusb/src/device/usbd.c ****         .xfer_cb          = btd_xfer_cb,
 298:lib/tinyusb/src/device/usbd.c ****         .sof              = NULL
 299:lib/tinyusb/src/device/usbd.c ****     },
 300:lib/tinyusb/src/device/usbd.c ****     #endif
 301:lib/tinyusb/src/device/usbd.c **** };
 302:lib/tinyusb/src/device/usbd.c **** 
 303:lib/tinyusb/src/device/usbd.c **** enum { BUILTIN_DRIVER_COUNT = TU_ARRAY_SIZE(_usbd_driver) };
 304:lib/tinyusb/src/device/usbd.c **** 
 305:lib/tinyusb/src/device/usbd.c **** // Additional class drivers implemented by application
 306:lib/tinyusb/src/device/usbd.c **** tu_static usbd_class_driver_t const * _app_driver = NULL;
 307:lib/tinyusb/src/device/usbd.c **** tu_static uint8_t _app_driver_count = 0;
 308:lib/tinyusb/src/device/usbd.c **** 
 309:lib/tinyusb/src/device/usbd.c **** #define TOTAL_DRIVER_COUNT    (_app_driver_count + BUILTIN_DRIVER_COUNT)
 310:lib/tinyusb/src/device/usbd.c **** 
 311:lib/tinyusb/src/device/usbd.c **** // virtually joins built-in and application drivers together.
 312:lib/tinyusb/src/device/usbd.c **** // Application is positioned first to allow overwriting built-in ones.
 313:lib/tinyusb/src/device/usbd.c **** TU_ATTR_ALWAYS_INLINE static inline usbd_class_driver_t const * get_driver(uint8_t drvid) {
 314:lib/tinyusb/src/device/usbd.c ****   usbd_class_driver_t const * driver = NULL;
 315:lib/tinyusb/src/device/usbd.c ****   if ( drvid < _app_driver_count ) {
 316:lib/tinyusb/src/device/usbd.c ****     // Application drivers
 317:lib/tinyusb/src/device/usbd.c ****     driver = &_app_driver[drvid];
 318:lib/tinyusb/src/device/usbd.c ****   } else if ( drvid < TOTAL_DRIVER_COUNT && BUILTIN_DRIVER_COUNT > 0 ){
 319:lib/tinyusb/src/device/usbd.c ****     driver = &_usbd_driver[drvid - _app_driver_count];
 320:lib/tinyusb/src/device/usbd.c ****   }
 321:lib/tinyusb/src/device/usbd.c ****   return driver;
 322:lib/tinyusb/src/device/usbd.c **** }
 323:lib/tinyusb/src/device/usbd.c **** 
 324:lib/tinyusb/src/device/usbd.c **** 
 325:lib/tinyusb/src/device/usbd.c **** //--------------------------------------------------------------------+
 326:lib/tinyusb/src/device/usbd.c **** // DCD Event
 327:lib/tinyusb/src/device/usbd.c **** //--------------------------------------------------------------------+
 328:lib/tinyusb/src/device/usbd.c **** 
 329:lib/tinyusb/src/device/usbd.c **** enum { RHPORT_INVALID = 0xFFu };
 330:lib/tinyusb/src/device/usbd.c **** tu_static uint8_t _usbd_rhport = RHPORT_INVALID;
 331:lib/tinyusb/src/device/usbd.c **** 
 332:lib/tinyusb/src/device/usbd.c **** // Event queue
 333:lib/tinyusb/src/device/usbd.c **** // usbd_int_set() is used as mutex in OS NONE config
 334:lib/tinyusb/src/device/usbd.c **** OSAL_QUEUE_DEF(usbd_int_set, _usbd_qdef, CFG_TUD_TASK_QUEUE_SZ, dcd_event_t);
 335:lib/tinyusb/src/device/usbd.c **** tu_static osal_queue_t _usbd_q;
 336:lib/tinyusb/src/device/usbd.c **** 
 337:lib/tinyusb/src/device/usbd.c **** // Mutex for claiming endpoint
 338:lib/tinyusb/src/device/usbd.c **** #if OSAL_MUTEX_REQUIRED
 339:lib/tinyusb/src/device/usbd.c ****   tu_static osal_mutex_def_t _ubsd_mutexdef;
 340:lib/tinyusb/src/device/usbd.c ****   tu_static osal_mutex_t _usbd_mutex;
 341:lib/tinyusb/src/device/usbd.c **** #else
 342:lib/tinyusb/src/device/usbd.c ****   #define _usbd_mutex   NULL
 343:lib/tinyusb/src/device/usbd.c **** #endif
 344:lib/tinyusb/src/device/usbd.c **** 
 345:lib/tinyusb/src/device/usbd.c **** TU_ATTR_ALWAYS_INLINE static inline bool queue_event(dcd_event_t const * event, bool in_isr) {
 346:lib/tinyusb/src/device/usbd.c ****   TU_ASSERT(osal_queue_send(_usbd_q, event, in_isr));
ARM GAS  /tmp/claude-502/ccKWrqGw.s 			page 8


 347:lib/tinyusb/src/device/usbd.c ****   tud_event_hook_cb(event->rhport, event->event_id, in_isr);
 348:lib/tinyusb/src/device/usbd.c ****   return true;
 349:lib/tinyusb/src/device/usbd.c **** }
 350:lib/tinyusb/src/device/usbd.c **** 
 351:lib/tinyusb/src/device/usbd.c **** //--------------------------------------------------------------------+
 352:lib/tinyusb/src/device/usbd.c **** // Prototypes
 353:lib/tinyusb/src/device/usbd.c **** //--------------------------------------------------------------------+
 354:lib/tinyusb/src/device/usbd.c **** static bool process_control_request(uint8_t rhport, tusb_control_request_t const * p_request);
 355:lib/tinyusb/src/device/usbd.c **** static bool process_set_config(uint8_t rhport, uint8_t cfg_num);
 356:lib/tinyusb/src/device/usbd.c **** static bool process_get_descriptor(uint8_t rhport, tusb_control_request_t const * p_request);
 357:lib/tinyusb/src/device/usbd.c **** 
 358:lib/tinyusb/src/device/usbd.c **** #if CFG_TUD_TEST_MODE
 359:lib/tinyusb/src/device/usbd.c **** static bool process_test_mode_cb(uint8_t rhport, uint8_t stage, tusb_control_request_t const * requ
 360:lib/tinyusb/src/device/usbd.c ****   TU_VERIFY(CONTROL_STAGE_ACK == stage);
 361:lib/tinyusb/src/device/usbd.c ****   uint8_t const selector = tu_u16_high(request->wIndex);
 362:lib/tinyusb/src/device/usbd.c ****   TU_LOG_USBD("    Enter Test Mode (test selector index: %d)\r\n", selector);
 363:lib/tinyusb/src/device/usbd.c ****   dcd_enter_test_mode(rhport, (tusb_feature_test_mode_t) selector);
 364:lib/tinyusb/src/device/usbd.c ****   return true;
 365:lib/tinyusb/src/device/usbd.c **** }
 366:lib/tinyusb/src/device/usbd.c **** #endif
 367:lib/tinyusb/src/device/usbd.c **** 
 368:lib/tinyusb/src/device/usbd.c **** // from usbd_control.c
 369:lib/tinyusb/src/device/usbd.c **** void usbd_control_reset(void);
 370:lib/tinyusb/src/device/usbd.c **** void usbd_control_set_request(tusb_control_request_t const *request);
 371:lib/tinyusb/src/device/usbd.c **** void usbd_control_set_complete_callback( usbd_control_xfer_cb_t fp );
 372:lib/tinyusb/src/device/usbd.c **** bool usbd_control_xfer_cb (uint8_t rhport, uint8_t ep_addr, xfer_result_t event, uint32_t xferred_b
 373:lib/tinyusb/src/device/usbd.c **** 
 374:lib/tinyusb/src/device/usbd.c **** 
 375:lib/tinyusb/src/device/usbd.c **** //--------------------------------------------------------------------+
 376:lib/tinyusb/src/device/usbd.c **** // Debug
 377:lib/tinyusb/src/device/usbd.c **** //--------------------------------------------------------------------+
 378:lib/tinyusb/src/device/usbd.c **** #if CFG_TUSB_DEBUG >= CFG_TUD_LOG_LEVEL
 379:lib/tinyusb/src/device/usbd.c **** tu_static char const* const _usbd_event_str[DCD_EVENT_COUNT] = {
 380:lib/tinyusb/src/device/usbd.c ****     "Invalid",
 381:lib/tinyusb/src/device/usbd.c ****     "Bus Reset",
 382:lib/tinyusb/src/device/usbd.c ****     "Unplugged",
 383:lib/tinyusb/src/device/usbd.c ****     "SOF",
 384:lib/tinyusb/src/device/usbd.c ****     "Suspend",
 385:lib/tinyusb/src/device/usbd.c ****     "Resume",
 386:lib/tinyusb/src/device/usbd.c ****     "Setup Received",
 387:lib/tinyusb/src/device/usbd.c ****     "Xfer Complete",
 388:lib/tinyusb/src/device/usbd.c ****     "Func Call"
 389:lib/tinyusb/src/device/usbd.c **** };
 390:lib/tinyusb/src/device/usbd.c **** 
 391:lib/tinyusb/src/device/usbd.c **** // for usbd_control to print the name of control complete driver
 392:lib/tinyusb/src/device/usbd.c **** void usbd_driver_print_control_complete_name(usbd_control_xfer_cb_t callback) {
 393:lib/tinyusb/src/device/usbd.c ****   for (uint8_t i = 0; i < TOTAL_DRIVER_COUNT; i++) {
 394:lib/tinyusb/src/device/usbd.c ****     usbd_class_driver_t const* driver = get_driver(i);
 395:lib/tinyusb/src/device/usbd.c ****     if (driver && driver->control_xfer_cb == callback) {
 396:lib/tinyusb/src/device/usbd.c ****       TU_LOG_USBD("%s control complete\r\n", driver->name);
 397:lib/tinyusb/src/device/usbd.c ****       return;
 398:lib/tinyusb/src/device/usbd.c ****     }
 399:lib/tinyusb/src/device/usbd.c ****   }
 400:lib/tinyusb/src/device/usbd.c **** }
 401:lib/tinyusb/src/device/usbd.c **** 
 402:lib/tinyusb/src/device/usbd.c **** #endif
 403:lib/tinyusb/src/device/usbd.c **** 
ARM GAS  /tmp/claude-502/ccKWrqGw.s 			page 9


 404:lib/tinyusb/src/device/usbd.c **** //--------------------------------------------------------------------+
 405:lib/tinyusb/src/device/usbd.c **** // Application API
 406:lib/tinyusb/src/device/usbd.c **** //--------------------------------------------------------------------+
 407:lib/tinyusb/src/device/usbd.c **** tusb_speed_t tud_speed_get(void) {
 408:lib/tinyusb/src/device/usbd.c ****   return (tusb_speed_t) _usbd_dev.speed;
 409:lib/tinyusb/src/device/usbd.c **** }
 410:lib/tinyusb/src/device/usbd.c **** 
 411:lib/tinyusb/src/device/usbd.c **** bool tud_connected(void) {
 412:lib/tinyusb/src/device/usbd.c ****   return _usbd_dev.connected;
 413:lib/tinyusb/src/device/usbd.c **** }
 414:lib/tinyusb/src/device/usbd.c **** 
 415:lib/tinyusb/src/device/usbd.c **** bool tud_mounted(void) {
 416:lib/tinyusb/src/device/usbd.c ****   return _usbd_dev.cfg_num ? true : false;
 417:lib/tinyusb/src/device/usbd.c **** }
 418:lib/tinyusb/src/device/usbd.c **** 
 419:lib/tinyusb/src/device/usbd.c **** bool tud_suspended(void) {
 420:lib/tinyusb/src/device/usbd.c ****   return _usbd_dev.suspended;
 421:lib/tinyusb/src/device/usbd.c **** }
 422:lib/tinyusb/src/device/usbd.c **** 
 423:lib/tinyusb/src/device/usbd.c **** bool tud_remote_wakeup(void) {
 424:lib/tinyusb/src/device/usbd.c ****   // only wake up host if this feature is supported and enabled and we are suspended
 425:lib/tinyusb/src/device/usbd.c ****   TU_VERIFY (_usbd_dev.suspended && _usbd_dev.remote_wakeup_support && _usbd_dev.remote_wakeup_en);
 426:lib/tinyusb/src/device/usbd.c ****   dcd_remote_wakeup(_usbd_rhport);
 427:lib/tinyusb/src/device/usbd.c ****   return true;
 428:lib/tinyusb/src/device/usbd.c **** }
 429:lib/tinyusb/src/device/usbd.c **** 
 430:lib/tinyusb/src/device/usbd.c **** bool tud_disconnect(void) {
 431:lib/tinyusb/src/device/usbd.c ****   dcd_disconnect(_usbd_rhport);
 432:lib/tinyusb/src/device/usbd.c ****   return true;
 433:lib/tinyusb/src/device/usbd.c **** }
 434:lib/tinyusb/src/device/usbd.c **** 
 435:lib/tinyusb/src/device/usbd.c **** bool tud_connect(void) {
 436:lib/tinyusb/src/device/usbd.c ****   dcd_connect(_usbd_rhport);
 437:lib/tinyusb/src/device/usbd.c ****   return true;
 438:lib/tinyusb/src/device/usbd.c **** }
 439:lib/tinyusb/src/device/usbd.c **** 
 440:lib/tinyusb/src/device/usbd.c **** void tud_sof_cb_enable(bool en) {
 441:lib/tinyusb/src/device/usbd.c ****   usbd_sof_enable(_usbd_rhport, SOF_CONSUMER_USER, en);
 442:lib/tinyusb/src/device/usbd.c **** }
 443:lib/tinyusb/src/device/usbd.c **** 
 444:lib/tinyusb/src/device/usbd.c **** //--------------------------------------------------------------------+
 445:lib/tinyusb/src/device/usbd.c **** // USBD Task
 446:lib/tinyusb/src/device/usbd.c **** //--------------------------------------------------------------------+
 447:lib/tinyusb/src/device/usbd.c **** bool tud_inited(void) {
 448:lib/tinyusb/src/device/usbd.c ****   return _usbd_rhport != RHPORT_INVALID;
 449:lib/tinyusb/src/device/usbd.c **** }
 450:lib/tinyusb/src/device/usbd.c **** 
 451:lib/tinyusb/src/device/usbd.c **** bool tud_init(uint8_t rhport) {
 452:lib/tinyusb/src/device/usbd.c ****   // skip if already initialized
 453:lib/tinyusb/src/device/usbd.c ****   if (tud_inited()) return true;
 454:lib/tinyusb/src/device/usbd.c **** 
 455:lib/tinyusb/src/device/usbd.c ****   TU_LOG_USBD("USBD init on controller %u, Highspeed = %u\r\n", rhport, TUD_OPT_HIGH_SPEED);
 456:lib/tinyusb/src/device/usbd.c ****   TU_LOG_INT(CFG_TUD_LOG_LEVEL, sizeof(usbd_device_t));
 457:lib/tinyusb/src/device/usbd.c ****   TU_LOG_INT(CFG_TUD_LOG_LEVEL, sizeof(dcd_event_t));
 458:lib/tinyusb/src/device/usbd.c ****   TU_LOG_INT(CFG_TUD_LOG_LEVEL, sizeof(tu_fifo_t));
 459:lib/tinyusb/src/device/usbd.c ****   TU_LOG_INT(CFG_TUD_LOG_LEVEL, sizeof(tu_edpt_stream_t));
 460:lib/tinyusb/src/device/usbd.c **** 
ARM GAS  /tmp/claude-502/ccKWrqGw.s 			page 10


 461:lib/tinyusb/src/device/usbd.c ****   tu_varclr(&_usbd_dev);
 462:lib/tinyusb/src/device/usbd.c ****   _usbd_queued_setup = 0;
 463:lib/tinyusb/src/device/usbd.c **** 
 464:lib/tinyusb/src/device/usbd.c **** #if OSAL_MUTEX_REQUIRED
 465:lib/tinyusb/src/device/usbd.c ****   // Init device mutex
 466:lib/tinyusb/src/device/usbd.c ****   _usbd_mutex = osal_mutex_create(&_ubsd_mutexdef);
 467:lib/tinyusb/src/device/usbd.c ****   TU_ASSERT(_usbd_mutex);
 468:lib/tinyusb/src/device/usbd.c **** #endif
 469:lib/tinyusb/src/device/usbd.c **** 
 470:lib/tinyusb/src/device/usbd.c ****   // Init device queue & task
 471:lib/tinyusb/src/device/usbd.c ****   _usbd_q = osal_queue_create(&_usbd_qdef);
 472:lib/tinyusb/src/device/usbd.c ****   TU_ASSERT(_usbd_q);
 473:lib/tinyusb/src/device/usbd.c **** 
 474:lib/tinyusb/src/device/usbd.c ****   // Get application driver if available
 475:lib/tinyusb/src/device/usbd.c ****   if (usbd_app_driver_get_cb) {
 476:lib/tinyusb/src/device/usbd.c ****     _app_driver = usbd_app_driver_get_cb(&_app_driver_count);
 477:lib/tinyusb/src/device/usbd.c ****   }
 478:lib/tinyusb/src/device/usbd.c **** 
 479:lib/tinyusb/src/device/usbd.c ****   // Init class drivers
 480:lib/tinyusb/src/device/usbd.c ****   for (uint8_t i = 0; i < TOTAL_DRIVER_COUNT; i++) {
 481:lib/tinyusb/src/device/usbd.c ****     usbd_class_driver_t const* driver = get_driver(i);
 482:lib/tinyusb/src/device/usbd.c ****     TU_ASSERT(driver && driver->init);
 483:lib/tinyusb/src/device/usbd.c ****     TU_LOG_USBD("%s init\r\n", driver->name);
 484:lib/tinyusb/src/device/usbd.c ****     driver->init();
 485:lib/tinyusb/src/device/usbd.c ****   }
 486:lib/tinyusb/src/device/usbd.c **** 
 487:lib/tinyusb/src/device/usbd.c ****   _usbd_rhport = rhport;
 488:lib/tinyusb/src/device/usbd.c **** 
 489:lib/tinyusb/src/device/usbd.c ****   // Init device controller driver
 490:lib/tinyusb/src/device/usbd.c ****   dcd_init(rhport);
 491:lib/tinyusb/src/device/usbd.c ****   dcd_int_enable(rhport);
 492:lib/tinyusb/src/device/usbd.c **** 
 493:lib/tinyusb/src/device/usbd.c ****   return true;
 494:lib/tinyusb/src/device/usbd.c **** }
 495:lib/tinyusb/src/device/usbd.c **** 
 496:lib/tinyusb/src/device/usbd.c **** bool tud_deinit(uint8_t rhport) {
 497:lib/tinyusb/src/device/usbd.c ****   // skip if not initialized
 498:lib/tinyusb/src/device/usbd.c ****   if (!tud_inited()) return true;
 499:lib/tinyusb/src/device/usbd.c **** 
 500:lib/tinyusb/src/device/usbd.c ****   TU_LOG_USBD("USBD deinit on controller %u\r\n", rhport);
 501:lib/tinyusb/src/device/usbd.c **** 
 502:lib/tinyusb/src/device/usbd.c ****   // Deinit device controller driver
 503:lib/tinyusb/src/device/usbd.c ****   dcd_int_disable(rhport);
 504:lib/tinyusb/src/device/usbd.c ****   dcd_disconnect(rhport);
 505:lib/tinyusb/src/device/usbd.c ****   dcd_deinit(rhport);
 506:lib/tinyusb/src/device/usbd.c **** 
 507:lib/tinyusb/src/device/usbd.c ****   // Deinit class drivers
 508:lib/tinyusb/src/device/usbd.c ****   for (uint8_t i = 0; i < TOTAL_DRIVER_COUNT; i++) {
 509:lib/tinyusb/src/device/usbd.c ****     usbd_class_driver_t const* driver = get_driver(i);
 510:lib/tinyusb/src/device/usbd.c ****     if(driver && driver->deinit) {
 511:lib/tinyusb/src/device/usbd.c ****       TU_LOG_USBD("%s deinit\r\n", driver->name);
 512:lib/tinyusb/src/device/usbd.c ****       driver->deinit();
 513:lib/tinyusb/src/device/usbd.c ****     }
 514:lib/tinyusb/src/device/usbd.c ****   }
 515:lib/tinyusb/src/device/usbd.c **** 
 516:lib/tinyusb/src/device/usbd.c ****   // Deinit device queue & task
 517:lib/tinyusb/src/device/usbd.c ****   osal_queue_delete(_usbd_q);
ARM GAS  /tmp/claude-502/ccKWrqGw.s 			page 11


 518:lib/tinyusb/src/device/usbd.c ****   _usbd_q = NULL;
 519:lib/tinyusb/src/device/usbd.c **** 
 520:lib/tinyusb/src/device/usbd.c **** #if OSAL_MUTEX_REQUIRED
 521:lib/tinyusb/src/device/usbd.c ****   // TODO make sure there is no task waiting on this mutex
 522:lib/tinyusb/src/device/usbd.c ****   osal_mutex_delete(_usbd_mutex);
 523:lib/tinyusb/src/device/usbd.c ****   _usbd_mutex = NULL;
 524:lib/tinyusb/src/device/usbd.c **** #endif
 525:lib/tinyusb/src/device/usbd.c **** 
 526:lib/tinyusb/src/device/usbd.c ****   _usbd_rhport = RHPORT_INVALID;
 527:lib/tinyusb/src/device/usbd.c **** 
 528:lib/tinyusb/src/device/usbd.c ****   return true;
 529:lib/tinyusb/src/device/usbd.c **** }
 530:lib/tinyusb/src/device/usbd.c **** 
 531:lib/tinyusb/src/device/usbd.c **** static void configuration_reset(uint8_t rhport) {
  57              		.loc 1 531 49 is_stmt 1 view -0
  58              		.cfi_startproc
  59              		@ args = 0, pretend = 0, frame = 0
  60              		@ frame_needed = 0, uses_anonymous_args = 0
 532:lib/tinyusb/src/device/usbd.c ****   for (uint8_t i = 0; i < TOTAL_DRIVER_COUNT; i++) {
  61              		.loc 1 532 3 view .LVU8
  62              	.LBB314:
  63              		.loc 1 532 8 view .LVU9
  64              		.loc 1 532 23 view .LVU10
  65              	.LBE314:
 531:lib/tinyusb/src/device/usbd.c ****   for (uint8_t i = 0; i < TOTAL_DRIVER_COUNT; i++) {
  66              		.loc 1 531 49 is_stmt 0 view .LVU11
  67 0000 2DE9F041 		push	{r4, r5, r6, r7, r8, lr}
  68              		.cfi_def_cfa_offset 24
  69              		.cfi_offset 4, -24
  70              		.cfi_offset 5, -20
  71              		.cfi_offset 6, -16
  72              		.cfi_offset 7, -12
  73              		.cfi_offset 8, -8
  74              		.cfi_offset 14, -4
  75              	.LBB327:
  76              		.loc 1 532 25 view .LVU12
  77 0004 1C4C     		ldr	r4, .L17
  78 0006 4FF00008 		mov	r8, #0
  79              	.LBB315:
  80              	.LBB316:
  81              	.LBB317:
 319:lib/tinyusb/src/device/usbd.c ****   }
  82              		.loc 1 319 12 view .LVU13
  83 000a 1C4E     		ldr	r6, .L17+4
  84              	.LBE317:
  85              	.LBE316:
  86              	.LBE315:
  87              	.LBE327:
 531:lib/tinyusb/src/device/usbd.c ****   for (uint8_t i = 0; i < TOTAL_DRIVER_COUNT; i++) {
  88              		.loc 1 531 49 view .LVU14
  89 000c 0746     		mov	r7, r0
  90              	.LBB328:
  91              		.loc 1 532 25 view .LVU15
  92 000e 2378     		ldrb	r3, [r4]	@ zero_extendqisi2
  93 0010 4246     		mov	r2, r8
  94              	.LBB323:
  95              	.LBB320:
ARM GAS  /tmp/claude-502/ccKWrqGw.s 			page 12


  96              	.LBB318:
 317:lib/tinyusb/src/device/usbd.c ****   } else if ( drvid < TOTAL_DRIVER_COUNT && BUILTIN_DRIVER_COUNT > 0 ){
  97              		.loc 1 317 14 view .LVU16
  98 0012 1B4D     		ldr	r5, .L17+8
  99 0014 0DE0     		b	.L8
 100              	.LVL3:
 101              	.L16:
 317:lib/tinyusb/src/device/usbd.c ****   } else if ( drvid < TOTAL_DRIVER_COUNT && BUILTIN_DRIVER_COUNT > 0 ){
 102              		.loc 1 317 12 view .LVU17
 103 0016 2B68     		ldr	r3, [r5]
 104              	.LVL4:
 321:lib/tinyusb/src/device/usbd.c **** }
 105              		.loc 1 321 3 is_stmt 1 view .LVU18
 321:lib/tinyusb/src/device/usbd.c **** }
 106              		.loc 1 321 3 is_stmt 0 view .LVU19
 107              	.LBE318:
 108              	.LBE320:
 533:lib/tinyusb/src/device/usbd.c ****     usbd_class_driver_t const* driver = get_driver(i);
 534:lib/tinyusb/src/device/usbd.c ****     TU_ASSERT(driver,);
 109              		.loc 1 534 5 is_stmt 1 view .LVU20
 110              		.loc 1 534 5 view .LVU21
 111 0018 13EB4213 		adds	r3, r3, r2, lsl #5
 112              	.LVL5:
 113              		.loc 1 534 5 is_stmt 0 view .LVU22
 114 001c 23D0     		beq	.L14
 115              	.LVL6:
 116              	.L6:
 117              		.loc 1 534 5 is_stmt 1 discriminator 2 view .LVU23
 535:lib/tinyusb/src/device/usbd.c ****     driver->reset(rhport);
 118              		.loc 1 535 5 discriminator 2 view .LVU24
 119              	.LBE323:
 532:lib/tinyusb/src/device/usbd.c ****     usbd_class_driver_t const* driver = get_driver(i);
 120              		.loc 1 532 3 is_stmt 0 discriminator 2 view .LVU25
 121 001e 08F10108 		add	r8, r8, #1
 122              	.LVL7:
 123              	.LBB324:
 124              		.loc 1 535 5 discriminator 2 view .LVU26
 125 0022 DB68     		ldr	r3, [r3, #12]
 126              	.LVL8:
 127              		.loc 1 535 5 discriminator 2 view .LVU27
 128 0024 3846     		mov	r0, r7
 129 0026 9847     		blx	r3
 130              	.LVL9:
 131              	.LBE324:
 532:lib/tinyusb/src/device/usbd.c ****     usbd_class_driver_t const* driver = get_driver(i);
 132              		.loc 1 532 47 is_stmt 1 discriminator 2 view .LVU28
 532:lib/tinyusb/src/device/usbd.c ****     usbd_class_driver_t const* driver = get_driver(i);
 133              		.loc 1 532 23 discriminator 2 view .LVU29
 532:lib/tinyusb/src/device/usbd.c ****     usbd_class_driver_t const* driver = get_driver(i);
 134              		.loc 1 532 25 is_stmt 0 discriminator 2 view .LVU30
 135 0028 2378     		ldrb	r3, [r4]	@ zero_extendqisi2
 532:lib/tinyusb/src/device/usbd.c ****     usbd_class_driver_t const* driver = get_driver(i);
 136              		.loc 1 532 3 discriminator 2 view .LVU31
 137 002a 5FFA88F2 		uxtb	r2, r8
 138 002e 9342     		cmp	r3, r2
 139 0030 06D3     		bcc	.L15
 140              	.L8:
ARM GAS  /tmp/claude-502/ccKWrqGw.s 			page 13


 141              	.LVL10:
 142              	.LBB325:
 533:lib/tinyusb/src/device/usbd.c ****     usbd_class_driver_t const* driver = get_driver(i);
 143              		.loc 1 533 5 is_stmt 1 view .LVU32
 144              	.LBB321:
 145              	.LBI316:
 313:lib/tinyusb/src/device/usbd.c ****   usbd_class_driver_t const * driver = NULL;
 146              		.loc 1 313 65 view .LVU33
 147              	.LBB319:
 314:lib/tinyusb/src/device/usbd.c ****   if ( drvid < _app_driver_count ) {
 148              		.loc 1 314 3 view .LVU34
 315:lib/tinyusb/src/device/usbd.c ****     // Application drivers
 149              		.loc 1 315 3 view .LVU35
 317:lib/tinyusb/src/device/usbd.c ****   } else if ( drvid < TOTAL_DRIVER_COUNT && BUILTIN_DRIVER_COUNT > 0 ){
 150              		.loc 1 317 5 view .LVU36
 318:lib/tinyusb/src/device/usbd.c ****     driver = &_usbd_driver[drvid - _app_driver_count];
 151              		.loc 1 318 10 view .LVU37
 319:lib/tinyusb/src/device/usbd.c ****   }
 152              		.loc 1 319 5 view .LVU38
 315:lib/tinyusb/src/device/usbd.c ****     // Application drivers
 153              		.loc 1 315 6 is_stmt 0 view .LVU39
 154 0032 9342     		cmp	r3, r2
 319:lib/tinyusb/src/device/usbd.c ****   }
 155              		.loc 1 319 34 view .LVU40
 156 0034 A2EB0303 		sub	r3, r2, r3
 315:lib/tinyusb/src/device/usbd.c ****     // Application drivers
 157              		.loc 1 315 6 view .LVU41
 158 0038 EDD8     		bhi	.L16
 319:lib/tinyusb/src/device/usbd.c ****   }
 159              		.loc 1 319 12 view .LVU42
 160 003a 06EB4313 		add	r3, r6, r3, lsl #5
 161              	.LVL11:
 321:lib/tinyusb/src/device/usbd.c **** }
 162              		.loc 1 321 3 is_stmt 1 view .LVU43
 321:lib/tinyusb/src/device/usbd.c **** }
 163              		.loc 1 321 3 is_stmt 0 view .LVU44
 164              	.LBE319:
 165              	.LBE321:
 534:lib/tinyusb/src/device/usbd.c ****     driver->reset(rhport);
 166              		.loc 1 534 5 is_stmt 1 view .LVU45
 534:lib/tinyusb/src/device/usbd.c ****     driver->reset(rhport);
 167              		.loc 1 534 5 view .LVU46
 168 003e EEE7     		b	.L6
 169              	.LVL12:
 170              	.L15:
 534:lib/tinyusb/src/device/usbd.c ****     driver->reset(rhport);
 171              		.loc 1 534 5 is_stmt 0 view .LVU47
 172              	.LBE325:
 173              	.LBE328:
 536:lib/tinyusb/src/device/usbd.c ****   }
 537:lib/tinyusb/src/device/usbd.c **** 
 538:lib/tinyusb/src/device/usbd.c ****   tu_varclr(&_usbd_dev);
 174              		.loc 1 538 3 is_stmt 1 view .LVU48
 175 0040 104C     		ldr	r4, .L17+12
 176 0042 3822     		movs	r2, #56
 177 0044 0021     		movs	r1, #0
 178 0046 2046     		mov	r0, r4
ARM GAS  /tmp/claude-502/ccKWrqGw.s 			page 14


 179 0048 FFF7FEFF 		bl	memset
 180              	.LVL13:
 539:lib/tinyusb/src/device/usbd.c ****   memset(_usbd_dev.itf2drv, DRVID_INVALID, sizeof(_usbd_dev.itf2drv)); // invalid mapping
 181              		.loc 1 539 3 view .LVU49
 182 004c 4FF0FF33 		mov	r3, #-1
 183 0050 6360     		str	r3, [r4, #4]
 540:lib/tinyusb/src/device/usbd.c ****   memset(_usbd_dev.ep2drv, DRVID_INVALID, sizeof(_usbd_dev.ep2drv)); // invalid mapping
 184              		.loc 1 540 3 is_stmt 0 view .LVU50
 185 0052 6361     		str	r3, [r4, #20]
 539:lib/tinyusb/src/device/usbd.c ****   memset(_usbd_dev.itf2drv, DRVID_INVALID, sizeof(_usbd_dev.itf2drv)); // invalid mapping
 186              		.loc 1 539 3 view .LVU51
 187 0054 2361     		str	r3, [r4, #16]
 188              		.loc 1 540 3 is_stmt 1 view .LVU52
 189 0056 2362     		str	r3, [r4, #32]
 190 0058 A384     		strh	r3, [r4, #36]	@ movhi
 539:lib/tinyusb/src/device/usbd.c ****   memset(_usbd_dev.itf2drv, DRVID_INVALID, sizeof(_usbd_dev.itf2drv)); // invalid mapping
 191              		.loc 1 539 3 is_stmt 0 view .LVU53
 192 005a C4E90233 		strd	r3, r3, [r4, #8]
 193              		.loc 1 540 3 view .LVU54
 194 005e C4E90633 		strd	r3, r3, [r4, #24]
 195              	.L3:
 541:lib/tinyusb/src/device/usbd.c **** }
 196              		.loc 1 541 1 view .LVU55
 197 0062 BDE8F081 		pop	{r4, r5, r6, r7, r8, pc}
 198              	.LVL14:
 199              	.L14:
 200              	.LBB329:
 201              	.LBB326:
 534:lib/tinyusb/src/device/usbd.c ****     driver->reset(rhport);
 202              		.loc 1 534 5 is_stmt 1 discriminator 1 view .LVU56
 534:lib/tinyusb/src/device/usbd.c ****     driver->reset(rhport);
 203              		.loc 1 534 5 discriminator 1 view .LVU57
 534:lib/tinyusb/src/device/usbd.c ****     driver->reset(rhport);
 204              		.loc 1 534 5 discriminator 1 view .LVU58
 534:lib/tinyusb/src/device/usbd.c ****     driver->reset(rhport);
 205              		.loc 1 534 5 discriminator 1 view .LVU59
 206              	.LBB322:
 534:lib/tinyusb/src/device/usbd.c ****     driver->reset(rhport);
 207              		.loc 1 534 5 discriminator 1 view .LVU60
 534:lib/tinyusb/src/device/usbd.c ****     driver->reset(rhport);
 208              		.loc 1 534 5 discriminator 1 view .LVU61
 209 0066 4FF0E023 		mov	r3, #-536813568
 210              	.LVL15:
 534:lib/tinyusb/src/device/usbd.c ****     driver->reset(rhport);
 211              		.loc 1 534 5 is_stmt 0 discriminator 1 view .LVU62
 212 006a D3F8F03D 		ldr	r3, [r3, #3568]
 213 006e DB07     		lsls	r3, r3, #31
 214 0070 F7D5     		bpl	.L3
 534:lib/tinyusb/src/device/usbd.c ****     driver->reset(rhport);
 215              		.loc 1 534 5 is_stmt 1 discriminator 3 view .LVU63
 216              		.syntax unified
 217              	@ 534 "lib/tinyusb/src/device/usbd.c" 1
 218 0072 00BE     		BKPT #0
 219              	
 220              	@ 0 "" 2
 221              		.thumb
 222              		.syntax unified
ARM GAS  /tmp/claude-502/ccKWrqGw.s 			page 15


 223              	.LBE322:
 224              	.LBE326:
 225              	.LBE329:
 226              		.loc 1 541 1 is_stmt 0 discriminator 3 view .LVU64
 227 0074 BDE8F081 		pop	{r4, r5, r6, r7, r8, pc}
 228              	.LVL16:
 229              	.L18:
 230              		.loc 1 541 1 discriminator 3 view .LVU65
 231              		.align	2
 232              	.L17:
 233 0078 00000000 		.word	.LANCHOR0
 234 007c 00000000 		.word	.LANCHOR2
 235 0080 00000000 		.word	.LANCHOR1
 236 0084 00000000 		.word	.LANCHOR3
 237              		.cfi_endproc
 238              	.LFE441:
 240              		.section	.text.usbd_int_set,"ax",%progbits
 241              		.align	1
 242              		.p2align 2,,3
 243              		.global	usbd_int_set
 244              		.syntax unified
 245              		.thumb
 246              		.thumb_func
 248              	usbd_int_set:
 249              	.LVL17:
 250              	.LFB450:
 542:lib/tinyusb/src/device/usbd.c **** 
 543:lib/tinyusb/src/device/usbd.c **** static void usbd_reset(uint8_t rhport) {
 544:lib/tinyusb/src/device/usbd.c ****   configuration_reset(rhport);
 545:lib/tinyusb/src/device/usbd.c ****   usbd_control_reset();
 546:lib/tinyusb/src/device/usbd.c **** }
 547:lib/tinyusb/src/device/usbd.c **** 
 548:lib/tinyusb/src/device/usbd.c **** bool tud_task_event_ready(void) {
 549:lib/tinyusb/src/device/usbd.c ****   // Skip if stack is not initialized
 550:lib/tinyusb/src/device/usbd.c ****   if (!tud_inited()) return false;
 551:lib/tinyusb/src/device/usbd.c ****   return !osal_queue_empty(_usbd_q);
 552:lib/tinyusb/src/device/usbd.c **** }
 553:lib/tinyusb/src/device/usbd.c **** 
 554:lib/tinyusb/src/device/usbd.c **** /* USB Device Driver task
 555:lib/tinyusb/src/device/usbd.c ****  * This top level thread manages all device controller event and delegates events to class-specific
 556:lib/tinyusb/src/device/usbd.c ****  * This should be called periodically within the mainloop or rtos thread.
 557:lib/tinyusb/src/device/usbd.c ****  *
 558:lib/tinyusb/src/device/usbd.c ****     int main(void) {
 559:lib/tinyusb/src/device/usbd.c ****       application_init();
 560:lib/tinyusb/src/device/usbd.c ****       tusb_init();
 561:lib/tinyusb/src/device/usbd.c **** 
 562:lib/tinyusb/src/device/usbd.c ****       while(1) { // the mainloop
 563:lib/tinyusb/src/device/usbd.c ****         application_code();
 564:lib/tinyusb/src/device/usbd.c ****         tud_task(); // tinyusb device task
 565:lib/tinyusb/src/device/usbd.c ****       }
 566:lib/tinyusb/src/device/usbd.c ****     }
 567:lib/tinyusb/src/device/usbd.c ****  */
 568:lib/tinyusb/src/device/usbd.c **** void tud_task_ext(uint32_t timeout_ms, bool in_isr) {
 569:lib/tinyusb/src/device/usbd.c ****   (void) in_isr; // not implemented yet
 570:lib/tinyusb/src/device/usbd.c **** 
 571:lib/tinyusb/src/device/usbd.c ****   // Skip if stack is not initialized
 572:lib/tinyusb/src/device/usbd.c ****   if (!tud_inited()) return;
ARM GAS  /tmp/claude-502/ccKWrqGw.s 			page 16


 573:lib/tinyusb/src/device/usbd.c **** 
 574:lib/tinyusb/src/device/usbd.c ****   // Loop until there is no more events in the queue
 575:lib/tinyusb/src/device/usbd.c ****   while (1) {
 576:lib/tinyusb/src/device/usbd.c ****     dcd_event_t event;
 577:lib/tinyusb/src/device/usbd.c ****     if (!osal_queue_receive(_usbd_q, &event, timeout_ms)) return;
 578:lib/tinyusb/src/device/usbd.c **** 
 579:lib/tinyusb/src/device/usbd.c **** #if CFG_TUSB_DEBUG >= CFG_TUD_LOG_LEVEL
 580:lib/tinyusb/src/device/usbd.c ****     if (event.event_id == DCD_EVENT_SETUP_RECEIVED) TU_LOG_USBD("\r\n"); // extra line for setup
 581:lib/tinyusb/src/device/usbd.c ****     TU_LOG_USBD("USBD %s ", event.event_id < DCD_EVENT_COUNT ? _usbd_event_str[event.event_id] : "C
 582:lib/tinyusb/src/device/usbd.c **** #endif
 583:lib/tinyusb/src/device/usbd.c **** 
 584:lib/tinyusb/src/device/usbd.c ****     switch (event.event_id) {
 585:lib/tinyusb/src/device/usbd.c ****       case DCD_EVENT_BUS_RESET:
 586:lib/tinyusb/src/device/usbd.c ****         TU_LOG_USBD(": %s Speed\r\n", tu_str_speed[event.bus_reset.speed]);
 587:lib/tinyusb/src/device/usbd.c ****         usbd_reset(event.rhport);
 588:lib/tinyusb/src/device/usbd.c ****         _usbd_dev.speed = event.bus_reset.speed;
 589:lib/tinyusb/src/device/usbd.c ****         break;
 590:lib/tinyusb/src/device/usbd.c **** 
 591:lib/tinyusb/src/device/usbd.c ****       case DCD_EVENT_UNPLUGGED:
 592:lib/tinyusb/src/device/usbd.c ****         TU_LOG_USBD("\r\n");
 593:lib/tinyusb/src/device/usbd.c ****         usbd_reset(event.rhport);
 594:lib/tinyusb/src/device/usbd.c ****         tud_umount_cb();
 595:lib/tinyusb/src/device/usbd.c ****         break;
 596:lib/tinyusb/src/device/usbd.c **** 
 597:lib/tinyusb/src/device/usbd.c ****       case DCD_EVENT_SETUP_RECEIVED:
 598:lib/tinyusb/src/device/usbd.c ****         TU_ASSERT(_usbd_queued_setup > 0,);
 599:lib/tinyusb/src/device/usbd.c ****         _usbd_queued_setup--;
 600:lib/tinyusb/src/device/usbd.c ****         TU_LOG_BUF(CFG_TUD_LOG_LEVEL, &event.setup_received, 8);
 601:lib/tinyusb/src/device/usbd.c ****         if (_usbd_queued_setup) {
 602:lib/tinyusb/src/device/usbd.c ****           TU_LOG_USBD("  Skipped since there is other SETUP in queue\r\n");
 603:lib/tinyusb/src/device/usbd.c ****           break;
 604:lib/tinyusb/src/device/usbd.c ****         }
 605:lib/tinyusb/src/device/usbd.c **** 
 606:lib/tinyusb/src/device/usbd.c ****         // Mark as connected after receiving 1st setup packet.
 607:lib/tinyusb/src/device/usbd.c ****         // But it is easier to set it every time instead of wasting time to check then set
 608:lib/tinyusb/src/device/usbd.c ****         _usbd_dev.connected = 1;
 609:lib/tinyusb/src/device/usbd.c **** 
 610:lib/tinyusb/src/device/usbd.c ****         // mark both in & out control as free
 611:lib/tinyusb/src/device/usbd.c ****         _usbd_dev.ep_status[0][TUSB_DIR_OUT].busy = 0;
 612:lib/tinyusb/src/device/usbd.c ****         _usbd_dev.ep_status[0][TUSB_DIR_OUT].claimed = 0;
 613:lib/tinyusb/src/device/usbd.c ****         _usbd_dev.ep_status[0][TUSB_DIR_IN].busy = 0;
 614:lib/tinyusb/src/device/usbd.c ****         _usbd_dev.ep_status[0][TUSB_DIR_IN].claimed = 0;
 615:lib/tinyusb/src/device/usbd.c **** 
 616:lib/tinyusb/src/device/usbd.c ****         // Process control request
 617:lib/tinyusb/src/device/usbd.c ****         if (!process_control_request(event.rhport, &event.setup_received)) {
 618:lib/tinyusb/src/device/usbd.c ****           TU_LOG_USBD("  Stall EP0\r\n");
 619:lib/tinyusb/src/device/usbd.c ****           // Failed -> stall both control endpoint IN and OUT
 620:lib/tinyusb/src/device/usbd.c ****           dcd_edpt_stall(event.rhport, 0);
 621:lib/tinyusb/src/device/usbd.c ****           dcd_edpt_stall(event.rhport, 0 | TUSB_DIR_IN_MASK);
 622:lib/tinyusb/src/device/usbd.c ****         }
 623:lib/tinyusb/src/device/usbd.c ****         break;
 624:lib/tinyusb/src/device/usbd.c **** 
 625:lib/tinyusb/src/device/usbd.c ****       case DCD_EVENT_XFER_COMPLETE: {
 626:lib/tinyusb/src/device/usbd.c ****         // Invoke the class callback associated with the endpoint address
 627:lib/tinyusb/src/device/usbd.c ****         uint8_t const ep_addr = event.xfer_complete.ep_addr;
 628:lib/tinyusb/src/device/usbd.c ****         uint8_t const epnum = tu_edpt_number(ep_addr);
 629:lib/tinyusb/src/device/usbd.c ****         uint8_t const ep_dir = tu_edpt_dir(ep_addr);
ARM GAS  /tmp/claude-502/ccKWrqGw.s 			page 17


 630:lib/tinyusb/src/device/usbd.c **** 
 631:lib/tinyusb/src/device/usbd.c ****         TU_LOG_USBD("on EP %02X with %u bytes\r\n", ep_addr, (unsigned int) event.xfer_complete.len
 632:lib/tinyusb/src/device/usbd.c **** 
 633:lib/tinyusb/src/device/usbd.c ****         _usbd_dev.ep_status[epnum][ep_dir].busy = 0;
 634:lib/tinyusb/src/device/usbd.c ****         _usbd_dev.ep_status[epnum][ep_dir].claimed = 0;
 635:lib/tinyusb/src/device/usbd.c **** 
 636:lib/tinyusb/src/device/usbd.c ****         if (0 == epnum) {
 637:lib/tinyusb/src/device/usbd.c ****           usbd_control_xfer_cb(event.rhport, ep_addr, (xfer_result_t) event.xfer_complete.result,
 638:lib/tinyusb/src/device/usbd.c ****                                event.xfer_complete.len);
 639:lib/tinyusb/src/device/usbd.c ****         } else {
 640:lib/tinyusb/src/device/usbd.c ****           usbd_class_driver_t const* driver = get_driver(_usbd_dev.ep2drv[epnum][ep_dir]);
 641:lib/tinyusb/src/device/usbd.c ****           TU_ASSERT(driver,);
 642:lib/tinyusb/src/device/usbd.c **** 
 643:lib/tinyusb/src/device/usbd.c ****           TU_LOG_USBD("  %s xfer callback\r\n", driver->name);
 644:lib/tinyusb/src/device/usbd.c ****           driver->xfer_cb(event.rhport, ep_addr, (xfer_result_t) event.xfer_complete.result, event.
 645:lib/tinyusb/src/device/usbd.c ****         }
 646:lib/tinyusb/src/device/usbd.c ****         break;
 647:lib/tinyusb/src/device/usbd.c ****       }
 648:lib/tinyusb/src/device/usbd.c **** 
 649:lib/tinyusb/src/device/usbd.c ****       case DCD_EVENT_SUSPEND:
 650:lib/tinyusb/src/device/usbd.c ****         // NOTE: When plugging/unplugging device, the D+/D- state are unstable and
 651:lib/tinyusb/src/device/usbd.c ****         // can accidentally meet the SUSPEND condition ( Bus Idle for 3ms ), which result in a seri
 652:lib/tinyusb/src/device/usbd.c ****         // e.g suspend -> resume -> unplug/plug. Skip suspend/resume if not connected
 653:lib/tinyusb/src/device/usbd.c ****         if (_usbd_dev.connected) {
 654:lib/tinyusb/src/device/usbd.c ****           TU_LOG_USBD(": Remote Wakeup = %u\r\n", _usbd_dev.remote_wakeup_en);
 655:lib/tinyusb/src/device/usbd.c ****           tud_suspend_cb(_usbd_dev.remote_wakeup_en);
 656:lib/tinyusb/src/device/usbd.c ****         } else {
 657:lib/tinyusb/src/device/usbd.c ****           TU_LOG_USBD(" Skipped\r\n");
 658:lib/tinyusb/src/device/usbd.c ****         }
 659:lib/tinyusb/src/device/usbd.c ****         break;
 660:lib/tinyusb/src/device/usbd.c **** 
 661:lib/tinyusb/src/device/usbd.c ****       case DCD_EVENT_RESUME:
 662:lib/tinyusb/src/device/usbd.c ****         if (_usbd_dev.connected) {
 663:lib/tinyusb/src/device/usbd.c ****           TU_LOG_USBD("\r\n");
 664:lib/tinyusb/src/device/usbd.c ****           tud_resume_cb();
 665:lib/tinyusb/src/device/usbd.c ****         } else {
 666:lib/tinyusb/src/device/usbd.c ****           TU_LOG_USBD(" Skipped\r\n");
 667:lib/tinyusb/src/device/usbd.c ****         }
 668:lib/tinyusb/src/device/usbd.c ****         break;
 669:lib/tinyusb/src/device/usbd.c **** 
 670:lib/tinyusb/src/device/usbd.c ****       case USBD_EVENT_FUNC_CALL:
 671:lib/tinyusb/src/device/usbd.c ****         TU_LOG_USBD("\r\n");
 672:lib/tinyusb/src/device/usbd.c ****         if (event.func_call.func) event.func_call.func(event.func_call.param);
 673:lib/tinyusb/src/device/usbd.c ****         break;
 674:lib/tinyusb/src/device/usbd.c **** 
 675:lib/tinyusb/src/device/usbd.c ****       case DCD_EVENT_SOF:
 676:lib/tinyusb/src/device/usbd.c ****         if (tu_bit_test(_usbd_dev.sof_consumer, SOF_CONSUMER_USER)) {
 677:lib/tinyusb/src/device/usbd.c ****           TU_LOG_USBD("\r\n");
 678:lib/tinyusb/src/device/usbd.c ****           tud_sof_cb(event.sof.frame_count);
 679:lib/tinyusb/src/device/usbd.c ****         }
 680:lib/tinyusb/src/device/usbd.c ****       break;
 681:lib/tinyusb/src/device/usbd.c **** 
 682:lib/tinyusb/src/device/usbd.c ****       default:
 683:lib/tinyusb/src/device/usbd.c ****         TU_BREAKPOINT();
 684:lib/tinyusb/src/device/usbd.c ****         break;
 685:lib/tinyusb/src/device/usbd.c ****     }
 686:lib/tinyusb/src/device/usbd.c **** 
ARM GAS  /tmp/claude-502/ccKWrqGw.s 			page 18


 687:lib/tinyusb/src/device/usbd.c **** #if CFG_TUSB_OS != OPT_OS_NONE && CFG_TUSB_OS != OPT_OS_PICO
 688:lib/tinyusb/src/device/usbd.c ****     // return if there is no more events, for application to run other background
 689:lib/tinyusb/src/device/usbd.c ****     if (osal_queue_empty(_usbd_q)) return;
 690:lib/tinyusb/src/device/usbd.c **** #endif
 691:lib/tinyusb/src/device/usbd.c ****   }
 692:lib/tinyusb/src/device/usbd.c **** }
 693:lib/tinyusb/src/device/usbd.c **** 
 694:lib/tinyusb/src/device/usbd.c **** //--------------------------------------------------------------------+
 695:lib/tinyusb/src/device/usbd.c **** // Control Request Parser & Handling
 696:lib/tinyusb/src/device/usbd.c **** //--------------------------------------------------------------------+
 697:lib/tinyusb/src/device/usbd.c **** 
 698:lib/tinyusb/src/device/usbd.c **** // Helper to invoke class driver control request handler
 699:lib/tinyusb/src/device/usbd.c **** static bool invoke_class_control(uint8_t rhport, usbd_class_driver_t const * driver, tusb_control_r
 700:lib/tinyusb/src/device/usbd.c ****   usbd_control_set_complete_callback(driver->control_xfer_cb);
 701:lib/tinyusb/src/device/usbd.c ****   TU_LOG_USBD("  %s control request\r\n", driver->name);
 702:lib/tinyusb/src/device/usbd.c ****   return driver->control_xfer_cb(rhport, CONTROL_STAGE_SETUP, request);
 703:lib/tinyusb/src/device/usbd.c **** }
 704:lib/tinyusb/src/device/usbd.c **** 
 705:lib/tinyusb/src/device/usbd.c **** // This handles the actual request and its response.
 706:lib/tinyusb/src/device/usbd.c **** // Returns false if unable to complete the request, causing caller to stall control endpoints.
 707:lib/tinyusb/src/device/usbd.c **** static bool process_control_request(uint8_t rhport, tusb_control_request_t const * p_request) {
 708:lib/tinyusb/src/device/usbd.c ****   usbd_control_set_complete_callback(NULL);
 709:lib/tinyusb/src/device/usbd.c ****   TU_ASSERT(p_request->bmRequestType_bit.type < TUSB_REQ_TYPE_INVALID);
 710:lib/tinyusb/src/device/usbd.c **** 
 711:lib/tinyusb/src/device/usbd.c ****   // Vendor request
 712:lib/tinyusb/src/device/usbd.c ****   if ( p_request->bmRequestType_bit.type == TUSB_REQ_TYPE_VENDOR ) {
 713:lib/tinyusb/src/device/usbd.c ****     usbd_control_set_complete_callback(tud_vendor_control_xfer_cb);
 714:lib/tinyusb/src/device/usbd.c ****     return tud_vendor_control_xfer_cb(rhport, CONTROL_STAGE_SETUP, p_request);
 715:lib/tinyusb/src/device/usbd.c ****   }
 716:lib/tinyusb/src/device/usbd.c **** 
 717:lib/tinyusb/src/device/usbd.c **** #if CFG_TUSB_DEBUG >= CFG_TUD_LOG_LEVEL
 718:lib/tinyusb/src/device/usbd.c ****   if (TUSB_REQ_TYPE_STANDARD == p_request->bmRequestType_bit.type && p_request->bRequest <= TUSB_RE
 719:lib/tinyusb/src/device/usbd.c ****     TU_LOG_USBD("  %s", tu_str_std_request[p_request->bRequest]);
 720:lib/tinyusb/src/device/usbd.c ****     if (TUSB_REQ_GET_DESCRIPTOR != p_request->bRequest) TU_LOG_USBD("\r\n");
 721:lib/tinyusb/src/device/usbd.c ****   }
 722:lib/tinyusb/src/device/usbd.c **** #endif
 723:lib/tinyusb/src/device/usbd.c **** 
 724:lib/tinyusb/src/device/usbd.c ****   switch ( p_request->bmRequestType_bit.recipient ) {
 725:lib/tinyusb/src/device/usbd.c ****     //------------- Device Requests e.g in enumeration -------------//
 726:lib/tinyusb/src/device/usbd.c ****     case TUSB_REQ_RCPT_DEVICE:
 727:lib/tinyusb/src/device/usbd.c ****       if ( TUSB_REQ_TYPE_CLASS == p_request->bmRequestType_bit.type ) {
 728:lib/tinyusb/src/device/usbd.c ****         uint8_t const itf = tu_u16_low(p_request->wIndex);
 729:lib/tinyusb/src/device/usbd.c ****         TU_VERIFY(itf < TU_ARRAY_SIZE(_usbd_dev.itf2drv));
 730:lib/tinyusb/src/device/usbd.c **** 
 731:lib/tinyusb/src/device/usbd.c ****         usbd_class_driver_t const * driver = get_driver(_usbd_dev.itf2drv[itf]);
 732:lib/tinyusb/src/device/usbd.c ****         TU_VERIFY(driver);
 733:lib/tinyusb/src/device/usbd.c **** 
 734:lib/tinyusb/src/device/usbd.c ****         // forward to class driver: "non-STD request to Interface"
 735:lib/tinyusb/src/device/usbd.c ****         return invoke_class_control(rhport, driver, p_request);
 736:lib/tinyusb/src/device/usbd.c ****       }
 737:lib/tinyusb/src/device/usbd.c **** 
 738:lib/tinyusb/src/device/usbd.c ****       if ( TUSB_REQ_TYPE_STANDARD != p_request->bmRequestType_bit.type ) {
 739:lib/tinyusb/src/device/usbd.c ****         // Non-standard request is not supported
 740:lib/tinyusb/src/device/usbd.c ****         TU_BREAKPOINT();
 741:lib/tinyusb/src/device/usbd.c ****         return false;
 742:lib/tinyusb/src/device/usbd.c ****       }
 743:lib/tinyusb/src/device/usbd.c **** 
ARM GAS  /tmp/claude-502/ccKWrqGw.s 			page 19


 744:lib/tinyusb/src/device/usbd.c ****       switch ( p_request->bRequest ) {
 745:lib/tinyusb/src/device/usbd.c ****         case TUSB_REQ_SET_ADDRESS:
 746:lib/tinyusb/src/device/usbd.c ****           // Depending on mcu, status phase could be sent either before or after changing device ad
 747:lib/tinyusb/src/device/usbd.c ****           // or even require stack to not response with status at all
 748:lib/tinyusb/src/device/usbd.c ****           // Therefore DCD must take full responsibility to response and include zlp status packet 
 749:lib/tinyusb/src/device/usbd.c ****           usbd_control_set_request(p_request); // set request since DCD has no access to tud_contro
 750:lib/tinyusb/src/device/usbd.c ****           dcd_set_address(rhport, (uint8_t) p_request->wValue);
 751:lib/tinyusb/src/device/usbd.c ****           // skip tud_control_status()
 752:lib/tinyusb/src/device/usbd.c ****           _usbd_dev.addressed = 1;
 753:lib/tinyusb/src/device/usbd.c ****         break;
 754:lib/tinyusb/src/device/usbd.c **** 
 755:lib/tinyusb/src/device/usbd.c ****         case TUSB_REQ_GET_CONFIGURATION: {
 756:lib/tinyusb/src/device/usbd.c ****           uint8_t cfg_num = _usbd_dev.cfg_num;
 757:lib/tinyusb/src/device/usbd.c ****           tud_control_xfer(rhport, p_request, &cfg_num, 1);
 758:lib/tinyusb/src/device/usbd.c ****         }
 759:lib/tinyusb/src/device/usbd.c ****         break;
 760:lib/tinyusb/src/device/usbd.c **** 
 761:lib/tinyusb/src/device/usbd.c ****         case TUSB_REQ_SET_CONFIGURATION: {
 762:lib/tinyusb/src/device/usbd.c ****           uint8_t const cfg_num = (uint8_t) p_request->wValue;
 763:lib/tinyusb/src/device/usbd.c **** 
 764:lib/tinyusb/src/device/usbd.c ****           // Only process if new configure is different
 765:lib/tinyusb/src/device/usbd.c ****           if (_usbd_dev.cfg_num != cfg_num) {
 766:lib/tinyusb/src/device/usbd.c ****             if ( _usbd_dev.cfg_num ) {
 767:lib/tinyusb/src/device/usbd.c ****               // already configured: need to clear all endpoints and driver first
 768:lib/tinyusb/src/device/usbd.c ****               TU_LOG_USBD("  Clear current Configuration (%u) before switching\r\n", _usbd_dev.cfg_
 769:lib/tinyusb/src/device/usbd.c **** 
 770:lib/tinyusb/src/device/usbd.c ****               // disable SOF
 771:lib/tinyusb/src/device/usbd.c ****               dcd_sof_enable(rhport, false);
 772:lib/tinyusb/src/device/usbd.c **** 
 773:lib/tinyusb/src/device/usbd.c ****               // close all non-control endpoints, cancel all pending transfers if any
 774:lib/tinyusb/src/device/usbd.c ****               dcd_edpt_close_all(rhport);
 775:lib/tinyusb/src/device/usbd.c **** 
 776:lib/tinyusb/src/device/usbd.c ****               // close all drivers and current configured state except bus speed
 777:lib/tinyusb/src/device/usbd.c ****               uint8_t const speed = _usbd_dev.speed;
 778:lib/tinyusb/src/device/usbd.c ****               configuration_reset(rhport);
 779:lib/tinyusb/src/device/usbd.c **** 
 780:lib/tinyusb/src/device/usbd.c ****               _usbd_dev.speed = speed; // restore speed
 781:lib/tinyusb/src/device/usbd.c ****             }
 782:lib/tinyusb/src/device/usbd.c **** 
 783:lib/tinyusb/src/device/usbd.c ****             _usbd_dev.cfg_num = cfg_num;
 784:lib/tinyusb/src/device/usbd.c **** 
 785:lib/tinyusb/src/device/usbd.c ****             // Handle the new configuration and execute the corresponding callback
 786:lib/tinyusb/src/device/usbd.c ****             if ( cfg_num ) {
 787:lib/tinyusb/src/device/usbd.c ****               // switch to new configuration if not zero
 788:lib/tinyusb/src/device/usbd.c ****               if (!process_set_config(rhport, cfg_num)) {
 789:lib/tinyusb/src/device/usbd.c ****                 TU_MESS_FAILED();
 790:lib/tinyusb/src/device/usbd.c ****                 TU_BREAKPOINT();
 791:lib/tinyusb/src/device/usbd.c ****                 _usbd_dev.cfg_num = 0;
 792:lib/tinyusb/src/device/usbd.c ****                 return false;
 793:lib/tinyusb/src/device/usbd.c ****               }
 794:lib/tinyusb/src/device/usbd.c ****               tud_mount_cb();
 795:lib/tinyusb/src/device/usbd.c ****             } else {
 796:lib/tinyusb/src/device/usbd.c ****               tud_umount_cb();
 797:lib/tinyusb/src/device/usbd.c ****             }
 798:lib/tinyusb/src/device/usbd.c ****           }
 799:lib/tinyusb/src/device/usbd.c **** 
 800:lib/tinyusb/src/device/usbd.c ****           tud_control_status(rhport, p_request);
ARM GAS  /tmp/claude-502/ccKWrqGw.s 			page 20


 801:lib/tinyusb/src/device/usbd.c ****         }
 802:lib/tinyusb/src/device/usbd.c ****         break;
 803:lib/tinyusb/src/device/usbd.c **** 
 804:lib/tinyusb/src/device/usbd.c ****         case TUSB_REQ_GET_DESCRIPTOR:
 805:lib/tinyusb/src/device/usbd.c ****           TU_VERIFY( process_get_descriptor(rhport, p_request) );
 806:lib/tinyusb/src/device/usbd.c ****         break;
 807:lib/tinyusb/src/device/usbd.c **** 
 808:lib/tinyusb/src/device/usbd.c ****         case TUSB_REQ_SET_FEATURE:
 809:lib/tinyusb/src/device/usbd.c ****           switch(p_request->wValue) {
 810:lib/tinyusb/src/device/usbd.c ****             case TUSB_REQ_FEATURE_REMOTE_WAKEUP:
 811:lib/tinyusb/src/device/usbd.c ****               TU_LOG_USBD("    Enable Remote Wakeup\r\n");
 812:lib/tinyusb/src/device/usbd.c ****               // Host may enable remote wake up before suspending especially HID device
 813:lib/tinyusb/src/device/usbd.c ****               _usbd_dev.remote_wakeup_en = true;
 814:lib/tinyusb/src/device/usbd.c ****               tud_control_status(rhport, p_request);
 815:lib/tinyusb/src/device/usbd.c ****             break;
 816:lib/tinyusb/src/device/usbd.c **** 
 817:lib/tinyusb/src/device/usbd.c ****             #if CFG_TUD_TEST_MODE
 818:lib/tinyusb/src/device/usbd.c ****             case TUSB_REQ_FEATURE_TEST_MODE: {
 819:lib/tinyusb/src/device/usbd.c ****               // Only handle the test mode if supported and valid
 820:lib/tinyusb/src/device/usbd.c ****               TU_VERIFY(0 == tu_u16_low(p_request->wIndex));
 821:lib/tinyusb/src/device/usbd.c **** 
 822:lib/tinyusb/src/device/usbd.c ****               uint8_t const selector = tu_u16_high(p_request->wIndex);
 823:lib/tinyusb/src/device/usbd.c ****               TU_VERIFY(TUSB_FEATURE_TEST_J <= selector && selector <= TUSB_FEATURE_TEST_FORCE_ENAB
 824:lib/tinyusb/src/device/usbd.c **** 
 825:lib/tinyusb/src/device/usbd.c ****               usbd_control_set_complete_callback(process_test_mode_cb);
 826:lib/tinyusb/src/device/usbd.c ****               tud_control_status(rhport, p_request);
 827:lib/tinyusb/src/device/usbd.c ****               break;
 828:lib/tinyusb/src/device/usbd.c ****             }
 829:lib/tinyusb/src/device/usbd.c ****             #endif /* CFG_TUD_TEST_MODE */
 830:lib/tinyusb/src/device/usbd.c **** 
 831:lib/tinyusb/src/device/usbd.c ****             // Stall unsupported feature selector
 832:lib/tinyusb/src/device/usbd.c ****             default: return false;
 833:lib/tinyusb/src/device/usbd.c ****           }
 834:lib/tinyusb/src/device/usbd.c ****         break;
 835:lib/tinyusb/src/device/usbd.c **** 
 836:lib/tinyusb/src/device/usbd.c ****         case TUSB_REQ_CLEAR_FEATURE:
 837:lib/tinyusb/src/device/usbd.c ****           // Only support remote wakeup for device feature
 838:lib/tinyusb/src/device/usbd.c ****           TU_VERIFY(TUSB_REQ_FEATURE_REMOTE_WAKEUP == p_request->wValue);
 839:lib/tinyusb/src/device/usbd.c **** 
 840:lib/tinyusb/src/device/usbd.c ****           TU_LOG_USBD("    Disable Remote Wakeup\r\n");
 841:lib/tinyusb/src/device/usbd.c **** 
 842:lib/tinyusb/src/device/usbd.c ****           // Host may disable remote wake up after resuming
 843:lib/tinyusb/src/device/usbd.c ****           _usbd_dev.remote_wakeup_en = false;
 844:lib/tinyusb/src/device/usbd.c ****           tud_control_status(rhport, p_request);
 845:lib/tinyusb/src/device/usbd.c ****         break;
 846:lib/tinyusb/src/device/usbd.c **** 
 847:lib/tinyusb/src/device/usbd.c ****         case TUSB_REQ_GET_STATUS: {
 848:lib/tinyusb/src/device/usbd.c ****           // Device status bit mask
 849:lib/tinyusb/src/device/usbd.c ****           // - Bit 0: Self Powered
 850:lib/tinyusb/src/device/usbd.c ****           // - Bit 1: Remote Wakeup enabled
 851:lib/tinyusb/src/device/usbd.c ****           uint16_t status = (uint16_t) ((_usbd_dev.self_powered ? 1u : 0u) | (_usbd_dev.remote_wake
 852:lib/tinyusb/src/device/usbd.c ****           tud_control_xfer(rhport, p_request, &status, 2);
 853:lib/tinyusb/src/device/usbd.c ****           break;
 854:lib/tinyusb/src/device/usbd.c ****         }
 855:lib/tinyusb/src/device/usbd.c **** 
 856:lib/tinyusb/src/device/usbd.c ****         // Unknown/Unsupported request
 857:lib/tinyusb/src/device/usbd.c ****         default: TU_BREAKPOINT(); return false;
ARM GAS  /tmp/claude-502/ccKWrqGw.s 			page 21


 858:lib/tinyusb/src/device/usbd.c ****       }
 859:lib/tinyusb/src/device/usbd.c ****     break;
 860:lib/tinyusb/src/device/usbd.c **** 
 861:lib/tinyusb/src/device/usbd.c ****     //------------- Class/Interface Specific Request -------------//
 862:lib/tinyusb/src/device/usbd.c ****     case TUSB_REQ_RCPT_INTERFACE: {
 863:lib/tinyusb/src/device/usbd.c ****       uint8_t const itf = tu_u16_low(p_request->wIndex);
 864:lib/tinyusb/src/device/usbd.c ****       TU_VERIFY(itf < TU_ARRAY_SIZE(_usbd_dev.itf2drv));
 865:lib/tinyusb/src/device/usbd.c **** 
 866:lib/tinyusb/src/device/usbd.c ****       usbd_class_driver_t const * driver = get_driver(_usbd_dev.itf2drv[itf]);
 867:lib/tinyusb/src/device/usbd.c ****       TU_VERIFY(driver);
 868:lib/tinyusb/src/device/usbd.c **** 
 869:lib/tinyusb/src/device/usbd.c ****       // all requests to Interface (STD or Class) is forwarded to class driver.
 870:lib/tinyusb/src/device/usbd.c ****       // notable requests are: GET HID REPORT DESCRIPTOR, SET_INTERFACE, GET_INTERFACE
 871:lib/tinyusb/src/device/usbd.c ****       if ( !invoke_class_control(rhport, driver, p_request) ) {
 872:lib/tinyusb/src/device/usbd.c ****         // For GET_INTERFACE and SET_INTERFACE, it is mandatory to respond even if the class
 873:lib/tinyusb/src/device/usbd.c ****         // driver doesn't use alternate settings or implement this
 874:lib/tinyusb/src/device/usbd.c ****         TU_VERIFY(TUSB_REQ_TYPE_STANDARD == p_request->bmRequestType_bit.type);
 875:lib/tinyusb/src/device/usbd.c **** 
 876:lib/tinyusb/src/device/usbd.c ****         switch(p_request->bRequest) {
 877:lib/tinyusb/src/device/usbd.c ****           case TUSB_REQ_GET_INTERFACE:
 878:lib/tinyusb/src/device/usbd.c ****           case TUSB_REQ_SET_INTERFACE:
 879:lib/tinyusb/src/device/usbd.c ****             // Clear complete callback if driver set since it can also stall the request.
 880:lib/tinyusb/src/device/usbd.c ****             usbd_control_set_complete_callback(NULL);
 881:lib/tinyusb/src/device/usbd.c **** 
 882:lib/tinyusb/src/device/usbd.c ****             if (TUSB_REQ_GET_INTERFACE == p_request->bRequest) {
 883:lib/tinyusb/src/device/usbd.c ****               uint8_t alternate = 0;
 884:lib/tinyusb/src/device/usbd.c ****               tud_control_xfer(rhport, p_request, &alternate, 1);
 885:lib/tinyusb/src/device/usbd.c ****             }else {
 886:lib/tinyusb/src/device/usbd.c ****               tud_control_status(rhport, p_request);
 887:lib/tinyusb/src/device/usbd.c ****             }
 888:lib/tinyusb/src/device/usbd.c ****           break;
 889:lib/tinyusb/src/device/usbd.c **** 
 890:lib/tinyusb/src/device/usbd.c ****           default: return false;
 891:lib/tinyusb/src/device/usbd.c ****         }
 892:lib/tinyusb/src/device/usbd.c ****       }
 893:lib/tinyusb/src/device/usbd.c ****       break;
 894:lib/tinyusb/src/device/usbd.c ****     }
 895:lib/tinyusb/src/device/usbd.c **** 
 896:lib/tinyusb/src/device/usbd.c ****     //------------- Endpoint Request -------------//
 897:lib/tinyusb/src/device/usbd.c ****     case TUSB_REQ_RCPT_ENDPOINT: {
 898:lib/tinyusb/src/device/usbd.c ****       uint8_t const ep_addr = tu_u16_low(p_request->wIndex);
 899:lib/tinyusb/src/device/usbd.c ****       uint8_t const ep_num  = tu_edpt_number(ep_addr);
 900:lib/tinyusb/src/device/usbd.c ****       uint8_t const ep_dir  = tu_edpt_dir(ep_addr);
 901:lib/tinyusb/src/device/usbd.c **** 
 902:lib/tinyusb/src/device/usbd.c ****       TU_ASSERT(ep_num < TU_ARRAY_SIZE(_usbd_dev.ep2drv) );
 903:lib/tinyusb/src/device/usbd.c ****       usbd_class_driver_t const * driver = get_driver(_usbd_dev.ep2drv[ep_num][ep_dir]);
 904:lib/tinyusb/src/device/usbd.c **** 
 905:lib/tinyusb/src/device/usbd.c ****       if ( TUSB_REQ_TYPE_STANDARD != p_request->bmRequestType_bit.type ) {
 906:lib/tinyusb/src/device/usbd.c ****         // Forward class request to its driver
 907:lib/tinyusb/src/device/usbd.c ****         TU_VERIFY(driver);
 908:lib/tinyusb/src/device/usbd.c ****         return invoke_class_control(rhport, driver, p_request);
 909:lib/tinyusb/src/device/usbd.c ****       } else {
 910:lib/tinyusb/src/device/usbd.c ****         // Handle STD request to endpoint
 911:lib/tinyusb/src/device/usbd.c ****         switch ( p_request->bRequest ) {
 912:lib/tinyusb/src/device/usbd.c ****           case TUSB_REQ_GET_STATUS: {
 913:lib/tinyusb/src/device/usbd.c ****             uint16_t status = usbd_edpt_stalled(rhport, ep_addr) ? 0x0001 : 0x0000;
 914:lib/tinyusb/src/device/usbd.c ****             tud_control_xfer(rhport, p_request, &status, 2);
ARM GAS  /tmp/claude-502/ccKWrqGw.s 			page 22


 915:lib/tinyusb/src/device/usbd.c ****           }
 916:lib/tinyusb/src/device/usbd.c ****           break;
 917:lib/tinyusb/src/device/usbd.c **** 
 918:lib/tinyusb/src/device/usbd.c ****           case TUSB_REQ_CLEAR_FEATURE:
 919:lib/tinyusb/src/device/usbd.c ****           case TUSB_REQ_SET_FEATURE: {
 920:lib/tinyusb/src/device/usbd.c ****             if ( TUSB_REQ_FEATURE_EDPT_HALT == p_request->wValue ) {
 921:lib/tinyusb/src/device/usbd.c ****               if ( TUSB_REQ_CLEAR_FEATURE ==  p_request->bRequest ) {
 922:lib/tinyusb/src/device/usbd.c ****                 usbd_edpt_clear_stall(rhport, ep_addr);
 923:lib/tinyusb/src/device/usbd.c ****               }else {
 924:lib/tinyusb/src/device/usbd.c ****                 usbd_edpt_stall(rhport, ep_addr);
 925:lib/tinyusb/src/device/usbd.c ****               }
 926:lib/tinyusb/src/device/usbd.c ****             }
 927:lib/tinyusb/src/device/usbd.c **** 
 928:lib/tinyusb/src/device/usbd.c ****             if (driver) {
 929:lib/tinyusb/src/device/usbd.c ****               // Some classes such as USBTMC needs to clear/re-init its buffer when receiving CLEAR
 930:lib/tinyusb/src/device/usbd.c ****               // We will also forward std request targeted endpoint to class drivers as well
 931:lib/tinyusb/src/device/usbd.c **** 
 932:lib/tinyusb/src/device/usbd.c ****               // STD request must always be ACKed regardless of driver returned value
 933:lib/tinyusb/src/device/usbd.c ****               // Also clear complete callback if driver set since it can also stall the request.
 934:lib/tinyusb/src/device/usbd.c ****               (void) invoke_class_control(rhport, driver, p_request);
 935:lib/tinyusb/src/device/usbd.c ****               usbd_control_set_complete_callback(NULL);
 936:lib/tinyusb/src/device/usbd.c **** 
 937:lib/tinyusb/src/device/usbd.c ****               // skip ZLP status if driver already did that
 938:lib/tinyusb/src/device/usbd.c ****               if ( !_usbd_dev.ep_status[0][TUSB_DIR_IN].busy ) tud_control_status(rhport, p_request
 939:lib/tinyusb/src/device/usbd.c ****             }
 940:lib/tinyusb/src/device/usbd.c ****           }
 941:lib/tinyusb/src/device/usbd.c ****           break;
 942:lib/tinyusb/src/device/usbd.c **** 
 943:lib/tinyusb/src/device/usbd.c ****           // Unknown/Unsupported request
 944:lib/tinyusb/src/device/usbd.c ****           default:
 945:lib/tinyusb/src/device/usbd.c ****             TU_BREAKPOINT();
 946:lib/tinyusb/src/device/usbd.c ****             return false;
 947:lib/tinyusb/src/device/usbd.c ****         }
 948:lib/tinyusb/src/device/usbd.c ****       }
 949:lib/tinyusb/src/device/usbd.c ****     }
 950:lib/tinyusb/src/device/usbd.c ****     break;
 951:lib/tinyusb/src/device/usbd.c **** 
 952:lib/tinyusb/src/device/usbd.c ****     // Unknown recipient
 953:lib/tinyusb/src/device/usbd.c ****     default:
 954:lib/tinyusb/src/device/usbd.c ****       TU_BREAKPOINT();
 955:lib/tinyusb/src/device/usbd.c ****       return false;
 956:lib/tinyusb/src/device/usbd.c ****   }
 957:lib/tinyusb/src/device/usbd.c **** 
 958:lib/tinyusb/src/device/usbd.c ****   return true;
 959:lib/tinyusb/src/device/usbd.c **** }
 960:lib/tinyusb/src/device/usbd.c **** 
 961:lib/tinyusb/src/device/usbd.c **** // Process Set Configure Request
 962:lib/tinyusb/src/device/usbd.c **** // This function parse configuration descriptor & open drivers accordingly
 963:lib/tinyusb/src/device/usbd.c **** static bool process_set_config(uint8_t rhport, uint8_t cfg_num)
 964:lib/tinyusb/src/device/usbd.c **** {
 965:lib/tinyusb/src/device/usbd.c ****   // index is cfg_num-1
 966:lib/tinyusb/src/device/usbd.c ****   tusb_desc_configuration_t const * desc_cfg = (tusb_desc_configuration_t const *) tud_descriptor_c
 967:lib/tinyusb/src/device/usbd.c ****   TU_ASSERT(desc_cfg != NULL && desc_cfg->bDescriptorType == TUSB_DESC_CONFIGURATION);
 968:lib/tinyusb/src/device/usbd.c **** 
 969:lib/tinyusb/src/device/usbd.c ****   // Parse configuration descriptor
 970:lib/tinyusb/src/device/usbd.c ****   _usbd_dev.remote_wakeup_support = (desc_cfg->bmAttributes & TUSB_DESC_CONFIG_ATT_REMOTE_WAKEUP) ?
 971:lib/tinyusb/src/device/usbd.c ****   _usbd_dev.self_powered          = (desc_cfg->bmAttributes & TUSB_DESC_CONFIG_ATT_SELF_POWERED ) ?
ARM GAS  /tmp/claude-502/ccKWrqGw.s 			page 23


 972:lib/tinyusb/src/device/usbd.c **** 
 973:lib/tinyusb/src/device/usbd.c ****   // Parse interface descriptor
 974:lib/tinyusb/src/device/usbd.c ****   uint8_t const * p_desc   = ((uint8_t const*) desc_cfg) + sizeof(tusb_desc_configuration_t);
 975:lib/tinyusb/src/device/usbd.c ****   uint8_t const * desc_end = ((uint8_t const*) desc_cfg) + tu_le16toh(desc_cfg->wTotalLength);
 976:lib/tinyusb/src/device/usbd.c **** 
 977:lib/tinyusb/src/device/usbd.c ****   while( p_desc < desc_end )
 978:lib/tinyusb/src/device/usbd.c ****   {
 979:lib/tinyusb/src/device/usbd.c ****     uint8_t assoc_itf_count = 1;
 980:lib/tinyusb/src/device/usbd.c **** 
 981:lib/tinyusb/src/device/usbd.c ****     // Class will always starts with Interface Association (if any) and then Interface descriptor
 982:lib/tinyusb/src/device/usbd.c ****     if ( TUSB_DESC_INTERFACE_ASSOCIATION == tu_desc_type(p_desc) )
 983:lib/tinyusb/src/device/usbd.c ****     {
 984:lib/tinyusb/src/device/usbd.c ****       tusb_desc_interface_assoc_t const * desc_iad = (tusb_desc_interface_assoc_t const *) p_desc;
 985:lib/tinyusb/src/device/usbd.c ****       assoc_itf_count = desc_iad->bInterfaceCount;
 986:lib/tinyusb/src/device/usbd.c **** 
 987:lib/tinyusb/src/device/usbd.c ****       p_desc = tu_desc_next(p_desc); // next to Interface
 988:lib/tinyusb/src/device/usbd.c **** 
 989:lib/tinyusb/src/device/usbd.c ****       // IAD's first interface number and class should match with opened interface
 990:lib/tinyusb/src/device/usbd.c ****       //TU_ASSERT(desc_iad->bFirstInterface == desc_itf->bInterfaceNumber &&
 991:lib/tinyusb/src/device/usbd.c ****       //          desc_iad->bFunctionClass  == desc_itf->bInterfaceClass);
 992:lib/tinyusb/src/device/usbd.c ****     }
 993:lib/tinyusb/src/device/usbd.c **** 
 994:lib/tinyusb/src/device/usbd.c ****     TU_ASSERT( TUSB_DESC_INTERFACE == tu_desc_type(p_desc) );
 995:lib/tinyusb/src/device/usbd.c ****     tusb_desc_interface_t const * desc_itf = (tusb_desc_interface_t const*) p_desc;
 996:lib/tinyusb/src/device/usbd.c **** 
 997:lib/tinyusb/src/device/usbd.c ****     // Find driver for this interface
 998:lib/tinyusb/src/device/usbd.c ****     uint16_t const remaining_len = (uint16_t) (desc_end-p_desc);
 999:lib/tinyusb/src/device/usbd.c ****     uint8_t drv_id;
1000:lib/tinyusb/src/device/usbd.c ****     for (drv_id = 0; drv_id < TOTAL_DRIVER_COUNT; drv_id++)
1001:lib/tinyusb/src/device/usbd.c ****     {
1002:lib/tinyusb/src/device/usbd.c ****       usbd_class_driver_t const *driver = get_driver(drv_id);
1003:lib/tinyusb/src/device/usbd.c ****       TU_ASSERT(driver);
1004:lib/tinyusb/src/device/usbd.c ****       uint16_t const drv_len = driver->open(rhport, desc_itf, remaining_len);
1005:lib/tinyusb/src/device/usbd.c **** 
1006:lib/tinyusb/src/device/usbd.c ****       if ( (sizeof(tusb_desc_interface_t) <= drv_len)  && (drv_len <= remaining_len) )
1007:lib/tinyusb/src/device/usbd.c ****       {
1008:lib/tinyusb/src/device/usbd.c ****         // Open successfully
1009:lib/tinyusb/src/device/usbd.c ****         TU_LOG_USBD("  %s opened\r\n", driver->name);
1010:lib/tinyusb/src/device/usbd.c **** 
1011:lib/tinyusb/src/device/usbd.c ****         // Some drivers use 2 or more interfaces but may not have IAD e.g MIDI (always) or
1012:lib/tinyusb/src/device/usbd.c ****         // BTH (even CDC) with class in device descriptor (single interface)
1013:lib/tinyusb/src/device/usbd.c ****         if ( assoc_itf_count == 1)
1014:lib/tinyusb/src/device/usbd.c ****         {
1015:lib/tinyusb/src/device/usbd.c ****           #if CFG_TUD_CDC
1016:lib/tinyusb/src/device/usbd.c ****           if ( driver->open == cdcd_open ) assoc_itf_count = 2;
1017:lib/tinyusb/src/device/usbd.c ****           #endif
1018:lib/tinyusb/src/device/usbd.c **** 
1019:lib/tinyusb/src/device/usbd.c ****           #if CFG_TUD_MIDI
1020:lib/tinyusb/src/device/usbd.c ****           if ( driver->open == midid_open ) assoc_itf_count = 2;
1021:lib/tinyusb/src/device/usbd.c ****           #endif
1022:lib/tinyusb/src/device/usbd.c **** 
1023:lib/tinyusb/src/device/usbd.c ****           #if CFG_TUD_BTH && CFG_TUD_BTH_ISO_ALT_COUNT
1024:lib/tinyusb/src/device/usbd.c ****           if ( driver->open == btd_open ) assoc_itf_count = 2;
1025:lib/tinyusb/src/device/usbd.c ****           #endif
1026:lib/tinyusb/src/device/usbd.c ****         }
1027:lib/tinyusb/src/device/usbd.c **** 
1028:lib/tinyusb/src/device/usbd.c ****         // bind (associated) interfaces to found driver
ARM GAS  /tmp/claude-502/ccKWrqGw.s 			page 24


1029:lib/tinyusb/src/device/usbd.c ****         for(uint8_t i=0; i<assoc_itf_count; i++)
1030:lib/tinyusb/src/device/usbd.c ****         {
1031:lib/tinyusb/src/device/usbd.c ****           uint8_t const itf_num = desc_itf->bInterfaceNumber+i;
1032:lib/tinyusb/src/device/usbd.c **** 
1033:lib/tinyusb/src/device/usbd.c ****           // Interface number must not be used already
1034:lib/tinyusb/src/device/usbd.c ****           TU_ASSERT(DRVID_INVALID == _usbd_dev.itf2drv[itf_num]);
1035:lib/tinyusb/src/device/usbd.c ****           _usbd_dev.itf2drv[itf_num] = drv_id;
1036:lib/tinyusb/src/device/usbd.c ****         }
1037:lib/tinyusb/src/device/usbd.c **** 
1038:lib/tinyusb/src/device/usbd.c ****         // bind all endpoints to found driver
1039:lib/tinyusb/src/device/usbd.c ****         tu_edpt_bind_driver(_usbd_dev.ep2drv, desc_itf, drv_len, drv_id);
1040:lib/tinyusb/src/device/usbd.c **** 
1041:lib/tinyusb/src/device/usbd.c ****         // next Interface
1042:lib/tinyusb/src/device/usbd.c ****         p_desc += drv_len;
1043:lib/tinyusb/src/device/usbd.c **** 
1044:lib/tinyusb/src/device/usbd.c ****         break; // exit driver find loop
1045:lib/tinyusb/src/device/usbd.c ****       }
1046:lib/tinyusb/src/device/usbd.c ****     }
1047:lib/tinyusb/src/device/usbd.c **** 
1048:lib/tinyusb/src/device/usbd.c ****     // Failed if there is no supported drivers
1049:lib/tinyusb/src/device/usbd.c ****     TU_ASSERT(drv_id < TOTAL_DRIVER_COUNT);
1050:lib/tinyusb/src/device/usbd.c ****   }
1051:lib/tinyusb/src/device/usbd.c **** 
1052:lib/tinyusb/src/device/usbd.c ****   return true;
1053:lib/tinyusb/src/device/usbd.c **** }
1054:lib/tinyusb/src/device/usbd.c **** 
1055:lib/tinyusb/src/device/usbd.c **** // return descriptor's buffer and update desc_len
1056:lib/tinyusb/src/device/usbd.c **** static bool process_get_descriptor(uint8_t rhport, tusb_control_request_t const * p_request)
1057:lib/tinyusb/src/device/usbd.c **** {
1058:lib/tinyusb/src/device/usbd.c ****   tusb_desc_type_t const desc_type = (tusb_desc_type_t) tu_u16_high(p_request->wValue);
1059:lib/tinyusb/src/device/usbd.c ****   uint8_t const desc_index = tu_u16_low( p_request->wValue );
1060:lib/tinyusb/src/device/usbd.c **** 
1061:lib/tinyusb/src/device/usbd.c ****   switch(desc_type)
1062:lib/tinyusb/src/device/usbd.c ****   {
1063:lib/tinyusb/src/device/usbd.c ****     case TUSB_DESC_DEVICE: {
1064:lib/tinyusb/src/device/usbd.c ****       TU_LOG_USBD(" Device\r\n");
1065:lib/tinyusb/src/device/usbd.c **** 
1066:lib/tinyusb/src/device/usbd.c ****       void* desc_device = (void*) (uintptr_t) tud_descriptor_device_cb();
1067:lib/tinyusb/src/device/usbd.c ****       TU_ASSERT(desc_device);
1068:lib/tinyusb/src/device/usbd.c **** 
1069:lib/tinyusb/src/device/usbd.c ****       // Only response with exactly 1 Packet if: not addressed and host requested more data than de
1070:lib/tinyusb/src/device/usbd.c ****       // This only happens with the very first get device descriptor and EP0 size = 8 or 16.
1071:lib/tinyusb/src/device/usbd.c ****       if ((CFG_TUD_ENDPOINT0_SIZE < sizeof(tusb_desc_device_t)) && !_usbd_dev.addressed &&
1072:lib/tinyusb/src/device/usbd.c ****           ((tusb_control_request_t const*) p_request)->wLength > sizeof(tusb_desc_device_t)) {
1073:lib/tinyusb/src/device/usbd.c ****         // Hack here: we modify the request length to prevent usbd_control response with zlp
1074:lib/tinyusb/src/device/usbd.c ****         // since we are responding with 1 packet & less data than wLength.
1075:lib/tinyusb/src/device/usbd.c ****         tusb_control_request_t mod_request = *p_request;
1076:lib/tinyusb/src/device/usbd.c ****         mod_request.wLength = CFG_TUD_ENDPOINT0_SIZE;
1077:lib/tinyusb/src/device/usbd.c **** 
1078:lib/tinyusb/src/device/usbd.c ****         return tud_control_xfer(rhport, &mod_request, desc_device, CFG_TUD_ENDPOINT0_SIZE);
1079:lib/tinyusb/src/device/usbd.c ****       }else {
1080:lib/tinyusb/src/device/usbd.c ****         return tud_control_xfer(rhport, p_request, desc_device, sizeof(tusb_desc_device_t));
1081:lib/tinyusb/src/device/usbd.c ****       }
1082:lib/tinyusb/src/device/usbd.c ****     }
1083:lib/tinyusb/src/device/usbd.c ****     // break; // unreachable
1084:lib/tinyusb/src/device/usbd.c **** 
1085:lib/tinyusb/src/device/usbd.c ****     case TUSB_DESC_BOS: {
ARM GAS  /tmp/claude-502/ccKWrqGw.s 			page 25


1086:lib/tinyusb/src/device/usbd.c ****       TU_LOG_USBD(" BOS\r\n");
1087:lib/tinyusb/src/device/usbd.c **** 
1088:lib/tinyusb/src/device/usbd.c ****       // requested by host if USB > 2.0 ( i.e 2.1 or 3.x )
1089:lib/tinyusb/src/device/usbd.c ****       uintptr_t desc_bos = (uintptr_t) tud_descriptor_bos_cb();
1090:lib/tinyusb/src/device/usbd.c ****       TU_VERIFY(desc_bos);
1091:lib/tinyusb/src/device/usbd.c **** 
1092:lib/tinyusb/src/device/usbd.c ****       // Use offsetof to avoid pointer to the odd/misaligned address
1093:lib/tinyusb/src/device/usbd.c ****       uint16_t const total_len = tu_le16toh( tu_unaligned_read16((const void*) (desc_bos + offsetof
1094:lib/tinyusb/src/device/usbd.c **** 
1095:lib/tinyusb/src/device/usbd.c ****       return tud_control_xfer(rhport, p_request, (void*) desc_bos, total_len);
1096:lib/tinyusb/src/device/usbd.c ****     }
1097:lib/tinyusb/src/device/usbd.c ****     // break; // unreachable
1098:lib/tinyusb/src/device/usbd.c **** 
1099:lib/tinyusb/src/device/usbd.c ****     case TUSB_DESC_CONFIGURATION:
1100:lib/tinyusb/src/device/usbd.c ****     case TUSB_DESC_OTHER_SPEED_CONFIG: {
1101:lib/tinyusb/src/device/usbd.c ****       uintptr_t desc_config;
1102:lib/tinyusb/src/device/usbd.c **** 
1103:lib/tinyusb/src/device/usbd.c ****       if ( desc_type == TUSB_DESC_CONFIGURATION ) {
1104:lib/tinyusb/src/device/usbd.c ****         TU_LOG_USBD(" Configuration[%u]\r\n", desc_index);
1105:lib/tinyusb/src/device/usbd.c ****         desc_config = (uintptr_t) tud_descriptor_configuration_cb(desc_index);
1106:lib/tinyusb/src/device/usbd.c ****         TU_ASSERT(desc_config);
1107:lib/tinyusb/src/device/usbd.c ****       }else {
1108:lib/tinyusb/src/device/usbd.c ****         // Host only request this after getting Device Qualifier descriptor
1109:lib/tinyusb/src/device/usbd.c ****         TU_LOG_USBD(" Other Speed Configuration\r\n");
1110:lib/tinyusb/src/device/usbd.c ****         desc_config = (uintptr_t) tud_descriptor_other_speed_configuration_cb(desc_index);
1111:lib/tinyusb/src/device/usbd.c ****         TU_VERIFY(desc_config);
1112:lib/tinyusb/src/device/usbd.c ****       }
1113:lib/tinyusb/src/device/usbd.c **** 
1114:lib/tinyusb/src/device/usbd.c ****       // Use offsetof to avoid pointer to the odd/misaligned address
1115:lib/tinyusb/src/device/usbd.c ****       uint16_t const total_len = tu_le16toh( tu_unaligned_read16((const void*) (desc_config + offse
1116:lib/tinyusb/src/device/usbd.c **** 
1117:lib/tinyusb/src/device/usbd.c ****       return tud_control_xfer(rhport, p_request, (void*) desc_config, total_len);
1118:lib/tinyusb/src/device/usbd.c ****     }
1119:lib/tinyusb/src/device/usbd.c ****     // break; // unreachable
1120:lib/tinyusb/src/device/usbd.c **** 
1121:lib/tinyusb/src/device/usbd.c ****     case TUSB_DESC_STRING:
1122:lib/tinyusb/src/device/usbd.c ****     {
1123:lib/tinyusb/src/device/usbd.c ****       TU_LOG_USBD(" String[%u]\r\n", desc_index);
1124:lib/tinyusb/src/device/usbd.c **** 
1125:lib/tinyusb/src/device/usbd.c ****       // String Descriptor always uses the desc set from user
1126:lib/tinyusb/src/device/usbd.c ****       uint8_t const* desc_str = (uint8_t const*) tud_descriptor_string_cb(desc_index, tu_le16toh(p_
1127:lib/tinyusb/src/device/usbd.c ****       TU_VERIFY(desc_str);
1128:lib/tinyusb/src/device/usbd.c **** 
1129:lib/tinyusb/src/device/usbd.c ****       // first byte of descriptor is its size
1130:lib/tinyusb/src/device/usbd.c ****       return tud_control_xfer(rhport, p_request, (void*) (uintptr_t) desc_str, tu_desc_len(desc_str
1131:lib/tinyusb/src/device/usbd.c ****     }
1132:lib/tinyusb/src/device/usbd.c ****     // break; // unreachable
1133:lib/tinyusb/src/device/usbd.c **** 
1134:lib/tinyusb/src/device/usbd.c ****     case TUSB_DESC_DEVICE_QUALIFIER: {
1135:lib/tinyusb/src/device/usbd.c ****       TU_LOG_USBD(" Device Qualifier\r\n");
1136:lib/tinyusb/src/device/usbd.c ****       uint8_t const* desc_qualifier = tud_descriptor_device_qualifier_cb();
1137:lib/tinyusb/src/device/usbd.c ****       TU_VERIFY(desc_qualifier);
1138:lib/tinyusb/src/device/usbd.c ****       return tud_control_xfer(rhport, p_request, (void*) (uintptr_t) desc_qualifier, tu_desc_len(de
1139:lib/tinyusb/src/device/usbd.c ****     }
1140:lib/tinyusb/src/device/usbd.c ****     // break; // unreachable
1141:lib/tinyusb/src/device/usbd.c **** 
1142:lib/tinyusb/src/device/usbd.c ****     default: return false;
ARM GAS  /tmp/claude-502/ccKWrqGw.s 			page 26


1143:lib/tinyusb/src/device/usbd.c ****   }
1144:lib/tinyusb/src/device/usbd.c **** }
1145:lib/tinyusb/src/device/usbd.c **** 
1146:lib/tinyusb/src/device/usbd.c **** //--------------------------------------------------------------------+
1147:lib/tinyusb/src/device/usbd.c **** // DCD Event Handler
1148:lib/tinyusb/src/device/usbd.c **** //--------------------------------------------------------------------+
1149:lib/tinyusb/src/device/usbd.c **** TU_ATTR_FAST_FUNC void dcd_event_handler(dcd_event_t const* event, bool in_isr) {
1150:lib/tinyusb/src/device/usbd.c ****   bool send = false;
1151:lib/tinyusb/src/device/usbd.c ****   switch (event->event_id) {
1152:lib/tinyusb/src/device/usbd.c ****     case DCD_EVENT_UNPLUGGED:
1153:lib/tinyusb/src/device/usbd.c ****       _usbd_dev.connected = 0;
1154:lib/tinyusb/src/device/usbd.c ****       _usbd_dev.addressed = 0;
1155:lib/tinyusb/src/device/usbd.c ****       _usbd_dev.cfg_num = 0;
1156:lib/tinyusb/src/device/usbd.c ****       _usbd_dev.suspended = 0;
1157:lib/tinyusb/src/device/usbd.c ****       send = true;
1158:lib/tinyusb/src/device/usbd.c ****       break;
1159:lib/tinyusb/src/device/usbd.c **** 
1160:lib/tinyusb/src/device/usbd.c ****     case DCD_EVENT_SUSPEND:
1161:lib/tinyusb/src/device/usbd.c ****       // NOTE: When plugging/unplugging device, the D+/D- state are unstable and
1162:lib/tinyusb/src/device/usbd.c ****       // can accidentally meet the SUSPEND condition ( Bus Idle for 3ms ).
1163:lib/tinyusb/src/device/usbd.c ****       // In addition, some MCUs such as SAMD or boards that haven no VBUS detection cannot distingu
1164:lib/tinyusb/src/device/usbd.c ****       // suspended vs disconnected. We will skip handling SUSPEND/RESUME event if not currently con
1165:lib/tinyusb/src/device/usbd.c ****       if (_usbd_dev.connected) {
1166:lib/tinyusb/src/device/usbd.c ****         _usbd_dev.suspended = 1;
1167:lib/tinyusb/src/device/usbd.c ****         send = true;
1168:lib/tinyusb/src/device/usbd.c ****       }
1169:lib/tinyusb/src/device/usbd.c ****       break;
1170:lib/tinyusb/src/device/usbd.c **** 
1171:lib/tinyusb/src/device/usbd.c ****     case DCD_EVENT_RESUME:
1172:lib/tinyusb/src/device/usbd.c ****       // skip event if not connected (especially required for SAMD)
1173:lib/tinyusb/src/device/usbd.c ****       if (_usbd_dev.connected) {
1174:lib/tinyusb/src/device/usbd.c ****         _usbd_dev.suspended = 0;
1175:lib/tinyusb/src/device/usbd.c ****         send = true;
1176:lib/tinyusb/src/device/usbd.c ****       }
1177:lib/tinyusb/src/device/usbd.c ****       break;
1178:lib/tinyusb/src/device/usbd.c **** 
1179:lib/tinyusb/src/device/usbd.c ****     case DCD_EVENT_SOF:
1180:lib/tinyusb/src/device/usbd.c ****       // SOF driver handler in ISR context
1181:lib/tinyusb/src/device/usbd.c ****       for (uint8_t i = 0; i < TOTAL_DRIVER_COUNT; i++) {
1182:lib/tinyusb/src/device/usbd.c ****         usbd_class_driver_t const* driver = get_driver(i);
1183:lib/tinyusb/src/device/usbd.c ****         if (driver && driver->sof) {
1184:lib/tinyusb/src/device/usbd.c ****           driver->sof(event->rhport, event->sof.frame_count);
1185:lib/tinyusb/src/device/usbd.c ****         }
1186:lib/tinyusb/src/device/usbd.c ****       }
1187:lib/tinyusb/src/device/usbd.c **** 
1188:lib/tinyusb/src/device/usbd.c ****       // Some MCUs after running dcd_remote_wakeup() does not have way to detect the end of remote 
1189:lib/tinyusb/src/device/usbd.c ****       // which last 1-15 ms. DCD can use SOF as a clear indicator that bus is back to operational
1190:lib/tinyusb/src/device/usbd.c ****       if (_usbd_dev.suspended) {
1191:lib/tinyusb/src/device/usbd.c ****         _usbd_dev.suspended = 0;
1192:lib/tinyusb/src/device/usbd.c **** 
1193:lib/tinyusb/src/device/usbd.c ****         dcd_event_t const event_resume = {.rhport = event->rhport, .event_id = DCD_EVENT_RESUME};
1194:lib/tinyusb/src/device/usbd.c ****         queue_event(&event_resume, in_isr);
1195:lib/tinyusb/src/device/usbd.c ****       }
1196:lib/tinyusb/src/device/usbd.c **** 
1197:lib/tinyusb/src/device/usbd.c ****       if (tu_bit_test(_usbd_dev.sof_consumer, SOF_CONSUMER_USER)) {
1198:lib/tinyusb/src/device/usbd.c ****         dcd_event_t const event_sof = {.rhport = event->rhport, .event_id = DCD_EVENT_SOF, .sof.fra
1199:lib/tinyusb/src/device/usbd.c ****         queue_event(&event_sof, in_isr);
ARM GAS  /tmp/claude-502/ccKWrqGw.s 			page 27


1200:lib/tinyusb/src/device/usbd.c ****       }
1201:lib/tinyusb/src/device/usbd.c ****       break;
1202:lib/tinyusb/src/device/usbd.c **** 
1203:lib/tinyusb/src/device/usbd.c ****     case DCD_EVENT_SETUP_RECEIVED:
1204:lib/tinyusb/src/device/usbd.c ****       _usbd_queued_setup++;
1205:lib/tinyusb/src/device/usbd.c ****       send = true;
1206:lib/tinyusb/src/device/usbd.c ****       break;
1207:lib/tinyusb/src/device/usbd.c **** 
1208:lib/tinyusb/src/device/usbd.c ****     default:
1209:lib/tinyusb/src/device/usbd.c ****       send = true;
1210:lib/tinyusb/src/device/usbd.c ****       break;
1211:lib/tinyusb/src/device/usbd.c ****   }
1212:lib/tinyusb/src/device/usbd.c **** 
1213:lib/tinyusb/src/device/usbd.c ****   if (send) {
1214:lib/tinyusb/src/device/usbd.c ****     queue_event(event, in_isr);
1215:lib/tinyusb/src/device/usbd.c ****   }
1216:lib/tinyusb/src/device/usbd.c **** }
1217:lib/tinyusb/src/device/usbd.c **** 
1218:lib/tinyusb/src/device/usbd.c **** //--------------------------------------------------------------------+
1219:lib/tinyusb/src/device/usbd.c **** // USBD API For Class Driver
1220:lib/tinyusb/src/device/usbd.c **** //--------------------------------------------------------------------+
1221:lib/tinyusb/src/device/usbd.c **** 
1222:lib/tinyusb/src/device/usbd.c **** void usbd_int_set(bool enabled)
1223:lib/tinyusb/src/device/usbd.c **** {
 251              		.loc 1 1223 1 is_stmt 1 view -0
 252              		.cfi_startproc
 253              		@ args = 0, pretend = 0, frame = 0
 254              		@ frame_needed = 0, uses_anonymous_args = 0
 255              		@ link register save eliminated.
1224:lib/tinyusb/src/device/usbd.c ****   if (enabled)
 256              		.loc 1 1224 3 view .LVU67
 257              	.LBB332:
 258              	.LBB333:
1225:lib/tinyusb/src/device/usbd.c ****   {
1226:lib/tinyusb/src/device/usbd.c ****     dcd_int_enable(_usbd_rhport);
 259              		.loc 1 1226 5 is_stmt 0 view .LVU68
 260 0000 034B     		ldr	r3, .L21
 261              	.LBE333:
 262              	.LBE332:
1224:lib/tinyusb/src/device/usbd.c ****   if (enabled)
 263              		.loc 1 1224 6 view .LVU69
 264 0002 10B1     		cbz	r0, .L20
 265              	.LBB335:
 266              	.LBI332:
1222:lib/tinyusb/src/device/usbd.c **** {
 267              		.loc 1 1222 6 is_stmt 1 view .LVU70
 268              	.LVL18:
 269              	.LBB334:
 270              		.loc 1 1226 5 view .LVU71
 271 0004 1878     		ldrb	r0, [r3]	@ zero_extendqisi2
 272              	.LVL19:
 273              		.loc 1 1226 5 is_stmt 0 view .LVU72
 274 0006 FFF7FEBF 		b	dcd_int_enable
 275              	.LVL20:
 276              	.L20:
 277              		.loc 1 1226 5 view .LVU73
 278              	.LBE334:
ARM GAS  /tmp/claude-502/ccKWrqGw.s 			page 28


 279              	.LBE335:
1227:lib/tinyusb/src/device/usbd.c ****   }else
1228:lib/tinyusb/src/device/usbd.c ****   {
1229:lib/tinyusb/src/device/usbd.c ****     dcd_int_disable(_usbd_rhport);
 280              		.loc 1 1229 5 is_stmt 1 view .LVU74
 281 000a 1878     		ldrb	r0, [r3]	@ zero_extendqisi2
 282              	.LVL21:
 283              		.loc 1 1229 5 is_stmt 0 view .LVU75
 284 000c FFF7FEBF 		b	dcd_int_disable
 285              	.LVL22:
 286              	.L22:
 287              		.align	2
 288              	.L21:
 289 0010 00000000 		.word	.LANCHOR4
 290              		.cfi_endproc
 291              	.LFE450:
 293              		.section	.text.tud_event_hook_cb,"ax",%progbits
 294              		.align	1
 295              		.p2align 2,,3
 296              		.weak	tud_event_hook_cb
 297              		.syntax unified
 298              		.thumb
 299              		.thumb_func
 301              	tud_event_hook_cb:
 302              	.LVL23:
 303              	.LFB415:
  48:lib/tinyusb/src/device/usbd.c ****   (void) rhport;
 304              		.loc 1 48 84 is_stmt 1 view -0
 305              		.cfi_startproc
 306              		@ args = 0, pretend = 0, frame = 0
 307              		@ frame_needed = 0, uses_anonymous_args = 0
 308              		@ link register save eliminated.
  49:lib/tinyusb/src/device/usbd.c ****   (void) eventid;
 309              		.loc 1 49 3 view .LVU77
  50:lib/tinyusb/src/device/usbd.c ****   (void) in_isr;
 310              		.loc 1 50 3 view .LVU78
  51:lib/tinyusb/src/device/usbd.c **** }
 311              		.loc 1 51 3 view .LVU79
  52:lib/tinyusb/src/device/usbd.c **** 
 312              		.loc 1 52 1 is_stmt 0 view .LVU80
 313 0000 7047     		bx	lr
 314              		.cfi_endproc
 315              	.LFE415:
 317 0002 00BF     		.section	.text.tud_sof_cb,"ax",%progbits
 318              		.align	1
 319              		.p2align 2,,3
 320              		.weak	tud_sof_cb
 321              		.syntax unified
 322              		.thumb
 323              		.thumb_func
 325              	tud_sof_cb:
 326              	.LVL24:
 327              	.LFB416:
  54:lib/tinyusb/src/device/usbd.c ****   (void) frame_count;
 328              		.loc 1 54 52 is_stmt 1 view -0
 329              		.cfi_startproc
 330              		@ args = 0, pretend = 0, frame = 0
ARM GAS  /tmp/claude-502/ccKWrqGw.s 			page 29


 331              		@ frame_needed = 0, uses_anonymous_args = 0
 332              		@ link register save eliminated.
  55:lib/tinyusb/src/device/usbd.c **** }
 333              		.loc 1 55 3 view .LVU82
  56:lib/tinyusb/src/device/usbd.c **** 
 334              		.loc 1 56 1 is_stmt 0 view .LVU83
 335 0000 7047     		bx	lr
 336              		.cfi_endproc
 337              	.LFE416:
 339 0002 00BF     		.section	.text.tud_descriptor_bos_cb,"ax",%progbits
 340              		.align	1
 341              		.p2align 2,,3
 342              		.weak	tud_descriptor_bos_cb
 343              		.syntax unified
 344              		.thumb
 345              		.thumb_func
 347              	tud_descriptor_bos_cb:
 348              	.LFB417:
  58:lib/tinyusb/src/device/usbd.c ****   return NULL;
 349              		.loc 1 58 57 is_stmt 1 view -0
 350              		.cfi_startproc
 351              		@ args = 0, pretend = 0, frame = 0
 352              		@ frame_needed = 0, uses_anonymous_args = 0
 353              		@ link register save eliminated.
  59:lib/tinyusb/src/device/usbd.c **** }
 354              		.loc 1 59 3 view .LVU85
  60:lib/tinyusb/src/device/usbd.c **** 
 355              		.loc 1 60 1 is_stmt 0 view .LVU86
 356 0000 0020     		movs	r0, #0
 357 0002 7047     		bx	lr
 358              		.cfi_endproc
 359              	.LFE417:
 361              		.section	.text.tud_descriptor_device_qualifier_cb,"ax",%progbits
 362              		.align	1
 363              		.p2align 2,,3
 364              		.weak	tud_descriptor_device_qualifier_cb
 365              		.syntax unified
 366              		.thumb
 367              		.thumb_func
 369              	tud_descriptor_device_qualifier_cb:
 370              	.LFB470:
 371              		.cfi_startproc
 372              		@ args = 0, pretend = 0, frame = 0
 373              		@ frame_needed = 0, uses_anonymous_args = 0
 374              		@ link register save eliminated.
 375 0000 0020     		movs	r0, #0
 376 0002 7047     		bx	lr
 377              		.cfi_endproc
 378              	.LFE470:
 380              		.section	.text.tud_descriptor_other_speed_configuration_cb,"ax",%progbits
 381              		.align	1
 382              		.p2align 2,,3
 383              		.weak	tud_descriptor_other_speed_configuration_cb
 384              		.syntax unified
 385              		.thumb
 386              		.thumb_func
 388              	tud_descriptor_other_speed_configuration_cb:
ARM GAS  /tmp/claude-502/ccKWrqGw.s 			page 30


 389              	.LVL25:
 390              	.LFB419:
  66:lib/tinyusb/src/device/usbd.c ****   (void) index;
 391              		.loc 1 66 88 is_stmt 1 view -0
 392              		.cfi_startproc
 393              		@ args = 0, pretend = 0, frame = 0
 394              		@ frame_needed = 0, uses_anonymous_args = 0
 395              		@ link register save eliminated.
  67:lib/tinyusb/src/device/usbd.c ****   return NULL;
 396              		.loc 1 67 3 view .LVU88
  68:lib/tinyusb/src/device/usbd.c **** }
 397              		.loc 1 68 3 view .LVU89
  69:lib/tinyusb/src/device/usbd.c **** 
 398              		.loc 1 69 1 is_stmt 0 view .LVU90
 399 0000 0020     		movs	r0, #0
 400              	.LVL26:
  69:lib/tinyusb/src/device/usbd.c **** 
 401              		.loc 1 69 1 view .LVU91
 402 0002 7047     		bx	lr
 403              		.cfi_endproc
 404              	.LFE419:
 406              		.section	.text.tud_mount_cb,"ax",%progbits
 407              		.align	1
 408              		.p2align 2,,3
 409              		.weak	tud_mount_cb
 410              		.syntax unified
 411              		.thumb
 412              		.thumb_func
 414              	tud_mount_cb:
 415              	.LFB420:
  71:lib/tinyusb/src/device/usbd.c **** }
 416              		.loc 1 71 38 is_stmt 1 view -0
 417              		.cfi_startproc
 418              		@ args = 0, pretend = 0, frame = 0
 419              		@ frame_needed = 0, uses_anonymous_args = 0
 420              		@ link register save eliminated.
  72:lib/tinyusb/src/device/usbd.c **** 
 421              		.loc 1 72 1 view .LVU93
 422 0000 7047     		bx	lr
 423              		.cfi_endproc
 424              	.LFE420:
 426 0002 00BF     		.section	.text.tud_umount_cb,"ax",%progbits
 427              		.align	1
 428              		.p2align 2,,3
 429              		.weak	tud_umount_cb
 430              		.syntax unified
 431              		.thumb
 432              		.thumb_func
 434              	tud_umount_cb:
 435              	.LFB472:
 436              		.cfi_startproc
 437              		@ args = 0, pretend = 0, frame = 0
 438              		@ frame_needed = 0, uses_anonymous_args = 0
 439              		@ link register save eliminated.
 440 0000 7047     		bx	lr
 441              		.cfi_endproc
 442              	.LFE472:
ARM GAS  /tmp/claude-502/ccKWrqGw.s 			page 31


 444 0002 00BF     		.section	.text.tud_suspend_cb,"ax",%progbits
 445              		.align	1
 446              		.p2align 2,,3
 447              		.weak	tud_suspend_cb
 448              		.syntax unified
 449              		.thumb
 450              		.thumb_func
 452              	tud_suspend_cb:
 453              	.LVL27:
 454              	.LFB422:
  77:lib/tinyusb/src/device/usbd.c ****   (void) remote_wakeup_en;
 455              		.loc 1 77 57 view -0
 456              		.cfi_startproc
 457              		@ args = 0, pretend = 0, frame = 0
 458              		@ frame_needed = 0, uses_anonymous_args = 0
 459              		@ link register save eliminated.
  78:lib/tinyusb/src/device/usbd.c **** }
 460              		.loc 1 78 3 view .LVU95
  79:lib/tinyusb/src/device/usbd.c **** 
 461              		.loc 1 79 1 is_stmt 0 view .LVU96
 462 0000 7047     		bx	lr
 463              		.cfi_endproc
 464              	.LFE422:
 466 0002 00BF     		.section	.text.tud_resume_cb,"ax",%progbits
 467              		.align	1
 468              		.p2align 2,,3
 469              		.weak	tud_resume_cb
 470              		.syntax unified
 471              		.thumb
 472              		.thumb_func
 474              	tud_resume_cb:
 475              	.LFB474:
 476              		.cfi_startproc
 477              		@ args = 0, pretend = 0, frame = 0
 478              		@ frame_needed = 0, uses_anonymous_args = 0
 479              		@ link register save eliminated.
 480 0000 7047     		bx	lr
 481              		.cfi_endproc
 482              	.LFE474:
 484 0002 00BF     		.section	.text.dcd_deinit,"ax",%progbits
 485              		.align	1
 486              		.p2align 2,,3
 487              		.weak	dcd_deinit
 488              		.syntax unified
 489              		.thumb
 490              		.thumb_func
 492              	dcd_deinit:
 493              	.LVL28:
 494              	.LFB425:
  91:lib/tinyusb/src/device/usbd.c ****   (void) rhport;
 495              		.loc 1 91 46 is_stmt 1 view -0
 496              		.cfi_startproc
 497              		@ args = 0, pretend = 0, frame = 0
 498              		@ frame_needed = 0, uses_anonymous_args = 0
 499              		@ link register save eliminated.
  92:lib/tinyusb/src/device/usbd.c ****   return false;
 500              		.loc 1 92 3 view .LVU98
ARM GAS  /tmp/claude-502/ccKWrqGw.s 			page 32


  93:lib/tinyusb/src/device/usbd.c **** }
 501              		.loc 1 93 3 view .LVU99
  94:lib/tinyusb/src/device/usbd.c **** 
 502              		.loc 1 94 1 is_stmt 0 view .LVU100
 503 0000 0020     		movs	r0, #0
 504              	.LVL29:
  94:lib/tinyusb/src/device/usbd.c **** 
 505              		.loc 1 94 1 view .LVU101
 506 0002 7047     		bx	lr
 507              		.cfi_endproc
 508              	.LFE425:
 510              		.section	.text.dcd_connect,"ax",%progbits
 511              		.align	1
 512              		.p2align 2,,3
 513              		.weak	dcd_connect
 514              		.syntax unified
 515              		.thumb
 516              		.thumb_func
 518              	dcd_connect:
 519              	.LVL30:
 520              	.LFB426:
  96:lib/tinyusb/src/device/usbd.c ****   (void) rhport;
 521              		.loc 1 96 47 is_stmt 1 view -0
 522              		.cfi_startproc
 523              		@ args = 0, pretend = 0, frame = 0
 524              		@ frame_needed = 0, uses_anonymous_args = 0
 525              		@ link register save eliminated.
  97:lib/tinyusb/src/device/usbd.c **** }
 526              		.loc 1 97 3 view .LVU103
  98:lib/tinyusb/src/device/usbd.c **** 
 527              		.loc 1 98 1 is_stmt 0 view .LVU104
 528 0000 7047     		bx	lr
 529              		.cfi_endproc
 530              	.LFE426:
 532 0002 00BF     		.section	.text.dcd_disconnect,"ax",%progbits
 533              		.align	1
 534              		.p2align 2,,3
 535              		.weak	dcd_disconnect
 536              		.syntax unified
 537              		.thumb
 538              		.thumb_func
 540              	dcd_disconnect:
 541              	.LFB468:
 542              		.cfi_startproc
 543              		@ args = 0, pretend = 0, frame = 0
 544              		@ frame_needed = 0, uses_anonymous_args = 0
 545              		@ link register save eliminated.
 546 0000 7047     		bx	lr
 547              		.cfi_endproc
 548              	.LFE468:
 550 0002 00BF     		.section	.text.tud_speed_get,"ax",%progbits
 551              		.align	1
 552              		.p2align 2,,3
 553              		.global	tud_speed_get
 554              		.syntax unified
 555              		.thumb
 556              		.thumb_func
ARM GAS  /tmp/claude-502/ccKWrqGw.s 			page 33


 558              	tud_speed_get:
 559              	.LFB430:
 407:lib/tinyusb/src/device/usbd.c ****   return (tusb_speed_t) _usbd_dev.speed;
 560              		.loc 1 407 34 is_stmt 1 view -0
 561              		.cfi_startproc
 562              		@ args = 0, pretend = 0, frame = 0
 563              		@ frame_needed = 0, uses_anonymous_args = 0
 564              		@ link register save eliminated.
 408:lib/tinyusb/src/device/usbd.c **** }
 565              		.loc 1 408 3 view .LVU106
 408:lib/tinyusb/src/device/usbd.c **** }
 566              		.loc 1 408 10 is_stmt 0 view .LVU107
 567 0000 014B     		ldr	r3, .L36
 409:lib/tinyusb/src/device/usbd.c **** 
 568              		.loc 1 409 1 view .LVU108
 569 0002 9878     		ldrb	r0, [r3, #2]	@ zero_extendqisi2
 570 0004 7047     		bx	lr
 571              	.L37:
 572 0006 00BF     		.align	2
 573              	.L36:
 574 0008 00000000 		.word	.LANCHOR3
 575              		.cfi_endproc
 576              	.LFE430:
 578              		.section	.text.tud_connected,"ax",%progbits
 579              		.align	1
 580              		.p2align 2,,3
 581              		.global	tud_connected
 582              		.syntax unified
 583              		.thumb
 584              		.thumb_func
 586              	tud_connected:
 587              	.LFB431:
 411:lib/tinyusb/src/device/usbd.c ****   return _usbd_dev.connected;
 588              		.loc 1 411 26 is_stmt 1 view -0
 589              		.cfi_startproc
 590              		@ args = 0, pretend = 0, frame = 0
 591              		@ frame_needed = 0, uses_anonymous_args = 0
 592              		@ link register save eliminated.
 412:lib/tinyusb/src/device/usbd.c **** }
 593              		.loc 1 412 3 view .LVU110
 412:lib/tinyusb/src/device/usbd.c **** }
 594              		.loc 1 412 19 is_stmt 0 view .LVU111
 595 0000 024B     		ldr	r3, .L39
 596 0002 1878     		ldrb	r0, [r3]	@ zero_extendqisi2
 413:lib/tinyusb/src/device/usbd.c **** 
 597              		.loc 1 413 1 view .LVU112
 598 0004 00F00100 		and	r0, r0, #1
 599 0008 7047     		bx	lr
 600              	.L40:
 601 000a 00BF     		.align	2
 602              	.L39:
 603 000c 00000000 		.word	.LANCHOR3
 604              		.cfi_endproc
 605              	.LFE431:
 607              		.section	.text.tud_mounted,"ax",%progbits
 608              		.align	1
 609              		.p2align 2,,3
ARM GAS  /tmp/claude-502/ccKWrqGw.s 			page 34


 610              		.global	tud_mounted
 611              		.syntax unified
 612              		.thumb
 613              		.thumb_func
 615              	tud_mounted:
 616              	.LFB432:
 415:lib/tinyusb/src/device/usbd.c ****   return _usbd_dev.cfg_num ? true : false;
 617              		.loc 1 415 24 is_stmt 1 view -0
 618              		.cfi_startproc
 619              		@ args = 0, pretend = 0, frame = 0
 620              		@ frame_needed = 0, uses_anonymous_args = 0
 621              		@ link register save eliminated.
 416:lib/tinyusb/src/device/usbd.c **** }
 622              		.loc 1 416 3 view .LVU114
 416:lib/tinyusb/src/device/usbd.c **** }
 623              		.loc 1 416 19 is_stmt 0 view .LVU115
 624 0000 024B     		ldr	r3, .L42
 625 0002 5878     		ldrb	r0, [r3, #1]	@ zero_extendqisi2
 417:lib/tinyusb/src/device/usbd.c **** 
 626              		.loc 1 417 1 view .LVU116
 627 0004 0038     		subs	r0, r0, #0
 628 0006 18BF     		it	ne
 629 0008 0120     		movne	r0, #1
 630 000a 7047     		bx	lr
 631              	.L43:
 632              		.align	2
 633              	.L42:
 634 000c 00000000 		.word	.LANCHOR3
 635              		.cfi_endproc
 636              	.LFE432:
 638              		.section	.text.tud_suspended,"ax",%progbits
 639              		.align	1
 640              		.p2align 2,,3
 641              		.global	tud_suspended
 642              		.syntax unified
 643              		.thumb
 644              		.thumb_func
 646              	tud_suspended:
 647              	.LFB433:
 419:lib/tinyusb/src/device/usbd.c ****   return _usbd_dev.suspended;
 648              		.loc 1 419 26 is_stmt 1 view -0
 649              		.cfi_startproc
 650              		@ args = 0, pretend = 0, frame = 0
 651              		@ frame_needed = 0, uses_anonymous_args = 0
 652              		@ link register save eliminated.
 420:lib/tinyusb/src/device/usbd.c **** }
 653              		.loc 1 420 3 view .LVU118
 420:lib/tinyusb/src/device/usbd.c **** }
 654              		.loc 1 420 19 is_stmt 0 view .LVU119
 655 0000 024B     		ldr	r3, .L45
 656 0002 1878     		ldrb	r0, [r3]	@ zero_extendqisi2
 421:lib/tinyusb/src/device/usbd.c **** 
 657              		.loc 1 421 1 view .LVU120
 658 0004 C0F38000 		ubfx	r0, r0, #2, #1
 659 0008 7047     		bx	lr
 660              	.L46:
 661 000a 00BF     		.align	2
ARM GAS  /tmp/claude-502/ccKWrqGw.s 			page 35


 662              	.L45:
 663 000c 00000000 		.word	.LANCHOR3
 664              		.cfi_endproc
 665              	.LFE433:
 667              		.section	.text.tud_remote_wakeup,"ax",%progbits
 668              		.align	1
 669              		.p2align 2,,3
 670              		.global	tud_remote_wakeup
 671              		.syntax unified
 672              		.thumb
 673              		.thumb_func
 675              	tud_remote_wakeup:
 676              	.LFB434:
 423:lib/tinyusb/src/device/usbd.c ****   // only wake up host if this feature is supported and enabled and we are suspended
 677              		.loc 1 423 30 is_stmt 1 view -0
 678              		.cfi_startproc
 679              		@ args = 0, pretend = 0, frame = 0
 680              		@ frame_needed = 0, uses_anonymous_args = 0
 425:lib/tinyusb/src/device/usbd.c ****   dcd_remote_wakeup(_usbd_rhport);
 681              		.loc 1 425 3 view .LVU122
 425:lib/tinyusb/src/device/usbd.c ****   dcd_remote_wakeup(_usbd_rhport);
 682              		.loc 1 425 3 view .LVU123
 683 0000 0A4A     		ldr	r2, .L55
 684 0002 1378     		ldrb	r3, [r2]	@ zero_extendqisi2
 423:lib/tinyusb/src/device/usbd.c ****   // only wake up host if this feature is supported and enabled and we are suspended
 685              		.loc 1 423 30 is_stmt 0 view .LVU124
 686 0004 10B5     		push	{r4, lr}
 687              		.cfi_def_cfa_offset 8
 688              		.cfi_offset 4, -8
 689              		.cfi_offset 14, -4
 425:lib/tinyusb/src/device/usbd.c ****   dcd_remote_wakeup(_usbd_rhport);
 690              		.loc 1 425 3 view .LVU125
 691 0006 C3F38004 		ubfx	r4, r3, #2, #1
 692 000a 5B07     		lsls	r3, r3, #29
 693 000c 05D5     		bpl	.L48
 425:lib/tinyusb/src/device/usbd.c ****   dcd_remote_wakeup(_usbd_rhport);
 694              		.loc 1 425 3 discriminator 2 view .LVU126
 695 000e 1378     		ldrb	r3, [r2]	@ zero_extendqisi2
 696 0010 03F01803 		and	r3, r3, #24
 697 0014 182B     		cmp	r3, #24
 698 0016 02D0     		beq	.L54
 425:lib/tinyusb/src/device/usbd.c ****   dcd_remote_wakeup(_usbd_rhport);
 699              		.loc 1 425 3 view .LVU127
 700 0018 0024     		movs	r4, #0
 701              	.L48:
 428:lib/tinyusb/src/device/usbd.c **** 
 702              		.loc 1 428 1 view .LVU128
 703 001a 2046     		mov	r0, r4
 704 001c 10BD     		pop	{r4, pc}
 705              	.L54:
 425:lib/tinyusb/src/device/usbd.c ****   dcd_remote_wakeup(_usbd_rhport);
 706              		.loc 1 425 3 is_stmt 1 discriminator 4 view .LVU129
 426:lib/tinyusb/src/device/usbd.c ****   return true;
 707              		.loc 1 426 3 discriminator 4 view .LVU130
 708 001e 044B     		ldr	r3, .L55+4
 709 0020 1878     		ldrb	r0, [r3]	@ zero_extendqisi2
 710 0022 FFF7FEFF 		bl	dcd_remote_wakeup
ARM GAS  /tmp/claude-502/ccKWrqGw.s 			page 36


 711              	.LVL31:
 427:lib/tinyusb/src/device/usbd.c **** }
 712              		.loc 1 427 3 discriminator 4 view .LVU131
 428:lib/tinyusb/src/device/usbd.c **** 
 713              		.loc 1 428 1 is_stmt 0 discriminator 4 view .LVU132
 714 0026 2046     		mov	r0, r4
 715 0028 10BD     		pop	{r4, pc}
 716              	.L56:
 717 002a 00BF     		.align	2
 718              	.L55:
 719 002c 00000000 		.word	.LANCHOR3
 720 0030 00000000 		.word	.LANCHOR4
 721              		.cfi_endproc
 722              	.LFE434:
 724              		.section	.text.tud_disconnect,"ax",%progbits
 725              		.align	1
 726              		.p2align 2,,3
 727              		.global	tud_disconnect
 728              		.syntax unified
 729              		.thumb
 730              		.thumb_func
 732              	tud_disconnect:
 733              	.LFB435:
 430:lib/tinyusb/src/device/usbd.c ****   dcd_disconnect(_usbd_rhport);
 734              		.loc 1 430 27 is_stmt 1 view -0
 735              		.cfi_startproc
 736              		@ args = 0, pretend = 0, frame = 0
 737              		@ frame_needed = 0, uses_anonymous_args = 0
 431:lib/tinyusb/src/device/usbd.c ****   return true;
 738              		.loc 1 431 3 view .LVU134
 430:lib/tinyusb/src/device/usbd.c ****   dcd_disconnect(_usbd_rhport);
 739              		.loc 1 430 27 is_stmt 0 view .LVU135
 740 0000 08B5     		push	{r3, lr}
 741              		.cfi_def_cfa_offset 8
 742              		.cfi_offset 3, -8
 743              		.cfi_offset 14, -4
 431:lib/tinyusb/src/device/usbd.c ****   return true;
 744              		.loc 1 431 3 view .LVU136
 745 0002 034B     		ldr	r3, .L59
 746 0004 1878     		ldrb	r0, [r3]	@ zero_extendqisi2
 747 0006 FFF7FEFF 		bl	dcd_disconnect
 748              	.LVL32:
 432:lib/tinyusb/src/device/usbd.c **** }
 749              		.loc 1 432 3 is_stmt 1 view .LVU137
 433:lib/tinyusb/src/device/usbd.c **** 
 750              		.loc 1 433 1 is_stmt 0 view .LVU138
 751 000a 0120     		movs	r0, #1
 752 000c 08BD     		pop	{r3, pc}
 753              	.L60:
 754 000e 00BF     		.align	2
 755              	.L59:
 756 0010 00000000 		.word	.LANCHOR4
 757              		.cfi_endproc
 758              	.LFE435:
 760              		.section	.text.tud_connect,"ax",%progbits
 761              		.align	1
 762              		.p2align 2,,3
ARM GAS  /tmp/claude-502/ccKWrqGw.s 			page 37


 763              		.global	tud_connect
 764              		.syntax unified
 765              		.thumb
 766              		.thumb_func
 768              	tud_connect:
 769              	.LFB436:
 435:lib/tinyusb/src/device/usbd.c ****   dcd_connect(_usbd_rhport);
 770              		.loc 1 435 24 is_stmt 1 view -0
 771              		.cfi_startproc
 772              		@ args = 0, pretend = 0, frame = 0
 773              		@ frame_needed = 0, uses_anonymous_args = 0
 436:lib/tinyusb/src/device/usbd.c ****   return true;
 774              		.loc 1 436 3 view .LVU140
 435:lib/tinyusb/src/device/usbd.c ****   dcd_connect(_usbd_rhport);
 775              		.loc 1 435 24 is_stmt 0 view .LVU141
 776 0000 08B5     		push	{r3, lr}
 777              		.cfi_def_cfa_offset 8
 778              		.cfi_offset 3, -8
 779              		.cfi_offset 14, -4
 436:lib/tinyusb/src/device/usbd.c ****   return true;
 780              		.loc 1 436 3 view .LVU142
 781 0002 034B     		ldr	r3, .L63
 782 0004 1878     		ldrb	r0, [r3]	@ zero_extendqisi2
 783 0006 FFF7FEFF 		bl	dcd_connect
 784              	.LVL33:
 437:lib/tinyusb/src/device/usbd.c **** }
 785              		.loc 1 437 3 is_stmt 1 view .LVU143
 438:lib/tinyusb/src/device/usbd.c **** 
 786              		.loc 1 438 1 is_stmt 0 view .LVU144
 787 000a 0120     		movs	r0, #1
 788 000c 08BD     		pop	{r3, pc}
 789              	.L64:
 790 000e 00BF     		.align	2
 791              	.L63:
 792 0010 00000000 		.word	.LANCHOR4
 793              		.cfi_endproc
 794              	.LFE436:
 796              		.section	.text.tud_sof_cb_enable,"ax",%progbits
 797              		.align	1
 798              		.p2align 2,,3
 799              		.global	tud_sof_cb_enable
 800              		.syntax unified
 801              		.thumb
 802              		.thumb_func
 804              	tud_sof_cb_enable:
 805              	.LVL34:
 806              	.LFB437:
 440:lib/tinyusb/src/device/usbd.c ****   usbd_sof_enable(_usbd_rhport, SOF_CONSUMER_USER, en);
 807              		.loc 1 440 33 is_stmt 1 view -0
 808              		.cfi_startproc
 809              		@ args = 0, pretend = 0, frame = 0
 810              		@ frame_needed = 0, uses_anonymous_args = 0
 811              		@ link register save eliminated.
 441:lib/tinyusb/src/device/usbd.c **** }
 812              		.loc 1 441 3 view .LVU146
 813              	.LBB338:
 814              	.LBB339:
ARM GAS  /tmp/claude-502/ccKWrqGw.s 			page 38


1230:lib/tinyusb/src/device/usbd.c ****   }
1231:lib/tinyusb/src/device/usbd.c **** }
1232:lib/tinyusb/src/device/usbd.c **** 
1233:lib/tinyusb/src/device/usbd.c **** // Parse consecutive endpoint descriptors (IN & OUT)
1234:lib/tinyusb/src/device/usbd.c **** bool usbd_open_edpt_pair(uint8_t rhport, uint8_t const* p_desc, uint8_t ep_count, uint8_t xfer_type
1235:lib/tinyusb/src/device/usbd.c **** {
1236:lib/tinyusb/src/device/usbd.c ****   for(int i=0; i<ep_count; i++)
1237:lib/tinyusb/src/device/usbd.c ****   {
1238:lib/tinyusb/src/device/usbd.c ****     tusb_desc_endpoint_t const * desc_ep = (tusb_desc_endpoint_t const *) p_desc;
1239:lib/tinyusb/src/device/usbd.c **** 
1240:lib/tinyusb/src/device/usbd.c ****     TU_ASSERT(TUSB_DESC_ENDPOINT == desc_ep->bDescriptorType && xfer_type == desc_ep->bmAttributes.
1241:lib/tinyusb/src/device/usbd.c ****     TU_ASSERT(usbd_edpt_open(rhport, desc_ep));
1242:lib/tinyusb/src/device/usbd.c **** 
1243:lib/tinyusb/src/device/usbd.c ****     if ( tu_edpt_dir(desc_ep->bEndpointAddress) == TUSB_DIR_IN )
1244:lib/tinyusb/src/device/usbd.c ****     {
1245:lib/tinyusb/src/device/usbd.c ****       (*ep_in) = desc_ep->bEndpointAddress;
1246:lib/tinyusb/src/device/usbd.c ****     }else
1247:lib/tinyusb/src/device/usbd.c ****     {
1248:lib/tinyusb/src/device/usbd.c ****       (*ep_out) = desc_ep->bEndpointAddress;
1249:lib/tinyusb/src/device/usbd.c ****     }
1250:lib/tinyusb/src/device/usbd.c **** 
1251:lib/tinyusb/src/device/usbd.c ****     p_desc = tu_desc_next(p_desc);
1252:lib/tinyusb/src/device/usbd.c ****   }
1253:lib/tinyusb/src/device/usbd.c **** 
1254:lib/tinyusb/src/device/usbd.c ****   return true;
1255:lib/tinyusb/src/device/usbd.c **** }
1256:lib/tinyusb/src/device/usbd.c **** 
1257:lib/tinyusb/src/device/usbd.c **** // Helper to defer an isr function
1258:lib/tinyusb/src/device/usbd.c **** void usbd_defer_func(osal_task_func_t func, void* param, bool in_isr) {
1259:lib/tinyusb/src/device/usbd.c ****   dcd_event_t event = {
1260:lib/tinyusb/src/device/usbd.c ****       .rhport   = 0,
1261:lib/tinyusb/src/device/usbd.c ****       .event_id = USBD_EVENT_FUNC_CALL,
1262:lib/tinyusb/src/device/usbd.c ****   };
1263:lib/tinyusb/src/device/usbd.c ****   event.func_call.func  = func;
1264:lib/tinyusb/src/device/usbd.c ****   event.func_call.param = param;
1265:lib/tinyusb/src/device/usbd.c **** 
1266:lib/tinyusb/src/device/usbd.c ****   queue_event(&event, in_isr);
1267:lib/tinyusb/src/device/usbd.c **** }
1268:lib/tinyusb/src/device/usbd.c **** 
1269:lib/tinyusb/src/device/usbd.c **** //--------------------------------------------------------------------+
1270:lib/tinyusb/src/device/usbd.c **** // USBD Endpoint API
1271:lib/tinyusb/src/device/usbd.c **** //--------------------------------------------------------------------+
1272:lib/tinyusb/src/device/usbd.c **** 
1273:lib/tinyusb/src/device/usbd.c **** bool usbd_edpt_open(uint8_t rhport, tusb_desc_endpoint_t const* desc_ep) {
1274:lib/tinyusb/src/device/usbd.c ****   rhport = _usbd_rhport;
1275:lib/tinyusb/src/device/usbd.c **** 
1276:lib/tinyusb/src/device/usbd.c ****   TU_ASSERT(tu_edpt_number(desc_ep->bEndpointAddress) < CFG_TUD_ENDPPOINT_MAX);
1277:lib/tinyusb/src/device/usbd.c ****   TU_ASSERT(tu_edpt_validate(desc_ep, (tusb_speed_t) _usbd_dev.speed));
1278:lib/tinyusb/src/device/usbd.c **** 
1279:lib/tinyusb/src/device/usbd.c ****   return dcd_edpt_open(rhport, desc_ep);
1280:lib/tinyusb/src/device/usbd.c **** }
1281:lib/tinyusb/src/device/usbd.c **** 
1282:lib/tinyusb/src/device/usbd.c **** bool usbd_edpt_claim(uint8_t rhport, uint8_t ep_addr) {
1283:lib/tinyusb/src/device/usbd.c ****   (void) rhport;
1284:lib/tinyusb/src/device/usbd.c **** 
1285:lib/tinyusb/src/device/usbd.c ****   // TODO add this check later, also make sure we don't starve an out endpoint while suspending
1286:lib/tinyusb/src/device/usbd.c ****   // TU_VERIFY(tud_ready());
ARM GAS  /tmp/claude-502/ccKWrqGw.s 			page 39


1287:lib/tinyusb/src/device/usbd.c **** 
1288:lib/tinyusb/src/device/usbd.c ****   uint8_t const epnum = tu_edpt_number(ep_addr);
1289:lib/tinyusb/src/device/usbd.c ****   uint8_t const dir = tu_edpt_dir(ep_addr);
1290:lib/tinyusb/src/device/usbd.c ****   tu_edpt_state_t* ep_state = &_usbd_dev.ep_status[epnum][dir];
1291:lib/tinyusb/src/device/usbd.c **** 
1292:lib/tinyusb/src/device/usbd.c ****   return tu_edpt_claim(ep_state, _usbd_mutex);
1293:lib/tinyusb/src/device/usbd.c **** }
1294:lib/tinyusb/src/device/usbd.c **** 
1295:lib/tinyusb/src/device/usbd.c **** bool usbd_edpt_release(uint8_t rhport, uint8_t ep_addr) {
1296:lib/tinyusb/src/device/usbd.c ****   (void) rhport;
1297:lib/tinyusb/src/device/usbd.c **** 
1298:lib/tinyusb/src/device/usbd.c ****   uint8_t const epnum = tu_edpt_number(ep_addr);
1299:lib/tinyusb/src/device/usbd.c ****   uint8_t const dir = tu_edpt_dir(ep_addr);
1300:lib/tinyusb/src/device/usbd.c ****   tu_edpt_state_t* ep_state = &_usbd_dev.ep_status[epnum][dir];
1301:lib/tinyusb/src/device/usbd.c **** 
1302:lib/tinyusb/src/device/usbd.c ****   return tu_edpt_release(ep_state, _usbd_mutex);
1303:lib/tinyusb/src/device/usbd.c **** }
1304:lib/tinyusb/src/device/usbd.c **** 
1305:lib/tinyusb/src/device/usbd.c **** bool usbd_edpt_xfer(uint8_t rhport, uint8_t ep_addr, uint8_t* buffer, uint16_t total_bytes) {
1306:lib/tinyusb/src/device/usbd.c ****   rhport = _usbd_rhport;
1307:lib/tinyusb/src/device/usbd.c **** 
1308:lib/tinyusb/src/device/usbd.c ****   uint8_t const epnum = tu_edpt_number(ep_addr);
1309:lib/tinyusb/src/device/usbd.c ****   uint8_t const dir = tu_edpt_dir(ep_addr);
1310:lib/tinyusb/src/device/usbd.c **** 
1311:lib/tinyusb/src/device/usbd.c ****   // TODO skip ready() check for now since enumeration also use this API
1312:lib/tinyusb/src/device/usbd.c ****   // TU_VERIFY(tud_ready());
1313:lib/tinyusb/src/device/usbd.c **** 
1314:lib/tinyusb/src/device/usbd.c ****   TU_LOG_USBD("  Queue EP %02X with %u bytes ...\r\n", ep_addr, total_bytes);
1315:lib/tinyusb/src/device/usbd.c **** #if CFG_TUD_LOG_LEVEL >= 3
1316:lib/tinyusb/src/device/usbd.c ****   if(dir == TUSB_DIR_IN) {
1317:lib/tinyusb/src/device/usbd.c ****     TU_LOG_MEM(CFG_TUD_LOG_LEVEL, buffer, total_bytes, 2);
1318:lib/tinyusb/src/device/usbd.c ****   }
1319:lib/tinyusb/src/device/usbd.c **** #endif
1320:lib/tinyusb/src/device/usbd.c **** 
1321:lib/tinyusb/src/device/usbd.c ****   // Attempt to transfer on a busy endpoint, sound like an race condition !
1322:lib/tinyusb/src/device/usbd.c ****   TU_ASSERT(_usbd_dev.ep_status[epnum][dir].busy == 0);
1323:lib/tinyusb/src/device/usbd.c **** 
1324:lib/tinyusb/src/device/usbd.c ****   // Set busy first since the actual transfer can be complete before dcd_edpt_xfer()
1325:lib/tinyusb/src/device/usbd.c ****   // could return and USBD task can preempt and clear the busy
1326:lib/tinyusb/src/device/usbd.c ****   _usbd_dev.ep_status[epnum][dir].busy = 1;
1327:lib/tinyusb/src/device/usbd.c **** 
1328:lib/tinyusb/src/device/usbd.c ****   if (dcd_edpt_xfer(rhport, ep_addr, buffer, total_bytes)) {
1329:lib/tinyusb/src/device/usbd.c ****     return true;
1330:lib/tinyusb/src/device/usbd.c ****   } else {
1331:lib/tinyusb/src/device/usbd.c ****     // DCD error, mark endpoint as ready to allow next transfer
1332:lib/tinyusb/src/device/usbd.c ****     _usbd_dev.ep_status[epnum][dir].busy = 0;
1333:lib/tinyusb/src/device/usbd.c ****     _usbd_dev.ep_status[epnum][dir].claimed = 0;
1334:lib/tinyusb/src/device/usbd.c ****     TU_LOG_USBD("FAILED\r\n");
1335:lib/tinyusb/src/device/usbd.c ****     TU_BREAKPOINT();
1336:lib/tinyusb/src/device/usbd.c ****     return false;
1337:lib/tinyusb/src/device/usbd.c ****   }
1338:lib/tinyusb/src/device/usbd.c **** }
1339:lib/tinyusb/src/device/usbd.c **** 
1340:lib/tinyusb/src/device/usbd.c **** // The number of bytes has to be given explicitly to allow more flexible control of how many
1341:lib/tinyusb/src/device/usbd.c **** // bytes should be written and second to keep the return value free to give back a boolean
1342:lib/tinyusb/src/device/usbd.c **** // success message. If total_bytes is too big, the FIFO will copy only what is available
1343:lib/tinyusb/src/device/usbd.c **** // into the USB buffer!
ARM GAS  /tmp/claude-502/ccKWrqGw.s 			page 40


1344:lib/tinyusb/src/device/usbd.c **** bool usbd_edpt_xfer_fifo(uint8_t rhport, uint8_t ep_addr, tu_fifo_t* ff, uint16_t total_bytes) {
1345:lib/tinyusb/src/device/usbd.c ****   rhport = _usbd_rhport;
1346:lib/tinyusb/src/device/usbd.c **** 
1347:lib/tinyusb/src/device/usbd.c ****   uint8_t const epnum = tu_edpt_number(ep_addr);
1348:lib/tinyusb/src/device/usbd.c ****   uint8_t const dir = tu_edpt_dir(ep_addr);
1349:lib/tinyusb/src/device/usbd.c **** 
1350:lib/tinyusb/src/device/usbd.c ****   TU_LOG_USBD("  Queue ISO EP %02X with %u bytes ... ", ep_addr, total_bytes);
1351:lib/tinyusb/src/device/usbd.c **** 
1352:lib/tinyusb/src/device/usbd.c ****   // Attempt to transfer on a busy endpoint, sound like an race condition !
1353:lib/tinyusb/src/device/usbd.c ****   TU_ASSERT(_usbd_dev.ep_status[epnum][dir].busy == 0);
1354:lib/tinyusb/src/device/usbd.c **** 
1355:lib/tinyusb/src/device/usbd.c ****   // Set busy first since the actual transfer can be complete before dcd_edpt_xfer() could return
1356:lib/tinyusb/src/device/usbd.c ****   // and usbd task can preempt and clear the busy
1357:lib/tinyusb/src/device/usbd.c ****   _usbd_dev.ep_status[epnum][dir].busy = 1;
1358:lib/tinyusb/src/device/usbd.c **** 
1359:lib/tinyusb/src/device/usbd.c ****   if (dcd_edpt_xfer_fifo(rhport, ep_addr, ff, total_bytes)) {
1360:lib/tinyusb/src/device/usbd.c ****     TU_LOG_USBD("OK\r\n");
1361:lib/tinyusb/src/device/usbd.c ****     return true;
1362:lib/tinyusb/src/device/usbd.c ****   } else {
1363:lib/tinyusb/src/device/usbd.c ****     // DCD error, mark endpoint as ready to allow next transfer
1364:lib/tinyusb/src/device/usbd.c ****     _usbd_dev.ep_status[epnum][dir].busy = 0;
1365:lib/tinyusb/src/device/usbd.c ****     _usbd_dev.ep_status[epnum][dir].claimed = 0;
1366:lib/tinyusb/src/device/usbd.c ****     TU_LOG_USBD("failed\r\n");
1367:lib/tinyusb/src/device/usbd.c ****     TU_BREAKPOINT();
1368:lib/tinyusb/src/device/usbd.c ****     return false;
1369:lib/tinyusb/src/device/usbd.c ****   }
1370:lib/tinyusb/src/device/usbd.c **** }
1371:lib/tinyusb/src/device/usbd.c **** 
1372:lib/tinyusb/src/device/usbd.c **** bool usbd_edpt_busy(uint8_t rhport, uint8_t ep_addr) {
1373:lib/tinyusb/src/device/usbd.c ****   (void) rhport;
1374:lib/tinyusb/src/device/usbd.c **** 
1375:lib/tinyusb/src/device/usbd.c ****   uint8_t const epnum = tu_edpt_number(ep_addr);
1376:lib/tinyusb/src/device/usbd.c ****   uint8_t const dir = tu_edpt_dir(ep_addr);
1377:lib/tinyusb/src/device/usbd.c **** 
1378:lib/tinyusb/src/device/usbd.c ****   return _usbd_dev.ep_status[epnum][dir].busy;
1379:lib/tinyusb/src/device/usbd.c **** }
1380:lib/tinyusb/src/device/usbd.c **** 
1381:lib/tinyusb/src/device/usbd.c **** void usbd_edpt_stall(uint8_t rhport, uint8_t ep_addr) {
1382:lib/tinyusb/src/device/usbd.c ****   rhport = _usbd_rhport;
1383:lib/tinyusb/src/device/usbd.c **** 
1384:lib/tinyusb/src/device/usbd.c ****   uint8_t const epnum = tu_edpt_number(ep_addr);
1385:lib/tinyusb/src/device/usbd.c ****   uint8_t const dir = tu_edpt_dir(ep_addr);
1386:lib/tinyusb/src/device/usbd.c **** 
1387:lib/tinyusb/src/device/usbd.c ****   // only stalled if currently cleared
1388:lib/tinyusb/src/device/usbd.c ****   TU_LOG_USBD("    Stall EP %02X\r\n", ep_addr);
1389:lib/tinyusb/src/device/usbd.c ****   dcd_edpt_stall(rhport, ep_addr);
1390:lib/tinyusb/src/device/usbd.c ****   _usbd_dev.ep_status[epnum][dir].stalled = 1;
1391:lib/tinyusb/src/device/usbd.c ****   _usbd_dev.ep_status[epnum][dir].busy = 1;
1392:lib/tinyusb/src/device/usbd.c **** }
1393:lib/tinyusb/src/device/usbd.c **** 
1394:lib/tinyusb/src/device/usbd.c **** void usbd_edpt_clear_stall(uint8_t rhport, uint8_t ep_addr) {
1395:lib/tinyusb/src/device/usbd.c ****   rhport = _usbd_rhport;
1396:lib/tinyusb/src/device/usbd.c **** 
1397:lib/tinyusb/src/device/usbd.c ****   uint8_t const epnum = tu_edpt_number(ep_addr);
1398:lib/tinyusb/src/device/usbd.c ****   uint8_t const dir = tu_edpt_dir(ep_addr);
1399:lib/tinyusb/src/device/usbd.c **** 
1400:lib/tinyusb/src/device/usbd.c ****   // only clear if currently stalled
ARM GAS  /tmp/claude-502/ccKWrqGw.s 			page 41


1401:lib/tinyusb/src/device/usbd.c ****   TU_LOG_USBD("    Clear Stall EP %02X\r\n", ep_addr);
1402:lib/tinyusb/src/device/usbd.c ****   dcd_edpt_clear_stall(rhport, ep_addr);
1403:lib/tinyusb/src/device/usbd.c ****   _usbd_dev.ep_status[epnum][dir].stalled = 0;
1404:lib/tinyusb/src/device/usbd.c ****   _usbd_dev.ep_status[epnum][dir].busy = 0;
1405:lib/tinyusb/src/device/usbd.c **** }
1406:lib/tinyusb/src/device/usbd.c **** 
1407:lib/tinyusb/src/device/usbd.c **** bool usbd_edpt_stalled(uint8_t rhport, uint8_t ep_addr) {
1408:lib/tinyusb/src/device/usbd.c ****   (void) rhport;
1409:lib/tinyusb/src/device/usbd.c **** 
1410:lib/tinyusb/src/device/usbd.c ****   uint8_t const epnum = tu_edpt_number(ep_addr);
1411:lib/tinyusb/src/device/usbd.c ****   uint8_t const dir = tu_edpt_dir(ep_addr);
1412:lib/tinyusb/src/device/usbd.c **** 
1413:lib/tinyusb/src/device/usbd.c ****   return _usbd_dev.ep_status[epnum][dir].stalled;
1414:lib/tinyusb/src/device/usbd.c **** }
1415:lib/tinyusb/src/device/usbd.c **** 
1416:lib/tinyusb/src/device/usbd.c **** /**
1417:lib/tinyusb/src/device/usbd.c ****  * usbd_edpt_close will disable an endpoint.
1418:lib/tinyusb/src/device/usbd.c ****  * In progress transfers on this EP may be delivered after this call.
1419:lib/tinyusb/src/device/usbd.c ****  */
1420:lib/tinyusb/src/device/usbd.c **** void usbd_edpt_close(uint8_t rhport, uint8_t ep_addr) {
1421:lib/tinyusb/src/device/usbd.c **** #ifdef TUP_DCD_EDPT_ISO_ALLOC
1422:lib/tinyusb/src/device/usbd.c ****   (void) rhport; (void) ep_addr;
1423:lib/tinyusb/src/device/usbd.c ****   // ISO alloc/activate Should be used instead
1424:lib/tinyusb/src/device/usbd.c **** #else
1425:lib/tinyusb/src/device/usbd.c ****   rhport = _usbd_rhport;
1426:lib/tinyusb/src/device/usbd.c **** 
1427:lib/tinyusb/src/device/usbd.c ****   TU_LOG_USBD("  CLOSING Endpoint: 0x%02X\r\n", ep_addr);
1428:lib/tinyusb/src/device/usbd.c **** 
1429:lib/tinyusb/src/device/usbd.c ****   uint8_t const epnum = tu_edpt_number(ep_addr);
1430:lib/tinyusb/src/device/usbd.c ****   uint8_t const dir = tu_edpt_dir(ep_addr);
1431:lib/tinyusb/src/device/usbd.c **** 
1432:lib/tinyusb/src/device/usbd.c ****   dcd_edpt_close(rhport, ep_addr);
1433:lib/tinyusb/src/device/usbd.c ****   _usbd_dev.ep_status[epnum][dir].stalled = 0;
1434:lib/tinyusb/src/device/usbd.c ****   _usbd_dev.ep_status[epnum][dir].busy = 0;
1435:lib/tinyusb/src/device/usbd.c ****   _usbd_dev.ep_status[epnum][dir].claimed = 0;
1436:lib/tinyusb/src/device/usbd.c **** #endif
1437:lib/tinyusb/src/device/usbd.c **** 
1438:lib/tinyusb/src/device/usbd.c ****   return;
1439:lib/tinyusb/src/device/usbd.c **** }
1440:lib/tinyusb/src/device/usbd.c **** 
1441:lib/tinyusb/src/device/usbd.c **** void usbd_sof_enable(uint8_t rhport, sof_consumer_t consumer, bool en) {
1442:lib/tinyusb/src/device/usbd.c ****   rhport = _usbd_rhport;
1443:lib/tinyusb/src/device/usbd.c **** 
1444:lib/tinyusb/src/device/usbd.c ****   uint8_t consumer_old = _usbd_dev.sof_consumer;
 815              		.loc 1 1444 11 is_stmt 0 view .LVU147
 816 0000 0F49     		ldr	r1, .L70
 817              	.LBE339:
 818              	.LBE338:
 441:lib/tinyusb/src/device/usbd.c **** }
 819              		.loc 1 441 3 view .LVU148
 820 0002 104A     		ldr	r2, .L70+4
 821              	.LBB343:
 822              	.LBB340:
 823              		.loc 1 1444 11 view .LVU149
 824 0004 CB78     		ldrb	r3, [r1, #3]	@ zero_extendqisi2
 825              	.LBE340:
 826              	.LBE343:
ARM GAS  /tmp/claude-502/ccKWrqGw.s 			page 42


 441:lib/tinyusb/src/device/usbd.c **** }
 827              		.loc 1 441 3 view .LVU150
 828 0006 92F800C0 		ldrb	ip, [r2]	@ zero_extendqisi2
 829              	.LVL35:
 830              	.LBB344:
 831              	.LBI338:
1441:lib/tinyusb/src/device/usbd.c ****   rhport = _usbd_rhport;
 832              		.loc 1 1441 6 is_stmt 1 view .LVU151
 833              	.LBB341:
1442:lib/tinyusb/src/device/usbd.c **** 
 834              		.loc 1 1442 3 view .LVU152
 835              		.loc 1 1444 3 view .LVU153
 836              		.loc 1 1444 11 is_stmt 0 view .LVU154
 837 000a DBB2     		uxtb	r3, r3
 838              	.LVL36:
1445:lib/tinyusb/src/device/usbd.c ****   // Keep track how many class instances need the SOF interrupt
1446:lib/tinyusb/src/device/usbd.c ****   if (en) {
 839              		.loc 1 1446 3 is_stmt 1 view .LVU155
1447:lib/tinyusb/src/device/usbd.c ****     _usbd_dev.sof_consumer |= (uint8_t)(1 << consumer);
 840              		.loc 1 1447 28 is_stmt 0 view .LVU156
 841 000c CA78     		ldrb	r2, [r1, #3]	@ zero_extendqisi2
1446:lib/tinyusb/src/device/usbd.c ****     _usbd_dev.sof_consumer |= (uint8_t)(1 << consumer);
 842              		.loc 1 1446 6 view .LVU157
 843 000e 60B1     		cbz	r0, .L66
 844              		.loc 1 1447 5 is_stmt 1 view .LVU158
 845              		.loc 1 1447 28 is_stmt 0 view .LVU159
 846 0010 42F00102 		orr	r2, r2, #1
 847 0014 CA70     		strb	r2, [r1, #3]
 848              	.L67:
1448:lib/tinyusb/src/device/usbd.c ****   } else {
1449:lib/tinyusb/src/device/usbd.c ****     _usbd_dev.sof_consumer &= (uint8_t)(~(1 << consumer));
1450:lib/tinyusb/src/device/usbd.c ****   }
1451:lib/tinyusb/src/device/usbd.c **** 
1452:lib/tinyusb/src/device/usbd.c ****   // Test logically unequal
1453:lib/tinyusb/src/device/usbd.c ****   if(!_usbd_dev.sof_consumer != !consumer_old) {
 849              		.loc 1 1453 3 is_stmt 1 view .LVU160
 850              		.loc 1 1453 16 is_stmt 0 view .LVU161
 851 0016 CA78     		ldrb	r2, [r1, #3]	@ zero_extendqisi2
 852              		.loc 1 1453 5 view .LVU162
 853 0018 B3FA83F3 		clz	r3, r3
 854              	.LVL37:
 855              		.loc 1 1453 5 view .LVU163
 856 001c B2FA82F2 		clz	r2, r2
 857 0020 5B09     		lsrs	r3, r3, #5
 858 0022 5209     		lsrs	r2, r2, #5
 859 0024 9A42     		cmp	r2, r3
 860 0026 04D1     		bne	.L69
 861              	.LBE341:
 862              	.LBE344:
 442:lib/tinyusb/src/device/usbd.c **** 
 863              		.loc 1 442 1 view .LVU164
 864 0028 7047     		bx	lr
 865              	.LVL38:
 866              	.L66:
 867              	.LBB345:
 868              	.LBB342:
1449:lib/tinyusb/src/device/usbd.c ****   }
ARM GAS  /tmp/claude-502/ccKWrqGw.s 			page 43


 869              		.loc 1 1449 5 is_stmt 1 view .LVU165
1449:lib/tinyusb/src/device/usbd.c ****   }
 870              		.loc 1 1449 28 is_stmt 0 view .LVU166
 871 002a 02F0FE02 		and	r2, r2, #254
 872 002e CA70     		strb	r2, [r1, #3]
 873 0030 F1E7     		b	.L67
 874              	.LVL39:
 875              	.L69:
1454:lib/tinyusb/src/device/usbd.c ****     dcd_sof_enable(rhport, _usbd_dev.sof_consumer);
 876              		.loc 1 1454 5 is_stmt 1 view .LVU167
 877              		.loc 1 1454 37 is_stmt 0 view .LVU168
 878 0032 C978     		ldrb	r1, [r1, #3]	@ zero_extendqisi2
 879              		.loc 1 1454 5 view .LVU169
 880 0034 6046     		mov	r0, ip
 881              	.LVL40:
 882              		.loc 1 1454 5 view .LVU170
 883 0036 0039     		subs	r1, r1, #0
 884 0038 18BF     		it	ne
 885 003a 0121     		movne	r1, #1
 886 003c FFF7FEBF 		b	dcd_sof_enable
 887              	.LVL41:
 888              	.L71:
 889              		.loc 1 1454 5 view .LVU171
 890              		.align	2
 891              	.L70:
 892 0040 00000000 		.word	.LANCHOR3
 893 0044 00000000 		.word	.LANCHOR4
 894              	.LBE342:
 895              	.LBE345:
 896              		.cfi_endproc
 897              	.LFE437:
 899              		.section	.text.tud_inited,"ax",%progbits
 900              		.align	1
 901              		.p2align 2,,3
 902              		.global	tud_inited
 903              		.syntax unified
 904              		.thumb
 905              		.thumb_func
 907              	tud_inited:
 908              	.LFB438:
 447:lib/tinyusb/src/device/usbd.c ****   return _usbd_rhport != RHPORT_INVALID;
 909              		.loc 1 447 23 is_stmt 1 view -0
 910              		.cfi_startproc
 911              		@ args = 0, pretend = 0, frame = 0
 912              		@ frame_needed = 0, uses_anonymous_args = 0
 913              		@ link register save eliminated.
 448:lib/tinyusb/src/device/usbd.c **** }
 914              		.loc 1 448 3 view .LVU173
 448:lib/tinyusb/src/device/usbd.c **** }
 915              		.loc 1 448 23 is_stmt 0 view .LVU174
 916 0000 024B     		ldr	r3, .L73
 917 0002 1878     		ldrb	r0, [r3]	@ zero_extendqisi2
 449:lib/tinyusb/src/device/usbd.c **** 
 918              		.loc 1 449 1 view .LVU175
 919 0004 FF38     		subs	r0, r0, #255
 920 0006 18BF     		it	ne
 921 0008 0120     		movne	r0, #1
ARM GAS  /tmp/claude-502/ccKWrqGw.s 			page 44


 922 000a 7047     		bx	lr
 923              	.L74:
 924              		.align	2
 925              	.L73:
 926 000c 00000000 		.word	.LANCHOR4
 927              		.cfi_endproc
 928              	.LFE438:
 930              		.section	.text.tud_init,"ax",%progbits
 931              		.align	1
 932              		.p2align 2,,3
 933              		.global	tud_init
 934              		.syntax unified
 935              		.thumb
 936              		.thumb_func
 938              	tud_init:
 939              	.LVL42:
 940              	.LFB439:
 451:lib/tinyusb/src/device/usbd.c ****   // skip if already initialized
 941              		.loc 1 451 31 is_stmt 1 view -0
 942              		.cfi_startproc
 943              		@ args = 0, pretend = 0, frame = 0
 944              		@ frame_needed = 0, uses_anonymous_args = 0
 453:lib/tinyusb/src/device/usbd.c **** 
 945              		.loc 1 453 3 view .LVU177
 946              	.LBB346:
 947              	.LBI346:
 447:lib/tinyusb/src/device/usbd.c ****   return _usbd_rhport != RHPORT_INVALID;
 948              		.loc 1 447 6 view .LVU178
 949              	.LBB347:
 448:lib/tinyusb/src/device/usbd.c **** }
 950              		.loc 1 448 3 view .LVU179
 951              	.LBE347:
 952              	.LBE346:
 451:lib/tinyusb/src/device/usbd.c ****   // skip if already initialized
 953              		.loc 1 451 31 is_stmt 0 view .LVU180
 954 0000 2DE9F843 		push	{r3, r4, r5, r6, r7, r8, r9, lr}
 955              		.cfi_def_cfa_offset 32
 956              		.cfi_offset 3, -32
 957              		.cfi_offset 4, -28
 958              		.cfi_offset 5, -24
 959              		.cfi_offset 6, -20
 960              		.cfi_offset 7, -16
 961              		.cfi_offset 8, -12
 962              		.cfi_offset 9, -8
 963              		.cfi_offset 14, -4
 964              	.LBB349:
 965              	.LBB348:
 448:lib/tinyusb/src/device/usbd.c **** }
 966              		.loc 1 448 23 view .LVU181
 967 0004 274F     		ldr	r7, .L95
 968              	.LBE348:
 969              	.LBE349:
 453:lib/tinyusb/src/device/usbd.c **** 
 970              		.loc 1 453 6 view .LVU182
 971 0006 3B78     		ldrb	r3, [r7]	@ zero_extendqisi2
 972 0008 FF2B     		cmp	r3, #255
 973 000a 02D0     		beq	.L93
ARM GAS  /tmp/claude-502/ccKWrqGw.s 			page 45


 453:lib/tinyusb/src/device/usbd.c **** 
 974              		.loc 1 453 28 view .LVU183
 975 000c 0120     		movs	r0, #1
 976              	.LVL43:
 977              	.L76:
 494:lib/tinyusb/src/device/usbd.c **** 
 978              		.loc 1 494 1 view .LVU184
 979 000e BDE8F883 		pop	{r3, r4, r5, r6, r7, r8, r9, pc}
 980              	.LVL44:
 981              	.L93:
 455:lib/tinyusb/src/device/usbd.c ****   TU_LOG_INT(CFG_TUD_LOG_LEVEL, sizeof(usbd_device_t));
 982              		.loc 1 455 92 is_stmt 1 view .LVU185
 456:lib/tinyusb/src/device/usbd.c ****   TU_LOG_INT(CFG_TUD_LOG_LEVEL, sizeof(dcd_event_t));
 983              		.loc 1 456 55 view .LVU186
 457:lib/tinyusb/src/device/usbd.c ****   TU_LOG_INT(CFG_TUD_LOG_LEVEL, sizeof(tu_fifo_t));
 984              		.loc 1 457 53 view .LVU187
 458:lib/tinyusb/src/device/usbd.c ****   TU_LOG_INT(CFG_TUD_LOG_LEVEL, sizeof(tu_edpt_stream_t));
 985              		.loc 1 458 51 view .LVU188
 459:lib/tinyusb/src/device/usbd.c **** 
 986              		.loc 1 459 58 view .LVU189
 461:lib/tinyusb/src/device/usbd.c ****   _usbd_queued_setup = 0;
 987              		.loc 1 461 3 view .LVU190
 988 0012 3822     		movs	r2, #56
 989 0014 0021     		movs	r1, #0
 990              	.LBB350:
 991              	.LBB351:
 992              		.file 2 "lib/tinyusb/src/osal/osal_none.h"
   1:lib/tinyusb/src/osal/osal_none.h **** /*
   2:lib/tinyusb/src/osal/osal_none.h ****  * The MIT License (MIT)
   3:lib/tinyusb/src/osal/osal_none.h ****  *
   4:lib/tinyusb/src/osal/osal_none.h ****  * Copyright (c) 2019 Ha Thach (tinyusb.org)
   5:lib/tinyusb/src/osal/osal_none.h ****  *
   6:lib/tinyusb/src/osal/osal_none.h ****  * Permission is hereby granted, free of charge, to any person obtaining a copy
   7:lib/tinyusb/src/osal/osal_none.h ****  * of this software and associated documentation files (the "Software"), to deal
   8:lib/tinyusb/src/osal/osal_none.h ****  * in the Software without restriction, including without limitation the rights
   9:lib/tinyusb/src/osal/osal_none.h ****  * to use, copy, modify, merge, publish, distribute, sublicense, and/or sell
  10:lib/tinyusb/src/osal/osal_none.h ****  * copies of the Software, and to permit persons to whom the Software is
  11:lib/tinyusb/src/osal/osal_none.h ****  * furnished to do so, subject to the following conditions:
  12:lib/tinyusb/src/osal/osal_none.h ****  *
  13:lib/tinyusb/src/osal/osal_none.h ****  * The above copyright notice and this permission notice shall be included in
  14:lib/tinyusb/src/osal/osal_none.h ****  * all copies or substantial portions of the Software.
  15:lib/tinyusb/src/osal/osal_none.h ****  *
  16:lib/tinyusb/src/osal/osal_none.h ****  * THE SOFTWARE IS PROVIDED "AS IS", WITHOUT WARRANTY OF ANY KIND, EXPRESS OR
  17:lib/tinyusb/src/osal/osal_none.h ****  * IMPLIED, INCLUDING BUT NOT LIMITED TO THE WARRANTIES OF MERCHANTABILITY,
  18:lib/tinyusb/src/osal/osal_none.h ****  * FITNESS FOR A PARTICULAR PURPOSE AND NONINFRINGEMENT. IN NO EVENT SHALL THE
  19:lib/tinyusb/src/osal/osal_none.h ****  * AUTHORS OR COPYRIGHT HOLDERS BE LIABLE FOR ANY CLAIM, DAMAGES OR OTHER
  20:lib/tinyusb/src/osal/osal_none.h ****  * LIABILITY, WHETHER IN AN ACTION OF CONTRACT, TORT OR OTHERWISE, ARISING FROM,
  21:lib/tinyusb/src/osal/osal_none.h ****  * OUT OF OR IN CONNECTION WITH THE SOFTWARE OR THE USE OR OTHER DEALINGS IN
  22:lib/tinyusb/src/osal/osal_none.h ****  * THE SOFTWARE.
  23:lib/tinyusb/src/osal/osal_none.h ****  *
  24:lib/tinyusb/src/osal/osal_none.h ****  * This file is part of the TinyUSB stack.
  25:lib/tinyusb/src/osal/osal_none.h ****  */
  26:lib/tinyusb/src/osal/osal_none.h **** 
  27:lib/tinyusb/src/osal/osal_none.h **** #ifndef TUSB_OSAL_NONE_H_
  28:lib/tinyusb/src/osal/osal_none.h **** #define TUSB_OSAL_NONE_H_
  29:lib/tinyusb/src/osal/osal_none.h **** 
  30:lib/tinyusb/src/osal/osal_none.h **** #ifdef __cplusplus
ARM GAS  /tmp/claude-502/ccKWrqGw.s 			page 46


  31:lib/tinyusb/src/osal/osal_none.h **** extern "C" {
  32:lib/tinyusb/src/osal/osal_none.h **** #endif
  33:lib/tinyusb/src/osal/osal_none.h **** 
  34:lib/tinyusb/src/osal/osal_none.h **** //--------------------------------------------------------------------+
  35:lib/tinyusb/src/osal/osal_none.h **** // TASK API
  36:lib/tinyusb/src/osal/osal_none.h **** //--------------------------------------------------------------------+
  37:lib/tinyusb/src/osal/osal_none.h **** 
  38:lib/tinyusb/src/osal/osal_none.h **** #if CFG_TUH_ENABLED
  39:lib/tinyusb/src/osal/osal_none.h **** // currently only needed/available in host mode
  40:lib/tinyusb/src/osal/osal_none.h **** TU_ATTR_WEAK void osal_task_delay(uint32_t msec);
  41:lib/tinyusb/src/osal/osal_none.h **** #endif
  42:lib/tinyusb/src/osal/osal_none.h **** 
  43:lib/tinyusb/src/osal/osal_none.h **** //--------------------------------------------------------------------+
  44:lib/tinyusb/src/osal/osal_none.h **** // Binary Semaphore API
  45:lib/tinyusb/src/osal/osal_none.h **** //--------------------------------------------------------------------+
  46:lib/tinyusb/src/osal/osal_none.h **** typedef struct {
  47:lib/tinyusb/src/osal/osal_none.h ****   volatile uint16_t count;
  48:lib/tinyusb/src/osal/osal_none.h **** } osal_semaphore_def_t;
  49:lib/tinyusb/src/osal/osal_none.h **** 
  50:lib/tinyusb/src/osal/osal_none.h **** typedef osal_semaphore_def_t* osal_semaphore_t;
  51:lib/tinyusb/src/osal/osal_none.h **** 
  52:lib/tinyusb/src/osal/osal_none.h **** TU_ATTR_ALWAYS_INLINE static inline osal_semaphore_t osal_semaphore_create(osal_semaphore_def_t* se
  53:lib/tinyusb/src/osal/osal_none.h ****   semdef->count = 0;
  54:lib/tinyusb/src/osal/osal_none.h ****   return semdef;
  55:lib/tinyusb/src/osal/osal_none.h **** }
  56:lib/tinyusb/src/osal/osal_none.h **** 
  57:lib/tinyusb/src/osal/osal_none.h **** TU_ATTR_ALWAYS_INLINE static inline bool osal_semaphore_delete(osal_semaphore_t semd_hdl) {
  58:lib/tinyusb/src/osal/osal_none.h ****   (void) semd_hdl;
  59:lib/tinyusb/src/osal/osal_none.h ****   return true; // nothing to do
  60:lib/tinyusb/src/osal/osal_none.h **** }
  61:lib/tinyusb/src/osal/osal_none.h **** 
  62:lib/tinyusb/src/osal/osal_none.h **** 
  63:lib/tinyusb/src/osal/osal_none.h **** TU_ATTR_ALWAYS_INLINE static inline bool osal_semaphore_post(osal_semaphore_t sem_hdl, bool in_isr)
  64:lib/tinyusb/src/osal/osal_none.h ****   (void) in_isr;
  65:lib/tinyusb/src/osal/osal_none.h ****   sem_hdl->count++;
  66:lib/tinyusb/src/osal/osal_none.h ****   return true;
  67:lib/tinyusb/src/osal/osal_none.h **** }
  68:lib/tinyusb/src/osal/osal_none.h **** 
  69:lib/tinyusb/src/osal/osal_none.h **** // TODO blocking for now
  70:lib/tinyusb/src/osal/osal_none.h **** TU_ATTR_ALWAYS_INLINE static inline bool osal_semaphore_wait(osal_semaphore_t sem_hdl, uint32_t mse
  71:lib/tinyusb/src/osal/osal_none.h ****   (void) msec;
  72:lib/tinyusb/src/osal/osal_none.h **** 
  73:lib/tinyusb/src/osal/osal_none.h ****   while (sem_hdl->count == 0) {}
  74:lib/tinyusb/src/osal/osal_none.h ****   sem_hdl->count--;
  75:lib/tinyusb/src/osal/osal_none.h **** 
  76:lib/tinyusb/src/osal/osal_none.h ****   return true;
  77:lib/tinyusb/src/osal/osal_none.h **** }
  78:lib/tinyusb/src/osal/osal_none.h **** 
  79:lib/tinyusb/src/osal/osal_none.h **** TU_ATTR_ALWAYS_INLINE static inline void osal_semaphore_reset(osal_semaphore_t sem_hdl) {
  80:lib/tinyusb/src/osal/osal_none.h ****   sem_hdl->count = 0;
  81:lib/tinyusb/src/osal/osal_none.h **** }
  82:lib/tinyusb/src/osal/osal_none.h **** 
  83:lib/tinyusb/src/osal/osal_none.h **** //--------------------------------------------------------------------+
  84:lib/tinyusb/src/osal/osal_none.h **** // MUTEX API
  85:lib/tinyusb/src/osal/osal_none.h **** // Within tinyusb, mutex is never used in ISR context
  86:lib/tinyusb/src/osal/osal_none.h **** //--------------------------------------------------------------------+
  87:lib/tinyusb/src/osal/osal_none.h **** typedef osal_semaphore_def_t osal_mutex_def_t;
ARM GAS  /tmp/claude-502/ccKWrqGw.s 			page 47


  88:lib/tinyusb/src/osal/osal_none.h **** typedef osal_semaphore_t osal_mutex_t;
  89:lib/tinyusb/src/osal/osal_none.h **** 
  90:lib/tinyusb/src/osal/osal_none.h **** #if OSAL_MUTEX_REQUIRED
  91:lib/tinyusb/src/osal/osal_none.h **** // Note: multiple cores MCUs usually do provide IPC API for mutex
  92:lib/tinyusb/src/osal/osal_none.h **** // or we can use std atomic function
  93:lib/tinyusb/src/osal/osal_none.h **** 
  94:lib/tinyusb/src/osal/osal_none.h **** TU_ATTR_ALWAYS_INLINE static inline osal_mutex_t osal_mutex_create(osal_mutex_def_t* mdef) {
  95:lib/tinyusb/src/osal/osal_none.h ****   mdef->count = 1;
  96:lib/tinyusb/src/osal/osal_none.h ****   return mdef;
  97:lib/tinyusb/src/osal/osal_none.h **** }
  98:lib/tinyusb/src/osal/osal_none.h **** 
  99:lib/tinyusb/src/osal/osal_none.h **** TU_ATTR_ALWAYS_INLINE static inline bool osal_mutex_delete(osal_mutex_t mutex_hdl) {
 100:lib/tinyusb/src/osal/osal_none.h ****   (void) mutex_hdl;
 101:lib/tinyusb/src/osal/osal_none.h ****   return true; // nothing to do
 102:lib/tinyusb/src/osal/osal_none.h **** }
 103:lib/tinyusb/src/osal/osal_none.h **** 
 104:lib/tinyusb/src/osal/osal_none.h **** TU_ATTR_ALWAYS_INLINE static inline bool osal_mutex_lock (osal_mutex_t mutex_hdl, uint32_t msec) {
 105:lib/tinyusb/src/osal/osal_none.h ****   return osal_semaphore_wait(mutex_hdl, msec);
 106:lib/tinyusb/src/osal/osal_none.h **** }
 107:lib/tinyusb/src/osal/osal_none.h **** 
 108:lib/tinyusb/src/osal/osal_none.h **** TU_ATTR_ALWAYS_INLINE static inline bool osal_mutex_unlock(osal_mutex_t mutex_hdl) {
 109:lib/tinyusb/src/osal/osal_none.h ****   return osal_semaphore_post(mutex_hdl, false);
 110:lib/tinyusb/src/osal/osal_none.h **** }
 111:lib/tinyusb/src/osal/osal_none.h **** 
 112:lib/tinyusb/src/osal/osal_none.h **** #else
 113:lib/tinyusb/src/osal/osal_none.h **** 
 114:lib/tinyusb/src/osal/osal_none.h **** #define osal_mutex_create(_mdef)          (NULL)
 115:lib/tinyusb/src/osal/osal_none.h **** #define osal_mutex_lock(_mutex_hdl, _ms)  (true)
 116:lib/tinyusb/src/osal/osal_none.h **** #define osal_mutex_unlock(_mutex_hdl)     (true)
 117:lib/tinyusb/src/osal/osal_none.h **** 
 118:lib/tinyusb/src/osal/osal_none.h **** #endif
 119:lib/tinyusb/src/osal/osal_none.h **** 
 120:lib/tinyusb/src/osal/osal_none.h **** //--------------------------------------------------------------------+
 121:lib/tinyusb/src/osal/osal_none.h **** // QUEUE API
 122:lib/tinyusb/src/osal/osal_none.h **** //--------------------------------------------------------------------+
 123:lib/tinyusb/src/osal/osal_none.h **** #include "common/tusb_fifo.h"
 124:lib/tinyusb/src/osal/osal_none.h **** 
 125:lib/tinyusb/src/osal/osal_none.h **** typedef struct {
 126:lib/tinyusb/src/osal/osal_none.h ****   void (* interrupt_set)(bool);
 127:lib/tinyusb/src/osal/osal_none.h ****   tu_fifo_t ff;
 128:lib/tinyusb/src/osal/osal_none.h **** } osal_queue_def_t;
 129:lib/tinyusb/src/osal/osal_none.h **** 
 130:lib/tinyusb/src/osal/osal_none.h **** typedef osal_queue_def_t* osal_queue_t;
 131:lib/tinyusb/src/osal/osal_none.h **** 
 132:lib/tinyusb/src/osal/osal_none.h **** // _int_set is used as mutex in OS NONE (disable/enable USB ISR)
 133:lib/tinyusb/src/osal/osal_none.h **** #define OSAL_QUEUE_DEF(_int_set, _name, _depth, _type)    \
 134:lib/tinyusb/src/osal/osal_none.h ****   uint8_t _name##_buf[_depth*sizeof(_type)];              \
 135:lib/tinyusb/src/osal/osal_none.h ****   osal_queue_def_t _name = {                              \
 136:lib/tinyusb/src/osal/osal_none.h ****     .interrupt_set = _int_set,                            \
 137:lib/tinyusb/src/osal/osal_none.h ****     .ff = TU_FIFO_INIT(_name##_buf, _depth, _type, false) \
 138:lib/tinyusb/src/osal/osal_none.h ****   }
 139:lib/tinyusb/src/osal/osal_none.h **** 
 140:lib/tinyusb/src/osal/osal_none.h **** // lock queue by disable USB interrupt
 141:lib/tinyusb/src/osal/osal_none.h **** TU_ATTR_ALWAYS_INLINE static inline void _osal_q_lock(osal_queue_t qhdl) {
 142:lib/tinyusb/src/osal/osal_none.h ****   // disable dcd/hcd interrupt
 143:lib/tinyusb/src/osal/osal_none.h ****   qhdl->interrupt_set(false);
 144:lib/tinyusb/src/osal/osal_none.h **** }
ARM GAS  /tmp/claude-502/ccKWrqGw.s 			page 48


 145:lib/tinyusb/src/osal/osal_none.h **** 
 146:lib/tinyusb/src/osal/osal_none.h **** // unlock queue
 147:lib/tinyusb/src/osal/osal_none.h **** TU_ATTR_ALWAYS_INLINE static inline void _osal_q_unlock(osal_queue_t qhdl) {
 148:lib/tinyusb/src/osal/osal_none.h ****   // enable dcd/hcd interrupt
 149:lib/tinyusb/src/osal/osal_none.h ****   qhdl->interrupt_set(true);
 150:lib/tinyusb/src/osal/osal_none.h **** }
 151:lib/tinyusb/src/osal/osal_none.h **** 
 152:lib/tinyusb/src/osal/osal_none.h **** TU_ATTR_ALWAYS_INLINE static inline osal_queue_t osal_queue_create(osal_queue_def_t* qdef) {
 153:lib/tinyusb/src/osal/osal_none.h ****   tu_fifo_clear(&qdef->ff);
 993              		.loc 2 153 3 is_stmt 0 view .LVU191
 994 0016 244C     		ldr	r4, .L95+4
 995 0018 0546     		mov	r5, r0
 996              	.LBE351:
 997              	.LBE350:
 461:lib/tinyusb/src/device/usbd.c ****   _usbd_queued_setup = 0;
 998              		.loc 1 461 3 view .LVU192
 999 001a 2448     		ldr	r0, .L95+8
 1000              	.LVL45:
 461:lib/tinyusb/src/device/usbd.c ****   _usbd_queued_setup = 0;
 1001              		.loc 1 461 3 view .LVU193
 1002 001c FFF7FEFF 		bl	memset
 1003              	.LVL46:
 462:lib/tinyusb/src/device/usbd.c **** 
 1004              		.loc 1 462 3 is_stmt 1 view .LVU194
 462:lib/tinyusb/src/device/usbd.c **** 
 1005              		.loc 1 462 22 is_stmt 0 view .LVU195
 1006 0020 234B     		ldr	r3, .L95+12
 1007 0022 0022     		movs	r2, #0
 1008              	.LBB354:
 1009              	.LBB352:
 1010              		.loc 2 153 3 view .LVU196
 1011 0024 201D     		adds	r0, r4, #4
 1012              	.LBE352:
 1013              	.LBE354:
 462:lib/tinyusb/src/device/usbd.c **** 
 1014              		.loc 1 462 22 view .LVU197
 1015 0026 1A70     		strb	r2, [r3]
 471:lib/tinyusb/src/device/usbd.c ****   TU_ASSERT(_usbd_q);
 1016              		.loc 1 471 3 is_stmt 1 view .LVU198
 1017              	.LVL47:
 1018              	.LBB355:
 1019              	.LBI350:
 152:lib/tinyusb/src/osal/osal_none.h ****   tu_fifo_clear(&qdef->ff);
 1020              		.loc 2 152 50 view .LVU199
 1021              	.LBB353:
 1022              		.loc 2 153 3 view .LVU200
 1023 0028 FFF7FEFF 		bl	tu_fifo_clear
 1024              	.LVL48:
 154:lib/tinyusb/src/osal/osal_none.h ****   return (osal_queue_t) qdef;
 1025              		.loc 2 154 3 view .LVU201
 1026              		.loc 2 154 3 is_stmt 0 view .LVU202
 1027              	.LBE353:
 1028              	.LBE355:
 471:lib/tinyusb/src/device/usbd.c ****   TU_ASSERT(_usbd_q);
 1029              		.loc 1 471 11 view .LVU203
 1030 002c 214A     		ldr	r2, .L95+16
 475:lib/tinyusb/src/device/usbd.c ****     _app_driver = usbd_app_driver_get_cb(&_app_driver_count);
ARM GAS  /tmp/claude-502/ccKWrqGw.s 			page 49


 1031              		.loc 1 475 6 view .LVU204
 1032 002e 224B     		ldr	r3, .L95+20
 471:lib/tinyusb/src/device/usbd.c ****   TU_ASSERT(_usbd_q);
 1033              		.loc 1 471 11 view .LVU205
 1034 0030 1460     		str	r4, [r2]
 472:lib/tinyusb/src/device/usbd.c **** 
 1035              		.loc 1 472 3 is_stmt 1 view .LVU206
 472:lib/tinyusb/src/device/usbd.c **** 
 1036              		.loc 1 472 3 view .LVU207
 472:lib/tinyusb/src/device/usbd.c **** 
 1037              		.loc 1 472 3 view .LVU208
 475:lib/tinyusb/src/device/usbd.c ****     _app_driver = usbd_app_driver_get_cb(&_app_driver_count);
 1038              		.loc 1 475 3 view .LVU209
 475:lib/tinyusb/src/device/usbd.c ****     _app_driver = usbd_app_driver_get_cb(&_app_driver_count);
 1039              		.loc 1 475 6 is_stmt 0 view .LVU210
 1040 0032 23B1     		cbz	r3, .L77
 476:lib/tinyusb/src/device/usbd.c ****   }
 1041              		.loc 1 476 5 is_stmt 1 view .LVU211
 476:lib/tinyusb/src/device/usbd.c ****   }
 1042              		.loc 1 476 19 is_stmt 0 view .LVU212
 1043 0034 2148     		ldr	r0, .L95+24
 1044 0036 FFF7FEFF 		bl	usbd_app_driver_get_cb
 1045              	.LVL49:
 476:lib/tinyusb/src/device/usbd.c ****   }
 1046              		.loc 1 476 17 view .LVU213
 1047 003a 214B     		ldr	r3, .L95+28
 1048 003c 1860     		str	r0, [r3]
 1049              	.L77:
 1050              	.LVL50:
 1051              	.LBB356:
 480:lib/tinyusb/src/device/usbd.c ****     usbd_class_driver_t const* driver = get_driver(i);
 1052              		.loc 1 480 23 is_stmt 1 discriminator 2 view .LVU214
 480:lib/tinyusb/src/device/usbd.c ****     usbd_class_driver_t const* driver = get_driver(i);
 1053              		.loc 1 480 25 is_stmt 0 discriminator 2 view .LVU215
 1054 003e 1F4C     		ldr	r4, .L95+24
 1055 0040 4FF00009 		mov	r9, #0
 1056              	.LBB357:
 1057              	.LBB358:
 1058              	.LBB359:
 319:lib/tinyusb/src/device/usbd.c ****   }
 1059              		.loc 1 319 12 discriminator 2 view .LVU216
 1060 0044 1F4E     		ldr	r6, .L95+32
 1061              	.LBE359:
 1062              	.LBE358:
 1063              	.LBE357:
 480:lib/tinyusb/src/device/usbd.c ****     usbd_class_driver_t const* driver = get_driver(i);
 1064              		.loc 1 480 25 discriminator 2 view .LVU217
 1065 0046 2178     		ldrb	r1, [r4]	@ zero_extendqisi2
 1066 0048 4A46     		mov	r2, r9
 1067              	.LBB371:
 1068              	.LBB365:
 1069              	.LBB360:
 317:lib/tinyusb/src/device/usbd.c ****   } else if ( drvid < TOTAL_DRIVER_COUNT && BUILTIN_DRIVER_COUNT > 0 ){
 1070              		.loc 1 317 14 discriminator 2 view .LVU218
 1071 004a DFF87480 		ldr	r8, .L95+28
 1072 004e 07E0     		b	.L82
 1073              	.LVL51:
ARM GAS  /tmp/claude-502/ccKWrqGw.s 			page 50


 1074              	.L80:
 317:lib/tinyusb/src/device/usbd.c ****   } else if ( drvid < TOTAL_DRIVER_COUNT && BUILTIN_DRIVER_COUNT > 0 ){
 1075              		.loc 1 317 14 discriminator 2 view .LVU219
 1076              	.LBE360:
 1077              	.LBE365:
 482:lib/tinyusb/src/device/usbd.c ****     TU_LOG_USBD("%s init\r\n", driver->name);
 1078              		.loc 1 482 5 discriminator 2 view .LVU220
 1079 0050 5B68     		ldr	r3, [r3, #4]
 1080              	.LVL52:
 482:lib/tinyusb/src/device/usbd.c ****     TU_LOG_USBD("%s init\r\n", driver->name);
 1081              		.loc 1 482 5 discriminator 2 view .LVU221
 1082 0052 8BB1     		cbz	r3, .L79
 484:lib/tinyusb/src/device/usbd.c ****   }
 1083              		.loc 1 484 5 discriminator 4 view .LVU222
 1084 0054 9847     		blx	r3
 1085              	.LVL53:
 1086              	.LBE371:
 480:lib/tinyusb/src/device/usbd.c ****     usbd_class_driver_t const* driver = get_driver(i);
 1087              		.loc 1 480 47 is_stmt 1 discriminator 4 view .LVU223
 480:lib/tinyusb/src/device/usbd.c ****     usbd_class_driver_t const* driver = get_driver(i);
 1088              		.loc 1 480 23 discriminator 4 view .LVU224
 480:lib/tinyusb/src/device/usbd.c ****     usbd_class_driver_t const* driver = get_driver(i);
 1089              		.loc 1 480 25 is_stmt 0 discriminator 4 view .LVU225
 1090 0056 2178     		ldrb	r1, [r4]	@ zero_extendqisi2
 480:lib/tinyusb/src/device/usbd.c ****     usbd_class_driver_t const* driver = get_driver(i);
 1091              		.loc 1 480 3 discriminator 4 view .LVU226
 1092 0058 5FFA89F2 		uxtb	r2, r9
 1093 005c 9142     		cmp	r1, r2
 1094 005e 16D3     		bcc	.L94
 1095              	.L82:
 1096              	.LVL54:
 1097              	.LBB372:
 481:lib/tinyusb/src/device/usbd.c ****     TU_ASSERT(driver && driver->init);
 1098              		.loc 1 481 5 is_stmt 1 view .LVU227
 1099              	.LBB366:
 1100              	.LBI358:
 313:lib/tinyusb/src/device/usbd.c ****   usbd_class_driver_t const * driver = NULL;
 1101              		.loc 1 313 65 view .LVU228
 1102              	.LBB361:
 314:lib/tinyusb/src/device/usbd.c ****   if ( drvid < _app_driver_count ) {
 1103              		.loc 1 314 3 view .LVU229
 315:lib/tinyusb/src/device/usbd.c ****     // Application drivers
 1104              		.loc 1 315 3 view .LVU230
 317:lib/tinyusb/src/device/usbd.c ****   } else if ( drvid < TOTAL_DRIVER_COUNT && BUILTIN_DRIVER_COUNT > 0 ){
 1105              		.loc 1 317 5 view .LVU231
 318:lib/tinyusb/src/device/usbd.c ****     driver = &_usbd_driver[drvid - _app_driver_count];
 1106              		.loc 1 318 10 view .LVU232
 319:lib/tinyusb/src/device/usbd.c ****   }
 1107              		.loc 1 319 5 view .LVU233
 319:lib/tinyusb/src/device/usbd.c ****   }
 1108              		.loc 1 319 5 is_stmt 0 view .LVU234
 1109              	.LBE361:
 1110              	.LBE366:
 482:lib/tinyusb/src/device/usbd.c ****     TU_LOG_USBD("%s init\r\n", driver->name);
 1111              		.loc 1 482 5 is_stmt 1 view .LVU235
 483:lib/tinyusb/src/device/usbd.c ****     driver->init();
 1112              		.loc 1 483 45 view .LVU236
ARM GAS  /tmp/claude-502/ccKWrqGw.s 			page 51


 484:lib/tinyusb/src/device/usbd.c ****   }
 1113              		.loc 1 484 5 view .LVU237
 1114              	.LBB367:
 1115              	.LBB362:
 319:lib/tinyusb/src/device/usbd.c ****   }
 1116              		.loc 1 319 34 is_stmt 0 view .LVU238
 1117 0060 531A     		subs	r3, r2, r1
 315:lib/tinyusb/src/device/usbd.c ****     // Application drivers
 1118              		.loc 1 315 6 view .LVU239
 1119 0062 8A42     		cmp	r2, r1
 1120              	.LBE362:
 1121              	.LBE367:
 1122              	.LBE372:
 480:lib/tinyusb/src/device/usbd.c ****     usbd_class_driver_t const* driver = get_driver(i);
 1123              		.loc 1 480 3 view .LVU240
 1124 0064 09F10109 		add	r9, r9, #1
 1125              	.LVL55:
 1126              	.LBB373:
 1127              	.LBB368:
 1128              	.LBB363:
 319:lib/tinyusb/src/device/usbd.c ****   }
 1129              		.loc 1 319 12 view .LVU241
 1130 0068 06EB4313 		add	r3, r6, r3, lsl #5
 1131              	.LVL56:
 321:lib/tinyusb/src/device/usbd.c **** }
 1132              		.loc 1 321 3 is_stmt 1 view .LVU242
 321:lib/tinyusb/src/device/usbd.c **** }
 1133              		.loc 1 321 3 is_stmt 0 view .LVU243
 1134              	.LBE363:
 1135              	.LBE368:
 482:lib/tinyusb/src/device/usbd.c ****     TU_LOG_USBD("%s init\r\n", driver->name);
 1136              		.loc 1 482 5 is_stmt 1 view .LVU244
 482:lib/tinyusb/src/device/usbd.c ****     TU_LOG_USBD("%s init\r\n", driver->name);
 1137              		.loc 1 482 5 view .LVU245
 1138              	.LBB369:
 1139              	.LBB364:
 315:lib/tinyusb/src/device/usbd.c ****     // Application drivers
 1140              		.loc 1 315 6 is_stmt 0 view .LVU246
 1141 006c F0D2     		bcs	.L80
 317:lib/tinyusb/src/device/usbd.c ****   } else if ( drvid < TOTAL_DRIVER_COUNT && BUILTIN_DRIVER_COUNT > 0 ){
 1142              		.loc 1 317 12 view .LVU247
 1143 006e D8F80030 		ldr	r3, [r8]
 1144              	.LVL57:
 321:lib/tinyusb/src/device/usbd.c **** }
 1145              		.loc 1 321 3 is_stmt 1 view .LVU248
 321:lib/tinyusb/src/device/usbd.c **** }
 1146              		.loc 1 321 3 is_stmt 0 view .LVU249
 1147              	.LBE364:
 1148              	.LBE369:
 482:lib/tinyusb/src/device/usbd.c ****     TU_LOG_USBD("%s init\r\n", driver->name);
 1149              		.loc 1 482 5 is_stmt 1 view .LVU250
 482:lib/tinyusb/src/device/usbd.c ****     TU_LOG_USBD("%s init\r\n", driver->name);
 1150              		.loc 1 482 5 view .LVU251
 1151 0072 13EB4213 		adds	r3, r3, r2, lsl #5
 1152              	.LVL58:
 482:lib/tinyusb/src/device/usbd.c ****     TU_LOG_USBD("%s init\r\n", driver->name);
 1153              		.loc 1 482 5 is_stmt 0 view .LVU252
ARM GAS  /tmp/claude-502/ccKWrqGw.s 			page 52


 1154 0076 EBD1     		bne	.L80
 1155              	.LVL59:
 1156              	.L79:
 482:lib/tinyusb/src/device/usbd.c ****     TU_LOG_USBD("%s init\r\n", driver->name);
 1157              		.loc 1 482 5 is_stmt 1 discriminator 3 view .LVU253
 482:lib/tinyusb/src/device/usbd.c ****     TU_LOG_USBD("%s init\r\n", driver->name);
 1158              		.loc 1 482 5 discriminator 3 view .LVU254
 482:lib/tinyusb/src/device/usbd.c ****     TU_LOG_USBD("%s init\r\n", driver->name);
 1159              		.loc 1 482 5 discriminator 3 view .LVU255
 482:lib/tinyusb/src/device/usbd.c ****     TU_LOG_USBD("%s init\r\n", driver->name);
 1160              		.loc 1 482 5 discriminator 3 view .LVU256
 1161              	.LBB370:
 482:lib/tinyusb/src/device/usbd.c ****     TU_LOG_USBD("%s init\r\n", driver->name);
 1162              		.loc 1 482 5 discriminator 3 view .LVU257
 482:lib/tinyusb/src/device/usbd.c ****     TU_LOG_USBD("%s init\r\n", driver->name);
 1163              		.loc 1 482 5 discriminator 3 view .LVU258
 1164 0078 4FF0E023 		mov	r3, #-536813568
 1165 007c D3F8F00D 		ldr	r0, [r3, #3568]
 1166 0080 10F00100 		ands	r0, r0, #1
 1167 0084 C3D0     		beq	.L76
 482:lib/tinyusb/src/device/usbd.c ****     TU_LOG_USBD("%s init\r\n", driver->name);
 1168              		.loc 1 482 5 discriminator 5 view .LVU259
 1169              		.syntax unified
 1170              	@ 482 "lib/tinyusb/src/device/usbd.c" 1
 1171 0086 00BE     		BKPT #0
 1172              	
 1173              	@ 0 "" 2
 1174              		.thumb
 1175              		.syntax unified
 1176              	.LBE370:
 1177 0088 0020     		movs	r0, #0
 1178              	.LBE373:
 1179              	.LBE356:
 494:lib/tinyusb/src/device/usbd.c **** 
 1180              		.loc 1 494 1 is_stmt 0 discriminator 5 view .LVU260
 1181 008a BDE8F883 		pop	{r3, r4, r5, r6, r7, r8, r9, pc}
 1182              	.LVL60:
 1183              	.L94:
 487:lib/tinyusb/src/device/usbd.c **** 
 1184              		.loc 1 487 3 is_stmt 1 view .LVU261
 490:lib/tinyusb/src/device/usbd.c ****   dcd_int_enable(rhport);
 1185              		.loc 1 490 3 is_stmt 0 view .LVU262
 1186 008e 2846     		mov	r0, r5
 487:lib/tinyusb/src/device/usbd.c **** 
 1187              		.loc 1 487 16 view .LVU263
 1188 0090 3D70     		strb	r5, [r7]
 490:lib/tinyusb/src/device/usbd.c ****   dcd_int_enable(rhport);
 1189              		.loc 1 490 3 is_stmt 1 view .LVU264
 1190 0092 FFF7FEFF 		bl	dcd_init
 1191              	.LVL61:
 491:lib/tinyusb/src/device/usbd.c **** 
 1192              		.loc 1 491 3 view .LVU265
 1193 0096 2846     		mov	r0, r5
 1194 0098 FFF7FEFF 		bl	dcd_int_enable
 1195              	.LVL62:
 493:lib/tinyusb/src/device/usbd.c **** }
 1196              		.loc 1 493 3 view .LVU266
ARM GAS  /tmp/claude-502/ccKWrqGw.s 			page 53


 493:lib/tinyusb/src/device/usbd.c **** }
 1197              		.loc 1 493 10 is_stmt 0 view .LVU267
 1198 009c 0120     		movs	r0, #1
 494:lib/tinyusb/src/device/usbd.c **** 
 1199              		.loc 1 494 1 view .LVU268
 1200 009e BDE8F883 		pop	{r3, r4, r5, r6, r7, r8, r9, pc}
 1201              	.L96:
 1202 00a2 00BF     		.align	2
 1203              	.L95:
 1204 00a4 00000000 		.word	.LANCHOR4
 1205 00a8 00000000 		.word	.LANCHOR6
 1206 00ac 00000000 		.word	.LANCHOR3
 1207 00b0 00000000 		.word	.LANCHOR5
 1208 00b4 00000000 		.word	.LANCHOR7
 1209 00b8 00000000 		.word	usbd_app_driver_get_cb
 1210 00bc 00000000 		.word	.LANCHOR0
 1211 00c0 00000000 		.word	.LANCHOR1
 1212 00c4 00000000 		.word	.LANCHOR2
 1213              		.cfi_endproc
 1214              	.LFE439:
 1216              		.section	.text.tud_deinit,"ax",%progbits
 1217              		.align	1
 1218              		.p2align 2,,3
 1219              		.global	tud_deinit
 1220              		.syntax unified
 1221              		.thumb
 1222              		.thumb_func
 1224              	tud_deinit:
 1225              	.LVL63:
 1226              	.LFB440:
 496:lib/tinyusb/src/device/usbd.c ****   // skip if not initialized
 1227              		.loc 1 496 33 is_stmt 1 view -0
 1228              		.cfi_startproc
 1229              		@ args = 0, pretend = 0, frame = 0
 1230              		@ frame_needed = 0, uses_anonymous_args = 0
 498:lib/tinyusb/src/device/usbd.c **** 
 1231              		.loc 1 498 3 view .LVU270
 1232              	.LBB374:
 1233              	.LBI374:
 447:lib/tinyusb/src/device/usbd.c ****   return _usbd_rhport != RHPORT_INVALID;
 1234              		.loc 1 447 6 view .LVU271
 1235              	.LBB375:
 448:lib/tinyusb/src/device/usbd.c **** }
 1236              		.loc 1 448 3 view .LVU272
 1237              	.LBE375:
 1238              	.LBE374:
 496:lib/tinyusb/src/device/usbd.c ****   // skip if not initialized
 1239              		.loc 1 496 33 is_stmt 0 view .LVU273
 1240 0000 2DE9F041 		push	{r4, r5, r6, r7, r8, lr}
 1241              		.cfi_def_cfa_offset 24
 1242              		.cfi_offset 4, -24
 1243              		.cfi_offset 5, -20
 1244              		.cfi_offset 6, -16
 1245              		.cfi_offset 7, -12
 1246              		.cfi_offset 8, -8
 1247              		.cfi_offset 14, -4
 1248              	.LBB377:
ARM GAS  /tmp/claude-502/ccKWrqGw.s 			page 54


 1249              	.LBB376:
 448:lib/tinyusb/src/device/usbd.c **** }
 1250              		.loc 1 448 23 view .LVU274
 1251 0004 1A4D     		ldr	r5, .L113
 1252              	.LBE376:
 1253              	.LBE377:
 498:lib/tinyusb/src/device/usbd.c **** 
 1254              		.loc 1 498 6 view .LVU275
 1255 0006 2B78     		ldrb	r3, [r5]	@ zero_extendqisi2
 1256 0008 FF2B     		cmp	r3, #255
 1257 000a 2DD0     		beq	.L98
 1258 000c 0446     		mov	r4, r0
 500:lib/tinyusb/src/device/usbd.c **** 
 1259              		.loc 1 500 58 is_stmt 1 view .LVU276
 503:lib/tinyusb/src/device/usbd.c ****   dcd_disconnect(rhport);
 1260              		.loc 1 503 3 view .LVU277
 1261 000e FFF7FEFF 		bl	dcd_int_disable
 1262              	.LVL64:
 504:lib/tinyusb/src/device/usbd.c ****   dcd_deinit(rhport);
 1263              		.loc 1 504 3 view .LVU278
 1264              	.LBB378:
 508:lib/tinyusb/src/device/usbd.c ****     usbd_class_driver_t const* driver = get_driver(i);
 1265              		.loc 1 508 25 is_stmt 0 view .LVU279
 1266 0012 184E     		ldr	r6, .L113+4
 1267              	.LBE378:
 504:lib/tinyusb/src/device/usbd.c ****   dcd_deinit(rhport);
 1268              		.loc 1 504 3 view .LVU280
 1269 0014 2046     		mov	r0, r4
 1270              	.LBB394:
 1271              	.LBB379:
 1272              	.LBB380:
 1273              	.LBB381:
 319:lib/tinyusb/src/device/usbd.c ****   }
 1274              		.loc 1 319 12 view .LVU281
 1275 0016 184F     		ldr	r7, .L113+8
 1276              	.LBE381:
 1277              	.LBE380:
 1278              	.LBE379:
 1279              	.LBE394:
 504:lib/tinyusb/src/device/usbd.c ****   dcd_deinit(rhport);
 1280              		.loc 1 504 3 view .LVU282
 1281 0018 FFF7FEFF 		bl	dcd_disconnect
 1282              	.LVL65:
 505:lib/tinyusb/src/device/usbd.c **** 
 1283              		.loc 1 505 3 is_stmt 1 view .LVU283
 1284 001c 2046     		mov	r0, r4
 1285              	.LBB395:
 508:lib/tinyusb/src/device/usbd.c ****     usbd_class_driver_t const* driver = get_driver(i);
 1286              		.loc 1 508 25 is_stmt 0 view .LVU284
 1287 001e 0024     		movs	r4, #0
 1288              	.LBE395:
 505:lib/tinyusb/src/device/usbd.c **** 
 1289              		.loc 1 505 3 view .LVU285
 1290 0020 FFF7FEFF 		bl	dcd_deinit
 1291              	.LVL66:
 508:lib/tinyusb/src/device/usbd.c ****     usbd_class_driver_t const* driver = get_driver(i);
 1292              		.loc 1 508 3 is_stmt 1 view .LVU286
ARM GAS  /tmp/claude-502/ccKWrqGw.s 			page 55


 1293              	.LBB396:
 508:lib/tinyusb/src/device/usbd.c ****     usbd_class_driver_t const* driver = get_driver(i);
 1294              		.loc 1 508 8 view .LVU287
 508:lib/tinyusb/src/device/usbd.c ****     usbd_class_driver_t const* driver = get_driver(i);
 1295              		.loc 1 508 23 view .LVU288
 1296              	.LBB390:
 1297              	.LBB386:
 1298              	.LBB382:
 317:lib/tinyusb/src/device/usbd.c ****   } else if ( drvid < TOTAL_DRIVER_COUNT && BUILTIN_DRIVER_COUNT > 0 ){
 1299              		.loc 1 317 14 is_stmt 0 view .LVU289
 1300 0024 DFF85880 		ldr	r8, .L113+16
 1301              	.LBE382:
 1302              	.LBE386:
 1303              	.LBE390:
 508:lib/tinyusb/src/device/usbd.c ****     usbd_class_driver_t const* driver = get_driver(i);
 1304              		.loc 1 508 25 view .LVU290
 1305 0028 3178     		ldrb	r1, [r6]	@ zero_extendqisi2
 1306 002a 2246     		mov	r2, r4
 1307 002c 09E0     		b	.L102
 1308              	.LVL67:
 1309              	.L112:
 1310              	.LBB391:
 1311              	.LBB387:
 1312              	.LBB383:
 317:lib/tinyusb/src/device/usbd.c ****   } else if ( drvid < TOTAL_DRIVER_COUNT && BUILTIN_DRIVER_COUNT > 0 ){
 1313              		.loc 1 317 12 view .LVU291
 1314 002e D8F80030 		ldr	r3, [r8]
 1315              	.LVL68:
 321:lib/tinyusb/src/device/usbd.c **** }
 1316              		.loc 1 321 3 is_stmt 1 view .LVU292
 321:lib/tinyusb/src/device/usbd.c **** }
 1317              		.loc 1 321 3 is_stmt 0 view .LVU293
 1318              	.LBE383:
 1319              	.LBE387:
 510:lib/tinyusb/src/device/usbd.c ****       TU_LOG_USBD("%s deinit\r\n", driver->name);
 1320              		.loc 1 510 5 is_stmt 1 view .LVU294
 510:lib/tinyusb/src/device/usbd.c ****       TU_LOG_USBD("%s deinit\r\n", driver->name);
 1321              		.loc 1 510 7 is_stmt 0 view .LVU295
 1322 0032 13EB4213 		adds	r3, r3, r2, lsl #5
 1323              	.LVL69:
 510:lib/tinyusb/src/device/usbd.c ****       TU_LOG_USBD("%s deinit\r\n", driver->name);
 1324              		.loc 1 510 7 view .LVU296
 1325 0036 09D1     		bne	.L100
 1326              	.LVL70:
 1327              	.L101:
 510:lib/tinyusb/src/device/usbd.c ****       TU_LOG_USBD("%s deinit\r\n", driver->name);
 1328              		.loc 1 510 7 view .LVU297
 1329              	.LBE391:
 508:lib/tinyusb/src/device/usbd.c ****     usbd_class_driver_t const* driver = get_driver(i);
 1330              		.loc 1 508 47 is_stmt 1 discriminator 2 view .LVU298
 508:lib/tinyusb/src/device/usbd.c ****     usbd_class_driver_t const* driver = get_driver(i);
 1331              		.loc 1 508 23 discriminator 2 view .LVU299
 508:lib/tinyusb/src/device/usbd.c ****     usbd_class_driver_t const* driver = get_driver(i);
 1332              		.loc 1 508 3 is_stmt 0 discriminator 2 view .LVU300
 1333 0038 0134     		adds	r4, r4, #1
 1334              	.LVL71:
 508:lib/tinyusb/src/device/usbd.c ****     usbd_class_driver_t const* driver = get_driver(i);
ARM GAS  /tmp/claude-502/ccKWrqGw.s 			page 56


 1335              		.loc 1 508 25 discriminator 2 view .LVU301
 1336 003a 3178     		ldrb	r1, [r6]	@ zero_extendqisi2
 508:lib/tinyusb/src/device/usbd.c ****     usbd_class_driver_t const* driver = get_driver(i);
 1337              		.loc 1 508 3 discriminator 2 view .LVU302
 1338 003c E2B2     		uxtb	r2, r4
 1339 003e 9142     		cmp	r1, r2
 1340 0040 0DD3     		bcc	.L111
 1341              	.L102:
 1342              	.LVL72:
 1343              	.LBB392:
 509:lib/tinyusb/src/device/usbd.c ****     if(driver && driver->deinit) {
 1344              		.loc 1 509 5 is_stmt 1 view .LVU303
 1345              	.LBB388:
 1346              	.LBI380:
 313:lib/tinyusb/src/device/usbd.c ****   usbd_class_driver_t const * driver = NULL;
 1347              		.loc 1 313 65 view .LVU304
 1348              	.LBB384:
 314:lib/tinyusb/src/device/usbd.c ****   if ( drvid < _app_driver_count ) {
 1349              		.loc 1 314 3 view .LVU305
 315:lib/tinyusb/src/device/usbd.c ****     // Application drivers
 1350              		.loc 1 315 3 view .LVU306
 317:lib/tinyusb/src/device/usbd.c ****   } else if ( drvid < TOTAL_DRIVER_COUNT && BUILTIN_DRIVER_COUNT > 0 ){
 1351              		.loc 1 317 5 view .LVU307
 318:lib/tinyusb/src/device/usbd.c ****     driver = &_usbd_driver[drvid - _app_driver_count];
 1352              		.loc 1 318 10 view .LVU308
 319:lib/tinyusb/src/device/usbd.c ****   }
 1353              		.loc 1 319 5 view .LVU309
 319:lib/tinyusb/src/device/usbd.c ****   }
 1354              		.loc 1 319 34 is_stmt 0 view .LVU310
 1355 0042 531A     		subs	r3, r2, r1
 315:lib/tinyusb/src/device/usbd.c ****     // Application drivers
 1356              		.loc 1 315 6 view .LVU311
 1357 0044 8A42     		cmp	r2, r1
 319:lib/tinyusb/src/device/usbd.c ****   }
 1358              		.loc 1 319 12 view .LVU312
 1359 0046 07EB4313 		add	r3, r7, r3, lsl #5
 1360              	.LVL73:
 321:lib/tinyusb/src/device/usbd.c **** }
 1361              		.loc 1 321 3 is_stmt 1 view .LVU313
 321:lib/tinyusb/src/device/usbd.c **** }
 1362              		.loc 1 321 3 is_stmt 0 view .LVU314
 1363              	.LBE384:
 1364              	.LBE388:
 510:lib/tinyusb/src/device/usbd.c ****       TU_LOG_USBD("%s deinit\r\n", driver->name);
 1365              		.loc 1 510 5 is_stmt 1 view .LVU315
 1366              	.LBB389:
 1367              	.LBB385:
 315:lib/tinyusb/src/device/usbd.c ****     // Application drivers
 1368              		.loc 1 315 6 is_stmt 0 view .LVU316
 1369 004a F0D3     		bcc	.L112
 1370              	.LVL74:
 1371              	.L100:
 315:lib/tinyusb/src/device/usbd.c ****     // Application drivers
 1372              		.loc 1 315 6 view .LVU317
 1373              	.LBE385:
 1374              	.LBE389:
 511:lib/tinyusb/src/device/usbd.c ****       driver->deinit();
ARM GAS  /tmp/claude-502/ccKWrqGw.s 			page 57


 1375              		.loc 1 511 49 is_stmt 1 discriminator 1 view .LVU318
 512:lib/tinyusb/src/device/usbd.c ****     }
 1376              		.loc 1 512 7 discriminator 1 view .LVU319
 510:lib/tinyusb/src/device/usbd.c ****       TU_LOG_USBD("%s deinit\r\n", driver->name);
 1377              		.loc 1 510 24 is_stmt 0 discriminator 1 view .LVU320
 1378 004c 9B68     		ldr	r3, [r3, #8]
 1379              	.LVL75:
 510:lib/tinyusb/src/device/usbd.c ****       TU_LOG_USBD("%s deinit\r\n", driver->name);
 1380              		.loc 1 510 15 discriminator 1 view .LVU321
 1381 004e 002B     		cmp	r3, #0
 1382 0050 F2D0     		beq	.L101
 1383              	.LBE392:
 508:lib/tinyusb/src/device/usbd.c ****     usbd_class_driver_t const* driver = get_driver(i);
 1384              		.loc 1 508 3 view .LVU322
 1385 0052 0134     		adds	r4, r4, #1
 1386              	.LVL76:
 1387              	.LBB393:
 512:lib/tinyusb/src/device/usbd.c ****     }
 1388              		.loc 1 512 7 view .LVU323
 1389 0054 9847     		blx	r3
 1390              	.LVL77:
 1391              	.LBE393:
 508:lib/tinyusb/src/device/usbd.c ****     usbd_class_driver_t const* driver = get_driver(i);
 1392              		.loc 1 508 47 is_stmt 1 view .LVU324
 508:lib/tinyusb/src/device/usbd.c ****     usbd_class_driver_t const* driver = get_driver(i);
 1393              		.loc 1 508 23 view .LVU325
 508:lib/tinyusb/src/device/usbd.c ****     usbd_class_driver_t const* driver = get_driver(i);
 1394              		.loc 1 508 25 is_stmt 0 view .LVU326
 1395 0056 3178     		ldrb	r1, [r6]	@ zero_extendqisi2
 508:lib/tinyusb/src/device/usbd.c ****     usbd_class_driver_t const* driver = get_driver(i);
 1396              		.loc 1 508 3 view .LVU327
 1397 0058 E2B2     		uxtb	r2, r4
 1398 005a 9142     		cmp	r1, r2
 1399 005c F1D2     		bcs	.L102
 1400              	.L111:
 508:lib/tinyusb/src/device/usbd.c ****     usbd_class_driver_t const* driver = get_driver(i);
 1401              		.loc 1 508 3 view .LVU328
 1402              	.LBE396:
 517:lib/tinyusb/src/device/usbd.c ****   _usbd_q = NULL;
 1403              		.loc 1 517 3 is_stmt 1 view .LVU329
 1404              	.LVL78:
 155:lib/tinyusb/src/osal/osal_none.h **** }
 156:lib/tinyusb/src/osal/osal_none.h **** 
 157:lib/tinyusb/src/osal/osal_none.h **** TU_ATTR_ALWAYS_INLINE static inline bool osal_queue_delete(osal_queue_t qhdl) {
 158:lib/tinyusb/src/osal/osal_none.h ****   (void) qhdl;
 1405              		.loc 2 158 3 view .LVU330
 159:lib/tinyusb/src/osal/osal_none.h ****   return true; // nothing to do
 1406              		.loc 2 159 3 view .LVU331
 518:lib/tinyusb/src/device/usbd.c **** 
 1407              		.loc 1 518 3 view .LVU332
 518:lib/tinyusb/src/device/usbd.c **** 
 1408              		.loc 1 518 11 is_stmt 0 view .LVU333
 1409 005e 074A     		ldr	r2, .L113+12
 1410 0060 0021     		movs	r1, #0
 526:lib/tinyusb/src/device/usbd.c **** 
 1411              		.loc 1 526 16 view .LVU334
 1412 0062 FF23     		movs	r3, #255
ARM GAS  /tmp/claude-502/ccKWrqGw.s 			page 58


 518:lib/tinyusb/src/device/usbd.c **** 
 1413              		.loc 1 518 11 view .LVU335
 1414 0064 1160     		str	r1, [r2]
 526:lib/tinyusb/src/device/usbd.c **** 
 1415              		.loc 1 526 3 is_stmt 1 view .LVU336
 526:lib/tinyusb/src/device/usbd.c **** 
 1416              		.loc 1 526 16 is_stmt 0 view .LVU337
 1417 0066 2B70     		strb	r3, [r5]
 528:lib/tinyusb/src/device/usbd.c **** }
 1418              		.loc 1 528 3 is_stmt 1 view .LVU338
 1419              	.L98:
 529:lib/tinyusb/src/device/usbd.c **** 
 1420              		.loc 1 529 1 is_stmt 0 view .LVU339
 1421 0068 0120     		movs	r0, #1
 1422 006a BDE8F081 		pop	{r4, r5, r6, r7, r8, pc}
 1423              	.L114:
 1424 006e 00BF     		.align	2
 1425              	.L113:
 1426 0070 00000000 		.word	.LANCHOR4
 1427 0074 00000000 		.word	.LANCHOR0
 1428 0078 00000000 		.word	.LANCHOR2
 1429 007c 00000000 		.word	.LANCHOR7
 1430 0080 00000000 		.word	.LANCHOR1
 1431              		.cfi_endproc
 1432              	.LFE440:
 1434              		.section	.text.tud_task_event_ready,"ax",%progbits
 1435              		.align	1
 1436              		.p2align 2,,3
 1437              		.global	tud_task_event_ready
 1438              		.syntax unified
 1439              		.thumb
 1440              		.thumb_func
 1442              	tud_task_event_ready:
 1443              	.LFB443:
 548:lib/tinyusb/src/device/usbd.c ****   // Skip if stack is not initialized
 1444              		.loc 1 548 33 is_stmt 1 view -0
 1445              		.cfi_startproc
 1446              		@ args = 0, pretend = 0, frame = 0
 1447              		@ frame_needed = 0, uses_anonymous_args = 0
 550:lib/tinyusb/src/device/usbd.c ****   return !osal_queue_empty(_usbd_q);
 1448              		.loc 1 550 3 view .LVU341
 1449              	.LBB397:
 1450              	.LBI397:
 447:lib/tinyusb/src/device/usbd.c ****   return _usbd_rhport != RHPORT_INVALID;
 1451              		.loc 1 447 6 view .LVU342
 1452              	.LBB398:
 448:lib/tinyusb/src/device/usbd.c **** }
 1453              		.loc 1 448 3 view .LVU343
 1454              	.LBE398:
 1455              	.LBE397:
 548:lib/tinyusb/src/device/usbd.c ****   // Skip if stack is not initialized
 1456              		.loc 1 548 33 is_stmt 0 view .LVU344
 1457 0000 08B5     		push	{r3, lr}
 1458              		.cfi_def_cfa_offset 8
 1459              		.cfi_offset 3, -8
 1460              		.cfi_offset 14, -4
 1461              	.LBB400:
ARM GAS  /tmp/claude-502/ccKWrqGw.s 			page 59


 1462              	.LBB399:
 448:lib/tinyusb/src/device/usbd.c **** }
 1463              		.loc 1 448 23 view .LVU345
 1464 0002 074B     		ldr	r3, .L119
 1465              	.LBE399:
 1466              	.LBE400:
 550:lib/tinyusb/src/device/usbd.c ****   return !osal_queue_empty(_usbd_q);
 1467              		.loc 1 550 6 view .LVU346
 1468 0004 1B78     		ldrb	r3, [r3]	@ zero_extendqisi2
 1469 0006 FF2B     		cmp	r3, #255
 1470 0008 08D0     		beq	.L117
 551:lib/tinyusb/src/device/usbd.c **** }
 1471              		.loc 1 551 3 is_stmt 1 view .LVU347
 1472              	.LVL79:
 1473              	.LBB401:
 1474              	.LBI401:
 160:lib/tinyusb/src/osal/osal_none.h **** }
 161:lib/tinyusb/src/osal/osal_none.h **** 
 162:lib/tinyusb/src/osal/osal_none.h **** TU_ATTR_ALWAYS_INLINE static inline bool osal_queue_receive(osal_queue_t qhdl, void* data, uint32_t
 163:lib/tinyusb/src/osal/osal_none.h ****   (void) msec; // not used, always behave as msec = 0
 164:lib/tinyusb/src/osal/osal_none.h **** 
 165:lib/tinyusb/src/osal/osal_none.h ****   _osal_q_lock(qhdl);
 166:lib/tinyusb/src/osal/osal_none.h ****   bool success = tu_fifo_read(&qhdl->ff, data);
 167:lib/tinyusb/src/osal/osal_none.h ****   _osal_q_unlock(qhdl);
 168:lib/tinyusb/src/osal/osal_none.h **** 
 169:lib/tinyusb/src/osal/osal_none.h ****   return success;
 170:lib/tinyusb/src/osal/osal_none.h **** }
 171:lib/tinyusb/src/osal/osal_none.h **** 
 172:lib/tinyusb/src/osal/osal_none.h **** TU_ATTR_ALWAYS_INLINE static inline bool osal_queue_send(osal_queue_t qhdl, void const* data, bool 
 173:lib/tinyusb/src/osal/osal_none.h ****   if (!in_isr) {
 174:lib/tinyusb/src/osal/osal_none.h ****     _osal_q_lock(qhdl);
 175:lib/tinyusb/src/osal/osal_none.h ****   }
 176:lib/tinyusb/src/osal/osal_none.h **** 
 177:lib/tinyusb/src/osal/osal_none.h ****   bool success = tu_fifo_write(&qhdl->ff, data);
 178:lib/tinyusb/src/osal/osal_none.h **** 
 179:lib/tinyusb/src/osal/osal_none.h ****   if (!in_isr) {
 180:lib/tinyusb/src/osal/osal_none.h ****     _osal_q_unlock(qhdl);
 181:lib/tinyusb/src/osal/osal_none.h ****   }
 182:lib/tinyusb/src/osal/osal_none.h **** 
 183:lib/tinyusb/src/osal/osal_none.h ****   return success;
 184:lib/tinyusb/src/osal/osal_none.h **** }
 185:lib/tinyusb/src/osal/osal_none.h **** 
 186:lib/tinyusb/src/osal/osal_none.h **** TU_ATTR_ALWAYS_INLINE static inline bool osal_queue_empty(osal_queue_t qhdl) {
 1475              		.loc 2 186 42 view .LVU348
 1476              	.LBB402:
 187:lib/tinyusb/src/osal/osal_none.h ****   // Skip queue lock/unlock since this function is primarily called
 188:lib/tinyusb/src/osal/osal_none.h ****   // with interrupt disabled before going into low power mode
 189:lib/tinyusb/src/osal/osal_none.h ****   return tu_fifo_empty(&qhdl->ff);
 1477              		.loc 2 189 3 view .LVU349
 1478              	.LBE402:
 1479              	.LBE401:
 551:lib/tinyusb/src/device/usbd.c **** }
 1480              		.loc 1 551 11 is_stmt 0 view .LVU350
 1481 000a 064B     		ldr	r3, .L119+4
 1482              	.LBB404:
 1483              	.LBB403:
 1484              		.loc 2 189 10 view .LVU351
ARM GAS  /tmp/claude-502/ccKWrqGw.s 			page 60


 1485 000c 1868     		ldr	r0, [r3]
 1486 000e 0430     		adds	r0, r0, #4
 1487 0010 FFF7FEFF 		bl	tu_fifo_empty
 1488              	.LVL80:
 1489              		.loc 2 189 10 view .LVU352
 1490              	.LBE403:
 1491              	.LBE404:
 551:lib/tinyusb/src/device/usbd.c **** }
 1492              		.loc 1 551 3 view .LVU353
 1493 0014 80F00100 		eor	r0, r0, #1
 1494 0018 C0B2     		uxtb	r0, r0
 552:lib/tinyusb/src/device/usbd.c **** 
 1495              		.loc 1 552 1 view .LVU354
 1496 001a 08BD     		pop	{r3, pc}
 1497              	.L117:
 550:lib/tinyusb/src/device/usbd.c ****   return !osal_queue_empty(_usbd_q);
 1498              		.loc 1 550 29 view .LVU355
 1499 001c 0020     		movs	r0, #0
 552:lib/tinyusb/src/device/usbd.c **** 
 1500              		.loc 1 552 1 view .LVU356
 1501 001e 08BD     		pop	{r3, pc}
 1502              	.L120:
 1503              		.align	2
 1504              	.L119:
 1505 0020 00000000 		.word	.LANCHOR4
 1506 0024 00000000 		.word	.LANCHOR7
 1507              		.cfi_endproc
 1508              	.LFE443:
 1510              		.section	.text.tud_task_ext,"ax",%progbits
 1511              		.align	1
 1512              		.p2align 2,,3
 1513              		.global	tud_task_ext
 1514              		.syntax unified
 1515              		.thumb
 1516              		.thumb_func
 1518              	tud_task_ext:
 1519              	.LVL81:
 1520              	.LFB444:
 568:lib/tinyusb/src/device/usbd.c ****   (void) in_isr; // not implemented yet
 1521              		.loc 1 568 53 is_stmt 1 view -0
 1522              		.cfi_startproc
 1523              		@ args = 0, pretend = 0, frame = 40
 1524              		@ frame_needed = 0, uses_anonymous_args = 0
 569:lib/tinyusb/src/device/usbd.c **** 
 1525              		.loc 1 569 3 view .LVU358
 572:lib/tinyusb/src/device/usbd.c **** 
 1526              		.loc 1 572 3 view .LVU359
 1527              	.LBB528:
 1528              	.LBI528:
 447:lib/tinyusb/src/device/usbd.c ****   return _usbd_rhport != RHPORT_INVALID;
 1529              		.loc 1 447 6 view .LVU360
 1530              	.LBB529:
 448:lib/tinyusb/src/device/usbd.c **** }
 1531              		.loc 1 448 3 view .LVU361
 1532              	.LBE529:
 1533              	.LBE528:
 568:lib/tinyusb/src/device/usbd.c ****   (void) in_isr; // not implemented yet
ARM GAS  /tmp/claude-502/ccKWrqGw.s 			page 61


 1534              		.loc 1 568 53 is_stmt 0 view .LVU362
 1535 0000 2DE9F04F 		push	{r4, r5, r6, r7, r8, r9, r10, fp, lr}
 1536              		.cfi_def_cfa_offset 36
 1537              		.cfi_offset 4, -36
 1538              		.cfi_offset 5, -32
 1539              		.cfi_offset 6, -28
 1540              		.cfi_offset 7, -24
 1541              		.cfi_offset 8, -20
 1542              		.cfi_offset 9, -16
 1543              		.cfi_offset 10, -12
 1544              		.cfi_offset 11, -8
 1545              		.cfi_offset 14, -4
 1546              	.LBB531:
 1547              	.LBB530:
 448:lib/tinyusb/src/device/usbd.c **** }
 1548              		.loc 1 448 23 view .LVU363
 1549 0004 DFF8FC92 		ldr	r9, .L356+20
 1550              	.LBE530:
 1551              	.LBE531:
 568:lib/tinyusb/src/device/usbd.c ****   (void) in_isr; // not implemented yet
 1552              		.loc 1 568 53 view .LVU364
 1553 0008 8BB0     		sub	sp, sp, #44
 1554              		.cfi_def_cfa_offset 80
 572:lib/tinyusb/src/device/usbd.c **** 
 1555              		.loc 1 572 6 view .LVU365
 1556 000a 99F80030 		ldrb	r3, [r9]	@ zero_extendqisi2
 1557 000e FF2B     		cmp	r3, #255
 1558 0010 00F0DE80 		beq	.L121
 1559 0014 B64C     		ldr	r4, .L356
 1560              	.LBB532:
 1561              	.LBB533:
 1562              	.LBB534:
 1563              	.LBB535:
 1564              	.LBB536:
 319:lib/tinyusb/src/device/usbd.c ****   }
 1565              		.loc 1 319 12 view .LVU366
 1566 0016 DFF8F0A2 		ldr	r10, .L356+24
 317:lib/tinyusb/src/device/usbd.c ****   } else if ( drvid < TOTAL_DRIVER_COUNT && BUILTIN_DRIVER_COUNT > 0 ){
 1567              		.loc 1 317 14 view .LVU367
 1568 001a DFF8F0B2 		ldr	fp, .L356+28
 1569              	.LVL82:
 1570              	.L212:
 317:lib/tinyusb/src/device/usbd.c ****   } else if ( drvid < TOTAL_DRIVER_COUNT && BUILTIN_DRIVER_COUNT > 0 ){
 1571              		.loc 1 317 14 view .LVU368
 1572              	.LBE536:
 1573              	.LBE535:
 1574              	.LBE534:
 1575              	.LBE533:
 1576              	.LBE532:
 575:lib/tinyusb/src/device/usbd.c ****     dcd_event_t event;
 1577              		.loc 1 575 3 is_stmt 1 view .LVU369
 1578              	.LBB765:
 576:lib/tinyusb/src/device/usbd.c ****     if (!osal_queue_receive(_usbd_q, &event, timeout_ms)) return;
 1579              		.loc 1 576 5 view .LVU370
 577:lib/tinyusb/src/device/usbd.c **** 
 1580              		.loc 1 577 5 view .LVU371
 577:lib/tinyusb/src/device/usbd.c **** 
ARM GAS  /tmp/claude-502/ccKWrqGw.s 			page 62


 1581              		.loc 1 577 10 is_stmt 0 view .LVU372
 1582 001e 2668     		ldr	r6, [r4]
 1583              	.LVL83:
 1584              	.LBB555:
 1585              	.LBI555:
 162:lib/tinyusb/src/osal/osal_none.h ****   (void) msec; // not used, always behave as msec = 0
 1586              		.loc 2 162 42 is_stmt 1 view .LVU373
 1587              	.LBB556:
 163:lib/tinyusb/src/osal/osal_none.h **** 
 1588              		.loc 2 163 3 view .LVU374
 165:lib/tinyusb/src/osal/osal_none.h ****   bool success = tu_fifo_read(&qhdl->ff, data);
 1589              		.loc 2 165 3 view .LVU375
 1590              	.LBB557:
 1591              	.LBI557:
 141:lib/tinyusb/src/osal/osal_none.h ****   // disable dcd/hcd interrupt
 1592              		.loc 2 141 42 view .LVU376
 1593              	.LBB558:
 143:lib/tinyusb/src/osal/osal_none.h **** }
 1594              		.loc 2 143 3 view .LVU377
 1595 0020 0020     		movs	r0, #0
 1596 0022 3546     		mov	r5, r6
 1597 0024 55F8043B 		ldr	r3, [r5], #4
 1598 0028 9847     		blx	r3
 1599              	.LVL84:
 143:lib/tinyusb/src/osal/osal_none.h **** }
 1600              		.loc 2 143 3 is_stmt 0 view .LVU378
 1601              	.LBE558:
 1602              	.LBE557:
 166:lib/tinyusb/src/osal/osal_none.h ****   _osal_q_unlock(qhdl);
 1603              		.loc 2 166 3 is_stmt 1 view .LVU379
 166:lib/tinyusb/src/osal/osal_none.h ****   _osal_q_unlock(qhdl);
 1604              		.loc 2 166 18 is_stmt 0 view .LVU380
 1605 002a 07A9     		add	r1, sp, #28
 1606              	.LVL85:
 166:lib/tinyusb/src/osal/osal_none.h ****   _osal_q_unlock(qhdl);
 1607              		.loc 2 166 18 view .LVU381
 1608 002c 2846     		mov	r0, r5
 1609 002e FFF7FEFF 		bl	tu_fifo_read
 1610              	.LVL86:
 166:lib/tinyusb/src/osal/osal_none.h ****   _osal_q_unlock(qhdl);
 1611              		.loc 2 166 18 view .LVU382
 1612 0032 0546     		mov	r5, r0
 1613              	.LBB559:
 1614              	.LBB560:
 149:lib/tinyusb/src/osal/osal_none.h **** }
 1615              		.loc 2 149 3 view .LVU383
 1616 0034 3368     		ldr	r3, [r6]
 1617 0036 0120     		movs	r0, #1
 1618              	.LVL87:
 149:lib/tinyusb/src/osal/osal_none.h **** }
 1619              		.loc 2 149 3 view .LVU384
 1620              	.LBE560:
 1621              	.LBE559:
 167:lib/tinyusb/src/osal/osal_none.h **** 
 1622              		.loc 2 167 3 is_stmt 1 view .LVU385
 1623              	.LBB562:
 1624              	.LBI559:
ARM GAS  /tmp/claude-502/ccKWrqGw.s 			page 63


 147:lib/tinyusb/src/osal/osal_none.h ****   // enable dcd/hcd interrupt
 1625              		.loc 2 147 42 view .LVU386
 1626              	.LBB561:
 149:lib/tinyusb/src/osal/osal_none.h **** }
 1627              		.loc 2 149 3 view .LVU387
 1628 0038 9847     		blx	r3
 1629              	.LVL88:
 149:lib/tinyusb/src/osal/osal_none.h **** }
 1630              		.loc 2 149 3 is_stmt 0 view .LVU388
 1631              	.LBE561:
 1632              	.LBE562:
 169:lib/tinyusb/src/osal/osal_none.h **** }
 1633              		.loc 2 169 3 is_stmt 1 view .LVU389
 169:lib/tinyusb/src/osal/osal_none.h **** }
 1634              		.loc 2 169 3 is_stmt 0 view .LVU390
 1635              	.LBE556:
 1636              	.LBE555:
 577:lib/tinyusb/src/device/usbd.c **** 
 1637              		.loc 1 577 8 view .LVU391
 1638 003a 002D     		cmp	r5, #0
 1639 003c 00F0C880 		beq	.L121
 584:lib/tinyusb/src/device/usbd.c ****       case DCD_EVENT_BUS_RESET:
 1640              		.loc 1 584 5 is_stmt 1 view .LVU392
 1641 0040 9DF81D30 		ldrb	r3, [sp, #29]	@ zero_extendqisi2
 1642 0044 013B     		subs	r3, r3, #1
 1643 0046 072B     		cmp	r3, #7
 1644 0048 00F28183 		bhi	.L124
 1645 004c DFE803F0 		tbb	[pc, r3]
 1646              	.L126:
 1647 0050 A4       		.byte	(.L133-.L126)/2
 1648 0051 AF       		.byte	(.L132-.L126)/2
 1649 0052 90       		.byte	(.L131-.L126)/2
 1650 0053 99       		.byte	(.L130-.L126)/2
 1651 0054 88       		.byte	(.L129-.L126)/2
 1652 0055 36       		.byte	(.L128-.L126)/2
 1653 0056 0A       		.byte	(.L127-.L126)/2
 1654 0057 04       		.byte	(.L125-.L126)/2
 1655              		.p2align 1
 1656              	.L125:
 671:lib/tinyusb/src/device/usbd.c ****         if (event.func_call.func) event.func_call.func(event.func_call.param);
 1657              		.loc 1 671 28 view .LVU393
 672:lib/tinyusb/src/device/usbd.c ****         break;
 1658              		.loc 1 672 9 view .LVU394
 672:lib/tinyusb/src/device/usbd.c ****         break;
 1659              		.loc 1 672 28 is_stmt 0 view .LVU395
 1660 0058 089B     		ldr	r3, [sp, #32]
 672:lib/tinyusb/src/device/usbd.c ****         break;
 1661              		.loc 1 672 12 view .LVU396
 1662 005a 002B     		cmp	r3, #0
 1663 005c DFD0     		beq	.L212
 672:lib/tinyusb/src/device/usbd.c ****         break;
 1664              		.loc 1 672 35 is_stmt 1 discriminator 1 view .LVU397
 1665 005e 0998     		ldr	r0, [sp, #36]
 1666 0060 9847     		blx	r3
 1667              	.LVL89:
 1668 0062 DCE7     		b	.L212
 1669              	.L127:
ARM GAS  /tmp/claude-502/ccKWrqGw.s 			page 64


 1670              	.LBB563:
 627:lib/tinyusb/src/device/usbd.c ****         uint8_t const epnum = tu_edpt_number(ep_addr);
 1671              		.loc 1 627 9 view .LVU398
 627:lib/tinyusb/src/device/usbd.c ****         uint8_t const epnum = tu_edpt_number(ep_addr);
 1672              		.loc 1 627 23 is_stmt 0 view .LVU399
 1673 0064 9DF82010 		ldrb	r1, [sp, #32]	@ zero_extendqisi2
 1674              	.LVL90:
 628:lib/tinyusb/src/device/usbd.c ****         uint8_t const ep_dir = tu_edpt_dir(ep_addr);
 1675              		.loc 1 628 9 is_stmt 1 view .LVU400
 1676              	.LBB546:
 1677              	.LBI546:
 1678              		.file 3 "lib/tinyusb/src/common/tusb_types.h"
   1:lib/tinyusb/src/common/tusb_types.h **** /*
   2:lib/tinyusb/src/common/tusb_types.h ****  * The MIT License (MIT)
   3:lib/tinyusb/src/common/tusb_types.h ****  *
   4:lib/tinyusb/src/common/tusb_types.h ****  * Copyright (c) 2019 Ha Thach (tinyusb.org)
   5:lib/tinyusb/src/common/tusb_types.h ****  *
   6:lib/tinyusb/src/common/tusb_types.h ****  * Permission is hereby granted, free of charge, to any person obtaining a copy
   7:lib/tinyusb/src/common/tusb_types.h ****  * of this software and associated documentation files (the "Software"), to deal
   8:lib/tinyusb/src/common/tusb_types.h ****  * in the Software without restriction, including without limitation the rights
   9:lib/tinyusb/src/common/tusb_types.h ****  * to use, copy, modify, merge, publish, distribute, sublicense, and/or sell
  10:lib/tinyusb/src/common/tusb_types.h ****  * copies of the Software, and to permit persons to whom the Software is
  11:lib/tinyusb/src/common/tusb_types.h ****  * furnished to do so, subject to the following conditions:
  12:lib/tinyusb/src/common/tusb_types.h ****  *
  13:lib/tinyusb/src/common/tusb_types.h ****  * The above copyright notice and this permission notice shall be included in
  14:lib/tinyusb/src/common/tusb_types.h ****  * all copies or substantial portions of the Software.
  15:lib/tinyusb/src/common/tusb_types.h ****  *
  16:lib/tinyusb/src/common/tusb_types.h ****  * THE SOFTWARE IS PROVIDED "AS IS", WITHOUT WARRANTY OF ANY KIND, EXPRESS OR
  17:lib/tinyusb/src/common/tusb_types.h ****  * IMPLIED, INCLUDING BUT NOT LIMITED TO THE WARRANTIES OF MERCHANTABILITY,
  18:lib/tinyusb/src/common/tusb_types.h ****  * FITNESS FOR A PARTICULAR PURPOSE AND NONINFRINGEMENT. IN NO EVENT SHALL THE
  19:lib/tinyusb/src/common/tusb_types.h ****  * AUTHORS OR COPYRIGHT HOLDERS BE LIABLE FOR ANY CLAIM, DAMAGES OR OTHER
  20:lib/tinyusb/src/common/tusb_types.h ****  * LIABILITY, WHETHER IN AN ACTION OF CONTRACT, TORT OR OTHERWISE, ARISING FROM,
  21:lib/tinyusb/src/common/tusb_types.h ****  * OUT OF OR IN CONNECTION WITH THE SOFTWARE OR THE USE OR OTHER DEALINGS IN
  22:lib/tinyusb/src/common/tusb_types.h ****  * THE SOFTWARE.
  23:lib/tinyusb/src/common/tusb_types.h ****  *
  24:lib/tinyusb/src/common/tusb_types.h ****  * This file is part of the TinyUSB stack.
  25:lib/tinyusb/src/common/tusb_types.h ****  */
  26:lib/tinyusb/src/common/tusb_types.h **** 
  27:lib/tinyusb/src/common/tusb_types.h **** #ifndef TUSB_TYPES_H_
  28:lib/tinyusb/src/common/tusb_types.h **** #define TUSB_TYPES_H_
  29:lib/tinyusb/src/common/tusb_types.h **** 
  30:lib/tinyusb/src/common/tusb_types.h **** #include <stdbool.h>
  31:lib/tinyusb/src/common/tusb_types.h **** #include <stdint.h>
  32:lib/tinyusb/src/common/tusb_types.h **** #include "tusb_compiler.h"
  33:lib/tinyusb/src/common/tusb_types.h **** 
  34:lib/tinyusb/src/common/tusb_types.h **** #ifdef __cplusplus
  35:lib/tinyusb/src/common/tusb_types.h ****  extern "C" {
  36:lib/tinyusb/src/common/tusb_types.h **** #endif
  37:lib/tinyusb/src/common/tusb_types.h **** 
  38:lib/tinyusb/src/common/tusb_types.h **** /*------------------------------------------------------------------*/
  39:lib/tinyusb/src/common/tusb_types.h **** /* CONSTANTS
  40:lib/tinyusb/src/common/tusb_types.h ****  *------------------------------------------------------------------*/
  41:lib/tinyusb/src/common/tusb_types.h **** 
  42:lib/tinyusb/src/common/tusb_types.h **** /// defined base on EHCI specs value for Endpoint Speed
  43:lib/tinyusb/src/common/tusb_types.h **** typedef enum {
  44:lib/tinyusb/src/common/tusb_types.h ****   TUSB_SPEED_FULL = 0,
  45:lib/tinyusb/src/common/tusb_types.h ****   TUSB_SPEED_LOW  = 1,
ARM GAS  /tmp/claude-502/ccKWrqGw.s 			page 65


  46:lib/tinyusb/src/common/tusb_types.h ****   TUSB_SPEED_HIGH = 2,
  47:lib/tinyusb/src/common/tusb_types.h ****   TUSB_SPEED_INVALID = 0xff,
  48:lib/tinyusb/src/common/tusb_types.h **** } tusb_speed_t;
  49:lib/tinyusb/src/common/tusb_types.h **** 
  50:lib/tinyusb/src/common/tusb_types.h **** /// defined base on USB Specs Endpoint's bmAttributes
  51:lib/tinyusb/src/common/tusb_types.h **** typedef enum {
  52:lib/tinyusb/src/common/tusb_types.h ****   TUSB_XFER_CONTROL = 0 ,
  53:lib/tinyusb/src/common/tusb_types.h ****   TUSB_XFER_ISOCHRONOUS ,
  54:lib/tinyusb/src/common/tusb_types.h ****   TUSB_XFER_BULK        ,
  55:lib/tinyusb/src/common/tusb_types.h ****   TUSB_XFER_INTERRUPT
  56:lib/tinyusb/src/common/tusb_types.h **** } tusb_xfer_type_t;
  57:lib/tinyusb/src/common/tusb_types.h **** 
  58:lib/tinyusb/src/common/tusb_types.h **** typedef enum {
  59:lib/tinyusb/src/common/tusb_types.h ****   TUSB_DIR_OUT = 0,
  60:lib/tinyusb/src/common/tusb_types.h ****   TUSB_DIR_IN  = 1,
  61:lib/tinyusb/src/common/tusb_types.h **** 
  62:lib/tinyusb/src/common/tusb_types.h ****   TUSB_DIR_IN_MASK = 0x80
  63:lib/tinyusb/src/common/tusb_types.h **** } tusb_dir_t;
  64:lib/tinyusb/src/common/tusb_types.h **** 
  65:lib/tinyusb/src/common/tusb_types.h **** enum {
  66:lib/tinyusb/src/common/tusb_types.h ****   TUSB_EPSIZE_BULK_FS = 64,
  67:lib/tinyusb/src/common/tusb_types.h ****   TUSB_EPSIZE_BULK_HS = 512,
  68:lib/tinyusb/src/common/tusb_types.h **** 
  69:lib/tinyusb/src/common/tusb_types.h ****   TUSB_EPSIZE_ISO_FS_MAX = 1023,
  70:lib/tinyusb/src/common/tusb_types.h ****   TUSB_EPSIZE_ISO_HS_MAX = 1024,
  71:lib/tinyusb/src/common/tusb_types.h **** };
  72:lib/tinyusb/src/common/tusb_types.h **** 
  73:lib/tinyusb/src/common/tusb_types.h **** /// Isochronous Endpoint Attributes
  74:lib/tinyusb/src/common/tusb_types.h **** typedef enum {
  75:lib/tinyusb/src/common/tusb_types.h ****   TUSB_ISO_EP_ATT_NO_SYNC         = 0x00,
  76:lib/tinyusb/src/common/tusb_types.h ****   TUSB_ISO_EP_ATT_ASYNCHRONOUS    = 0x04,
  77:lib/tinyusb/src/common/tusb_types.h ****   TUSB_ISO_EP_ATT_ADAPTIVE        = 0x08,
  78:lib/tinyusb/src/common/tusb_types.h ****   TUSB_ISO_EP_ATT_SYNCHRONOUS     = 0x0C,
  79:lib/tinyusb/src/common/tusb_types.h ****   TUSB_ISO_EP_ATT_DATA            = 0x00, ///< Data End Point
  80:lib/tinyusb/src/common/tusb_types.h ****   TUSB_ISO_EP_ATT_EXPLICIT_FB     = 0x10, ///< Feedback End Point
  81:lib/tinyusb/src/common/tusb_types.h ****   TUSB_ISO_EP_ATT_IMPLICIT_FB     = 0x20, ///< Data endpoint that also serves as an implicit feedba
  82:lib/tinyusb/src/common/tusb_types.h **** } tusb_iso_ep_attribute_t;
  83:lib/tinyusb/src/common/tusb_types.h **** 
  84:lib/tinyusb/src/common/tusb_types.h **** /// USB Descriptor Types
  85:lib/tinyusb/src/common/tusb_types.h **** typedef enum {
  86:lib/tinyusb/src/common/tusb_types.h ****   TUSB_DESC_DEVICE                = 0x01,
  87:lib/tinyusb/src/common/tusb_types.h ****   TUSB_DESC_CONFIGURATION         = 0x02,
  88:lib/tinyusb/src/common/tusb_types.h ****   TUSB_DESC_STRING                = 0x03,
  89:lib/tinyusb/src/common/tusb_types.h ****   TUSB_DESC_INTERFACE             = 0x04,
  90:lib/tinyusb/src/common/tusb_types.h ****   TUSB_DESC_ENDPOINT              = 0x05,
  91:lib/tinyusb/src/common/tusb_types.h ****   TUSB_DESC_DEVICE_QUALIFIER      = 0x06,
  92:lib/tinyusb/src/common/tusb_types.h ****   TUSB_DESC_OTHER_SPEED_CONFIG    = 0x07,
  93:lib/tinyusb/src/common/tusb_types.h ****   TUSB_DESC_INTERFACE_POWER       = 0x08,
  94:lib/tinyusb/src/common/tusb_types.h ****   TUSB_DESC_OTG                   = 0x09,
  95:lib/tinyusb/src/common/tusb_types.h ****   TUSB_DESC_DEBUG                 = 0x0A,
  96:lib/tinyusb/src/common/tusb_types.h ****   TUSB_DESC_INTERFACE_ASSOCIATION = 0x0B,
  97:lib/tinyusb/src/common/tusb_types.h **** 
  98:lib/tinyusb/src/common/tusb_types.h ****   TUSB_DESC_BOS                   = 0x0F,
  99:lib/tinyusb/src/common/tusb_types.h ****   TUSB_DESC_DEVICE_CAPABILITY     = 0x10,
 100:lib/tinyusb/src/common/tusb_types.h **** 
 101:lib/tinyusb/src/common/tusb_types.h ****   TUSB_DESC_FUNCTIONAL            = 0x21,
 102:lib/tinyusb/src/common/tusb_types.h **** 
ARM GAS  /tmp/claude-502/ccKWrqGw.s 			page 66


 103:lib/tinyusb/src/common/tusb_types.h ****   // Class Specific Descriptor
 104:lib/tinyusb/src/common/tusb_types.h ****   TUSB_DESC_CS_DEVICE             = 0x21,
 105:lib/tinyusb/src/common/tusb_types.h ****   TUSB_DESC_CS_CONFIGURATION      = 0x22,
 106:lib/tinyusb/src/common/tusb_types.h ****   TUSB_DESC_CS_STRING             = 0x23,
 107:lib/tinyusb/src/common/tusb_types.h ****   TUSB_DESC_CS_INTERFACE          = 0x24,
 108:lib/tinyusb/src/common/tusb_types.h ****   TUSB_DESC_CS_ENDPOINT           = 0x25,
 109:lib/tinyusb/src/common/tusb_types.h **** 
 110:lib/tinyusb/src/common/tusb_types.h ****   TUSB_DESC_SUPERSPEED_ENDPOINT_COMPANION     = 0x30,
 111:lib/tinyusb/src/common/tusb_types.h ****   TUSB_DESC_SUPERSPEED_ISO_ENDPOINT_COMPANION = 0x31
 112:lib/tinyusb/src/common/tusb_types.h **** } tusb_desc_type_t;
 113:lib/tinyusb/src/common/tusb_types.h **** 
 114:lib/tinyusb/src/common/tusb_types.h **** typedef enum {
 115:lib/tinyusb/src/common/tusb_types.h ****   TUSB_REQ_GET_STATUS        = 0  ,
 116:lib/tinyusb/src/common/tusb_types.h ****   TUSB_REQ_CLEAR_FEATURE     = 1  ,
 117:lib/tinyusb/src/common/tusb_types.h ****   TUSB_REQ_RESERVED          = 2  ,
 118:lib/tinyusb/src/common/tusb_types.h ****   TUSB_REQ_SET_FEATURE       = 3  ,
 119:lib/tinyusb/src/common/tusb_types.h ****   TUSB_REQ_RESERVED2         = 4  ,
 120:lib/tinyusb/src/common/tusb_types.h ****   TUSB_REQ_SET_ADDRESS       = 5  ,
 121:lib/tinyusb/src/common/tusb_types.h ****   TUSB_REQ_GET_DESCRIPTOR    = 6  ,
 122:lib/tinyusb/src/common/tusb_types.h ****   TUSB_REQ_SET_DESCRIPTOR    = 7  ,
 123:lib/tinyusb/src/common/tusb_types.h ****   TUSB_REQ_GET_CONFIGURATION = 8  ,
 124:lib/tinyusb/src/common/tusb_types.h ****   TUSB_REQ_SET_CONFIGURATION = 9  ,
 125:lib/tinyusb/src/common/tusb_types.h ****   TUSB_REQ_GET_INTERFACE     = 10 ,
 126:lib/tinyusb/src/common/tusb_types.h ****   TUSB_REQ_SET_INTERFACE     = 11 ,
 127:lib/tinyusb/src/common/tusb_types.h ****   TUSB_REQ_SYNCH_FRAME       = 12
 128:lib/tinyusb/src/common/tusb_types.h **** } tusb_request_code_t;
 129:lib/tinyusb/src/common/tusb_types.h **** 
 130:lib/tinyusb/src/common/tusb_types.h **** typedef enum {
 131:lib/tinyusb/src/common/tusb_types.h ****   TUSB_REQ_FEATURE_EDPT_HALT     = 0,
 132:lib/tinyusb/src/common/tusb_types.h ****   TUSB_REQ_FEATURE_REMOTE_WAKEUP = 1,
 133:lib/tinyusb/src/common/tusb_types.h ****   TUSB_REQ_FEATURE_TEST_MODE     = 2
 134:lib/tinyusb/src/common/tusb_types.h **** } tusb_request_feature_selector_t;
 135:lib/tinyusb/src/common/tusb_types.h **** 
 136:lib/tinyusb/src/common/tusb_types.h **** typedef enum {
 137:lib/tinyusb/src/common/tusb_types.h ****   TUSB_REQ_TYPE_STANDARD = 0,
 138:lib/tinyusb/src/common/tusb_types.h ****   TUSB_REQ_TYPE_CLASS,
 139:lib/tinyusb/src/common/tusb_types.h ****   TUSB_REQ_TYPE_VENDOR,
 140:lib/tinyusb/src/common/tusb_types.h ****   TUSB_REQ_TYPE_INVALID
 141:lib/tinyusb/src/common/tusb_types.h **** } tusb_request_type_t;
 142:lib/tinyusb/src/common/tusb_types.h **** 
 143:lib/tinyusb/src/common/tusb_types.h **** typedef enum {
 144:lib/tinyusb/src/common/tusb_types.h ****   TUSB_REQ_RCPT_DEVICE =0,
 145:lib/tinyusb/src/common/tusb_types.h ****   TUSB_REQ_RCPT_INTERFACE,
 146:lib/tinyusb/src/common/tusb_types.h ****   TUSB_REQ_RCPT_ENDPOINT,
 147:lib/tinyusb/src/common/tusb_types.h ****   TUSB_REQ_RCPT_OTHER
 148:lib/tinyusb/src/common/tusb_types.h **** } tusb_request_recipient_t;
 149:lib/tinyusb/src/common/tusb_types.h **** 
 150:lib/tinyusb/src/common/tusb_types.h **** // https://www.usb.org/defined-class-codes
 151:lib/tinyusb/src/common/tusb_types.h **** typedef enum {
 152:lib/tinyusb/src/common/tusb_types.h ****   TUSB_CLASS_UNSPECIFIED          = 0    ,
 153:lib/tinyusb/src/common/tusb_types.h ****   TUSB_CLASS_AUDIO                = 1    ,
 154:lib/tinyusb/src/common/tusb_types.h ****   TUSB_CLASS_CDC                  = 2    ,
 155:lib/tinyusb/src/common/tusb_types.h ****   TUSB_CLASS_HID                  = 3    ,
 156:lib/tinyusb/src/common/tusb_types.h ****   TUSB_CLASS_RESERVED_4           = 4    ,
 157:lib/tinyusb/src/common/tusb_types.h ****   TUSB_CLASS_PHYSICAL             = 5    ,
 158:lib/tinyusb/src/common/tusb_types.h ****   TUSB_CLASS_IMAGE                = 6    ,
 159:lib/tinyusb/src/common/tusb_types.h ****   TUSB_CLASS_PRINTER              = 7    ,
ARM GAS  /tmp/claude-502/ccKWrqGw.s 			page 67


 160:lib/tinyusb/src/common/tusb_types.h ****   TUSB_CLASS_MSC                  = 8    ,
 161:lib/tinyusb/src/common/tusb_types.h ****   TUSB_CLASS_HUB                  = 9    ,
 162:lib/tinyusb/src/common/tusb_types.h ****   TUSB_CLASS_CDC_DATA             = 10   ,
 163:lib/tinyusb/src/common/tusb_types.h ****   TUSB_CLASS_SMART_CARD           = 11   ,
 164:lib/tinyusb/src/common/tusb_types.h ****   TUSB_CLASS_RESERVED_12          = 12   ,
 165:lib/tinyusb/src/common/tusb_types.h ****   TUSB_CLASS_CONTENT_SECURITY     = 13   ,
 166:lib/tinyusb/src/common/tusb_types.h ****   TUSB_CLASS_VIDEO                = 14   ,
 167:lib/tinyusb/src/common/tusb_types.h ****   TUSB_CLASS_PERSONAL_HEALTHCARE  = 15   ,
 168:lib/tinyusb/src/common/tusb_types.h ****   TUSB_CLASS_AUDIO_VIDEO          = 16   ,
 169:lib/tinyusb/src/common/tusb_types.h **** 
 170:lib/tinyusb/src/common/tusb_types.h ****   TUSB_CLASS_DIAGNOSTIC           = 0xDC ,
 171:lib/tinyusb/src/common/tusb_types.h ****   TUSB_CLASS_WIRELESS_CONTROLLER  = 0xE0 ,
 172:lib/tinyusb/src/common/tusb_types.h ****   TUSB_CLASS_MISC                 = 0xEF ,
 173:lib/tinyusb/src/common/tusb_types.h ****   TUSB_CLASS_APPLICATION_SPECIFIC = 0xFE ,
 174:lib/tinyusb/src/common/tusb_types.h ****   TUSB_CLASS_VENDOR_SPECIFIC      = 0xFF
 175:lib/tinyusb/src/common/tusb_types.h **** } tusb_class_code_t;
 176:lib/tinyusb/src/common/tusb_types.h **** 
 177:lib/tinyusb/src/common/tusb_types.h **** typedef enum
 178:lib/tinyusb/src/common/tusb_types.h **** {
 179:lib/tinyusb/src/common/tusb_types.h ****   MISC_SUBCLASS_COMMON = 2
 180:lib/tinyusb/src/common/tusb_types.h **** }misc_subclass_type_t;
 181:lib/tinyusb/src/common/tusb_types.h **** 
 182:lib/tinyusb/src/common/tusb_types.h **** typedef enum {
 183:lib/tinyusb/src/common/tusb_types.h ****   MISC_PROTOCOL_IAD = 1
 184:lib/tinyusb/src/common/tusb_types.h **** } misc_protocol_type_t;
 185:lib/tinyusb/src/common/tusb_types.h **** 
 186:lib/tinyusb/src/common/tusb_types.h **** typedef enum {
 187:lib/tinyusb/src/common/tusb_types.h ****   APP_SUBCLASS_USBTMC = 0x03,
 188:lib/tinyusb/src/common/tusb_types.h ****   APP_SUBCLASS_DFU_RUNTIME = 0x01
 189:lib/tinyusb/src/common/tusb_types.h **** } app_subclass_type_t;
 190:lib/tinyusb/src/common/tusb_types.h **** 
 191:lib/tinyusb/src/common/tusb_types.h **** typedef enum {
 192:lib/tinyusb/src/common/tusb_types.h ****   DEVICE_CAPABILITY_WIRELESS_USB               = 0x01,
 193:lib/tinyusb/src/common/tusb_types.h ****   DEVICE_CAPABILITY_USB20_EXTENSION            = 0x02,
 194:lib/tinyusb/src/common/tusb_types.h ****   DEVICE_CAPABILITY_SUPERSPEED_USB             = 0x03,
 195:lib/tinyusb/src/common/tusb_types.h ****   DEVICE_CAPABILITY_CONTAINER_id               = 0x04,
 196:lib/tinyusb/src/common/tusb_types.h ****   DEVICE_CAPABILITY_PLATFORM                   = 0x05,
 197:lib/tinyusb/src/common/tusb_types.h ****   DEVICE_CAPABILITY_POWER_DELIVERY             = 0x06,
 198:lib/tinyusb/src/common/tusb_types.h ****   DEVICE_CAPABILITY_BATTERY_INFO               = 0x07,
 199:lib/tinyusb/src/common/tusb_types.h ****   DEVICE_CAPABILITY_PD_CONSUMER_PORT           = 0x08,
 200:lib/tinyusb/src/common/tusb_types.h ****   DEVICE_CAPABILITY_PD_PROVIDER_PORT           = 0x09,
 201:lib/tinyusb/src/common/tusb_types.h ****   DEVICE_CAPABILITY_SUPERSPEED_PLUS            = 0x0A,
 202:lib/tinyusb/src/common/tusb_types.h ****   DEVICE_CAPABILITY_PRECESION_TIME_MEASUREMENT = 0x0B,
 203:lib/tinyusb/src/common/tusb_types.h ****   DEVICE_CAPABILITY_WIRELESS_USB_EXT           = 0x0C,
 204:lib/tinyusb/src/common/tusb_types.h ****   DEVICE_CAPABILITY_BILLBOARD                  = 0x0D,
 205:lib/tinyusb/src/common/tusb_types.h ****   DEVICE_CAPABILITY_AUTHENTICATION             = 0x0E,
 206:lib/tinyusb/src/common/tusb_types.h ****   DEVICE_CAPABILITY_BILLBOARD_EX               = 0x0F,
 207:lib/tinyusb/src/common/tusb_types.h ****   DEVICE_CAPABILITY_CONFIGURATION_SUMMARY      = 0x10
 208:lib/tinyusb/src/common/tusb_types.h **** } device_capability_type_t;
 209:lib/tinyusb/src/common/tusb_types.h **** 
 210:lib/tinyusb/src/common/tusb_types.h **** enum {
 211:lib/tinyusb/src/common/tusb_types.h ****   TUSB_DESC_CONFIG_ATT_REMOTE_WAKEUP = 1u << 5,
 212:lib/tinyusb/src/common/tusb_types.h ****   TUSB_DESC_CONFIG_ATT_SELF_POWERED  = 1u << 6,
 213:lib/tinyusb/src/common/tusb_types.h **** };
 214:lib/tinyusb/src/common/tusb_types.h **** 
 215:lib/tinyusb/src/common/tusb_types.h **** #define TUSB_DESC_CONFIG_POWER_MA(x)  ((x)/2)
 216:lib/tinyusb/src/common/tusb_types.h **** 
ARM GAS  /tmp/claude-502/ccKWrqGw.s 			page 68


 217:lib/tinyusb/src/common/tusb_types.h **** // USB 2.0 Spec Table 9-7: Test Mode Selectors
 218:lib/tinyusb/src/common/tusb_types.h **** typedef enum {
 219:lib/tinyusb/src/common/tusb_types.h ****   TUSB_FEATURE_TEST_J = 1,
 220:lib/tinyusb/src/common/tusb_types.h ****   TUSB_FEATURE_TEST_K,
 221:lib/tinyusb/src/common/tusb_types.h ****   TUSB_FEATURE_TEST_SE0_NAK,
 222:lib/tinyusb/src/common/tusb_types.h ****   TUSB_FEATURE_TEST_PACKET,
 223:lib/tinyusb/src/common/tusb_types.h ****   TUSB_FEATURE_TEST_FORCE_ENABLE,
 224:lib/tinyusb/src/common/tusb_types.h **** } tusb_feature_test_mode_t;
 225:lib/tinyusb/src/common/tusb_types.h **** 
 226:lib/tinyusb/src/common/tusb_types.h **** //--------------------------------------------------------------------+
 227:lib/tinyusb/src/common/tusb_types.h **** //
 228:lib/tinyusb/src/common/tusb_types.h **** //--------------------------------------------------------------------+
 229:lib/tinyusb/src/common/tusb_types.h **** typedef enum {
 230:lib/tinyusb/src/common/tusb_types.h ****   XFER_RESULT_SUCCESS = 0,
 231:lib/tinyusb/src/common/tusb_types.h ****   XFER_RESULT_FAILED,
 232:lib/tinyusb/src/common/tusb_types.h ****   XFER_RESULT_STALLED,
 233:lib/tinyusb/src/common/tusb_types.h ****   XFER_RESULT_TIMEOUT,
 234:lib/tinyusb/src/common/tusb_types.h ****   XFER_RESULT_INVALID
 235:lib/tinyusb/src/common/tusb_types.h **** } xfer_result_t;
 236:lib/tinyusb/src/common/tusb_types.h **** 
 237:lib/tinyusb/src/common/tusb_types.h **** // TODO remove
 238:lib/tinyusb/src/common/tusb_types.h **** enum {
 239:lib/tinyusb/src/common/tusb_types.h ****   DESC_OFFSET_LEN  = 0,
 240:lib/tinyusb/src/common/tusb_types.h ****   DESC_OFFSET_TYPE = 1
 241:lib/tinyusb/src/common/tusb_types.h **** };
 242:lib/tinyusb/src/common/tusb_types.h **** 
 243:lib/tinyusb/src/common/tusb_types.h **** enum {
 244:lib/tinyusb/src/common/tusb_types.h ****   INTERFACE_INVALID_NUMBER = 0xff
 245:lib/tinyusb/src/common/tusb_types.h **** };
 246:lib/tinyusb/src/common/tusb_types.h **** 
 247:lib/tinyusb/src/common/tusb_types.h **** typedef enum {
 248:lib/tinyusb/src/common/tusb_types.h ****   MS_OS_20_SET_HEADER_DESCRIPTOR       = 0x00,
 249:lib/tinyusb/src/common/tusb_types.h ****   MS_OS_20_SUBSET_HEADER_CONFIGURATION = 0x01,
 250:lib/tinyusb/src/common/tusb_types.h ****   MS_OS_20_SUBSET_HEADER_FUNCTION      = 0x02,
 251:lib/tinyusb/src/common/tusb_types.h ****   MS_OS_20_FEATURE_COMPATBLE_ID        = 0x03,
 252:lib/tinyusb/src/common/tusb_types.h ****   MS_OS_20_FEATURE_REG_PROPERTY        = 0x04,
 253:lib/tinyusb/src/common/tusb_types.h ****   MS_OS_20_FEATURE_MIN_RESUME_TIME     = 0x05,
 254:lib/tinyusb/src/common/tusb_types.h ****   MS_OS_20_FEATURE_MODEL_ID            = 0x06,
 255:lib/tinyusb/src/common/tusb_types.h ****   MS_OS_20_FEATURE_CCGP_DEVICE         = 0x07,
 256:lib/tinyusb/src/common/tusb_types.h ****   MS_OS_20_FEATURE_VENDOR_REVISION     = 0x08
 257:lib/tinyusb/src/common/tusb_types.h **** } microsoft_os_20_type_t;
 258:lib/tinyusb/src/common/tusb_types.h **** 
 259:lib/tinyusb/src/common/tusb_types.h **** enum {
 260:lib/tinyusb/src/common/tusb_types.h ****   CONTROL_STAGE_IDLE,
 261:lib/tinyusb/src/common/tusb_types.h ****   CONTROL_STAGE_SETUP,
 262:lib/tinyusb/src/common/tusb_types.h ****   CONTROL_STAGE_DATA,
 263:lib/tinyusb/src/common/tusb_types.h ****   CONTROL_STAGE_ACK
 264:lib/tinyusb/src/common/tusb_types.h **** };
 265:lib/tinyusb/src/common/tusb_types.h **** 
 266:lib/tinyusb/src/common/tusb_types.h **** enum {
 267:lib/tinyusb/src/common/tusb_types.h ****   TUSB_INDEX_INVALID_8 = 0xFFu
 268:lib/tinyusb/src/common/tusb_types.h **** };
 269:lib/tinyusb/src/common/tusb_types.h **** 
 270:lib/tinyusb/src/common/tusb_types.h **** //--------------------------------------------------------------------+
 271:lib/tinyusb/src/common/tusb_types.h **** // USB Descriptors
 272:lib/tinyusb/src/common/tusb_types.h **** //--------------------------------------------------------------------+
 273:lib/tinyusb/src/common/tusb_types.h **** 
ARM GAS  /tmp/claude-502/ccKWrqGw.s 			page 69


 274:lib/tinyusb/src/common/tusb_types.h **** // Start of all packed definitions for compiler without per-type packed
 275:lib/tinyusb/src/common/tusb_types.h **** TU_ATTR_PACKED_BEGIN
 276:lib/tinyusb/src/common/tusb_types.h **** TU_ATTR_BIT_FIELD_ORDER_BEGIN
 277:lib/tinyusb/src/common/tusb_types.h **** 
 278:lib/tinyusb/src/common/tusb_types.h **** /// USB Device Descriptor
 279:lib/tinyusb/src/common/tusb_types.h **** typedef struct TU_ATTR_PACKED {
 280:lib/tinyusb/src/common/tusb_types.h ****   uint8_t  bLength            ; ///< Size of this descriptor in bytes.
 281:lib/tinyusb/src/common/tusb_types.h ****   uint8_t  bDescriptorType    ; ///< DEVICE Descriptor Type.
 282:lib/tinyusb/src/common/tusb_types.h ****   uint16_t bcdUSB             ; ///< BUSB Specification Release Number in Binary-Coded Decimal (i.e
 283:lib/tinyusb/src/common/tusb_types.h **** 
 284:lib/tinyusb/src/common/tusb_types.h ****   uint8_t  bDeviceClass       ; ///< Class code (assigned by the USB-IF).
 285:lib/tinyusb/src/common/tusb_types.h ****   uint8_t  bDeviceSubClass    ; ///< Subclass code (assigned by the USB-IF).
 286:lib/tinyusb/src/common/tusb_types.h ****   uint8_t  bDeviceProtocol    ; ///< Protocol code (assigned by the USB-IF).
 287:lib/tinyusb/src/common/tusb_types.h ****   uint8_t  bMaxPacketSize0    ; ///< Maximum packet size for endpoint zero (only 8, 16, 32, or 64 a
 288:lib/tinyusb/src/common/tusb_types.h **** 
 289:lib/tinyusb/src/common/tusb_types.h ****   uint16_t idVendor           ; ///< Vendor ID (assigned by the USB-IF).
 290:lib/tinyusb/src/common/tusb_types.h ****   uint16_t idProduct          ; ///< Product ID (assigned by the manufacturer).
 291:lib/tinyusb/src/common/tusb_types.h ****   uint16_t bcdDevice          ; ///< Device release number in binary-coded decimal.
 292:lib/tinyusb/src/common/tusb_types.h ****   uint8_t  iManufacturer      ; ///< Index of string descriptor describing manufacturer.
 293:lib/tinyusb/src/common/tusb_types.h ****   uint8_t  iProduct           ; ///< Index of string descriptor describing product.
 294:lib/tinyusb/src/common/tusb_types.h ****   uint8_t  iSerialNumber      ; ///< Index of string descriptor describing the device's serial numb
 295:lib/tinyusb/src/common/tusb_types.h **** 
 296:lib/tinyusb/src/common/tusb_types.h ****   uint8_t  bNumConfigurations ; ///< Number of possible configurations.
 297:lib/tinyusb/src/common/tusb_types.h **** } tusb_desc_device_t;
 298:lib/tinyusb/src/common/tusb_types.h **** 
 299:lib/tinyusb/src/common/tusb_types.h **** TU_VERIFY_STATIC( sizeof(tusb_desc_device_t) == 18, "size is not correct");
 300:lib/tinyusb/src/common/tusb_types.h **** 
 301:lib/tinyusb/src/common/tusb_types.h **** // USB Binary Device Object Store (BOS) Descriptor
 302:lib/tinyusb/src/common/tusb_types.h **** typedef struct TU_ATTR_PACKED {
 303:lib/tinyusb/src/common/tusb_types.h ****   uint8_t  bLength         ; ///< Size of this descriptor in bytes
 304:lib/tinyusb/src/common/tusb_types.h ****   uint8_t  bDescriptorType ; ///< CONFIGURATION Descriptor Type
 305:lib/tinyusb/src/common/tusb_types.h ****   uint16_t wTotalLength    ; ///< Total length of data returned for this descriptor
 306:lib/tinyusb/src/common/tusb_types.h ****   uint8_t  bNumDeviceCaps  ; ///< Number of device capability descriptors in the BOS
 307:lib/tinyusb/src/common/tusb_types.h **** } tusb_desc_bos_t;
 308:lib/tinyusb/src/common/tusb_types.h **** 
 309:lib/tinyusb/src/common/tusb_types.h **** TU_VERIFY_STATIC( sizeof(tusb_desc_bos_t) == 5, "size is not correct");
 310:lib/tinyusb/src/common/tusb_types.h **** 
 311:lib/tinyusb/src/common/tusb_types.h **** /// USB Configuration Descriptor
 312:lib/tinyusb/src/common/tusb_types.h **** typedef struct TU_ATTR_PACKED {
 313:lib/tinyusb/src/common/tusb_types.h ****   uint8_t  bLength             ; ///< Size of this descriptor in bytes
 314:lib/tinyusb/src/common/tusb_types.h ****   uint8_t  bDescriptorType     ; ///< CONFIGURATION Descriptor Type
 315:lib/tinyusb/src/common/tusb_types.h ****   uint16_t wTotalLength        ; ///< Total length of data returned for this configuration. Include
 316:lib/tinyusb/src/common/tusb_types.h **** 
 317:lib/tinyusb/src/common/tusb_types.h ****   uint8_t  bNumInterfaces      ; ///< Number of interfaces supported by this configuration
 318:lib/tinyusb/src/common/tusb_types.h ****   uint8_t  bConfigurationValue ; ///< Value to use as an argument to the SetConfiguration() request
 319:lib/tinyusb/src/common/tusb_types.h ****   uint8_t  iConfiguration      ; ///< Index of string descriptor describing this configuration
 320:lib/tinyusb/src/common/tusb_types.h ****   uint8_t  bmAttributes        ; ///< Configuration characteristics \n D7: Reserved (set to one)\n 
 321:lib/tinyusb/src/common/tusb_types.h ****   uint8_t  bMaxPower           ; ///< Maximum power consumption of the USB device from the bus in t
 322:lib/tinyusb/src/common/tusb_types.h **** } tusb_desc_configuration_t;
 323:lib/tinyusb/src/common/tusb_types.h **** 
 324:lib/tinyusb/src/common/tusb_types.h **** TU_VERIFY_STATIC( sizeof(tusb_desc_configuration_t) == 9, "size is not correct");
 325:lib/tinyusb/src/common/tusb_types.h **** 
 326:lib/tinyusb/src/common/tusb_types.h **** /// USB Interface Descriptor
 327:lib/tinyusb/src/common/tusb_types.h **** typedef struct TU_ATTR_PACKED {
 328:lib/tinyusb/src/common/tusb_types.h ****   uint8_t  bLength            ; ///< Size of this descriptor in bytes
 329:lib/tinyusb/src/common/tusb_types.h ****   uint8_t  bDescriptorType    ; ///< INTERFACE Descriptor Type
 330:lib/tinyusb/src/common/tusb_types.h **** 
ARM GAS  /tmp/claude-502/ccKWrqGw.s 			page 70


 331:lib/tinyusb/src/common/tusb_types.h ****   uint8_t  bInterfaceNumber   ; ///< Number of this interface. Zero-based value identifying the ind
 332:lib/tinyusb/src/common/tusb_types.h ****   uint8_t  bAlternateSetting  ; ///< Value used to select this alternate setting for the interface 
 333:lib/tinyusb/src/common/tusb_types.h ****   uint8_t  bNumEndpoints      ; ///< Number of endpoints used by this interface (excluding endpoint
 334:lib/tinyusb/src/common/tusb_types.h ****   uint8_t  bInterfaceClass    ; ///< Class code (assigned by the USB-IF). \li A value of zero is re
 335:lib/tinyusb/src/common/tusb_types.h ****   uint8_t  bInterfaceSubClass ; ///< Subclass code (assigned by the USB-IF). \n These codes are qua
 336:lib/tinyusb/src/common/tusb_types.h ****   uint8_t  bInterfaceProtocol ; ///< Protocol code (assigned by the USB). \n These codes are qualif
 337:lib/tinyusb/src/common/tusb_types.h ****   uint8_t  iInterface         ; ///< Index of string descriptor describing this interface
 338:lib/tinyusb/src/common/tusb_types.h **** } tusb_desc_interface_t;
 339:lib/tinyusb/src/common/tusb_types.h **** 
 340:lib/tinyusb/src/common/tusb_types.h **** TU_VERIFY_STATIC( sizeof(tusb_desc_interface_t) == 9, "size is not correct");
 341:lib/tinyusb/src/common/tusb_types.h **** 
 342:lib/tinyusb/src/common/tusb_types.h **** /// USB Endpoint Descriptor
 343:lib/tinyusb/src/common/tusb_types.h **** typedef struct TU_ATTR_PACKED {
 344:lib/tinyusb/src/common/tusb_types.h ****   uint8_t  bLength          ; // Size of this descriptor in bytes
 345:lib/tinyusb/src/common/tusb_types.h ****   uint8_t  bDescriptorType  ; // ENDPOINT Descriptor Type
 346:lib/tinyusb/src/common/tusb_types.h **** 
 347:lib/tinyusb/src/common/tusb_types.h ****   uint8_t  bEndpointAddress ; // The address of the endpoint
 348:lib/tinyusb/src/common/tusb_types.h **** 
 349:lib/tinyusb/src/common/tusb_types.h ****   struct TU_ATTR_PACKED {
 350:lib/tinyusb/src/common/tusb_types.h ****     uint8_t xfer  : 2;        // Control, ISO, Bulk, Interrupt
 351:lib/tinyusb/src/common/tusb_types.h ****     uint8_t sync  : 2;        // None, Asynchronous, Adaptive, Synchronous
 352:lib/tinyusb/src/common/tusb_types.h ****     uint8_t usage : 2;        // Data, Feedback, Implicit feedback
 353:lib/tinyusb/src/common/tusb_types.h ****     uint8_t       : 2;
 354:lib/tinyusb/src/common/tusb_types.h ****   } bmAttributes;
 355:lib/tinyusb/src/common/tusb_types.h **** 
 356:lib/tinyusb/src/common/tusb_types.h ****   uint16_t wMaxPacketSize   ; // Bit 10..0 : max packet size, bit 12..11 additional transaction per
 357:lib/tinyusb/src/common/tusb_types.h ****   uint8_t  bInterval        ; // Polling interval, in frames or microframes depending on the operat
 358:lib/tinyusb/src/common/tusb_types.h **** } tusb_desc_endpoint_t;
 359:lib/tinyusb/src/common/tusb_types.h **** 
 360:lib/tinyusb/src/common/tusb_types.h **** TU_VERIFY_STATIC( sizeof(tusb_desc_endpoint_t) == 7, "size is not correct");
 361:lib/tinyusb/src/common/tusb_types.h **** 
 362:lib/tinyusb/src/common/tusb_types.h **** /// USB Other Speed Configuration Descriptor
 363:lib/tinyusb/src/common/tusb_types.h **** typedef struct TU_ATTR_PACKED {
 364:lib/tinyusb/src/common/tusb_types.h ****   uint8_t  bLength             ; ///< Size of descriptor
 365:lib/tinyusb/src/common/tusb_types.h ****   uint8_t  bDescriptorType     ; ///< Other_speed_Configuration Type
 366:lib/tinyusb/src/common/tusb_types.h ****   uint16_t wTotalLength        ; ///< Total length of data returned
 367:lib/tinyusb/src/common/tusb_types.h **** 
 368:lib/tinyusb/src/common/tusb_types.h ****   uint8_t  bNumInterfaces      ; ///< Number of interfaces supported by this speed configuration
 369:lib/tinyusb/src/common/tusb_types.h ****   uint8_t  bConfigurationValue ; ///< Value to use to select configuration
 370:lib/tinyusb/src/common/tusb_types.h ****   uint8_t  iConfiguration      ; ///< Index of string descriptor
 371:lib/tinyusb/src/common/tusb_types.h ****   uint8_t  bmAttributes        ; ///< Same as Configuration descriptor
 372:lib/tinyusb/src/common/tusb_types.h ****   uint8_t  bMaxPower           ; ///< Same as Configuration descriptor
 373:lib/tinyusb/src/common/tusb_types.h **** } tusb_desc_other_speed_t;
 374:lib/tinyusb/src/common/tusb_types.h **** 
 375:lib/tinyusb/src/common/tusb_types.h **** /// USB Device Qualifier Descriptor
 376:lib/tinyusb/src/common/tusb_types.h **** typedef struct TU_ATTR_PACKED {
 377:lib/tinyusb/src/common/tusb_types.h ****   uint8_t  bLength            ; ///< Size of descriptor
 378:lib/tinyusb/src/common/tusb_types.h ****   uint8_t  bDescriptorType    ; ///< Device Qualifier Type
 379:lib/tinyusb/src/common/tusb_types.h ****   uint16_t bcdUSB             ; ///< USB specification version number (e.g., 0200H for V2.00)
 380:lib/tinyusb/src/common/tusb_types.h **** 
 381:lib/tinyusb/src/common/tusb_types.h ****   uint8_t  bDeviceClass       ; ///< Class Code
 382:lib/tinyusb/src/common/tusb_types.h ****   uint8_t  bDeviceSubClass    ; ///< SubClass Code
 383:lib/tinyusb/src/common/tusb_types.h ****   uint8_t  bDeviceProtocol    ; ///< Protocol Code
 384:lib/tinyusb/src/common/tusb_types.h **** 
 385:lib/tinyusb/src/common/tusb_types.h ****   uint8_t  bMaxPacketSize0    ; ///< Maximum packet size for other speed
 386:lib/tinyusb/src/common/tusb_types.h ****   uint8_t  bNumConfigurations ; ///< Number of Other-speed Configurations
 387:lib/tinyusb/src/common/tusb_types.h ****   uint8_t  bReserved          ; ///< Reserved for future use, must be zero
ARM GAS  /tmp/claude-502/ccKWrqGw.s 			page 71


 388:lib/tinyusb/src/common/tusb_types.h **** } tusb_desc_device_qualifier_t;
 389:lib/tinyusb/src/common/tusb_types.h **** 
 390:lib/tinyusb/src/common/tusb_types.h **** TU_VERIFY_STATIC( sizeof(tusb_desc_device_qualifier_t) == 10, "size is not correct");
 391:lib/tinyusb/src/common/tusb_types.h **** 
 392:lib/tinyusb/src/common/tusb_types.h **** /// USB Interface Association Descriptor (IAD ECN)
 393:lib/tinyusb/src/common/tusb_types.h **** typedef struct TU_ATTR_PACKED {
 394:lib/tinyusb/src/common/tusb_types.h ****   uint8_t bLength           ; ///< Size of descriptor
 395:lib/tinyusb/src/common/tusb_types.h ****   uint8_t bDescriptorType   ; ///< Other_speed_Configuration Type
 396:lib/tinyusb/src/common/tusb_types.h **** 
 397:lib/tinyusb/src/common/tusb_types.h ****   uint8_t bFirstInterface   ; ///< Index of the first associated interface.
 398:lib/tinyusb/src/common/tusb_types.h ****   uint8_t bInterfaceCount   ; ///< Total number of associated interfaces.
 399:lib/tinyusb/src/common/tusb_types.h **** 
 400:lib/tinyusb/src/common/tusb_types.h ****   uint8_t bFunctionClass    ; ///< Interface class ID.
 401:lib/tinyusb/src/common/tusb_types.h ****   uint8_t bFunctionSubClass ; ///< Interface subclass ID.
 402:lib/tinyusb/src/common/tusb_types.h ****   uint8_t bFunctionProtocol ; ///< Interface protocol ID.
 403:lib/tinyusb/src/common/tusb_types.h **** 
 404:lib/tinyusb/src/common/tusb_types.h ****   uint8_t iFunction         ; ///< Index of the string descriptor describing the interface associat
 405:lib/tinyusb/src/common/tusb_types.h **** } tusb_desc_interface_assoc_t;
 406:lib/tinyusb/src/common/tusb_types.h **** 
 407:lib/tinyusb/src/common/tusb_types.h **** TU_VERIFY_STATIC( sizeof(tusb_desc_interface_assoc_t) == 8, "size is not correct");
 408:lib/tinyusb/src/common/tusb_types.h **** 
 409:lib/tinyusb/src/common/tusb_types.h **** // USB String Descriptor
 410:lib/tinyusb/src/common/tusb_types.h **** typedef struct TU_ATTR_PACKED {
 411:lib/tinyusb/src/common/tusb_types.h ****   uint8_t  bLength         ; ///< Size of this descriptor in bytes
 412:lib/tinyusb/src/common/tusb_types.h ****   uint8_t  bDescriptorType ; ///< Descriptor Type
 413:lib/tinyusb/src/common/tusb_types.h ****   uint16_t unicode_string[];
 414:lib/tinyusb/src/common/tusb_types.h **** } tusb_desc_string_t;
 415:lib/tinyusb/src/common/tusb_types.h **** 
 416:lib/tinyusb/src/common/tusb_types.h **** // USB Binary Device Object Store (BOS)
 417:lib/tinyusb/src/common/tusb_types.h **** typedef struct TU_ATTR_PACKED {
 418:lib/tinyusb/src/common/tusb_types.h ****   uint8_t bLength;
 419:lib/tinyusb/src/common/tusb_types.h ****   uint8_t bDescriptorType ;
 420:lib/tinyusb/src/common/tusb_types.h ****   uint8_t bDevCapabilityType;
 421:lib/tinyusb/src/common/tusb_types.h ****   uint8_t bReserved;
 422:lib/tinyusb/src/common/tusb_types.h ****   uint8_t PlatformCapabilityUUID[16];
 423:lib/tinyusb/src/common/tusb_types.h ****   uint8_t CapabilityData[];
 424:lib/tinyusb/src/common/tusb_types.h **** } tusb_desc_bos_platform_t;
 425:lib/tinyusb/src/common/tusb_types.h **** 
 426:lib/tinyusb/src/common/tusb_types.h **** // USB WebUSB URL Descriptor
 427:lib/tinyusb/src/common/tusb_types.h **** typedef struct TU_ATTR_PACKED {
 428:lib/tinyusb/src/common/tusb_types.h ****   uint8_t bLength;
 429:lib/tinyusb/src/common/tusb_types.h ****   uint8_t bDescriptorType;
 430:lib/tinyusb/src/common/tusb_types.h ****   uint8_t bScheme;
 431:lib/tinyusb/src/common/tusb_types.h ****   char    url[];
 432:lib/tinyusb/src/common/tusb_types.h **** } tusb_desc_webusb_url_t;
 433:lib/tinyusb/src/common/tusb_types.h **** 
 434:lib/tinyusb/src/common/tusb_types.h **** // DFU Functional Descriptor
 435:lib/tinyusb/src/common/tusb_types.h **** typedef struct TU_ATTR_PACKED {
 436:lib/tinyusb/src/common/tusb_types.h ****   uint8_t  bLength;
 437:lib/tinyusb/src/common/tusb_types.h ****   uint8_t  bDescriptorType;
 438:lib/tinyusb/src/common/tusb_types.h **** 
 439:lib/tinyusb/src/common/tusb_types.h ****   union {
 440:lib/tinyusb/src/common/tusb_types.h ****     struct TU_ATTR_PACKED {
 441:lib/tinyusb/src/common/tusb_types.h ****       uint8_t bitCanDnload             : 1;
 442:lib/tinyusb/src/common/tusb_types.h ****       uint8_t bitCanUpload             : 1;
 443:lib/tinyusb/src/common/tusb_types.h ****       uint8_t bitManifestationTolerant : 1;
 444:lib/tinyusb/src/common/tusb_types.h ****       uint8_t bitWillDetach            : 1;
ARM GAS  /tmp/claude-502/ccKWrqGw.s 			page 72


 445:lib/tinyusb/src/common/tusb_types.h ****       uint8_t reserved                 : 4;
 446:lib/tinyusb/src/common/tusb_types.h ****     } bmAttributes;
 447:lib/tinyusb/src/common/tusb_types.h **** 
 448:lib/tinyusb/src/common/tusb_types.h ****     uint8_t bAttributes;
 449:lib/tinyusb/src/common/tusb_types.h ****   };
 450:lib/tinyusb/src/common/tusb_types.h **** 
 451:lib/tinyusb/src/common/tusb_types.h ****   uint16_t wDetachTimeOut;
 452:lib/tinyusb/src/common/tusb_types.h ****   uint16_t wTransferSize;
 453:lib/tinyusb/src/common/tusb_types.h ****   uint16_t bcdDFUVersion;
 454:lib/tinyusb/src/common/tusb_types.h **** } tusb_desc_dfu_functional_t;
 455:lib/tinyusb/src/common/tusb_types.h **** 
 456:lib/tinyusb/src/common/tusb_types.h **** //--------------------------------------------------------------------+
 457:lib/tinyusb/src/common/tusb_types.h **** //
 458:lib/tinyusb/src/common/tusb_types.h **** //--------------------------------------------------------------------+
 459:lib/tinyusb/src/common/tusb_types.h **** 
 460:lib/tinyusb/src/common/tusb_types.h **** typedef struct TU_ATTR_PACKED {
 461:lib/tinyusb/src/common/tusb_types.h ****   union {
 462:lib/tinyusb/src/common/tusb_types.h ****     struct TU_ATTR_PACKED {
 463:lib/tinyusb/src/common/tusb_types.h ****       uint8_t recipient :  5; ///< Recipient type tusb_request_recipient_t.
 464:lib/tinyusb/src/common/tusb_types.h ****       uint8_t type      :  2; ///< Request type tusb_request_type_t.
 465:lib/tinyusb/src/common/tusb_types.h ****       uint8_t direction :  1; ///< Direction type. tusb_dir_t
 466:lib/tinyusb/src/common/tusb_types.h ****     } bmRequestType_bit;
 467:lib/tinyusb/src/common/tusb_types.h **** 
 468:lib/tinyusb/src/common/tusb_types.h ****     uint8_t bmRequestType;
 469:lib/tinyusb/src/common/tusb_types.h ****   };
 470:lib/tinyusb/src/common/tusb_types.h **** 
 471:lib/tinyusb/src/common/tusb_types.h ****   uint8_t  bRequest;
 472:lib/tinyusb/src/common/tusb_types.h ****   uint16_t wValue;
 473:lib/tinyusb/src/common/tusb_types.h ****   uint16_t wIndex;
 474:lib/tinyusb/src/common/tusb_types.h ****   uint16_t wLength;
 475:lib/tinyusb/src/common/tusb_types.h **** } tusb_control_request_t;
 476:lib/tinyusb/src/common/tusb_types.h **** 
 477:lib/tinyusb/src/common/tusb_types.h **** TU_VERIFY_STATIC( sizeof(tusb_control_request_t) == 8, "size is not correct");
 478:lib/tinyusb/src/common/tusb_types.h **** 
 479:lib/tinyusb/src/common/tusb_types.h **** TU_ATTR_PACKED_END  // End of all packed definitions
 480:lib/tinyusb/src/common/tusb_types.h **** TU_ATTR_BIT_FIELD_ORDER_END
 481:lib/tinyusb/src/common/tusb_types.h **** 
 482:lib/tinyusb/src/common/tusb_types.h **** //--------------------------------------------------------------------+
 483:lib/tinyusb/src/common/tusb_types.h **** // Endpoint helper
 484:lib/tinyusb/src/common/tusb_types.h **** //--------------------------------------------------------------------+
 485:lib/tinyusb/src/common/tusb_types.h **** 
 486:lib/tinyusb/src/common/tusb_types.h **** // Get direction from Endpoint address
